ARM GAS  C:\Users\Adrian\AppData\Local\Temp\ccxGI9oe.s 			page 1


   1              		.syntax unified
   2              		.cpu cortex-m3
   3              		.fpu softvfp
   4              		.eabi_attribute 20, 1	@ Tag_ABI_FP_denormal
   5              		.eabi_attribute 21, 1	@ Tag_ABI_FP_exceptions
   6              		.eabi_attribute 23, 3	@ Tag_ABI_FP_number_model
   7              		.eabi_attribute 24, 1	@ Tag_ABI_align8_needed
   8              		.eabi_attribute 25, 1	@ Tag_ABI_align8_preserved
   9              		.eabi_attribute 26, 1	@ Tag_ABI_enum_size
  10              		.eabi_attribute 30, 6	@ Tag_ABI_optimization_goals
  11              		.eabi_attribute 34, 1	@ Tag_CPU_unaligned_access
  12              		.eabi_attribute 18, 4	@ Tag_ABI_PCS_wchar_t
  13              		.file	"command.cpp"
  14              	@ GNU C++ (GNU Tools for ARM Embedded Processors) version 4.8.4 20140526 (release) [ARM/embedded-4_
  15              	@	compiled by GNU C version 4.6.4, GMP version 4.3.2, MPFR version 2.4.2, MPC version 0.8.1
  16              	@ GGC heuristics: --param ggc-min-expand=100 --param ggc-min-heapsize=131072
  17              	@ options passed:  -I . -I inc -I FreeRTOS/include
  18              	@ -I FreeRTOS/portable/GCC/ARM_CM3 -I FatFS -I peripherals -I configuration
  19              	@ -I drivers -I application -imultilib armv7-m
  20              	@ -iprefix d:\programy\gnu tools arm embedded\4.8 2014q2\bin\../lib/gcc/arm-none-eabi/4.8.4/
  21              	@ -isysroot d:\programy\gnu tools arm embedded\4.8 2014q2\bin\../arm-none-eabi
  22              	@ -MD out/command.d -MF out/command.d -MP -MQ out/command.o
  23              	@ -D__USES_INITFINI__ -D STM32L1XX_MD peripherals/command.cpp
  24              	@ -mcpu=cortex-m3 -mthumb -auxbase-strip out/command.o -g -ggdb3 -O0 -Wall
  25              	@ -Wextra -std=gnu++11 -ffunction-sections -fdata-sections -fno-rtti
  26              	@ -fno-exceptions -fverbose-asm
  27              	@ options enabled:  -faggressive-loop-optimizations -fauto-inc-dec
  28              	@ -fbranch-count-reg -fcommon -fdata-sections -fdelete-null-pointer-checks
  29              	@ -fdwarf2-cfi-asm -fearly-inlining -feliminate-unused-debug-types
  30              	@ -ffunction-cse -ffunction-sections -fgcse-lm -fgnu-runtime -fident
  31              	@ -finline-atomics -fira-hoist-pressure -fira-share-save-slots
  32              	@ -fira-share-spill-slots -fivopts -fkeep-static-consts
  33              	@ -fleading-underscore -fmath-errno -fmerge-debug-strings
  34              	@ -fmove-loop-invariants -fpeephole -fprefetch-loop-arrays
  35              	@ -freg-struct-return -fsched-critical-path-heuristic
  36              	@ -fsched-dep-count-heuristic -fsched-group-heuristic -fsched-interblock
  37              	@ -fsched-last-insn-heuristic -fsched-rank-heuristic -fsched-spec
  38              	@ -fsched-spec-insn-heuristic -fsched-stalled-insns-dep -fshow-column
  39              	@ -fsigned-zeros -fsplit-ivs-in-unroller -fstrict-volatile-bitfields
  40              	@ -fsync-libcalls -ftrapping-math -ftree-coalesce-vars -ftree-cselim
  41              	@ -ftree-forwprop -ftree-loop-if-convert -ftree-loop-im -ftree-loop-ivcanon
  42              	@ -ftree-loop-optimize -ftree-parallelize-loops= -ftree-phiprop -ftree-pta
  43              	@ -ftree-reassoc -ftree-scev-cprop -ftree-slp-vectorize
  44              	@ -ftree-vect-loop-version -funit-at-a-time -fverbose-asm
  45              	@ -fzero-initialized-in-bss -mfix-cortex-m3-ldrd -mlittle-endian
  46              	@ -mpic-data-is-text-relative -msched-prolog -mthumb -munaligned-access
  47              	@ -mvectorize-with-neon-quad
  48              	
  49              		.text
  50              	.Ltext0:
  51              		.cfi_sections	.debug_frame
  52              		.section	.rodata._ZStL19piecewise_construct,"a",%progbits
  53              		.align	2
  54              		.type	_ZStL19piecewise_construct, %object
  55              		.size	_ZStL19piecewise_construct, 1
  56              	_ZStL19piecewise_construct:
  57 0000 00       		.space	1
ARM GAS  C:\Users\Adrian\AppData\Local\Temp\ccxGI9oe.s 			page 2


  58 0001 000000   		.section	.text._ZnwjPv,"axG",%progbits,_ZnwjPv,comdat
  59              		.align	2
  60              		.weak	_ZnwjPv
  61              		.thumb
  62              		.thumb_func
  63              		.type	_ZnwjPv, %function
  64              	_ZnwjPv:
  65              	.LFB249:
  66              		.file 1 "d:\\programy\\gnu tools arm embedded\\4.8 2014q2\\arm-none-eabi\\include\\c++\\4.8.4\\new
   1:d:\programy\gnu tools arm embedded\4.8 2014q2\arm-none-eabi\include\c++\4.8.4\new **** // The -*- C++ -*- dynamic memory management header.
   2:d:\programy\gnu tools arm embedded\4.8 2014q2\arm-none-eabi\include\c++\4.8.4\new **** 
   3:d:\programy\gnu tools arm embedded\4.8 2014q2\arm-none-eabi\include\c++\4.8.4\new **** // Copyright (C) 1994-2013 Free Software Foundation, Inc.
   4:d:\programy\gnu tools arm embedded\4.8 2014q2\arm-none-eabi\include\c++\4.8.4\new **** 
   5:d:\programy\gnu tools arm embedded\4.8 2014q2\arm-none-eabi\include\c++\4.8.4\new **** // This file is part of GCC.
   6:d:\programy\gnu tools arm embedded\4.8 2014q2\arm-none-eabi\include\c++\4.8.4\new **** //
   7:d:\programy\gnu tools arm embedded\4.8 2014q2\arm-none-eabi\include\c++\4.8.4\new **** // GCC is free software; you can redistribute it and/or modify
   8:d:\programy\gnu tools arm embedded\4.8 2014q2\arm-none-eabi\include\c++\4.8.4\new **** // it under the terms of the GNU General Public License as published by
   9:d:\programy\gnu tools arm embedded\4.8 2014q2\arm-none-eabi\include\c++\4.8.4\new **** // the Free Software Foundation; either version 3, or (at your option)
  10:d:\programy\gnu tools arm embedded\4.8 2014q2\arm-none-eabi\include\c++\4.8.4\new **** // any later version.
  11:d:\programy\gnu tools arm embedded\4.8 2014q2\arm-none-eabi\include\c++\4.8.4\new **** // 
  12:d:\programy\gnu tools arm embedded\4.8 2014q2\arm-none-eabi\include\c++\4.8.4\new **** // GCC is distributed in the hope that it will be useful,
  13:d:\programy\gnu tools arm embedded\4.8 2014q2\arm-none-eabi\include\c++\4.8.4\new **** // but WITHOUT ANY WARRANTY; without even the implied warranty of
  14:d:\programy\gnu tools arm embedded\4.8 2014q2\arm-none-eabi\include\c++\4.8.4\new **** // MERCHANTABILITY or FITNESS FOR A PARTICULAR PURPOSE.  See the
  15:d:\programy\gnu tools arm embedded\4.8 2014q2\arm-none-eabi\include\c++\4.8.4\new **** // GNU General Public License for more details.
  16:d:\programy\gnu tools arm embedded\4.8 2014q2\arm-none-eabi\include\c++\4.8.4\new **** // 
  17:d:\programy\gnu tools arm embedded\4.8 2014q2\arm-none-eabi\include\c++\4.8.4\new **** // Under Section 7 of GPL version 3, you are granted additional
  18:d:\programy\gnu tools arm embedded\4.8 2014q2\arm-none-eabi\include\c++\4.8.4\new **** // permissions described in the GCC Runtime Library Exception, version
  19:d:\programy\gnu tools arm embedded\4.8 2014q2\arm-none-eabi\include\c++\4.8.4\new **** // 3.1, as published by the Free Software Foundation.
  20:d:\programy\gnu tools arm embedded\4.8 2014q2\arm-none-eabi\include\c++\4.8.4\new **** 
  21:d:\programy\gnu tools arm embedded\4.8 2014q2\arm-none-eabi\include\c++\4.8.4\new **** // You should have received a copy of the GNU General Public License and
  22:d:\programy\gnu tools arm embedded\4.8 2014q2\arm-none-eabi\include\c++\4.8.4\new **** // a copy of the GCC Runtime Library Exception along with this program;
  23:d:\programy\gnu tools arm embedded\4.8 2014q2\arm-none-eabi\include\c++\4.8.4\new **** // see the files COPYING3 and COPYING.RUNTIME respectively.  If not, see
  24:d:\programy\gnu tools arm embedded\4.8 2014q2\arm-none-eabi\include\c++\4.8.4\new **** // <http://www.gnu.org/licenses/>.
  25:d:\programy\gnu tools arm embedded\4.8 2014q2\arm-none-eabi\include\c++\4.8.4\new **** 
  26:d:\programy\gnu tools arm embedded\4.8 2014q2\arm-none-eabi\include\c++\4.8.4\new **** /** @file new
  27:d:\programy\gnu tools arm embedded\4.8 2014q2\arm-none-eabi\include\c++\4.8.4\new ****  *  This is a Standard C++ Library header.
  28:d:\programy\gnu tools arm embedded\4.8 2014q2\arm-none-eabi\include\c++\4.8.4\new ****  *
  29:d:\programy\gnu tools arm embedded\4.8 2014q2\arm-none-eabi\include\c++\4.8.4\new ****  *  The header @c new defines several functions to manage dynamic memory and
  30:d:\programy\gnu tools arm embedded\4.8 2014q2\arm-none-eabi\include\c++\4.8.4\new ****  *  handling memory allocation errors; see
  31:d:\programy\gnu tools arm embedded\4.8 2014q2\arm-none-eabi\include\c++\4.8.4\new ****  *  http://gcc.gnu.org/onlinedocs/libstdc++/18_support/howto.html#4 for more.
  32:d:\programy\gnu tools arm embedded\4.8 2014q2\arm-none-eabi\include\c++\4.8.4\new ****  */
  33:d:\programy\gnu tools arm embedded\4.8 2014q2\arm-none-eabi\include\c++\4.8.4\new **** 
  34:d:\programy\gnu tools arm embedded\4.8 2014q2\arm-none-eabi\include\c++\4.8.4\new **** #ifndef _NEW
  35:d:\programy\gnu tools arm embedded\4.8 2014q2\arm-none-eabi\include\c++\4.8.4\new **** #define _NEW
  36:d:\programy\gnu tools arm embedded\4.8 2014q2\arm-none-eabi\include\c++\4.8.4\new **** 
  37:d:\programy\gnu tools arm embedded\4.8 2014q2\arm-none-eabi\include\c++\4.8.4\new **** #pragma GCC system_header
  38:d:\programy\gnu tools arm embedded\4.8 2014q2\arm-none-eabi\include\c++\4.8.4\new **** 
  39:d:\programy\gnu tools arm embedded\4.8 2014q2\arm-none-eabi\include\c++\4.8.4\new **** #include <bits/c++config.h>
  40:d:\programy\gnu tools arm embedded\4.8 2014q2\arm-none-eabi\include\c++\4.8.4\new **** #include <exception>
  41:d:\programy\gnu tools arm embedded\4.8 2014q2\arm-none-eabi\include\c++\4.8.4\new **** 
  42:d:\programy\gnu tools arm embedded\4.8 2014q2\arm-none-eabi\include\c++\4.8.4\new **** #pragma GCC visibility push(default)
  43:d:\programy\gnu tools arm embedded\4.8 2014q2\arm-none-eabi\include\c++\4.8.4\new **** 
  44:d:\programy\gnu tools arm embedded\4.8 2014q2\arm-none-eabi\include\c++\4.8.4\new **** extern "C++" {
  45:d:\programy\gnu tools arm embedded\4.8 2014q2\arm-none-eabi\include\c++\4.8.4\new **** 
  46:d:\programy\gnu tools arm embedded\4.8 2014q2\arm-none-eabi\include\c++\4.8.4\new **** namespace std 
  47:d:\programy\gnu tools arm embedded\4.8 2014q2\arm-none-eabi\include\c++\4.8.4\new **** {
  48:d:\programy\gnu tools arm embedded\4.8 2014q2\arm-none-eabi\include\c++\4.8.4\new ****   /**
ARM GAS  C:\Users\Adrian\AppData\Local\Temp\ccxGI9oe.s 			page 3


  49:d:\programy\gnu tools arm embedded\4.8 2014q2\arm-none-eabi\include\c++\4.8.4\new ****    *  @brief  Exception possibly thrown by @c new.
  50:d:\programy\gnu tools arm embedded\4.8 2014q2\arm-none-eabi\include\c++\4.8.4\new ****    *  @ingroup exceptions
  51:d:\programy\gnu tools arm embedded\4.8 2014q2\arm-none-eabi\include\c++\4.8.4\new ****    *
  52:d:\programy\gnu tools arm embedded\4.8 2014q2\arm-none-eabi\include\c++\4.8.4\new ****    *  @c bad_alloc (or classes derived from it) is used to report allocation
  53:d:\programy\gnu tools arm embedded\4.8 2014q2\arm-none-eabi\include\c++\4.8.4\new ****    *  errors from the throwing forms of @c new.  */
  54:d:\programy\gnu tools arm embedded\4.8 2014q2\arm-none-eabi\include\c++\4.8.4\new ****   class bad_alloc : public exception 
  55:d:\programy\gnu tools arm embedded\4.8 2014q2\arm-none-eabi\include\c++\4.8.4\new ****   {
  56:d:\programy\gnu tools arm embedded\4.8 2014q2\arm-none-eabi\include\c++\4.8.4\new ****   public:
  57:d:\programy\gnu tools arm embedded\4.8 2014q2\arm-none-eabi\include\c++\4.8.4\new ****     bad_alloc() throw() { }
  58:d:\programy\gnu tools arm embedded\4.8 2014q2\arm-none-eabi\include\c++\4.8.4\new **** 
  59:d:\programy\gnu tools arm embedded\4.8 2014q2\arm-none-eabi\include\c++\4.8.4\new ****     // This declaration is not useless:
  60:d:\programy\gnu tools arm embedded\4.8 2014q2\arm-none-eabi\include\c++\4.8.4\new ****     // http://gcc.gnu.org/onlinedocs/gcc-3.0.2/gcc_6.html#SEC118
  61:d:\programy\gnu tools arm embedded\4.8 2014q2\arm-none-eabi\include\c++\4.8.4\new ****     virtual ~bad_alloc() throw();
  62:d:\programy\gnu tools arm embedded\4.8 2014q2\arm-none-eabi\include\c++\4.8.4\new **** 
  63:d:\programy\gnu tools arm embedded\4.8 2014q2\arm-none-eabi\include\c++\4.8.4\new ****     // See comment in eh_exception.cc.
  64:d:\programy\gnu tools arm embedded\4.8 2014q2\arm-none-eabi\include\c++\4.8.4\new ****     virtual const char* what() const throw();
  65:d:\programy\gnu tools arm embedded\4.8 2014q2\arm-none-eabi\include\c++\4.8.4\new ****   };
  66:d:\programy\gnu tools arm embedded\4.8 2014q2\arm-none-eabi\include\c++\4.8.4\new **** 
  67:d:\programy\gnu tools arm embedded\4.8 2014q2\arm-none-eabi\include\c++\4.8.4\new ****   struct nothrow_t { };
  68:d:\programy\gnu tools arm embedded\4.8 2014q2\arm-none-eabi\include\c++\4.8.4\new **** 
  69:d:\programy\gnu tools arm embedded\4.8 2014q2\arm-none-eabi\include\c++\4.8.4\new ****   extern const nothrow_t nothrow;
  70:d:\programy\gnu tools arm embedded\4.8 2014q2\arm-none-eabi\include\c++\4.8.4\new **** 
  71:d:\programy\gnu tools arm embedded\4.8 2014q2\arm-none-eabi\include\c++\4.8.4\new ****   /** If you write your own error handler to be called by @c new, it must
  72:d:\programy\gnu tools arm embedded\4.8 2014q2\arm-none-eabi\include\c++\4.8.4\new ****    *  be of this type.  */
  73:d:\programy\gnu tools arm embedded\4.8 2014q2\arm-none-eabi\include\c++\4.8.4\new ****   typedef void (*new_handler)();
  74:d:\programy\gnu tools arm embedded\4.8 2014q2\arm-none-eabi\include\c++\4.8.4\new **** 
  75:d:\programy\gnu tools arm embedded\4.8 2014q2\arm-none-eabi\include\c++\4.8.4\new ****   /// Takes a replacement handler as the argument, returns the
  76:d:\programy\gnu tools arm embedded\4.8 2014q2\arm-none-eabi\include\c++\4.8.4\new ****   /// previous handler.
  77:d:\programy\gnu tools arm embedded\4.8 2014q2\arm-none-eabi\include\c++\4.8.4\new ****   new_handler set_new_handler(new_handler) throw();
  78:d:\programy\gnu tools arm embedded\4.8 2014q2\arm-none-eabi\include\c++\4.8.4\new **** } // namespace std
  79:d:\programy\gnu tools arm embedded\4.8 2014q2\arm-none-eabi\include\c++\4.8.4\new **** 
  80:d:\programy\gnu tools arm embedded\4.8 2014q2\arm-none-eabi\include\c++\4.8.4\new **** //@{
  81:d:\programy\gnu tools arm embedded\4.8 2014q2\arm-none-eabi\include\c++\4.8.4\new **** /** These are replaceable signatures:
  82:d:\programy\gnu tools arm embedded\4.8 2014q2\arm-none-eabi\include\c++\4.8.4\new ****  *  - normal single new and delete (no arguments, throw @c bad_alloc on error)
  83:d:\programy\gnu tools arm embedded\4.8 2014q2\arm-none-eabi\include\c++\4.8.4\new ****  *  - normal array new and delete (same)
  84:d:\programy\gnu tools arm embedded\4.8 2014q2\arm-none-eabi\include\c++\4.8.4\new ****  *  - @c nothrow single new and delete (take a @c nothrow argument, return
  85:d:\programy\gnu tools arm embedded\4.8 2014q2\arm-none-eabi\include\c++\4.8.4\new ****  *    @c NULL on error)
  86:d:\programy\gnu tools arm embedded\4.8 2014q2\arm-none-eabi\include\c++\4.8.4\new ****  *  - @c nothrow array new and delete (same)
  87:d:\programy\gnu tools arm embedded\4.8 2014q2\arm-none-eabi\include\c++\4.8.4\new ****  *
  88:d:\programy\gnu tools arm embedded\4.8 2014q2\arm-none-eabi\include\c++\4.8.4\new ****  *  Placement new and delete signatures (take a memory address argument,
  89:d:\programy\gnu tools arm embedded\4.8 2014q2\arm-none-eabi\include\c++\4.8.4\new ****  *  does nothing) may not be replaced by a user's program.
  90:d:\programy\gnu tools arm embedded\4.8 2014q2\arm-none-eabi\include\c++\4.8.4\new **** */
  91:d:\programy\gnu tools arm embedded\4.8 2014q2\arm-none-eabi\include\c++\4.8.4\new **** void* operator new(std::size_t) _GLIBCXX_THROW (std::bad_alloc)
  92:d:\programy\gnu tools arm embedded\4.8 2014q2\arm-none-eabi\include\c++\4.8.4\new ****   __attribute__((__externally_visible__));
  93:d:\programy\gnu tools arm embedded\4.8 2014q2\arm-none-eabi\include\c++\4.8.4\new **** void* operator new[](std::size_t) _GLIBCXX_THROW (std::bad_alloc)
  94:d:\programy\gnu tools arm embedded\4.8 2014q2\arm-none-eabi\include\c++\4.8.4\new ****   __attribute__((__externally_visible__));
  95:d:\programy\gnu tools arm embedded\4.8 2014q2\arm-none-eabi\include\c++\4.8.4\new **** void operator delete(void*) _GLIBCXX_USE_NOEXCEPT
  96:d:\programy\gnu tools arm embedded\4.8 2014q2\arm-none-eabi\include\c++\4.8.4\new ****   __attribute__((__externally_visible__));
  97:d:\programy\gnu tools arm embedded\4.8 2014q2\arm-none-eabi\include\c++\4.8.4\new **** void operator delete[](void*) _GLIBCXX_USE_NOEXCEPT
  98:d:\programy\gnu tools arm embedded\4.8 2014q2\arm-none-eabi\include\c++\4.8.4\new ****   __attribute__((__externally_visible__));
  99:d:\programy\gnu tools arm embedded\4.8 2014q2\arm-none-eabi\include\c++\4.8.4\new **** void* operator new(std::size_t, const std::nothrow_t&) _GLIBCXX_USE_NOEXCEPT
 100:d:\programy\gnu tools arm embedded\4.8 2014q2\arm-none-eabi\include\c++\4.8.4\new ****   __attribute__((__externally_visible__));
 101:d:\programy\gnu tools arm embedded\4.8 2014q2\arm-none-eabi\include\c++\4.8.4\new **** void* operator new[](std::size_t, const std::nothrow_t&) _GLIBCXX_USE_NOEXCEPT
 102:d:\programy\gnu tools arm embedded\4.8 2014q2\arm-none-eabi\include\c++\4.8.4\new ****   __attribute__((__externally_visible__));
 103:d:\programy\gnu tools arm embedded\4.8 2014q2\arm-none-eabi\include\c++\4.8.4\new **** void operator delete(void*, const std::nothrow_t&) _GLIBCXX_USE_NOEXCEPT
 104:d:\programy\gnu tools arm embedded\4.8 2014q2\arm-none-eabi\include\c++\4.8.4\new ****   __attribute__((__externally_visible__));
 105:d:\programy\gnu tools arm embedded\4.8 2014q2\arm-none-eabi\include\c++\4.8.4\new **** void operator delete[](void*, const std::nothrow_t&) _GLIBCXX_USE_NOEXCEPT
ARM GAS  C:\Users\Adrian\AppData\Local\Temp\ccxGI9oe.s 			page 4


 106:d:\programy\gnu tools arm embedded\4.8 2014q2\arm-none-eabi\include\c++\4.8.4\new ****   __attribute__((__externally_visible__));
 107:d:\programy\gnu tools arm embedded\4.8 2014q2\arm-none-eabi\include\c++\4.8.4\new **** 
 108:d:\programy\gnu tools arm embedded\4.8 2014q2\arm-none-eabi\include\c++\4.8.4\new **** // Default placement versions of operator new.
 109:d:\programy\gnu tools arm embedded\4.8 2014q2\arm-none-eabi\include\c++\4.8.4\new **** inline void* operator new(std::size_t, void* __p) _GLIBCXX_USE_NOEXCEPT
 110:d:\programy\gnu tools arm embedded\4.8 2014q2\arm-none-eabi\include\c++\4.8.4\new **** { return __p; }
  67              		.loc 1 110 0
  68              		.cfi_startproc
  69              		@ args = 0, pretend = 0, frame = 8
  70              		@ frame_needed = 1, uses_anonymous_args = 0
  71              		@ link register save eliminated.
  72 0000 80B4     		push	{r7}	@
  73              		.cfi_def_cfa_offset 4
  74              		.cfi_offset 7, -4
  75 0002 83B0     		sub	sp, sp, #12	@,,
  76              		.cfi_def_cfa_offset 16
  77 0004 00AF     		add	r7, sp, #0	@,,
  78              		.cfi_def_cfa_register 7
  79 0006 7860     		str	r0, [r7, #4]	@ D.9848, D.9848
  80 0008 3960     		str	r1, [r7]	@ __p, __p
  81              		.loc 1 110 0
  82 000a 3B68     		ldr	r3, [r7]	@ D.15907, __p
  83 000c 1846     		mov	r0, r3	@, <retval>
  84 000e 0C37     		adds	r7, r7, #12	@,,
  85 0010 BD46     		mov	sp, r7	@,
  86              		@ sp needed	@
  87 0012 5DF8047B 		ldr	r7, [sp], #4	@,
  88 0016 7047     		bx	lr	@
  89              		.cfi_endproc
  90              	.LFE249:
  91              		.size	_ZnwjPv, .-_ZnwjPv
  92              		.section	.text._ZNSt4listIPK17CommandDefinitionSaIS2_EED2Ev,"axG",%progbits,_ZNSt4listIPK17Command
  93              		.align	2
  94              		.weak	_ZNSt4listIPK17CommandDefinitionSaIS2_EED2Ev
  95              		.thumb
  96              		.thumb_func
  97              		.type	_ZNSt4listIPK17CommandDefinitionSaIS2_EED2Ev, %function
  98              	_ZNSt4listIPK17CommandDefinitionSaIS2_EED2Ev:
  99              	.LFB486:
 100              		.file 2 "d:\\programy\\gnu tools arm embedded\\4.8 2014q2\\arm-none-eabi\\include\\c++\\4.8.4\\bit
   1:d:\programy\gnu tools arm embedded\4.8 2014q2\arm-none-eabi\include\c++\4.8.4\bits\stl_list.h **** // List implementation -*- C++ -*-
   2:d:\programy\gnu tools arm embedded\4.8 2014q2\arm-none-eabi\include\c++\4.8.4\bits\stl_list.h **** 
   3:d:\programy\gnu tools arm embedded\4.8 2014q2\arm-none-eabi\include\c++\4.8.4\bits\stl_list.h **** // Copyright (C) 2001-2013 Free Software Foundation, Inc.
   4:d:\programy\gnu tools arm embedded\4.8 2014q2\arm-none-eabi\include\c++\4.8.4\bits\stl_list.h **** //
   5:d:\programy\gnu tools arm embedded\4.8 2014q2\arm-none-eabi\include\c++\4.8.4\bits\stl_list.h **** // This file is part of the GNU ISO C++ Library.  This library is free
   6:d:\programy\gnu tools arm embedded\4.8 2014q2\arm-none-eabi\include\c++\4.8.4\bits\stl_list.h **** // software; you can redistribute it and/or modify it under the
   7:d:\programy\gnu tools arm embedded\4.8 2014q2\arm-none-eabi\include\c++\4.8.4\bits\stl_list.h **** // terms of the GNU General Public License as published by the
   8:d:\programy\gnu tools arm embedded\4.8 2014q2\arm-none-eabi\include\c++\4.8.4\bits\stl_list.h **** // Free Software Foundation; either version 3, or (at your option)
   9:d:\programy\gnu tools arm embedded\4.8 2014q2\arm-none-eabi\include\c++\4.8.4\bits\stl_list.h **** // any later version.
  10:d:\programy\gnu tools arm embedded\4.8 2014q2\arm-none-eabi\include\c++\4.8.4\bits\stl_list.h **** 
  11:d:\programy\gnu tools arm embedded\4.8 2014q2\arm-none-eabi\include\c++\4.8.4\bits\stl_list.h **** // This library is distributed in the hope that it will be useful,
  12:d:\programy\gnu tools arm embedded\4.8 2014q2\arm-none-eabi\include\c++\4.8.4\bits\stl_list.h **** // but WITHOUT ANY WARRANTY; without even the implied warranty of
  13:d:\programy\gnu tools arm embedded\4.8 2014q2\arm-none-eabi\include\c++\4.8.4\bits\stl_list.h **** // MERCHANTABILITY or FITNESS FOR A PARTICULAR PURPOSE.  See the
  14:d:\programy\gnu tools arm embedded\4.8 2014q2\arm-none-eabi\include\c++\4.8.4\bits\stl_list.h **** // GNU General Public License for more details.
  15:d:\programy\gnu tools arm embedded\4.8 2014q2\arm-none-eabi\include\c++\4.8.4\bits\stl_list.h **** 
  16:d:\programy\gnu tools arm embedded\4.8 2014q2\arm-none-eabi\include\c++\4.8.4\bits\stl_list.h **** // Under Section 7 of GPL version 3, you are granted additional
  17:d:\programy\gnu tools arm embedded\4.8 2014q2\arm-none-eabi\include\c++\4.8.4\bits\stl_list.h **** // permissions described in the GCC Runtime Library Exception, version
  18:d:\programy\gnu tools arm embedded\4.8 2014q2\arm-none-eabi\include\c++\4.8.4\bits\stl_list.h **** // 3.1, as published by the Free Software Foundation.
ARM GAS  C:\Users\Adrian\AppData\Local\Temp\ccxGI9oe.s 			page 5


  19:d:\programy\gnu tools arm embedded\4.8 2014q2\arm-none-eabi\include\c++\4.8.4\bits\stl_list.h **** 
  20:d:\programy\gnu tools arm embedded\4.8 2014q2\arm-none-eabi\include\c++\4.8.4\bits\stl_list.h **** // You should have received a copy of the GNU General Public License and
  21:d:\programy\gnu tools arm embedded\4.8 2014q2\arm-none-eabi\include\c++\4.8.4\bits\stl_list.h **** // a copy of the GCC Runtime Library Exception along with this program;
  22:d:\programy\gnu tools arm embedded\4.8 2014q2\arm-none-eabi\include\c++\4.8.4\bits\stl_list.h **** // see the files COPYING3 and COPYING.RUNTIME respectively.  If not, see
  23:d:\programy\gnu tools arm embedded\4.8 2014q2\arm-none-eabi\include\c++\4.8.4\bits\stl_list.h **** // <http://www.gnu.org/licenses/>.
  24:d:\programy\gnu tools arm embedded\4.8 2014q2\arm-none-eabi\include\c++\4.8.4\bits\stl_list.h **** 
  25:d:\programy\gnu tools arm embedded\4.8 2014q2\arm-none-eabi\include\c++\4.8.4\bits\stl_list.h **** /*
  26:d:\programy\gnu tools arm embedded\4.8 2014q2\arm-none-eabi\include\c++\4.8.4\bits\stl_list.h ****  *
  27:d:\programy\gnu tools arm embedded\4.8 2014q2\arm-none-eabi\include\c++\4.8.4\bits\stl_list.h ****  * Copyright (c) 1994
  28:d:\programy\gnu tools arm embedded\4.8 2014q2\arm-none-eabi\include\c++\4.8.4\bits\stl_list.h ****  * Hewlett-Packard Company
  29:d:\programy\gnu tools arm embedded\4.8 2014q2\arm-none-eabi\include\c++\4.8.4\bits\stl_list.h ****  *
  30:d:\programy\gnu tools arm embedded\4.8 2014q2\arm-none-eabi\include\c++\4.8.4\bits\stl_list.h ****  * Permission to use, copy, modify, distribute and sell this software
  31:d:\programy\gnu tools arm embedded\4.8 2014q2\arm-none-eabi\include\c++\4.8.4\bits\stl_list.h ****  * and its documentation for any purpose is hereby granted without fee,
  32:d:\programy\gnu tools arm embedded\4.8 2014q2\arm-none-eabi\include\c++\4.8.4\bits\stl_list.h ****  * provided that the above copyright notice appear in all copies and
  33:d:\programy\gnu tools arm embedded\4.8 2014q2\arm-none-eabi\include\c++\4.8.4\bits\stl_list.h ****  * that both that copyright notice and this permission notice appear
  34:d:\programy\gnu tools arm embedded\4.8 2014q2\arm-none-eabi\include\c++\4.8.4\bits\stl_list.h ****  * in supporting documentation.  Hewlett-Packard Company makes no
  35:d:\programy\gnu tools arm embedded\4.8 2014q2\arm-none-eabi\include\c++\4.8.4\bits\stl_list.h ****  * representations about the suitability of this software for any
  36:d:\programy\gnu tools arm embedded\4.8 2014q2\arm-none-eabi\include\c++\4.8.4\bits\stl_list.h ****  * purpose.  It is provided "as is" without express or implied warranty.
  37:d:\programy\gnu tools arm embedded\4.8 2014q2\arm-none-eabi\include\c++\4.8.4\bits\stl_list.h ****  *
  38:d:\programy\gnu tools arm embedded\4.8 2014q2\arm-none-eabi\include\c++\4.8.4\bits\stl_list.h ****  *
  39:d:\programy\gnu tools arm embedded\4.8 2014q2\arm-none-eabi\include\c++\4.8.4\bits\stl_list.h ****  * Copyright (c) 1996,1997
  40:d:\programy\gnu tools arm embedded\4.8 2014q2\arm-none-eabi\include\c++\4.8.4\bits\stl_list.h ****  * Silicon Graphics Computer Systems, Inc.
  41:d:\programy\gnu tools arm embedded\4.8 2014q2\arm-none-eabi\include\c++\4.8.4\bits\stl_list.h ****  *
  42:d:\programy\gnu tools arm embedded\4.8 2014q2\arm-none-eabi\include\c++\4.8.4\bits\stl_list.h ****  * Permission to use, copy, modify, distribute and sell this software
  43:d:\programy\gnu tools arm embedded\4.8 2014q2\arm-none-eabi\include\c++\4.8.4\bits\stl_list.h ****  * and its documentation for any purpose is hereby granted without fee,
  44:d:\programy\gnu tools arm embedded\4.8 2014q2\arm-none-eabi\include\c++\4.8.4\bits\stl_list.h ****  * provided that the above copyright notice appear in all copies and
  45:d:\programy\gnu tools arm embedded\4.8 2014q2\arm-none-eabi\include\c++\4.8.4\bits\stl_list.h ****  * that both that copyright notice and this permission notice appear
  46:d:\programy\gnu tools arm embedded\4.8 2014q2\arm-none-eabi\include\c++\4.8.4\bits\stl_list.h ****  * in supporting documentation.  Silicon Graphics makes no
  47:d:\programy\gnu tools arm embedded\4.8 2014q2\arm-none-eabi\include\c++\4.8.4\bits\stl_list.h ****  * representations about the suitability of this software for any
  48:d:\programy\gnu tools arm embedded\4.8 2014q2\arm-none-eabi\include\c++\4.8.4\bits\stl_list.h ****  * purpose.  It is provided "as is" without express or implied warranty.
  49:d:\programy\gnu tools arm embedded\4.8 2014q2\arm-none-eabi\include\c++\4.8.4\bits\stl_list.h ****  */
  50:d:\programy\gnu tools arm embedded\4.8 2014q2\arm-none-eabi\include\c++\4.8.4\bits\stl_list.h **** 
  51:d:\programy\gnu tools arm embedded\4.8 2014q2\arm-none-eabi\include\c++\4.8.4\bits\stl_list.h **** /** @file bits/stl_list.h
  52:d:\programy\gnu tools arm embedded\4.8 2014q2\arm-none-eabi\include\c++\4.8.4\bits\stl_list.h ****  *  This is an internal header file, included by other library headers.
  53:d:\programy\gnu tools arm embedded\4.8 2014q2\arm-none-eabi\include\c++\4.8.4\bits\stl_list.h ****  *  Do not attempt to use it directly. @headername{list}
  54:d:\programy\gnu tools arm embedded\4.8 2014q2\arm-none-eabi\include\c++\4.8.4\bits\stl_list.h ****  */
  55:d:\programy\gnu tools arm embedded\4.8 2014q2\arm-none-eabi\include\c++\4.8.4\bits\stl_list.h **** 
  56:d:\programy\gnu tools arm embedded\4.8 2014q2\arm-none-eabi\include\c++\4.8.4\bits\stl_list.h **** #ifndef _STL_LIST_H
  57:d:\programy\gnu tools arm embedded\4.8 2014q2\arm-none-eabi\include\c++\4.8.4\bits\stl_list.h **** #define _STL_LIST_H 1
  58:d:\programy\gnu tools arm embedded\4.8 2014q2\arm-none-eabi\include\c++\4.8.4\bits\stl_list.h **** 
  59:d:\programy\gnu tools arm embedded\4.8 2014q2\arm-none-eabi\include\c++\4.8.4\bits\stl_list.h **** #include <bits/concept_check.h>
  60:d:\programy\gnu tools arm embedded\4.8 2014q2\arm-none-eabi\include\c++\4.8.4\bits\stl_list.h **** #if __cplusplus >= 201103L
  61:d:\programy\gnu tools arm embedded\4.8 2014q2\arm-none-eabi\include\c++\4.8.4\bits\stl_list.h **** #include <initializer_list>
  62:d:\programy\gnu tools arm embedded\4.8 2014q2\arm-none-eabi\include\c++\4.8.4\bits\stl_list.h **** #endif
  63:d:\programy\gnu tools arm embedded\4.8 2014q2\arm-none-eabi\include\c++\4.8.4\bits\stl_list.h **** 
  64:d:\programy\gnu tools arm embedded\4.8 2014q2\arm-none-eabi\include\c++\4.8.4\bits\stl_list.h **** namespace std _GLIBCXX_VISIBILITY(default)
  65:d:\programy\gnu tools arm embedded\4.8 2014q2\arm-none-eabi\include\c++\4.8.4\bits\stl_list.h **** {
  66:d:\programy\gnu tools arm embedded\4.8 2014q2\arm-none-eabi\include\c++\4.8.4\bits\stl_list.h ****   namespace __detail
  67:d:\programy\gnu tools arm embedded\4.8 2014q2\arm-none-eabi\include\c++\4.8.4\bits\stl_list.h ****   {
  68:d:\programy\gnu tools arm embedded\4.8 2014q2\arm-none-eabi\include\c++\4.8.4\bits\stl_list.h ****   _GLIBCXX_BEGIN_NAMESPACE_VERSION
  69:d:\programy\gnu tools arm embedded\4.8 2014q2\arm-none-eabi\include\c++\4.8.4\bits\stl_list.h **** 
  70:d:\programy\gnu tools arm embedded\4.8 2014q2\arm-none-eabi\include\c++\4.8.4\bits\stl_list.h ****     // Supporting structures are split into common and templated
  71:d:\programy\gnu tools arm embedded\4.8 2014q2\arm-none-eabi\include\c++\4.8.4\bits\stl_list.h ****     // types; the latter publicly inherits from the former in an
  72:d:\programy\gnu tools arm embedded\4.8 2014q2\arm-none-eabi\include\c++\4.8.4\bits\stl_list.h ****     // effort to reduce code duplication.  This results in some
  73:d:\programy\gnu tools arm embedded\4.8 2014q2\arm-none-eabi\include\c++\4.8.4\bits\stl_list.h ****     // "needless" static_cast'ing later on, but it's all safe
  74:d:\programy\gnu tools arm embedded\4.8 2014q2\arm-none-eabi\include\c++\4.8.4\bits\stl_list.h ****     // downcasting.
  75:d:\programy\gnu tools arm embedded\4.8 2014q2\arm-none-eabi\include\c++\4.8.4\bits\stl_list.h **** 
ARM GAS  C:\Users\Adrian\AppData\Local\Temp\ccxGI9oe.s 			page 6


  76:d:\programy\gnu tools arm embedded\4.8 2014q2\arm-none-eabi\include\c++\4.8.4\bits\stl_list.h ****     /// Common part of a node in the %list. 
  77:d:\programy\gnu tools arm embedded\4.8 2014q2\arm-none-eabi\include\c++\4.8.4\bits\stl_list.h ****     struct _List_node_base
  78:d:\programy\gnu tools arm embedded\4.8 2014q2\arm-none-eabi\include\c++\4.8.4\bits\stl_list.h ****     {
  79:d:\programy\gnu tools arm embedded\4.8 2014q2\arm-none-eabi\include\c++\4.8.4\bits\stl_list.h ****       _List_node_base* _M_next;
  80:d:\programy\gnu tools arm embedded\4.8 2014q2\arm-none-eabi\include\c++\4.8.4\bits\stl_list.h ****       _List_node_base* _M_prev;
  81:d:\programy\gnu tools arm embedded\4.8 2014q2\arm-none-eabi\include\c++\4.8.4\bits\stl_list.h **** 
  82:d:\programy\gnu tools arm embedded\4.8 2014q2\arm-none-eabi\include\c++\4.8.4\bits\stl_list.h ****       static void
  83:d:\programy\gnu tools arm embedded\4.8 2014q2\arm-none-eabi\include\c++\4.8.4\bits\stl_list.h ****       swap(_List_node_base& __x, _List_node_base& __y) _GLIBCXX_USE_NOEXCEPT;
  84:d:\programy\gnu tools arm embedded\4.8 2014q2\arm-none-eabi\include\c++\4.8.4\bits\stl_list.h **** 
  85:d:\programy\gnu tools arm embedded\4.8 2014q2\arm-none-eabi\include\c++\4.8.4\bits\stl_list.h ****       void
  86:d:\programy\gnu tools arm embedded\4.8 2014q2\arm-none-eabi\include\c++\4.8.4\bits\stl_list.h ****       _M_transfer(_List_node_base* const __first,
  87:d:\programy\gnu tools arm embedded\4.8 2014q2\arm-none-eabi\include\c++\4.8.4\bits\stl_list.h **** 		  _List_node_base* const __last) _GLIBCXX_USE_NOEXCEPT;
  88:d:\programy\gnu tools arm embedded\4.8 2014q2\arm-none-eabi\include\c++\4.8.4\bits\stl_list.h **** 
  89:d:\programy\gnu tools arm embedded\4.8 2014q2\arm-none-eabi\include\c++\4.8.4\bits\stl_list.h ****       void
  90:d:\programy\gnu tools arm embedded\4.8 2014q2\arm-none-eabi\include\c++\4.8.4\bits\stl_list.h ****       _M_reverse() _GLIBCXX_USE_NOEXCEPT;
  91:d:\programy\gnu tools arm embedded\4.8 2014q2\arm-none-eabi\include\c++\4.8.4\bits\stl_list.h **** 
  92:d:\programy\gnu tools arm embedded\4.8 2014q2\arm-none-eabi\include\c++\4.8.4\bits\stl_list.h ****       void
  93:d:\programy\gnu tools arm embedded\4.8 2014q2\arm-none-eabi\include\c++\4.8.4\bits\stl_list.h ****       _M_hook(_List_node_base* const __position) _GLIBCXX_USE_NOEXCEPT;
  94:d:\programy\gnu tools arm embedded\4.8 2014q2\arm-none-eabi\include\c++\4.8.4\bits\stl_list.h **** 
  95:d:\programy\gnu tools arm embedded\4.8 2014q2\arm-none-eabi\include\c++\4.8.4\bits\stl_list.h ****       void
  96:d:\programy\gnu tools arm embedded\4.8 2014q2\arm-none-eabi\include\c++\4.8.4\bits\stl_list.h ****       _M_unhook() _GLIBCXX_USE_NOEXCEPT;
  97:d:\programy\gnu tools arm embedded\4.8 2014q2\arm-none-eabi\include\c++\4.8.4\bits\stl_list.h ****     };
  98:d:\programy\gnu tools arm embedded\4.8 2014q2\arm-none-eabi\include\c++\4.8.4\bits\stl_list.h **** 
  99:d:\programy\gnu tools arm embedded\4.8 2014q2\arm-none-eabi\include\c++\4.8.4\bits\stl_list.h ****   _GLIBCXX_END_NAMESPACE_VERSION
 100:d:\programy\gnu tools arm embedded\4.8 2014q2\arm-none-eabi\include\c++\4.8.4\bits\stl_list.h ****   } // namespace detail
 101:d:\programy\gnu tools arm embedded\4.8 2014q2\arm-none-eabi\include\c++\4.8.4\bits\stl_list.h **** 
 102:d:\programy\gnu tools arm embedded\4.8 2014q2\arm-none-eabi\include\c++\4.8.4\bits\stl_list.h **** _GLIBCXX_BEGIN_NAMESPACE_CONTAINER
 103:d:\programy\gnu tools arm embedded\4.8 2014q2\arm-none-eabi\include\c++\4.8.4\bits\stl_list.h **** 
 104:d:\programy\gnu tools arm embedded\4.8 2014q2\arm-none-eabi\include\c++\4.8.4\bits\stl_list.h ****   /// An actual node in the %list.
 105:d:\programy\gnu tools arm embedded\4.8 2014q2\arm-none-eabi\include\c++\4.8.4\bits\stl_list.h ****   template<typename _Tp>
 106:d:\programy\gnu tools arm embedded\4.8 2014q2\arm-none-eabi\include\c++\4.8.4\bits\stl_list.h ****     struct _List_node : public __detail::_List_node_base
 107:d:\programy\gnu tools arm embedded\4.8 2014q2\arm-none-eabi\include\c++\4.8.4\bits\stl_list.h ****     {
 108:d:\programy\gnu tools arm embedded\4.8 2014q2\arm-none-eabi\include\c++\4.8.4\bits\stl_list.h ****       ///< User's data.
 109:d:\programy\gnu tools arm embedded\4.8 2014q2\arm-none-eabi\include\c++\4.8.4\bits\stl_list.h ****       _Tp _M_data;
 110:d:\programy\gnu tools arm embedded\4.8 2014q2\arm-none-eabi\include\c++\4.8.4\bits\stl_list.h **** 
 111:d:\programy\gnu tools arm embedded\4.8 2014q2\arm-none-eabi\include\c++\4.8.4\bits\stl_list.h **** #if __cplusplus >= 201103L
 112:d:\programy\gnu tools arm embedded\4.8 2014q2\arm-none-eabi\include\c++\4.8.4\bits\stl_list.h ****       template<typename... _Args>
 113:d:\programy\gnu tools arm embedded\4.8 2014q2\arm-none-eabi\include\c++\4.8.4\bits\stl_list.h ****         _List_node(_Args&&... __args)
 114:d:\programy\gnu tools arm embedded\4.8 2014q2\arm-none-eabi\include\c++\4.8.4\bits\stl_list.h **** 	: __detail::_List_node_base(), _M_data(std::forward<_Args>(__args)...) 
 115:d:\programy\gnu tools arm embedded\4.8 2014q2\arm-none-eabi\include\c++\4.8.4\bits\stl_list.h ****         { }
 116:d:\programy\gnu tools arm embedded\4.8 2014q2\arm-none-eabi\include\c++\4.8.4\bits\stl_list.h **** #endif
 117:d:\programy\gnu tools arm embedded\4.8 2014q2\arm-none-eabi\include\c++\4.8.4\bits\stl_list.h ****     };
 118:d:\programy\gnu tools arm embedded\4.8 2014q2\arm-none-eabi\include\c++\4.8.4\bits\stl_list.h **** 
 119:d:\programy\gnu tools arm embedded\4.8 2014q2\arm-none-eabi\include\c++\4.8.4\bits\stl_list.h ****   /**
 120:d:\programy\gnu tools arm embedded\4.8 2014q2\arm-none-eabi\include\c++\4.8.4\bits\stl_list.h ****    *  @brief A list::iterator.
 121:d:\programy\gnu tools arm embedded\4.8 2014q2\arm-none-eabi\include\c++\4.8.4\bits\stl_list.h ****    *
 122:d:\programy\gnu tools arm embedded\4.8 2014q2\arm-none-eabi\include\c++\4.8.4\bits\stl_list.h ****    *  All the functions are op overloads.
 123:d:\programy\gnu tools arm embedded\4.8 2014q2\arm-none-eabi\include\c++\4.8.4\bits\stl_list.h ****   */
 124:d:\programy\gnu tools arm embedded\4.8 2014q2\arm-none-eabi\include\c++\4.8.4\bits\stl_list.h ****   template<typename _Tp>
 125:d:\programy\gnu tools arm embedded\4.8 2014q2\arm-none-eabi\include\c++\4.8.4\bits\stl_list.h ****     struct _List_iterator
 126:d:\programy\gnu tools arm embedded\4.8 2014q2\arm-none-eabi\include\c++\4.8.4\bits\stl_list.h ****     {
 127:d:\programy\gnu tools arm embedded\4.8 2014q2\arm-none-eabi\include\c++\4.8.4\bits\stl_list.h ****       typedef _List_iterator<_Tp>                _Self;
 128:d:\programy\gnu tools arm embedded\4.8 2014q2\arm-none-eabi\include\c++\4.8.4\bits\stl_list.h ****       typedef _List_node<_Tp>                    _Node;
 129:d:\programy\gnu tools arm embedded\4.8 2014q2\arm-none-eabi\include\c++\4.8.4\bits\stl_list.h **** 
 130:d:\programy\gnu tools arm embedded\4.8 2014q2\arm-none-eabi\include\c++\4.8.4\bits\stl_list.h ****       typedef ptrdiff_t                          difference_type;
 131:d:\programy\gnu tools arm embedded\4.8 2014q2\arm-none-eabi\include\c++\4.8.4\bits\stl_list.h ****       typedef std::bidirectional_iterator_tag    iterator_category;
 132:d:\programy\gnu tools arm embedded\4.8 2014q2\arm-none-eabi\include\c++\4.8.4\bits\stl_list.h ****       typedef _Tp                                value_type;
ARM GAS  C:\Users\Adrian\AppData\Local\Temp\ccxGI9oe.s 			page 7


 133:d:\programy\gnu tools arm embedded\4.8 2014q2\arm-none-eabi\include\c++\4.8.4\bits\stl_list.h ****       typedef _Tp*                               pointer;
 134:d:\programy\gnu tools arm embedded\4.8 2014q2\arm-none-eabi\include\c++\4.8.4\bits\stl_list.h ****       typedef _Tp&                               reference;
 135:d:\programy\gnu tools arm embedded\4.8 2014q2\arm-none-eabi\include\c++\4.8.4\bits\stl_list.h **** 
 136:d:\programy\gnu tools arm embedded\4.8 2014q2\arm-none-eabi\include\c++\4.8.4\bits\stl_list.h ****       _List_iterator()
 137:d:\programy\gnu tools arm embedded\4.8 2014q2\arm-none-eabi\include\c++\4.8.4\bits\stl_list.h ****       : _M_node() { }
 138:d:\programy\gnu tools arm embedded\4.8 2014q2\arm-none-eabi\include\c++\4.8.4\bits\stl_list.h **** 
 139:d:\programy\gnu tools arm embedded\4.8 2014q2\arm-none-eabi\include\c++\4.8.4\bits\stl_list.h ****       explicit
 140:d:\programy\gnu tools arm embedded\4.8 2014q2\arm-none-eabi\include\c++\4.8.4\bits\stl_list.h ****       _List_iterator(__detail::_List_node_base* __x)
 141:d:\programy\gnu tools arm embedded\4.8 2014q2\arm-none-eabi\include\c++\4.8.4\bits\stl_list.h ****       : _M_node(__x) { }
 142:d:\programy\gnu tools arm embedded\4.8 2014q2\arm-none-eabi\include\c++\4.8.4\bits\stl_list.h **** 
 143:d:\programy\gnu tools arm embedded\4.8 2014q2\arm-none-eabi\include\c++\4.8.4\bits\stl_list.h ****       // Must downcast from _List_node_base to _List_node to get to _M_data.
 144:d:\programy\gnu tools arm embedded\4.8 2014q2\arm-none-eabi\include\c++\4.8.4\bits\stl_list.h ****       reference
 145:d:\programy\gnu tools arm embedded\4.8 2014q2\arm-none-eabi\include\c++\4.8.4\bits\stl_list.h ****       operator*() const
 146:d:\programy\gnu tools arm embedded\4.8 2014q2\arm-none-eabi\include\c++\4.8.4\bits\stl_list.h ****       { return static_cast<_Node*>(_M_node)->_M_data; }
 147:d:\programy\gnu tools arm embedded\4.8 2014q2\arm-none-eabi\include\c++\4.8.4\bits\stl_list.h **** 
 148:d:\programy\gnu tools arm embedded\4.8 2014q2\arm-none-eabi\include\c++\4.8.4\bits\stl_list.h ****       pointer
 149:d:\programy\gnu tools arm embedded\4.8 2014q2\arm-none-eabi\include\c++\4.8.4\bits\stl_list.h ****       operator->() const
 150:d:\programy\gnu tools arm embedded\4.8 2014q2\arm-none-eabi\include\c++\4.8.4\bits\stl_list.h ****       { return std::__addressof(static_cast<_Node*>(_M_node)->_M_data); }
 151:d:\programy\gnu tools arm embedded\4.8 2014q2\arm-none-eabi\include\c++\4.8.4\bits\stl_list.h **** 
 152:d:\programy\gnu tools arm embedded\4.8 2014q2\arm-none-eabi\include\c++\4.8.4\bits\stl_list.h ****       _Self&
 153:d:\programy\gnu tools arm embedded\4.8 2014q2\arm-none-eabi\include\c++\4.8.4\bits\stl_list.h ****       operator++()
 154:d:\programy\gnu tools arm embedded\4.8 2014q2\arm-none-eabi\include\c++\4.8.4\bits\stl_list.h ****       {
 155:d:\programy\gnu tools arm embedded\4.8 2014q2\arm-none-eabi\include\c++\4.8.4\bits\stl_list.h **** 	_M_node = _M_node->_M_next;
 156:d:\programy\gnu tools arm embedded\4.8 2014q2\arm-none-eabi\include\c++\4.8.4\bits\stl_list.h **** 	return *this;
 157:d:\programy\gnu tools arm embedded\4.8 2014q2\arm-none-eabi\include\c++\4.8.4\bits\stl_list.h ****       }
 158:d:\programy\gnu tools arm embedded\4.8 2014q2\arm-none-eabi\include\c++\4.8.4\bits\stl_list.h **** 
 159:d:\programy\gnu tools arm embedded\4.8 2014q2\arm-none-eabi\include\c++\4.8.4\bits\stl_list.h ****       _Self
 160:d:\programy\gnu tools arm embedded\4.8 2014q2\arm-none-eabi\include\c++\4.8.4\bits\stl_list.h ****       operator++(int)
 161:d:\programy\gnu tools arm embedded\4.8 2014q2\arm-none-eabi\include\c++\4.8.4\bits\stl_list.h ****       {
 162:d:\programy\gnu tools arm embedded\4.8 2014q2\arm-none-eabi\include\c++\4.8.4\bits\stl_list.h **** 	_Self __tmp = *this;
 163:d:\programy\gnu tools arm embedded\4.8 2014q2\arm-none-eabi\include\c++\4.8.4\bits\stl_list.h **** 	_M_node = _M_node->_M_next;
 164:d:\programy\gnu tools arm embedded\4.8 2014q2\arm-none-eabi\include\c++\4.8.4\bits\stl_list.h **** 	return __tmp;
 165:d:\programy\gnu tools arm embedded\4.8 2014q2\arm-none-eabi\include\c++\4.8.4\bits\stl_list.h ****       }
 166:d:\programy\gnu tools arm embedded\4.8 2014q2\arm-none-eabi\include\c++\4.8.4\bits\stl_list.h **** 
 167:d:\programy\gnu tools arm embedded\4.8 2014q2\arm-none-eabi\include\c++\4.8.4\bits\stl_list.h ****       _Self&
 168:d:\programy\gnu tools arm embedded\4.8 2014q2\arm-none-eabi\include\c++\4.8.4\bits\stl_list.h ****       operator--()
 169:d:\programy\gnu tools arm embedded\4.8 2014q2\arm-none-eabi\include\c++\4.8.4\bits\stl_list.h ****       {
 170:d:\programy\gnu tools arm embedded\4.8 2014q2\arm-none-eabi\include\c++\4.8.4\bits\stl_list.h **** 	_M_node = _M_node->_M_prev;
 171:d:\programy\gnu tools arm embedded\4.8 2014q2\arm-none-eabi\include\c++\4.8.4\bits\stl_list.h **** 	return *this;
 172:d:\programy\gnu tools arm embedded\4.8 2014q2\arm-none-eabi\include\c++\4.8.4\bits\stl_list.h ****       }
 173:d:\programy\gnu tools arm embedded\4.8 2014q2\arm-none-eabi\include\c++\4.8.4\bits\stl_list.h **** 
 174:d:\programy\gnu tools arm embedded\4.8 2014q2\arm-none-eabi\include\c++\4.8.4\bits\stl_list.h ****       _Self
 175:d:\programy\gnu tools arm embedded\4.8 2014q2\arm-none-eabi\include\c++\4.8.4\bits\stl_list.h ****       operator--(int)
 176:d:\programy\gnu tools arm embedded\4.8 2014q2\arm-none-eabi\include\c++\4.8.4\bits\stl_list.h ****       {
 177:d:\programy\gnu tools arm embedded\4.8 2014q2\arm-none-eabi\include\c++\4.8.4\bits\stl_list.h **** 	_Self __tmp = *this;
 178:d:\programy\gnu tools arm embedded\4.8 2014q2\arm-none-eabi\include\c++\4.8.4\bits\stl_list.h **** 	_M_node = _M_node->_M_prev;
 179:d:\programy\gnu tools arm embedded\4.8 2014q2\arm-none-eabi\include\c++\4.8.4\bits\stl_list.h **** 	return __tmp;
 180:d:\programy\gnu tools arm embedded\4.8 2014q2\arm-none-eabi\include\c++\4.8.4\bits\stl_list.h ****       }
 181:d:\programy\gnu tools arm embedded\4.8 2014q2\arm-none-eabi\include\c++\4.8.4\bits\stl_list.h **** 
 182:d:\programy\gnu tools arm embedded\4.8 2014q2\arm-none-eabi\include\c++\4.8.4\bits\stl_list.h ****       bool
 183:d:\programy\gnu tools arm embedded\4.8 2014q2\arm-none-eabi\include\c++\4.8.4\bits\stl_list.h ****       operator==(const _Self& __x) const
 184:d:\programy\gnu tools arm embedded\4.8 2014q2\arm-none-eabi\include\c++\4.8.4\bits\stl_list.h ****       { return _M_node == __x._M_node; }
 185:d:\programy\gnu tools arm embedded\4.8 2014q2\arm-none-eabi\include\c++\4.8.4\bits\stl_list.h **** 
 186:d:\programy\gnu tools arm embedded\4.8 2014q2\arm-none-eabi\include\c++\4.8.4\bits\stl_list.h ****       bool
 187:d:\programy\gnu tools arm embedded\4.8 2014q2\arm-none-eabi\include\c++\4.8.4\bits\stl_list.h ****       operator!=(const _Self& __x) const
 188:d:\programy\gnu tools arm embedded\4.8 2014q2\arm-none-eabi\include\c++\4.8.4\bits\stl_list.h ****       { return _M_node != __x._M_node; }
 189:d:\programy\gnu tools arm embedded\4.8 2014q2\arm-none-eabi\include\c++\4.8.4\bits\stl_list.h **** 
ARM GAS  C:\Users\Adrian\AppData\Local\Temp\ccxGI9oe.s 			page 8


 190:d:\programy\gnu tools arm embedded\4.8 2014q2\arm-none-eabi\include\c++\4.8.4\bits\stl_list.h ****       // The only member points to the %list element.
 191:d:\programy\gnu tools arm embedded\4.8 2014q2\arm-none-eabi\include\c++\4.8.4\bits\stl_list.h ****       __detail::_List_node_base* _M_node;
 192:d:\programy\gnu tools arm embedded\4.8 2014q2\arm-none-eabi\include\c++\4.8.4\bits\stl_list.h ****     };
 193:d:\programy\gnu tools arm embedded\4.8 2014q2\arm-none-eabi\include\c++\4.8.4\bits\stl_list.h **** 
 194:d:\programy\gnu tools arm embedded\4.8 2014q2\arm-none-eabi\include\c++\4.8.4\bits\stl_list.h ****   /**
 195:d:\programy\gnu tools arm embedded\4.8 2014q2\arm-none-eabi\include\c++\4.8.4\bits\stl_list.h ****    *  @brief A list::const_iterator.
 196:d:\programy\gnu tools arm embedded\4.8 2014q2\arm-none-eabi\include\c++\4.8.4\bits\stl_list.h ****    *
 197:d:\programy\gnu tools arm embedded\4.8 2014q2\arm-none-eabi\include\c++\4.8.4\bits\stl_list.h ****    *  All the functions are op overloads.
 198:d:\programy\gnu tools arm embedded\4.8 2014q2\arm-none-eabi\include\c++\4.8.4\bits\stl_list.h ****   */
 199:d:\programy\gnu tools arm embedded\4.8 2014q2\arm-none-eabi\include\c++\4.8.4\bits\stl_list.h ****   template<typename _Tp>
 200:d:\programy\gnu tools arm embedded\4.8 2014q2\arm-none-eabi\include\c++\4.8.4\bits\stl_list.h ****     struct _List_const_iterator
 201:d:\programy\gnu tools arm embedded\4.8 2014q2\arm-none-eabi\include\c++\4.8.4\bits\stl_list.h ****     {
 202:d:\programy\gnu tools arm embedded\4.8 2014q2\arm-none-eabi\include\c++\4.8.4\bits\stl_list.h ****       typedef _List_const_iterator<_Tp>          _Self;
 203:d:\programy\gnu tools arm embedded\4.8 2014q2\arm-none-eabi\include\c++\4.8.4\bits\stl_list.h ****       typedef const _List_node<_Tp>              _Node;
 204:d:\programy\gnu tools arm embedded\4.8 2014q2\arm-none-eabi\include\c++\4.8.4\bits\stl_list.h ****       typedef _List_iterator<_Tp>                iterator;
 205:d:\programy\gnu tools arm embedded\4.8 2014q2\arm-none-eabi\include\c++\4.8.4\bits\stl_list.h **** 
 206:d:\programy\gnu tools arm embedded\4.8 2014q2\arm-none-eabi\include\c++\4.8.4\bits\stl_list.h ****       typedef ptrdiff_t                          difference_type;
 207:d:\programy\gnu tools arm embedded\4.8 2014q2\arm-none-eabi\include\c++\4.8.4\bits\stl_list.h ****       typedef std::bidirectional_iterator_tag    iterator_category;
 208:d:\programy\gnu tools arm embedded\4.8 2014q2\arm-none-eabi\include\c++\4.8.4\bits\stl_list.h ****       typedef _Tp                                value_type;
 209:d:\programy\gnu tools arm embedded\4.8 2014q2\arm-none-eabi\include\c++\4.8.4\bits\stl_list.h ****       typedef const _Tp*                         pointer;
 210:d:\programy\gnu tools arm embedded\4.8 2014q2\arm-none-eabi\include\c++\4.8.4\bits\stl_list.h ****       typedef const _Tp&                         reference;
 211:d:\programy\gnu tools arm embedded\4.8 2014q2\arm-none-eabi\include\c++\4.8.4\bits\stl_list.h **** 
 212:d:\programy\gnu tools arm embedded\4.8 2014q2\arm-none-eabi\include\c++\4.8.4\bits\stl_list.h ****       _List_const_iterator()
 213:d:\programy\gnu tools arm embedded\4.8 2014q2\arm-none-eabi\include\c++\4.8.4\bits\stl_list.h ****       : _M_node() { }
 214:d:\programy\gnu tools arm embedded\4.8 2014q2\arm-none-eabi\include\c++\4.8.4\bits\stl_list.h **** 
 215:d:\programy\gnu tools arm embedded\4.8 2014q2\arm-none-eabi\include\c++\4.8.4\bits\stl_list.h ****       explicit
 216:d:\programy\gnu tools arm embedded\4.8 2014q2\arm-none-eabi\include\c++\4.8.4\bits\stl_list.h ****       _List_const_iterator(const __detail::_List_node_base* __x)
 217:d:\programy\gnu tools arm embedded\4.8 2014q2\arm-none-eabi\include\c++\4.8.4\bits\stl_list.h ****       : _M_node(__x) { }
 218:d:\programy\gnu tools arm embedded\4.8 2014q2\arm-none-eabi\include\c++\4.8.4\bits\stl_list.h **** 
 219:d:\programy\gnu tools arm embedded\4.8 2014q2\arm-none-eabi\include\c++\4.8.4\bits\stl_list.h ****       _List_const_iterator(const iterator& __x)
 220:d:\programy\gnu tools arm embedded\4.8 2014q2\arm-none-eabi\include\c++\4.8.4\bits\stl_list.h ****       : _M_node(__x._M_node) { }
 221:d:\programy\gnu tools arm embedded\4.8 2014q2\arm-none-eabi\include\c++\4.8.4\bits\stl_list.h **** 
 222:d:\programy\gnu tools arm embedded\4.8 2014q2\arm-none-eabi\include\c++\4.8.4\bits\stl_list.h ****       // Must downcast from List_node_base to _List_node to get to
 223:d:\programy\gnu tools arm embedded\4.8 2014q2\arm-none-eabi\include\c++\4.8.4\bits\stl_list.h ****       // _M_data.
 224:d:\programy\gnu tools arm embedded\4.8 2014q2\arm-none-eabi\include\c++\4.8.4\bits\stl_list.h ****       reference
 225:d:\programy\gnu tools arm embedded\4.8 2014q2\arm-none-eabi\include\c++\4.8.4\bits\stl_list.h ****       operator*() const
 226:d:\programy\gnu tools arm embedded\4.8 2014q2\arm-none-eabi\include\c++\4.8.4\bits\stl_list.h ****       { return static_cast<_Node*>(_M_node)->_M_data; }
 227:d:\programy\gnu tools arm embedded\4.8 2014q2\arm-none-eabi\include\c++\4.8.4\bits\stl_list.h **** 
 228:d:\programy\gnu tools arm embedded\4.8 2014q2\arm-none-eabi\include\c++\4.8.4\bits\stl_list.h ****       pointer
 229:d:\programy\gnu tools arm embedded\4.8 2014q2\arm-none-eabi\include\c++\4.8.4\bits\stl_list.h ****       operator->() const
 230:d:\programy\gnu tools arm embedded\4.8 2014q2\arm-none-eabi\include\c++\4.8.4\bits\stl_list.h ****       { return std::__addressof(static_cast<_Node*>(_M_node)->_M_data); }
 231:d:\programy\gnu tools arm embedded\4.8 2014q2\arm-none-eabi\include\c++\4.8.4\bits\stl_list.h **** 
 232:d:\programy\gnu tools arm embedded\4.8 2014q2\arm-none-eabi\include\c++\4.8.4\bits\stl_list.h ****       _Self&
 233:d:\programy\gnu tools arm embedded\4.8 2014q2\arm-none-eabi\include\c++\4.8.4\bits\stl_list.h ****       operator++()
 234:d:\programy\gnu tools arm embedded\4.8 2014q2\arm-none-eabi\include\c++\4.8.4\bits\stl_list.h ****       {
 235:d:\programy\gnu tools arm embedded\4.8 2014q2\arm-none-eabi\include\c++\4.8.4\bits\stl_list.h **** 	_M_node = _M_node->_M_next;
 236:d:\programy\gnu tools arm embedded\4.8 2014q2\arm-none-eabi\include\c++\4.8.4\bits\stl_list.h **** 	return *this;
 237:d:\programy\gnu tools arm embedded\4.8 2014q2\arm-none-eabi\include\c++\4.8.4\bits\stl_list.h ****       }
 238:d:\programy\gnu tools arm embedded\4.8 2014q2\arm-none-eabi\include\c++\4.8.4\bits\stl_list.h **** 
 239:d:\programy\gnu tools arm embedded\4.8 2014q2\arm-none-eabi\include\c++\4.8.4\bits\stl_list.h ****       _Self
 240:d:\programy\gnu tools arm embedded\4.8 2014q2\arm-none-eabi\include\c++\4.8.4\bits\stl_list.h ****       operator++(int)
 241:d:\programy\gnu tools arm embedded\4.8 2014q2\arm-none-eabi\include\c++\4.8.4\bits\stl_list.h ****       {
 242:d:\programy\gnu tools arm embedded\4.8 2014q2\arm-none-eabi\include\c++\4.8.4\bits\stl_list.h **** 	_Self __tmp = *this;
 243:d:\programy\gnu tools arm embedded\4.8 2014q2\arm-none-eabi\include\c++\4.8.4\bits\stl_list.h **** 	_M_node = _M_node->_M_next;
 244:d:\programy\gnu tools arm embedded\4.8 2014q2\arm-none-eabi\include\c++\4.8.4\bits\stl_list.h **** 	return __tmp;
 245:d:\programy\gnu tools arm embedded\4.8 2014q2\arm-none-eabi\include\c++\4.8.4\bits\stl_list.h ****       }
 246:d:\programy\gnu tools arm embedded\4.8 2014q2\arm-none-eabi\include\c++\4.8.4\bits\stl_list.h **** 
ARM GAS  C:\Users\Adrian\AppData\Local\Temp\ccxGI9oe.s 			page 9


 247:d:\programy\gnu tools arm embedded\4.8 2014q2\arm-none-eabi\include\c++\4.8.4\bits\stl_list.h ****       _Self&
 248:d:\programy\gnu tools arm embedded\4.8 2014q2\arm-none-eabi\include\c++\4.8.4\bits\stl_list.h ****       operator--()
 249:d:\programy\gnu tools arm embedded\4.8 2014q2\arm-none-eabi\include\c++\4.8.4\bits\stl_list.h ****       {
 250:d:\programy\gnu tools arm embedded\4.8 2014q2\arm-none-eabi\include\c++\4.8.4\bits\stl_list.h **** 	_M_node = _M_node->_M_prev;
 251:d:\programy\gnu tools arm embedded\4.8 2014q2\arm-none-eabi\include\c++\4.8.4\bits\stl_list.h **** 	return *this;
 252:d:\programy\gnu tools arm embedded\4.8 2014q2\arm-none-eabi\include\c++\4.8.4\bits\stl_list.h ****       }
 253:d:\programy\gnu tools arm embedded\4.8 2014q2\arm-none-eabi\include\c++\4.8.4\bits\stl_list.h **** 
 254:d:\programy\gnu tools arm embedded\4.8 2014q2\arm-none-eabi\include\c++\4.8.4\bits\stl_list.h ****       _Self
 255:d:\programy\gnu tools arm embedded\4.8 2014q2\arm-none-eabi\include\c++\4.8.4\bits\stl_list.h ****       operator--(int)
 256:d:\programy\gnu tools arm embedded\4.8 2014q2\arm-none-eabi\include\c++\4.8.4\bits\stl_list.h ****       {
 257:d:\programy\gnu tools arm embedded\4.8 2014q2\arm-none-eabi\include\c++\4.8.4\bits\stl_list.h **** 	_Self __tmp = *this;
 258:d:\programy\gnu tools arm embedded\4.8 2014q2\arm-none-eabi\include\c++\4.8.4\bits\stl_list.h **** 	_M_node = _M_node->_M_prev;
 259:d:\programy\gnu tools arm embedded\4.8 2014q2\arm-none-eabi\include\c++\4.8.4\bits\stl_list.h **** 	return __tmp;
 260:d:\programy\gnu tools arm embedded\4.8 2014q2\arm-none-eabi\include\c++\4.8.4\bits\stl_list.h ****       }
 261:d:\programy\gnu tools arm embedded\4.8 2014q2\arm-none-eabi\include\c++\4.8.4\bits\stl_list.h **** 
 262:d:\programy\gnu tools arm embedded\4.8 2014q2\arm-none-eabi\include\c++\4.8.4\bits\stl_list.h ****       bool
 263:d:\programy\gnu tools arm embedded\4.8 2014q2\arm-none-eabi\include\c++\4.8.4\bits\stl_list.h ****       operator==(const _Self& __x) const
 264:d:\programy\gnu tools arm embedded\4.8 2014q2\arm-none-eabi\include\c++\4.8.4\bits\stl_list.h ****       { return _M_node == __x._M_node; }
 265:d:\programy\gnu tools arm embedded\4.8 2014q2\arm-none-eabi\include\c++\4.8.4\bits\stl_list.h **** 
 266:d:\programy\gnu tools arm embedded\4.8 2014q2\arm-none-eabi\include\c++\4.8.4\bits\stl_list.h ****       bool
 267:d:\programy\gnu tools arm embedded\4.8 2014q2\arm-none-eabi\include\c++\4.8.4\bits\stl_list.h ****       operator!=(const _Self& __x) const
 268:d:\programy\gnu tools arm embedded\4.8 2014q2\arm-none-eabi\include\c++\4.8.4\bits\stl_list.h ****       { return _M_node != __x._M_node; }
 269:d:\programy\gnu tools arm embedded\4.8 2014q2\arm-none-eabi\include\c++\4.8.4\bits\stl_list.h **** 
 270:d:\programy\gnu tools arm embedded\4.8 2014q2\arm-none-eabi\include\c++\4.8.4\bits\stl_list.h ****       // The only member points to the %list element.
 271:d:\programy\gnu tools arm embedded\4.8 2014q2\arm-none-eabi\include\c++\4.8.4\bits\stl_list.h ****       const __detail::_List_node_base* _M_node;
 272:d:\programy\gnu tools arm embedded\4.8 2014q2\arm-none-eabi\include\c++\4.8.4\bits\stl_list.h ****     };
 273:d:\programy\gnu tools arm embedded\4.8 2014q2\arm-none-eabi\include\c++\4.8.4\bits\stl_list.h **** 
 274:d:\programy\gnu tools arm embedded\4.8 2014q2\arm-none-eabi\include\c++\4.8.4\bits\stl_list.h ****   template<typename _Val>
 275:d:\programy\gnu tools arm embedded\4.8 2014q2\arm-none-eabi\include\c++\4.8.4\bits\stl_list.h ****     inline bool
 276:d:\programy\gnu tools arm embedded\4.8 2014q2\arm-none-eabi\include\c++\4.8.4\bits\stl_list.h ****     operator==(const _List_iterator<_Val>& __x,
 277:d:\programy\gnu tools arm embedded\4.8 2014q2\arm-none-eabi\include\c++\4.8.4\bits\stl_list.h **** 	       const _List_const_iterator<_Val>& __y)
 278:d:\programy\gnu tools arm embedded\4.8 2014q2\arm-none-eabi\include\c++\4.8.4\bits\stl_list.h ****     { return __x._M_node == __y._M_node; }
 279:d:\programy\gnu tools arm embedded\4.8 2014q2\arm-none-eabi\include\c++\4.8.4\bits\stl_list.h **** 
 280:d:\programy\gnu tools arm embedded\4.8 2014q2\arm-none-eabi\include\c++\4.8.4\bits\stl_list.h ****   template<typename _Val>
 281:d:\programy\gnu tools arm embedded\4.8 2014q2\arm-none-eabi\include\c++\4.8.4\bits\stl_list.h ****     inline bool
 282:d:\programy\gnu tools arm embedded\4.8 2014q2\arm-none-eabi\include\c++\4.8.4\bits\stl_list.h ****     operator!=(const _List_iterator<_Val>& __x,
 283:d:\programy\gnu tools arm embedded\4.8 2014q2\arm-none-eabi\include\c++\4.8.4\bits\stl_list.h ****                const _List_const_iterator<_Val>& __y)
 284:d:\programy\gnu tools arm embedded\4.8 2014q2\arm-none-eabi\include\c++\4.8.4\bits\stl_list.h ****     { return __x._M_node != __y._M_node; }
 285:d:\programy\gnu tools arm embedded\4.8 2014q2\arm-none-eabi\include\c++\4.8.4\bits\stl_list.h **** 
 286:d:\programy\gnu tools arm embedded\4.8 2014q2\arm-none-eabi\include\c++\4.8.4\bits\stl_list.h **** 
 287:d:\programy\gnu tools arm embedded\4.8 2014q2\arm-none-eabi\include\c++\4.8.4\bits\stl_list.h ****   /// See bits/stl_deque.h's _Deque_base for an explanation.
 288:d:\programy\gnu tools arm embedded\4.8 2014q2\arm-none-eabi\include\c++\4.8.4\bits\stl_list.h ****   template<typename _Tp, typename _Alloc>
 289:d:\programy\gnu tools arm embedded\4.8 2014q2\arm-none-eabi\include\c++\4.8.4\bits\stl_list.h ****     class _List_base
 290:d:\programy\gnu tools arm embedded\4.8 2014q2\arm-none-eabi\include\c++\4.8.4\bits\stl_list.h ****     {
 291:d:\programy\gnu tools arm embedded\4.8 2014q2\arm-none-eabi\include\c++\4.8.4\bits\stl_list.h ****     protected:
 292:d:\programy\gnu tools arm embedded\4.8 2014q2\arm-none-eabi\include\c++\4.8.4\bits\stl_list.h ****       // NOTA BENE
 293:d:\programy\gnu tools arm embedded\4.8 2014q2\arm-none-eabi\include\c++\4.8.4\bits\stl_list.h ****       // The stored instance is not actually of "allocator_type"'s
 294:d:\programy\gnu tools arm embedded\4.8 2014q2\arm-none-eabi\include\c++\4.8.4\bits\stl_list.h ****       // type.  Instead we rebind the type to
 295:d:\programy\gnu tools arm embedded\4.8 2014q2\arm-none-eabi\include\c++\4.8.4\bits\stl_list.h ****       // Allocator<List_node<Tp>>, which according to [20.1.5]/4
 296:d:\programy\gnu tools arm embedded\4.8 2014q2\arm-none-eabi\include\c++\4.8.4\bits\stl_list.h ****       // should probably be the same.  List_node<Tp> is not the same
 297:d:\programy\gnu tools arm embedded\4.8 2014q2\arm-none-eabi\include\c++\4.8.4\bits\stl_list.h ****       // size as Tp (it's two pointers larger), and specializations on
 298:d:\programy\gnu tools arm embedded\4.8 2014q2\arm-none-eabi\include\c++\4.8.4\bits\stl_list.h ****       // Tp may go unused because List_node<Tp> is being bound
 299:d:\programy\gnu tools arm embedded\4.8 2014q2\arm-none-eabi\include\c++\4.8.4\bits\stl_list.h ****       // instead.
 300:d:\programy\gnu tools arm embedded\4.8 2014q2\arm-none-eabi\include\c++\4.8.4\bits\stl_list.h ****       //
 301:d:\programy\gnu tools arm embedded\4.8 2014q2\arm-none-eabi\include\c++\4.8.4\bits\stl_list.h ****       // We put this to the test in the constructors and in
 302:d:\programy\gnu tools arm embedded\4.8 2014q2\arm-none-eabi\include\c++\4.8.4\bits\stl_list.h ****       // get_allocator, where we use conversions between
 303:d:\programy\gnu tools arm embedded\4.8 2014q2\arm-none-eabi\include\c++\4.8.4\bits\stl_list.h ****       // allocator_type and _Node_alloc_type. The conversion is
ARM GAS  C:\Users\Adrian\AppData\Local\Temp\ccxGI9oe.s 			page 10


 304:d:\programy\gnu tools arm embedded\4.8 2014q2\arm-none-eabi\include\c++\4.8.4\bits\stl_list.h ****       // required by table 32 in [20.1.5].
 305:d:\programy\gnu tools arm embedded\4.8 2014q2\arm-none-eabi\include\c++\4.8.4\bits\stl_list.h ****       typedef typename _Alloc::template rebind<_List_node<_Tp> >::other
 306:d:\programy\gnu tools arm embedded\4.8 2014q2\arm-none-eabi\include\c++\4.8.4\bits\stl_list.h ****         _Node_alloc_type;
 307:d:\programy\gnu tools arm embedded\4.8 2014q2\arm-none-eabi\include\c++\4.8.4\bits\stl_list.h **** 
 308:d:\programy\gnu tools arm embedded\4.8 2014q2\arm-none-eabi\include\c++\4.8.4\bits\stl_list.h ****       typedef typename _Alloc::template rebind<_Tp>::other _Tp_alloc_type;
 309:d:\programy\gnu tools arm embedded\4.8 2014q2\arm-none-eabi\include\c++\4.8.4\bits\stl_list.h **** 
 310:d:\programy\gnu tools arm embedded\4.8 2014q2\arm-none-eabi\include\c++\4.8.4\bits\stl_list.h ****       struct _List_impl
 311:d:\programy\gnu tools arm embedded\4.8 2014q2\arm-none-eabi\include\c++\4.8.4\bits\stl_list.h ****       : public _Node_alloc_type
 312:d:\programy\gnu tools arm embedded\4.8 2014q2\arm-none-eabi\include\c++\4.8.4\bits\stl_list.h ****       {
 313:d:\programy\gnu tools arm embedded\4.8 2014q2\arm-none-eabi\include\c++\4.8.4\bits\stl_list.h **** 	__detail::_List_node_base _M_node;
 314:d:\programy\gnu tools arm embedded\4.8 2014q2\arm-none-eabi\include\c++\4.8.4\bits\stl_list.h **** 
 315:d:\programy\gnu tools arm embedded\4.8 2014q2\arm-none-eabi\include\c++\4.8.4\bits\stl_list.h **** 	_List_impl()
 316:d:\programy\gnu tools arm embedded\4.8 2014q2\arm-none-eabi\include\c++\4.8.4\bits\stl_list.h **** 	: _Node_alloc_type(), _M_node()
 317:d:\programy\gnu tools arm embedded\4.8 2014q2\arm-none-eabi\include\c++\4.8.4\bits\stl_list.h **** 	{ }
 318:d:\programy\gnu tools arm embedded\4.8 2014q2\arm-none-eabi\include\c++\4.8.4\bits\stl_list.h **** 
 319:d:\programy\gnu tools arm embedded\4.8 2014q2\arm-none-eabi\include\c++\4.8.4\bits\stl_list.h **** 	_List_impl(const _Node_alloc_type& __a)
 320:d:\programy\gnu tools arm embedded\4.8 2014q2\arm-none-eabi\include\c++\4.8.4\bits\stl_list.h **** 	: _Node_alloc_type(__a), _M_node()
 321:d:\programy\gnu tools arm embedded\4.8 2014q2\arm-none-eabi\include\c++\4.8.4\bits\stl_list.h **** 	{ }
 322:d:\programy\gnu tools arm embedded\4.8 2014q2\arm-none-eabi\include\c++\4.8.4\bits\stl_list.h **** 
 323:d:\programy\gnu tools arm embedded\4.8 2014q2\arm-none-eabi\include\c++\4.8.4\bits\stl_list.h **** #if __cplusplus >= 201103L
 324:d:\programy\gnu tools arm embedded\4.8 2014q2\arm-none-eabi\include\c++\4.8.4\bits\stl_list.h **** 	_List_impl(_Node_alloc_type&& __a)
 325:d:\programy\gnu tools arm embedded\4.8 2014q2\arm-none-eabi\include\c++\4.8.4\bits\stl_list.h **** 	: _Node_alloc_type(std::move(__a)), _M_node()
 326:d:\programy\gnu tools arm embedded\4.8 2014q2\arm-none-eabi\include\c++\4.8.4\bits\stl_list.h **** 	{ }
 327:d:\programy\gnu tools arm embedded\4.8 2014q2\arm-none-eabi\include\c++\4.8.4\bits\stl_list.h **** #endif
 328:d:\programy\gnu tools arm embedded\4.8 2014q2\arm-none-eabi\include\c++\4.8.4\bits\stl_list.h ****       };
 329:d:\programy\gnu tools arm embedded\4.8 2014q2\arm-none-eabi\include\c++\4.8.4\bits\stl_list.h **** 
 330:d:\programy\gnu tools arm embedded\4.8 2014q2\arm-none-eabi\include\c++\4.8.4\bits\stl_list.h ****       _List_impl _M_impl;
 331:d:\programy\gnu tools arm embedded\4.8 2014q2\arm-none-eabi\include\c++\4.8.4\bits\stl_list.h **** 
 332:d:\programy\gnu tools arm embedded\4.8 2014q2\arm-none-eabi\include\c++\4.8.4\bits\stl_list.h ****       _List_node<_Tp>*
 333:d:\programy\gnu tools arm embedded\4.8 2014q2\arm-none-eabi\include\c++\4.8.4\bits\stl_list.h ****       _M_get_node()
 334:d:\programy\gnu tools arm embedded\4.8 2014q2\arm-none-eabi\include\c++\4.8.4\bits\stl_list.h ****       { return _M_impl._Node_alloc_type::allocate(1); }
 335:d:\programy\gnu tools arm embedded\4.8 2014q2\arm-none-eabi\include\c++\4.8.4\bits\stl_list.h **** 
 336:d:\programy\gnu tools arm embedded\4.8 2014q2\arm-none-eabi\include\c++\4.8.4\bits\stl_list.h ****       void
 337:d:\programy\gnu tools arm embedded\4.8 2014q2\arm-none-eabi\include\c++\4.8.4\bits\stl_list.h ****       _M_put_node(_List_node<_Tp>* __p)
 338:d:\programy\gnu tools arm embedded\4.8 2014q2\arm-none-eabi\include\c++\4.8.4\bits\stl_list.h ****       { _M_impl._Node_alloc_type::deallocate(__p, 1); }
 339:d:\programy\gnu tools arm embedded\4.8 2014q2\arm-none-eabi\include\c++\4.8.4\bits\stl_list.h **** 
 340:d:\programy\gnu tools arm embedded\4.8 2014q2\arm-none-eabi\include\c++\4.8.4\bits\stl_list.h ****   public:
 341:d:\programy\gnu tools arm embedded\4.8 2014q2\arm-none-eabi\include\c++\4.8.4\bits\stl_list.h ****       typedef _Alloc allocator_type;
 342:d:\programy\gnu tools arm embedded\4.8 2014q2\arm-none-eabi\include\c++\4.8.4\bits\stl_list.h **** 
 343:d:\programy\gnu tools arm embedded\4.8 2014q2\arm-none-eabi\include\c++\4.8.4\bits\stl_list.h ****       _Node_alloc_type&
 344:d:\programy\gnu tools arm embedded\4.8 2014q2\arm-none-eabi\include\c++\4.8.4\bits\stl_list.h ****       _M_get_Node_allocator() _GLIBCXX_NOEXCEPT
 345:d:\programy\gnu tools arm embedded\4.8 2014q2\arm-none-eabi\include\c++\4.8.4\bits\stl_list.h ****       { return *static_cast<_Node_alloc_type*>(&_M_impl); }
 346:d:\programy\gnu tools arm embedded\4.8 2014q2\arm-none-eabi\include\c++\4.8.4\bits\stl_list.h **** 
 347:d:\programy\gnu tools arm embedded\4.8 2014q2\arm-none-eabi\include\c++\4.8.4\bits\stl_list.h ****       const _Node_alloc_type&
 348:d:\programy\gnu tools arm embedded\4.8 2014q2\arm-none-eabi\include\c++\4.8.4\bits\stl_list.h ****       _M_get_Node_allocator() const _GLIBCXX_NOEXCEPT
 349:d:\programy\gnu tools arm embedded\4.8 2014q2\arm-none-eabi\include\c++\4.8.4\bits\stl_list.h ****       { return *static_cast<const _Node_alloc_type*>(&_M_impl); }
 350:d:\programy\gnu tools arm embedded\4.8 2014q2\arm-none-eabi\include\c++\4.8.4\bits\stl_list.h **** 
 351:d:\programy\gnu tools arm embedded\4.8 2014q2\arm-none-eabi\include\c++\4.8.4\bits\stl_list.h ****       _Tp_alloc_type
 352:d:\programy\gnu tools arm embedded\4.8 2014q2\arm-none-eabi\include\c++\4.8.4\bits\stl_list.h ****       _M_get_Tp_allocator() const _GLIBCXX_NOEXCEPT
 353:d:\programy\gnu tools arm embedded\4.8 2014q2\arm-none-eabi\include\c++\4.8.4\bits\stl_list.h ****       { return _Tp_alloc_type(_M_get_Node_allocator()); }
 354:d:\programy\gnu tools arm embedded\4.8 2014q2\arm-none-eabi\include\c++\4.8.4\bits\stl_list.h **** 
 355:d:\programy\gnu tools arm embedded\4.8 2014q2\arm-none-eabi\include\c++\4.8.4\bits\stl_list.h ****       allocator_type
 356:d:\programy\gnu tools arm embedded\4.8 2014q2\arm-none-eabi\include\c++\4.8.4\bits\stl_list.h ****       get_allocator() const _GLIBCXX_NOEXCEPT
 357:d:\programy\gnu tools arm embedded\4.8 2014q2\arm-none-eabi\include\c++\4.8.4\bits\stl_list.h ****       { return allocator_type(_M_get_Node_allocator()); }
 358:d:\programy\gnu tools arm embedded\4.8 2014q2\arm-none-eabi\include\c++\4.8.4\bits\stl_list.h **** 
 359:d:\programy\gnu tools arm embedded\4.8 2014q2\arm-none-eabi\include\c++\4.8.4\bits\stl_list.h ****       _List_base()
 360:d:\programy\gnu tools arm embedded\4.8 2014q2\arm-none-eabi\include\c++\4.8.4\bits\stl_list.h ****       : _M_impl()
ARM GAS  C:\Users\Adrian\AppData\Local\Temp\ccxGI9oe.s 			page 11


 361:d:\programy\gnu tools arm embedded\4.8 2014q2\arm-none-eabi\include\c++\4.8.4\bits\stl_list.h ****       { _M_init(); }
 362:d:\programy\gnu tools arm embedded\4.8 2014q2\arm-none-eabi\include\c++\4.8.4\bits\stl_list.h **** 
 363:d:\programy\gnu tools arm embedded\4.8 2014q2\arm-none-eabi\include\c++\4.8.4\bits\stl_list.h ****       _List_base(const _Node_alloc_type& __a)
 364:d:\programy\gnu tools arm embedded\4.8 2014q2\arm-none-eabi\include\c++\4.8.4\bits\stl_list.h ****       : _M_impl(__a)
 365:d:\programy\gnu tools arm embedded\4.8 2014q2\arm-none-eabi\include\c++\4.8.4\bits\stl_list.h ****       { _M_init(); }
 366:d:\programy\gnu tools arm embedded\4.8 2014q2\arm-none-eabi\include\c++\4.8.4\bits\stl_list.h **** 
 367:d:\programy\gnu tools arm embedded\4.8 2014q2\arm-none-eabi\include\c++\4.8.4\bits\stl_list.h **** #if __cplusplus >= 201103L
 368:d:\programy\gnu tools arm embedded\4.8 2014q2\arm-none-eabi\include\c++\4.8.4\bits\stl_list.h ****       _List_base(_List_base&& __x)
 369:d:\programy\gnu tools arm embedded\4.8 2014q2\arm-none-eabi\include\c++\4.8.4\bits\stl_list.h ****       : _M_impl(std::move(__x._M_get_Node_allocator()))
 370:d:\programy\gnu tools arm embedded\4.8 2014q2\arm-none-eabi\include\c++\4.8.4\bits\stl_list.h ****       {
 371:d:\programy\gnu tools arm embedded\4.8 2014q2\arm-none-eabi\include\c++\4.8.4\bits\stl_list.h **** 	_M_init();
 372:d:\programy\gnu tools arm embedded\4.8 2014q2\arm-none-eabi\include\c++\4.8.4\bits\stl_list.h **** 	__detail::_List_node_base::swap(_M_impl._M_node, __x._M_impl._M_node);
 373:d:\programy\gnu tools arm embedded\4.8 2014q2\arm-none-eabi\include\c++\4.8.4\bits\stl_list.h ****       }
 374:d:\programy\gnu tools arm embedded\4.8 2014q2\arm-none-eabi\include\c++\4.8.4\bits\stl_list.h **** #endif
 375:d:\programy\gnu tools arm embedded\4.8 2014q2\arm-none-eabi\include\c++\4.8.4\bits\stl_list.h **** 
 376:d:\programy\gnu tools arm embedded\4.8 2014q2\arm-none-eabi\include\c++\4.8.4\bits\stl_list.h ****       // This is what actually destroys the list.
 377:d:\programy\gnu tools arm embedded\4.8 2014q2\arm-none-eabi\include\c++\4.8.4\bits\stl_list.h ****       ~_List_base() _GLIBCXX_NOEXCEPT
 378:d:\programy\gnu tools arm embedded\4.8 2014q2\arm-none-eabi\include\c++\4.8.4\bits\stl_list.h ****       { _M_clear(); }
 379:d:\programy\gnu tools arm embedded\4.8 2014q2\arm-none-eabi\include\c++\4.8.4\bits\stl_list.h **** 
 380:d:\programy\gnu tools arm embedded\4.8 2014q2\arm-none-eabi\include\c++\4.8.4\bits\stl_list.h ****       void
 381:d:\programy\gnu tools arm embedded\4.8 2014q2\arm-none-eabi\include\c++\4.8.4\bits\stl_list.h ****       _M_clear();
 382:d:\programy\gnu tools arm embedded\4.8 2014q2\arm-none-eabi\include\c++\4.8.4\bits\stl_list.h **** 
 383:d:\programy\gnu tools arm embedded\4.8 2014q2\arm-none-eabi\include\c++\4.8.4\bits\stl_list.h ****       void
 384:d:\programy\gnu tools arm embedded\4.8 2014q2\arm-none-eabi\include\c++\4.8.4\bits\stl_list.h ****       _M_init()
 385:d:\programy\gnu tools arm embedded\4.8 2014q2\arm-none-eabi\include\c++\4.8.4\bits\stl_list.h ****       {
 386:d:\programy\gnu tools arm embedded\4.8 2014q2\arm-none-eabi\include\c++\4.8.4\bits\stl_list.h ****         this->_M_impl._M_node._M_next = &this->_M_impl._M_node;
 387:d:\programy\gnu tools arm embedded\4.8 2014q2\arm-none-eabi\include\c++\4.8.4\bits\stl_list.h ****         this->_M_impl._M_node._M_prev = &this->_M_impl._M_node;
 388:d:\programy\gnu tools arm embedded\4.8 2014q2\arm-none-eabi\include\c++\4.8.4\bits\stl_list.h ****       }
 389:d:\programy\gnu tools arm embedded\4.8 2014q2\arm-none-eabi\include\c++\4.8.4\bits\stl_list.h ****     };
 390:d:\programy\gnu tools arm embedded\4.8 2014q2\arm-none-eabi\include\c++\4.8.4\bits\stl_list.h **** 
 391:d:\programy\gnu tools arm embedded\4.8 2014q2\arm-none-eabi\include\c++\4.8.4\bits\stl_list.h ****   /**
 392:d:\programy\gnu tools arm embedded\4.8 2014q2\arm-none-eabi\include\c++\4.8.4\bits\stl_list.h ****    *  @brief A standard container with linear time access to elements,
 393:d:\programy\gnu tools arm embedded\4.8 2014q2\arm-none-eabi\include\c++\4.8.4\bits\stl_list.h ****    *  and fixed time insertion/deletion at any point in the sequence.
 394:d:\programy\gnu tools arm embedded\4.8 2014q2\arm-none-eabi\include\c++\4.8.4\bits\stl_list.h ****    *
 395:d:\programy\gnu tools arm embedded\4.8 2014q2\arm-none-eabi\include\c++\4.8.4\bits\stl_list.h ****    *  @ingroup sequences
 396:d:\programy\gnu tools arm embedded\4.8 2014q2\arm-none-eabi\include\c++\4.8.4\bits\stl_list.h ****    *
 397:d:\programy\gnu tools arm embedded\4.8 2014q2\arm-none-eabi\include\c++\4.8.4\bits\stl_list.h ****    *  @tparam _Tp  Type of element.
 398:d:\programy\gnu tools arm embedded\4.8 2014q2\arm-none-eabi\include\c++\4.8.4\bits\stl_list.h ****    *  @tparam _Alloc  Allocator type, defaults to allocator<_Tp>.
 399:d:\programy\gnu tools arm embedded\4.8 2014q2\arm-none-eabi\include\c++\4.8.4\bits\stl_list.h ****    *
 400:d:\programy\gnu tools arm embedded\4.8 2014q2\arm-none-eabi\include\c++\4.8.4\bits\stl_list.h ****    *  Meets the requirements of a <a href="tables.html#65">container</a>, a
 401:d:\programy\gnu tools arm embedded\4.8 2014q2\arm-none-eabi\include\c++\4.8.4\bits\stl_list.h ****    *  <a href="tables.html#66">reversible container</a>, and a
 402:d:\programy\gnu tools arm embedded\4.8 2014q2\arm-none-eabi\include\c++\4.8.4\bits\stl_list.h ****    *  <a href="tables.html#67">sequence</a>, including the
 403:d:\programy\gnu tools arm embedded\4.8 2014q2\arm-none-eabi\include\c++\4.8.4\bits\stl_list.h ****    *  <a href="tables.html#68">optional sequence requirements</a> with the
 404:d:\programy\gnu tools arm embedded\4.8 2014q2\arm-none-eabi\include\c++\4.8.4\bits\stl_list.h ****    *  %exception of @c at and @c operator[].
 405:d:\programy\gnu tools arm embedded\4.8 2014q2\arm-none-eabi\include\c++\4.8.4\bits\stl_list.h ****    *
 406:d:\programy\gnu tools arm embedded\4.8 2014q2\arm-none-eabi\include\c++\4.8.4\bits\stl_list.h ****    *  This is a @e doubly @e linked %list.  Traversal up and down the
 407:d:\programy\gnu tools arm embedded\4.8 2014q2\arm-none-eabi\include\c++\4.8.4\bits\stl_list.h ****    *  %list requires linear time, but adding and removing elements (or
 408:d:\programy\gnu tools arm embedded\4.8 2014q2\arm-none-eabi\include\c++\4.8.4\bits\stl_list.h ****    *  @e nodes) is done in constant time, regardless of where the
 409:d:\programy\gnu tools arm embedded\4.8 2014q2\arm-none-eabi\include\c++\4.8.4\bits\stl_list.h ****    *  change takes place.  Unlike std::vector and std::deque,
 410:d:\programy\gnu tools arm embedded\4.8 2014q2\arm-none-eabi\include\c++\4.8.4\bits\stl_list.h ****    *  random-access iterators are not provided, so subscripting ( @c
 411:d:\programy\gnu tools arm embedded\4.8 2014q2\arm-none-eabi\include\c++\4.8.4\bits\stl_list.h ****    *  [] ) access is not allowed.  For algorithms which only need
 412:d:\programy\gnu tools arm embedded\4.8 2014q2\arm-none-eabi\include\c++\4.8.4\bits\stl_list.h ****    *  sequential access, this lack makes no difference.
 413:d:\programy\gnu tools arm embedded\4.8 2014q2\arm-none-eabi\include\c++\4.8.4\bits\stl_list.h ****    *
 414:d:\programy\gnu tools arm embedded\4.8 2014q2\arm-none-eabi\include\c++\4.8.4\bits\stl_list.h ****    *  Also unlike the other standard containers, std::list provides
 415:d:\programy\gnu tools arm embedded\4.8 2014q2\arm-none-eabi\include\c++\4.8.4\bits\stl_list.h ****    *  specialized algorithms %unique to linked lists, such as
 416:d:\programy\gnu tools arm embedded\4.8 2014q2\arm-none-eabi\include\c++\4.8.4\bits\stl_list.h ****    *  splicing, sorting, and in-place reversal.
 417:d:\programy\gnu tools arm embedded\4.8 2014q2\arm-none-eabi\include\c++\4.8.4\bits\stl_list.h ****    *
ARM GAS  C:\Users\Adrian\AppData\Local\Temp\ccxGI9oe.s 			page 12


 418:d:\programy\gnu tools arm embedded\4.8 2014q2\arm-none-eabi\include\c++\4.8.4\bits\stl_list.h ****    *  A couple points on memory allocation for list<Tp>:
 419:d:\programy\gnu tools arm embedded\4.8 2014q2\arm-none-eabi\include\c++\4.8.4\bits\stl_list.h ****    *
 420:d:\programy\gnu tools arm embedded\4.8 2014q2\arm-none-eabi\include\c++\4.8.4\bits\stl_list.h ****    *  First, we never actually allocate a Tp, we allocate
 421:d:\programy\gnu tools arm embedded\4.8 2014q2\arm-none-eabi\include\c++\4.8.4\bits\stl_list.h ****    *  List_node<Tp>'s and trust [20.1.5]/4 to DTRT.  This is to ensure
 422:d:\programy\gnu tools arm embedded\4.8 2014q2\arm-none-eabi\include\c++\4.8.4\bits\stl_list.h ****    *  that after elements from %list<X,Alloc1> are spliced into
 423:d:\programy\gnu tools arm embedded\4.8 2014q2\arm-none-eabi\include\c++\4.8.4\bits\stl_list.h ****    *  %list<X,Alloc2>, destroying the memory of the second %list is a
 424:d:\programy\gnu tools arm embedded\4.8 2014q2\arm-none-eabi\include\c++\4.8.4\bits\stl_list.h ****    *  valid operation, i.e., Alloc1 giveth and Alloc2 taketh away.
 425:d:\programy\gnu tools arm embedded\4.8 2014q2\arm-none-eabi\include\c++\4.8.4\bits\stl_list.h ****    *
 426:d:\programy\gnu tools arm embedded\4.8 2014q2\arm-none-eabi\include\c++\4.8.4\bits\stl_list.h ****    *  Second, a %list conceptually represented as
 427:d:\programy\gnu tools arm embedded\4.8 2014q2\arm-none-eabi\include\c++\4.8.4\bits\stl_list.h ****    *  @code
 428:d:\programy\gnu tools arm embedded\4.8 2014q2\arm-none-eabi\include\c++\4.8.4\bits\stl_list.h ****    *    A <---> B <---> C <---> D
 429:d:\programy\gnu tools arm embedded\4.8 2014q2\arm-none-eabi\include\c++\4.8.4\bits\stl_list.h ****    *  @endcode
 430:d:\programy\gnu tools arm embedded\4.8 2014q2\arm-none-eabi\include\c++\4.8.4\bits\stl_list.h ****    *  is actually circular; a link exists between A and D.  The %list
 431:d:\programy\gnu tools arm embedded\4.8 2014q2\arm-none-eabi\include\c++\4.8.4\bits\stl_list.h ****    *  class holds (as its only data member) a private list::iterator
 432:d:\programy\gnu tools arm embedded\4.8 2014q2\arm-none-eabi\include\c++\4.8.4\bits\stl_list.h ****    *  pointing to @e D, not to @e A!  To get to the head of the %list,
 433:d:\programy\gnu tools arm embedded\4.8 2014q2\arm-none-eabi\include\c++\4.8.4\bits\stl_list.h ****    *  we start at the tail and move forward by one.  When this member
 434:d:\programy\gnu tools arm embedded\4.8 2014q2\arm-none-eabi\include\c++\4.8.4\bits\stl_list.h ****    *  iterator's next/previous pointers refer to itself, the %list is
 435:d:\programy\gnu tools arm embedded\4.8 2014q2\arm-none-eabi\include\c++\4.8.4\bits\stl_list.h ****    *  %empty. 
 436:d:\programy\gnu tools arm embedded\4.8 2014q2\arm-none-eabi\include\c++\4.8.4\bits\stl_list.h ****   */
 437:d:\programy\gnu tools arm embedded\4.8 2014q2\arm-none-eabi\include\c++\4.8.4\bits\stl_list.h ****   template<typename _Tp, typename _Alloc = std::allocator<_Tp> >
 438:d:\programy\gnu tools arm embedded\4.8 2014q2\arm-none-eabi\include\c++\4.8.4\bits\stl_list.h ****     class list : protected _List_base<_Tp, _Alloc>
 101              		.loc 2 438 0
 102              		.cfi_startproc
 103              		@ args = 0, pretend = 0, frame = 8
 104              		@ frame_needed = 1, uses_anonymous_args = 0
 105 0000 80B5     		push	{r7, lr}	@
 106              		.cfi_def_cfa_offset 8
 107              		.cfi_offset 7, -8
 108              		.cfi_offset 14, -4
 109 0002 82B0     		sub	sp, sp, #8	@,,
 110              		.cfi_def_cfa_offset 16
 111 0004 00AF     		add	r7, sp, #0	@,,
 112              		.cfi_def_cfa_register 7
 113 0006 7860     		str	r0, [r7, #4]	@ this, this
 114              	.LBB2:
 115              		.loc 2 438 0
 116 0008 7B68     		ldr	r3, [r7, #4]	@ D.15908, this
 117 000a 1846     		mov	r0, r3	@, D.15908
 118 000c FFF7FEFF 		bl	_ZNSt10_List_baseIPK17CommandDefinitionSaIS2_EED2Ev	@
 119              	.LBE2:
 120 0010 7B68     		ldr	r3, [r7, #4]	@ D.15909, this
 121 0012 1846     		mov	r0, r3	@, <retval>
 122 0014 0837     		adds	r7, r7, #8	@,,
 123 0016 BD46     		mov	sp, r7	@,
 124              		@ sp needed	@
 125 0018 80BD     		pop	{r7, pc}	@
 126              		.cfi_endproc
 127              	.LFE486:
 128              		.size	_ZNSt4listIPK17CommandDefinitionSaIS2_EED2Ev, .-_ZNSt4listIPK17CommandDefinitionSaIS2_EED2Ev
 129              		.weak	_ZNSt4listIPK17CommandDefinitionSaIS2_EED1Ev
 130              		.thumb_set _ZNSt4listIPK17CommandDefinitionSaIS2_EED1Ev,_ZNSt4listIPK17CommandDefinitionSaIS2_EED2
 131              		.global	_commands
 132 001a 00BF     		.section	.bss._commands,"aw",%nobits
 133              		.align	2
 134              		.type	_commands, %object
 135              		.size	_commands, 8
 136              	_commands:
ARM GAS  C:\Users\Adrian\AppData\Local\Temp\ccxGI9oe.s 			page 13


 137 0000 00000000 		.space	8
 137      00000000 
 138              		.section	.text._Z23commandArgumentsToPairsPPKcmP19CommandArgumentPairj,"ax",%progbits
 139              		.align	2
 140              		.global	_Z23commandArgumentsToPairsPPKcmP19CommandArgumentPairj
 141              		.thumb
 142              		.thumb_func
 143              		.type	_Z23commandArgumentsToPairsPPKcmP19CommandArgumentPairj, %function
 144              	_Z23commandArgumentsToPairsPPKcmP19CommandArgumentPairj:
 145              	.LFB488:
 146              		.file 3 "peripherals/command.cpp"
   1:peripherals/command.cpp **** /**
   2:peripherals/command.cpp ****  * \file command.cpp
   3:peripherals/command.cpp ****  * \brief Command interpreter
   4:peripherals/command.cpp ****  *
   5:peripherals/command.cpp ****  * Command interpreter.
   6:peripherals/command.cpp ****  *
   7:peripherals/command.cpp ****  * prefix: command
   8:peripherals/command.cpp ****  *
   9:peripherals/command.cpp ****  * \author Freddie Chopin, http://www.freddiechopin.info http://www.distortec.com
  10:peripherals/command.cpp ****  * \date 2012-08-30
  11:peripherals/command.cpp ****  */
  12:peripherals/command.cpp **** 
  13:peripherals/command.cpp **** #include <list>
  14:peripherals/command.cpp **** 
  15:peripherals/command.cpp **** #include <cstdint>
  16:peripherals/command.cpp **** #include <cstddef>
  17:peripherals/command.cpp **** #include <cstring>
  18:peripherals/command.cpp **** 
  19:peripherals/command.cpp **** #include "command.h"
  20:peripherals/command.cpp **** #include "error.h"
  21:peripherals/command.cpp **** #include "config.h"
  22:peripherals/command.cpp **** 
  23:peripherals/command.cpp **** #include "FreeRTOS.h"
  24:peripherals/command.cpp **** 
  25:peripherals/command.cpp **** /*-------------------------------------------------------------------------------------------------
  26:peripherals/command.cpp **** | local functions' prototypes
  27:peripherals/command.cpp **** +--------------------------------------------------------------------------------------------------
  28:peripherals/command.cpp **** 
  29:peripherals/command.cpp **** static enum Error _helpHandler(const char **arguments_array, uint32_t arguments_count, char *output
  30:peripherals/command.cpp **** 		size_t output_buffer_length);
  31:peripherals/command.cpp **** 
  32:peripherals/command.cpp **** /*-------------------------------------------------------------------------------------------------
  33:peripherals/command.cpp **** | local variables
  34:peripherals/command.cpp **** +--------------------------------------------------------------------------------------------------
  35:peripherals/command.cpp **** 
  36:peripherals/command.cpp **** static const struct CommandDefinition _helpCommandDefinition =
  37:peripherals/command.cpp **** {
  38:peripherals/command.cpp **** 		"help",								// command string
  39:peripherals/command.cpp **** 		0,									// maximum number of arguments
  40:peripherals/command.cpp **** 		_helpHandler,						// callback function
  41:peripherals/command.cpp **** 		"help: lists all available commands\r\n",	// string displayed by help function
  42:peripherals/command.cpp **** };
  43:peripherals/command.cpp **** 
  44:peripherals/command.cpp **** std::list<const CommandDefinition*> _commands = {&_helpCommandDefinition};
  45:peripherals/command.cpp **** 
  46:peripherals/command.cpp **** /*-------------------------------------------------------------------------------------------------
ARM GAS  C:\Users\Adrian\AppData\Local\Temp\ccxGI9oe.s 			page 14


  47:peripherals/command.cpp **** | global functions
  48:peripherals/command.cpp **** +--------------------------------------------------------------------------------------------------
  49:peripherals/command.cpp **** 
  50:peripherals/command.cpp **** /**
  51:peripherals/command.cpp ****  * \brief Converts arguments to map of key-value pairs.
  52:peripherals/command.cpp ****  *
  53:peripherals/command.cpp ****  * Converts arguments to map of key-value pairs. Key is identified by double hyphen. Values are opt
  54:peripherals/command.cpp ****  *
  55:peripherals/command.cpp ****  * \param [in] arguments_array is an array with arguments
  56:peripherals/command.cpp ****  * \param [in] arguments_count is the number or arguments on the arguments_array
  57:peripherals/command.cpp ****  * \param [out] pairs is the output array with pairs
  58:peripherals/command.cpp ****  * \param [in] pairs_length is the size of externally provided pairs array
  59:peripherals/command.cpp ****  *
  60:peripherals/command.cpp ****  * \return number of found pairs
  61:peripherals/command.cpp ****  */
  62:peripherals/command.cpp **** 
  63:peripherals/command.cpp **** uint32_t commandArgumentsToPairs(const char **arguments_array, uint32_t arguments_count,
  64:peripherals/command.cpp **** 		struct CommandArgumentPair *pairs, size_t pairs_length)
  65:peripherals/command.cpp **** {
 147              		.loc 3 65 0
 148              		.cfi_startproc
 149              		@ args = 0, pretend = 0, frame = 32
 150              		@ frame_needed = 1, uses_anonymous_args = 0
 151              		@ link register save eliminated.
 152 0000 80B4     		push	{r7}	@
 153              		.cfi_def_cfa_offset 4
 154              		.cfi_offset 7, -4
 155 0002 89B0     		sub	sp, sp, #36	@,,
 156              		.cfi_def_cfa_offset 40
 157 0004 00AF     		add	r7, sp, #0	@,,
 158              		.cfi_def_cfa_register 7
 159 0006 F860     		str	r0, [r7, #12]	@ arguments_array, arguments_array
 160 0008 B960     		str	r1, [r7, #8]	@ arguments_count, arguments_count
 161 000a 7A60     		str	r2, [r7, #4]	@ pairs, pairs
 162 000c 3B60     		str	r3, [r7]	@ pairs_length, pairs_length
 163              	.LBB3:
  66:peripherals/command.cpp **** 	pairs[0].key = NULL;
 164              		.loc 3 66 0
 165 000e 7B68     		ldr	r3, [r7, #4]	@ tmp130, pairs
 166 0010 0022     		movs	r2, #0	@ tmp131,
 167 0012 1A60     		str	r2, [r3]	@ tmp131, pairs_5(D)->key
  67:peripherals/command.cpp **** 
  68:peripherals/command.cpp **** 	uint32_t i = 0, j = 0;
 168              		.loc 3 68 0
 169 0014 0023     		movs	r3, #0	@ tmp132,
 170 0016 FB61     		str	r3, [r7, #28]	@ tmp132, i
 171 0018 0023     		movs	r3, #0	@ tmp133,
 172 001a BB61     		str	r3, [r7, #24]	@ tmp133, j
  69:peripherals/command.cpp **** 	uint32_t found = 0;
 173              		.loc 3 69 0
 174 001c 0023     		movs	r3, #0	@ tmp134,
 175 001e 7B61     		str	r3, [r7, #20]	@ tmp134, found
  70:peripherals/command.cpp **** 
  71:peripherals/command.cpp **** 	while (i < arguments_count && j < pairs_length)
 176              		.loc 3 71 0
 177 0020 36E0     		b	.L7	@
 178              	.L11:
ARM GAS  C:\Users\Adrian\AppData\Local\Temp\ccxGI9oe.s 			page 15


 179              	.LBB4:
  72:peripherals/command.cpp **** 	{
  73:peripherals/command.cpp **** 		const char *argument = arguments_array[i++];
 180              		.loc 3 73 0
 181 0022 FB69     		ldr	r3, [r7, #28]	@ i.0, i
 182 0024 5A1C     		adds	r2, r3, #1	@ tmp135, i.0,
 183 0026 FA61     		str	r2, [r7, #28]	@ tmp135, i
 184 0028 9B00     		lsls	r3, r3, #2	@ D.15910, i.0,
 185 002a FA68     		ldr	r2, [r7, #12]	@ tmp136, arguments_array
 186 002c 1344     		add	r3, r3, r2	@ D.15911, tmp136
 187 002e 1B68     		ldr	r3, [r3]	@ tmp137, *_15
 188 0030 3B61     		str	r3, [r7, #16]	@ tmp137, argument
  74:peripherals/command.cpp **** 
  75:peripherals/command.cpp **** 		// if the argument is in form --something - it's a key
  76:peripherals/command.cpp **** 		if (argument[0] == '-' && argument[1] == '-' && argument[2] != '\0')
 189              		.loc 3 76 0
 190 0032 3B69     		ldr	r3, [r7, #16]	@ tmp138, argument
 191 0034 1B78     		ldrb	r3, [r3]	@ zero_extendqisi2	@ D.15912, *argument_16
 192 0036 2D2B     		cmp	r3, #45	@ D.15912,
 193 0038 24D1     		bne	.L8	@,
 194              		.loc 3 76 0 is_stmt 0 discriminator 1
 195 003a 3B69     		ldr	r3, [r7, #16]	@ tmp139, argument
 196 003c 0133     		adds	r3, r3, #1	@ D.15913, tmp139,
 197 003e 1B78     		ldrb	r3, [r3]	@ zero_extendqisi2	@ D.15912, *_18
 198 0040 2D2B     		cmp	r3, #45	@ D.15912,
 199 0042 1FD1     		bne	.L8	@,
 200 0044 3B69     		ldr	r3, [r7, #16]	@ tmp140, argument
 201 0046 0233     		adds	r3, r3, #2	@ D.15913, tmp140,
 202 0048 1B78     		ldrb	r3, [r3]	@ zero_extendqisi2	@ D.15912, *_20
 203 004a 002B     		cmp	r3, #0	@ D.15912,
 204 004c 1AD0     		beq	.L8	@,
  77:peripherals/command.cpp **** 		{
  78:peripherals/command.cpp **** 			// if current key in pairs array is valid and another key was found - increment the index
  79:peripherals/command.cpp **** 			if (pairs[j].key != NULL)
 205              		.loc 3 79 0 is_stmt 1
 206 004e BB69     		ldr	r3, [r7, #24]	@ tmp141, j
 207 0050 DB00     		lsls	r3, r3, #3	@ D.15910, tmp141,
 208 0052 7A68     		ldr	r2, [r7, #4]	@ tmp142, pairs
 209 0054 1344     		add	r3, r3, r2	@ D.15914, tmp142
 210 0056 1B68     		ldr	r3, [r3]	@ D.15913, _23->key
 211 0058 002B     		cmp	r3, #0	@ D.15913,
 212 005a 02D0     		beq	.L9	@,
  80:peripherals/command.cpp **** 				j++;
 213              		.loc 3 80 0
 214 005c BB69     		ldr	r3, [r7, #24]	@ tmp144, j
 215 005e 0133     		adds	r3, r3, #1	@ tmp143, tmp144,
 216 0060 BB61     		str	r3, [r7, #24]	@ tmp143, j
 217              	.L9:
  81:peripherals/command.cpp **** 
  82:peripherals/command.cpp **** 			pairs[j].key = &argument[2];
 218              		.loc 3 82 0
 219 0062 BB69     		ldr	r3, [r7, #24]	@ tmp145, j
 220 0064 DB00     		lsls	r3, r3, #3	@ D.15910, tmp145,
 221 0066 7A68     		ldr	r2, [r7, #4]	@ tmp146, pairs
 222 0068 1344     		add	r3, r3, r2	@ D.15914, tmp146
 223 006a 3A69     		ldr	r2, [r7, #16]	@ tmp147, argument
 224 006c 0232     		adds	r2, r2, #2	@ D.15913, tmp147,
ARM GAS  C:\Users\Adrian\AppData\Local\Temp\ccxGI9oe.s 			page 16


 225 006e 1A60     		str	r2, [r3]	@ D.15913, _27->key
  83:peripherals/command.cpp **** 			pairs[j].value = NULL;			// initially value is unknown
 226              		.loc 3 83 0
 227 0070 BB69     		ldr	r3, [r7, #24]	@ tmp148, j
 228 0072 DB00     		lsls	r3, r3, #3	@ D.15910, tmp148,
 229 0074 7A68     		ldr	r2, [r7, #4]	@ tmp149, pairs
 230 0076 1344     		add	r3, r3, r2	@ D.15914, tmp149
 231 0078 0022     		movs	r2, #0	@ tmp150,
 232 007a 5A60     		str	r2, [r3, #4]	@ tmp150, _30->value
  84:peripherals/command.cpp **** 
  85:peripherals/command.cpp **** 			found++;
 233              		.loc 3 85 0
 234 007c 7B69     		ldr	r3, [r7, #20]	@ tmp152, found
 235 007e 0133     		adds	r3, r3, #1	@ tmp151, tmp152,
 236 0080 7B61     		str	r3, [r7, #20]	@ tmp151, found
 237 0082 05E0     		b	.L7	@
 238              	.L8:
  86:peripherals/command.cpp **** 		}
  87:peripherals/command.cpp **** 		else								// otherwise it's a value
  88:peripherals/command.cpp **** 			pairs[j].value = argument;
 239              		.loc 3 88 0
 240 0084 BB69     		ldr	r3, [r7, #24]	@ tmp153, j
 241 0086 DB00     		lsls	r3, r3, #3	@ D.15910, tmp153,
 242 0088 7A68     		ldr	r2, [r7, #4]	@ tmp154, pairs
 243 008a 1344     		add	r3, r3, r2	@ D.15914, tmp154
 244 008c 3A69     		ldr	r2, [r7, #16]	@ tmp155, argument
 245 008e 5A60     		str	r2, [r3, #4]	@ tmp155, _33->value
 246              	.L7:
 247              	.LBE4:
  71:peripherals/command.cpp **** 	while (i < arguments_count && j < pairs_length)
 248              		.loc 3 71 0 discriminator 1
 249 0090 FA69     		ldr	r2, [r7, #28]	@ tmp156, i
 250 0092 BB68     		ldr	r3, [r7, #8]	@ tmp157, arguments_count
 251 0094 9A42     		cmp	r2, r3	@ tmp156, tmp157
 252 0096 03D2     		bcs	.L10	@,
  71:peripherals/command.cpp **** 	while (i < arguments_count && j < pairs_length)
 253              		.loc 3 71 0 is_stmt 0 discriminator 2
 254 0098 BA69     		ldr	r2, [r7, #24]	@ tmp158, j
 255 009a 3B68     		ldr	r3, [r7]	@ tmp159, pairs_length
 256 009c 9A42     		cmp	r2, r3	@ tmp158, tmp159
 257 009e C0D3     		bcc	.L11	@,
 258              	.L10:
  89:peripherals/command.cpp **** 	}
  90:peripherals/command.cpp **** 
  91:peripherals/command.cpp **** 	return found;
 259              		.loc 3 91 0 is_stmt 1
 260 00a0 7B69     		ldr	r3, [r7, #20]	@ D.15915, found
 261              	.LBE3:
  92:peripherals/command.cpp **** }
 262              		.loc 3 92 0
 263 00a2 1846     		mov	r0, r3	@, <retval>
 264 00a4 2437     		adds	r7, r7, #36	@,,
 265 00a6 BD46     		mov	sp, r7	@,
 266              		@ sp needed	@
 267 00a8 5DF8047B 		ldr	r7, [sp], #4	@,
 268 00ac 7047     		bx	lr	@
 269              		.cfi_endproc
ARM GAS  C:\Users\Adrian\AppData\Local\Temp\ccxGI9oe.s 			page 17


 270              	.LFE488:
 271              		.size	_Z23commandArgumentsToPairsPPKcmP19CommandArgumentPairj, .-_Z23commandArgumentsToPairsPPKcmP
 272 00ae 00BF     		.section	.rodata
 273              		.align	2
 274              	.LC1:
 275 0000 20090D0A 		.ascii	" \011\015\012\000"
 275      00
 276              		.section	.text._Z19commandProcessInputPcS_j,"ax",%progbits
 277              		.align	2
 278              		.global	_Z19commandProcessInputPcS_j
 279              		.thumb
 280              		.thumb_func
 281              		.type	_Z19commandProcessInputPcS_j, %function
 282              	_Z19commandProcessInputPcS_j:
 283              	.LFB489:
  93:peripherals/command.cpp **** 
  94:peripherals/command.cpp **** /**
  95:peripherals/command.cpp ****  * \brief Processes command input string.
  96:peripherals/command.cpp ****  *
  97:peripherals/command.cpp ****  * Processes command input string.
  98:peripherals/command.cpp ****  *
  99:peripherals/command.cpp ****  * \param [in] input is input string
 100:peripherals/command.cpp ****  * \param [out] output_buffer is the pointer to output buffer
 101:peripherals/command.cpp ****  * \param [in] output_buffer_length is the size of output buffer
 102:peripherals/command.cpp ****  *
 103:peripherals/command.cpp ****  * \return ERROR_NONE on success, otherwise an error code defined in the file error.h
 104:peripherals/command.cpp ****  */
 105:peripherals/command.cpp **** 
 106:peripherals/command.cpp **** enum Error commandProcessInput(char *input, char *output_buffer, size_t output_buffer_length)
 107:peripherals/command.cpp **** {
 284              		.loc 3 107 0
 285              		.cfi_startproc
 286              		@ args = 0, pretend = 0, frame = 64
 287              		@ frame_needed = 1, uses_anonymous_args = 0
 288 0000 90B5     		push	{r4, r7, lr}	@
 289              		.cfi_def_cfa_offset 12
 290              		.cfi_offset 4, -12
 291              		.cfi_offset 7, -8
 292              		.cfi_offset 14, -4
 293 0002 91B0     		sub	sp, sp, #68	@,,
 294              		.cfi_def_cfa_offset 80
 295 0004 00AF     		add	r7, sp, #0	@,,
 296              		.cfi_def_cfa_register 7
 297 0006 F860     		str	r0, [r7, #12]	@ input, input
 298 0008 B960     		str	r1, [r7, #8]	@ output_buffer, output_buffer
 299 000a 7A60     		str	r2, [r7, #4]	@ output_buffer_length, output_buffer_length
 300              	.LBB5:
 108:peripherals/command.cpp **** 	*output_buffer = '\0';
 301              		.loc 3 108 0
 302 000c BB68     		ldr	r3, [r7, #8]	@ tmp124, output_buffer
 303 000e 0022     		movs	r2, #0	@ tmp125,
 304 0010 1A70     		strb	r2, [r3]	@ tmp126, *output_buffer_6(D)
 109:peripherals/command.cpp **** 
 110:peripherals/command.cpp **** 	enum Error error = ERROR_COMMAND_NOT_FOUND;
 305              		.loc 3 110 0
 306 0012 1823     		movs	r3, #24	@ tmp127,
 307 0014 87F83F30 		strb	r3, [r7, #63]	@ tmp128, error
ARM GAS  C:\Users\Adrian\AppData\Local\Temp\ccxGI9oe.s 			page 18


 308              	.LBB6:
 111:peripherals/command.cpp **** 
 112:peripherals/command.cpp **** 	for (const CommandDefinition* definition : _commands)
 309              		.loc 3 112 0
 310 0018 444B     		ldr	r3, .L27	@ tmp129,
 311 001a 3B63     		str	r3, [r7, #48]	@ tmp129, __for_range
 312 001c 386B     		ldr	r0, [r7, #48]	@, __for_range
 313 001e FFF7FEFF 		bl	_ZNSt4listIPK17CommandDefinitionSaIS2_EE5beginEv	@
 314 0022 0346     		mov	r3, r0	@ tmp130,
 315 0024 BB61     		str	r3, [r7, #24]	@ tmp130, __for_begin
 316 0026 386B     		ldr	r0, [r7, #48]	@, __for_range
 317 0028 FFF7FEFF 		bl	_ZNSt4listIPK17CommandDefinitionSaIS2_EE3endEv	@
 318 002c 0346     		mov	r3, r0	@ tmp131,
 319 002e 7B61     		str	r3, [r7, #20]	@ tmp131, __for_end
 320 0030 69E0     		b	.L14	@
 321              	.L26:
 322              	.LBB7:
 323              		.loc 3 112 0 is_stmt 0 discriminator 2
 324 0032 07F11803 		add	r3, r7, #24	@ tmp132,,
 325 0036 1846     		mov	r0, r3	@, tmp132
 326 0038 FFF7FEFF 		bl	_ZNKSt14_List_iteratorIPK17CommandDefinitionEdeEv	@
 327 003c 0346     		mov	r3, r0	@ D.15917,
 328 003e 1B68     		ldr	r3, [r3]	@ tmp133, *_10
 329 0040 FB62     		str	r3, [r7, #44]	@ tmp133, definition
 113:peripherals/command.cpp **** 	{
 114:peripherals/command.cpp **** 		size_t command_length = strlen(definition->command);
 330              		.loc 3 114 0 is_stmt 1 discriminator 2
 331 0042 FB6A     		ldr	r3, [r7, #44]	@ tmp134, definition
 332 0044 1B68     		ldr	r3, [r3]	@ D.15918, definition_11->command
 333 0046 1846     		mov	r0, r3	@, D.15918
 334 0048 FFF7FEFF 		bl	strlen	@
 335 004c B862     		str	r0, [r7, #40]	@, command_length
 336              	.LBB8:
 115:peripherals/command.cpp **** 
 116:peripherals/command.cpp **** 		if (strncmp(definition->command, input, command_length) == 0)	// was the input matched to command
 337              		.loc 3 116 0 discriminator 2
 338 004e FB6A     		ldr	r3, [r7, #44]	@ tmp135, definition
 339 0050 1B68     		ldr	r3, [r3]	@ D.15918, definition_11->command
 340 0052 1846     		mov	r0, r3	@, D.15918
 341 0054 F968     		ldr	r1, [r7, #12]	@, input
 342 0056 BA6A     		ldr	r2, [r7, #40]	@, command_length
 343 0058 FFF7FEFF 		bl	strncmp	@
 344 005c 0346     		mov	r3, r0	@ D.15919,
 345 005e 002B     		cmp	r3, #0	@ D.15919,
 346 0060 4CD1     		bne	.L15	@,
 347              	.LBB9:
 117:peripherals/command.cpp **** 		{
 118:peripherals/command.cpp **** 			// always make space for command name - first entry
 119:peripherals/command.cpp **** 			uint32_t arguments_count_max = definition->arguments_count_max + 1;
 348              		.loc 3 119 0
 349 0062 FB6A     		ldr	r3, [r7, #44]	@ tmp136, definition
 350 0064 5B68     		ldr	r3, [r3, #4]	@ D.15920, definition_11->arguments_count_max
 351 0066 0133     		adds	r3, r3, #1	@ tmp137, D.15920,
 352 0068 7B62     		str	r3, [r7, #36]	@ tmp137, arguments_count_max
 120:peripherals/command.cpp **** 
 121:peripherals/command.cpp **** 			const char **arguments_array = (const char**)pvPortMalloc(sizeof (char*) * arguments_count_max);
 353              		.loc 3 121 0
ARM GAS  C:\Users\Adrian\AppData\Local\Temp\ccxGI9oe.s 			page 19


 354 006a 7B6A     		ldr	r3, [r7, #36]	@ tmp138, arguments_count_max
 355 006c 9B00     		lsls	r3, r3, #2	@ D.15920, tmp138,
 356 006e 1846     		mov	r0, r3	@, D.15920
 357 0070 FFF7FEFF 		bl	pvPortMalloc	@
 358 0074 3862     		str	r0, [r7, #32]	@, arguments_array
 122:peripherals/command.cpp **** 
 123:peripherals/command.cpp **** 			if (arguments_array == NULL)
 359              		.loc 3 123 0
 360 0076 3B6A     		ldr	r3, [r7, #32]	@ tmp139, arguments_array
 361 0078 002B     		cmp	r3, #0	@ tmp139,
 362 007a 01D1     		bne	.L16	@,
 124:peripherals/command.cpp **** 				return ERROR_FreeRTOS_errCOULD_NOT_ALLOCATE_REQUIRED_MEMORY;
 363              		.loc 3 124 0
 364 007c FE23     		movs	r3, #254	@ D.15916,
 365 007e 4FE0     		b	.L25	@
 366              	.L16:
 125:peripherals/command.cpp **** 
 126:peripherals/command.cpp **** 			uint32_t arguments_count = 0;
 367              		.loc 3 126 0
 368 0080 0023     		movs	r3, #0	@ tmp140,
 369 0082 BB63     		str	r3, [r7, #56]	@ tmp140, arguments_count
 127:peripherals/command.cpp **** 			char *source = input;
 370              		.loc 3 127 0
 371 0084 FB68     		ldr	r3, [r7, #12]	@ tmp141, input
 372 0086 7B63     		str	r3, [r7, #52]	@ tmp141, source
 128:peripherals/command.cpp **** 			char *lasts;
 129:peripherals/command.cpp **** 
 130:peripherals/command.cpp **** 			while (arguments_count < arguments_count_max)
 373              		.loc 3 130 0
 374 0088 20E0     		b	.L18	@
 375              	.L22:
 376              	.LBB10:
 131:peripherals/command.cpp **** 			{
 132:peripherals/command.cpp **** 				char *argument = strtok_r(source, " \t\r\n", &lasts);
 377              		.loc 3 132 0
 378 008a 07F11003 		add	r3, r7, #16	@ tmp142,,
 379 008e 786B     		ldr	r0, [r7, #52]	@, source
 380 0090 2749     		ldr	r1, .L27+4	@,
 381 0092 1A46     		mov	r2, r3	@, tmp142
 382 0094 FFF7FEFF 		bl	strtok_r	@
 383 0098 F861     		str	r0, [r7, #28]	@, argument
 133:peripherals/command.cpp **** 
 134:peripherals/command.cpp **** 				if (argument == NULL)		// valid argument?
 384              		.loc 3 134 0
 385 009a FB69     		ldr	r3, [r7, #28]	@ tmp143, argument
 386 009c 002B     		cmp	r3, #0	@ tmp143,
 387 009e 00D1     		bne	.L19	@,
 135:peripherals/command.cpp **** 					break;					// no - no more arguments available, so break...
 388              		.loc 3 135 0
 389 00a0 18E0     		b	.L20	@
 390              	.L19:
 136:peripherals/command.cpp **** 
 137:peripherals/command.cpp **** 				if (strlen(argument) > COMMAND_ARGUMENT_LENGTH)	// should this argument be trimmed?
 391              		.loc 3 137 0
 392 00a2 F869     		ldr	r0, [r7, #28]	@, argument
 393 00a4 FFF7FEFF 		bl	strlen	@
 394 00a8 0346     		mov	r3, r0	@ D.15921,
ARM GAS  C:\Users\Adrian\AppData\Local\Temp\ccxGI9oe.s 			page 20


 395 00aa 202B     		cmp	r3, #32	@ D.15921,
 396 00ac 03D9     		bls	.L21	@,
 138:peripherals/command.cpp **** 					argument[COMMAND_ARGUMENT_LENGTH] = '\0';
 397              		.loc 3 138 0
 398 00ae FB69     		ldr	r3, [r7, #28]	@ tmp144, argument
 399 00b0 2033     		adds	r3, r3, #32	@ D.15922, tmp144,
 400 00b2 0022     		movs	r2, #0	@ tmp145,
 401 00b4 1A70     		strb	r2, [r3]	@ tmp146, *_26
 402              	.L21:
 139:peripherals/command.cpp **** 
 140:peripherals/command.cpp **** 				arguments_array[arguments_count] = argument;
 403              		.loc 3 140 0
 404 00b6 BB6B     		ldr	r3, [r7, #56]	@ tmp147, arguments_count
 405 00b8 9B00     		lsls	r3, r3, #2	@ D.15920, tmp147,
 406 00ba 3A6A     		ldr	r2, [r7, #32]	@ tmp148, arguments_array
 407 00bc 1344     		add	r3, r3, r2	@ D.15923, tmp148
 408 00be FA69     		ldr	r2, [r7, #28]	@ tmp149, argument
 409 00c0 1A60     		str	r2, [r3]	@ tmp149, *_28
 141:peripherals/command.cpp **** 
 142:peripherals/command.cpp **** 				arguments_count++;
 410              		.loc 3 142 0
 411 00c2 BB6B     		ldr	r3, [r7, #56]	@ tmp151, arguments_count
 412 00c4 0133     		adds	r3, r3, #1	@ tmp150, tmp151,
 413 00c6 BB63     		str	r3, [r7, #56]	@ tmp150, arguments_count
 143:peripherals/command.cpp **** 				source = NULL;
 414              		.loc 3 143 0
 415 00c8 0023     		movs	r3, #0	@ tmp152,
 416 00ca 7B63     		str	r3, [r7, #52]	@ tmp152, source
 417              	.L18:
 418              	.LBE10:
 130:peripherals/command.cpp **** 			while (arguments_count < arguments_count_max)
 419              		.loc 3 130 0 discriminator 1
 420 00cc BA6B     		ldr	r2, [r7, #56]	@ tmp153, arguments_count
 421 00ce 7B6A     		ldr	r3, [r7, #36]	@ tmp154, arguments_count_max
 422 00d0 9A42     		cmp	r2, r3	@ tmp153, tmp154
 423 00d2 DAD3     		bcc	.L22	@,
 424              	.L20:
 144:peripherals/command.cpp **** 			}
 145:peripherals/command.cpp **** 
 146:peripherals/command.cpp **** 			// execute callback function
 147:peripherals/command.cpp **** 			error = (*definition->callback)(arguments_array, arguments_count, output_buffer, output_buffer_l
 425              		.loc 3 147 0
 426 00d4 FB6A     		ldr	r3, [r7, #44]	@ tmp155, definition
 427 00d6 9C68     		ldr	r4, [r3, #8]	@ D.15924, definition_11->callback
 428 00d8 386A     		ldr	r0, [r7, #32]	@, arguments_array
 429 00da B96B     		ldr	r1, [r7, #56]	@, arguments_count
 430 00dc BA68     		ldr	r2, [r7, #8]	@, output_buffer
 431 00de 7B68     		ldr	r3, [r7, #4]	@, output_buffer_length
 432 00e0 A047     		blx	r4	@ D.15924
 433 00e2 0346     		mov	r3, r0	@ tmp156,
 434 00e4 87F83F30 		strb	r3, [r7, #63]	@ tmp157, error
 148:peripherals/command.cpp **** 
 149:peripherals/command.cpp **** 			vPortFree(arguments_array);
 435              		.loc 3 149 0
 436 00e8 386A     		ldr	r0, [r7, #32]	@, arguments_array
 437 00ea FFF7FEFF 		bl	vPortFree	@
 150:peripherals/command.cpp **** 
ARM GAS  C:\Users\Adrian\AppData\Local\Temp\ccxGI9oe.s 			page 21


 151:peripherals/command.cpp **** 			if (error != ERROR_NONE)
 438              		.loc 3 151 0
 439 00ee 97F93F30 		ldrsb	r3, [r7, #63]	@ tmp158, error
 440 00f2 002B     		cmp	r3, #0	@ tmp158,
 441 00f4 12D0     		beq	.L24	@,
 152:peripherals/command.cpp **** 				return error;
 442              		.loc 3 152 0
 443 00f6 97F83F30 		ldrb	r3, [r7, #63]	@ zero_extendqisi2	@ D.15916, error
 444 00fa 11E0     		b	.L25	@
 445              	.L15:
 446              	.LBE9:
 447              	.LBE8:
 448              	.LBE7:
 112:peripherals/command.cpp **** 	for (const CommandDefinition* definition : _commands)
 449              		.loc 3 112 0
 450 00fc 07F11803 		add	r3, r7, #24	@ tmp159,,
 451 0100 1846     		mov	r0, r3	@, tmp159
 452 0102 FFF7FEFF 		bl	_ZNSt14_List_iteratorIPK17CommandDefinitionEppEv	@
 453              	.L14:
 112:peripherals/command.cpp **** 	for (const CommandDefinition* definition : _commands)
 454              		.loc 3 112 0 is_stmt 0 discriminator 1
 455 0106 07F11802 		add	r2, r7, #24	@ tmp160,,
 456 010a 07F11403 		add	r3, r7, #20	@ tmp161,,
 457 010e 1046     		mov	r0, r2	@, tmp160
 458 0110 1946     		mov	r1, r3	@, tmp161
 459 0112 FFF7FEFF 		bl	_ZNKSt14_List_iteratorIPK17CommandDefinitionEneERKS3_	@
 460 0116 0346     		mov	r3, r0	@ tmp162,
 461 0118 002B     		cmp	r3, #0	@ retval.1,
 462 011a 8AD1     		bne	.L26	@,
 463              	.L24:
 464              	.LBE6:
 153:peripherals/command.cpp **** 
 154:peripherals/command.cpp **** 			break;
 155:peripherals/command.cpp **** 		}
 156:peripherals/command.cpp **** 	}
 157:peripherals/command.cpp **** 
 158:peripherals/command.cpp **** 	return error;
 465              		.loc 3 158 0 is_stmt 1
 466 011c 97F83F30 		ldrb	r3, [r7, #63]	@ zero_extendqisi2	@ D.15916, error
 467              	.L25:
 468 0120 5BB2     		sxtb	r3, r3	@ tmp164, D.15916
 469              	.LBE5:
 159:peripherals/command.cpp **** }
 470              		.loc 3 159 0
 471 0122 1846     		mov	r0, r3	@, <retval>
 472 0124 4437     		adds	r7, r7, #68	@,,
 473 0126 BD46     		mov	sp, r7	@,
 474              		@ sp needed	@
 475 0128 90BD     		pop	{r4, r7, pc}	@
 476              	.L28:
 477 012a 00BF     		.align	2
 478              	.L27:
 479 012c 00000000 		.word	_commands
 480 0130 00000000 		.word	.LC1
 481              		.cfi_endproc
 482              	.LFE489:
 483              		.size	_Z19commandProcessInputPcS_j, .-_Z19commandProcessInputPcS_j
ARM GAS  C:\Users\Adrian\AppData\Local\Temp\ccxGI9oe.s 			page 22


 484              		.section	.text._Z15commandRegisterPK17CommandDefinition,"ax",%progbits
 485              		.align	2
 486              		.global	_Z15commandRegisterPK17CommandDefinition
 487              		.thumb
 488              		.thumb_func
 489              		.type	_Z15commandRegisterPK17CommandDefinition, %function
 490              	_Z15commandRegisterPK17CommandDefinition:
 491              	.LFB490:
 160:peripherals/command.cpp **** 
 161:peripherals/command.cpp **** /**
 162:peripherals/command.cpp ****  * \brief Registers new command to command interpreter.
 163:peripherals/command.cpp ****  * Registers new command to command interpreter. This function should be called
 164:peripherals/command.cpp ****  * BEFORE the scheduler is started, as it's not thread-safe.
 165:peripherals/command.cpp ****  *
 166:peripherals/command.cpp ****  * \param [in] definition is the pointer to command definition struct, it should
 167:peripherals/command.cpp ****  * be in flash or available through entire program, as only the pointer is
 168:peripherals/command.cpp ****  * copied
 169:peripherals/command.cpp ****  */
 170:peripherals/command.cpp **** 
 171:peripherals/command.cpp **** void commandRegister(const struct CommandDefinition *definition)
 172:peripherals/command.cpp **** {
 492              		.loc 3 172 0
 493              		.cfi_startproc
 494              		@ args = 0, pretend = 0, frame = 8
 495              		@ frame_needed = 1, uses_anonymous_args = 0
 496 0000 80B5     		push	{r7, lr}	@
 497              		.cfi_def_cfa_offset 8
 498              		.cfi_offset 7, -8
 499              		.cfi_offset 14, -4
 500 0002 82B0     		sub	sp, sp, #8	@,,
 501              		.cfi_def_cfa_offset 16
 502 0004 00AF     		add	r7, sp, #0	@,,
 503              		.cfi_def_cfa_register 7
 504 0006 7860     		str	r0, [r7, #4]	@ definition, definition
 173:peripherals/command.cpp **** 	_commands.push_back(definition);
 505              		.loc 3 173 0
 506 0008 3B1D     		adds	r3, r7, #4	@ tmp110,,
 507 000a 0348     		ldr	r0, .L30	@,
 508 000c 1946     		mov	r1, r3	@, tmp110
 509 000e FFF7FEFF 		bl	_ZNSt4listIPK17CommandDefinitionSaIS2_EE9push_backERKS2_	@
 174:peripherals/command.cpp **** }
 510              		.loc 3 174 0
 511 0012 0837     		adds	r7, r7, #8	@,,
 512 0014 BD46     		mov	sp, r7	@,
 513              		@ sp needed	@
 514 0016 80BD     		pop	{r7, pc}	@
 515              	.L31:
 516              		.align	2
 517              	.L30:
 518 0018 00000000 		.word	_commands
 519              		.cfi_endproc
 520              	.LFE490:
 521              		.size	_Z15commandRegisterPK17CommandDefinition, .-_Z15commandRegisterPK17CommandDefinition
 522              		.section	.text._ZL12_helpHandlerPPKcmPcj,"ax",%progbits
 523              		.align	2
 524              		.thumb
 525              		.thumb_func
ARM GAS  C:\Users\Adrian\AppData\Local\Temp\ccxGI9oe.s 			page 23


 526              		.type	_ZL12_helpHandlerPPKcmPcj, %function
 527              	_ZL12_helpHandlerPPKcmPcj:
 528              	.LFB491:
 175:peripherals/command.cpp **** 
 176:peripherals/command.cpp **** /*-------------------------------------------------------------------------------------------------
 177:peripherals/command.cpp **** | local functions
 178:peripherals/command.cpp **** +--------------------------------------------------------------------------------------------------
 179:peripherals/command.cpp **** 
 180:peripherals/command.cpp **** /**
 181:peripherals/command.cpp ****  * \brief Handler of 'help' command.
 182:peripherals/command.cpp ****  *
 183:peripherals/command.cpp ****  * Handler of 'help' command. Displays all available commands' help strings.
 184:peripherals/command.cpp ****  *
 185:peripherals/command.cpp ****  * \param [out] output_buffer is the pointer to output buffer
 186:peripherals/command.cpp ****  * \param [in] output_buffer_length is the size of output buffer
 187:peripherals/command.cpp ****  *
 188:peripherals/command.cpp ****  * \return ERROR_NONE on success, otherwise an error code defined in the file error.h
 189:peripherals/command.cpp ****  */
 190:peripherals/command.cpp **** 
 191:peripherals/command.cpp **** static enum Error _helpHandler(const char **arguments_array, uint32_t arguments_count, char *output
 192:peripherals/command.cpp **** 		size_t output_buffer_length)
 193:peripherals/command.cpp **** {
 529              		.loc 3 193 0
 530              		.cfi_startproc
 531              		@ args = 0, pretend = 0, frame = 40
 532              		@ frame_needed = 1, uses_anonymous_args = 0
 533 0000 80B5     		push	{r7, lr}	@
 534              		.cfi_def_cfa_offset 8
 535              		.cfi_offset 7, -8
 536              		.cfi_offset 14, -4
 537 0002 8AB0     		sub	sp, sp, #40	@,,
 538              		.cfi_def_cfa_offset 48
 539 0004 00AF     		add	r7, sp, #0	@,,
 540              		.cfi_def_cfa_register 7
 541 0006 F860     		str	r0, [r7, #12]	@ arguments_array, arguments_array
 542 0008 B960     		str	r1, [r7, #8]	@ arguments_count, arguments_count
 543 000a 7A60     		str	r2, [r7, #4]	@ output_buffer, output_buffer
 544 000c 3B60     		str	r3, [r7]	@ output_buffer_length, output_buffer_length
 545              	.LBB11:
 546              	.LBB12:
 194:peripherals/command.cpp **** 	(void)arguments_array;					// suppress warning
 195:peripherals/command.cpp **** 	(void)arguments_count;					// suppress warning
 196:peripherals/command.cpp **** 
 197:peripherals/command.cpp **** 	for (const CommandDefinition *definition : _commands)
 547              		.loc 3 197 0
 548 000e 234B     		ldr	r3, .L37	@ tmp117,
 549 0010 7B62     		str	r3, [r7, #36]	@ tmp117, __for_range
 550 0012 786A     		ldr	r0, [r7, #36]	@, __for_range
 551 0014 FFF7FEFF 		bl	_ZNSt4listIPK17CommandDefinitionSaIS2_EE5beginEv	@
 552 0018 0346     		mov	r3, r0	@ tmp118,
 553 001a BB61     		str	r3, [r7, #24]	@ tmp118, __for_begin
 554 001c 786A     		ldr	r0, [r7, #36]	@, __for_range
 555 001e FFF7FEFF 		bl	_ZNSt4listIPK17CommandDefinitionSaIS2_EE3endEv	@
 556 0022 0346     		mov	r3, r0	@ tmp119,
 557 0024 7B61     		str	r3, [r7, #20]	@ tmp119, __for_end
 558 0026 24E0     		b	.L33	@
 559              	.L36:
ARM GAS  C:\Users\Adrian\AppData\Local\Temp\ccxGI9oe.s 			page 24


 560              	.LBB13:
 561              		.loc 3 197 0 is_stmt 0 discriminator 2
 562 0028 07F11803 		add	r3, r7, #24	@ tmp120,,
 563 002c 1846     		mov	r0, r3	@, tmp120
 564 002e FFF7FEFF 		bl	_ZNKSt14_List_iteratorIPK17CommandDefinitionEdeEv	@
 565 0032 0346     		mov	r3, r0	@ D.15927,
 566 0034 1B68     		ldr	r3, [r3]	@ tmp121, *_6
 567 0036 3B62     		str	r3, [r7, #32]	@ tmp121, definition
 198:peripherals/command.cpp **** 	{
 199:peripherals/command.cpp **** 		size_t string_length = strlen(definition->help_string);
 568              		.loc 3 199 0 is_stmt 1 discriminator 2
 569 0038 3B6A     		ldr	r3, [r7, #32]	@ tmp122, definition
 570 003a DB68     		ldr	r3, [r3, #12]	@ D.15928, definition_7->help_string
 571 003c 1846     		mov	r0, r3	@, D.15928
 572 003e FFF7FEFF 		bl	strlen	@
 573 0042 F861     		str	r0, [r7, #28]	@, string_length
 200:peripherals/command.cpp **** 
 201:peripherals/command.cpp **** 		if ((output_buffer_length - 1) < string_length)	// will the help string fit into buffer?
 574              		.loc 3 201 0 discriminator 2
 575 0044 3B68     		ldr	r3, [r7]	@ tmp123, output_buffer_length
 576 0046 5A1E     		subs	r2, r3, #1	@ D.15929, tmp123,
 577 0048 FB69     		ldr	r3, [r7, #28]	@ tmp124, string_length
 578 004a 9A42     		cmp	r2, r3	@ D.15929, tmp124
 579 004c 01D2     		bcs	.L34	@,
 202:peripherals/command.cpp **** 			return ERROR_BUFFER_OVERFLOW;
 580              		.loc 3 202 0
 581 004e 1923     		movs	r3, #25	@ D.15926,
 582 0050 1EE0     		b	.L35	@
 583              	.L34:
 203:peripherals/command.cpp **** 
 204:peripherals/command.cpp **** 		memcpy(output_buffer, definition->help_string, string_length);
 584              		.loc 3 204 0
 585 0052 3B6A     		ldr	r3, [r7, #32]	@ tmp125, definition
 586 0054 DB68     		ldr	r3, [r3, #12]	@ D.15928, definition_7->help_string
 587 0056 7868     		ldr	r0, [r7, #4]	@, output_buffer
 588 0058 1946     		mov	r1, r3	@, D.15928
 589 005a FA69     		ldr	r2, [r7, #28]	@, string_length
 590 005c FFF7FEFF 		bl	memcpy	@
 205:peripherals/command.cpp **** 		output_buffer += string_length;
 591              		.loc 3 205 0
 592 0060 7A68     		ldr	r2, [r7, #4]	@ tmp127, output_buffer
 593 0062 FB69     		ldr	r3, [r7, #28]	@ tmp128, string_length
 594 0064 1344     		add	r3, r3, r2	@ tmp126, tmp127
 595 0066 7B60     		str	r3, [r7, #4]	@ tmp126, output_buffer
 596              	.LBE13:
 197:peripherals/command.cpp **** 	for (const CommandDefinition *definition : _commands)
 597              		.loc 3 197 0
 598 0068 07F11803 		add	r3, r7, #24	@ tmp129,,
 599 006c 1846     		mov	r0, r3	@, tmp129
 600 006e FFF7FEFF 		bl	_ZNSt14_List_iteratorIPK17CommandDefinitionEppEv	@
 601              	.L33:
 197:peripherals/command.cpp **** 	for (const CommandDefinition *definition : _commands)
 602              		.loc 3 197 0 is_stmt 0 discriminator 1
 603 0072 07F11802 		add	r2, r7, #24	@ tmp130,,
 604 0076 07F11403 		add	r3, r7, #20	@ tmp131,,
 605 007a 1046     		mov	r0, r2	@, tmp130
 606 007c 1946     		mov	r1, r3	@, tmp131
ARM GAS  C:\Users\Adrian\AppData\Local\Temp\ccxGI9oe.s 			page 25


 607 007e FFF7FEFF 		bl	_ZNKSt14_List_iteratorIPK17CommandDefinitionEneERKS3_	@
 608 0082 0346     		mov	r3, r0	@ tmp132,
 609 0084 002B     		cmp	r3, #0	@ retval.4,
 610 0086 CFD1     		bne	.L36	@,
 611              	.LBE12:
 206:peripherals/command.cpp **** 	}
 207:peripherals/command.cpp **** 
 208:peripherals/command.cpp **** 	*output_buffer = '\0';					// add trailing '\0' to the end of output
 612              		.loc 3 208 0 is_stmt 1
 613 0088 7B68     		ldr	r3, [r7, #4]	@ tmp133, output_buffer
 614 008a 0022     		movs	r2, #0	@ tmp134,
 615 008c 1A70     		strb	r2, [r3]	@ tmp135, *output_buffer_1
 209:peripherals/command.cpp **** 
 210:peripherals/command.cpp **** 	return ERROR_NONE;
 616              		.loc 3 210 0
 617 008e 0023     		movs	r3, #0	@ D.15926,
 618              	.L35:
 619 0090 5BB2     		sxtb	r3, r3	@ tmp137, D.15926
 620              	.LBE11:
 211:peripherals/command.cpp **** }
 621              		.loc 3 211 0
 622 0092 1846     		mov	r0, r3	@, <retval>
 623 0094 2837     		adds	r7, r7, #40	@,,
 624 0096 BD46     		mov	sp, r7	@,
 625              		@ sp needed	@
 626 0098 80BD     		pop	{r7, pc}	@
 627              	.L38:
 628 009a 00BF     		.align	2
 629              	.L37:
 630 009c 00000000 		.word	_commands
 631              		.cfi_endproc
 632              	.LFE491:
 633              		.size	_ZL12_helpHandlerPPKcmPcj, .-_ZL12_helpHandlerPPKcmPcj
 634              		.section	.text._ZNSaIPK17CommandDefinitionEC2Ev,"axG",%progbits,_ZNSaIPK17CommandDefinitionEC5Ev,c
 635              		.align	2
 636              		.weak	_ZNSaIPK17CommandDefinitionEC2Ev
 637              		.thumb
 638              		.thumb_func
 639              		.type	_ZNSaIPK17CommandDefinitionEC2Ev, %function
 640              	_ZNSaIPK17CommandDefinitionEC2Ev:
 641              	.LFB493:
 642              		.file 4 "d:\\programy\\gnu tools arm embedded\\4.8 2014q2\\arm-none-eabi\\include\\c++\\4.8.4\\bit
   1:d:\programy\gnu tools arm embedded\4.8 2014q2\arm-none-eabi\include\c++\4.8.4\bits\allocator.h **** // Allocators -*- C++ -*-
   2:d:\programy\gnu tools arm embedded\4.8 2014q2\arm-none-eabi\include\c++\4.8.4\bits\allocator.h **** 
   3:d:\programy\gnu tools arm embedded\4.8 2014q2\arm-none-eabi\include\c++\4.8.4\bits\allocator.h **** // Copyright (C) 2001-2013 Free Software Foundation, Inc.
   4:d:\programy\gnu tools arm embedded\4.8 2014q2\arm-none-eabi\include\c++\4.8.4\bits\allocator.h **** //
   5:d:\programy\gnu tools arm embedded\4.8 2014q2\arm-none-eabi\include\c++\4.8.4\bits\allocator.h **** // This file is part of the GNU ISO C++ Library.  This library is free
   6:d:\programy\gnu tools arm embedded\4.8 2014q2\arm-none-eabi\include\c++\4.8.4\bits\allocator.h **** // software; you can redistribute it and/or modify it under the
   7:d:\programy\gnu tools arm embedded\4.8 2014q2\arm-none-eabi\include\c++\4.8.4\bits\allocator.h **** // terms of the GNU General Public License as published by the
   8:d:\programy\gnu tools arm embedded\4.8 2014q2\arm-none-eabi\include\c++\4.8.4\bits\allocator.h **** // Free Software Foundation; either version 3, or (at your option)
   9:d:\programy\gnu tools arm embedded\4.8 2014q2\arm-none-eabi\include\c++\4.8.4\bits\allocator.h **** // any later version.
  10:d:\programy\gnu tools arm embedded\4.8 2014q2\arm-none-eabi\include\c++\4.8.4\bits\allocator.h **** 
  11:d:\programy\gnu tools arm embedded\4.8 2014q2\arm-none-eabi\include\c++\4.8.4\bits\allocator.h **** // This library is distributed in the hope that it will be useful,
  12:d:\programy\gnu tools arm embedded\4.8 2014q2\arm-none-eabi\include\c++\4.8.4\bits\allocator.h **** // but WITHOUT ANY WARRANTY; without even the implied warranty of
  13:d:\programy\gnu tools arm embedded\4.8 2014q2\arm-none-eabi\include\c++\4.8.4\bits\allocator.h **** // MERCHANTABILITY or FITNESS FOR A PARTICULAR PURPOSE.  See the
  14:d:\programy\gnu tools arm embedded\4.8 2014q2\arm-none-eabi\include\c++\4.8.4\bits\allocator.h **** // GNU General Public License for more details.
  15:d:\programy\gnu tools arm embedded\4.8 2014q2\arm-none-eabi\include\c++\4.8.4\bits\allocator.h **** 
ARM GAS  C:\Users\Adrian\AppData\Local\Temp\ccxGI9oe.s 			page 26


  16:d:\programy\gnu tools arm embedded\4.8 2014q2\arm-none-eabi\include\c++\4.8.4\bits\allocator.h **** // Under Section 7 of GPL version 3, you are granted additional
  17:d:\programy\gnu tools arm embedded\4.8 2014q2\arm-none-eabi\include\c++\4.8.4\bits\allocator.h **** // permissions described in the GCC Runtime Library Exception, version
  18:d:\programy\gnu tools arm embedded\4.8 2014q2\arm-none-eabi\include\c++\4.8.4\bits\allocator.h **** // 3.1, as published by the Free Software Foundation.
  19:d:\programy\gnu tools arm embedded\4.8 2014q2\arm-none-eabi\include\c++\4.8.4\bits\allocator.h **** 
  20:d:\programy\gnu tools arm embedded\4.8 2014q2\arm-none-eabi\include\c++\4.8.4\bits\allocator.h **** // You should have received a copy of the GNU General Public License and
  21:d:\programy\gnu tools arm embedded\4.8 2014q2\arm-none-eabi\include\c++\4.8.4\bits\allocator.h **** // a copy of the GCC Runtime Library Exception along with this program;
  22:d:\programy\gnu tools arm embedded\4.8 2014q2\arm-none-eabi\include\c++\4.8.4\bits\allocator.h **** // see the files COPYING3 and COPYING.RUNTIME respectively.  If not, see
  23:d:\programy\gnu tools arm embedded\4.8 2014q2\arm-none-eabi\include\c++\4.8.4\bits\allocator.h **** // <http://www.gnu.org/licenses/>.
  24:d:\programy\gnu tools arm embedded\4.8 2014q2\arm-none-eabi\include\c++\4.8.4\bits\allocator.h **** 
  25:d:\programy\gnu tools arm embedded\4.8 2014q2\arm-none-eabi\include\c++\4.8.4\bits\allocator.h **** /*
  26:d:\programy\gnu tools arm embedded\4.8 2014q2\arm-none-eabi\include\c++\4.8.4\bits\allocator.h ****  * Copyright (c) 1996-1997
  27:d:\programy\gnu tools arm embedded\4.8 2014q2\arm-none-eabi\include\c++\4.8.4\bits\allocator.h ****  * Silicon Graphics Computer Systems, Inc.
  28:d:\programy\gnu tools arm embedded\4.8 2014q2\arm-none-eabi\include\c++\4.8.4\bits\allocator.h ****  *
  29:d:\programy\gnu tools arm embedded\4.8 2014q2\arm-none-eabi\include\c++\4.8.4\bits\allocator.h ****  * Permission to use, copy, modify, distribute and sell this software
  30:d:\programy\gnu tools arm embedded\4.8 2014q2\arm-none-eabi\include\c++\4.8.4\bits\allocator.h ****  * and its documentation for any purpose is hereby granted without fee,
  31:d:\programy\gnu tools arm embedded\4.8 2014q2\arm-none-eabi\include\c++\4.8.4\bits\allocator.h ****  * provided that the above copyright notice appear in all copies and
  32:d:\programy\gnu tools arm embedded\4.8 2014q2\arm-none-eabi\include\c++\4.8.4\bits\allocator.h ****  * that both that copyright notice and this permission notice appear
  33:d:\programy\gnu tools arm embedded\4.8 2014q2\arm-none-eabi\include\c++\4.8.4\bits\allocator.h ****  * in supporting documentation.  Silicon Graphics makes no
  34:d:\programy\gnu tools arm embedded\4.8 2014q2\arm-none-eabi\include\c++\4.8.4\bits\allocator.h ****  * representations about the suitability of this software for any
  35:d:\programy\gnu tools arm embedded\4.8 2014q2\arm-none-eabi\include\c++\4.8.4\bits\allocator.h ****  * purpose.  It is provided "as is" without express or implied warranty.
  36:d:\programy\gnu tools arm embedded\4.8 2014q2\arm-none-eabi\include\c++\4.8.4\bits\allocator.h ****  */
  37:d:\programy\gnu tools arm embedded\4.8 2014q2\arm-none-eabi\include\c++\4.8.4\bits\allocator.h **** 
  38:d:\programy\gnu tools arm embedded\4.8 2014q2\arm-none-eabi\include\c++\4.8.4\bits\allocator.h **** /** @file bits/allocator.h
  39:d:\programy\gnu tools arm embedded\4.8 2014q2\arm-none-eabi\include\c++\4.8.4\bits\allocator.h ****  *  This is an internal header file, included by other library headers.
  40:d:\programy\gnu tools arm embedded\4.8 2014q2\arm-none-eabi\include\c++\4.8.4\bits\allocator.h ****  *  Do not attempt to use it directly. @headername{memory}
  41:d:\programy\gnu tools arm embedded\4.8 2014q2\arm-none-eabi\include\c++\4.8.4\bits\allocator.h ****  */
  42:d:\programy\gnu tools arm embedded\4.8 2014q2\arm-none-eabi\include\c++\4.8.4\bits\allocator.h **** 
  43:d:\programy\gnu tools arm embedded\4.8 2014q2\arm-none-eabi\include\c++\4.8.4\bits\allocator.h **** #ifndef _ALLOCATOR_H
  44:d:\programy\gnu tools arm embedded\4.8 2014q2\arm-none-eabi\include\c++\4.8.4\bits\allocator.h **** #define _ALLOCATOR_H 1
  45:d:\programy\gnu tools arm embedded\4.8 2014q2\arm-none-eabi\include\c++\4.8.4\bits\allocator.h **** 
  46:d:\programy\gnu tools arm embedded\4.8 2014q2\arm-none-eabi\include\c++\4.8.4\bits\allocator.h **** #include <bits/c++allocator.h> // Define the base class to std::allocator.
  47:d:\programy\gnu tools arm embedded\4.8 2014q2\arm-none-eabi\include\c++\4.8.4\bits\allocator.h **** #include <bits/memoryfwd.h>
  48:d:\programy\gnu tools arm embedded\4.8 2014q2\arm-none-eabi\include\c++\4.8.4\bits\allocator.h **** #if __cplusplus >= 201103L
  49:d:\programy\gnu tools arm embedded\4.8 2014q2\arm-none-eabi\include\c++\4.8.4\bits\allocator.h **** #include <type_traits>
  50:d:\programy\gnu tools arm embedded\4.8 2014q2\arm-none-eabi\include\c++\4.8.4\bits\allocator.h **** #endif
  51:d:\programy\gnu tools arm embedded\4.8 2014q2\arm-none-eabi\include\c++\4.8.4\bits\allocator.h **** 
  52:d:\programy\gnu tools arm embedded\4.8 2014q2\arm-none-eabi\include\c++\4.8.4\bits\allocator.h **** namespace std _GLIBCXX_VISIBILITY(default)
  53:d:\programy\gnu tools arm embedded\4.8 2014q2\arm-none-eabi\include\c++\4.8.4\bits\allocator.h **** {
  54:d:\programy\gnu tools arm embedded\4.8 2014q2\arm-none-eabi\include\c++\4.8.4\bits\allocator.h **** _GLIBCXX_BEGIN_NAMESPACE_VERSION
  55:d:\programy\gnu tools arm embedded\4.8 2014q2\arm-none-eabi\include\c++\4.8.4\bits\allocator.h **** 
  56:d:\programy\gnu tools arm embedded\4.8 2014q2\arm-none-eabi\include\c++\4.8.4\bits\allocator.h ****   /**
  57:d:\programy\gnu tools arm embedded\4.8 2014q2\arm-none-eabi\include\c++\4.8.4\bits\allocator.h ****    *  @addtogroup allocators
  58:d:\programy\gnu tools arm embedded\4.8 2014q2\arm-none-eabi\include\c++\4.8.4\bits\allocator.h ****    *  @{
  59:d:\programy\gnu tools arm embedded\4.8 2014q2\arm-none-eabi\include\c++\4.8.4\bits\allocator.h ****    */
  60:d:\programy\gnu tools arm embedded\4.8 2014q2\arm-none-eabi\include\c++\4.8.4\bits\allocator.h **** 
  61:d:\programy\gnu tools arm embedded\4.8 2014q2\arm-none-eabi\include\c++\4.8.4\bits\allocator.h ****   /// allocator<void> specialization.
  62:d:\programy\gnu tools arm embedded\4.8 2014q2\arm-none-eabi\include\c++\4.8.4\bits\allocator.h ****   template<>
  63:d:\programy\gnu tools arm embedded\4.8 2014q2\arm-none-eabi\include\c++\4.8.4\bits\allocator.h ****     class allocator<void>
  64:d:\programy\gnu tools arm embedded\4.8 2014q2\arm-none-eabi\include\c++\4.8.4\bits\allocator.h ****     {
  65:d:\programy\gnu tools arm embedded\4.8 2014q2\arm-none-eabi\include\c++\4.8.4\bits\allocator.h ****     public:
  66:d:\programy\gnu tools arm embedded\4.8 2014q2\arm-none-eabi\include\c++\4.8.4\bits\allocator.h ****       typedef size_t      size_type;
  67:d:\programy\gnu tools arm embedded\4.8 2014q2\arm-none-eabi\include\c++\4.8.4\bits\allocator.h ****       typedef ptrdiff_t   difference_type;
  68:d:\programy\gnu tools arm embedded\4.8 2014q2\arm-none-eabi\include\c++\4.8.4\bits\allocator.h ****       typedef void*       pointer;
  69:d:\programy\gnu tools arm embedded\4.8 2014q2\arm-none-eabi\include\c++\4.8.4\bits\allocator.h ****       typedef const void* const_pointer;
  70:d:\programy\gnu tools arm embedded\4.8 2014q2\arm-none-eabi\include\c++\4.8.4\bits\allocator.h ****       typedef void        value_type;
  71:d:\programy\gnu tools arm embedded\4.8 2014q2\arm-none-eabi\include\c++\4.8.4\bits\allocator.h **** 
  72:d:\programy\gnu tools arm embedded\4.8 2014q2\arm-none-eabi\include\c++\4.8.4\bits\allocator.h ****       template<typename _Tp1>
ARM GAS  C:\Users\Adrian\AppData\Local\Temp\ccxGI9oe.s 			page 27


  73:d:\programy\gnu tools arm embedded\4.8 2014q2\arm-none-eabi\include\c++\4.8.4\bits\allocator.h ****         struct rebind
  74:d:\programy\gnu tools arm embedded\4.8 2014q2\arm-none-eabi\include\c++\4.8.4\bits\allocator.h ****         { typedef allocator<_Tp1> other; };
  75:d:\programy\gnu tools arm embedded\4.8 2014q2\arm-none-eabi\include\c++\4.8.4\bits\allocator.h **** 
  76:d:\programy\gnu tools arm embedded\4.8 2014q2\arm-none-eabi\include\c++\4.8.4\bits\allocator.h **** #if __cplusplus >= 201103L
  77:d:\programy\gnu tools arm embedded\4.8 2014q2\arm-none-eabi\include\c++\4.8.4\bits\allocator.h ****       // _GLIBCXX_RESOLVE_LIB_DEFECTS
  78:d:\programy\gnu tools arm embedded\4.8 2014q2\arm-none-eabi\include\c++\4.8.4\bits\allocator.h ****       // 2103. std::allocator propagate_on_container_move_assignment
  79:d:\programy\gnu tools arm embedded\4.8 2014q2\arm-none-eabi\include\c++\4.8.4\bits\allocator.h ****       typedef true_type propagate_on_container_move_assignment;
  80:d:\programy\gnu tools arm embedded\4.8 2014q2\arm-none-eabi\include\c++\4.8.4\bits\allocator.h **** #endif
  81:d:\programy\gnu tools arm embedded\4.8 2014q2\arm-none-eabi\include\c++\4.8.4\bits\allocator.h ****     };
  82:d:\programy\gnu tools arm embedded\4.8 2014q2\arm-none-eabi\include\c++\4.8.4\bits\allocator.h **** 
  83:d:\programy\gnu tools arm embedded\4.8 2014q2\arm-none-eabi\include\c++\4.8.4\bits\allocator.h ****   /**
  84:d:\programy\gnu tools arm embedded\4.8 2014q2\arm-none-eabi\include\c++\4.8.4\bits\allocator.h ****    * @brief  The @a standard allocator, as per [20.4].
  85:d:\programy\gnu tools arm embedded\4.8 2014q2\arm-none-eabi\include\c++\4.8.4\bits\allocator.h ****    *
  86:d:\programy\gnu tools arm embedded\4.8 2014q2\arm-none-eabi\include\c++\4.8.4\bits\allocator.h ****    *  See http://gcc.gnu.org/onlinedocs/libstdc++/manual/bk01pt04ch11.html
  87:d:\programy\gnu tools arm embedded\4.8 2014q2\arm-none-eabi\include\c++\4.8.4\bits\allocator.h ****    *  for further details.
  88:d:\programy\gnu tools arm embedded\4.8 2014q2\arm-none-eabi\include\c++\4.8.4\bits\allocator.h ****    *
  89:d:\programy\gnu tools arm embedded\4.8 2014q2\arm-none-eabi\include\c++\4.8.4\bits\allocator.h ****    *  @tparam  _Tp  Type of allocated object.
  90:d:\programy\gnu tools arm embedded\4.8 2014q2\arm-none-eabi\include\c++\4.8.4\bits\allocator.h ****    */
  91:d:\programy\gnu tools arm embedded\4.8 2014q2\arm-none-eabi\include\c++\4.8.4\bits\allocator.h ****   template<typename _Tp>
  92:d:\programy\gnu tools arm embedded\4.8 2014q2\arm-none-eabi\include\c++\4.8.4\bits\allocator.h ****     class allocator: public __allocator_base<_Tp>
  93:d:\programy\gnu tools arm embedded\4.8 2014q2\arm-none-eabi\include\c++\4.8.4\bits\allocator.h ****     {
  94:d:\programy\gnu tools arm embedded\4.8 2014q2\arm-none-eabi\include\c++\4.8.4\bits\allocator.h ****    public:
  95:d:\programy\gnu tools arm embedded\4.8 2014q2\arm-none-eabi\include\c++\4.8.4\bits\allocator.h ****       typedef size_t     size_type;
  96:d:\programy\gnu tools arm embedded\4.8 2014q2\arm-none-eabi\include\c++\4.8.4\bits\allocator.h ****       typedef ptrdiff_t  difference_type;
  97:d:\programy\gnu tools arm embedded\4.8 2014q2\arm-none-eabi\include\c++\4.8.4\bits\allocator.h ****       typedef _Tp*       pointer;
  98:d:\programy\gnu tools arm embedded\4.8 2014q2\arm-none-eabi\include\c++\4.8.4\bits\allocator.h ****       typedef const _Tp* const_pointer;
  99:d:\programy\gnu tools arm embedded\4.8 2014q2\arm-none-eabi\include\c++\4.8.4\bits\allocator.h ****       typedef _Tp&       reference;
 100:d:\programy\gnu tools arm embedded\4.8 2014q2\arm-none-eabi\include\c++\4.8.4\bits\allocator.h ****       typedef const _Tp& const_reference;
 101:d:\programy\gnu tools arm embedded\4.8 2014q2\arm-none-eabi\include\c++\4.8.4\bits\allocator.h ****       typedef _Tp        value_type;
 102:d:\programy\gnu tools arm embedded\4.8 2014q2\arm-none-eabi\include\c++\4.8.4\bits\allocator.h **** 
 103:d:\programy\gnu tools arm embedded\4.8 2014q2\arm-none-eabi\include\c++\4.8.4\bits\allocator.h ****       template<typename _Tp1>
 104:d:\programy\gnu tools arm embedded\4.8 2014q2\arm-none-eabi\include\c++\4.8.4\bits\allocator.h ****         struct rebind
 105:d:\programy\gnu tools arm embedded\4.8 2014q2\arm-none-eabi\include\c++\4.8.4\bits\allocator.h ****         { typedef allocator<_Tp1> other; };
 106:d:\programy\gnu tools arm embedded\4.8 2014q2\arm-none-eabi\include\c++\4.8.4\bits\allocator.h **** 
 107:d:\programy\gnu tools arm embedded\4.8 2014q2\arm-none-eabi\include\c++\4.8.4\bits\allocator.h **** #if __cplusplus >= 201103L
 108:d:\programy\gnu tools arm embedded\4.8 2014q2\arm-none-eabi\include\c++\4.8.4\bits\allocator.h ****       // _GLIBCXX_RESOLVE_LIB_DEFECTS
 109:d:\programy\gnu tools arm embedded\4.8 2014q2\arm-none-eabi\include\c++\4.8.4\bits\allocator.h ****       // 2103. std::allocator propagate_on_container_move_assignment
 110:d:\programy\gnu tools arm embedded\4.8 2014q2\arm-none-eabi\include\c++\4.8.4\bits\allocator.h ****       typedef true_type propagate_on_container_move_assignment;
 111:d:\programy\gnu tools arm embedded\4.8 2014q2\arm-none-eabi\include\c++\4.8.4\bits\allocator.h **** #endif
 112:d:\programy\gnu tools arm embedded\4.8 2014q2\arm-none-eabi\include\c++\4.8.4\bits\allocator.h **** 
 113:d:\programy\gnu tools arm embedded\4.8 2014q2\arm-none-eabi\include\c++\4.8.4\bits\allocator.h ****       allocator() throw() { }
 643              		.loc 4 113 0
 644              		.cfi_startproc
 645              		@ args = 0, pretend = 0, frame = 8
 646              		@ frame_needed = 1, uses_anonymous_args = 0
 647 0000 80B5     		push	{r7, lr}	@
 648              		.cfi_def_cfa_offset 8
 649              		.cfi_offset 7, -8
 650              		.cfi_offset 14, -4
 651 0002 82B0     		sub	sp, sp, #8	@,,
 652              		.cfi_def_cfa_offset 16
 653 0004 00AF     		add	r7, sp, #0	@,,
 654              		.cfi_def_cfa_register 7
 655 0006 7860     		str	r0, [r7, #4]	@ this, this
 656              	.LBB14:
 657              		.loc 4 113 0
 658 0008 7868     		ldr	r0, [r7, #4]	@, this
ARM GAS  C:\Users\Adrian\AppData\Local\Temp\ccxGI9oe.s 			page 28


 659 000a FFF7FEFF 		bl	_ZN9__gnu_cxx13new_allocatorIPK17CommandDefinitionEC2Ev	@
 660              	.LBE14:
 661 000e 7B68     		ldr	r3, [r7, #4]	@ D.15930, this
 662 0010 1846     		mov	r0, r3	@, <retval>
 663 0012 0837     		adds	r7, r7, #8	@,,
 664 0014 BD46     		mov	sp, r7	@,
 665              		@ sp needed	@
 666 0016 80BD     		pop	{r7, pc}	@
 667              		.cfi_endproc
 668              	.LFE493:
 669              		.size	_ZNSaIPK17CommandDefinitionEC2Ev, .-_ZNSaIPK17CommandDefinitionEC2Ev
 670              		.weak	_ZNSaIPK17CommandDefinitionEC1Ev
 671              		.thumb_set _ZNSaIPK17CommandDefinitionEC1Ev,_ZNSaIPK17CommandDefinitionEC2Ev
 672              		.section	.text._ZNSaIPK17CommandDefinitionED2Ev,"axG",%progbits,_ZNSaIPK17CommandDefinitionED5Ev,c
 673              		.align	2
 674              		.weak	_ZNSaIPK17CommandDefinitionED2Ev
 675              		.thumb
 676              		.thumb_func
 677              		.type	_ZNSaIPK17CommandDefinitionED2Ev, %function
 678              	_ZNSaIPK17CommandDefinitionED2Ev:
 679              	.LFB496:
 114:d:\programy\gnu tools arm embedded\4.8 2014q2\arm-none-eabi\include\c++\4.8.4\bits\allocator.h **** 
 115:d:\programy\gnu tools arm embedded\4.8 2014q2\arm-none-eabi\include\c++\4.8.4\bits\allocator.h ****       allocator(const allocator& __a) throw()
 116:d:\programy\gnu tools arm embedded\4.8 2014q2\arm-none-eabi\include\c++\4.8.4\bits\allocator.h ****       : __allocator_base<_Tp>(__a) { }
 117:d:\programy\gnu tools arm embedded\4.8 2014q2\arm-none-eabi\include\c++\4.8.4\bits\allocator.h **** 
 118:d:\programy\gnu tools arm embedded\4.8 2014q2\arm-none-eabi\include\c++\4.8.4\bits\allocator.h ****       template<typename _Tp1>
 119:d:\programy\gnu tools arm embedded\4.8 2014q2\arm-none-eabi\include\c++\4.8.4\bits\allocator.h ****         allocator(const allocator<_Tp1>&) throw() { }
 120:d:\programy\gnu tools arm embedded\4.8 2014q2\arm-none-eabi\include\c++\4.8.4\bits\allocator.h **** 
 121:d:\programy\gnu tools arm embedded\4.8 2014q2\arm-none-eabi\include\c++\4.8.4\bits\allocator.h ****       ~allocator() throw() { }
 680              		.loc 4 121 0
 681              		.cfi_startproc
 682              		@ args = 0, pretend = 0, frame = 8
 683              		@ frame_needed = 1, uses_anonymous_args = 0
 684 0000 80B5     		push	{r7, lr}	@
 685              		.cfi_def_cfa_offset 8
 686              		.cfi_offset 7, -8
 687              		.cfi_offset 14, -4
 688 0002 82B0     		sub	sp, sp, #8	@,,
 689              		.cfi_def_cfa_offset 16
 690 0004 00AF     		add	r7, sp, #0	@,,
 691              		.cfi_def_cfa_register 7
 692 0006 7860     		str	r0, [r7, #4]	@ this, this
 693              	.LBB15:
 694              		.loc 4 121 0
 695 0008 7868     		ldr	r0, [r7, #4]	@, this
 696 000a FFF7FEFF 		bl	_ZN9__gnu_cxx13new_allocatorIPK17CommandDefinitionED2Ev	@
 697              	.LBE15:
 698 000e 7B68     		ldr	r3, [r7, #4]	@ D.15931, this
 699 0010 1846     		mov	r0, r3	@, <retval>
 700 0012 0837     		adds	r7, r7, #8	@,,
 701 0014 BD46     		mov	sp, r7	@,
 702              		@ sp needed	@
 703 0016 80BD     		pop	{r7, pc}	@
 704              		.cfi_endproc
 705              	.LFE496:
 706              		.size	_ZNSaIPK17CommandDefinitionED2Ev, .-_ZNSaIPK17CommandDefinitionED2Ev
 707              		.weak	_ZNSaIPK17CommandDefinitionED1Ev
ARM GAS  C:\Users\Adrian\AppData\Local\Temp\ccxGI9oe.s 			page 29


 708              		.thumb_set _ZNSaIPK17CommandDefinitionED1Ev,_ZNSaIPK17CommandDefinitionED2Ev
 709              		.section	.text._ZNKSt16initializer_listIPK17CommandDefinitionE5beginEv,"axG",%progbits,_ZNKSt16ini
 710              		.align	2
 711              		.weak	_ZNKSt16initializer_listIPK17CommandDefinitionE5beginEv
 712              		.thumb
 713              		.thumb_func
 714              		.type	_ZNKSt16initializer_listIPK17CommandDefinitionE5beginEv, %function
 715              	_ZNKSt16initializer_listIPK17CommandDefinitionE5beginEv:
 716              	.LFB499:
 717              		.file 5 "d:\\programy\\gnu tools arm embedded\\4.8 2014q2\\arm-none-eabi\\include\\c++\\4.8.4\\ini
   1:d:\programy\gnu tools arm embedded\4.8 2014q2\arm-none-eabi\include\c++\4.8.4\initializer_list **** // std::initializer_list support -*- C++ -*-
   2:d:\programy\gnu tools arm embedded\4.8 2014q2\arm-none-eabi\include\c++\4.8.4\initializer_list **** 
   3:d:\programy\gnu tools arm embedded\4.8 2014q2\arm-none-eabi\include\c++\4.8.4\initializer_list **** // Copyright (C) 2008-2013 Free Software Foundation, Inc.
   4:d:\programy\gnu tools arm embedded\4.8 2014q2\arm-none-eabi\include\c++\4.8.4\initializer_list **** //
   5:d:\programy\gnu tools arm embedded\4.8 2014q2\arm-none-eabi\include\c++\4.8.4\initializer_list **** // This file is part of GCC.
   6:d:\programy\gnu tools arm embedded\4.8 2014q2\arm-none-eabi\include\c++\4.8.4\initializer_list **** //
   7:d:\programy\gnu tools arm embedded\4.8 2014q2\arm-none-eabi\include\c++\4.8.4\initializer_list **** // GCC is free software; you can redistribute it and/or modify
   8:d:\programy\gnu tools arm embedded\4.8 2014q2\arm-none-eabi\include\c++\4.8.4\initializer_list **** // it under the terms of the GNU General Public License as published by
   9:d:\programy\gnu tools arm embedded\4.8 2014q2\arm-none-eabi\include\c++\4.8.4\initializer_list **** // the Free Software Foundation; either version 3, or (at your option)
  10:d:\programy\gnu tools arm embedded\4.8 2014q2\arm-none-eabi\include\c++\4.8.4\initializer_list **** // any later version.
  11:d:\programy\gnu tools arm embedded\4.8 2014q2\arm-none-eabi\include\c++\4.8.4\initializer_list **** //
  12:d:\programy\gnu tools arm embedded\4.8 2014q2\arm-none-eabi\include\c++\4.8.4\initializer_list **** // GCC is distributed in the hope that it will be useful,
  13:d:\programy\gnu tools arm embedded\4.8 2014q2\arm-none-eabi\include\c++\4.8.4\initializer_list **** // but WITHOUT ANY WARRANTY; without even the implied warranty of
  14:d:\programy\gnu tools arm embedded\4.8 2014q2\arm-none-eabi\include\c++\4.8.4\initializer_list **** // MERCHANTABILITY or FITNESS FOR A PARTICULAR PURPOSE.  See the
  15:d:\programy\gnu tools arm embedded\4.8 2014q2\arm-none-eabi\include\c++\4.8.4\initializer_list **** // GNU General Public License for more details.
  16:d:\programy\gnu tools arm embedded\4.8 2014q2\arm-none-eabi\include\c++\4.8.4\initializer_list **** //
  17:d:\programy\gnu tools arm embedded\4.8 2014q2\arm-none-eabi\include\c++\4.8.4\initializer_list **** // Under Section 7 of GPL version 3, you are granted additional
  18:d:\programy\gnu tools arm embedded\4.8 2014q2\arm-none-eabi\include\c++\4.8.4\initializer_list **** // permissions described in the GCC Runtime Library Exception, version
  19:d:\programy\gnu tools arm embedded\4.8 2014q2\arm-none-eabi\include\c++\4.8.4\initializer_list **** // 3.1, as published by the Free Software Foundation.
  20:d:\programy\gnu tools arm embedded\4.8 2014q2\arm-none-eabi\include\c++\4.8.4\initializer_list **** 
  21:d:\programy\gnu tools arm embedded\4.8 2014q2\arm-none-eabi\include\c++\4.8.4\initializer_list **** // You should have received a copy of the GNU General Public License and
  22:d:\programy\gnu tools arm embedded\4.8 2014q2\arm-none-eabi\include\c++\4.8.4\initializer_list **** // a copy of the GCC Runtime Library Exception along with this program;
  23:d:\programy\gnu tools arm embedded\4.8 2014q2\arm-none-eabi\include\c++\4.8.4\initializer_list **** // see the files COPYING3 and COPYING.RUNTIME respectively.  If not, see
  24:d:\programy\gnu tools arm embedded\4.8 2014q2\arm-none-eabi\include\c++\4.8.4\initializer_list **** // <http://www.gnu.org/licenses/>.
  25:d:\programy\gnu tools arm embedded\4.8 2014q2\arm-none-eabi\include\c++\4.8.4\initializer_list **** 
  26:d:\programy\gnu tools arm embedded\4.8 2014q2\arm-none-eabi\include\c++\4.8.4\initializer_list **** /** @file initializer_list
  27:d:\programy\gnu tools arm embedded\4.8 2014q2\arm-none-eabi\include\c++\4.8.4\initializer_list ****  *  This is a Standard C++ Library header.
  28:d:\programy\gnu tools arm embedded\4.8 2014q2\arm-none-eabi\include\c++\4.8.4\initializer_list ****  */
  29:d:\programy\gnu tools arm embedded\4.8 2014q2\arm-none-eabi\include\c++\4.8.4\initializer_list **** 
  30:d:\programy\gnu tools arm embedded\4.8 2014q2\arm-none-eabi\include\c++\4.8.4\initializer_list **** #ifndef _INITIALIZER_LIST
  31:d:\programy\gnu tools arm embedded\4.8 2014q2\arm-none-eabi\include\c++\4.8.4\initializer_list **** #define _INITIALIZER_LIST
  32:d:\programy\gnu tools arm embedded\4.8 2014q2\arm-none-eabi\include\c++\4.8.4\initializer_list **** 
  33:d:\programy\gnu tools arm embedded\4.8 2014q2\arm-none-eabi\include\c++\4.8.4\initializer_list **** #pragma GCC system_header
  34:d:\programy\gnu tools arm embedded\4.8 2014q2\arm-none-eabi\include\c++\4.8.4\initializer_list **** 
  35:d:\programy\gnu tools arm embedded\4.8 2014q2\arm-none-eabi\include\c++\4.8.4\initializer_list **** #if __cplusplus < 201103L
  36:d:\programy\gnu tools arm embedded\4.8 2014q2\arm-none-eabi\include\c++\4.8.4\initializer_list **** # include <bits/c++0x_warning.h>
  37:d:\programy\gnu tools arm embedded\4.8 2014q2\arm-none-eabi\include\c++\4.8.4\initializer_list **** #else // C++0x
  38:d:\programy\gnu tools arm embedded\4.8 2014q2\arm-none-eabi\include\c++\4.8.4\initializer_list **** 
  39:d:\programy\gnu tools arm embedded\4.8 2014q2\arm-none-eabi\include\c++\4.8.4\initializer_list **** #pragma GCC visibility push(default)
  40:d:\programy\gnu tools arm embedded\4.8 2014q2\arm-none-eabi\include\c++\4.8.4\initializer_list **** 
  41:d:\programy\gnu tools arm embedded\4.8 2014q2\arm-none-eabi\include\c++\4.8.4\initializer_list **** #include <bits/c++config.h>
  42:d:\programy\gnu tools arm embedded\4.8 2014q2\arm-none-eabi\include\c++\4.8.4\initializer_list **** 
  43:d:\programy\gnu tools arm embedded\4.8 2014q2\arm-none-eabi\include\c++\4.8.4\initializer_list **** namespace std
  44:d:\programy\gnu tools arm embedded\4.8 2014q2\arm-none-eabi\include\c++\4.8.4\initializer_list **** {
  45:d:\programy\gnu tools arm embedded\4.8 2014q2\arm-none-eabi\include\c++\4.8.4\initializer_list ****   /// initializer_list
  46:d:\programy\gnu tools arm embedded\4.8 2014q2\arm-none-eabi\include\c++\4.8.4\initializer_list ****   template<class _E>
  47:d:\programy\gnu tools arm embedded\4.8 2014q2\arm-none-eabi\include\c++\4.8.4\initializer_list ****     class initializer_list
ARM GAS  C:\Users\Adrian\AppData\Local\Temp\ccxGI9oe.s 			page 30


  48:d:\programy\gnu tools arm embedded\4.8 2014q2\arm-none-eabi\include\c++\4.8.4\initializer_list ****     {
  49:d:\programy\gnu tools arm embedded\4.8 2014q2\arm-none-eabi\include\c++\4.8.4\initializer_list ****     public:
  50:d:\programy\gnu tools arm embedded\4.8 2014q2\arm-none-eabi\include\c++\4.8.4\initializer_list ****       typedef _E 		value_type;
  51:d:\programy\gnu tools arm embedded\4.8 2014q2\arm-none-eabi\include\c++\4.8.4\initializer_list ****       typedef const _E& 	reference;
  52:d:\programy\gnu tools arm embedded\4.8 2014q2\arm-none-eabi\include\c++\4.8.4\initializer_list ****       typedef const _E& 	const_reference;
  53:d:\programy\gnu tools arm embedded\4.8 2014q2\arm-none-eabi\include\c++\4.8.4\initializer_list ****       typedef size_t 		size_type;
  54:d:\programy\gnu tools arm embedded\4.8 2014q2\arm-none-eabi\include\c++\4.8.4\initializer_list ****       typedef const _E* 	iterator;
  55:d:\programy\gnu tools arm embedded\4.8 2014q2\arm-none-eabi\include\c++\4.8.4\initializer_list ****       typedef const _E* 	const_iterator;
  56:d:\programy\gnu tools arm embedded\4.8 2014q2\arm-none-eabi\include\c++\4.8.4\initializer_list **** 
  57:d:\programy\gnu tools arm embedded\4.8 2014q2\arm-none-eabi\include\c++\4.8.4\initializer_list ****     private:
  58:d:\programy\gnu tools arm embedded\4.8 2014q2\arm-none-eabi\include\c++\4.8.4\initializer_list ****       iterator			_M_array;
  59:d:\programy\gnu tools arm embedded\4.8 2014q2\arm-none-eabi\include\c++\4.8.4\initializer_list ****       size_type			_M_len;
  60:d:\programy\gnu tools arm embedded\4.8 2014q2\arm-none-eabi\include\c++\4.8.4\initializer_list **** 
  61:d:\programy\gnu tools arm embedded\4.8 2014q2\arm-none-eabi\include\c++\4.8.4\initializer_list ****       // The compiler can call a private constructor.
  62:d:\programy\gnu tools arm embedded\4.8 2014q2\arm-none-eabi\include\c++\4.8.4\initializer_list ****       constexpr initializer_list(const_iterator __a, size_type __l)
  63:d:\programy\gnu tools arm embedded\4.8 2014q2\arm-none-eabi\include\c++\4.8.4\initializer_list ****       : _M_array(__a), _M_len(__l) { }
  64:d:\programy\gnu tools arm embedded\4.8 2014q2\arm-none-eabi\include\c++\4.8.4\initializer_list **** 
  65:d:\programy\gnu tools arm embedded\4.8 2014q2\arm-none-eabi\include\c++\4.8.4\initializer_list ****     public:
  66:d:\programy\gnu tools arm embedded\4.8 2014q2\arm-none-eabi\include\c++\4.8.4\initializer_list ****       constexpr initializer_list() noexcept
  67:d:\programy\gnu tools arm embedded\4.8 2014q2\arm-none-eabi\include\c++\4.8.4\initializer_list ****       : _M_array(0), _M_len(0) { }
  68:d:\programy\gnu tools arm embedded\4.8 2014q2\arm-none-eabi\include\c++\4.8.4\initializer_list **** 
  69:d:\programy\gnu tools arm embedded\4.8 2014q2\arm-none-eabi\include\c++\4.8.4\initializer_list ****       // Number of elements.
  70:d:\programy\gnu tools arm embedded\4.8 2014q2\arm-none-eabi\include\c++\4.8.4\initializer_list ****       constexpr size_type
  71:d:\programy\gnu tools arm embedded\4.8 2014q2\arm-none-eabi\include\c++\4.8.4\initializer_list ****       size() const noexcept { return _M_len; }
  72:d:\programy\gnu tools arm embedded\4.8 2014q2\arm-none-eabi\include\c++\4.8.4\initializer_list **** 
  73:d:\programy\gnu tools arm embedded\4.8 2014q2\arm-none-eabi\include\c++\4.8.4\initializer_list ****       // First element.
  74:d:\programy\gnu tools arm embedded\4.8 2014q2\arm-none-eabi\include\c++\4.8.4\initializer_list ****       constexpr const_iterator
  75:d:\programy\gnu tools arm embedded\4.8 2014q2\arm-none-eabi\include\c++\4.8.4\initializer_list ****       begin() const noexcept { return _M_array; }
 718              		.loc 5 75 0
 719              		.cfi_startproc
 720              		@ args = 0, pretend = 0, frame = 8
 721              		@ frame_needed = 1, uses_anonymous_args = 0
 722              		@ link register save eliminated.
 723 0000 80B4     		push	{r7}	@
 724              		.cfi_def_cfa_offset 4
 725              		.cfi_offset 7, -4
 726 0002 83B0     		sub	sp, sp, #12	@,,
 727              		.cfi_def_cfa_offset 16
 728 0004 00AF     		add	r7, sp, #0	@,,
 729              		.cfi_def_cfa_register 7
 730 0006 7860     		str	r0, [r7, #4]	@ this, this
 731              		.loc 5 75 0
 732 0008 7B68     		ldr	r3, [r7, #4]	@ tmp112, this
 733 000a 1B68     		ldr	r3, [r3]	@ D.15932, this_1(D)->_M_array
 734 000c 1846     		mov	r0, r3	@, <retval>
 735 000e 0C37     		adds	r7, r7, #12	@,,
 736 0010 BD46     		mov	sp, r7	@,
 737              		@ sp needed	@
 738 0012 5DF8047B 		ldr	r7, [sp], #4	@,
 739 0016 7047     		bx	lr	@
 740              		.cfi_endproc
 741              	.LFE499:
 742              		.size	_ZNKSt16initializer_listIPK17CommandDefinitionE5beginEv, .-_ZNKSt16initializer_listIPK17Comm
 743              		.section	.text._ZNKSt16initializer_listIPK17CommandDefinitionE4sizeEv,"axG",%progbits,_ZNKSt16init
 744              		.align	2
 745              		.weak	_ZNKSt16initializer_listIPK17CommandDefinitionE4sizeEv
 746              		.thumb
ARM GAS  C:\Users\Adrian\AppData\Local\Temp\ccxGI9oe.s 			page 31


 747              		.thumb_func
 748              		.type	_ZNKSt16initializer_listIPK17CommandDefinitionE4sizeEv, %function
 749              	_ZNKSt16initializer_listIPK17CommandDefinitionE4sizeEv:
 750              	.LFB501:
  71:d:\programy\gnu tools arm embedded\4.8 2014q2\arm-none-eabi\include\c++\4.8.4\initializer_list ****       size() const noexcept { return _M_len; }
 751              		.loc 5 71 0
 752              		.cfi_startproc
 753              		@ args = 0, pretend = 0, frame = 8
 754              		@ frame_needed = 1, uses_anonymous_args = 0
 755              		@ link register save eliminated.
 756 0000 80B4     		push	{r7}	@
 757              		.cfi_def_cfa_offset 4
 758              		.cfi_offset 7, -4
 759 0002 83B0     		sub	sp, sp, #12	@,,
 760              		.cfi_def_cfa_offset 16
 761 0004 00AF     		add	r7, sp, #0	@,,
 762              		.cfi_def_cfa_register 7
 763 0006 7860     		str	r0, [r7, #4]	@ this, this
  71:d:\programy\gnu tools arm embedded\4.8 2014q2\arm-none-eabi\include\c++\4.8.4\initializer_list ****       size() const noexcept { return _M_len; }
 764              		.loc 5 71 0
 765 0008 7B68     		ldr	r3, [r7, #4]	@ tmp112, this
 766 000a 5B68     		ldr	r3, [r3, #4]	@ D.15933, this_1(D)->_M_len
 767 000c 1846     		mov	r0, r3	@, <retval>
 768 000e 0C37     		adds	r7, r7, #12	@,,
 769 0010 BD46     		mov	sp, r7	@,
 770              		@ sp needed	@
 771 0012 5DF8047B 		ldr	r7, [sp], #4	@,
 772 0016 7047     		bx	lr	@
 773              		.cfi_endproc
 774              	.LFE501:
 775              		.size	_ZNKSt16initializer_listIPK17CommandDefinitionE4sizeEv, .-_ZNKSt16initializer_listIPK17Comma
 776              		.section	.text._ZNKSt16initializer_listIPK17CommandDefinitionE3endEv,"axG",%progbits,_ZNKSt16initi
 777              		.align	2
 778              		.weak	_ZNKSt16initializer_listIPK17CommandDefinitionE3endEv
 779              		.thumb
 780              		.thumb_func
 781              		.type	_ZNKSt16initializer_listIPK17CommandDefinitionE3endEv, %function
 782              	_ZNKSt16initializer_listIPK17CommandDefinitionE3endEv:
 783              	.LFB500:
  76:d:\programy\gnu tools arm embedded\4.8 2014q2\arm-none-eabi\include\c++\4.8.4\initializer_list **** 
  77:d:\programy\gnu tools arm embedded\4.8 2014q2\arm-none-eabi\include\c++\4.8.4\initializer_list ****       // One past the last element.
  78:d:\programy\gnu tools arm embedded\4.8 2014q2\arm-none-eabi\include\c++\4.8.4\initializer_list ****       constexpr const_iterator
  79:d:\programy\gnu tools arm embedded\4.8 2014q2\arm-none-eabi\include\c++\4.8.4\initializer_list ****       end() const noexcept { return begin() + size(); }
 784              		.loc 5 79 0
 785              		.cfi_startproc
 786              		@ args = 0, pretend = 0, frame = 8
 787              		@ frame_needed = 1, uses_anonymous_args = 0
 788 0000 90B5     		push	{r4, r7, lr}	@
 789              		.cfi_def_cfa_offset 12
 790              		.cfi_offset 4, -12
 791              		.cfi_offset 7, -8
 792              		.cfi_offset 14, -4
 793 0002 83B0     		sub	sp, sp, #12	@,,
 794              		.cfi_def_cfa_offset 24
 795 0004 00AF     		add	r7, sp, #0	@,,
 796              		.cfi_def_cfa_register 7
 797 0006 7860     		str	r0, [r7, #4]	@ this, this
ARM GAS  C:\Users\Adrian\AppData\Local\Temp\ccxGI9oe.s 			page 32


 798              		.loc 5 79 0
 799 0008 7868     		ldr	r0, [r7, #4]	@, this
 800 000a FFF7FEFF 		bl	_ZNKSt16initializer_listIPK17CommandDefinitionE5beginEv	@
 801 000e 0446     		mov	r4, r0	@ D.15934,
 802 0010 7868     		ldr	r0, [r7, #4]	@, this
 803 0012 FFF7FEFF 		bl	_ZNKSt16initializer_listIPK17CommandDefinitionE4sizeEv	@
 804 0016 0346     		mov	r3, r0	@ D.15935,
 805 0018 9B00     		lsls	r3, r3, #2	@ D.15935, D.15935,
 806 001a 2344     		add	r3, r3, r4	@ D.15936, D.15934
 807 001c 1846     		mov	r0, r3	@, <retval>
 808 001e 0C37     		adds	r7, r7, #12	@,,
 809 0020 BD46     		mov	sp, r7	@,
 810              		@ sp needed	@
 811 0022 90BD     		pop	{r4, r7, pc}	@
 812              		.cfi_endproc
 813              	.LFE500:
 814              		.size	_ZNKSt16initializer_listIPK17CommandDefinitionE3endEv, .-_ZNKSt16initializer_listIPK17Comman
 815              		.section	.text._ZNSt4listIPK17CommandDefinitionSaIS2_EEC2ESt16initializer_listIS2_ERKS3_,"axG",%pr
 816              		.align	2
 817              		.weak	_ZNSt4listIPK17CommandDefinitionSaIS2_EEC2ESt16initializer_listIS2_ERKS3_
 818              		.thumb
 819              		.thumb_func
 820              		.type	_ZNSt4listIPK17CommandDefinitionSaIS2_EEC2ESt16initializer_listIS2_ERKS3_, %function
 821              	_ZNSt4listIPK17CommandDefinitionSaIS2_EEC2ESt16initializer_listIS2_ERKS3_:
 822              	.LFB502:
 439:d:\programy\gnu tools arm embedded\4.8 2014q2\arm-none-eabi\include\c++\4.8.4\bits\stl_list.h ****     {
 440:d:\programy\gnu tools arm embedded\4.8 2014q2\arm-none-eabi\include\c++\4.8.4\bits\stl_list.h ****       // concept requirements
 441:d:\programy\gnu tools arm embedded\4.8 2014q2\arm-none-eabi\include\c++\4.8.4\bits\stl_list.h ****       typedef typename _Alloc::value_type                _Alloc_value_type;
 442:d:\programy\gnu tools arm embedded\4.8 2014q2\arm-none-eabi\include\c++\4.8.4\bits\stl_list.h ****       __glibcxx_class_requires(_Tp, _SGIAssignableConcept)
 443:d:\programy\gnu tools arm embedded\4.8 2014q2\arm-none-eabi\include\c++\4.8.4\bits\stl_list.h ****       __glibcxx_class_requires2(_Tp, _Alloc_value_type, _SameTypeConcept)
 444:d:\programy\gnu tools arm embedded\4.8 2014q2\arm-none-eabi\include\c++\4.8.4\bits\stl_list.h **** 
 445:d:\programy\gnu tools arm embedded\4.8 2014q2\arm-none-eabi\include\c++\4.8.4\bits\stl_list.h ****       typedef _List_base<_Tp, _Alloc>                    _Base;
 446:d:\programy\gnu tools arm embedded\4.8 2014q2\arm-none-eabi\include\c++\4.8.4\bits\stl_list.h ****       typedef typename _Base::_Tp_alloc_type		 _Tp_alloc_type;
 447:d:\programy\gnu tools arm embedded\4.8 2014q2\arm-none-eabi\include\c++\4.8.4\bits\stl_list.h ****       typedef typename _Base::_Node_alloc_type		 _Node_alloc_type;
 448:d:\programy\gnu tools arm embedded\4.8 2014q2\arm-none-eabi\include\c++\4.8.4\bits\stl_list.h **** 
 449:d:\programy\gnu tools arm embedded\4.8 2014q2\arm-none-eabi\include\c++\4.8.4\bits\stl_list.h ****     public:
 450:d:\programy\gnu tools arm embedded\4.8 2014q2\arm-none-eabi\include\c++\4.8.4\bits\stl_list.h ****       typedef _Tp                                        value_type;
 451:d:\programy\gnu tools arm embedded\4.8 2014q2\arm-none-eabi\include\c++\4.8.4\bits\stl_list.h ****       typedef typename _Tp_alloc_type::pointer           pointer;
 452:d:\programy\gnu tools arm embedded\4.8 2014q2\arm-none-eabi\include\c++\4.8.4\bits\stl_list.h ****       typedef typename _Tp_alloc_type::const_pointer     const_pointer;
 453:d:\programy\gnu tools arm embedded\4.8 2014q2\arm-none-eabi\include\c++\4.8.4\bits\stl_list.h ****       typedef typename _Tp_alloc_type::reference         reference;
 454:d:\programy\gnu tools arm embedded\4.8 2014q2\arm-none-eabi\include\c++\4.8.4\bits\stl_list.h ****       typedef typename _Tp_alloc_type::const_reference   const_reference;
 455:d:\programy\gnu tools arm embedded\4.8 2014q2\arm-none-eabi\include\c++\4.8.4\bits\stl_list.h ****       typedef _List_iterator<_Tp>                        iterator;
 456:d:\programy\gnu tools arm embedded\4.8 2014q2\arm-none-eabi\include\c++\4.8.4\bits\stl_list.h ****       typedef _List_const_iterator<_Tp>                  const_iterator;
 457:d:\programy\gnu tools arm embedded\4.8 2014q2\arm-none-eabi\include\c++\4.8.4\bits\stl_list.h ****       typedef std::reverse_iterator<const_iterator>      const_reverse_iterator;
 458:d:\programy\gnu tools arm embedded\4.8 2014q2\arm-none-eabi\include\c++\4.8.4\bits\stl_list.h ****       typedef std::reverse_iterator<iterator>            reverse_iterator;
 459:d:\programy\gnu tools arm embedded\4.8 2014q2\arm-none-eabi\include\c++\4.8.4\bits\stl_list.h ****       typedef size_t                                     size_type;
 460:d:\programy\gnu tools arm embedded\4.8 2014q2\arm-none-eabi\include\c++\4.8.4\bits\stl_list.h ****       typedef ptrdiff_t                                  difference_type;
 461:d:\programy\gnu tools arm embedded\4.8 2014q2\arm-none-eabi\include\c++\4.8.4\bits\stl_list.h ****       typedef _Alloc                                     allocator_type;
 462:d:\programy\gnu tools arm embedded\4.8 2014q2\arm-none-eabi\include\c++\4.8.4\bits\stl_list.h **** 
 463:d:\programy\gnu tools arm embedded\4.8 2014q2\arm-none-eabi\include\c++\4.8.4\bits\stl_list.h ****     protected:
 464:d:\programy\gnu tools arm embedded\4.8 2014q2\arm-none-eabi\include\c++\4.8.4\bits\stl_list.h ****       // Note that pointers-to-_Node's can be ctor-converted to
 465:d:\programy\gnu tools arm embedded\4.8 2014q2\arm-none-eabi\include\c++\4.8.4\bits\stl_list.h ****       // iterator types.
 466:d:\programy\gnu tools arm embedded\4.8 2014q2\arm-none-eabi\include\c++\4.8.4\bits\stl_list.h ****       typedef _List_node<_Tp>				 _Node;
 467:d:\programy\gnu tools arm embedded\4.8 2014q2\arm-none-eabi\include\c++\4.8.4\bits\stl_list.h **** 
 468:d:\programy\gnu tools arm embedded\4.8 2014q2\arm-none-eabi\include\c++\4.8.4\bits\stl_list.h ****       using _Base::_M_impl;
 469:d:\programy\gnu tools arm embedded\4.8 2014q2\arm-none-eabi\include\c++\4.8.4\bits\stl_list.h ****       using _Base::_M_put_node;
 470:d:\programy\gnu tools arm embedded\4.8 2014q2\arm-none-eabi\include\c++\4.8.4\bits\stl_list.h ****       using _Base::_M_get_node;
ARM GAS  C:\Users\Adrian\AppData\Local\Temp\ccxGI9oe.s 			page 33


 471:d:\programy\gnu tools arm embedded\4.8 2014q2\arm-none-eabi\include\c++\4.8.4\bits\stl_list.h ****       using _Base::_M_get_Tp_allocator;
 472:d:\programy\gnu tools arm embedded\4.8 2014q2\arm-none-eabi\include\c++\4.8.4\bits\stl_list.h ****       using _Base::_M_get_Node_allocator;
 473:d:\programy\gnu tools arm embedded\4.8 2014q2\arm-none-eabi\include\c++\4.8.4\bits\stl_list.h **** 
 474:d:\programy\gnu tools arm embedded\4.8 2014q2\arm-none-eabi\include\c++\4.8.4\bits\stl_list.h ****       /**
 475:d:\programy\gnu tools arm embedded\4.8 2014q2\arm-none-eabi\include\c++\4.8.4\bits\stl_list.h ****        *  @param  __args  An instance of user data.
 476:d:\programy\gnu tools arm embedded\4.8 2014q2\arm-none-eabi\include\c++\4.8.4\bits\stl_list.h ****        *
 477:d:\programy\gnu tools arm embedded\4.8 2014q2\arm-none-eabi\include\c++\4.8.4\bits\stl_list.h ****        *  Allocates space for a new node and constructs a copy of
 478:d:\programy\gnu tools arm embedded\4.8 2014q2\arm-none-eabi\include\c++\4.8.4\bits\stl_list.h ****        *  @a __args in it.
 479:d:\programy\gnu tools arm embedded\4.8 2014q2\arm-none-eabi\include\c++\4.8.4\bits\stl_list.h ****        */
 480:d:\programy\gnu tools arm embedded\4.8 2014q2\arm-none-eabi\include\c++\4.8.4\bits\stl_list.h **** #if __cplusplus < 201103L
 481:d:\programy\gnu tools arm embedded\4.8 2014q2\arm-none-eabi\include\c++\4.8.4\bits\stl_list.h ****       _Node*
 482:d:\programy\gnu tools arm embedded\4.8 2014q2\arm-none-eabi\include\c++\4.8.4\bits\stl_list.h ****       _M_create_node(const value_type& __x)
 483:d:\programy\gnu tools arm embedded\4.8 2014q2\arm-none-eabi\include\c++\4.8.4\bits\stl_list.h ****       {
 484:d:\programy\gnu tools arm embedded\4.8 2014q2\arm-none-eabi\include\c++\4.8.4\bits\stl_list.h **** 	_Node* __p = this->_M_get_node();
 485:d:\programy\gnu tools arm embedded\4.8 2014q2\arm-none-eabi\include\c++\4.8.4\bits\stl_list.h **** 	__try
 486:d:\programy\gnu tools arm embedded\4.8 2014q2\arm-none-eabi\include\c++\4.8.4\bits\stl_list.h **** 	  {
 487:d:\programy\gnu tools arm embedded\4.8 2014q2\arm-none-eabi\include\c++\4.8.4\bits\stl_list.h **** 	    _M_get_Tp_allocator().construct
 488:d:\programy\gnu tools arm embedded\4.8 2014q2\arm-none-eabi\include\c++\4.8.4\bits\stl_list.h **** 	      (std::__addressof(__p->_M_data), __x);
 489:d:\programy\gnu tools arm embedded\4.8 2014q2\arm-none-eabi\include\c++\4.8.4\bits\stl_list.h **** 	  }
 490:d:\programy\gnu tools arm embedded\4.8 2014q2\arm-none-eabi\include\c++\4.8.4\bits\stl_list.h **** 	__catch(...)
 491:d:\programy\gnu tools arm embedded\4.8 2014q2\arm-none-eabi\include\c++\4.8.4\bits\stl_list.h **** 	  {
 492:d:\programy\gnu tools arm embedded\4.8 2014q2\arm-none-eabi\include\c++\4.8.4\bits\stl_list.h **** 	    _M_put_node(__p);
 493:d:\programy\gnu tools arm embedded\4.8 2014q2\arm-none-eabi\include\c++\4.8.4\bits\stl_list.h **** 	    __throw_exception_again;
 494:d:\programy\gnu tools arm embedded\4.8 2014q2\arm-none-eabi\include\c++\4.8.4\bits\stl_list.h **** 	  }
 495:d:\programy\gnu tools arm embedded\4.8 2014q2\arm-none-eabi\include\c++\4.8.4\bits\stl_list.h **** 	return __p;
 496:d:\programy\gnu tools arm embedded\4.8 2014q2\arm-none-eabi\include\c++\4.8.4\bits\stl_list.h ****       }
 497:d:\programy\gnu tools arm embedded\4.8 2014q2\arm-none-eabi\include\c++\4.8.4\bits\stl_list.h **** #else
 498:d:\programy\gnu tools arm embedded\4.8 2014q2\arm-none-eabi\include\c++\4.8.4\bits\stl_list.h ****       template<typename... _Args>
 499:d:\programy\gnu tools arm embedded\4.8 2014q2\arm-none-eabi\include\c++\4.8.4\bits\stl_list.h ****         _Node*
 500:d:\programy\gnu tools arm embedded\4.8 2014q2\arm-none-eabi\include\c++\4.8.4\bits\stl_list.h ****         _M_create_node(_Args&&... __args)
 501:d:\programy\gnu tools arm embedded\4.8 2014q2\arm-none-eabi\include\c++\4.8.4\bits\stl_list.h **** 	{
 502:d:\programy\gnu tools arm embedded\4.8 2014q2\arm-none-eabi\include\c++\4.8.4\bits\stl_list.h **** 	  _Node* __p = this->_M_get_node();
 503:d:\programy\gnu tools arm embedded\4.8 2014q2\arm-none-eabi\include\c++\4.8.4\bits\stl_list.h **** 	  __try
 504:d:\programy\gnu tools arm embedded\4.8 2014q2\arm-none-eabi\include\c++\4.8.4\bits\stl_list.h **** 	    {
 505:d:\programy\gnu tools arm embedded\4.8 2014q2\arm-none-eabi\include\c++\4.8.4\bits\stl_list.h **** 	      _M_get_Node_allocator().construct(__p,
 506:d:\programy\gnu tools arm embedded\4.8 2014q2\arm-none-eabi\include\c++\4.8.4\bits\stl_list.h **** 						std::forward<_Args>(__args)...);
 507:d:\programy\gnu tools arm embedded\4.8 2014q2\arm-none-eabi\include\c++\4.8.4\bits\stl_list.h **** 	    }
 508:d:\programy\gnu tools arm embedded\4.8 2014q2\arm-none-eabi\include\c++\4.8.4\bits\stl_list.h **** 	  __catch(...)
 509:d:\programy\gnu tools arm embedded\4.8 2014q2\arm-none-eabi\include\c++\4.8.4\bits\stl_list.h **** 	    {
 510:d:\programy\gnu tools arm embedded\4.8 2014q2\arm-none-eabi\include\c++\4.8.4\bits\stl_list.h **** 	      _M_put_node(__p);
 511:d:\programy\gnu tools arm embedded\4.8 2014q2\arm-none-eabi\include\c++\4.8.4\bits\stl_list.h **** 	      __throw_exception_again;
 512:d:\programy\gnu tools arm embedded\4.8 2014q2\arm-none-eabi\include\c++\4.8.4\bits\stl_list.h **** 	    }
 513:d:\programy\gnu tools arm embedded\4.8 2014q2\arm-none-eabi\include\c++\4.8.4\bits\stl_list.h **** 	  return __p;
 514:d:\programy\gnu tools arm embedded\4.8 2014q2\arm-none-eabi\include\c++\4.8.4\bits\stl_list.h **** 	}
 515:d:\programy\gnu tools arm embedded\4.8 2014q2\arm-none-eabi\include\c++\4.8.4\bits\stl_list.h **** #endif
 516:d:\programy\gnu tools arm embedded\4.8 2014q2\arm-none-eabi\include\c++\4.8.4\bits\stl_list.h **** 
 517:d:\programy\gnu tools arm embedded\4.8 2014q2\arm-none-eabi\include\c++\4.8.4\bits\stl_list.h ****     public:
 518:d:\programy\gnu tools arm embedded\4.8 2014q2\arm-none-eabi\include\c++\4.8.4\bits\stl_list.h ****       // [23.2.2.1] construct/copy/destroy
 519:d:\programy\gnu tools arm embedded\4.8 2014q2\arm-none-eabi\include\c++\4.8.4\bits\stl_list.h ****       // (assign() and get_allocator() are also listed in this section)
 520:d:\programy\gnu tools arm embedded\4.8 2014q2\arm-none-eabi\include\c++\4.8.4\bits\stl_list.h ****       /**
 521:d:\programy\gnu tools arm embedded\4.8 2014q2\arm-none-eabi\include\c++\4.8.4\bits\stl_list.h ****        *  @brief  Default constructor creates no elements.
 522:d:\programy\gnu tools arm embedded\4.8 2014q2\arm-none-eabi\include\c++\4.8.4\bits\stl_list.h ****        */
 523:d:\programy\gnu tools arm embedded\4.8 2014q2\arm-none-eabi\include\c++\4.8.4\bits\stl_list.h ****       list()
 524:d:\programy\gnu tools arm embedded\4.8 2014q2\arm-none-eabi\include\c++\4.8.4\bits\stl_list.h ****       : _Base() { }
 525:d:\programy\gnu tools arm embedded\4.8 2014q2\arm-none-eabi\include\c++\4.8.4\bits\stl_list.h **** 
 526:d:\programy\gnu tools arm embedded\4.8 2014q2\arm-none-eabi\include\c++\4.8.4\bits\stl_list.h ****       /**
 527:d:\programy\gnu tools arm embedded\4.8 2014q2\arm-none-eabi\include\c++\4.8.4\bits\stl_list.h ****        *  @brief  Creates a %list with no elements.
ARM GAS  C:\Users\Adrian\AppData\Local\Temp\ccxGI9oe.s 			page 34


 528:d:\programy\gnu tools arm embedded\4.8 2014q2\arm-none-eabi\include\c++\4.8.4\bits\stl_list.h ****        *  @param  __a  An allocator object.
 529:d:\programy\gnu tools arm embedded\4.8 2014q2\arm-none-eabi\include\c++\4.8.4\bits\stl_list.h ****        */
 530:d:\programy\gnu tools arm embedded\4.8 2014q2\arm-none-eabi\include\c++\4.8.4\bits\stl_list.h ****       explicit
 531:d:\programy\gnu tools arm embedded\4.8 2014q2\arm-none-eabi\include\c++\4.8.4\bits\stl_list.h ****       list(const allocator_type& __a)
 532:d:\programy\gnu tools arm embedded\4.8 2014q2\arm-none-eabi\include\c++\4.8.4\bits\stl_list.h ****       : _Base(_Node_alloc_type(__a)) { }
 533:d:\programy\gnu tools arm embedded\4.8 2014q2\arm-none-eabi\include\c++\4.8.4\bits\stl_list.h **** 
 534:d:\programy\gnu tools arm embedded\4.8 2014q2\arm-none-eabi\include\c++\4.8.4\bits\stl_list.h **** #if __cplusplus >= 201103L
 535:d:\programy\gnu tools arm embedded\4.8 2014q2\arm-none-eabi\include\c++\4.8.4\bits\stl_list.h ****       /**
 536:d:\programy\gnu tools arm embedded\4.8 2014q2\arm-none-eabi\include\c++\4.8.4\bits\stl_list.h ****        *  @brief  Creates a %list with default constructed elements.
 537:d:\programy\gnu tools arm embedded\4.8 2014q2\arm-none-eabi\include\c++\4.8.4\bits\stl_list.h ****        *  @param  __n  The number of elements to initially create.
 538:d:\programy\gnu tools arm embedded\4.8 2014q2\arm-none-eabi\include\c++\4.8.4\bits\stl_list.h ****        *
 539:d:\programy\gnu tools arm embedded\4.8 2014q2\arm-none-eabi\include\c++\4.8.4\bits\stl_list.h ****        *  This constructor fills the %list with @a __n default
 540:d:\programy\gnu tools arm embedded\4.8 2014q2\arm-none-eabi\include\c++\4.8.4\bits\stl_list.h ****        *  constructed elements.
 541:d:\programy\gnu tools arm embedded\4.8 2014q2\arm-none-eabi\include\c++\4.8.4\bits\stl_list.h ****        */
 542:d:\programy\gnu tools arm embedded\4.8 2014q2\arm-none-eabi\include\c++\4.8.4\bits\stl_list.h ****       explicit
 543:d:\programy\gnu tools arm embedded\4.8 2014q2\arm-none-eabi\include\c++\4.8.4\bits\stl_list.h ****       list(size_type __n)
 544:d:\programy\gnu tools arm embedded\4.8 2014q2\arm-none-eabi\include\c++\4.8.4\bits\stl_list.h ****       : _Base()
 545:d:\programy\gnu tools arm embedded\4.8 2014q2\arm-none-eabi\include\c++\4.8.4\bits\stl_list.h ****       { _M_default_initialize(__n); }
 546:d:\programy\gnu tools arm embedded\4.8 2014q2\arm-none-eabi\include\c++\4.8.4\bits\stl_list.h **** 
 547:d:\programy\gnu tools arm embedded\4.8 2014q2\arm-none-eabi\include\c++\4.8.4\bits\stl_list.h ****       /**
 548:d:\programy\gnu tools arm embedded\4.8 2014q2\arm-none-eabi\include\c++\4.8.4\bits\stl_list.h ****        *  @brief  Creates a %list with copies of an exemplar element.
 549:d:\programy\gnu tools arm embedded\4.8 2014q2\arm-none-eabi\include\c++\4.8.4\bits\stl_list.h ****        *  @param  __n  The number of elements to initially create.
 550:d:\programy\gnu tools arm embedded\4.8 2014q2\arm-none-eabi\include\c++\4.8.4\bits\stl_list.h ****        *  @param  __value  An element to copy.
 551:d:\programy\gnu tools arm embedded\4.8 2014q2\arm-none-eabi\include\c++\4.8.4\bits\stl_list.h ****        *  @param  __a  An allocator object.
 552:d:\programy\gnu tools arm embedded\4.8 2014q2\arm-none-eabi\include\c++\4.8.4\bits\stl_list.h ****        *
 553:d:\programy\gnu tools arm embedded\4.8 2014q2\arm-none-eabi\include\c++\4.8.4\bits\stl_list.h ****        *  This constructor fills the %list with @a __n copies of @a __value.
 554:d:\programy\gnu tools arm embedded\4.8 2014q2\arm-none-eabi\include\c++\4.8.4\bits\stl_list.h ****        */
 555:d:\programy\gnu tools arm embedded\4.8 2014q2\arm-none-eabi\include\c++\4.8.4\bits\stl_list.h ****       list(size_type __n, const value_type& __value,
 556:d:\programy\gnu tools arm embedded\4.8 2014q2\arm-none-eabi\include\c++\4.8.4\bits\stl_list.h **** 	   const allocator_type& __a = allocator_type())
 557:d:\programy\gnu tools arm embedded\4.8 2014q2\arm-none-eabi\include\c++\4.8.4\bits\stl_list.h ****       : _Base(_Node_alloc_type(__a))
 558:d:\programy\gnu tools arm embedded\4.8 2014q2\arm-none-eabi\include\c++\4.8.4\bits\stl_list.h ****       { _M_fill_initialize(__n, __value); }
 559:d:\programy\gnu tools arm embedded\4.8 2014q2\arm-none-eabi\include\c++\4.8.4\bits\stl_list.h **** #else
 560:d:\programy\gnu tools arm embedded\4.8 2014q2\arm-none-eabi\include\c++\4.8.4\bits\stl_list.h ****       /**
 561:d:\programy\gnu tools arm embedded\4.8 2014q2\arm-none-eabi\include\c++\4.8.4\bits\stl_list.h ****        *  @brief  Creates a %list with copies of an exemplar element.
 562:d:\programy\gnu tools arm embedded\4.8 2014q2\arm-none-eabi\include\c++\4.8.4\bits\stl_list.h ****        *  @param  __n  The number of elements to initially create.
 563:d:\programy\gnu tools arm embedded\4.8 2014q2\arm-none-eabi\include\c++\4.8.4\bits\stl_list.h ****        *  @param  __value  An element to copy.
 564:d:\programy\gnu tools arm embedded\4.8 2014q2\arm-none-eabi\include\c++\4.8.4\bits\stl_list.h ****        *  @param  __a  An allocator object.
 565:d:\programy\gnu tools arm embedded\4.8 2014q2\arm-none-eabi\include\c++\4.8.4\bits\stl_list.h ****        *
 566:d:\programy\gnu tools arm embedded\4.8 2014q2\arm-none-eabi\include\c++\4.8.4\bits\stl_list.h ****        *  This constructor fills the %list with @a __n copies of @a __value.
 567:d:\programy\gnu tools arm embedded\4.8 2014q2\arm-none-eabi\include\c++\4.8.4\bits\stl_list.h ****        */
 568:d:\programy\gnu tools arm embedded\4.8 2014q2\arm-none-eabi\include\c++\4.8.4\bits\stl_list.h ****       explicit
 569:d:\programy\gnu tools arm embedded\4.8 2014q2\arm-none-eabi\include\c++\4.8.4\bits\stl_list.h ****       list(size_type __n, const value_type& __value = value_type(),
 570:d:\programy\gnu tools arm embedded\4.8 2014q2\arm-none-eabi\include\c++\4.8.4\bits\stl_list.h **** 	   const allocator_type& __a = allocator_type())
 571:d:\programy\gnu tools arm embedded\4.8 2014q2\arm-none-eabi\include\c++\4.8.4\bits\stl_list.h ****       : _Base(_Node_alloc_type(__a))
 572:d:\programy\gnu tools arm embedded\4.8 2014q2\arm-none-eabi\include\c++\4.8.4\bits\stl_list.h ****       { _M_fill_initialize(__n, __value); }
 573:d:\programy\gnu tools arm embedded\4.8 2014q2\arm-none-eabi\include\c++\4.8.4\bits\stl_list.h **** #endif
 574:d:\programy\gnu tools arm embedded\4.8 2014q2\arm-none-eabi\include\c++\4.8.4\bits\stl_list.h **** 
 575:d:\programy\gnu tools arm embedded\4.8 2014q2\arm-none-eabi\include\c++\4.8.4\bits\stl_list.h ****       /**
 576:d:\programy\gnu tools arm embedded\4.8 2014q2\arm-none-eabi\include\c++\4.8.4\bits\stl_list.h ****        *  @brief  %List copy constructor.
 577:d:\programy\gnu tools arm embedded\4.8 2014q2\arm-none-eabi\include\c++\4.8.4\bits\stl_list.h ****        *  @param  __x  A %list of identical element and allocator types.
 578:d:\programy\gnu tools arm embedded\4.8 2014q2\arm-none-eabi\include\c++\4.8.4\bits\stl_list.h ****        *
 579:d:\programy\gnu tools arm embedded\4.8 2014q2\arm-none-eabi\include\c++\4.8.4\bits\stl_list.h ****        *  The newly-created %list uses a copy of the allocation object used
 580:d:\programy\gnu tools arm embedded\4.8 2014q2\arm-none-eabi\include\c++\4.8.4\bits\stl_list.h ****        *  by @a __x.
 581:d:\programy\gnu tools arm embedded\4.8 2014q2\arm-none-eabi\include\c++\4.8.4\bits\stl_list.h ****        */
 582:d:\programy\gnu tools arm embedded\4.8 2014q2\arm-none-eabi\include\c++\4.8.4\bits\stl_list.h ****       list(const list& __x)
 583:d:\programy\gnu tools arm embedded\4.8 2014q2\arm-none-eabi\include\c++\4.8.4\bits\stl_list.h ****       : _Base(__x._M_get_Node_allocator())
 584:d:\programy\gnu tools arm embedded\4.8 2014q2\arm-none-eabi\include\c++\4.8.4\bits\stl_list.h ****       { _M_initialize_dispatch(__x.begin(), __x.end(), __false_type()); }
ARM GAS  C:\Users\Adrian\AppData\Local\Temp\ccxGI9oe.s 			page 35


 585:d:\programy\gnu tools arm embedded\4.8 2014q2\arm-none-eabi\include\c++\4.8.4\bits\stl_list.h **** 
 586:d:\programy\gnu tools arm embedded\4.8 2014q2\arm-none-eabi\include\c++\4.8.4\bits\stl_list.h **** #if __cplusplus >= 201103L
 587:d:\programy\gnu tools arm embedded\4.8 2014q2\arm-none-eabi\include\c++\4.8.4\bits\stl_list.h ****       /**
 588:d:\programy\gnu tools arm embedded\4.8 2014q2\arm-none-eabi\include\c++\4.8.4\bits\stl_list.h ****        *  @brief  %List move constructor.
 589:d:\programy\gnu tools arm embedded\4.8 2014q2\arm-none-eabi\include\c++\4.8.4\bits\stl_list.h ****        *  @param  __x  A %list of identical element and allocator types.
 590:d:\programy\gnu tools arm embedded\4.8 2014q2\arm-none-eabi\include\c++\4.8.4\bits\stl_list.h ****        *
 591:d:\programy\gnu tools arm embedded\4.8 2014q2\arm-none-eabi\include\c++\4.8.4\bits\stl_list.h ****        *  The newly-created %list contains the exact contents of @a __x.
 592:d:\programy\gnu tools arm embedded\4.8 2014q2\arm-none-eabi\include\c++\4.8.4\bits\stl_list.h ****        *  The contents of @a __x are a valid, but unspecified %list.
 593:d:\programy\gnu tools arm embedded\4.8 2014q2\arm-none-eabi\include\c++\4.8.4\bits\stl_list.h ****        */
 594:d:\programy\gnu tools arm embedded\4.8 2014q2\arm-none-eabi\include\c++\4.8.4\bits\stl_list.h ****       list(list&& __x) noexcept
 595:d:\programy\gnu tools arm embedded\4.8 2014q2\arm-none-eabi\include\c++\4.8.4\bits\stl_list.h ****       : _Base(std::move(__x)) { }
 596:d:\programy\gnu tools arm embedded\4.8 2014q2\arm-none-eabi\include\c++\4.8.4\bits\stl_list.h **** 
 597:d:\programy\gnu tools arm embedded\4.8 2014q2\arm-none-eabi\include\c++\4.8.4\bits\stl_list.h ****       /**
 598:d:\programy\gnu tools arm embedded\4.8 2014q2\arm-none-eabi\include\c++\4.8.4\bits\stl_list.h ****        *  @brief  Builds a %list from an initializer_list
 599:d:\programy\gnu tools arm embedded\4.8 2014q2\arm-none-eabi\include\c++\4.8.4\bits\stl_list.h ****        *  @param  __l  An initializer_list of value_type.
 600:d:\programy\gnu tools arm embedded\4.8 2014q2\arm-none-eabi\include\c++\4.8.4\bits\stl_list.h ****        *  @param  __a  An allocator object.
 601:d:\programy\gnu tools arm embedded\4.8 2014q2\arm-none-eabi\include\c++\4.8.4\bits\stl_list.h ****        *
 602:d:\programy\gnu tools arm embedded\4.8 2014q2\arm-none-eabi\include\c++\4.8.4\bits\stl_list.h ****        *  Create a %list consisting of copies of the elements in the
 603:d:\programy\gnu tools arm embedded\4.8 2014q2\arm-none-eabi\include\c++\4.8.4\bits\stl_list.h ****        *  initializer_list @a __l.  This is linear in __l.size().
 604:d:\programy\gnu tools arm embedded\4.8 2014q2\arm-none-eabi\include\c++\4.8.4\bits\stl_list.h ****        */
 605:d:\programy\gnu tools arm embedded\4.8 2014q2\arm-none-eabi\include\c++\4.8.4\bits\stl_list.h ****       list(initializer_list<value_type> __l,
 823              		.loc 2 605 0
 824              		.cfi_startproc
 825              		@ args = 0, pretend = 0, frame = 24
 826              		@ frame_needed = 1, uses_anonymous_args = 0
 827 0000 B0B5     		push	{r4, r5, r7, lr}	@
 828              		.cfi_def_cfa_offset 16
 829              		.cfi_offset 4, -16
 830              		.cfi_offset 5, -12
 831              		.cfi_offset 7, -8
 832              		.cfi_offset 14, -4
 833 0002 86B0     		sub	sp, sp, #24	@,,
 834              		.cfi_def_cfa_offset 40
 835 0004 00AF     		add	r7, sp, #0	@,,
 836              		.cfi_def_cfa_register 7
 837 0006 F860     		str	r0, [r7, #12]	@ this, this
 838 0008 381D     		adds	r0, r7, #4	@ tmp116,,
 839 000a 80E80600 		stmia	r0, {r1, r2}	@ tmp116,,
 840 000e 3B60     		str	r3, [r7]	@ __a, __a
 841              	.LBB16:
 606:d:\programy\gnu tools arm embedded\4.8 2014q2\arm-none-eabi\include\c++\4.8.4\bits\stl_list.h ****            const allocator_type& __a = allocator_type())
 607:d:\programy\gnu tools arm embedded\4.8 2014q2\arm-none-eabi\include\c++\4.8.4\bits\stl_list.h ****       : _Base(_Node_alloc_type(__a))
 842              		.loc 2 607 0
 843 0010 FC68     		ldr	r4, [r7, #12]	@ D.15937, this
 844 0012 07F11003 		add	r3, r7, #16	@ tmp117,,
 845 0016 1846     		mov	r0, r3	@, tmp117
 846 0018 3968     		ldr	r1, [r7]	@, __a
 847 001a FFF7FEFF 		bl	_ZNSaISt10_List_nodeIPK17CommandDefinitionEEC1IS2_EERKSaIT_E	@
 848 001e 07F11003 		add	r3, r7, #16	@ tmp118,,
 849 0022 2046     		mov	r0, r4	@, D.15937
 850 0024 1946     		mov	r1, r3	@, tmp118
 851 0026 FFF7FEFF 		bl	_ZNSt10_List_baseIPK17CommandDefinitionSaIS2_EEC2ERKSaISt10_List_nodeIS2_EE	@
 852 002a 07F11003 		add	r3, r7, #16	@ tmp119,,
 853 002e 1846     		mov	r0, r3	@, tmp119
 854 0030 FFF7FEFF 		bl	_ZNSaISt10_List_nodeIPK17CommandDefinitionEED1Ev	@
 608:d:\programy\gnu tools arm embedded\4.8 2014q2\arm-none-eabi\include\c++\4.8.4\bits\stl_list.h ****       { _M_initialize_dispatch(__l.begin(), __l.end(), __false_type()); }
 855              		.loc 2 608 0
ARM GAS  C:\Users\Adrian\AppData\Local\Temp\ccxGI9oe.s 			page 36


 856 0034 3B1D     		adds	r3, r7, #4	@ tmp120,,
 857 0036 1846     		mov	r0, r3	@, tmp120
 858 0038 FFF7FEFF 		bl	_ZNKSt16initializer_listIPK17CommandDefinitionE5beginEv	@
 859 003c 0446     		mov	r4, r0	@ D.15938,
 860 003e 3B1D     		adds	r3, r7, #4	@ tmp121,,
 861 0040 1846     		mov	r0, r3	@, tmp121
 862 0042 FFF7FEFF 		bl	_ZNKSt16initializer_listIPK17CommandDefinitionE3endEv	@
 863 0046 0346     		mov	r3, r0	@ D.15938,
 864 0048 F868     		ldr	r0, [r7, #12]	@, this
 865 004a 2146     		mov	r1, r4	@, D.15938
 866 004c 1A46     		mov	r2, r3	@, D.15938
 867 004e 2B46     		mov	r3, r5	@, D.15825
 868 0050 FFF7FEFF 		bl	_ZNSt4listIPK17CommandDefinitionSaIS2_EE22_M_initialize_dispatchIPKS2_EEvT_S8_St12__false_type	
 869              	.LBE16:
 870 0054 FB68     		ldr	r3, [r7, #12]	@ D.15939, this
 871 0056 1846     		mov	r0, r3	@, <retval>
 872 0058 1837     		adds	r7, r7, #24	@,,
 873 005a BD46     		mov	sp, r7	@,
 874              		@ sp needed	@
 875 005c B0BD     		pop	{r4, r5, r7, pc}	@
 876              		.cfi_endproc
 877              	.LFE502:
 878              		.size	_ZNSt4listIPK17CommandDefinitionSaIS2_EEC2ESt16initializer_listIS2_ERKS3_, .-_ZNSt4listIPK17
 879              		.weak	_ZNSt4listIPK17CommandDefinitionSaIS2_EEC1ESt16initializer_listIS2_ERKS3_
 880              		.thumb_set _ZNSt4listIPK17CommandDefinitionSaIS2_EEC1ESt16initializer_listIS2_ERKS3_,_ZNSt4listIPK
 881 005e 00BF     		.section	.text._ZNSt10_List_baseIPK17CommandDefinitionSaIS2_EE10_List_implD2Ev,"axG",%progbits,_ZN
 882              		.align	2
 883              		.weak	_ZNSt10_List_baseIPK17CommandDefinitionSaIS2_EE10_List_implD2Ev
 884              		.thumb
 885              		.thumb_func
 886              		.type	_ZNSt10_List_baseIPK17CommandDefinitionSaIS2_EE10_List_implD2Ev, %function
 887              	_ZNSt10_List_baseIPK17CommandDefinitionSaIS2_EE10_List_implD2Ev:
 888              	.LFB506:
 310:d:\programy\gnu tools arm embedded\4.8 2014q2\arm-none-eabi\include\c++\4.8.4\bits\stl_list.h ****       struct _List_impl
 889              		.loc 2 310 0
 890              		.cfi_startproc
 891              		@ args = 0, pretend = 0, frame = 8
 892              		@ frame_needed = 1, uses_anonymous_args = 0
 893 0000 80B5     		push	{r7, lr}	@
 894              		.cfi_def_cfa_offset 8
 895              		.cfi_offset 7, -8
 896              		.cfi_offset 14, -4
 897 0002 82B0     		sub	sp, sp, #8	@,,
 898              		.cfi_def_cfa_offset 16
 899 0004 00AF     		add	r7, sp, #0	@,,
 900              		.cfi_def_cfa_register 7
 901 0006 7860     		str	r0, [r7, #4]	@ this, this
 902              	.LBB17:
 310:d:\programy\gnu tools arm embedded\4.8 2014q2\arm-none-eabi\include\c++\4.8.4\bits\stl_list.h ****       struct _List_impl
 903              		.loc 2 310 0
 904 0008 7868     		ldr	r0, [r7, #4]	@, this
 905 000a FFF7FEFF 		bl	_ZNSaISt10_List_nodeIPK17CommandDefinitionEED2Ev	@
 906              	.LBE17:
 907 000e 7B68     		ldr	r3, [r7, #4]	@ D.15940, this
 908 0010 1846     		mov	r0, r3	@, <retval>
 909 0012 0837     		adds	r7, r7, #8	@,,
 910 0014 BD46     		mov	sp, r7	@,
ARM GAS  C:\Users\Adrian\AppData\Local\Temp\ccxGI9oe.s 			page 37


 911              		@ sp needed	@
 912 0016 80BD     		pop	{r7, pc}	@
 913              		.cfi_endproc
 914              	.LFE506:
 915              		.size	_ZNSt10_List_baseIPK17CommandDefinitionSaIS2_EE10_List_implD2Ev, .-_ZNSt10_List_baseIPK17Com
 916              		.weak	_ZNSt10_List_baseIPK17CommandDefinitionSaIS2_EE10_List_implD1Ev
 917              		.thumb_set _ZNSt10_List_baseIPK17CommandDefinitionSaIS2_EE10_List_implD1Ev,_ZNSt10_List_baseIPK17C
 918              		.section	.text._ZNSt10_List_baseIPK17CommandDefinitionSaIS2_EED2Ev,"axG",%progbits,_ZNSt10_List_ba
 919              		.align	2
 920              		.weak	_ZNSt10_List_baseIPK17CommandDefinitionSaIS2_EED2Ev
 921              		.thumb
 922              		.thumb_func
 923              		.type	_ZNSt10_List_baseIPK17CommandDefinitionSaIS2_EED2Ev, %function
 924              	_ZNSt10_List_baseIPK17CommandDefinitionSaIS2_EED2Ev:
 925              	.LFB508:
 377:d:\programy\gnu tools arm embedded\4.8 2014q2\arm-none-eabi\include\c++\4.8.4\bits\stl_list.h ****       ~_List_base() _GLIBCXX_NOEXCEPT
 926              		.loc 2 377 0
 927              		.cfi_startproc
 928              		@ args = 0, pretend = 0, frame = 8
 929              		@ frame_needed = 1, uses_anonymous_args = 0
 930 0000 80B5     		push	{r7, lr}	@
 931              		.cfi_def_cfa_offset 8
 932              		.cfi_offset 7, -8
 933              		.cfi_offset 14, -4
 934 0002 82B0     		sub	sp, sp, #8	@,,
 935              		.cfi_def_cfa_offset 16
 936 0004 00AF     		add	r7, sp, #0	@,,
 937              		.cfi_def_cfa_register 7
 938 0006 7860     		str	r0, [r7, #4]	@ this, this
 939              	.LBB18:
 378:d:\programy\gnu tools arm embedded\4.8 2014q2\arm-none-eabi\include\c++\4.8.4\bits\stl_list.h ****       { _M_clear(); }
 940              		.loc 2 378 0
 941 0008 7868     		ldr	r0, [r7, #4]	@, this
 942 000a FFF7FEFF 		bl	_ZNSt10_List_baseIPK17CommandDefinitionSaIS2_EE8_M_clearEv	@
 943 000e 7B68     		ldr	r3, [r7, #4]	@ D.15941, this
 944 0010 1846     		mov	r0, r3	@, D.15941
 945 0012 FFF7FEFF 		bl	_ZNSt10_List_baseIPK17CommandDefinitionSaIS2_EE10_List_implD1Ev	@
 946              	.LBE18:
 947 0016 7B68     		ldr	r3, [r7, #4]	@ D.15942, this
 948 0018 1846     		mov	r0, r3	@, <retval>
 949 001a 0837     		adds	r7, r7, #8	@,,
 950 001c BD46     		mov	sp, r7	@,
 951              		@ sp needed	@
 952 001e 80BD     		pop	{r7, pc}	@
 953              		.cfi_endproc
 954              	.LFE508:
 955              		.size	_ZNSt10_List_baseIPK17CommandDefinitionSaIS2_EED2Ev, .-_ZNSt10_List_baseIPK17CommandDefiniti
 956              		.weak	_ZNSt10_List_baseIPK17CommandDefinitionSaIS2_EED1Ev
 957              		.thumb_set _ZNSt10_List_baseIPK17CommandDefinitionSaIS2_EED1Ev,_ZNSt10_List_baseIPK17CommandDefini
 958              		.section	.text._ZNSt4listIPK17CommandDefinitionSaIS2_EE5beginEv,"axG",%progbits,_ZNSt4listIPK17Com
 959              		.align	2
 960              		.weak	_ZNSt4listIPK17CommandDefinitionSaIS2_EE5beginEv
 961              		.thumb
 962              		.thumb_func
 963              		.type	_ZNSt4listIPK17CommandDefinitionSaIS2_EE5beginEv, %function
 964              	_ZNSt4listIPK17CommandDefinitionSaIS2_EE5beginEv:
 965              	.LFB510:
ARM GAS  C:\Users\Adrian\AppData\Local\Temp\ccxGI9oe.s 			page 38


 609:d:\programy\gnu tools arm embedded\4.8 2014q2\arm-none-eabi\include\c++\4.8.4\bits\stl_list.h **** #endif
 610:d:\programy\gnu tools arm embedded\4.8 2014q2\arm-none-eabi\include\c++\4.8.4\bits\stl_list.h **** 
 611:d:\programy\gnu tools arm embedded\4.8 2014q2\arm-none-eabi\include\c++\4.8.4\bits\stl_list.h ****       /**
 612:d:\programy\gnu tools arm embedded\4.8 2014q2\arm-none-eabi\include\c++\4.8.4\bits\stl_list.h ****        *  @brief  Builds a %list from a range.
 613:d:\programy\gnu tools arm embedded\4.8 2014q2\arm-none-eabi\include\c++\4.8.4\bits\stl_list.h ****        *  @param  __first  An input iterator.
 614:d:\programy\gnu tools arm embedded\4.8 2014q2\arm-none-eabi\include\c++\4.8.4\bits\stl_list.h ****        *  @param  __last  An input iterator.
 615:d:\programy\gnu tools arm embedded\4.8 2014q2\arm-none-eabi\include\c++\4.8.4\bits\stl_list.h ****        *  @param  __a  An allocator object.
 616:d:\programy\gnu tools arm embedded\4.8 2014q2\arm-none-eabi\include\c++\4.8.4\bits\stl_list.h ****        *
 617:d:\programy\gnu tools arm embedded\4.8 2014q2\arm-none-eabi\include\c++\4.8.4\bits\stl_list.h ****        *  Create a %list consisting of copies of the elements from
 618:d:\programy\gnu tools arm embedded\4.8 2014q2\arm-none-eabi\include\c++\4.8.4\bits\stl_list.h ****        *  [@a __first,@a __last).  This is linear in N (where N is
 619:d:\programy\gnu tools arm embedded\4.8 2014q2\arm-none-eabi\include\c++\4.8.4\bits\stl_list.h ****        *  distance(@a __first,@a __last)).
 620:d:\programy\gnu tools arm embedded\4.8 2014q2\arm-none-eabi\include\c++\4.8.4\bits\stl_list.h ****        */
 621:d:\programy\gnu tools arm embedded\4.8 2014q2\arm-none-eabi\include\c++\4.8.4\bits\stl_list.h **** #if __cplusplus >= 201103L
 622:d:\programy\gnu tools arm embedded\4.8 2014q2\arm-none-eabi\include\c++\4.8.4\bits\stl_list.h ****       template<typename _InputIterator,
 623:d:\programy\gnu tools arm embedded\4.8 2014q2\arm-none-eabi\include\c++\4.8.4\bits\stl_list.h **** 	       typename = std::_RequireInputIter<_InputIterator>>
 624:d:\programy\gnu tools arm embedded\4.8 2014q2\arm-none-eabi\include\c++\4.8.4\bits\stl_list.h ****         list(_InputIterator __first, _InputIterator __last,
 625:d:\programy\gnu tools arm embedded\4.8 2014q2\arm-none-eabi\include\c++\4.8.4\bits\stl_list.h **** 	     const allocator_type& __a = allocator_type())
 626:d:\programy\gnu tools arm embedded\4.8 2014q2\arm-none-eabi\include\c++\4.8.4\bits\stl_list.h **** 	: _Base(_Node_alloc_type(__a))
 627:d:\programy\gnu tools arm embedded\4.8 2014q2\arm-none-eabi\include\c++\4.8.4\bits\stl_list.h ****         { _M_initialize_dispatch(__first, __last, __false_type()); }
 628:d:\programy\gnu tools arm embedded\4.8 2014q2\arm-none-eabi\include\c++\4.8.4\bits\stl_list.h **** #else
 629:d:\programy\gnu tools arm embedded\4.8 2014q2\arm-none-eabi\include\c++\4.8.4\bits\stl_list.h ****       template<typename _InputIterator>
 630:d:\programy\gnu tools arm embedded\4.8 2014q2\arm-none-eabi\include\c++\4.8.4\bits\stl_list.h ****         list(_InputIterator __first, _InputIterator __last,
 631:d:\programy\gnu tools arm embedded\4.8 2014q2\arm-none-eabi\include\c++\4.8.4\bits\stl_list.h **** 	     const allocator_type& __a = allocator_type())
 632:d:\programy\gnu tools arm embedded\4.8 2014q2\arm-none-eabi\include\c++\4.8.4\bits\stl_list.h **** 	: _Base(_Node_alloc_type(__a))
 633:d:\programy\gnu tools arm embedded\4.8 2014q2\arm-none-eabi\include\c++\4.8.4\bits\stl_list.h ****         { 
 634:d:\programy\gnu tools arm embedded\4.8 2014q2\arm-none-eabi\include\c++\4.8.4\bits\stl_list.h **** 	  // Check whether it's an integral type.  If so, it's not an iterator.
 635:d:\programy\gnu tools arm embedded\4.8 2014q2\arm-none-eabi\include\c++\4.8.4\bits\stl_list.h **** 	  typedef typename std::__is_integer<_InputIterator>::__type _Integral;
 636:d:\programy\gnu tools arm embedded\4.8 2014q2\arm-none-eabi\include\c++\4.8.4\bits\stl_list.h **** 	  _M_initialize_dispatch(__first, __last, _Integral());
 637:d:\programy\gnu tools arm embedded\4.8 2014q2\arm-none-eabi\include\c++\4.8.4\bits\stl_list.h **** 	}
 638:d:\programy\gnu tools arm embedded\4.8 2014q2\arm-none-eabi\include\c++\4.8.4\bits\stl_list.h **** #endif
 639:d:\programy\gnu tools arm embedded\4.8 2014q2\arm-none-eabi\include\c++\4.8.4\bits\stl_list.h **** 
 640:d:\programy\gnu tools arm embedded\4.8 2014q2\arm-none-eabi\include\c++\4.8.4\bits\stl_list.h ****       /**
 641:d:\programy\gnu tools arm embedded\4.8 2014q2\arm-none-eabi\include\c++\4.8.4\bits\stl_list.h ****        *  No explicit dtor needed as the _Base dtor takes care of
 642:d:\programy\gnu tools arm embedded\4.8 2014q2\arm-none-eabi\include\c++\4.8.4\bits\stl_list.h ****        *  things.  The _Base dtor only erases the elements, and note
 643:d:\programy\gnu tools arm embedded\4.8 2014q2\arm-none-eabi\include\c++\4.8.4\bits\stl_list.h ****        *  that if the elements themselves are pointers, the pointed-to
 644:d:\programy\gnu tools arm embedded\4.8 2014q2\arm-none-eabi\include\c++\4.8.4\bits\stl_list.h ****        *  memory is not touched in any way.  Managing the pointer is
 645:d:\programy\gnu tools arm embedded\4.8 2014q2\arm-none-eabi\include\c++\4.8.4\bits\stl_list.h ****        *  the user's responsibility.
 646:d:\programy\gnu tools arm embedded\4.8 2014q2\arm-none-eabi\include\c++\4.8.4\bits\stl_list.h ****        */
 647:d:\programy\gnu tools arm embedded\4.8 2014q2\arm-none-eabi\include\c++\4.8.4\bits\stl_list.h **** 
 648:d:\programy\gnu tools arm embedded\4.8 2014q2\arm-none-eabi\include\c++\4.8.4\bits\stl_list.h ****       /**
 649:d:\programy\gnu tools arm embedded\4.8 2014q2\arm-none-eabi\include\c++\4.8.4\bits\stl_list.h ****        *  @brief  %List assignment operator.
 650:d:\programy\gnu tools arm embedded\4.8 2014q2\arm-none-eabi\include\c++\4.8.4\bits\stl_list.h ****        *  @param  __x  A %list of identical element and allocator types.
 651:d:\programy\gnu tools arm embedded\4.8 2014q2\arm-none-eabi\include\c++\4.8.4\bits\stl_list.h ****        *
 652:d:\programy\gnu tools arm embedded\4.8 2014q2\arm-none-eabi\include\c++\4.8.4\bits\stl_list.h ****        *  All the elements of @a __x are copied, but unlike the copy
 653:d:\programy\gnu tools arm embedded\4.8 2014q2\arm-none-eabi\include\c++\4.8.4\bits\stl_list.h ****        *  constructor, the allocator object is not copied.
 654:d:\programy\gnu tools arm embedded\4.8 2014q2\arm-none-eabi\include\c++\4.8.4\bits\stl_list.h ****        */
 655:d:\programy\gnu tools arm embedded\4.8 2014q2\arm-none-eabi\include\c++\4.8.4\bits\stl_list.h ****       list&
 656:d:\programy\gnu tools arm embedded\4.8 2014q2\arm-none-eabi\include\c++\4.8.4\bits\stl_list.h ****       operator=(const list& __x);
 657:d:\programy\gnu tools arm embedded\4.8 2014q2\arm-none-eabi\include\c++\4.8.4\bits\stl_list.h **** 
 658:d:\programy\gnu tools arm embedded\4.8 2014q2\arm-none-eabi\include\c++\4.8.4\bits\stl_list.h **** #if __cplusplus >= 201103L
 659:d:\programy\gnu tools arm embedded\4.8 2014q2\arm-none-eabi\include\c++\4.8.4\bits\stl_list.h ****       /**
 660:d:\programy\gnu tools arm embedded\4.8 2014q2\arm-none-eabi\include\c++\4.8.4\bits\stl_list.h ****        *  @brief  %List move assignment operator.
 661:d:\programy\gnu tools arm embedded\4.8 2014q2\arm-none-eabi\include\c++\4.8.4\bits\stl_list.h ****        *  @param  __x  A %list of identical element and allocator types.
 662:d:\programy\gnu tools arm embedded\4.8 2014q2\arm-none-eabi\include\c++\4.8.4\bits\stl_list.h ****        *
 663:d:\programy\gnu tools arm embedded\4.8 2014q2\arm-none-eabi\include\c++\4.8.4\bits\stl_list.h ****        *  The contents of @a __x are moved into this %list (without copying).
 664:d:\programy\gnu tools arm embedded\4.8 2014q2\arm-none-eabi\include\c++\4.8.4\bits\stl_list.h ****        *  @a __x is a valid, but unspecified %list
 665:d:\programy\gnu tools arm embedded\4.8 2014q2\arm-none-eabi\include\c++\4.8.4\bits\stl_list.h ****        */
ARM GAS  C:\Users\Adrian\AppData\Local\Temp\ccxGI9oe.s 			page 39


 666:d:\programy\gnu tools arm embedded\4.8 2014q2\arm-none-eabi\include\c++\4.8.4\bits\stl_list.h ****       list&
 667:d:\programy\gnu tools arm embedded\4.8 2014q2\arm-none-eabi\include\c++\4.8.4\bits\stl_list.h ****       operator=(list&& __x)
 668:d:\programy\gnu tools arm embedded\4.8 2014q2\arm-none-eabi\include\c++\4.8.4\bits\stl_list.h ****       {
 669:d:\programy\gnu tools arm embedded\4.8 2014q2\arm-none-eabi\include\c++\4.8.4\bits\stl_list.h **** 	// NB: DR 1204.
 670:d:\programy\gnu tools arm embedded\4.8 2014q2\arm-none-eabi\include\c++\4.8.4\bits\stl_list.h **** 	// NB: DR 675.
 671:d:\programy\gnu tools arm embedded\4.8 2014q2\arm-none-eabi\include\c++\4.8.4\bits\stl_list.h **** 	this->clear();
 672:d:\programy\gnu tools arm embedded\4.8 2014q2\arm-none-eabi\include\c++\4.8.4\bits\stl_list.h **** 	this->swap(__x);
 673:d:\programy\gnu tools arm embedded\4.8 2014q2\arm-none-eabi\include\c++\4.8.4\bits\stl_list.h **** 	return *this;
 674:d:\programy\gnu tools arm embedded\4.8 2014q2\arm-none-eabi\include\c++\4.8.4\bits\stl_list.h ****       }
 675:d:\programy\gnu tools arm embedded\4.8 2014q2\arm-none-eabi\include\c++\4.8.4\bits\stl_list.h **** 
 676:d:\programy\gnu tools arm embedded\4.8 2014q2\arm-none-eabi\include\c++\4.8.4\bits\stl_list.h ****       /**
 677:d:\programy\gnu tools arm embedded\4.8 2014q2\arm-none-eabi\include\c++\4.8.4\bits\stl_list.h ****        *  @brief  %List initializer list assignment operator.
 678:d:\programy\gnu tools arm embedded\4.8 2014q2\arm-none-eabi\include\c++\4.8.4\bits\stl_list.h ****        *  @param  __l  An initializer_list of value_type.
 679:d:\programy\gnu tools arm embedded\4.8 2014q2\arm-none-eabi\include\c++\4.8.4\bits\stl_list.h ****        *
 680:d:\programy\gnu tools arm embedded\4.8 2014q2\arm-none-eabi\include\c++\4.8.4\bits\stl_list.h ****        *  Replace the contents of the %list with copies of the elements
 681:d:\programy\gnu tools arm embedded\4.8 2014q2\arm-none-eabi\include\c++\4.8.4\bits\stl_list.h ****        *  in the initializer_list @a __l.  This is linear in l.size().
 682:d:\programy\gnu tools arm embedded\4.8 2014q2\arm-none-eabi\include\c++\4.8.4\bits\stl_list.h ****        */
 683:d:\programy\gnu tools arm embedded\4.8 2014q2\arm-none-eabi\include\c++\4.8.4\bits\stl_list.h ****       list&
 684:d:\programy\gnu tools arm embedded\4.8 2014q2\arm-none-eabi\include\c++\4.8.4\bits\stl_list.h ****       operator=(initializer_list<value_type> __l)
 685:d:\programy\gnu tools arm embedded\4.8 2014q2\arm-none-eabi\include\c++\4.8.4\bits\stl_list.h ****       {
 686:d:\programy\gnu tools arm embedded\4.8 2014q2\arm-none-eabi\include\c++\4.8.4\bits\stl_list.h **** 	this->assign(__l.begin(), __l.end());
 687:d:\programy\gnu tools arm embedded\4.8 2014q2\arm-none-eabi\include\c++\4.8.4\bits\stl_list.h **** 	return *this;
 688:d:\programy\gnu tools arm embedded\4.8 2014q2\arm-none-eabi\include\c++\4.8.4\bits\stl_list.h ****       }
 689:d:\programy\gnu tools arm embedded\4.8 2014q2\arm-none-eabi\include\c++\4.8.4\bits\stl_list.h **** #endif
 690:d:\programy\gnu tools arm embedded\4.8 2014q2\arm-none-eabi\include\c++\4.8.4\bits\stl_list.h **** 
 691:d:\programy\gnu tools arm embedded\4.8 2014q2\arm-none-eabi\include\c++\4.8.4\bits\stl_list.h ****       /**
 692:d:\programy\gnu tools arm embedded\4.8 2014q2\arm-none-eabi\include\c++\4.8.4\bits\stl_list.h ****        *  @brief  Assigns a given value to a %list.
 693:d:\programy\gnu tools arm embedded\4.8 2014q2\arm-none-eabi\include\c++\4.8.4\bits\stl_list.h ****        *  @param  __n  Number of elements to be assigned.
 694:d:\programy\gnu tools arm embedded\4.8 2014q2\arm-none-eabi\include\c++\4.8.4\bits\stl_list.h ****        *  @param  __val  Value to be assigned.
 695:d:\programy\gnu tools arm embedded\4.8 2014q2\arm-none-eabi\include\c++\4.8.4\bits\stl_list.h ****        *
 696:d:\programy\gnu tools arm embedded\4.8 2014q2\arm-none-eabi\include\c++\4.8.4\bits\stl_list.h ****        *  This function fills a %list with @a __n copies of the given
 697:d:\programy\gnu tools arm embedded\4.8 2014q2\arm-none-eabi\include\c++\4.8.4\bits\stl_list.h ****        *  value.  Note that the assignment completely changes the %list
 698:d:\programy\gnu tools arm embedded\4.8 2014q2\arm-none-eabi\include\c++\4.8.4\bits\stl_list.h ****        *  and that the resulting %list's size is the same as the number
 699:d:\programy\gnu tools arm embedded\4.8 2014q2\arm-none-eabi\include\c++\4.8.4\bits\stl_list.h ****        *  of elements assigned.  Old data may be lost.
 700:d:\programy\gnu tools arm embedded\4.8 2014q2\arm-none-eabi\include\c++\4.8.4\bits\stl_list.h ****        */
 701:d:\programy\gnu tools arm embedded\4.8 2014q2\arm-none-eabi\include\c++\4.8.4\bits\stl_list.h ****       void
 702:d:\programy\gnu tools arm embedded\4.8 2014q2\arm-none-eabi\include\c++\4.8.4\bits\stl_list.h ****       assign(size_type __n, const value_type& __val)
 703:d:\programy\gnu tools arm embedded\4.8 2014q2\arm-none-eabi\include\c++\4.8.4\bits\stl_list.h ****       { _M_fill_assign(__n, __val); }
 704:d:\programy\gnu tools arm embedded\4.8 2014q2\arm-none-eabi\include\c++\4.8.4\bits\stl_list.h **** 
 705:d:\programy\gnu tools arm embedded\4.8 2014q2\arm-none-eabi\include\c++\4.8.4\bits\stl_list.h ****       /**
 706:d:\programy\gnu tools arm embedded\4.8 2014q2\arm-none-eabi\include\c++\4.8.4\bits\stl_list.h ****        *  @brief  Assigns a range to a %list.
 707:d:\programy\gnu tools arm embedded\4.8 2014q2\arm-none-eabi\include\c++\4.8.4\bits\stl_list.h ****        *  @param  __first  An input iterator.
 708:d:\programy\gnu tools arm embedded\4.8 2014q2\arm-none-eabi\include\c++\4.8.4\bits\stl_list.h ****        *  @param  __last   An input iterator.
 709:d:\programy\gnu tools arm embedded\4.8 2014q2\arm-none-eabi\include\c++\4.8.4\bits\stl_list.h ****        *
 710:d:\programy\gnu tools arm embedded\4.8 2014q2\arm-none-eabi\include\c++\4.8.4\bits\stl_list.h ****        *  This function fills a %list with copies of the elements in the
 711:d:\programy\gnu tools arm embedded\4.8 2014q2\arm-none-eabi\include\c++\4.8.4\bits\stl_list.h ****        *  range [@a __first,@a __last).
 712:d:\programy\gnu tools arm embedded\4.8 2014q2\arm-none-eabi\include\c++\4.8.4\bits\stl_list.h ****        *
 713:d:\programy\gnu tools arm embedded\4.8 2014q2\arm-none-eabi\include\c++\4.8.4\bits\stl_list.h ****        *  Note that the assignment completely changes the %list and
 714:d:\programy\gnu tools arm embedded\4.8 2014q2\arm-none-eabi\include\c++\4.8.4\bits\stl_list.h ****        *  that the resulting %list's size is the same as the number of
 715:d:\programy\gnu tools arm embedded\4.8 2014q2\arm-none-eabi\include\c++\4.8.4\bits\stl_list.h ****        *  elements assigned.  Old data may be lost.
 716:d:\programy\gnu tools arm embedded\4.8 2014q2\arm-none-eabi\include\c++\4.8.4\bits\stl_list.h ****        */
 717:d:\programy\gnu tools arm embedded\4.8 2014q2\arm-none-eabi\include\c++\4.8.4\bits\stl_list.h **** #if __cplusplus >= 201103L
 718:d:\programy\gnu tools arm embedded\4.8 2014q2\arm-none-eabi\include\c++\4.8.4\bits\stl_list.h ****       template<typename _InputIterator,
 719:d:\programy\gnu tools arm embedded\4.8 2014q2\arm-none-eabi\include\c++\4.8.4\bits\stl_list.h **** 	       typename = std::_RequireInputIter<_InputIterator>>
 720:d:\programy\gnu tools arm embedded\4.8 2014q2\arm-none-eabi\include\c++\4.8.4\bits\stl_list.h ****         void
 721:d:\programy\gnu tools arm embedded\4.8 2014q2\arm-none-eabi\include\c++\4.8.4\bits\stl_list.h ****         assign(_InputIterator __first, _InputIterator __last)
 722:d:\programy\gnu tools arm embedded\4.8 2014q2\arm-none-eabi\include\c++\4.8.4\bits\stl_list.h ****         { _M_assign_dispatch(__first, __last, __false_type()); }
ARM GAS  C:\Users\Adrian\AppData\Local\Temp\ccxGI9oe.s 			page 40


 723:d:\programy\gnu tools arm embedded\4.8 2014q2\arm-none-eabi\include\c++\4.8.4\bits\stl_list.h **** #else
 724:d:\programy\gnu tools arm embedded\4.8 2014q2\arm-none-eabi\include\c++\4.8.4\bits\stl_list.h ****       template<typename _InputIterator>
 725:d:\programy\gnu tools arm embedded\4.8 2014q2\arm-none-eabi\include\c++\4.8.4\bits\stl_list.h ****         void
 726:d:\programy\gnu tools arm embedded\4.8 2014q2\arm-none-eabi\include\c++\4.8.4\bits\stl_list.h ****         assign(_InputIterator __first, _InputIterator __last)
 727:d:\programy\gnu tools arm embedded\4.8 2014q2\arm-none-eabi\include\c++\4.8.4\bits\stl_list.h ****         {
 728:d:\programy\gnu tools arm embedded\4.8 2014q2\arm-none-eabi\include\c++\4.8.4\bits\stl_list.h **** 	  // Check whether it's an integral type.  If so, it's not an iterator.
 729:d:\programy\gnu tools arm embedded\4.8 2014q2\arm-none-eabi\include\c++\4.8.4\bits\stl_list.h **** 	  typedef typename std::__is_integer<_InputIterator>::__type _Integral;
 730:d:\programy\gnu tools arm embedded\4.8 2014q2\arm-none-eabi\include\c++\4.8.4\bits\stl_list.h **** 	  _M_assign_dispatch(__first, __last, _Integral());
 731:d:\programy\gnu tools arm embedded\4.8 2014q2\arm-none-eabi\include\c++\4.8.4\bits\stl_list.h **** 	}
 732:d:\programy\gnu tools arm embedded\4.8 2014q2\arm-none-eabi\include\c++\4.8.4\bits\stl_list.h **** #endif
 733:d:\programy\gnu tools arm embedded\4.8 2014q2\arm-none-eabi\include\c++\4.8.4\bits\stl_list.h **** 
 734:d:\programy\gnu tools arm embedded\4.8 2014q2\arm-none-eabi\include\c++\4.8.4\bits\stl_list.h **** #if __cplusplus >= 201103L
 735:d:\programy\gnu tools arm embedded\4.8 2014q2\arm-none-eabi\include\c++\4.8.4\bits\stl_list.h ****       /**
 736:d:\programy\gnu tools arm embedded\4.8 2014q2\arm-none-eabi\include\c++\4.8.4\bits\stl_list.h ****        *  @brief  Assigns an initializer_list to a %list.
 737:d:\programy\gnu tools arm embedded\4.8 2014q2\arm-none-eabi\include\c++\4.8.4\bits\stl_list.h ****        *  @param  __l  An initializer_list of value_type.
 738:d:\programy\gnu tools arm embedded\4.8 2014q2\arm-none-eabi\include\c++\4.8.4\bits\stl_list.h ****        *
 739:d:\programy\gnu tools arm embedded\4.8 2014q2\arm-none-eabi\include\c++\4.8.4\bits\stl_list.h ****        *  Replace the contents of the %list with copies of the elements
 740:d:\programy\gnu tools arm embedded\4.8 2014q2\arm-none-eabi\include\c++\4.8.4\bits\stl_list.h ****        *  in the initializer_list @a __l.  This is linear in __l.size().
 741:d:\programy\gnu tools arm embedded\4.8 2014q2\arm-none-eabi\include\c++\4.8.4\bits\stl_list.h ****        */
 742:d:\programy\gnu tools arm embedded\4.8 2014q2\arm-none-eabi\include\c++\4.8.4\bits\stl_list.h ****       void
 743:d:\programy\gnu tools arm embedded\4.8 2014q2\arm-none-eabi\include\c++\4.8.4\bits\stl_list.h ****       assign(initializer_list<value_type> __l)
 744:d:\programy\gnu tools arm embedded\4.8 2014q2\arm-none-eabi\include\c++\4.8.4\bits\stl_list.h ****       { this->assign(__l.begin(), __l.end()); }
 745:d:\programy\gnu tools arm embedded\4.8 2014q2\arm-none-eabi\include\c++\4.8.4\bits\stl_list.h **** #endif
 746:d:\programy\gnu tools arm embedded\4.8 2014q2\arm-none-eabi\include\c++\4.8.4\bits\stl_list.h **** 
 747:d:\programy\gnu tools arm embedded\4.8 2014q2\arm-none-eabi\include\c++\4.8.4\bits\stl_list.h ****       /// Get a copy of the memory allocation object.
 748:d:\programy\gnu tools arm embedded\4.8 2014q2\arm-none-eabi\include\c++\4.8.4\bits\stl_list.h ****       allocator_type
 749:d:\programy\gnu tools arm embedded\4.8 2014q2\arm-none-eabi\include\c++\4.8.4\bits\stl_list.h ****       get_allocator() const _GLIBCXX_NOEXCEPT
 750:d:\programy\gnu tools arm embedded\4.8 2014q2\arm-none-eabi\include\c++\4.8.4\bits\stl_list.h ****       { return _Base::get_allocator(); }
 751:d:\programy\gnu tools arm embedded\4.8 2014q2\arm-none-eabi\include\c++\4.8.4\bits\stl_list.h **** 
 752:d:\programy\gnu tools arm embedded\4.8 2014q2\arm-none-eabi\include\c++\4.8.4\bits\stl_list.h ****       // iterators
 753:d:\programy\gnu tools arm embedded\4.8 2014q2\arm-none-eabi\include\c++\4.8.4\bits\stl_list.h ****       /**
 754:d:\programy\gnu tools arm embedded\4.8 2014q2\arm-none-eabi\include\c++\4.8.4\bits\stl_list.h ****        *  Returns a read/write iterator that points to the first element in the
 755:d:\programy\gnu tools arm embedded\4.8 2014q2\arm-none-eabi\include\c++\4.8.4\bits\stl_list.h ****        *  %list.  Iteration is done in ordinary element order.
 756:d:\programy\gnu tools arm embedded\4.8 2014q2\arm-none-eabi\include\c++\4.8.4\bits\stl_list.h ****        */
 757:d:\programy\gnu tools arm embedded\4.8 2014q2\arm-none-eabi\include\c++\4.8.4\bits\stl_list.h ****       iterator
 758:d:\programy\gnu tools arm embedded\4.8 2014q2\arm-none-eabi\include\c++\4.8.4\bits\stl_list.h ****       begin() _GLIBCXX_NOEXCEPT
 966              		.loc 2 758 0
 967              		.cfi_startproc
 968              		@ args = 0, pretend = 0, frame = 16
 969              		@ frame_needed = 1, uses_anonymous_args = 0
 970 0000 80B5     		push	{r7, lr}	@
 971              		.cfi_def_cfa_offset 8
 972              		.cfi_offset 7, -8
 973              		.cfi_offset 14, -4
 974 0002 84B0     		sub	sp, sp, #16	@,,
 975              		.cfi_def_cfa_offset 24
 976 0004 00AF     		add	r7, sp, #0	@,,
 977              		.cfi_def_cfa_register 7
 978 0006 7860     		str	r0, [r7, #4]	@ this, this
 759:d:\programy\gnu tools arm embedded\4.8 2014q2\arm-none-eabi\include\c++\4.8.4\bits\stl_list.h ****       { return iterator(this->_M_impl._M_node._M_next); }
 979              		.loc 2 759 0
 980 0008 7B68     		ldr	r3, [r7, #4]	@ tmp113, this
 981 000a 1B68     		ldr	r3, [r3]	@ D.15943, this_1(D)->D.14986._M_impl._M_node._M_next
 982 000c 07F10C02 		add	r2, r7, #12	@ tmp114,,
 983 0010 1046     		mov	r0, r2	@, tmp114
 984 0012 1946     		mov	r1, r3	@, D.15943
 985 0014 FFF7FEFF 		bl	_ZNSt14_List_iteratorIPK17CommandDefinitionEC1EPNSt8__detail15_List_node_baseE	@
ARM GAS  C:\Users\Adrian\AppData\Local\Temp\ccxGI9oe.s 			page 41


 986 0018 FB68     		ldr	r3, [r7, #12]	@ D.15721, D.15352
 987 001a 1846     		mov	r0, r3	@, <retval>
 988 001c 1037     		adds	r7, r7, #16	@,,
 989 001e BD46     		mov	sp, r7	@,
 990              		@ sp needed	@
 991 0020 80BD     		pop	{r7, pc}	@
 992              		.cfi_endproc
 993              	.LFE510:
 994              		.size	_ZNSt4listIPK17CommandDefinitionSaIS2_EE5beginEv, .-_ZNSt4listIPK17CommandDefinitionSaIS2_EE
 995 0022 00BF     		.section	.text._ZNSt4listIPK17CommandDefinitionSaIS2_EE3endEv,"axG",%progbits,_ZNSt4listIPK17Comma
 996              		.align	2
 997              		.weak	_ZNSt4listIPK17CommandDefinitionSaIS2_EE3endEv
 998              		.thumb
 999              		.thumb_func
 1000              		.type	_ZNSt4listIPK17CommandDefinitionSaIS2_EE3endEv, %function
 1001              	_ZNSt4listIPK17CommandDefinitionSaIS2_EE3endEv:
 1002              	.LFB511:
 760:d:\programy\gnu tools arm embedded\4.8 2014q2\arm-none-eabi\include\c++\4.8.4\bits\stl_list.h **** 
 761:d:\programy\gnu tools arm embedded\4.8 2014q2\arm-none-eabi\include\c++\4.8.4\bits\stl_list.h ****       /**
 762:d:\programy\gnu tools arm embedded\4.8 2014q2\arm-none-eabi\include\c++\4.8.4\bits\stl_list.h ****        *  Returns a read-only (constant) iterator that points to the
 763:d:\programy\gnu tools arm embedded\4.8 2014q2\arm-none-eabi\include\c++\4.8.4\bits\stl_list.h ****        *  first element in the %list.  Iteration is done in ordinary
 764:d:\programy\gnu tools arm embedded\4.8 2014q2\arm-none-eabi\include\c++\4.8.4\bits\stl_list.h ****        *  element order.
 765:d:\programy\gnu tools arm embedded\4.8 2014q2\arm-none-eabi\include\c++\4.8.4\bits\stl_list.h ****        */
 766:d:\programy\gnu tools arm embedded\4.8 2014q2\arm-none-eabi\include\c++\4.8.4\bits\stl_list.h ****       const_iterator
 767:d:\programy\gnu tools arm embedded\4.8 2014q2\arm-none-eabi\include\c++\4.8.4\bits\stl_list.h ****       begin() const _GLIBCXX_NOEXCEPT
 768:d:\programy\gnu tools arm embedded\4.8 2014q2\arm-none-eabi\include\c++\4.8.4\bits\stl_list.h ****       { return const_iterator(this->_M_impl._M_node._M_next); }
 769:d:\programy\gnu tools arm embedded\4.8 2014q2\arm-none-eabi\include\c++\4.8.4\bits\stl_list.h **** 
 770:d:\programy\gnu tools arm embedded\4.8 2014q2\arm-none-eabi\include\c++\4.8.4\bits\stl_list.h ****       /**
 771:d:\programy\gnu tools arm embedded\4.8 2014q2\arm-none-eabi\include\c++\4.8.4\bits\stl_list.h ****        *  Returns a read/write iterator that points one past the last
 772:d:\programy\gnu tools arm embedded\4.8 2014q2\arm-none-eabi\include\c++\4.8.4\bits\stl_list.h ****        *  element in the %list.  Iteration is done in ordinary element
 773:d:\programy\gnu tools arm embedded\4.8 2014q2\arm-none-eabi\include\c++\4.8.4\bits\stl_list.h ****        *  order.
 774:d:\programy\gnu tools arm embedded\4.8 2014q2\arm-none-eabi\include\c++\4.8.4\bits\stl_list.h ****        */
 775:d:\programy\gnu tools arm embedded\4.8 2014q2\arm-none-eabi\include\c++\4.8.4\bits\stl_list.h ****       iterator
 776:d:\programy\gnu tools arm embedded\4.8 2014q2\arm-none-eabi\include\c++\4.8.4\bits\stl_list.h ****       end() _GLIBCXX_NOEXCEPT
 1003              		.loc 2 776 0
 1004              		.cfi_startproc
 1005              		@ args = 0, pretend = 0, frame = 16
 1006              		@ frame_needed = 1, uses_anonymous_args = 0
 1007 0000 80B5     		push	{r7, lr}	@
 1008              		.cfi_def_cfa_offset 8
 1009              		.cfi_offset 7, -8
 1010              		.cfi_offset 14, -4
 1011 0002 84B0     		sub	sp, sp, #16	@,,
 1012              		.cfi_def_cfa_offset 24
 1013 0004 00AF     		add	r7, sp, #0	@,,
 1014              		.cfi_def_cfa_register 7
 1015 0006 7860     		str	r0, [r7, #4]	@ this, this
 777:d:\programy\gnu tools arm embedded\4.8 2014q2\arm-none-eabi\include\c++\4.8.4\bits\stl_list.h ****       { return iterator(&this->_M_impl._M_node); }
 1016              		.loc 2 777 0
 1017 0008 7B68     		ldr	r3, [r7, #4]	@ D.15944, this
 1018 000a 07F10C02 		add	r2, r7, #12	@ tmp113,,
 1019 000e 1046     		mov	r0, r2	@, tmp113
 1020 0010 1946     		mov	r1, r3	@, D.15944
 1021 0012 FFF7FEFF 		bl	_ZNSt14_List_iteratorIPK17CommandDefinitionEC1EPNSt8__detail15_List_node_baseE	@
 1022 0016 FB68     		ldr	r3, [r7, #12]	@ D.15727, D.15354
 1023 0018 1846     		mov	r0, r3	@, <retval>
 1024 001a 1037     		adds	r7, r7, #16	@,,
ARM GAS  C:\Users\Adrian\AppData\Local\Temp\ccxGI9oe.s 			page 42


 1025 001c BD46     		mov	sp, r7	@,
 1026              		@ sp needed	@
 1027 001e 80BD     		pop	{r7, pc}	@
 1028              		.cfi_endproc
 1029              	.LFE511:
 1030              		.size	_ZNSt4listIPK17CommandDefinitionSaIS2_EE3endEv, .-_ZNSt4listIPK17CommandDefinitionSaIS2_EE3e
 1031              		.section	.text._ZNKSt14_List_iteratorIPK17CommandDefinitionEneERKS3_,"axG",%progbits,_ZNKSt14_List
 1032              		.align	2
 1033              		.weak	_ZNKSt14_List_iteratorIPK17CommandDefinitionEneERKS3_
 1034              		.thumb
 1035              		.thumb_func
 1036              		.type	_ZNKSt14_List_iteratorIPK17CommandDefinitionEneERKS3_, %function
 1037              	_ZNKSt14_List_iteratorIPK17CommandDefinitionEneERKS3_:
 1038              	.LFB512:
 187:d:\programy\gnu tools arm embedded\4.8 2014q2\arm-none-eabi\include\c++\4.8.4\bits\stl_list.h ****       operator!=(const _Self& __x) const
 1039              		.loc 2 187 0
 1040              		.cfi_startproc
 1041              		@ args = 0, pretend = 0, frame = 8
 1042              		@ frame_needed = 1, uses_anonymous_args = 0
 1043              		@ link register save eliminated.
 1044 0000 80B4     		push	{r7}	@
 1045              		.cfi_def_cfa_offset 4
 1046              		.cfi_offset 7, -4
 1047 0002 83B0     		sub	sp, sp, #12	@,,
 1048              		.cfi_def_cfa_offset 16
 1049 0004 00AF     		add	r7, sp, #0	@,,
 1050              		.cfi_def_cfa_register 7
 1051 0006 7860     		str	r0, [r7, #4]	@ this, this
 1052 0008 3960     		str	r1, [r7]	@ __x, __x
 188:d:\programy\gnu tools arm embedded\4.8 2014q2\arm-none-eabi\include\c++\4.8.4\bits\stl_list.h ****       { return _M_node != __x._M_node; }
 1053              		.loc 2 188 0
 1054 000a 7B68     		ldr	r3, [r7, #4]	@ tmp114, this
 1055 000c 1A68     		ldr	r2, [r3]	@ D.15945, this_1(D)->_M_node
 1056 000e 3B68     		ldr	r3, [r7]	@ tmp115, __x
 1057 0010 1B68     		ldr	r3, [r3]	@ D.15945, __x_3(D)->_M_node
 1058 0012 9A42     		cmp	r2, r3	@ D.15945, D.15945
 1059 0014 0CBF     		ite	eq	@
 1060 0016 0023     		moveq	r3, #0	@, tmp117
 1061 0018 0123     		movne	r3, #1	@, tmp117
 1062 001a DBB2     		uxtb	r3, r3	@ D.15946, tmp116
 1063 001c 1846     		mov	r0, r3	@, <retval>
 1064 001e 0C37     		adds	r7, r7, #12	@,,
 1065 0020 BD46     		mov	sp, r7	@,
 1066              		@ sp needed	@
 1067 0022 5DF8047B 		ldr	r7, [sp], #4	@,
 1068 0026 7047     		bx	lr	@
 1069              		.cfi_endproc
 1070              	.LFE512:
 1071              		.size	_ZNKSt14_List_iteratorIPK17CommandDefinitionEneERKS3_, .-_ZNKSt14_List_iteratorIPK17CommandD
 1072              		.section	.text._ZNSt14_List_iteratorIPK17CommandDefinitionEppEv,"axG",%progbits,_ZNSt14_List_itera
 1073              		.align	2
 1074              		.weak	_ZNSt14_List_iteratorIPK17CommandDefinitionEppEv
 1075              		.thumb
 1076              		.thumb_func
 1077              		.type	_ZNSt14_List_iteratorIPK17CommandDefinitionEppEv, %function
 1078              	_ZNSt14_List_iteratorIPK17CommandDefinitionEppEv:
 1079              	.LFB513:
ARM GAS  C:\Users\Adrian\AppData\Local\Temp\ccxGI9oe.s 			page 43


 153:d:\programy\gnu tools arm embedded\4.8 2014q2\arm-none-eabi\include\c++\4.8.4\bits\stl_list.h ****       operator++()
 1080              		.loc 2 153 0
 1081              		.cfi_startproc
 1082              		@ args = 0, pretend = 0, frame = 8
 1083              		@ frame_needed = 1, uses_anonymous_args = 0
 1084              		@ link register save eliminated.
 1085 0000 80B4     		push	{r7}	@
 1086              		.cfi_def_cfa_offset 4
 1087              		.cfi_offset 7, -4
 1088 0002 83B0     		sub	sp, sp, #12	@,,
 1089              		.cfi_def_cfa_offset 16
 1090 0004 00AF     		add	r7, sp, #0	@,,
 1091              		.cfi_def_cfa_register 7
 1092 0006 7860     		str	r0, [r7, #4]	@ this, this
 155:d:\programy\gnu tools arm embedded\4.8 2014q2\arm-none-eabi\include\c++\4.8.4\bits\stl_list.h **** 	_M_node = _M_node->_M_next;
 1093              		.loc 2 155 0
 1094 0008 7B68     		ldr	r3, [r7, #4]	@ tmp114, this
 1095 000a 1B68     		ldr	r3, [r3]	@ D.15947, this_1(D)->_M_node
 1096 000c 1A68     		ldr	r2, [r3]	@ D.15947, _2->_M_next
 1097 000e 7B68     		ldr	r3, [r7, #4]	@ tmp115, this
 1098 0010 1A60     		str	r2, [r3]	@ D.15947, this_1(D)->_M_node
 156:d:\programy\gnu tools arm embedded\4.8 2014q2\arm-none-eabi\include\c++\4.8.4\bits\stl_list.h **** 	return *this;
 1099              		.loc 2 156 0
 1100 0012 7B68     		ldr	r3, [r7, #4]	@ D.15948, this
 157:d:\programy\gnu tools arm embedded\4.8 2014q2\arm-none-eabi\include\c++\4.8.4\bits\stl_list.h ****       }
 1101              		.loc 2 157 0
 1102 0014 1846     		mov	r0, r3	@, <retval>
 1103 0016 0C37     		adds	r7, r7, #12	@,,
 1104 0018 BD46     		mov	sp, r7	@,
 1105              		@ sp needed	@
 1106 001a 5DF8047B 		ldr	r7, [sp], #4	@,
 1107 001e 7047     		bx	lr	@
 1108              		.cfi_endproc
 1109              	.LFE513:
 1110              		.size	_ZNSt14_List_iteratorIPK17CommandDefinitionEppEv, .-_ZNSt14_List_iteratorIPK17CommandDefinit
 1111              		.section	.text._ZNKSt14_List_iteratorIPK17CommandDefinitionEdeEv,"axG",%progbits,_ZNKSt14_List_ite
 1112              		.align	2
 1113              		.weak	_ZNKSt14_List_iteratorIPK17CommandDefinitionEdeEv
 1114              		.thumb
 1115              		.thumb_func
 1116              		.type	_ZNKSt14_List_iteratorIPK17CommandDefinitionEdeEv, %function
 1117              	_ZNKSt14_List_iteratorIPK17CommandDefinitionEdeEv:
 1118              	.LFB514:
 145:d:\programy\gnu tools arm embedded\4.8 2014q2\arm-none-eabi\include\c++\4.8.4\bits\stl_list.h ****       operator*() const
 1119              		.loc 2 145 0
 1120              		.cfi_startproc
 1121              		@ args = 0, pretend = 0, frame = 8
 1122              		@ frame_needed = 1, uses_anonymous_args = 0
 1123              		@ link register save eliminated.
 1124 0000 80B4     		push	{r7}	@
 1125              		.cfi_def_cfa_offset 4
 1126              		.cfi_offset 7, -4
 1127 0002 83B0     		sub	sp, sp, #12	@,,
 1128              		.cfi_def_cfa_offset 16
 1129 0004 00AF     		add	r7, sp, #0	@,,
 1130              		.cfi_def_cfa_register 7
 1131 0006 7860     		str	r0, [r7, #4]	@ this, this
ARM GAS  C:\Users\Adrian\AppData\Local\Temp\ccxGI9oe.s 			page 44


 146:d:\programy\gnu tools arm embedded\4.8 2014q2\arm-none-eabi\include\c++\4.8.4\bits\stl_list.h ****       { return static_cast<_Node*>(_M_node)->_M_data; }
 1132              		.loc 2 146 0
 1133 0008 7B68     		ldr	r3, [r7, #4]	@ tmp113, this
 1134 000a 1B68     		ldr	r3, [r3]	@ D.15949, this_1(D)->_M_node
 1135 000c 0833     		adds	r3, r3, #8	@ D.15950, D.15949,
 1136 000e 1846     		mov	r0, r3	@, <retval>
 1137 0010 0C37     		adds	r7, r7, #12	@,,
 1138 0012 BD46     		mov	sp, r7	@,
 1139              		@ sp needed	@
 1140 0014 5DF8047B 		ldr	r7, [sp], #4	@,
 1141 0018 7047     		bx	lr	@
 1142              		.cfi_endproc
 1143              	.LFE514:
 1144              		.size	_ZNKSt14_List_iteratorIPK17CommandDefinitionEdeEv, .-_ZNKSt14_List_iteratorIPK17CommandDefin
 1145 001a 00BF     		.section	.text._ZNSt4listIPK17CommandDefinitionSaIS2_EE9push_backERKS2_,"axG",%progbits,_ZNSt4list
 1146              		.align	2
 1147              		.weak	_ZNSt4listIPK17CommandDefinitionSaIS2_EE9push_backERKS2_
 1148              		.thumb
 1149              		.thumb_func
 1150              		.type	_ZNSt4listIPK17CommandDefinitionSaIS2_EE9push_backERKS2_, %function
 1151              	_ZNSt4listIPK17CommandDefinitionSaIS2_EE9push_backERKS2_:
 1152              	.LFB515:
 778:d:\programy\gnu tools arm embedded\4.8 2014q2\arm-none-eabi\include\c++\4.8.4\bits\stl_list.h **** 
 779:d:\programy\gnu tools arm embedded\4.8 2014q2\arm-none-eabi\include\c++\4.8.4\bits\stl_list.h ****       /**
 780:d:\programy\gnu tools arm embedded\4.8 2014q2\arm-none-eabi\include\c++\4.8.4\bits\stl_list.h ****        *  Returns a read-only (constant) iterator that points one past
 781:d:\programy\gnu tools arm embedded\4.8 2014q2\arm-none-eabi\include\c++\4.8.4\bits\stl_list.h ****        *  the last element in the %list.  Iteration is done in ordinary
 782:d:\programy\gnu tools arm embedded\4.8 2014q2\arm-none-eabi\include\c++\4.8.4\bits\stl_list.h ****        *  element order.
 783:d:\programy\gnu tools arm embedded\4.8 2014q2\arm-none-eabi\include\c++\4.8.4\bits\stl_list.h ****        */
 784:d:\programy\gnu tools arm embedded\4.8 2014q2\arm-none-eabi\include\c++\4.8.4\bits\stl_list.h ****       const_iterator
 785:d:\programy\gnu tools arm embedded\4.8 2014q2\arm-none-eabi\include\c++\4.8.4\bits\stl_list.h ****       end() const _GLIBCXX_NOEXCEPT
 786:d:\programy\gnu tools arm embedded\4.8 2014q2\arm-none-eabi\include\c++\4.8.4\bits\stl_list.h ****       { return const_iterator(&this->_M_impl._M_node); }
 787:d:\programy\gnu tools arm embedded\4.8 2014q2\arm-none-eabi\include\c++\4.8.4\bits\stl_list.h **** 
 788:d:\programy\gnu tools arm embedded\4.8 2014q2\arm-none-eabi\include\c++\4.8.4\bits\stl_list.h ****       /**
 789:d:\programy\gnu tools arm embedded\4.8 2014q2\arm-none-eabi\include\c++\4.8.4\bits\stl_list.h ****        *  Returns a read/write reverse iterator that points to the last
 790:d:\programy\gnu tools arm embedded\4.8 2014q2\arm-none-eabi\include\c++\4.8.4\bits\stl_list.h ****        *  element in the %list.  Iteration is done in reverse element
 791:d:\programy\gnu tools arm embedded\4.8 2014q2\arm-none-eabi\include\c++\4.8.4\bits\stl_list.h ****        *  order.
 792:d:\programy\gnu tools arm embedded\4.8 2014q2\arm-none-eabi\include\c++\4.8.4\bits\stl_list.h ****        */
 793:d:\programy\gnu tools arm embedded\4.8 2014q2\arm-none-eabi\include\c++\4.8.4\bits\stl_list.h ****       reverse_iterator
 794:d:\programy\gnu tools arm embedded\4.8 2014q2\arm-none-eabi\include\c++\4.8.4\bits\stl_list.h ****       rbegin() _GLIBCXX_NOEXCEPT
 795:d:\programy\gnu tools arm embedded\4.8 2014q2\arm-none-eabi\include\c++\4.8.4\bits\stl_list.h ****       { return reverse_iterator(end()); }
 796:d:\programy\gnu tools arm embedded\4.8 2014q2\arm-none-eabi\include\c++\4.8.4\bits\stl_list.h **** 
 797:d:\programy\gnu tools arm embedded\4.8 2014q2\arm-none-eabi\include\c++\4.8.4\bits\stl_list.h ****       /**
 798:d:\programy\gnu tools arm embedded\4.8 2014q2\arm-none-eabi\include\c++\4.8.4\bits\stl_list.h ****        *  Returns a read-only (constant) reverse iterator that points to
 799:d:\programy\gnu tools arm embedded\4.8 2014q2\arm-none-eabi\include\c++\4.8.4\bits\stl_list.h ****        *  the last element in the %list.  Iteration is done in reverse
 800:d:\programy\gnu tools arm embedded\4.8 2014q2\arm-none-eabi\include\c++\4.8.4\bits\stl_list.h ****        *  element order.
 801:d:\programy\gnu tools arm embedded\4.8 2014q2\arm-none-eabi\include\c++\4.8.4\bits\stl_list.h ****        */
 802:d:\programy\gnu tools arm embedded\4.8 2014q2\arm-none-eabi\include\c++\4.8.4\bits\stl_list.h ****       const_reverse_iterator
 803:d:\programy\gnu tools arm embedded\4.8 2014q2\arm-none-eabi\include\c++\4.8.4\bits\stl_list.h ****       rbegin() const _GLIBCXX_NOEXCEPT
 804:d:\programy\gnu tools arm embedded\4.8 2014q2\arm-none-eabi\include\c++\4.8.4\bits\stl_list.h ****       { return const_reverse_iterator(end()); }
 805:d:\programy\gnu tools arm embedded\4.8 2014q2\arm-none-eabi\include\c++\4.8.4\bits\stl_list.h **** 
 806:d:\programy\gnu tools arm embedded\4.8 2014q2\arm-none-eabi\include\c++\4.8.4\bits\stl_list.h ****       /**
 807:d:\programy\gnu tools arm embedded\4.8 2014q2\arm-none-eabi\include\c++\4.8.4\bits\stl_list.h ****        *  Returns a read/write reverse iterator that points to one
 808:d:\programy\gnu tools arm embedded\4.8 2014q2\arm-none-eabi\include\c++\4.8.4\bits\stl_list.h ****        *  before the first element in the %list.  Iteration is done in
 809:d:\programy\gnu tools arm embedded\4.8 2014q2\arm-none-eabi\include\c++\4.8.4\bits\stl_list.h ****        *  reverse element order.
 810:d:\programy\gnu tools arm embedded\4.8 2014q2\arm-none-eabi\include\c++\4.8.4\bits\stl_list.h ****        */
 811:d:\programy\gnu tools arm embedded\4.8 2014q2\arm-none-eabi\include\c++\4.8.4\bits\stl_list.h ****       reverse_iterator
 812:d:\programy\gnu tools arm embedded\4.8 2014q2\arm-none-eabi\include\c++\4.8.4\bits\stl_list.h ****       rend() _GLIBCXX_NOEXCEPT
ARM GAS  C:\Users\Adrian\AppData\Local\Temp\ccxGI9oe.s 			page 45


 813:d:\programy\gnu tools arm embedded\4.8 2014q2\arm-none-eabi\include\c++\4.8.4\bits\stl_list.h ****       { return reverse_iterator(begin()); }
 814:d:\programy\gnu tools arm embedded\4.8 2014q2\arm-none-eabi\include\c++\4.8.4\bits\stl_list.h **** 
 815:d:\programy\gnu tools arm embedded\4.8 2014q2\arm-none-eabi\include\c++\4.8.4\bits\stl_list.h ****       /**
 816:d:\programy\gnu tools arm embedded\4.8 2014q2\arm-none-eabi\include\c++\4.8.4\bits\stl_list.h ****        *  Returns a read-only (constant) reverse iterator that points to one
 817:d:\programy\gnu tools arm embedded\4.8 2014q2\arm-none-eabi\include\c++\4.8.4\bits\stl_list.h ****        *  before the first element in the %list.  Iteration is done in reverse
 818:d:\programy\gnu tools arm embedded\4.8 2014q2\arm-none-eabi\include\c++\4.8.4\bits\stl_list.h ****        *  element order.
 819:d:\programy\gnu tools arm embedded\4.8 2014q2\arm-none-eabi\include\c++\4.8.4\bits\stl_list.h ****        */
 820:d:\programy\gnu tools arm embedded\4.8 2014q2\arm-none-eabi\include\c++\4.8.4\bits\stl_list.h ****       const_reverse_iterator
 821:d:\programy\gnu tools arm embedded\4.8 2014q2\arm-none-eabi\include\c++\4.8.4\bits\stl_list.h ****       rend() const _GLIBCXX_NOEXCEPT
 822:d:\programy\gnu tools arm embedded\4.8 2014q2\arm-none-eabi\include\c++\4.8.4\bits\stl_list.h ****       { return const_reverse_iterator(begin()); }
 823:d:\programy\gnu tools arm embedded\4.8 2014q2\arm-none-eabi\include\c++\4.8.4\bits\stl_list.h **** 
 824:d:\programy\gnu tools arm embedded\4.8 2014q2\arm-none-eabi\include\c++\4.8.4\bits\stl_list.h **** #if __cplusplus >= 201103L
 825:d:\programy\gnu tools arm embedded\4.8 2014q2\arm-none-eabi\include\c++\4.8.4\bits\stl_list.h ****       /**
 826:d:\programy\gnu tools arm embedded\4.8 2014q2\arm-none-eabi\include\c++\4.8.4\bits\stl_list.h ****        *  Returns a read-only (constant) iterator that points to the
 827:d:\programy\gnu tools arm embedded\4.8 2014q2\arm-none-eabi\include\c++\4.8.4\bits\stl_list.h ****        *  first element in the %list.  Iteration is done in ordinary
 828:d:\programy\gnu tools arm embedded\4.8 2014q2\arm-none-eabi\include\c++\4.8.4\bits\stl_list.h ****        *  element order.
 829:d:\programy\gnu tools arm embedded\4.8 2014q2\arm-none-eabi\include\c++\4.8.4\bits\stl_list.h ****        */
 830:d:\programy\gnu tools arm embedded\4.8 2014q2\arm-none-eabi\include\c++\4.8.4\bits\stl_list.h ****       const_iterator
 831:d:\programy\gnu tools arm embedded\4.8 2014q2\arm-none-eabi\include\c++\4.8.4\bits\stl_list.h ****       cbegin() const noexcept
 832:d:\programy\gnu tools arm embedded\4.8 2014q2\arm-none-eabi\include\c++\4.8.4\bits\stl_list.h ****       { return const_iterator(this->_M_impl._M_node._M_next); }
 833:d:\programy\gnu tools arm embedded\4.8 2014q2\arm-none-eabi\include\c++\4.8.4\bits\stl_list.h **** 
 834:d:\programy\gnu tools arm embedded\4.8 2014q2\arm-none-eabi\include\c++\4.8.4\bits\stl_list.h ****       /**
 835:d:\programy\gnu tools arm embedded\4.8 2014q2\arm-none-eabi\include\c++\4.8.4\bits\stl_list.h ****        *  Returns a read-only (constant) iterator that points one past
 836:d:\programy\gnu tools arm embedded\4.8 2014q2\arm-none-eabi\include\c++\4.8.4\bits\stl_list.h ****        *  the last element in the %list.  Iteration is done in ordinary
 837:d:\programy\gnu tools arm embedded\4.8 2014q2\arm-none-eabi\include\c++\4.8.4\bits\stl_list.h ****        *  element order.
 838:d:\programy\gnu tools arm embedded\4.8 2014q2\arm-none-eabi\include\c++\4.8.4\bits\stl_list.h ****        */
 839:d:\programy\gnu tools arm embedded\4.8 2014q2\arm-none-eabi\include\c++\4.8.4\bits\stl_list.h ****       const_iterator
 840:d:\programy\gnu tools arm embedded\4.8 2014q2\arm-none-eabi\include\c++\4.8.4\bits\stl_list.h ****       cend() const noexcept
 841:d:\programy\gnu tools arm embedded\4.8 2014q2\arm-none-eabi\include\c++\4.8.4\bits\stl_list.h ****       { return const_iterator(&this->_M_impl._M_node); }
 842:d:\programy\gnu tools arm embedded\4.8 2014q2\arm-none-eabi\include\c++\4.8.4\bits\stl_list.h **** 
 843:d:\programy\gnu tools arm embedded\4.8 2014q2\arm-none-eabi\include\c++\4.8.4\bits\stl_list.h ****       /**
 844:d:\programy\gnu tools arm embedded\4.8 2014q2\arm-none-eabi\include\c++\4.8.4\bits\stl_list.h ****        *  Returns a read-only (constant) reverse iterator that points to
 845:d:\programy\gnu tools arm embedded\4.8 2014q2\arm-none-eabi\include\c++\4.8.4\bits\stl_list.h ****        *  the last element in the %list.  Iteration is done in reverse
 846:d:\programy\gnu tools arm embedded\4.8 2014q2\arm-none-eabi\include\c++\4.8.4\bits\stl_list.h ****        *  element order.
 847:d:\programy\gnu tools arm embedded\4.8 2014q2\arm-none-eabi\include\c++\4.8.4\bits\stl_list.h ****        */
 848:d:\programy\gnu tools arm embedded\4.8 2014q2\arm-none-eabi\include\c++\4.8.4\bits\stl_list.h ****       const_reverse_iterator
 849:d:\programy\gnu tools arm embedded\4.8 2014q2\arm-none-eabi\include\c++\4.8.4\bits\stl_list.h ****       crbegin() const noexcept
 850:d:\programy\gnu tools arm embedded\4.8 2014q2\arm-none-eabi\include\c++\4.8.4\bits\stl_list.h ****       { return const_reverse_iterator(end()); }
 851:d:\programy\gnu tools arm embedded\4.8 2014q2\arm-none-eabi\include\c++\4.8.4\bits\stl_list.h **** 
 852:d:\programy\gnu tools arm embedded\4.8 2014q2\arm-none-eabi\include\c++\4.8.4\bits\stl_list.h ****       /**
 853:d:\programy\gnu tools arm embedded\4.8 2014q2\arm-none-eabi\include\c++\4.8.4\bits\stl_list.h ****        *  Returns a read-only (constant) reverse iterator that points to one
 854:d:\programy\gnu tools arm embedded\4.8 2014q2\arm-none-eabi\include\c++\4.8.4\bits\stl_list.h ****        *  before the first element in the %list.  Iteration is done in reverse
 855:d:\programy\gnu tools arm embedded\4.8 2014q2\arm-none-eabi\include\c++\4.8.4\bits\stl_list.h ****        *  element order.
 856:d:\programy\gnu tools arm embedded\4.8 2014q2\arm-none-eabi\include\c++\4.8.4\bits\stl_list.h ****        */
 857:d:\programy\gnu tools arm embedded\4.8 2014q2\arm-none-eabi\include\c++\4.8.4\bits\stl_list.h ****       const_reverse_iterator
 858:d:\programy\gnu tools arm embedded\4.8 2014q2\arm-none-eabi\include\c++\4.8.4\bits\stl_list.h ****       crend() const noexcept
 859:d:\programy\gnu tools arm embedded\4.8 2014q2\arm-none-eabi\include\c++\4.8.4\bits\stl_list.h ****       { return const_reverse_iterator(begin()); }
 860:d:\programy\gnu tools arm embedded\4.8 2014q2\arm-none-eabi\include\c++\4.8.4\bits\stl_list.h **** #endif
 861:d:\programy\gnu tools arm embedded\4.8 2014q2\arm-none-eabi\include\c++\4.8.4\bits\stl_list.h **** 
 862:d:\programy\gnu tools arm embedded\4.8 2014q2\arm-none-eabi\include\c++\4.8.4\bits\stl_list.h ****       // [23.2.2.2] capacity
 863:d:\programy\gnu tools arm embedded\4.8 2014q2\arm-none-eabi\include\c++\4.8.4\bits\stl_list.h ****       /**
 864:d:\programy\gnu tools arm embedded\4.8 2014q2\arm-none-eabi\include\c++\4.8.4\bits\stl_list.h ****        *  Returns true if the %list is empty.  (Thus begin() would equal
 865:d:\programy\gnu tools arm embedded\4.8 2014q2\arm-none-eabi\include\c++\4.8.4\bits\stl_list.h ****        *  end().)
 866:d:\programy\gnu tools arm embedded\4.8 2014q2\arm-none-eabi\include\c++\4.8.4\bits\stl_list.h ****        */
 867:d:\programy\gnu tools arm embedded\4.8 2014q2\arm-none-eabi\include\c++\4.8.4\bits\stl_list.h ****       bool
 868:d:\programy\gnu tools arm embedded\4.8 2014q2\arm-none-eabi\include\c++\4.8.4\bits\stl_list.h ****       empty() const _GLIBCXX_NOEXCEPT
 869:d:\programy\gnu tools arm embedded\4.8 2014q2\arm-none-eabi\include\c++\4.8.4\bits\stl_list.h ****       { return this->_M_impl._M_node._M_next == &this->_M_impl._M_node; }
ARM GAS  C:\Users\Adrian\AppData\Local\Temp\ccxGI9oe.s 			page 46


 870:d:\programy\gnu tools arm embedded\4.8 2014q2\arm-none-eabi\include\c++\4.8.4\bits\stl_list.h **** 
 871:d:\programy\gnu tools arm embedded\4.8 2014q2\arm-none-eabi\include\c++\4.8.4\bits\stl_list.h ****       /**  Returns the number of elements in the %list.  */
 872:d:\programy\gnu tools arm embedded\4.8 2014q2\arm-none-eabi\include\c++\4.8.4\bits\stl_list.h ****       size_type
 873:d:\programy\gnu tools arm embedded\4.8 2014q2\arm-none-eabi\include\c++\4.8.4\bits\stl_list.h ****       size() const _GLIBCXX_NOEXCEPT
 874:d:\programy\gnu tools arm embedded\4.8 2014q2\arm-none-eabi\include\c++\4.8.4\bits\stl_list.h ****       { return std::distance(begin(), end()); }
 875:d:\programy\gnu tools arm embedded\4.8 2014q2\arm-none-eabi\include\c++\4.8.4\bits\stl_list.h **** 
 876:d:\programy\gnu tools arm embedded\4.8 2014q2\arm-none-eabi\include\c++\4.8.4\bits\stl_list.h ****       /**  Returns the size() of the largest possible %list.  */
 877:d:\programy\gnu tools arm embedded\4.8 2014q2\arm-none-eabi\include\c++\4.8.4\bits\stl_list.h ****       size_type
 878:d:\programy\gnu tools arm embedded\4.8 2014q2\arm-none-eabi\include\c++\4.8.4\bits\stl_list.h ****       max_size() const _GLIBCXX_NOEXCEPT
 879:d:\programy\gnu tools arm embedded\4.8 2014q2\arm-none-eabi\include\c++\4.8.4\bits\stl_list.h ****       { return _M_get_Node_allocator().max_size(); }
 880:d:\programy\gnu tools arm embedded\4.8 2014q2\arm-none-eabi\include\c++\4.8.4\bits\stl_list.h **** 
 881:d:\programy\gnu tools arm embedded\4.8 2014q2\arm-none-eabi\include\c++\4.8.4\bits\stl_list.h **** #if __cplusplus >= 201103L
 882:d:\programy\gnu tools arm embedded\4.8 2014q2\arm-none-eabi\include\c++\4.8.4\bits\stl_list.h ****       /**
 883:d:\programy\gnu tools arm embedded\4.8 2014q2\arm-none-eabi\include\c++\4.8.4\bits\stl_list.h ****        *  @brief Resizes the %list to the specified number of elements.
 884:d:\programy\gnu tools arm embedded\4.8 2014q2\arm-none-eabi\include\c++\4.8.4\bits\stl_list.h ****        *  @param __new_size Number of elements the %list should contain.
 885:d:\programy\gnu tools arm embedded\4.8 2014q2\arm-none-eabi\include\c++\4.8.4\bits\stl_list.h ****        *
 886:d:\programy\gnu tools arm embedded\4.8 2014q2\arm-none-eabi\include\c++\4.8.4\bits\stl_list.h ****        *  This function will %resize the %list to the specified number
 887:d:\programy\gnu tools arm embedded\4.8 2014q2\arm-none-eabi\include\c++\4.8.4\bits\stl_list.h ****        *  of elements.  If the number is smaller than the %list's
 888:d:\programy\gnu tools arm embedded\4.8 2014q2\arm-none-eabi\include\c++\4.8.4\bits\stl_list.h ****        *  current size the %list is truncated, otherwise default
 889:d:\programy\gnu tools arm embedded\4.8 2014q2\arm-none-eabi\include\c++\4.8.4\bits\stl_list.h ****        *  constructed elements are appended.
 890:d:\programy\gnu tools arm embedded\4.8 2014q2\arm-none-eabi\include\c++\4.8.4\bits\stl_list.h ****        */
 891:d:\programy\gnu tools arm embedded\4.8 2014q2\arm-none-eabi\include\c++\4.8.4\bits\stl_list.h ****       void
 892:d:\programy\gnu tools arm embedded\4.8 2014q2\arm-none-eabi\include\c++\4.8.4\bits\stl_list.h ****       resize(size_type __new_size);
 893:d:\programy\gnu tools arm embedded\4.8 2014q2\arm-none-eabi\include\c++\4.8.4\bits\stl_list.h **** 
 894:d:\programy\gnu tools arm embedded\4.8 2014q2\arm-none-eabi\include\c++\4.8.4\bits\stl_list.h ****       /**
 895:d:\programy\gnu tools arm embedded\4.8 2014q2\arm-none-eabi\include\c++\4.8.4\bits\stl_list.h ****        *  @brief Resizes the %list to the specified number of elements.
 896:d:\programy\gnu tools arm embedded\4.8 2014q2\arm-none-eabi\include\c++\4.8.4\bits\stl_list.h ****        *  @param __new_size Number of elements the %list should contain.
 897:d:\programy\gnu tools arm embedded\4.8 2014q2\arm-none-eabi\include\c++\4.8.4\bits\stl_list.h ****        *  @param __x Data with which new elements should be populated.
 898:d:\programy\gnu tools arm embedded\4.8 2014q2\arm-none-eabi\include\c++\4.8.4\bits\stl_list.h ****        *
 899:d:\programy\gnu tools arm embedded\4.8 2014q2\arm-none-eabi\include\c++\4.8.4\bits\stl_list.h ****        *  This function will %resize the %list to the specified number
 900:d:\programy\gnu tools arm embedded\4.8 2014q2\arm-none-eabi\include\c++\4.8.4\bits\stl_list.h ****        *  of elements.  If the number is smaller than the %list's
 901:d:\programy\gnu tools arm embedded\4.8 2014q2\arm-none-eabi\include\c++\4.8.4\bits\stl_list.h ****        *  current size the %list is truncated, otherwise the %list is
 902:d:\programy\gnu tools arm embedded\4.8 2014q2\arm-none-eabi\include\c++\4.8.4\bits\stl_list.h ****        *  extended and new elements are populated with given data.
 903:d:\programy\gnu tools arm embedded\4.8 2014q2\arm-none-eabi\include\c++\4.8.4\bits\stl_list.h ****        */
 904:d:\programy\gnu tools arm embedded\4.8 2014q2\arm-none-eabi\include\c++\4.8.4\bits\stl_list.h ****       void
 905:d:\programy\gnu tools arm embedded\4.8 2014q2\arm-none-eabi\include\c++\4.8.4\bits\stl_list.h ****       resize(size_type __new_size, const value_type& __x);
 906:d:\programy\gnu tools arm embedded\4.8 2014q2\arm-none-eabi\include\c++\4.8.4\bits\stl_list.h **** #else
 907:d:\programy\gnu tools arm embedded\4.8 2014q2\arm-none-eabi\include\c++\4.8.4\bits\stl_list.h ****       /**
 908:d:\programy\gnu tools arm embedded\4.8 2014q2\arm-none-eabi\include\c++\4.8.4\bits\stl_list.h ****        *  @brief Resizes the %list to the specified number of elements.
 909:d:\programy\gnu tools arm embedded\4.8 2014q2\arm-none-eabi\include\c++\4.8.4\bits\stl_list.h ****        *  @param __new_size Number of elements the %list should contain.
 910:d:\programy\gnu tools arm embedded\4.8 2014q2\arm-none-eabi\include\c++\4.8.4\bits\stl_list.h ****        *  @param __x Data with which new elements should be populated.
 911:d:\programy\gnu tools arm embedded\4.8 2014q2\arm-none-eabi\include\c++\4.8.4\bits\stl_list.h ****        *
 912:d:\programy\gnu tools arm embedded\4.8 2014q2\arm-none-eabi\include\c++\4.8.4\bits\stl_list.h ****        *  This function will %resize the %list to the specified number
 913:d:\programy\gnu tools arm embedded\4.8 2014q2\arm-none-eabi\include\c++\4.8.4\bits\stl_list.h ****        *  of elements.  If the number is smaller than the %list's
 914:d:\programy\gnu tools arm embedded\4.8 2014q2\arm-none-eabi\include\c++\4.8.4\bits\stl_list.h ****        *  current size the %list is truncated, otherwise the %list is
 915:d:\programy\gnu tools arm embedded\4.8 2014q2\arm-none-eabi\include\c++\4.8.4\bits\stl_list.h ****        *  extended and new elements are populated with given data.
 916:d:\programy\gnu tools arm embedded\4.8 2014q2\arm-none-eabi\include\c++\4.8.4\bits\stl_list.h ****        */
 917:d:\programy\gnu tools arm embedded\4.8 2014q2\arm-none-eabi\include\c++\4.8.4\bits\stl_list.h ****       void
 918:d:\programy\gnu tools arm embedded\4.8 2014q2\arm-none-eabi\include\c++\4.8.4\bits\stl_list.h ****       resize(size_type __new_size, value_type __x = value_type());
 919:d:\programy\gnu tools arm embedded\4.8 2014q2\arm-none-eabi\include\c++\4.8.4\bits\stl_list.h **** #endif
 920:d:\programy\gnu tools arm embedded\4.8 2014q2\arm-none-eabi\include\c++\4.8.4\bits\stl_list.h **** 
 921:d:\programy\gnu tools arm embedded\4.8 2014q2\arm-none-eabi\include\c++\4.8.4\bits\stl_list.h ****       // element access
 922:d:\programy\gnu tools arm embedded\4.8 2014q2\arm-none-eabi\include\c++\4.8.4\bits\stl_list.h ****       /**
 923:d:\programy\gnu tools arm embedded\4.8 2014q2\arm-none-eabi\include\c++\4.8.4\bits\stl_list.h ****        *  Returns a read/write reference to the data at the first
 924:d:\programy\gnu tools arm embedded\4.8 2014q2\arm-none-eabi\include\c++\4.8.4\bits\stl_list.h ****        *  element of the %list.
 925:d:\programy\gnu tools arm embedded\4.8 2014q2\arm-none-eabi\include\c++\4.8.4\bits\stl_list.h ****        */
 926:d:\programy\gnu tools arm embedded\4.8 2014q2\arm-none-eabi\include\c++\4.8.4\bits\stl_list.h ****       reference
ARM GAS  C:\Users\Adrian\AppData\Local\Temp\ccxGI9oe.s 			page 47


 927:d:\programy\gnu tools arm embedded\4.8 2014q2\arm-none-eabi\include\c++\4.8.4\bits\stl_list.h ****       front()
 928:d:\programy\gnu tools arm embedded\4.8 2014q2\arm-none-eabi\include\c++\4.8.4\bits\stl_list.h ****       { return *begin(); }
 929:d:\programy\gnu tools arm embedded\4.8 2014q2\arm-none-eabi\include\c++\4.8.4\bits\stl_list.h **** 
 930:d:\programy\gnu tools arm embedded\4.8 2014q2\arm-none-eabi\include\c++\4.8.4\bits\stl_list.h ****       /**
 931:d:\programy\gnu tools arm embedded\4.8 2014q2\arm-none-eabi\include\c++\4.8.4\bits\stl_list.h ****        *  Returns a read-only (constant) reference to the data at the first
 932:d:\programy\gnu tools arm embedded\4.8 2014q2\arm-none-eabi\include\c++\4.8.4\bits\stl_list.h ****        *  element of the %list.
 933:d:\programy\gnu tools arm embedded\4.8 2014q2\arm-none-eabi\include\c++\4.8.4\bits\stl_list.h ****        */
 934:d:\programy\gnu tools arm embedded\4.8 2014q2\arm-none-eabi\include\c++\4.8.4\bits\stl_list.h ****       const_reference
 935:d:\programy\gnu tools arm embedded\4.8 2014q2\arm-none-eabi\include\c++\4.8.4\bits\stl_list.h ****       front() const
 936:d:\programy\gnu tools arm embedded\4.8 2014q2\arm-none-eabi\include\c++\4.8.4\bits\stl_list.h ****       { return *begin(); }
 937:d:\programy\gnu tools arm embedded\4.8 2014q2\arm-none-eabi\include\c++\4.8.4\bits\stl_list.h **** 
 938:d:\programy\gnu tools arm embedded\4.8 2014q2\arm-none-eabi\include\c++\4.8.4\bits\stl_list.h ****       /**
 939:d:\programy\gnu tools arm embedded\4.8 2014q2\arm-none-eabi\include\c++\4.8.4\bits\stl_list.h ****        *  Returns a read/write reference to the data at the last element
 940:d:\programy\gnu tools arm embedded\4.8 2014q2\arm-none-eabi\include\c++\4.8.4\bits\stl_list.h ****        *  of the %list.
 941:d:\programy\gnu tools arm embedded\4.8 2014q2\arm-none-eabi\include\c++\4.8.4\bits\stl_list.h ****        */
 942:d:\programy\gnu tools arm embedded\4.8 2014q2\arm-none-eabi\include\c++\4.8.4\bits\stl_list.h ****       reference
 943:d:\programy\gnu tools arm embedded\4.8 2014q2\arm-none-eabi\include\c++\4.8.4\bits\stl_list.h ****       back()
 944:d:\programy\gnu tools arm embedded\4.8 2014q2\arm-none-eabi\include\c++\4.8.4\bits\stl_list.h ****       { 
 945:d:\programy\gnu tools arm embedded\4.8 2014q2\arm-none-eabi\include\c++\4.8.4\bits\stl_list.h **** 	iterator __tmp = end();
 946:d:\programy\gnu tools arm embedded\4.8 2014q2\arm-none-eabi\include\c++\4.8.4\bits\stl_list.h **** 	--__tmp;
 947:d:\programy\gnu tools arm embedded\4.8 2014q2\arm-none-eabi\include\c++\4.8.4\bits\stl_list.h **** 	return *__tmp;
 948:d:\programy\gnu tools arm embedded\4.8 2014q2\arm-none-eabi\include\c++\4.8.4\bits\stl_list.h ****       }
 949:d:\programy\gnu tools arm embedded\4.8 2014q2\arm-none-eabi\include\c++\4.8.4\bits\stl_list.h **** 
 950:d:\programy\gnu tools arm embedded\4.8 2014q2\arm-none-eabi\include\c++\4.8.4\bits\stl_list.h ****       /**
 951:d:\programy\gnu tools arm embedded\4.8 2014q2\arm-none-eabi\include\c++\4.8.4\bits\stl_list.h ****        *  Returns a read-only (constant) reference to the data at the last
 952:d:\programy\gnu tools arm embedded\4.8 2014q2\arm-none-eabi\include\c++\4.8.4\bits\stl_list.h ****        *  element of the %list.
 953:d:\programy\gnu tools arm embedded\4.8 2014q2\arm-none-eabi\include\c++\4.8.4\bits\stl_list.h ****        */
 954:d:\programy\gnu tools arm embedded\4.8 2014q2\arm-none-eabi\include\c++\4.8.4\bits\stl_list.h ****       const_reference
 955:d:\programy\gnu tools arm embedded\4.8 2014q2\arm-none-eabi\include\c++\4.8.4\bits\stl_list.h ****       back() const
 956:d:\programy\gnu tools arm embedded\4.8 2014q2\arm-none-eabi\include\c++\4.8.4\bits\stl_list.h ****       { 
 957:d:\programy\gnu tools arm embedded\4.8 2014q2\arm-none-eabi\include\c++\4.8.4\bits\stl_list.h **** 	const_iterator __tmp = end();
 958:d:\programy\gnu tools arm embedded\4.8 2014q2\arm-none-eabi\include\c++\4.8.4\bits\stl_list.h **** 	--__tmp;
