ARM GAS  /tmp/ccj5xTXe.s 			page 1


   1              		.syntax unified
   2              		.cpu cortex-m3
   3              		.fpu softvfp
   4              		.eabi_attribute 20, 1	@ Tag_ABI_FP_denormal
   5              		.eabi_attribute 21, 1	@ Tag_ABI_FP_exceptions
   6              		.eabi_attribute 23, 3	@ Tag_ABI_FP_number_model
   7              		.eabi_attribute 24, 1	@ Tag_ABI_align8_needed
   8              		.eabi_attribute 25, 1	@ Tag_ABI_align8_preserved
   9              		.eabi_attribute 26, 1	@ Tag_ABI_enum_size
  10              		.eabi_attribute 30, 4	@ Tag_ABI_optimization_goals
  11              		.eabi_attribute 34, 1	@ Tag_CPU_unaligned_access
  12              		.eabi_attribute 18, 4	@ Tag_ABI_PCS_wchar_t
  13              		.file	"croutine.c"
  14              	@ GNU C (GNU Tools for ARM Embedded Processors) version 4.7.3 20130312 (release) [ARM/embedded-4_7-
  15              	@	compiled by GNU C version 4.3.6, GMP version 4.3.2, MPFR version 2.4.2, MPC version 0.8.1
  16              	@ GGC heuristics: --param ggc-min-expand=100 --param ggc-min-heapsize=131072
  17              	@ options passed:  -I . -I inc -I FreeRTOS/include
  18              	@ -I FreeRTOS/portable/GCC/ARM_CM3 -I FatFS -I peripherals
  19              	@ -imultilib armv7-m
  20              	@ -iprefix /home/maciek/gcc-arm-none-eabi/gcc-arm-none-eabi-4_7-2013q1/bin/../lib/gcc/arm-none-eabi
  21              	@ -isysroot /home/maciek/gcc-arm-none-eabi/gcc-arm-none-eabi-4_7-2013q1/bin/../arm-none-eabi
  22              	@ -MD out/croutine.d -MF out/croutine.d -MP -MQ out/croutine.o
  23              	@ -D__USES_INITFINI__ -D STM32L1XX_MD FreeRTOS/croutine.c -mcpu=cortex-m3
  24              	@ -mthumb -auxbase-strip out/croutine.o -g -ggdb3 -Os -Wall
  25              	@ -Wstrict-prototypes -Wextra -std=gnu90 -ffunction-sections
  26              	@ -fdata-sections -fverbose-asm
  27              	@ options enabled:  -fauto-inc-dec -fbranch-count-reg -fcaller-saves
  28              	@ -fcombine-stack-adjustments -fcommon -fcompare-elim -fcprop-registers
  29              	@ -fcrossjumping -fcse-follow-jumps -fdata-sections -fdebug-types-section
  30              	@ -fdefer-pop -fdelete-null-pointer-checks -fdevirtualize -fdwarf2-cfi-asm
  31              	@ -fearly-inlining -feliminate-unused-debug-types -fexpensive-optimizations
  32              	@ -fforward-propagate -ffunction-cse -ffunction-sections -fgcse -fgcse-lm
  33              	@ -fgnu-runtime -fguess-branch-probability -fident -fif-conversion
  34              	@ -fif-conversion2 -findirect-inlining -finline -finline-atomics
  35              	@ -finline-functions -finline-functions-called-once
  36              	@ -finline-small-functions -fipa-cp -fipa-profile -fipa-pure-const
  37              	@ -fipa-reference -fipa-sra -fira-share-save-slots -fira-share-spill-slots
  38              	@ -fivopts -fkeep-static-consts -fleading-underscore -fmath-errno
  39              	@ -fmerge-constants -fmerge-debug-strings -fomit-frame-pointer
  40              	@ -foptimize-register-move -foptimize-sibling-calls -fpartial-inlining
  41              	@ -fpeephole -fpeephole2 -fprefetch-loop-arrays -freg-struct-return
  42              	@ -fregmove -frename-registers -freorder-blocks -freorder-functions
  43              	@ -frerun-cse-after-loop -fsched-critical-path-heuristic
  44              	@ -fsched-dep-count-heuristic -fsched-group-heuristic -fsched-interblock
  45              	@ -fsched-last-insn-heuristic -fsched-rank-heuristic -fsched-spec
  46              	@ -fsched-spec-insn-heuristic -fsched-stalled-insns-dep -fschedule-insns2
  47              	@ -fsection-anchors -fshow-column -fshrink-wrap -fsigned-zeros
  48              	@ -fsplit-ivs-in-unroller -fsplit-wide-types -fstrict-aliasing
  49              	@ -fstrict-overflow -fstrict-volatile-bitfields -fthread-jumps
  50              	@ -ftoplevel-reorder -ftrapping-math -ftree-bit-ccp -ftree-builtin-call-dce
  51              	@ -ftree-ccp -ftree-ch -ftree-copy-prop -ftree-copyrename -ftree-cselim
  52              	@ -ftree-dce -ftree-dominator-opts -ftree-dse -ftree-forwprop -ftree-fre
  53              	@ -ftree-loop-if-convert -ftree-loop-im -ftree-loop-ivcanon
  54              	@ -ftree-loop-optimize -ftree-parallelize-loops= -ftree-phiprop -ftree-pre
  55              	@ -ftree-pta -ftree-reassoc -ftree-scev-cprop -ftree-sink
  56              	@ -ftree-slp-vectorize -ftree-sra -ftree-switch-conversion
  57              	@ -ftree-tail-merge -ftree-ter -ftree-vect-loop-version -ftree-vrp
ARM GAS  /tmp/ccj5xTXe.s 			page 2


  58              	@ -funit-at-a-time -funroll-loops -fvar-tracking -fvar-tracking-assignments
  59              	@ -fverbose-asm -fweb -fzero-initialized-in-bss -mfix-cortex-m3-ldrd
  60              	@ -mlittle-endian -msched-prolog -mthumb -munaligned-access
  61              	@ -mvectorize-with-neon-quad
  62              	
  63              		.text
  64              	.Ltext0:
  65              		.cfi_sections	.debug_frame
  66              		.section	.text.xCoRoutineCreate,"ax",%progbits
  67              		.align	1
  68              		.global	xCoRoutineCreate
  69              		.thumb
  70              		.thumb_func
  71              		.type	xCoRoutineCreate, %function
  72              	xCoRoutineCreate:
  73              	.LFB55:
  74              		.file 1 "FreeRTOS/croutine.c"
   1:FreeRTOS/croutine.c **** /*
   2:FreeRTOS/croutine.c ****     FreeRTOS V7.2.0 - Copyright (C) 2012 Real Time Engineers Ltd.
   3:FreeRTOS/croutine.c **** 
   4:FreeRTOS/croutine.c **** 
   5:FreeRTOS/croutine.c ****     ***************************************************************************
   6:FreeRTOS/croutine.c ****      *                                                                       *
   7:FreeRTOS/croutine.c ****      *    FreeRTOS tutorial books are available in pdf and paperback.        *
   8:FreeRTOS/croutine.c ****      *    Complete, revised, and edited pdf reference manuals are also       *
   9:FreeRTOS/croutine.c ****      *    available.                                                         *
  10:FreeRTOS/croutine.c ****      *                                                                       *
  11:FreeRTOS/croutine.c ****      *    Purchasing FreeRTOS documentation will not only help you, by       *
  12:FreeRTOS/croutine.c ****      *    ensuring you get running as quickly as possible and with an        *
  13:FreeRTOS/croutine.c ****      *    in-depth knowledge of how to use FreeRTOS, it will also help       *
  14:FreeRTOS/croutine.c ****      *    the FreeRTOS project to continue with its mission of providing     *
  15:FreeRTOS/croutine.c ****      *    professional grade, cross platform, de facto standard solutions    *
  16:FreeRTOS/croutine.c ****      *    for microcontrollers - completely free of charge!                  *
  17:FreeRTOS/croutine.c ****      *                                                                       *
  18:FreeRTOS/croutine.c ****      *    >>> See http://www.FreeRTOS.org/Documentation for details. <<<     *
  19:FreeRTOS/croutine.c ****      *                                                                       *
  20:FreeRTOS/croutine.c ****      *    Thank you for using FreeRTOS, and thank you for your support!      *
  21:FreeRTOS/croutine.c ****      *                                                                       *
  22:FreeRTOS/croutine.c ****     ***************************************************************************
  23:FreeRTOS/croutine.c **** 
  24:FreeRTOS/croutine.c **** 
  25:FreeRTOS/croutine.c ****     This file is part of the FreeRTOS distribution.
  26:FreeRTOS/croutine.c **** 
  27:FreeRTOS/croutine.c ****     FreeRTOS is free software; you can redistribute it and/or modify it under
  28:FreeRTOS/croutine.c ****     the terms of the GNU General Public License (version 2) as published by the
  29:FreeRTOS/croutine.c ****     Free Software Foundation AND MODIFIED BY the FreeRTOS exception.
  30:FreeRTOS/croutine.c ****     >>>NOTE<<< The modification to the GPL is included to allow you to
  31:FreeRTOS/croutine.c ****     distribute a combined work that includes FreeRTOS without being obliged to
  32:FreeRTOS/croutine.c ****     provide the source code for proprietary components outside of the FreeRTOS
  33:FreeRTOS/croutine.c ****     kernel.  FreeRTOS is distributed in the hope that it will be useful, but
  34:FreeRTOS/croutine.c ****     WITHOUT ANY WARRANTY; without even the implied warranty of MERCHANTABILITY
  35:FreeRTOS/croutine.c ****     or FITNESS FOR A PARTICULAR PURPOSE.  See the GNU General Public License for
  36:FreeRTOS/croutine.c ****     more details. You should have received a copy of the GNU General Public
  37:FreeRTOS/croutine.c ****     License and the FreeRTOS license exception along with FreeRTOS; if not it
  38:FreeRTOS/croutine.c ****     can be viewed here: http://www.freertos.org/a00114.html and also obtained
  39:FreeRTOS/croutine.c ****     by writing to Richard Barry, contact details for whom are available on the
  40:FreeRTOS/croutine.c ****     FreeRTOS WEB site.
ARM GAS  /tmp/ccj5xTXe.s 			page 3


  41:FreeRTOS/croutine.c **** 
  42:FreeRTOS/croutine.c ****     1 tab == 4 spaces!
  43:FreeRTOS/croutine.c ****     
  44:FreeRTOS/croutine.c ****     ***************************************************************************
  45:FreeRTOS/croutine.c ****      *                                                                       *
  46:FreeRTOS/croutine.c ****      *    Having a problem?  Start by reading the FAQ "My application does   *
  47:FreeRTOS/croutine.c ****      *    not run, what could be wrong?                                      *
  48:FreeRTOS/croutine.c ****      *                                                                       *
  49:FreeRTOS/croutine.c ****      *    http://www.FreeRTOS.org/FAQHelp.html                               *
  50:FreeRTOS/croutine.c ****      *                                                                       *
  51:FreeRTOS/croutine.c ****     ***************************************************************************
  52:FreeRTOS/croutine.c **** 
  53:FreeRTOS/croutine.c ****     
  54:FreeRTOS/croutine.c ****     http://www.FreeRTOS.org - Documentation, training, latest information, 
  55:FreeRTOS/croutine.c ****     license and contact details.
  56:FreeRTOS/croutine.c ****     
  57:FreeRTOS/croutine.c ****     http://www.FreeRTOS.org/plus - A selection of FreeRTOS ecosystem products,
  58:FreeRTOS/croutine.c ****     including FreeRTOS+Trace - an indispensable productivity tool.
  59:FreeRTOS/croutine.c **** 
  60:FreeRTOS/croutine.c ****     Real Time Engineers ltd license FreeRTOS to High Integrity Systems, who sell 
  61:FreeRTOS/croutine.c ****     the code with commercial support, indemnification, and middleware, under 
  62:FreeRTOS/croutine.c ****     the OpenRTOS brand: http://www.OpenRTOS.com.  High Integrity Systems also
  63:FreeRTOS/croutine.c ****     provide a safety engineered and independently SIL3 certified version under 
  64:FreeRTOS/croutine.c ****     the SafeRTOS brand: http://www.SafeRTOS.com.
  65:FreeRTOS/croutine.c **** */
  66:FreeRTOS/croutine.c **** 
  67:FreeRTOS/croutine.c **** #include "FreeRTOS.h"
  68:FreeRTOS/croutine.c **** #include "task.h"
  69:FreeRTOS/croutine.c **** #include "croutine.h"
  70:FreeRTOS/croutine.c **** 
  71:FreeRTOS/croutine.c **** /*
  72:FreeRTOS/croutine.c ****  * Some kernel aware debuggers require data to be viewed to be global, rather
  73:FreeRTOS/croutine.c ****  * than file scope.
  74:FreeRTOS/croutine.c ****  */
  75:FreeRTOS/croutine.c **** #ifdef portREMOVE_STATIC_QUALIFIER
  76:FreeRTOS/croutine.c **** 	#define static
  77:FreeRTOS/croutine.c **** #endif
  78:FreeRTOS/croutine.c **** 
  79:FreeRTOS/croutine.c **** 
  80:FreeRTOS/croutine.c **** /* Lists for ready and blocked co-routines. --------------------*/
  81:FreeRTOS/croutine.c **** static xList pxReadyCoRoutineLists[ configMAX_CO_ROUTINE_PRIORITIES ];	/*< Prioritised ready co-rou
  82:FreeRTOS/croutine.c **** static xList xDelayedCoRoutineList1;									/*< Delayed co-routines. */
  83:FreeRTOS/croutine.c **** static xList xDelayedCoRoutineList2;									/*< Delayed co-routines (two lists are used - one for 
  84:FreeRTOS/croutine.c **** static xList * pxDelayedCoRoutineList;									/*< Points to the delayed co-routine list currently 
  85:FreeRTOS/croutine.c **** static xList * pxOverflowDelayedCoRoutineList;							/*< Points to the delayed co-routine list curr
  86:FreeRTOS/croutine.c **** static xList xPendingReadyCoRoutineList;											/*< Holds co-routines that have been readied by 
  87:FreeRTOS/croutine.c **** 
  88:FreeRTOS/croutine.c **** /* Other file private variables. --------------------------------*/
  89:FreeRTOS/croutine.c **** corCRCB * pxCurrentCoRoutine = NULL;
  90:FreeRTOS/croutine.c **** static unsigned portBASE_TYPE uxTopCoRoutineReadyPriority = 0;
  91:FreeRTOS/croutine.c **** static portTickType xCoRoutineTickCount = 0, xLastTickCount = 0, xPassedTicks = 0;
  92:FreeRTOS/croutine.c **** 
  93:FreeRTOS/croutine.c **** /* The initial state of the co-routine when it is created. */
  94:FreeRTOS/croutine.c **** #define corINITIAL_STATE	( 0 )
  95:FreeRTOS/croutine.c **** 
  96:FreeRTOS/croutine.c **** /*
  97:FreeRTOS/croutine.c ****  * Place the co-routine represented by pxCRCB into the appropriate ready queue
ARM GAS  /tmp/ccj5xTXe.s 			page 4


  98:FreeRTOS/croutine.c ****  * for the priority.  It is inserted at the end of the list.
  99:FreeRTOS/croutine.c ****  *
 100:FreeRTOS/croutine.c ****  * This macro accesses the co-routine ready lists and therefore must not be
 101:FreeRTOS/croutine.c ****  * used from within an ISR.
 102:FreeRTOS/croutine.c ****  */
 103:FreeRTOS/croutine.c **** #define prvAddCoRoutineToReadyQueue( pxCRCB )																		\
 104:FreeRTOS/croutine.c **** {																													\
 105:FreeRTOS/croutine.c **** 	if( pxCRCB->uxPriority > uxTopCoRoutineReadyPriority )															\
 106:FreeRTOS/croutine.c **** 	{																												\
 107:FreeRTOS/croutine.c **** 		uxTopCoRoutineReadyPriority = pxCRCB->uxPriority;															\
 108:FreeRTOS/croutine.c **** 	}																												\
 109:FreeRTOS/croutine.c **** 	vListInsertEnd( ( xList * ) &( pxReadyCoRoutineLists[ pxCRCB->uxPriority ] ), &( pxCRCB->xGenericL
 110:FreeRTOS/croutine.c **** }	
 111:FreeRTOS/croutine.c **** 
 112:FreeRTOS/croutine.c **** /*
 113:FreeRTOS/croutine.c ****  * Utility to ready all the lists used by the scheduler.  This is called
 114:FreeRTOS/croutine.c ****  * automatically upon the creation of the first co-routine.
 115:FreeRTOS/croutine.c ****  */
 116:FreeRTOS/croutine.c **** static void prvInitialiseCoRoutineLists( void );
 117:FreeRTOS/croutine.c **** 
 118:FreeRTOS/croutine.c **** /*
 119:FreeRTOS/croutine.c ****  * Co-routines that are readied by an interrupt cannot be placed directly into
 120:FreeRTOS/croutine.c ****  * the ready lists (there is no mutual exclusion).  Instead they are placed in
 121:FreeRTOS/croutine.c ****  * in the pending ready list in order that they can later be moved to the ready
 122:FreeRTOS/croutine.c ****  * list by the co-routine scheduler.
 123:FreeRTOS/croutine.c ****  */
 124:FreeRTOS/croutine.c **** static void prvCheckPendingReadyList( void );
 125:FreeRTOS/croutine.c **** 
 126:FreeRTOS/croutine.c **** /*
 127:FreeRTOS/croutine.c ****  * Macro that looks at the list of co-routines that are currently delayed to
 128:FreeRTOS/croutine.c ****  * see if any require waking.
 129:FreeRTOS/croutine.c ****  *
 130:FreeRTOS/croutine.c ****  * Co-routines are stored in the queue in the order of their wake time -
 131:FreeRTOS/croutine.c ****  * meaning once one co-routine has been found whose timer has not expired
 132:FreeRTOS/croutine.c ****  * we need not look any further down the list.
 133:FreeRTOS/croutine.c ****  */
 134:FreeRTOS/croutine.c **** static void prvCheckDelayedList( void );
 135:FreeRTOS/croutine.c **** 
 136:FreeRTOS/croutine.c **** /*-----------------------------------------------------------*/
 137:FreeRTOS/croutine.c **** 
 138:FreeRTOS/croutine.c **** signed portBASE_TYPE xCoRoutineCreate( crCOROUTINE_CODE pxCoRoutineCode, unsigned portBASE_TYPE uxP
 139:FreeRTOS/croutine.c **** {
  75              		.loc 1 139 0
  76              		.cfi_startproc
  77              		@ args = 0, pretend = 0, frame = 0
  78              		@ frame_needed = 0, uses_anonymous_args = 0
  79              	.LVL0:
  80 0000 2DE9F843 		push	{r3, r4, r5, r6, r7, r8, r9, lr}	@
  81              	.LCFI0:
  82              		.cfi_def_cfa_offset 32
  83              		.cfi_offset 3, -32
  84              		.cfi_offset 4, -28
  85              		.cfi_offset 5, -24
  86              		.cfi_offset 6, -20
  87              		.cfi_offset 7, -16
  88              		.cfi_offset 8, -12
  89              		.cfi_offset 9, -8
ARM GAS  /tmp/ccj5xTXe.s 			page 5


  90              		.cfi_offset 14, -4
  91              		.loc 1 139 0
  92 0004 8046     		mov	r8, r0	@ pxCoRoutineCode, pxCoRoutineCode
 140:FreeRTOS/croutine.c **** signed portBASE_TYPE xReturn;
 141:FreeRTOS/croutine.c **** corCRCB *pxCoRoutine;
 142:FreeRTOS/croutine.c **** 
 143:FreeRTOS/croutine.c **** 	/* Allocate the memory that will store the co-routine control block. */
 144:FreeRTOS/croutine.c **** 	pxCoRoutine = ( corCRCB * ) pvPortMalloc( sizeof( corCRCB ) );
  93              		.loc 1 144 0
  94 0006 3820     		movs	r0, #56	@,
  95              	.LVL1:
 139:FreeRTOS/croutine.c **** {
  96              		.loc 1 139 0
  97 0008 0E46     		mov	r6, r1	@ uxPriority, uxPriority
  98 000a 9146     		mov	r9, r2	@ uxIndex, uxIndex
  99              		.loc 1 144 0
 100 000c FFF7FEFF 		bl	pvPortMalloc	@
 101              	.LVL2:
 145:FreeRTOS/croutine.c **** 	if( pxCoRoutine )
 102              		.loc 1 145 0
 103 0010 0446     		mov	r4, r0	@ pxCoRoutine,
 104 0012 0028     		cmp	r0, #0	@ pxCoRoutine
 105 0014 3FD0     		beq	.L5	@
 146:FreeRTOS/croutine.c **** 	{
 147:FreeRTOS/croutine.c **** 		/* If pxCurrentCoRoutine is NULL then this is the first co-routine to
 148:FreeRTOS/croutine.c **** 		be created and the co-routine data structures need initialising. */
 149:FreeRTOS/croutine.c **** 		if( pxCurrentCoRoutine == NULL )
 106              		.loc 1 149 0
 107 0016 224B     		ldr	r3, .L7	@ tmp148,
 108 0018 1A68     		ldr	r2, [r3, #0]	@ pxCurrentCoRoutine, pxCurrentCoRoutine
 109 001a AAB9     		cbnz	r2, .L3	@ pxCurrentCoRoutine,
 150:FreeRTOS/croutine.c **** 		{
 151:FreeRTOS/croutine.c **** 			pxCurrentCoRoutine = pxCoRoutine;
 110              		.loc 1 151 0
 111 001c 1860     		str	r0, [r3, #0]	@ pxCoRoutine, pxCurrentCoRoutine
 112              	.LVL3:
 113              	.LBB4:
 114              	.LBB5:
 152:FreeRTOS/croutine.c **** 			prvInitialiseCoRoutineLists();
 153:FreeRTOS/croutine.c **** 		}
 154:FreeRTOS/croutine.c **** 
 155:FreeRTOS/croutine.c **** 		/* Check the priority is within limits. */
 156:FreeRTOS/croutine.c **** 		if( uxPriority >= configMAX_CO_ROUTINE_PRIORITIES )
 157:FreeRTOS/croutine.c **** 		{
 158:FreeRTOS/croutine.c **** 			uxPriority = configMAX_CO_ROUTINE_PRIORITIES - 1;
 159:FreeRTOS/croutine.c **** 		}
 160:FreeRTOS/croutine.c **** 
 161:FreeRTOS/croutine.c **** 		/* Fill out the co-routine control block from the function parameters. */
 162:FreeRTOS/croutine.c **** 		pxCoRoutine->uxState = corINITIAL_STATE;
 163:FreeRTOS/croutine.c **** 		pxCoRoutine->uxPriority = uxPriority;
 164:FreeRTOS/croutine.c **** 		pxCoRoutine->uxIndex = uxIndex;
 165:FreeRTOS/croutine.c **** 		pxCoRoutine->pxCoRoutineFunction = pxCoRoutineCode;
 166:FreeRTOS/croutine.c **** 
 167:FreeRTOS/croutine.c **** 		/* Initialise all the other co-routine control block parameters. */
 168:FreeRTOS/croutine.c **** 		vListInitialiseItem( &( pxCoRoutine->xGenericListItem ) );
 169:FreeRTOS/croutine.c **** 		vListInitialiseItem( &( pxCoRoutine->xEventListItem ) );
 170:FreeRTOS/croutine.c **** 
ARM GAS  /tmp/ccj5xTXe.s 			page 6


 171:FreeRTOS/croutine.c **** 		/* Set the co-routine control block as a link back from the xListItem.
 172:FreeRTOS/croutine.c **** 		This is so we can get back to the containing CRCB from a generic item
 173:FreeRTOS/croutine.c **** 		in a list. */
 174:FreeRTOS/croutine.c **** 		listSET_LIST_ITEM_OWNER( &( pxCoRoutine->xGenericListItem ), pxCoRoutine );
 175:FreeRTOS/croutine.c **** 		listSET_LIST_ITEM_OWNER( &( pxCoRoutine->xEventListItem ), pxCoRoutine );
 176:FreeRTOS/croutine.c **** 	
 177:FreeRTOS/croutine.c **** 		/* Event lists are always in priority order. */
 178:FreeRTOS/croutine.c **** 		listSET_LIST_ITEM_VALUE( &( pxCoRoutine->xEventListItem ), configMAX_PRIORITIES - ( portTickType 
 179:FreeRTOS/croutine.c **** 		
 180:FreeRTOS/croutine.c **** 		/* Now the co-routine has been initialised it can be added to the ready
 181:FreeRTOS/croutine.c **** 		list at the correct priority. */
 182:FreeRTOS/croutine.c **** 		prvAddCoRoutineToReadyQueue( pxCoRoutine );
 183:FreeRTOS/croutine.c **** 
 184:FreeRTOS/croutine.c **** 		xReturn = pdPASS;
 185:FreeRTOS/croutine.c **** 	}
 186:FreeRTOS/croutine.c **** 	else
 187:FreeRTOS/croutine.c **** 	{		
 188:FreeRTOS/croutine.c **** 		xReturn = errCOULD_NOT_ALLOCATE_REQUIRED_MEMORY;
 189:FreeRTOS/croutine.c **** 	}
 190:FreeRTOS/croutine.c **** 	
 191:FreeRTOS/croutine.c **** 	return xReturn;	
 192:FreeRTOS/croutine.c **** }
 193:FreeRTOS/croutine.c **** /*-----------------------------------------------------------*/
 194:FreeRTOS/croutine.c **** 
 195:FreeRTOS/croutine.c **** void vCoRoutineAddToDelayedList( portTickType xTicksToDelay, xList *pxEventList )
 196:FreeRTOS/croutine.c **** {
 197:FreeRTOS/croutine.c **** portTickType xTimeToWake;
 198:FreeRTOS/croutine.c **** 
 199:FreeRTOS/croutine.c **** 	/* Calculate the time to wake - this may overflow but this is
 200:FreeRTOS/croutine.c **** 	not a problem. */
 201:FreeRTOS/croutine.c **** 	xTimeToWake = xCoRoutineTickCount + xTicksToDelay;
 202:FreeRTOS/croutine.c **** 
 203:FreeRTOS/croutine.c **** 	/* We must remove ourselves from the ready list before adding
 204:FreeRTOS/croutine.c **** 	ourselves to the blocked list as the same list item is used for
 205:FreeRTOS/croutine.c **** 	both lists. */
 206:FreeRTOS/croutine.c **** 	vListRemove( ( xListItem * ) &( pxCurrentCoRoutine->xGenericListItem ) );
 207:FreeRTOS/croutine.c **** 
 208:FreeRTOS/croutine.c **** 	/* The list item will be inserted in wake time order. */
 209:FreeRTOS/croutine.c **** 	listSET_LIST_ITEM_VALUE( &( pxCurrentCoRoutine->xGenericListItem ), xTimeToWake );
 210:FreeRTOS/croutine.c **** 
 211:FreeRTOS/croutine.c **** 	if( xTimeToWake < xCoRoutineTickCount )
 212:FreeRTOS/croutine.c **** 	{
 213:FreeRTOS/croutine.c **** 		/* Wake time has overflowed.  Place this item in the
 214:FreeRTOS/croutine.c **** 		overflow list. */
 215:FreeRTOS/croutine.c **** 		vListInsert( ( xList * ) pxOverflowDelayedCoRoutineList, ( xListItem * ) &( pxCurrentCoRoutine->x
 216:FreeRTOS/croutine.c **** 	}
 217:FreeRTOS/croutine.c **** 	else
 218:FreeRTOS/croutine.c **** 	{
 219:FreeRTOS/croutine.c **** 		/* The wake time has not overflowed, so we can use the
 220:FreeRTOS/croutine.c **** 		current block list. */
 221:FreeRTOS/croutine.c **** 		vListInsert( ( xList * ) pxDelayedCoRoutineList, ( xListItem * ) &( pxCurrentCoRoutine->xGenericL
 222:FreeRTOS/croutine.c **** 	}
 223:FreeRTOS/croutine.c **** 
 224:FreeRTOS/croutine.c **** 	if( pxEventList )
 225:FreeRTOS/croutine.c **** 	{
 226:FreeRTOS/croutine.c **** 		/* Also add the co-routine to an event list.  If this is done then the
 227:FreeRTOS/croutine.c **** 		function must be called with interrupts disabled. */
ARM GAS  /tmp/ccj5xTXe.s 			page 7


 228:FreeRTOS/croutine.c **** 		vListInsert( pxEventList, &( pxCurrentCoRoutine->xEventListItem ) );
 229:FreeRTOS/croutine.c **** 	}
 230:FreeRTOS/croutine.c **** }
 231:FreeRTOS/croutine.c **** /*-----------------------------------------------------------*/
 232:FreeRTOS/croutine.c **** 
 233:FreeRTOS/croutine.c **** static void prvCheckPendingReadyList( void )
 234:FreeRTOS/croutine.c **** {
 235:FreeRTOS/croutine.c **** 	/* Are there any co-routines waiting to get moved to the ready list?  These
 236:FreeRTOS/croutine.c **** 	are co-routines that have been readied by an ISR.  The ISR cannot access
 237:FreeRTOS/croutine.c **** 	the	ready lists itself. */
 238:FreeRTOS/croutine.c **** 	while( listLIST_IS_EMPTY( &xPendingReadyCoRoutineList ) == pdFALSE )
 239:FreeRTOS/croutine.c **** 	{
 240:FreeRTOS/croutine.c **** 		corCRCB *pxUnblockedCRCB;
 241:FreeRTOS/croutine.c **** 
 242:FreeRTOS/croutine.c **** 		/* The pending ready list can be accessed by an ISR. */
 243:FreeRTOS/croutine.c **** 		portDISABLE_INTERRUPTS();
 244:FreeRTOS/croutine.c **** 		{	
 245:FreeRTOS/croutine.c **** 			pxUnblockedCRCB = ( corCRCB * ) listGET_OWNER_OF_HEAD_ENTRY( (&xPendingReadyCoRoutineList) );			
 246:FreeRTOS/croutine.c **** 			vListRemove( &( pxUnblockedCRCB->xEventListItem ) );
 247:FreeRTOS/croutine.c **** 		}
 248:FreeRTOS/croutine.c **** 		portENABLE_INTERRUPTS();
 249:FreeRTOS/croutine.c **** 
 250:FreeRTOS/croutine.c **** 		vListRemove( &( pxUnblockedCRCB->xGenericListItem ) );
 251:FreeRTOS/croutine.c **** 		prvAddCoRoutineToReadyQueue( pxUnblockedCRCB );	
 252:FreeRTOS/croutine.c **** 	}
 253:FreeRTOS/croutine.c **** }
 254:FreeRTOS/croutine.c **** /*-----------------------------------------------------------*/
 255:FreeRTOS/croutine.c **** 
 256:FreeRTOS/croutine.c **** static void prvCheckDelayedList( void )
 257:FreeRTOS/croutine.c **** {
 258:FreeRTOS/croutine.c **** corCRCB *pxCRCB;
 259:FreeRTOS/croutine.c **** 
 260:FreeRTOS/croutine.c **** 	xPassedTicks = xTaskGetTickCount() - xLastTickCount;
 261:FreeRTOS/croutine.c **** 	while( xPassedTicks )
 262:FreeRTOS/croutine.c **** 	{
 263:FreeRTOS/croutine.c **** 		xCoRoutineTickCount++;
 264:FreeRTOS/croutine.c **** 		xPassedTicks--;
 265:FreeRTOS/croutine.c **** 
 266:FreeRTOS/croutine.c **** 		/* If the tick count has overflowed we need to swap the ready lists. */
 267:FreeRTOS/croutine.c **** 		if( xCoRoutineTickCount == 0 )
 268:FreeRTOS/croutine.c **** 		{
 269:FreeRTOS/croutine.c **** 			xList * pxTemp;
 270:FreeRTOS/croutine.c **** 
 271:FreeRTOS/croutine.c **** 			/* Tick count has overflowed so we need to swap the delay lists.  If there are
 272:FreeRTOS/croutine.c **** 			any items in pxDelayedCoRoutineList here then there is an error! */
 273:FreeRTOS/croutine.c **** 			pxTemp = pxDelayedCoRoutineList;
 274:FreeRTOS/croutine.c **** 			pxDelayedCoRoutineList = pxOverflowDelayedCoRoutineList;
 275:FreeRTOS/croutine.c **** 			pxOverflowDelayedCoRoutineList = pxTemp;
 276:FreeRTOS/croutine.c **** 		}
 277:FreeRTOS/croutine.c **** 
 278:FreeRTOS/croutine.c **** 		/* See if this tick has made a timeout expire. */
 279:FreeRTOS/croutine.c **** 		while( listLIST_IS_EMPTY( pxDelayedCoRoutineList ) == pdFALSE )
 280:FreeRTOS/croutine.c **** 		{
 281:FreeRTOS/croutine.c **** 			pxCRCB = ( corCRCB * ) listGET_OWNER_OF_HEAD_ENTRY( pxDelayedCoRoutineList );
 282:FreeRTOS/croutine.c **** 
 283:FreeRTOS/croutine.c **** 			if( xCoRoutineTickCount < listGET_LIST_ITEM_VALUE( &( pxCRCB->xGenericListItem ) ) )				
 284:FreeRTOS/croutine.c **** 			{			
ARM GAS  /tmp/ccj5xTXe.s 			page 8


 285:FreeRTOS/croutine.c **** 				/* Timeout not yet expired. */																			
 286:FreeRTOS/croutine.c **** 				break;																				
 287:FreeRTOS/croutine.c **** 			}																						
 288:FreeRTOS/croutine.c **** 
 289:FreeRTOS/croutine.c **** 			portDISABLE_INTERRUPTS();
 290:FreeRTOS/croutine.c **** 			{
 291:FreeRTOS/croutine.c **** 				/* The event could have occurred just before this critical
 292:FreeRTOS/croutine.c **** 				section.  If this is the case then the generic list item will
 293:FreeRTOS/croutine.c **** 				have been moved to the pending ready list and the following
 294:FreeRTOS/croutine.c **** 				line is still valid.  Also the pvContainer parameter will have
 295:FreeRTOS/croutine.c **** 				been set to NULL so the following lines are also valid. */
 296:FreeRTOS/croutine.c **** 				vListRemove( &( pxCRCB->xGenericListItem ) );											
 297:FreeRTOS/croutine.c **** 
 298:FreeRTOS/croutine.c **** 				/* Is the co-routine waiting on an event also? */												
 299:FreeRTOS/croutine.c **** 				if( pxCRCB->xEventListItem.pvContainer )													
 300:FreeRTOS/croutine.c **** 				{															
 301:FreeRTOS/croutine.c **** 					vListRemove( &( pxCRCB->xEventListItem ) );											
 302:FreeRTOS/croutine.c **** 				}
 303:FreeRTOS/croutine.c **** 			}
 304:FreeRTOS/croutine.c **** 			portENABLE_INTERRUPTS();
 305:FreeRTOS/croutine.c **** 
 306:FreeRTOS/croutine.c **** 			prvAddCoRoutineToReadyQueue( pxCRCB );													
 307:FreeRTOS/croutine.c **** 		}																									
 308:FreeRTOS/croutine.c **** 	}
 309:FreeRTOS/croutine.c **** 
 310:FreeRTOS/croutine.c **** 	xLastTickCount = xCoRoutineTickCount;
 311:FreeRTOS/croutine.c **** }
 312:FreeRTOS/croutine.c **** /*-----------------------------------------------------------*/
 313:FreeRTOS/croutine.c **** 
 314:FreeRTOS/croutine.c **** void vCoRoutineSchedule( void )
 315:FreeRTOS/croutine.c **** {
 316:FreeRTOS/croutine.c **** 	/* See if any co-routines readied by events need moving to the ready lists. */
 317:FreeRTOS/croutine.c **** 	prvCheckPendingReadyList();
 318:FreeRTOS/croutine.c **** 
 319:FreeRTOS/croutine.c **** 	/* See if any delayed co-routines have timed out. */
 320:FreeRTOS/croutine.c **** 	prvCheckDelayedList();
 321:FreeRTOS/croutine.c **** 
 322:FreeRTOS/croutine.c **** 	/* Find the highest priority queue that contains ready co-routines. */
 323:FreeRTOS/croutine.c **** 	while( listLIST_IS_EMPTY( &( pxReadyCoRoutineLists[ uxTopCoRoutineReadyPriority ] ) ) )
 324:FreeRTOS/croutine.c **** 	{
 325:FreeRTOS/croutine.c **** 		if( uxTopCoRoutineReadyPriority == 0 )
 326:FreeRTOS/croutine.c **** 		{
 327:FreeRTOS/croutine.c **** 			/* No more co-routines to check. */
 328:FreeRTOS/croutine.c **** 			return;
 329:FreeRTOS/croutine.c **** 		}
 330:FreeRTOS/croutine.c **** 		--uxTopCoRoutineReadyPriority;
 331:FreeRTOS/croutine.c **** 	}
 332:FreeRTOS/croutine.c **** 
 333:FreeRTOS/croutine.c **** 	/* listGET_OWNER_OF_NEXT_ENTRY walks through the list, so the co-routines
 334:FreeRTOS/croutine.c **** 	 of the	same priority get an equal share of the processor time. */
 335:FreeRTOS/croutine.c **** 	listGET_OWNER_OF_NEXT_ENTRY( pxCurrentCoRoutine, &( pxReadyCoRoutineLists[ uxTopCoRoutineReadyPrio
 336:FreeRTOS/croutine.c **** 
 337:FreeRTOS/croutine.c **** 	/* Call the co-routine. */
 338:FreeRTOS/croutine.c **** 	( pxCurrentCoRoutine->pxCoRoutineFunction )( pxCurrentCoRoutine, pxCurrentCoRoutine->uxIndex );
 339:FreeRTOS/croutine.c **** 
 340:FreeRTOS/croutine.c **** 	return;
 341:FreeRTOS/croutine.c **** }
ARM GAS  /tmp/ccj5xTXe.s 			page 9


 342:FreeRTOS/croutine.c **** /*-----------------------------------------------------------*/
 343:FreeRTOS/croutine.c **** 
 344:FreeRTOS/croutine.c **** static void prvInitialiseCoRoutineLists( void )
 345:FreeRTOS/croutine.c **** {
 346:FreeRTOS/croutine.c **** unsigned portBASE_TYPE uxPriority;
 347:FreeRTOS/croutine.c **** 
 348:FreeRTOS/croutine.c **** 	for( uxPriority = 0; uxPriority < configMAX_CO_ROUTINE_PRIORITIES; uxPriority++ )
 349:FreeRTOS/croutine.c **** 	{
 350:FreeRTOS/croutine.c **** 		vListInitialise( ( xList * ) &( pxReadyCoRoutineLists[ uxPriority ] ) );
 351:FreeRTOS/croutine.c **** 	}
 352:FreeRTOS/croutine.c **** 
 353:FreeRTOS/croutine.c **** 	vListInitialise( ( xList * ) &xDelayedCoRoutineList1 );
 115              		.loc 1 353 0
 116 001e 214F     		ldr	r7, .L7+4	@ tmp154,
 350:FreeRTOS/croutine.c **** 		vListInitialise( ( xList * ) &( pxReadyCoRoutineLists[ uxPriority ] ) );
 117              		.loc 1 350 0
 118 0020 2148     		ldr	r0, .L7+8	@,
 119              	.LVL4:
 120 0022 FFF7FEFF 		bl	vListInitialise	@
 121              	.LVL5:
 354:FreeRTOS/croutine.c **** 	vListInitialise( ( xList * ) &xDelayedCoRoutineList2 );
 122              		.loc 1 354 0
 123 0026 214D     		ldr	r5, .L7+12	@ tmp155,
 350:FreeRTOS/croutine.c **** 		vListInitialise( ( xList * ) &( pxReadyCoRoutineLists[ uxPriority ] ) );
 124              		.loc 1 350 0
 125 0028 2148     		ldr	r0, .L7+16	@,
 126 002a FFF7FEFF 		bl	vListInitialise	@
 127              	.LVL6:
 353:FreeRTOS/croutine.c **** 	vListInitialise( ( xList * ) &xDelayedCoRoutineList1 );
 128              		.loc 1 353 0
 129 002e 3846     		mov	r0, r7	@, tmp154
 130 0030 FFF7FEFF 		bl	vListInitialise	@
 131              	.LVL7:
 132              		.loc 1 354 0
 133 0034 2846     		mov	r0, r5	@, tmp155
 134 0036 FFF7FEFF 		bl	vListInitialise	@
 135              	.LVL8:
 355:FreeRTOS/croutine.c **** 	vListInitialise( ( xList * ) &xPendingReadyCoRoutineList );
 136              		.loc 1 355 0
 137 003a 1E48     		ldr	r0, .L7+20	@,
 138 003c FFF7FEFF 		bl	vListInitialise	@
 139              	.LVL9:
 356:FreeRTOS/croutine.c **** 
 357:FreeRTOS/croutine.c **** 	/* Start with pxDelayedCoRoutineList using list1 and the
 358:FreeRTOS/croutine.c **** 	pxOverflowDelayedCoRoutineList using list2. */
 359:FreeRTOS/croutine.c **** 	pxDelayedCoRoutineList = &xDelayedCoRoutineList1;
 140              		.loc 1 359 0
 141 0040 1D48     		ldr	r0, .L7+24	@ tmp157,
 360:FreeRTOS/croutine.c **** 	pxOverflowDelayedCoRoutineList = &xDelayedCoRoutineList2;
 142              		.loc 1 360 0
 143 0042 1E49     		ldr	r1, .L7+28	@ tmp159,
 359:FreeRTOS/croutine.c **** 	pxDelayedCoRoutineList = &xDelayedCoRoutineList1;
 144              		.loc 1 359 0
 145 0044 0760     		str	r7, [r0, #0]	@ tmp154, pxDelayedCoRoutineList
 146              		.loc 1 360 0
 147 0046 0D60     		str	r5, [r1, #0]	@ tmp155, pxOverflowDelayedCoRoutineList
 148              	.LVL10:
ARM GAS  /tmp/ccj5xTXe.s 			page 10


 149              	.L3:
 150              	.LBE5:
 151              	.LBE4:
 165:FreeRTOS/croutine.c **** 		pxCoRoutine->pxCoRoutineFunction = pxCoRoutineCode;
 152              		.loc 1 165 0
 153 0048 2546     		mov	r5, r4	@ D.6096, pxCoRoutine
 162:FreeRTOS/croutine.c **** 		pxCoRoutine->uxState = corINITIAL_STATE;
 154              		.loc 1 162 0
 155 004a 0023     		movs	r3, #0	@ tmp162,
 165:FreeRTOS/croutine.c **** 		pxCoRoutine->pxCoRoutineFunction = pxCoRoutineCode;
 156              		.loc 1 165 0
 157 004c 45F8048B 		str	r8, [r5], #4	@ pxCoRoutineCode, pxCoRoutine_3->pxCoRoutineFunction
 158 0050 012E     		cmp	r6, #1	@ uxPriority,
 159 0052 28BF     		it	cs
 160 0054 0126     		movcs	r6, #1	@ uxPriority,
 161              	.LVL11:
 162:FreeRTOS/croutine.c **** 		pxCoRoutine->uxState = corINITIAL_STATE;
 162              		.loc 1 162 0
 163 0056 A386     		strh	r3, [r4, #52]	@ movhi	@ tmp162, pxCoRoutine_3->uxState
 163:FreeRTOS/croutine.c **** 		pxCoRoutine->uxPriority = uxPriority;
 164              		.loc 1 163 0
 165 0058 E662     		str	r6, [r4, #44]	@ uxPriority, pxCoRoutine_3->uxPriority
 168:FreeRTOS/croutine.c **** 		vListInitialiseItem( &( pxCoRoutine->xGenericListItem ) );
 166              		.loc 1 168 0
 167 005a 2846     		mov	r0, r5	@, D.6096
 164:FreeRTOS/croutine.c **** 		pxCoRoutine->uxIndex = uxIndex;
 168              		.loc 1 164 0
 169 005c C4F83090 		str	r9, [r4, #48]	@ uxIndex, pxCoRoutine_3->uxIndex
 168:FreeRTOS/croutine.c **** 		vListInitialiseItem( &( pxCoRoutine->xGenericListItem ) );
 170              		.loc 1 168 0
 171 0060 FFF7FEFF 		bl	vListInitialiseItem	@
 172              	.LVL12:
 169:FreeRTOS/croutine.c **** 		vListInitialiseItem( &( pxCoRoutine->xEventListItem ) );
 173              		.loc 1 169 0
 174 0064 04F11800 		add	r0, r4, #24	@, pxCoRoutine,
 175 0068 FFF7FEFF 		bl	vListInitialiseItem	@
 176              	.LVL13:
 182:FreeRTOS/croutine.c **** 		prvAddCoRoutineToReadyQueue( pxCoRoutine );
 177              		.loc 1 182 0
 178 006c 144A     		ldr	r2, .L7+32	@ tmp165,
 179 006e E36A     		ldr	r3, [r4, #44]	@ uxTopCoRoutineReadyPriority.23, pxCoRoutine_3->uxPriority
 180 0070 1068     		ldr	r0, [r2, #0]	@ uxTopCoRoutineReadyPriority, uxTopCoRoutineReadyPriority
 178:FreeRTOS/croutine.c **** 		listSET_LIST_ITEM_VALUE( &( pxCoRoutine->xEventListItem ), configMAX_PRIORITIES - ( portTickType 
 181              		.loc 1 178 0
 182 0072 C6F10506 		rsb	r6, r6, #5	@ tmp164, uxPriority,
 183              	.LVL14:
 182:FreeRTOS/croutine.c **** 		prvAddCoRoutineToReadyQueue( pxCoRoutine );
 184              		.loc 1 182 0
 185 0076 8342     		cmp	r3, r0	@ uxTopCoRoutineReadyPriority.23, uxTopCoRoutineReadyPriority
 186 0078 88BF     		it	hi
 187 007a 1360     		strhi	r3, [r2, #0]	@ uxTopCoRoutineReadyPriority.23, uxTopCoRoutineReadyPriority
 188 007c 0A4A     		ldr	r2, .L7+8	@ tmp168,
 189 007e 1421     		movs	r1, #20	@ tmp170,
 190 0080 01FB0320 		mla	r0, r1, r3, r2	@, tmp170, uxTopCoRoutineReadyPriority.23, tmp168
 174:FreeRTOS/croutine.c **** 		listSET_LIST_ITEM_OWNER( &( pxCoRoutine->xGenericListItem ), pxCoRoutine );
 191              		.loc 1 174 0
 192 0084 2461     		str	r4, [r4, #16]	@ pxCoRoutine, pxCoRoutine_3->xGenericListItem.pvOwner
ARM GAS  /tmp/ccj5xTXe.s 			page 11


 175:FreeRTOS/croutine.c **** 		listSET_LIST_ITEM_OWNER( &( pxCoRoutine->xEventListItem ), pxCoRoutine );
 193              		.loc 1 175 0
 194 0086 6462     		str	r4, [r4, #36]	@ pxCoRoutine, pxCoRoutine_3->xEventListItem.pvOwner
 178:FreeRTOS/croutine.c **** 		listSET_LIST_ITEM_VALUE( &( pxCoRoutine->xEventListItem ), configMAX_PRIORITIES - ( portTickType 
 195              		.loc 1 178 0
 196 0088 A661     		str	r6, [r4, #24]	@ tmp164, pxCoRoutine_3->xEventListItem.xItemValue
 182:FreeRTOS/croutine.c **** 		prvAddCoRoutineToReadyQueue( pxCoRoutine );
 197              		.loc 1 182 0
 198 008a 2946     		mov	r1, r5	@, D.6096
 199 008c FFF7FEFF 		bl	vListInsertEnd	@
 200              	.LVL15:
 184:FreeRTOS/croutine.c **** 		xReturn = pdPASS;
 201              		.loc 1 184 0
 202 0090 0120     		movs	r0, #1	@ xReturn,
 203 0092 BDE8F883 		pop	{r3, r4, r5, r6, r7, r8, r9, pc}	@
 204              	.LVL16:
 205              	.L5:
 188:FreeRTOS/croutine.c **** 		xReturn = errCOULD_NOT_ALLOCATE_REQUIRED_MEMORY;
 206              		.loc 1 188 0
 207 0096 4FF0FF30 		mov	r0, #-1	@ xReturn,
 208              	.LVL17:
 192:FreeRTOS/croutine.c **** }
 209              		.loc 1 192 0
 210 009a BDE8F883 		pop	{r3, r4, r5, r6, r7, r8, r9, pc}	@
 211              	.L8:
 212 009e 00BF     		.align	2
 213              	.L7:
 214 00a0 00000000 		.word	.LANCHOR0
 215 00a4 00000000 		.word	.LANCHOR2
 216 00a8 00000000 		.word	.LANCHOR1
 217 00ac 00000000 		.word	.LANCHOR3
 218 00b0 14000000 		.word	.LANCHOR1+20
 219 00b4 00000000 		.word	.LANCHOR4
 220 00b8 00000000 		.word	.LANCHOR5
 221 00bc 00000000 		.word	.LANCHOR6
 222 00c0 00000000 		.word	.LANCHOR7
 223              		.cfi_endproc
 224              	.LFE55:
 225              		.size	xCoRoutineCreate, .-xCoRoutineCreate
 226              		.section	.text.vCoRoutineAddToDelayedList,"ax",%progbits
 227              		.align	1
 228              		.global	vCoRoutineAddToDelayedList
 229              		.thumb
 230              		.thumb_func
 231              		.type	vCoRoutineAddToDelayedList, %function
 232              	vCoRoutineAddToDelayedList:
 233              	.LFB56:
 196:FreeRTOS/croutine.c **** {
 234              		.loc 1 196 0
 235              		.cfi_startproc
 236              		@ args = 0, pretend = 0, frame = 0
 237              		@ frame_needed = 0, uses_anonymous_args = 0
 238              	.LVL18:
 239 0000 F8B5     		push	{r3, r4, r5, r6, r7, lr}	@
 240              	.LCFI1:
 241              		.cfi_def_cfa_offset 24
 242              		.cfi_offset 3, -24
ARM GAS  /tmp/ccj5xTXe.s 			page 12


 243              		.cfi_offset 4, -20
 244              		.cfi_offset 5, -16
 245              		.cfi_offset 6, -12
 246              		.cfi_offset 7, -8
 247              		.cfi_offset 14, -4
 201:FreeRTOS/croutine.c **** 	xTimeToWake = xCoRoutineTickCount + xTicksToDelay;
 248              		.loc 1 201 0
 249 0002 0E4F     		ldr	r7, .L14	@ tmp148,
 206:FreeRTOS/croutine.c **** 	vListRemove( ( xListItem * ) &( pxCurrentCoRoutine->xGenericListItem ) );
 250              		.loc 1 206 0
 251 0004 0E4C     		ldr	r4, .L14+4	@ tmp150,
 201:FreeRTOS/croutine.c **** 	xTimeToWake = xCoRoutineTickCount + xTicksToDelay;
 252              		.loc 1 201 0
 253 0006 3E68     		ldr	r6, [r7, #0]	@ xCoRoutineTickCount, xCoRoutineTickCount
 196:FreeRTOS/croutine.c **** {
 254              		.loc 1 196 0
 255 0008 0D46     		mov	r5, r1	@ pxEventList, pxEventList
 201:FreeRTOS/croutine.c **** 	xTimeToWake = xCoRoutineTickCount + xTicksToDelay;
 256              		.loc 1 201 0
 257 000a 8619     		adds	r6, r0, r6	@ xTimeToWake, xTicksToDelay, xCoRoutineTickCount
 258              	.LVL19:
 206:FreeRTOS/croutine.c **** 	vListRemove( ( xListItem * ) &( pxCurrentCoRoutine->xGenericListItem ) );
 259              		.loc 1 206 0
 260 000c 2068     		ldr	r0, [r4, #0]	@ pxCurrentCoRoutine, pxCurrentCoRoutine
 261              	.LVL20:
 262 000e 0430     		adds	r0, r0, #4	@, pxCurrentCoRoutine,
 263 0010 FFF7FEFF 		bl	vListRemove	@
 264              	.LVL21:
 211:FreeRTOS/croutine.c **** 	if( xTimeToWake < xCoRoutineTickCount )
 265              		.loc 1 211 0
 266 0014 3B68     		ldr	r3, [r7, #0]	@ xCoRoutineTickCount, xCoRoutineTickCount
 209:FreeRTOS/croutine.c **** 	listSET_LIST_ITEM_VALUE( &( pxCurrentCoRoutine->xGenericListItem ), xTimeToWake );
 267              		.loc 1 209 0
 268 0016 2168     		ldr	r1, [r4, #0]	@ tmp164, pxCurrentCoRoutine
 211:FreeRTOS/croutine.c **** 	if( xTimeToWake < xCoRoutineTickCount )
 269              		.loc 1 211 0
 270 0018 9E42     		cmp	r6, r3	@ xTimeToWake, xCoRoutineTickCount
 215:FreeRTOS/croutine.c **** 		vListInsert( ( xList * ) pxOverflowDelayedCoRoutineList, ( xListItem * ) &( pxCurrentCoRoutine->x
 271              		.loc 1 215 0
 272 001a 34BF     		ite	cc
 273 001c 094B     		ldrcc	r3, .L14+8	@ tmp156,
 221:FreeRTOS/croutine.c **** 		vListInsert( ( xList * ) pxDelayedCoRoutineList, ( xListItem * ) &( pxCurrentCoRoutine->xGenericL
 274              		.loc 1 221 0
 275 001e 0A4B     		ldrcs	r3, .L14+12	@ tmp158,
 209:FreeRTOS/croutine.c **** 	listSET_LIST_ITEM_VALUE( &( pxCurrentCoRoutine->xGenericListItem ), xTimeToWake );
 276              		.loc 1 209 0
 277 0020 41F8046F 		str	r6, [r1, #4]!	@ xTimeToWake, pxCurrentCoRoutine.18_6->xGenericListItem.xItemValue
 221:FreeRTOS/croutine.c **** 		vListInsert( ( xList * ) pxDelayedCoRoutineList, ( xListItem * ) &( pxCurrentCoRoutine->xGenericL
 278              		.loc 1 221 0
 279 0024 1868     		ldr	r0, [r3, #0]	@,
 280 0026 FFF7FEFF 		bl	vListInsert	@
 281              	.LVL22:
 224:FreeRTOS/croutine.c **** 	if( pxEventList )
 282              		.loc 1 224 0
 283 002a 35B1     		cbz	r5, .L9	@ pxEventList,
 228:FreeRTOS/croutine.c **** 		vListInsert( pxEventList, &( pxCurrentCoRoutine->xEventListItem ) );
 284              		.loc 1 228 0
ARM GAS  /tmp/ccj5xTXe.s 			page 13


 285 002c 2168     		ldr	r1, [r4, #0]	@ pxCurrentCoRoutine, pxCurrentCoRoutine
 286 002e 2846     		mov	r0, r5	@, pxEventList
 287 0030 1831     		adds	r1, r1, #24	@, pxCurrentCoRoutine,
 230:FreeRTOS/croutine.c **** }
 288              		.loc 1 230 0
 289 0032 BDE8F840 		pop	{r3, r4, r5, r6, r7, lr}	@
 228:FreeRTOS/croutine.c **** 		vListInsert( pxEventList, &( pxCurrentCoRoutine->xEventListItem ) );
 290              		.loc 1 228 0
 291 0036 FFF7FEBF 		b	vListInsert	@
 292              	.LVL23:
 293              	.L9:
 294 003a F8BD     		pop	{r3, r4, r5, r6, r7, pc}	@
 295              	.L15:
 296              		.align	2
 297              	.L14:
 298 003c 00000000 		.word	.LANCHOR8
 299 0040 00000000 		.word	.LANCHOR0
 300 0044 00000000 		.word	.LANCHOR6
 301 0048 00000000 		.word	.LANCHOR5
 302              		.cfi_endproc
 303              	.LFE56:
 304              		.size	vCoRoutineAddToDelayedList, .-vCoRoutineAddToDelayedList
 305              		.section	.text.vCoRoutineSchedule,"ax",%progbits
 306              		.align	1
 307              		.global	vCoRoutineSchedule
 308              		.thumb
 309              		.thumb_func
 310              		.type	vCoRoutineSchedule, %function
 311              	vCoRoutineSchedule:
 312              	.LFB59:
 315:FreeRTOS/croutine.c **** {
 313              		.loc 1 315 0
 314              		.cfi_startproc
 315              		@ args = 0, pretend = 0, frame = 0
 316              		@ frame_needed = 0, uses_anonymous_args = 0
 317 0000 38B5     		push	{r3, r4, r5, lr}	@
 318              	.LCFI2:
 319              		.cfi_def_cfa_offset 16
 320              		.cfi_offset 3, -16
 321              		.cfi_offset 4, -12
 322              		.cfi_offset 5, -8
 323              		.cfi_offset 14, -4
 324              	.L17:
 325              	.LBB13:
 326              	.LBB14:
 238:FreeRTOS/croutine.c **** 	while( listLIST_IS_EMPTY( &xPendingReadyCoRoutineList ) == pdFALSE )
 327              		.loc 1 238 0
 328 0002 464B     		ldr	r3, .L42	@ tmp186,
 329 0004 1A68     		ldr	r2, [r3, #0]	@ D.6129, xPendingReadyCoRoutineList.uxNumberOfItems
 330 0006 FAB1     		cbz	r2, .L39	@ D.6129,
 331              	.L19:
 332              	.LBB15:
 243:FreeRTOS/croutine.c **** 		portDISABLE_INTERRUPTS();
 333              		.loc 1 243 0
 334              	@ 243 "FreeRTOS/croutine.c" 1
 335 0008 4FF05000 			mov r0, #80									@
 336 000c 80F31188 		msr basepri, r0							
ARM GAS  /tmp/ccj5xTXe.s 			page 14


 337              	
 338              	@ 0 "" 2
 245:FreeRTOS/croutine.c **** 			pxUnblockedCRCB = ( corCRCB * ) listGET_OWNER_OF_HEAD_ENTRY( (&xPendingReadyCoRoutineList) );			
 339              		.loc 1 245 0
 340              		.thumb
 341 0010 DD68     		ldr	r5, [r3, #12]	@ D.6135, xPendingReadyCoRoutineList.xListEnd.pxNext
 342 0012 EC68     		ldr	r4, [r5, #12]	@ pxUnblockedCRCB, D.6135_32->pvOwner
 343              	.LVL24:
 246:FreeRTOS/croutine.c **** 			vListRemove( &( pxUnblockedCRCB->xEventListItem ) );
 344              		.loc 1 246 0
 345 0014 04F11800 		add	r0, r4, #24	@, pxUnblockedCRCB,
 346 0018 FFF7FEFF 		bl	vListRemove	@
 347              	.LVL25:
 248:FreeRTOS/croutine.c **** 		portENABLE_INTERRUPTS();
 348              		.loc 1 248 0
 349              	@ 248 "FreeRTOS/croutine.c" 1
 350 001c 4FF00000 			mov r0, #0					
 351 0020 80F31188 		msr basepri, r0				
 352              	
 353              	@ 0 "" 2
 250:FreeRTOS/croutine.c **** 		vListRemove( &( pxUnblockedCRCB->xGenericListItem ) );
 354              		.loc 1 250 0
 355              		.thumb
 356 0024 251D     		adds	r5, r4, #4	@ D.6133, pxUnblockedCRCB,
 357 0026 2846     		mov	r0, r5	@, D.6133
 358 0028 FFF7FEFF 		bl	vListRemove	@
 359              	.LVL26:
 251:FreeRTOS/croutine.c **** 		prvAddCoRoutineToReadyQueue( pxUnblockedCRCB );	
 360              		.loc 1 251 0
 361 002c 3C48     		ldr	r0, .L42+4	@ tmp179,
 362 002e E36A     		ldr	r3, [r4, #44]	@ uxTopCoRoutineReadyPriority.6, pxUnblockedCRCB_33->uxPriority
 363 0030 0168     		ldr	r1, [r0, #0]	@ uxTopCoRoutineReadyPriority, uxTopCoRoutineReadyPriority
 364 0032 3C4A     		ldr	r2, .L42+8	@ tmp182,
 365 0034 8B42     		cmp	r3, r1	@ uxTopCoRoutineReadyPriority.6, uxTopCoRoutineReadyPriority
 366 0036 88BF     		it	hi
 367 0038 0360     		strhi	r3, [r0, #0]	@ uxTopCoRoutineReadyPriority.6, uxTopCoRoutineReadyPriority
 368 003a 1420     		movs	r0, #20	@ tmp184,
 369 003c 00FB0320 		mla	r0, r0, r3, r2	@, tmp184, uxTopCoRoutineReadyPriority.6, tmp182
 370 0040 2946     		mov	r1, r5	@, D.6133
 371 0042 FFF7FEFF 		bl	vListInsertEnd	@
 372              	.LVL27:
 373 0046 DCE7     		b	.L17	@
 374              	.LVL28:
 375              	.L39:
 376              	.LBE15:
 377              	.LBE14:
 378              	.LBE13:
 379              	.LBB16:
 380              	.LBB17:
 260:FreeRTOS/croutine.c **** 	xPassedTicks = xTaskGetTickCount() - xLastTickCount;
 381              		.loc 1 260 0
 382 0048 FFF7FEFF 		bl	xTaskGetTickCount	@
 383              	.LVL29:
 384 004c 3649     		ldr	r1, .L42+12	@ tmp188,
 385 004e 374A     		ldr	r2, .L42+16	@ tmp187,
 386 0050 0B68     		ldr	r3, [r1, #0]	@ xLastTickCount, xLastTickCount
 387 0052 C01A     		subs	r0, r0, r3	@ tmp189,, xLastTickCount
ARM GAS  /tmp/ccj5xTXe.s 			page 15


 388 0054 1060     		str	r0, [r2, #0]	@ tmp189, xPassedTicks
 389              	.L38:
 261:FreeRTOS/croutine.c **** 	while( xPassedTicks )
 390              		.loc 1 261 0
 391 0056 3549     		ldr	r1, .L42+16	@ tmp214,
 392 0058 354B     		ldr	r3, .L42+20	@ tmp232,
 393 005a 0A68     		ldr	r2, [r1, #0]	@ xPassedTicks.11, xPassedTicks
 394 005c 002A     		cmp	r2, #0	@ xPassedTicks.11
 395 005e 39D0     		beq	.L40	@
 396              	.L26:
 263:FreeRTOS/croutine.c **** 		xCoRoutineTickCount++;
 397              		.loc 1 263 0
 398 0060 1868     		ldr	r0, [r3, #0]	@ xCoRoutineTickCount, xCoRoutineTickCount
 264:FreeRTOS/croutine.c **** 		xPassedTicks--;
 399              		.loc 1 264 0
 400 0062 013A     		subs	r2, r2, #1	@ tmp195, xPassedTicks.11,
 263:FreeRTOS/croutine.c **** 		xCoRoutineTickCount++;
 401              		.loc 1 263 0
 402 0064 0130     		adds	r0, r0, #1	@ xCoRoutineTickCount.10, xCoRoutineTickCount,
 403 0066 1860     		str	r0, [r3, #0]	@ xCoRoutineTickCount.10, xCoRoutineTickCount
 264:FreeRTOS/croutine.c **** 		xPassedTicks--;
 404              		.loc 1 264 0
 405 0068 0A60     		str	r2, [r1, #0]	@ tmp195, xPassedTicks
 267:FreeRTOS/croutine.c **** 		if( xCoRoutineTickCount == 0 )
 406              		.loc 1 267 0
 407 006a 0028     		cmp	r0, #0	@ xCoRoutineTickCount.10
 408 006c 2CD1     		bne	.L35	@
 409              	.LBB18:
 273:FreeRTOS/croutine.c **** 			pxTemp = pxDelayedCoRoutineList;
 410              		.loc 1 273 0
 411 006e 314A     		ldr	r2, .L42+24	@ tmp196,
 274:FreeRTOS/croutine.c **** 			pxDelayedCoRoutineList = pxOverflowDelayedCoRoutineList;
 412              		.loc 1 274 0
 413 0070 314B     		ldr	r3, .L42+28	@ tmp198,
 273:FreeRTOS/croutine.c **** 			pxTemp = pxDelayedCoRoutineList;
 414              		.loc 1 273 0
 415 0072 1068     		ldr	r0, [r2, #0]	@ pxTemp, pxDelayedCoRoutineList
 416              	.LVL30:
 274:FreeRTOS/croutine.c **** 			pxDelayedCoRoutineList = pxOverflowDelayedCoRoutineList;
 417              		.loc 1 274 0
 418 0074 1968     		ldr	r1, [r3, #0]	@ pxOverflowDelayedCoRoutineList, pxOverflowDelayedCoRoutineList
 275:FreeRTOS/croutine.c **** 			pxOverflowDelayedCoRoutineList = pxTemp;
 419              		.loc 1 275 0
 420 0076 1860     		str	r0, [r3, #0]	@ pxTemp, pxOverflowDelayedCoRoutineList
 274:FreeRTOS/croutine.c **** 			pxDelayedCoRoutineList = pxOverflowDelayedCoRoutineList;
 421              		.loc 1 274 0
 422 0078 1160     		str	r1, [r2, #0]	@ pxOverflowDelayedCoRoutineList, pxDelayedCoRoutineList
 423 007a 25E0     		b	.L35	@
 424              	.LVL31:
 425              	.L25:
 426              	.LBE18:
 281:FreeRTOS/croutine.c **** 			pxCRCB = ( corCRCB * ) listGET_OWNER_OF_HEAD_ENTRY( pxDelayedCoRoutineList );
 427              		.loc 1 281 0
 428 007c C468     		ldr	r4, [r0, #12]	@ D.6146, pxDelayedCoRoutineList.14_49->xListEnd.pxNext
 283:FreeRTOS/croutine.c **** 			if( xCoRoutineTickCount < listGET_LIST_ITEM_VALUE( &( pxCRCB->xGenericListItem ) ) )				
 429              		.loc 1 283 0
 430 007e 2C49     		ldr	r1, .L42+20	@ tmp201,
ARM GAS  /tmp/ccj5xTXe.s 			page 16


 281:FreeRTOS/croutine.c **** 			pxCRCB = ( corCRCB * ) listGET_OWNER_OF_HEAD_ENTRY( pxDelayedCoRoutineList );
 431              		.loc 1 281 0
 432 0080 E468     		ldr	r4, [r4, #12]	@ pxCRCB, D.6146_50->pvOwner
 433              	.LVL32:
 283:FreeRTOS/croutine.c **** 			if( xCoRoutineTickCount < listGET_LIST_ITEM_VALUE( &( pxCRCB->xGenericListItem ) ) )				
 434              		.loc 1 283 0
 435 0082 0A68     		ldr	r2, [r1, #0]	@ xCoRoutineTickCount, xCoRoutineTickCount
 436 0084 6068     		ldr	r0, [r4, #4]	@ pxCRCB_51->xGenericListItem.xItemValue, pxCRCB_51->xGenericListItem.xItemValue
 437 0086 8242     		cmp	r2, r0	@ xCoRoutineTickCount, pxCRCB_51->xGenericListItem.xItemValue
 438 0088 E5D3     		bcc	.L38	@,
 289:FreeRTOS/croutine.c **** 			portDISABLE_INTERRUPTS();
 439              		.loc 1 289 0
 440              	@ 289 "FreeRTOS/croutine.c" 1
 441 008a 4FF05000 			mov r0, #80									@
 442 008e 80F31188 		msr basepri, r0							
 443              	
 444              	@ 0 "" 2
 296:FreeRTOS/croutine.c **** 				vListRemove( &( pxCRCB->xGenericListItem ) );											
 445              		.loc 1 296 0
 446              		.thumb
 447 0092 251D     		adds	r5, r4, #4	@ D.6144, pxCRCB,
 448 0094 2846     		mov	r0, r5	@, D.6144
 449 0096 FFF7FEFF 		bl	vListRemove	@
 450              	.LVL33:
 299:FreeRTOS/croutine.c **** 				if( pxCRCB->xEventListItem.pvContainer )													
 451              		.loc 1 299 0
 452 009a A36A     		ldr	r3, [r4, #40]	@ pxCRCB_51->xEventListItem.pvContainer, pxCRCB_51->xEventListItem.pvContainer
 453 009c 1BB1     		cbz	r3, .L23	@ pxCRCB_51->xEventListItem.pvContainer,
 301:FreeRTOS/croutine.c **** 					vListRemove( &( pxCRCB->xEventListItem ) );											
 454              		.loc 1 301 0
 455 009e 04F11800 		add	r0, r4, #24	@, pxCRCB,
 456 00a2 FFF7FEFF 		bl	vListRemove	@
 457              	.LVL34:
 458              	.L23:
 304:FreeRTOS/croutine.c **** 			portENABLE_INTERRUPTS();
 459              		.loc 1 304 0
 460              	@ 304 "FreeRTOS/croutine.c" 1
 461 00a6 4FF00000 			mov r0, #0					
 462 00aa 80F31188 		msr basepri, r0				
 463              	
 464              	@ 0 "" 2
 306:FreeRTOS/croutine.c **** 			prvAddCoRoutineToReadyQueue( pxCRCB );													
 465              		.loc 1 306 0
 466              		.thumb
 467 00ae 1C4A     		ldr	r2, .L42+4	@ tmp206,
 468 00b0 E36A     		ldr	r3, [r4, #44]	@ uxTopCoRoutineReadyPriority.16, pxCRCB_51->uxPriority
 469 00b2 1168     		ldr	r1, [r2, #0]	@ uxTopCoRoutineReadyPriority, uxTopCoRoutineReadyPriority
 470 00b4 8B42     		cmp	r3, r1	@ uxTopCoRoutineReadyPriority.16, uxTopCoRoutineReadyPriority
 471 00b6 88BF     		it	hi
 472 00b8 1360     		strhi	r3, [r2, #0]	@ uxTopCoRoutineReadyPriority.16, uxTopCoRoutineReadyPriority
 473 00ba 1A4A     		ldr	r2, .L42+8	@ tmp209,
 474 00bc 1420     		movs	r0, #20	@ tmp211,
 475 00be 00FB0320 		mla	r0, r0, r3, r2	@, tmp211, uxTopCoRoutineReadyPriority.16, tmp209
 476 00c2 2946     		mov	r1, r5	@, D.6144
 477 00c4 FFF7FEFF 		bl	vListInsertEnd	@
 478              	.LVL35:
 479              	.L35:
ARM GAS  /tmp/ccj5xTXe.s 			page 17


 279:FreeRTOS/croutine.c **** 		while( listLIST_IS_EMPTY( pxDelayedCoRoutineList ) == pdFALSE )
 480              		.loc 1 279 0
 481 00c8 1A4A     		ldr	r2, .L42+24	@ tmp213,
 482 00ca 1068     		ldr	r0, [r2, #0]	@ pxDelayedCoRoutineList.14, pxDelayedCoRoutineList
 483 00cc 0368     		ldr	r3, [r0, #0]	@ D.6138, pxDelayedCoRoutineList.14_49->uxNumberOfItems
 484 00ce 002B     		cmp	r3, #0	@ D.6138
 485 00d0 D4D1     		bne	.L25	@
 486 00d2 C0E7     		b	.L38	@
 487              	.L40:
 488 00d4 124A     		ldr	r2, .L42+4	@ tmp218,
 310:FreeRTOS/croutine.c **** 	xLastTickCount = xCoRoutineTickCount;
 489              		.loc 1 310 0
 490 00d6 1868     		ldr	r0, [r3, #0]	@ xCoRoutineTickCount, xCoRoutineTickCount
 491 00d8 1349     		ldr	r1, .L42+12	@ tmp215,
 492 00da 1368     		ldr	r3, [r2, #0]	@ uxTopCoRoutineReadyPriority_lsm.37, uxTopCoRoutineReadyPriority
 493 00dc 0860     		str	r0, [r1, #0]	@ xCoRoutineTickCount, xLastTickCount
 494              	.L27:
 495              	.LBE17:
 496              	.LBE16:
 323:FreeRTOS/croutine.c **** 	while( listLIST_IS_EMPTY( &( pxReadyCoRoutineLists[ uxTopCoRoutineReadyPriority ] ) ) )
 497              		.loc 1 323 0 discriminator 1
 498 00de 1421     		movs	r1, #20	@ tmp223,
 499 00e0 5943     		muls	r1, r3, r1	@ tmp222, uxTopCoRoutineReadyPriority_lsm.37
 500 00e2 1048     		ldr	r0, .L42+8	@ tmp221,
 501 00e4 4218     		adds	r2, r0, r1	@ tmp224, tmp221, tmp222
 502 00e6 4058     		ldr	r0, [r0, r1]	@ D.6032, pxReadyCoRoutineLists[uxTopCoRoutineReadyPriority_lsm.37_27].uxNumberOf
 503 00e8 28B9     		cbnz	r0, .L41	@ D.6032,
 504              	.L30:
 325:FreeRTOS/croutine.c **** 		if( uxTopCoRoutineReadyPriority == 0 )
 505              		.loc 1 325 0
 506 00ea 13B9     		cbnz	r3, .L28	@ uxTopCoRoutineReadyPriority_lsm.37,
 507 00ec 0C48     		ldr	r0, .L42+4	@ tmp219,
 508 00ee 0360     		str	r3, [r0, #0]	@ uxTopCoRoutineReadyPriority_lsm.37, uxTopCoRoutineReadyPriority
 509 00f0 38BD     		pop	{r3, r4, r5, pc}	@
 510              	.L28:
 330:FreeRTOS/croutine.c **** 		--uxTopCoRoutineReadyPriority;
 511              		.loc 1 330 0
 512 00f2 013B     		subs	r3, r3, #1	@ uxTopCoRoutineReadyPriority_lsm.37, uxTopCoRoutineReadyPriority_lsm.37,
 513 00f4 F3E7     		b	.L27	@
 514              	.L41:
 515 00f6 0A49     		ldr	r1, .L42+4	@ tmp225,
 516 00f8 0B60     		str	r3, [r1, #0]	@ uxTopCoRoutineReadyPriority_lsm.37, uxTopCoRoutineReadyPriority
 517              	.LVL36:
 518              	.LBB19:
 335:FreeRTOS/croutine.c **** 	listGET_OWNER_OF_NEXT_ENTRY( pxCurrentCoRoutine, &( pxReadyCoRoutineLists[ uxTopCoRoutineReadyPrio
 519              		.loc 1 335 0
 520 00fa 5368     		ldr	r3, [r2, #4]	@ D.6033, pxConstList_7->pxIndex
 521 00fc 02F10801 		add	r1, r2, #8	@ tmp229, tmp224,
 522 0100 5868     		ldr	r0, [r3, #4]	@ D.6034, D.6033_8->pxNext
 523 0102 0E4B     		ldr	r3, .L42+32	@ tmp230,
 524 0104 8842     		cmp	r0, r1	@ D.6034, tmp229
 525 0106 5060     		str	r0, [r2, #4]	@ D.6034, pxConstList_7->pxIndex
 526 0108 04BF     		itt	eq
 527 010a 4068     		ldreq	r0, [r0, #4]	@ D.6038, MEM[(volatile struct xListItem *)D.6034_9].pxNext
 528 010c 5060     		streq	r0, [r2, #4]	@ D.6038, pxConstList_7->pxIndex
 529 010e 5268     		ldr	r2, [r2, #4]	@ D.6033, pxConstList_7->pxIndex
 530              	.LVL37:
ARM GAS  /tmp/ccj5xTXe.s 			page 18


 531 0110 D068     		ldr	r0, [r2, #12]	@ pxCurrentCoRoutine.3, D.6033_14->pvOwner
 532 0112 1860     		str	r0, [r3, #0]	@ pxCurrentCoRoutine.3, pxCurrentCoRoutine
 533              	.LBE19:
 338:FreeRTOS/croutine.c **** 	( pxCurrentCoRoutine->pxCoRoutineFunction )( pxCurrentCoRoutine, pxCurrentCoRoutine->uxIndex );
 534              		.loc 1 338 0
 535 0114 0268     		ldr	r2, [r0, #0]	@ MEM[(struct corCRCB *)pxCurrentCoRoutine.3_15].pxCoRoutineFunction, MEM[(struct
 536 0116 016B     		ldr	r1, [r0, #48]	@, MEM[(struct corCRCB *)pxCurrentCoRoutine.3_15].uxIndex
 537 0118 9047     		blx	r2	@ MEM[(struct corCRCB *)pxCurrentCoRoutine.3_15].pxCoRoutineFunction
 538              	.LVL38:
 539 011a 38BD     		pop	{r3, r4, r5, pc}	@
 540              	.L43:
 541              		.align	2
 542              	.L42:
 543 011c 00000000 		.word	.LANCHOR4
 544 0120 00000000 		.word	.LANCHOR7
 545 0124 00000000 		.word	.LANCHOR1
 546 0128 00000000 		.word	.LANCHOR10
 547 012c 00000000 		.word	.LANCHOR9
 548 0130 00000000 		.word	.LANCHOR8
 549 0134 00000000 		.word	.LANCHOR5
 550 0138 00000000 		.word	.LANCHOR6
 551 013c 00000000 		.word	.LANCHOR0
 552              		.cfi_endproc
 553              	.LFE59:
 554              		.size	vCoRoutineSchedule, .-vCoRoutineSchedule
 555              		.section	.text.xCoRoutineRemoveFromEventList,"ax",%progbits
 556              		.align	1
 557              		.global	xCoRoutineRemoveFromEventList
 558              		.thumb
 559              		.thumb_func
 560              		.type	xCoRoutineRemoveFromEventList, %function
 561              	xCoRoutineRemoveFromEventList:
 562              	.LFB61:
 361:FreeRTOS/croutine.c **** }
 362:FreeRTOS/croutine.c **** /*-----------------------------------------------------------*/
 363:FreeRTOS/croutine.c **** 
 364:FreeRTOS/croutine.c **** signed portBASE_TYPE xCoRoutineRemoveFromEventList( const xList *pxEventList )
 365:FreeRTOS/croutine.c **** {
 563              		.loc 1 365 0
 564              		.cfi_startproc
 565              		@ args = 0, pretend = 0, frame = 0
 566              		@ frame_needed = 0, uses_anonymous_args = 0
 567              	.LVL39:
 568 0000 38B5     		push	{r3, r4, r5, lr}	@
 569              	.LCFI3:
 570              		.cfi_def_cfa_offset 16
 571              		.cfi_offset 3, -16
 572              		.cfi_offset 4, -12
 573              		.cfi_offset 5, -8
 574              		.cfi_offset 14, -4
 366:FreeRTOS/croutine.c **** corCRCB *pxUnblockedCRCB;
 367:FreeRTOS/croutine.c **** signed portBASE_TYPE xReturn;
 368:FreeRTOS/croutine.c **** 
 369:FreeRTOS/croutine.c **** 	/* This function is called from within an interrupt.  It can only access
 370:FreeRTOS/croutine.c **** 	event lists and the pending ready list.  This function assumes that a
 371:FreeRTOS/croutine.c **** 	check has already been made to ensure pxEventList is not empty. */
 372:FreeRTOS/croutine.c **** 	pxUnblockedCRCB = ( corCRCB * ) listGET_OWNER_OF_HEAD_ENTRY( pxEventList );
ARM GAS  /tmp/ccj5xTXe.s 			page 19


 575              		.loc 1 372 0
 576 0002 C368     		ldr	r3, [r0, #12]	@ D.6018, pxEventList_2(D)->xListEnd.pxNext
 577 0004 DC68     		ldr	r4, [r3, #12]	@ pxUnblockedCRCB, D.6018_3->pvOwner
 578              	.LVL40:
 373:FreeRTOS/croutine.c **** 	vListRemove( &( pxUnblockedCRCB->xEventListItem ) );
 579              		.loc 1 373 0
 580 0006 04F11805 		add	r5, r4, #24	@ D.6019, pxUnblockedCRCB,
 581 000a 2846     		mov	r0, r5	@, D.6019
 582              	.LVL41:
 583 000c FFF7FEFF 		bl	vListRemove	@
 584              	.LVL42:
 374:FreeRTOS/croutine.c **** 	vListInsertEnd( ( xList * ) &( xPendingReadyCoRoutineList ), &( pxUnblockedCRCB->xEventListItem ) 
 585              		.loc 1 374 0
 586 0010 2946     		mov	r1, r5	@, D.6019
 587 0012 0648     		ldr	r0, .L45	@,
 588 0014 FFF7FEFF 		bl	vListInsertEnd	@
 589              	.LVL43:
 375:FreeRTOS/croutine.c **** 
 376:FreeRTOS/croutine.c **** 	if( pxUnblockedCRCB->uxPriority >= pxCurrentCoRoutine->uxPriority )
 590              		.loc 1 376 0
 591 0018 0548     		ldr	r0, .L45+4	@ tmp146,
 592 001a 0168     		ldr	r1, [r0, #0]	@ pxCurrentCoRoutine, pxCurrentCoRoutine
 593 001c E06A     		ldr	r0, [r4, #44]	@ pxUnblockedCRCB_4->uxPriority, pxUnblockedCRCB_4->uxPriority
 594 001e CA6A     		ldr	r2, [r1, #44]	@ pxCurrentCoRoutine.0_8->uxPriority, pxCurrentCoRoutine.0_8->uxPriority
 377:FreeRTOS/croutine.c **** 	{
 378:FreeRTOS/croutine.c **** 		xReturn = pdTRUE;
 379:FreeRTOS/croutine.c **** 	}
 380:FreeRTOS/croutine.c **** 	else
 381:FreeRTOS/croutine.c **** 	{
 382:FreeRTOS/croutine.c **** 		xReturn = pdFALSE;
 383:FreeRTOS/croutine.c **** 	}
 384:FreeRTOS/croutine.c **** 
 385:FreeRTOS/croutine.c **** 	return xReturn;
 386:FreeRTOS/croutine.c **** }
 595              		.loc 1 386 0
 596 0020 9042     		cmp	r0, r2	@ pxUnblockedCRCB_4->uxPriority, pxCurrentCoRoutine.0_8->uxPriority
 597 0022 34BF     		ite	cc
 598 0024 0020     		movcc	r0, #0	@,
 599 0026 0120     		movcs	r0, #1	@,
 600 0028 38BD     		pop	{r3, r4, r5, pc}	@
 601              	.L46:
 602 002a 00BF     		.align	2
 603              	.L45:
 604 002c 00000000 		.word	.LANCHOR4
 605 0030 00000000 		.word	.LANCHOR0
 606              		.cfi_endproc
 607              	.LFE61:
 608              		.size	xCoRoutineRemoveFromEventList, .-xCoRoutineRemoveFromEventList
 609              		.global	pxCurrentCoRoutine
 610              		.section	.bss.xDelayedCoRoutineList1,"aw",%nobits
 611              		.align	2
 612              		.set	.LANCHOR2,. + 0
 613              		.type	xDelayedCoRoutineList1, %object
 614              		.size	xDelayedCoRoutineList1, 20
 615              	xDelayedCoRoutineList1:
 616 0000 00000000 		.space	20
 616      00000000 
ARM GAS  /tmp/ccj5xTXe.s 			page 20


 616      00000000 
 616      00000000 
 616      00000000 
 617              		.section	.bss.xPassedTicks,"aw",%nobits
 618              		.align	2
 619              		.set	.LANCHOR9,. + 0
 620              		.type	xPassedTicks, %object
 621              		.size	xPassedTicks, 4
 622              	xPassedTicks:
 623 0000 00000000 		.space	4
 624              		.section	.bss.xPendingReadyCoRoutineList,"aw",%nobits
 625              		.align	2
 626              		.set	.LANCHOR4,. + 0
 627              		.type	xPendingReadyCoRoutineList, %object
 628              		.size	xPendingReadyCoRoutineList, 20
 629              	xPendingReadyCoRoutineList:
 630 0000 00000000 		.space	20
 630      00000000 
 630      00000000 
 630      00000000 
 630      00000000 
 631              		.section	.bss.pxCurrentCoRoutine,"aw",%nobits
 632              		.align	2
 633              		.set	.LANCHOR0,. + 0
 634              		.type	pxCurrentCoRoutine, %object
 635              		.size	pxCurrentCoRoutine, 4
 636              	pxCurrentCoRoutine:
 637 0000 00000000 		.space	4
 638              		.section	.bss.xDelayedCoRoutineList2,"aw",%nobits
 639              		.align	2
 640              		.set	.LANCHOR3,. + 0
 641              		.type	xDelayedCoRoutineList2, %object
 642              		.size	xDelayedCoRoutineList2, 20
 643              	xDelayedCoRoutineList2:
 644 0000 00000000 		.space	20
 644      00000000 
 644      00000000 
 644      00000000 
 644      00000000 
 645              		.section	.bss.xCoRoutineTickCount,"aw",%nobits
 646              		.align	2
 647              		.set	.LANCHOR8,. + 0
 648              		.type	xCoRoutineTickCount, %object
 649              		.size	xCoRoutineTickCount, 4
 650              	xCoRoutineTickCount:
 651 0000 00000000 		.space	4
 652              		.section	.bss.xLastTickCount,"aw",%nobits
 653              		.align	2
 654              		.set	.LANCHOR10,. + 0
 655              		.type	xLastTickCount, %object
 656              		.size	xLastTickCount, 4
 657              	xLastTickCount:
 658 0000 00000000 		.space	4
 659              		.section	.bss.pxDelayedCoRoutineList,"aw",%nobits
 660              		.align	2
 661              		.set	.LANCHOR5,. + 0
 662              		.type	pxDelayedCoRoutineList, %object
ARM GAS  /tmp/ccj5xTXe.s 			page 21


 663              		.size	pxDelayedCoRoutineList, 4
 664              	pxDelayedCoRoutineList:
 665 0000 00000000 		.space	4
 666              		.section	.bss.pxReadyCoRoutineLists,"aw",%nobits
 667              		.align	2
 668              		.set	.LANCHOR1,. + 0
 669              		.type	pxReadyCoRoutineLists, %object
 670              		.size	pxReadyCoRoutineLists, 40
 671              	pxReadyCoRoutineLists:
 672 0000 00000000 		.space	40
 672      00000000 
 672      00000000 
 672      00000000 
 672      00000000 
 673              		.section	.bss.uxTopCoRoutineReadyPriority,"aw",%nobits
 674              		.align	2
 675              		.set	.LANCHOR7,. + 0
 676              		.type	uxTopCoRoutineReadyPriority, %object
 677              		.size	uxTopCoRoutineReadyPriority, 4
 678              	uxTopCoRoutineReadyPriority:
 679 0000 00000000 		.space	4
 680              		.section	.bss.pxOverflowDelayedCoRoutineList,"aw",%nobits
 681              		.align	2
 682              		.set	.LANCHOR6,. + 0
 683              		.type	pxOverflowDelayedCoRoutineList, %object
 684              		.size	pxOverflowDelayedCoRoutineList, 4
 685              	pxOverflowDelayedCoRoutineList:
 686 0000 00000000 		.space	4
 687              		.text
 688              	.Letext0:
 689              		.file 2 "/home/maciek/gcc-arm-none-eabi/gcc-arm-none-eabi-4_7-2013q1/bin/../lib/gcc/arm-none-eabi/
 690              		.file 3 "/home/maciek/gcc-arm-none-eabi/gcc-arm-none-eabi-4_7-2013q1/bin/../lib/gcc/arm-none-eabi/
 691              		.file 4 "FreeRTOS/portable/GCC/ARM_CM3/portmacro.h"
 692              		.file 5 "FreeRTOS/include/list.h"
 693              		.file 6 "FreeRTOS/include/croutine.h"
 694              		.file 7 "inc/core_cm3.h"
 695              		.file 8 "FreeRTOS/include/portable.h"
 696              		.file 9 "FreeRTOS/include/task.h"