ARM GAS  C:\Users\Adrian\AppData\Local\Temp\ccZDfsHq.s 			page 1


   1              		.syntax unified
   2              		.cpu cortex-m3
   3              		.fpu softvfp
   4              		.eabi_attribute 20, 1	@ Tag_ABI_FP_denormal
   5              		.eabi_attribute 21, 1	@ Tag_ABI_FP_exceptions
   6              		.eabi_attribute 23, 3	@ Tag_ABI_FP_number_model
   7              		.eabi_attribute 24, 1	@ Tag_ABI_align8_needed
   8              		.eabi_attribute 25, 1	@ Tag_ABI_align8_preserved
   9              		.eabi_attribute 26, 1	@ Tag_ABI_enum_size
  10              		.eabi_attribute 30, 6	@ Tag_ABI_optimization_goals
  11              		.eabi_attribute 34, 1	@ Tag_CPU_unaligned_access
  12              		.eabi_attribute 18, 4	@ Tag_ABI_PCS_wchar_t
  13              		.file	"driver.cpp"
  14              	@ GNU C++ (GNU Tools for ARM Embedded Processors) version 4.8.4 20140526 (release) [ARM/embedded-4_
  15              	@	compiled by GNU C version 4.6.4, GMP version 4.3.2, MPFR version 2.4.2, MPC version 0.8.1
  16              	@ GGC heuristics: --param ggc-min-expand=100 --param ggc-min-heapsize=131072
  17              	@ options passed:  -I . -I inc -I FreeRTOS/include
  18              	@ -I FreeRTOS/portable/GCC/ARM_CM3 -I FatFS -I peripherals -I configuration
  19              	@ -I drivers -I application -imultilib armv7-m
  20              	@ -iprefix d:\programy\gnu tools arm embedded\4.8 2014q2\bin\../lib/gcc/arm-none-eabi/4.8.4/
  21              	@ -isysroot d:\programy\gnu tools arm embedded\4.8 2014q2\bin\../arm-none-eabi
  22              	@ -MD out/driver.d -MF out/driver.d -MP -MQ out/driver.o
  23              	@ -D__USES_INITFINI__ -D STM32L1XX_MD drivers/driver.cpp -mcpu=cortex-m3
  24              	@ -mthumb -auxbase-strip out/driver.o -g -ggdb3 -O0 -Wall -Wextra
  25              	@ -std=gnu++11 -ffunction-sections -fdata-sections -fno-rtti
  26              	@ -fno-exceptions -fverbose-asm
  27              	@ options enabled:  -faggressive-loop-optimizations -fauto-inc-dec
  28              	@ -fbranch-count-reg -fcommon -fdata-sections -fdelete-null-pointer-checks
  29              	@ -fdwarf2-cfi-asm -fearly-inlining -feliminate-unused-debug-types
  30              	@ -ffunction-cse -ffunction-sections -fgcse-lm -fgnu-runtime -fident
  31              	@ -finline-atomics -fira-hoist-pressure -fira-share-save-slots
  32              	@ -fira-share-spill-slots -fivopts -fkeep-static-consts
  33              	@ -fleading-underscore -fmath-errno -fmerge-debug-strings
  34              	@ -fmove-loop-invariants -fpeephole -fprefetch-loop-arrays
  35              	@ -freg-struct-return -fsched-critical-path-heuristic
  36              	@ -fsched-dep-count-heuristic -fsched-group-heuristic -fsched-interblock
  37              	@ -fsched-last-insn-heuristic -fsched-rank-heuristic -fsched-spec
  38              	@ -fsched-spec-insn-heuristic -fsched-stalled-insns-dep -fshow-column
  39              	@ -fsigned-zeros -fsplit-ivs-in-unroller -fstrict-volatile-bitfields
  40              	@ -fsync-libcalls -ftrapping-math -ftree-coalesce-vars -ftree-cselim
  41              	@ -ftree-forwprop -ftree-loop-if-convert -ftree-loop-im -ftree-loop-ivcanon
  42              	@ -ftree-loop-optimize -ftree-parallelize-loops= -ftree-phiprop -ftree-pta
  43              	@ -ftree-reassoc -ftree-scev-cprop -ftree-slp-vectorize
  44              	@ -ftree-vect-loop-version -funit-at-a-time -fverbose-asm
  45              	@ -fzero-initialized-in-bss -mfix-cortex-m3-ldrd -mlittle-endian
  46              	@ -mpic-data-is-text-relative -msched-prolog -mthumb -munaligned-access
  47              	@ -mvectorize-with-neon-quad
  48              	
  49              		.text
  50              	.Ltext0:
  51              		.cfi_sections	.debug_frame
  52              		.section	.rodata
  53              		.align	2
  54              	.LC0:
  55 0000 696E6974 		.ascii	"init_driver \000"
  55      5F647269 
  55      76657220 
ARM GAS  C:\Users\Adrian\AppData\Local\Temp\ccZDfsHq.s 			page 2


  55      00
  56              		.section	.text._Z11init_driverP8driver_tii,"ax",%progbits
  57              		.align	2
  58              		.global	_Z11init_driverP8driver_tii
  59              		.thumb
  60              		.thumb_func
  61              		.type	_Z11init_driverP8driver_tii, %function
  62              	_Z11init_driverP8driver_tii:
  63              	.LFB0:
  64              		.file 1 "drivers/driver.cpp"
   1:drivers/driver.cpp **** #include <stdio.h>
   2:drivers/driver.cpp **** #include <stdlib.h>
   3:drivers/driver.cpp **** 
   4:drivers/driver.cpp **** #include "driver.h"
   5:drivers/driver.cpp **** 
   6:drivers/driver.cpp **** #define NO_ERROR 0
   7:drivers/driver.cpp **** 
   8:drivers/driver.cpp **** 
   9:drivers/driver.cpp **** int init_driver (struct driver_t * self, int id, int buffer_size)
  10:drivers/driver.cpp **** {
  65              		.loc 1 10 0
  66              		.cfi_startproc
  67              		@ args = 0, pretend = 0, frame = 16
  68              		@ frame_needed = 1, uses_anonymous_args = 0
  69 0000 80B5     		push	{r7, lr}	@
  70              		.cfi_def_cfa_offset 8
  71              		.cfi_offset 7, -8
  72              		.cfi_offset 14, -4
  73 0002 84B0     		sub	sp, sp, #16	@,,
  74              		.cfi_def_cfa_offset 24
  75 0004 00AF     		add	r7, sp, #0	@,,
  76              		.cfi_def_cfa_register 7
  77 0006 F860     		str	r0, [r7, #12]	@ self, self
  78 0008 B960     		str	r1, [r7, #8]	@ id, id
  79 000a 7A60     		str	r2, [r7, #4]	@ buffer_size, buffer_size
  11:drivers/driver.cpp **** 	printf ("init_driver \n");
  80              		.loc 1 11 0
  81 000c 0348     		ldr	r0, .L3	@,
  82 000e FFF7FEFF 		bl	puts	@
  12:drivers/driver.cpp **** 
  13:drivers/driver.cpp **** 	return NO_ERROR;
  83              		.loc 1 13 0
  84 0012 0023     		movs	r3, #0	@ D.5963,
  14:drivers/driver.cpp **** }
  85              		.loc 1 14 0
  86 0014 1846     		mov	r0, r3	@, <retval>
  87 0016 1037     		adds	r7, r7, #16	@,,
  88 0018 BD46     		mov	sp, r7	@,
  89              		@ sp needed	@
  90 001a 80BD     		pop	{r7, pc}	@
  91              	.L4:
  92              		.align	2
  93              	.L3:
  94 001c 00000000 		.word	.LC0
  95              		.cfi_endproc
  96              	.LFE0:
  97              		.size	_Z11init_driverP8driver_tii, .-_Z11init_driverP8driver_tii
ARM GAS  C:\Users\Adrian\AppData\Local\Temp\ccZDfsHq.s 			page 3


  98              		.section	.rodata
  99 000d 000000   		.align	2
 100              	.LC1:
 101 0010 72656C65 		.ascii	"release_driver \000"
 101      6173655F 
 101      64726976 
 101      65722000 
 102              		.section	.text._Z14release_driverP8driver_t,"ax",%progbits
 103              		.align	2
 104              		.global	_Z14release_driverP8driver_t
 105              		.thumb
 106              		.thumb_func
 107              		.type	_Z14release_driverP8driver_t, %function
 108              	_Z14release_driverP8driver_t:
 109              	.LFB1:
  15:drivers/driver.cpp **** 
  16:drivers/driver.cpp **** int release_driver (struct driver_t * self)
  17:drivers/driver.cpp **** {
 110              		.loc 1 17 0
 111              		.cfi_startproc
 112              		@ args = 0, pretend = 0, frame = 8
 113              		@ frame_needed = 1, uses_anonymous_args = 0
 114 0000 80B5     		push	{r7, lr}	@
 115              		.cfi_def_cfa_offset 8
 116              		.cfi_offset 7, -8
 117              		.cfi_offset 14, -4
 118 0002 82B0     		sub	sp, sp, #8	@,,
 119              		.cfi_def_cfa_offset 16
 120 0004 00AF     		add	r7, sp, #0	@,,
 121              		.cfi_def_cfa_register 7
 122 0006 7860     		str	r0, [r7, #4]	@ self, self
  18:drivers/driver.cpp **** 	printf ("release_driver \n");
 123              		.loc 1 18 0
 124 0008 0348     		ldr	r0, .L7	@,
 125 000a FFF7FEFF 		bl	puts	@
  19:drivers/driver.cpp **** 
  20:drivers/driver.cpp **** 	return NO_ERROR;
 126              		.loc 1 20 0
 127 000e 0023     		movs	r3, #0	@ D.5965,
  21:drivers/driver.cpp **** }
 128              		.loc 1 21 0
 129 0010 1846     		mov	r0, r3	@, <retval>
 130 0012 0837     		adds	r7, r7, #8	@,,
 131 0014 BD46     		mov	sp, r7	@,
 132              		@ sp needed	@
 133 0016 80BD     		pop	{r7, pc}	@
 134              	.L8:
 135              		.align	2
 136              	.L7:
 137 0018 10000000 		.word	.LC1
 138              		.cfi_endproc
 139              	.LFE1:
 140              		.size	_Z14release_driverP8driver_t, .-_Z14release_driverP8driver_t
 141              		.section	.rodata
 142              		.align	2
 143              	.LC2:
 144 0020 73656E64 		.ascii	"send_command \000"
ARM GAS  C:\Users\Adrian\AppData\Local\Temp\ccZDfsHq.s 			page 4


 144      5F636F6D 
 144      6D616E64 
 144      2000
 145              		.section	.text._Z12send_commandP8driver_tc,"ax",%progbits
 146              		.align	2
 147              		.global	_Z12send_commandP8driver_tc
 148              		.thumb
 149              		.thumb_func
 150              		.type	_Z12send_commandP8driver_tc, %function
 151              	_Z12send_commandP8driver_tc:
 152              	.LFB2:
  22:drivers/driver.cpp **** 
  23:drivers/driver.cpp **** int send_command (struct driver_t * self, char command)
  24:drivers/driver.cpp **** {
 153              		.loc 1 24 0
 154              		.cfi_startproc
 155              		@ args = 0, pretend = 0, frame = 8
 156              		@ frame_needed = 1, uses_anonymous_args = 0
 157 0000 80B5     		push	{r7, lr}	@
 158              		.cfi_def_cfa_offset 8
 159              		.cfi_offset 7, -8
 160              		.cfi_offset 14, -4
 161 0002 82B0     		sub	sp, sp, #8	@,,
 162              		.cfi_def_cfa_offset 16
 163 0004 00AF     		add	r7, sp, #0	@,,
 164              		.cfi_def_cfa_register 7
 165 0006 7860     		str	r0, [r7, #4]	@ self, self
 166 0008 0B46     		mov	r3, r1	@ tmp112, command
 167 000a FB70     		strb	r3, [r7, #3]	@ tmp113, command
  25:drivers/driver.cpp **** 	printf ("send_command \n");
 168              		.loc 1 25 0
 169 000c 0348     		ldr	r0, .L11	@,
 170 000e FFF7FEFF 		bl	puts	@
  26:drivers/driver.cpp **** 
  27:drivers/driver.cpp **** 	return NO_ERROR;
 171              		.loc 1 27 0
 172 0012 0023     		movs	r3, #0	@ D.5967,
  28:drivers/driver.cpp **** }
 173              		.loc 1 28 0
 174 0014 1846     		mov	r0, r3	@, <retval>
 175 0016 0837     		adds	r7, r7, #8	@,,
 176 0018 BD46     		mov	sp, r7	@,
 177              		@ sp needed	@
 178 001a 80BD     		pop	{r7, pc}	@
 179              	.L12:
 180              		.align	2
 181              	.L11:
 182 001c 20000000 		.word	.LC2
 183              		.cfi_endproc
 184              	.LFE2:
 185              		.size	_Z12send_commandP8driver_tc, .-_Z12send_commandP8driver_tc
 186              		.section	.rodata
 187 002e 0000     		.align	2
 188              	.LC3:
 189 0030 72656369 		.ascii	"recive_command \000"
 189      76655F63 
 189      6F6D6D61 
ARM GAS  C:\Users\Adrian\AppData\Local\Temp\ccZDfsHq.s 			page 5


 189      6E642000 
 190              		.section	.text._Z14recive_commandP8driver_t,"ax",%progbits
 191              		.align	2
 192              		.global	_Z14recive_commandP8driver_t
 193              		.thumb
 194              		.thumb_func
 195              		.type	_Z14recive_commandP8driver_t, %function
 196              	_Z14recive_commandP8driver_t:
 197              	.LFB3:
  29:drivers/driver.cpp **** 
  30:drivers/driver.cpp **** int recive_command (struct driver_t * self)
  31:drivers/driver.cpp **** {
 198              		.loc 1 31 0
 199              		.cfi_startproc
 200              		@ args = 0, pretend = 0, frame = 8
 201              		@ frame_needed = 1, uses_anonymous_args = 0
 202 0000 80B5     		push	{r7, lr}	@
 203              		.cfi_def_cfa_offset 8
 204              		.cfi_offset 7, -8
 205              		.cfi_offset 14, -4
 206 0002 82B0     		sub	sp, sp, #8	@,,
 207              		.cfi_def_cfa_offset 16
 208 0004 00AF     		add	r7, sp, #0	@,,
 209              		.cfi_def_cfa_register 7
 210 0006 7860     		str	r0, [r7, #4]	@ self, self
  32:drivers/driver.cpp **** 	printf ("recive_command \n");
 211              		.loc 1 32 0
 212 0008 0348     		ldr	r0, .L15	@,
 213 000a FFF7FEFF 		bl	puts	@
  33:drivers/driver.cpp **** 
  34:drivers/driver.cpp **** 	return NO_ERROR;
 214              		.loc 1 34 0
 215 000e 0023     		movs	r3, #0	@ D.5969,
  35:drivers/driver.cpp **** }
 216              		.loc 1 35 0
 217 0010 1846     		mov	r0, r3	@, <retval>
 218 0012 0837     		adds	r7, r7, #8	@,,
 219 0014 BD46     		mov	sp, r7	@,
 220              		@ sp needed	@
 221 0016 80BD     		pop	{r7, pc}	@
 222              	.L16:
 223              		.align	2
 224              	.L15:
 225 0018 30000000 		.word	.LC3
 226              		.cfi_endproc
 227              	.LFE3:
 228              		.size	_Z14recive_commandP8driver_t, .-_Z14recive_commandP8driver_t
 229              		.section	.rodata
 230              		.align	2
 231              	.LC4:
 232 0040 666C7573 		.ascii	"flush_buffer \000"
 232      685F6275 
 232      66666572 
 232      2000
 233              		.section	.text._Z12flush_bufferP8driver_t,"ax",%progbits
 234              		.align	2
 235              		.global	_Z12flush_bufferP8driver_t
ARM GAS  C:\Users\Adrian\AppData\Local\Temp\ccZDfsHq.s 			page 6


 236              		.thumb
 237              		.thumb_func
 238              		.type	_Z12flush_bufferP8driver_t, %function
 239              	_Z12flush_bufferP8driver_t:
 240              	.LFB4:
  36:drivers/driver.cpp **** 
  37:drivers/driver.cpp **** int flush_buffer (struct driver_t * self)
  38:drivers/driver.cpp **** {
 241              		.loc 1 38 0
 242              		.cfi_startproc
 243              		@ args = 0, pretend = 0, frame = 8
 244              		@ frame_needed = 1, uses_anonymous_args = 0
 245 0000 80B5     		push	{r7, lr}	@
 246              		.cfi_def_cfa_offset 8
 247              		.cfi_offset 7, -8
 248              		.cfi_offset 14, -4
 249 0002 82B0     		sub	sp, sp, #8	@,,
 250              		.cfi_def_cfa_offset 16
 251 0004 00AF     		add	r7, sp, #0	@,,
 252              		.cfi_def_cfa_register 7
 253 0006 7860     		str	r0, [r7, #4]	@ self, self
  39:drivers/driver.cpp **** 	printf ("flush_buffer \n");
 254              		.loc 1 39 0
 255 0008 0348     		ldr	r0, .L19	@,
 256 000a FFF7FEFF 		bl	puts	@
  40:drivers/driver.cpp **** 
  41:drivers/driver.cpp **** 	return NO_ERROR;
 257              		.loc 1 41 0
 258 000e 0023     		movs	r3, #0	@ D.5971,
  42:drivers/driver.cpp **** }
 259              		.loc 1 42 0
 260 0010 1846     		mov	r0, r3	@, <retval>
 261 0012 0837     		adds	r7, r7, #8	@,,
 262 0014 BD46     		mov	sp, r7	@,
 263              		@ sp needed	@
 264 0016 80BD     		pop	{r7, pc}	@
 265              	.L20:
 266              		.align	2
 267              	.L19:
 268 0018 40000000 		.word	.LC4
 269              		.cfi_endproc
 270              	.LFE4:
 271              		.size	_Z12flush_bufferP8driver_t, .-_Z12flush_bufferP8driver_t
 272              		.section	.rodata
 273 004e 0000     		.align	2
 274              	.LC5:
 275 0050 72656469 		.ascii	"redirect_output \000"
 275      72656374 
 275      5F6F7574 
 275      70757420 
 275      00
 276              		.section	.text._Z15redirect_outputP8driver_tPc,"ax",%progbits
 277              		.align	2
 278              		.global	_Z15redirect_outputP8driver_tPc
 279              		.thumb
 280              		.thumb_func
 281              		.type	_Z15redirect_outputP8driver_tPc, %function
ARM GAS  C:\Users\Adrian\AppData\Local\Temp\ccZDfsHq.s 			page 7


 282              	_Z15redirect_outputP8driver_tPc:
 283              	.LFB5:
  43:drivers/driver.cpp **** 
  44:drivers/driver.cpp **** int redirect_output (struct driver_t * self, char* external_buffer)
  45:drivers/driver.cpp **** {
 284              		.loc 1 45 0
 285              		.cfi_startproc
 286              		@ args = 0, pretend = 0, frame = 8
 287              		@ frame_needed = 1, uses_anonymous_args = 0
 288 0000 80B5     		push	{r7, lr}	@
 289              		.cfi_def_cfa_offset 8
 290              		.cfi_offset 7, -8
 291              		.cfi_offset 14, -4
 292 0002 82B0     		sub	sp, sp, #8	@,,
 293              		.cfi_def_cfa_offset 16
 294 0004 00AF     		add	r7, sp, #0	@,,
 295              		.cfi_def_cfa_register 7
 296 0006 7860     		str	r0, [r7, #4]	@ self, self
 297 0008 3960     		str	r1, [r7]	@ external_buffer, external_buffer
  46:drivers/driver.cpp **** 	external_buffer[0] = 'A';
 298              		.loc 1 46 0
 299 000a 3B68     		ldr	r3, [r7]	@ tmp112, external_buffer
 300 000c 4122     		movs	r2, #65	@ tmp113,
 301 000e 1A70     		strb	r2, [r3]	@ tmp114, *external_buffer_1(D)
  47:drivers/driver.cpp **** 
  48:drivers/driver.cpp **** 	printf ("redirect_output \n");
 302              		.loc 1 48 0
 303 0010 0348     		ldr	r0, .L23	@,
 304 0012 FFF7FEFF 		bl	puts	@
  49:drivers/driver.cpp **** 
  50:drivers/driver.cpp **** 	return NO_ERROR;
 305              		.loc 1 50 0
 306 0016 0023     		movs	r3, #0	@ D.5973,
  51:drivers/driver.cpp **** }
 307              		.loc 1 51 0
 308 0018 1846     		mov	r0, r3	@, <retval>
 309 001a 0837     		adds	r7, r7, #8	@,,
 310 001c BD46     		mov	sp, r7	@,
 311              		@ sp needed	@
 312 001e 80BD     		pop	{r7, pc}	@
 313              	.L24:
 314              		.align	2
 315              	.L23:
 316 0020 50000000 		.word	.LC5
 317              		.cfi_endproc
 318              	.LFE5:
 319              		.size	_Z15redirect_outputP8driver_tPc, .-_Z15redirect_outputP8driver_tPc
 320              		.section	.rodata
 321 0061 000000   		.align	2
 322              	.LC6:
 323 0064 73746F70 		.ascii	"stop_redirect \000"
 323      5F726564 
 323      69726563 
 323      742000
 324 0073 00       		.section	.text._Z13stop_redirectP8driver_t,"ax",%progbits
 325              		.align	2
 326              		.global	_Z13stop_redirectP8driver_t
ARM GAS  C:\Users\Adrian\AppData\Local\Temp\ccZDfsHq.s 			page 8


 327              		.thumb
 328              		.thumb_func
 329              		.type	_Z13stop_redirectP8driver_t, %function
 330              	_Z13stop_redirectP8driver_t:
 331              	.LFB6:
  52:drivers/driver.cpp **** 
  53:drivers/driver.cpp **** int stop_redirect (struct driver_t * self)
  54:drivers/driver.cpp **** {
 332              		.loc 1 54 0
 333              		.cfi_startproc
 334              		@ args = 0, pretend = 0, frame = 8
 335              		@ frame_needed = 1, uses_anonymous_args = 0
 336 0000 80B5     		push	{r7, lr}	@
 337              		.cfi_def_cfa_offset 8
 338              		.cfi_offset 7, -8
 339              		.cfi_offset 14, -4
 340 0002 82B0     		sub	sp, sp, #8	@,,
 341              		.cfi_def_cfa_offset 16
 342 0004 00AF     		add	r7, sp, #0	@,,
 343              		.cfi_def_cfa_register 7
 344 0006 7860     		str	r0, [r7, #4]	@ self, self
  55:drivers/driver.cpp **** 
  56:drivers/driver.cpp **** 	printf ("stop_redirect \n");
 345              		.loc 1 56 0
 346 0008 0348     		ldr	r0, .L27	@,
 347 000a FFF7FEFF 		bl	puts	@
  57:drivers/driver.cpp **** 
  58:drivers/driver.cpp **** 	return NO_ERROR;
 348              		.loc 1 58 0
 349 000e 0023     		movs	r3, #0	@ D.5975,
  59:drivers/driver.cpp **** }
 350              		.loc 1 59 0
 351 0010 1846     		mov	r0, r3	@, <retval>
 352 0012 0837     		adds	r7, r7, #8	@,,
 353 0014 BD46     		mov	sp, r7	@,
 354              		@ sp needed	@
 355 0016 80BD     		pop	{r7, pc}	@
 356              	.L28:
 357              		.align	2
 358              	.L27:
 359 0018 64000000 		.word	.LC6
 360              		.cfi_endproc
 361              	.LFE6:
 362              		.size	_Z13stop_redirectP8driver_t, .-_Z13stop_redirectP8driver_t
 363              		.section	.text.new_driver,"ax",%progbits
 364              		.align	2
 365              		.global	new_driver
 366              		.thumb
 367              		.thumb_func
 368              		.type	new_driver, %function
 369              	new_driver:
 370              	.LFB7:
  60:drivers/driver.cpp **** 
  61:drivers/driver.cpp **** 
  62:drivers/driver.cpp **** struct driver_t * new_driver(struct driver_configuration * config)
  63:drivers/driver.cpp **** {
 371              		.loc 1 63 0
ARM GAS  C:\Users\Adrian\AppData\Local\Temp\ccZDfsHq.s 			page 9


 372              		.cfi_startproc
 373              		@ args = 0, pretend = 0, frame = 8
 374              		@ frame_needed = 1, uses_anonymous_args = 0
 375 0000 80B5     		push	{r7, lr}	@
 376              		.cfi_def_cfa_offset 8
 377              		.cfi_offset 7, -8
 378              		.cfi_offset 14, -4
 379 0002 82B0     		sub	sp, sp, #8	@,,
 380              		.cfi_def_cfa_offset 16
 381 0004 00AF     		add	r7, sp, #0	@,,
 382              		.cfi_def_cfa_register 7
 383 0006 7860     		str	r0, [r7, #4]	@ config, config
 384              	.LBB2:
  64:drivers/driver.cpp **** 	printf (config->driver_name);
 385              		.loc 1 64 0
 386 0008 7B68     		ldr	r3, [r7, #4]	@ tmp124, config
 387 000a 1B68     		ldr	r3, [r3]	@ D.5977, config_1(D)->driver_name
 388 000c 1846     		mov	r0, r3	@, D.5977
 389 000e FFF7FEFF 		bl	printf	@
  65:drivers/driver.cpp **** 	static struct driver_t * drv = NULL;
  66:drivers/driver.cpp **** 
  67:drivers/driver.cpp **** 	if (drv == NULL)
 390              		.loc 1 67 0
 391 0012 194B     		ldr	r3, .L32	@ tmp125,
 392 0014 1B68     		ldr	r3, [r3]	@ drv.0, drv
 393 0016 002B     		cmp	r3, #0	@ drv.0,
 394 0018 28D1     		bne	.L30	@,
  68:drivers/driver.cpp **** 	{
  69:drivers/driver.cpp **** 		drv = (struct driver_t*) malloc (sizeof (struct driver_t) );
 395              		.loc 1 69 0
 396 001a 2C20     		movs	r0, #44	@,
 397 001c FFF7FEFF 		bl	malloc	@
 398 0020 0346     		mov	r3, r0	@ tmp126,
 399 0022 1A46     		mov	r2, r3	@ drv.1, tmp126
 400 0024 144B     		ldr	r3, .L32	@ tmp127,
 401 0026 1A60     		str	r2, [r3]	@ drv.1, drv
  70:drivers/driver.cpp **** 		drv->init_driver = &init_driver;
 402              		.loc 1 70 0
 403 0028 134B     		ldr	r3, .L32	@ tmp128,
 404 002a 1B68     		ldr	r3, [r3]	@ drv.2, drv
 405 002c 134A     		ldr	r2, .L32+4	@ tmp129,
 406 002e 1A60     		str	r2, [r3]	@ tmp129, drv.2_5->init_driver
  71:drivers/driver.cpp **** 		drv->release_driver = &release_driver;
 407              		.loc 1 71 0
 408 0030 114B     		ldr	r3, .L32	@ tmp130,
 409 0032 1B68     		ldr	r3, [r3]	@ drv.3, drv
 410 0034 124A     		ldr	r2, .L32+8	@ tmp131,
 411 0036 5A60     		str	r2, [r3, #4]	@ tmp131, drv.3_6->release_driver
  72:drivers/driver.cpp **** 		drv->send_command   = &send_command;
 412              		.loc 1 72 0
 413 0038 0F4B     		ldr	r3, .L32	@ tmp132,
 414 003a 1B68     		ldr	r3, [r3]	@ drv.4, drv
 415 003c 114A     		ldr	r2, .L32+12	@ tmp133,
 416 003e 9A60     		str	r2, [r3, #8]	@ tmp133, drv.4_7->send_command
  73:drivers/driver.cpp **** 		drv->recive_command = &recive_command;
 417              		.loc 1 73 0
 418 0040 0D4B     		ldr	r3, .L32	@ tmp134,
ARM GAS  C:\Users\Adrian\AppData\Local\Temp\ccZDfsHq.s 			page 10


 419 0042 1B68     		ldr	r3, [r3]	@ drv.5, drv
 420 0044 104A     		ldr	r2, .L32+16	@ tmp135,
 421 0046 DA60     		str	r2, [r3, #12]	@ tmp135, drv.5_8->recive_command
  74:drivers/driver.cpp **** 		drv->flush_buffer   = &flush_buffer;
 422              		.loc 1 74 0
 423 0048 0B4B     		ldr	r3, .L32	@ tmp136,
 424 004a 1B68     		ldr	r3, [r3]	@ drv.6, drv
 425 004c 0F4A     		ldr	r2, .L32+20	@ tmp137,
 426 004e 1A61     		str	r2, [r3, #16]	@ tmp137, drv.6_9->flush_buffer
  75:drivers/driver.cpp **** 		drv->redirect_output= &redirect_output;
 427              		.loc 1 75 0
 428 0050 094B     		ldr	r3, .L32	@ tmp138,
 429 0052 1B68     		ldr	r3, [r3]	@ drv.7, drv
 430 0054 0E4A     		ldr	r2, .L32+24	@ tmp139,
 431 0056 5A61     		str	r2, [r3, #20]	@ tmp139, drv.7_10->redirect_output
  76:drivers/driver.cpp **** 		drv->stop_redirect  = &stop_redirect;
 432              		.loc 1 76 0
 433 0058 074B     		ldr	r3, .L32	@ tmp140,
 434 005a 1B68     		ldr	r3, [r3]	@ drv.8, drv
 435 005c 0D4A     		ldr	r2, .L32+28	@ tmp141,
 436 005e 9A61     		str	r2, [r3, #24]	@ tmp141, drv.8_11->stop_redirect
  77:drivers/driver.cpp **** 		drv->driver_strategy = config->driver_strategy;
 437              		.loc 1 77 0
 438 0060 054B     		ldr	r3, .L32	@ tmp142,
 439 0062 1B68     		ldr	r3, [r3]	@ drv.9, drv
 440 0064 7A68     		ldr	r2, [r7, #4]	@ tmp143, config
 441 0066 1279     		ldrb	r2, [r2, #4]	@ zero_extendqisi2	@ D.5978, config_1(D)->driver_strategy
 442 0068 83F82820 		strb	r2, [r3, #40]	@ tmp144, drv.9_12->driver_strategy
 443              	.L30:
  78:drivers/driver.cpp **** 	}
  79:drivers/driver.cpp **** 	return drv;
 444              		.loc 1 79 0
 445 006c 024B     		ldr	r3, .L32	@ tmp145,
 446 006e 1B68     		ldr	r3, [r3]	@ D.5979, drv
 447              	.LBE2:
  80:drivers/driver.cpp **** }
 448              		.loc 1 80 0
 449 0070 1846     		mov	r0, r3	@, <retval>
 450 0072 0837     		adds	r7, r7, #8	@,,
 451 0074 BD46     		mov	sp, r7	@,
 452              		@ sp needed	@
 453 0076 80BD     		pop	{r7, pc}	@
 454              	.L33:
 455              		.align	2
 456              	.L32:
 457 0078 00000000 		.word	_ZZ10new_driverE3drv
 458 007c 00000000 		.word	_Z11init_driverP8driver_tii
 459 0080 00000000 		.word	_Z14release_driverP8driver_t
 460 0084 00000000 		.word	_Z12send_commandP8driver_tc
 461 0088 00000000 		.word	_Z14recive_commandP8driver_t
 462 008c 00000000 		.word	_Z12flush_bufferP8driver_t
 463 0090 00000000 		.word	_Z15redirect_outputP8driver_tPc
 464 0094 00000000 		.word	_Z13stop_redirectP8driver_t
 465              		.cfi_endproc
 466              	.LFE7:
 467              		.size	new_driver, .-new_driver
 468              		.section	.bss._ZZ10new_driverE3drv,"aw",%nobits
ARM GAS  C:\Users\Adrian\AppData\Local\Temp\ccZDfsHq.s 			page 11


 469              		.align	2
 470              		.type	_ZZ10new_driverE3drv, %object
 471              		.size	_ZZ10new_driverE3drv, 4
 472              	_ZZ10new_driverE3drv:
 473 0000 00000000 		.space	4
 474              		.text
 475              	.Letext0:
 476              		.file 2 "drivers/driver.h"