ARM GAS  C:\Users\Adrian\AppData\Local\Temp\ccQ66cKY.s 			page 1


   1              		.syntax unified
   2              		.cpu cortex-m3
   3              		.fpu softvfp
   4              		.eabi_attribute 20, 1	@ Tag_ABI_FP_denormal
   5              		.eabi_attribute 21, 1	@ Tag_ABI_FP_exceptions
   6              		.eabi_attribute 23, 3	@ Tag_ABI_FP_number_model
   7              		.eabi_attribute 24, 1	@ Tag_ABI_align8_needed
   8              		.eabi_attribute 25, 1	@ Tag_ABI_align8_preserved
   9              		.eabi_attribute 26, 1	@ Tag_ABI_enum_size
  10              		.eabi_attribute 30, 6	@ Tag_ABI_optimization_goals
  11              		.eabi_attribute 34, 1	@ Tag_CPU_unaligned_access
  12              		.eabi_attribute 18, 4	@ Tag_ABI_PCS_wchar_t
  13              		.file	"heap_3.c"
  14              	@ GNU C (GNU Tools for ARM Embedded Processors) version 4.8.4 20140526 (release) [ARM/embedded-4_8-
  15              	@	compiled by GNU C version 4.6.4, GMP version 4.3.2, MPFR version 2.4.2, MPC version 0.8.1
  16              	@ GGC heuristics: --param ggc-min-expand=100 --param ggc-min-heapsize=131072
  17              	@ options passed:  -I . -I inc -I FreeRTOS/include
  18              	@ -I FreeRTOS/portable/GCC/ARM_CM3 -I FatFS -I peripherals -I configuration
  19              	@ -I drivers -I application -imultilib armv7-m
  20              	@ -iprefix d:\programy\gnu tools arm embedded\4.8 2014q2\bin\../lib/gcc/arm-none-eabi/4.8.4/
  21              	@ -isysroot d:\programy\gnu tools arm embedded\4.8 2014q2\bin\../arm-none-eabi
  22              	@ -MD out/heap_3.d -MF out/heap_3.d -MP -MQ out/heap_3.o
  23              	@ -D__USES_INITFINI__ -D STM32L1XX_MD FreeRTOS/portable/MemMang/heap_3.c
  24              	@ -mcpu=cortex-m3 -mthumb -auxbase-strip out/heap_3.o -g -ggdb3 -O0 -Wall
  25              	@ -Wstrict-prototypes -Wextra -std=c11 -ffunction-sections -fdata-sections
  26              	@ -fverbose-asm
  27              	@ options enabled:  -faggressive-loop-optimizations -fauto-inc-dec
  28              	@ -fbranch-count-reg -fcommon -fdata-sections -fdelete-null-pointer-checks
  29              	@ -fdwarf2-cfi-asm -fearly-inlining -feliminate-unused-debug-types
  30              	@ -ffunction-cse -ffunction-sections -fgcse-lm -fgnu-runtime -fident
  31              	@ -finline-atomics -fira-hoist-pressure -fira-share-save-slots
  32              	@ -fira-share-spill-slots -fivopts -fkeep-static-consts
  33              	@ -fleading-underscore -fmath-errno -fmerge-debug-strings
  34              	@ -fmove-loop-invariants -fpeephole -fprefetch-loop-arrays
  35              	@ -freg-struct-return -fsched-critical-path-heuristic
  36              	@ -fsched-dep-count-heuristic -fsched-group-heuristic -fsched-interblock
  37              	@ -fsched-last-insn-heuristic -fsched-rank-heuristic -fsched-spec
  38              	@ -fsched-spec-insn-heuristic -fsched-stalled-insns-dep -fshow-column
  39              	@ -fsigned-zeros -fsplit-ivs-in-unroller -fstrict-volatile-bitfields
  40              	@ -fsync-libcalls -ftrapping-math -ftree-coalesce-vars -ftree-cselim
  41              	@ -ftree-forwprop -ftree-loop-if-convert -ftree-loop-im -ftree-loop-ivcanon
  42              	@ -ftree-loop-optimize -ftree-parallelize-loops= -ftree-phiprop -ftree-pta
  43              	@ -ftree-reassoc -ftree-scev-cprop -ftree-slp-vectorize
  44              	@ -ftree-vect-loop-version -funit-at-a-time -fverbose-asm
  45              	@ -fzero-initialized-in-bss -mfix-cortex-m3-ldrd -mlittle-endian
  46              	@ -mpic-data-is-text-relative -msched-prolog -mthumb -munaligned-access
  47              	@ -mvectorize-with-neon-quad
  48              	
  49              		.text
  50              	.Ltext0:
  51              		.cfi_sections	.debug_frame
  52              		.section	.text.pvPortMalloc,"ax",%progbits
  53              		.align	2
  54              		.global	pvPortMalloc
  55              		.thumb
  56              		.thumb_func
  57              		.type	pvPortMalloc, %function
ARM GAS  C:\Users\Adrian\AppData\Local\Temp\ccQ66cKY.s 			page 2


  58              	pvPortMalloc:
  59              	.LFB55:
  60              		.file 1 "FreeRTOS/portable/MemMang/heap_3.c"
   1:FreeRTOS/portable/MemMang/heap_3.c **** /*
   2:FreeRTOS/portable/MemMang/heap_3.c ****     FreeRTOS V7.2.0 - Copyright (C) 2012 Real Time Engineers Ltd.
   3:FreeRTOS/portable/MemMang/heap_3.c **** 	
   4:FreeRTOS/portable/MemMang/heap_3.c **** 
   5:FreeRTOS/portable/MemMang/heap_3.c ****     ***************************************************************************
   6:FreeRTOS/portable/MemMang/heap_3.c ****      *                                                                       *
   7:FreeRTOS/portable/MemMang/heap_3.c ****      *    FreeRTOS tutorial books are available in pdf and paperback.        *
   8:FreeRTOS/portable/MemMang/heap_3.c ****      *    Complete, revised, and edited pdf reference manuals are also       *
   9:FreeRTOS/portable/MemMang/heap_3.c ****      *    available.                                                         *
  10:FreeRTOS/portable/MemMang/heap_3.c ****      *                                                                       *
  11:FreeRTOS/portable/MemMang/heap_3.c ****      *    Purchasing FreeRTOS documentation will not only help you, by       *
  12:FreeRTOS/portable/MemMang/heap_3.c ****      *    ensuring you get running as quickly as possible and with an        *
  13:FreeRTOS/portable/MemMang/heap_3.c ****      *    in-depth knowledge of how to use FreeRTOS, it will also help       *
  14:FreeRTOS/portable/MemMang/heap_3.c ****      *    the FreeRTOS project to continue with its mission of providing     *
  15:FreeRTOS/portable/MemMang/heap_3.c ****      *    professional grade, cross platform, de facto standard solutions    *
  16:FreeRTOS/portable/MemMang/heap_3.c ****      *    for microcontrollers - completely free of charge!                  *
  17:FreeRTOS/portable/MemMang/heap_3.c ****      *                                                                       *
  18:FreeRTOS/portable/MemMang/heap_3.c ****      *    >>> See http://www.FreeRTOS.org/Documentation for details. <<<     *
  19:FreeRTOS/portable/MemMang/heap_3.c ****      *                                                                       *
  20:FreeRTOS/portable/MemMang/heap_3.c ****      *    Thank you for using FreeRTOS, and thank you for your support!      *
  21:FreeRTOS/portable/MemMang/heap_3.c ****      *                                                                       *
  22:FreeRTOS/portable/MemMang/heap_3.c ****     ***************************************************************************
  23:FreeRTOS/portable/MemMang/heap_3.c **** 
  24:FreeRTOS/portable/MemMang/heap_3.c **** 
  25:FreeRTOS/portable/MemMang/heap_3.c ****     This file is part of the FreeRTOS distribution.
  26:FreeRTOS/portable/MemMang/heap_3.c **** 
  27:FreeRTOS/portable/MemMang/heap_3.c ****     FreeRTOS is free software; you can redistribute it and/or modify it under
  28:FreeRTOS/portable/MemMang/heap_3.c ****     the terms of the GNU General Public License (version 2) as published by the
  29:FreeRTOS/portable/MemMang/heap_3.c ****     Free Software Foundation AND MODIFIED BY the FreeRTOS exception.
  30:FreeRTOS/portable/MemMang/heap_3.c ****     >>>NOTE<<< The modification to the GPL is included to allow you to
  31:FreeRTOS/portable/MemMang/heap_3.c ****     distribute a combined work that includes FreeRTOS without being obliged to
  32:FreeRTOS/portable/MemMang/heap_3.c ****     provide the source code for proprietary components outside of the FreeRTOS
  33:FreeRTOS/portable/MemMang/heap_3.c ****     kernel.  FreeRTOS is distributed in the hope that it will be useful, but
  34:FreeRTOS/portable/MemMang/heap_3.c ****     WITHOUT ANY WARRANTY; without even the implied warranty of MERCHANTABILITY
  35:FreeRTOS/portable/MemMang/heap_3.c ****     or FITNESS FOR A PARTICULAR PURPOSE.  See the GNU General Public License for
  36:FreeRTOS/portable/MemMang/heap_3.c ****     more details. You should have received a copy of the GNU General Public
  37:FreeRTOS/portable/MemMang/heap_3.c ****     License and the FreeRTOS license exception along with FreeRTOS; if not it
  38:FreeRTOS/portable/MemMang/heap_3.c ****     can be viewed here: http://www.freertos.org/a00114.html and also obtained
  39:FreeRTOS/portable/MemMang/heap_3.c ****     by writing to Richard Barry, contact details for whom are available on the
  40:FreeRTOS/portable/MemMang/heap_3.c ****     FreeRTOS WEB site.
  41:FreeRTOS/portable/MemMang/heap_3.c **** 
  42:FreeRTOS/portable/MemMang/heap_3.c ****     1 tab == 4 spaces!
  43:FreeRTOS/portable/MemMang/heap_3.c ****     
  44:FreeRTOS/portable/MemMang/heap_3.c ****     ***************************************************************************
  45:FreeRTOS/portable/MemMang/heap_3.c ****      *                                                                       *
  46:FreeRTOS/portable/MemMang/heap_3.c ****      *    Having a problem?  Start by reading the FAQ "My application does   *
  47:FreeRTOS/portable/MemMang/heap_3.c ****      *    not run, what could be wrong?                                      *
  48:FreeRTOS/portable/MemMang/heap_3.c ****      *                                                                       *
  49:FreeRTOS/portable/MemMang/heap_3.c ****      *    http://www.FreeRTOS.org/FAQHelp.html                               *
  50:FreeRTOS/portable/MemMang/heap_3.c ****      *                                                                       *
  51:FreeRTOS/portable/MemMang/heap_3.c ****     ***************************************************************************
  52:FreeRTOS/portable/MemMang/heap_3.c **** 
  53:FreeRTOS/portable/MemMang/heap_3.c ****     
  54:FreeRTOS/portable/MemMang/heap_3.c ****     http://www.FreeRTOS.org - Documentation, training, latest information, 
ARM GAS  C:\Users\Adrian\AppData\Local\Temp\ccQ66cKY.s 			page 3


  55:FreeRTOS/portable/MemMang/heap_3.c ****     license and contact details.
  56:FreeRTOS/portable/MemMang/heap_3.c ****     
  57:FreeRTOS/portable/MemMang/heap_3.c ****     http://www.FreeRTOS.org/plus - A selection of FreeRTOS ecosystem products,
  58:FreeRTOS/portable/MemMang/heap_3.c ****     including FreeRTOS+Trace - an indispensable productivity tool.
  59:FreeRTOS/portable/MemMang/heap_3.c **** 
  60:FreeRTOS/portable/MemMang/heap_3.c ****     Real Time Engineers ltd license FreeRTOS to High Integrity Systems, who sell 
  61:FreeRTOS/portable/MemMang/heap_3.c ****     the code with commercial support, indemnification, and middleware, under 
  62:FreeRTOS/portable/MemMang/heap_3.c ****     the OpenRTOS brand: http://www.OpenRTOS.com.  High Integrity Systems also
  63:FreeRTOS/portable/MemMang/heap_3.c ****     provide a safety engineered and independently SIL3 certified version under 
  64:FreeRTOS/portable/MemMang/heap_3.c ****     the SafeRTOS brand: http://www.SafeRTOS.com.
  65:FreeRTOS/portable/MemMang/heap_3.c **** */
  66:FreeRTOS/portable/MemMang/heap_3.c **** 
  67:FreeRTOS/portable/MemMang/heap_3.c **** 
  68:FreeRTOS/portable/MemMang/heap_3.c **** /*
  69:FreeRTOS/portable/MemMang/heap_3.c ****  * Implementation of pvPortMalloc() and vPortFree() that relies on the
  70:FreeRTOS/portable/MemMang/heap_3.c ****  * compilers own malloc() and free() implementations.
  71:FreeRTOS/portable/MemMang/heap_3.c ****  *
  72:FreeRTOS/portable/MemMang/heap_3.c ****  * This file can only be used if the linker is configured to to generate
  73:FreeRTOS/portable/MemMang/heap_3.c ****  * a heap memory area.
  74:FreeRTOS/portable/MemMang/heap_3.c ****  *
  75:FreeRTOS/portable/MemMang/heap_3.c ****  * See heap_1.c, heap_2.c and heap_4.c for alternative implementations, and the 
  76:FreeRTOS/portable/MemMang/heap_3.c ****  * memory management pages of http://www.FreeRTOS.org for more information.
  77:FreeRTOS/portable/MemMang/heap_3.c ****  */
  78:FreeRTOS/portable/MemMang/heap_3.c **** 
  79:FreeRTOS/portable/MemMang/heap_3.c **** #include <stdlib.h>
  80:FreeRTOS/portable/MemMang/heap_3.c **** 
  81:FreeRTOS/portable/MemMang/heap_3.c **** /* Defining MPU_WRAPPERS_INCLUDED_FROM_API_FILE prevents task.h from redefining
  82:FreeRTOS/portable/MemMang/heap_3.c **** all the API functions to use the MPU wrappers.  That should only be done when
  83:FreeRTOS/portable/MemMang/heap_3.c **** task.h is included from an application file. */
  84:FreeRTOS/portable/MemMang/heap_3.c **** #define MPU_WRAPPERS_INCLUDED_FROM_API_FILE
  85:FreeRTOS/portable/MemMang/heap_3.c **** 
  86:FreeRTOS/portable/MemMang/heap_3.c **** #include "FreeRTOS.h"
  87:FreeRTOS/portable/MemMang/heap_3.c **** #include "task.h"
  88:FreeRTOS/portable/MemMang/heap_3.c **** 
  89:FreeRTOS/portable/MemMang/heap_3.c **** #undef MPU_WRAPPERS_INCLUDED_FROM_API_FILE
  90:FreeRTOS/portable/MemMang/heap_3.c **** 
  91:FreeRTOS/portable/MemMang/heap_3.c **** /*-----------------------------------------------------------*/
  92:FreeRTOS/portable/MemMang/heap_3.c **** 
  93:FreeRTOS/portable/MemMang/heap_3.c **** void *pvPortMalloc( size_t xWantedSize )
  94:FreeRTOS/portable/MemMang/heap_3.c **** {
  61              		.loc 1 94 0
  62              		.cfi_startproc
  63              		@ args = 0, pretend = 0, frame = 16
  64              		@ frame_needed = 1, uses_anonymous_args = 0
  65 0000 80B5     		push	{r7, lr}	@
  66              		.cfi_def_cfa_offset 8
  67              		.cfi_offset 7, -8
  68              		.cfi_offset 14, -4
  69 0002 84B0     		sub	sp, sp, #16	@,,
  70              		.cfi_def_cfa_offset 24
  71 0004 00AF     		add	r7, sp, #0	@,,
  72              		.cfi_def_cfa_register 7
  73 0006 7860     		str	r0, [r7, #4]	@ xWantedSize, xWantedSize
  95:FreeRTOS/portable/MemMang/heap_3.c **** void *pvReturn;
  96:FreeRTOS/portable/MemMang/heap_3.c **** 
  97:FreeRTOS/portable/MemMang/heap_3.c **** 	vTaskSuspendAll();
  74              		.loc 1 97 0
ARM GAS  C:\Users\Adrian\AppData\Local\Temp\ccQ66cKY.s 			page 4


  75 0008 FFF7FEFF 		bl	vTaskSuspendAll	@
  98:FreeRTOS/portable/MemMang/heap_3.c **** 	{
  99:FreeRTOS/portable/MemMang/heap_3.c **** 		pvReturn = malloc( xWantedSize );
  76              		.loc 1 99 0
  77 000c 7868     		ldr	r0, [r7, #4]	@, xWantedSize
  78 000e FFF7FEFF 		bl	malloc	@
  79 0012 0346     		mov	r3, r0	@ tmp112,
  80 0014 FB60     		str	r3, [r7, #12]	@ tmp112, pvReturn
 100:FreeRTOS/portable/MemMang/heap_3.c **** 	}
 101:FreeRTOS/portable/MemMang/heap_3.c **** 	xTaskResumeAll();
  81              		.loc 1 101 0
  82 0016 FFF7FEFF 		bl	xTaskResumeAll	@
 102:FreeRTOS/portable/MemMang/heap_3.c **** 
 103:FreeRTOS/portable/MemMang/heap_3.c **** 	#if( configUSE_MALLOC_FAILED_HOOK == 1 )
 104:FreeRTOS/portable/MemMang/heap_3.c **** 	{
 105:FreeRTOS/portable/MemMang/heap_3.c **** 		if( pvReturn == NULL )
 106:FreeRTOS/portable/MemMang/heap_3.c **** 		{
 107:FreeRTOS/portable/MemMang/heap_3.c **** 			extern void vApplicationMallocFailedHook( void );
 108:FreeRTOS/portable/MemMang/heap_3.c **** 			vApplicationMallocFailedHook();
 109:FreeRTOS/portable/MemMang/heap_3.c **** 		}
 110:FreeRTOS/portable/MemMang/heap_3.c **** 	}
 111:FreeRTOS/portable/MemMang/heap_3.c **** 	#endif
 112:FreeRTOS/portable/MemMang/heap_3.c **** 	
 113:FreeRTOS/portable/MemMang/heap_3.c **** 	return pvReturn;
  83              		.loc 1 113 0
  84 001a FB68     		ldr	r3, [r7, #12]	@ D.5914, pvReturn
 114:FreeRTOS/portable/MemMang/heap_3.c **** }
  85              		.loc 1 114 0
  86 001c 1846     		mov	r0, r3	@, <retval>
  87 001e 1037     		adds	r7, r7, #16	@,,
  88 0020 BD46     		mov	sp, r7	@,
  89              		@ sp needed	@
  90 0022 80BD     		pop	{r7, pc}	@
  91              		.cfi_endproc
  92              	.LFE55:
  93              		.size	pvPortMalloc, .-pvPortMalloc
  94              		.section	.text.vPortFree,"ax",%progbits
  95              		.align	2
  96              		.global	vPortFree
  97              		.thumb
  98              		.thumb_func
  99              		.type	vPortFree, %function
 100              	vPortFree:
 101              	.LFB56:
 115:FreeRTOS/portable/MemMang/heap_3.c **** /*-----------------------------------------------------------*/
 116:FreeRTOS/portable/MemMang/heap_3.c **** 
 117:FreeRTOS/portable/MemMang/heap_3.c **** void vPortFree( void *pv )
 118:FreeRTOS/portable/MemMang/heap_3.c **** {
 102              		.loc 1 118 0
 103              		.cfi_startproc
 104              		@ args = 0, pretend = 0, frame = 8
 105              		@ frame_needed = 1, uses_anonymous_args = 0
 106 0000 80B5     		push	{r7, lr}	@
 107              		.cfi_def_cfa_offset 8
 108              		.cfi_offset 7, -8
 109              		.cfi_offset 14, -4
 110 0002 82B0     		sub	sp, sp, #8	@,,
ARM GAS  C:\Users\Adrian\AppData\Local\Temp\ccQ66cKY.s 			page 5


 111              		.cfi_def_cfa_offset 16
 112 0004 00AF     		add	r7, sp, #0	@,,
 113              		.cfi_def_cfa_register 7
 114 0006 7860     		str	r0, [r7, #4]	@ pv, pv
 119:FreeRTOS/portable/MemMang/heap_3.c **** 	if( pv )
 115              		.loc 1 119 0
 116 0008 7B68     		ldr	r3, [r7, #4]	@ tmp110, pv
 117 000a 002B     		cmp	r3, #0	@ tmp110,
 118 000c 06D0     		beq	.L3	@,
 120:FreeRTOS/portable/MemMang/heap_3.c **** 	{
 121:FreeRTOS/portable/MemMang/heap_3.c **** 		vTaskSuspendAll();
 119              		.loc 1 121 0
 120 000e FFF7FEFF 		bl	vTaskSuspendAll	@
 122:FreeRTOS/portable/MemMang/heap_3.c **** 		{
 123:FreeRTOS/portable/MemMang/heap_3.c **** 			free( pv );
 121              		.loc 1 123 0
 122 0012 7868     		ldr	r0, [r7, #4]	@, pv
 123 0014 FFF7FEFF 		bl	free	@
 124:FreeRTOS/portable/MemMang/heap_3.c **** 		}
 125:FreeRTOS/portable/MemMang/heap_3.c **** 		xTaskResumeAll();
 124              		.loc 1 125 0
 125 0018 FFF7FEFF 		bl	xTaskResumeAll	@
 126              	.L3:
 126:FreeRTOS/portable/MemMang/heap_3.c **** 	}
 127:FreeRTOS/portable/MemMang/heap_3.c **** }
 127              		.loc 1 127 0
 128 001c 0837     		adds	r7, r7, #8	@,,
 129 001e BD46     		mov	sp, r7	@,
 130              		@ sp needed	@
 131 0020 80BD     		pop	{r7, pc}	@
 132              		.cfi_endproc
 133              	.LFE56:
 134              		.size	vPortFree, .-vPortFree
 135 0022 00BF     		.text
 136              	.Letext0:
 137              		.file 2 "d:\\programy\\gnu tools arm embedded\\4.8 2014q2\\lib\\gcc\\arm-none-eabi\\4.8.4\\include
 138              		.file 3 "d:\\programy\\gnu tools arm embedded\\4.8 2014q2\\arm-none-eabi\\include\\machine\\_defau
 139              		.file 4 "d:\\programy\\gnu tools arm embedded\\4.8 2014q2\\arm-none-eabi\\include\\stdint.h"
 140              		.file 5 "inc/core_cm3.h"