ARM GAS  /tmp/ccc4qMCA.s 			page 1


   1              		.syntax unified
   2              		.cpu cortex-m3
   3              		.fpu softvfp
   4              		.eabi_attribute 20, 1	@ Tag_ABI_FP_denormal
   5              		.eabi_attribute 21, 1	@ Tag_ABI_FP_exceptions
   6              		.eabi_attribute 23, 3	@ Tag_ABI_FP_number_model
   7              		.eabi_attribute 24, 1	@ Tag_ABI_align8_needed
   8              		.eabi_attribute 25, 1	@ Tag_ABI_align8_preserved
   9              		.eabi_attribute 26, 1	@ Tag_ABI_enum_size
  10              		.eabi_attribute 30, 4	@ Tag_ABI_optimization_goals
  11              		.eabi_attribute 34, 1	@ Tag_CPU_unaligned_access
  12              		.eabi_attribute 18, 4	@ Tag_ABI_PCS_wchar_t
  13              		.file	"helper.cpp"
  14              	@ GNU C++ (GNU Tools for ARM Embedded Processors) version 4.7.3 20130312 (release) [ARM/embedded-4_
  15              	@	compiled by GNU C version 4.3.6, GMP version 4.3.2, MPFR version 2.4.2, MPC version 0.8.1
  16              	@ GGC heuristics: --param ggc-min-expand=100 --param ggc-min-heapsize=131072
  17              	@ options passed:  -I . -I inc -I FreeRTOS/include
  18              	@ -I FreeRTOS/portable/GCC/ARM_CM3 -I FatFS -I peripherals
  19              	@ -imultilib armv7-m
  20              	@ -iprefix /home/maciek/gcc-arm-none-eabi/gcc-arm-none-eabi-4_7-2013q1/bin/../lib/gcc/arm-none-eabi
  21              	@ -isysroot /home/maciek/gcc-arm-none-eabi/gcc-arm-none-eabi-4_7-2013q1/bin/../arm-none-eabi
  22              	@ -MD out/helper.d -MF out/helper.d -MP -MQ out/helper.o
  23              	@ -D__USES_INITFINI__ -D STM32L1XX_MD peripherals/helper.cpp
  24              	@ -mcpu=cortex-m3 -mthumb -auxbase-strip out/helper.o -g -ggdb3 -Os -Wall
  25              	@ -Wextra -std=gnu++11 -ffunction-sections -fdata-sections -fno-rtti
  26              	@ -fno-exceptions -fverbose-asm
  27              	@ options enabled:  -fauto-inc-dec -fbranch-count-reg -fcaller-saves
  28              	@ -fcombine-stack-adjustments -fcommon -fcompare-elim -fcprop-registers
  29              	@ -fcrossjumping -fcse-follow-jumps -fdata-sections -fdebug-types-section
  30              	@ -fdefer-pop -fdelete-null-pointer-checks -fdevirtualize -fdwarf2-cfi-asm
  31              	@ -fearly-inlining -feliminate-unused-debug-types -fexpensive-optimizations
  32              	@ -fforward-propagate -ffunction-cse -ffunction-sections -fgcse -fgcse-lm
  33              	@ -fgnu-runtime -fguess-branch-probability -fident -fif-conversion
  34              	@ -fif-conversion2 -findirect-inlining -finline -finline-atomics
  35              	@ -finline-functions -finline-functions-called-once
  36              	@ -finline-small-functions -fipa-cp -fipa-profile -fipa-pure-const
  37              	@ -fipa-reference -fipa-sra -fira-share-save-slots -fira-share-spill-slots
  38              	@ -fivopts -fkeep-static-consts -fleading-underscore -fmath-errno
  39              	@ -fmerge-constants -fmerge-debug-strings -fomit-frame-pointer
  40              	@ -foptimize-register-move -foptimize-sibling-calls -fpartial-inlining
  41              	@ -fpeephole -fpeephole2 -fprefetch-loop-arrays -freg-struct-return
  42              	@ -fregmove -frename-registers -freorder-blocks -freorder-functions
  43              	@ -frerun-cse-after-loop -fsched-critical-path-heuristic
  44              	@ -fsched-dep-count-heuristic -fsched-group-heuristic -fsched-interblock
  45              	@ -fsched-last-insn-heuristic -fsched-rank-heuristic -fsched-spec
  46              	@ -fsched-spec-insn-heuristic -fsched-stalled-insns-dep -fschedule-insns2
  47              	@ -fsection-anchors -fshow-column -fshrink-wrap -fsigned-zeros
  48              	@ -fsplit-ivs-in-unroller -fsplit-wide-types -fstrict-aliasing
  49              	@ -fstrict-overflow -fstrict-volatile-bitfields -fthread-jumps
  50              	@ -ftoplevel-reorder -ftrapping-math -ftree-bit-ccp -ftree-builtin-call-dce
  51              	@ -ftree-ccp -ftree-ch -ftree-copy-prop -ftree-copyrename -ftree-cselim
  52              	@ -ftree-dce -ftree-dominator-opts -ftree-dse -ftree-forwprop -ftree-fre
  53              	@ -ftree-loop-if-convert -ftree-loop-im -ftree-loop-ivcanon
  54              	@ -ftree-loop-optimize -ftree-parallelize-loops= -ftree-phiprop -ftree-pre
  55              	@ -ftree-pta -ftree-reassoc -ftree-scev-cprop -ftree-sink
  56              	@ -ftree-slp-vectorize -ftree-sra -ftree-switch-conversion
  57              	@ -ftree-tail-merge -ftree-ter -ftree-vect-loop-version -ftree-vrp
ARM GAS  /tmp/ccc4qMCA.s 			page 2


  58              	@ -funit-at-a-time -funroll-loops -fvar-tracking -fvar-tracking-assignments
  59              	@ -fverbose-asm -fweb -fzero-initialized-in-bss -mfix-cortex-m3-ldrd
  60              	@ -mlittle-endian -msched-prolog -mthumb -munaligned-access
  61              	@ -mvectorize-with-neon-quad
  62              	
  63              		.text
  64              	.Ltext0:
  65              		.cfi_sections	.debug_frame
  66              		.section	.text.configureTimerForRuntimestats,"ax",%progbits
  67              		.align	1
  68              		.global	configureTimerForRuntimestats
  69              		.thumb
  70              		.thumb_func
  71              		.type	configureTimerForRuntimestats, %function
  72              	configureTimerForRuntimestats:
  73              	.LFB55:
  74              		.file 1 "peripherals/helper.cpp"
   1:peripherals/helper.cpp **** /**
   2:peripherals/helper.cpp ****  * \file helper.cpp
   3:peripherals/helper.cpp ****  * \brief Helper functions
   4:peripherals/helper.cpp ****  *
   5:peripherals/helper.cpp ****  * Helper functions
   6:peripherals/helper.cpp ****  *
   7:peripherals/helper.cpp ****  * chip: STM32L1xx
   8:peripherals/helper.cpp ****  *
   9:peripherals/helper.cpp ****  * \author Freddie Chopin, http://www.freddiechopin.info http://www.distortec.com
  10:peripherals/helper.cpp ****  * \date 2012-08-30
  11:peripherals/helper.cpp ****  */
  12:peripherals/helper.cpp **** 
  13:peripherals/helper.cpp **** #include <stdint.h>
  14:peripherals/helper.cpp **** 
  15:peripherals/helper.cpp **** #include "inc/stm32l1xx.h"
  16:peripherals/helper.cpp **** 
  17:peripherals/helper.cpp **** #include "config.h"
  18:peripherals/helper.cpp **** 
  19:peripherals/helper.cpp **** #include "hdr/hdr_rcc.h"
  20:peripherals/helper.cpp **** 
  21:peripherals/helper.cpp **** #include "rcc.h"
  22:peripherals/helper.cpp **** #include "helper.h"
  23:peripherals/helper.cpp **** 
  24:peripherals/helper.cpp **** /*-------------------------------------------------------------------------------------------------
  25:peripherals/helper.cpp **** | global variables
  26:peripherals/helper.cpp **** +--------------------------------------------------------------------------------------------------
  27:peripherals/helper.cpp **** 
  28:peripherals/helper.cpp **** volatile uint16_t tim6OverflowCount;
  29:peripherals/helper.cpp **** 
  30:peripherals/helper.cpp **** /*-------------------------------------------------------------------------------------------------
  31:peripherals/helper.cpp **** | global functions
  32:peripherals/helper.cpp **** +--------------------------------------------------------------------------------------------------
  33:peripherals/helper.cpp **** 
  34:peripherals/helper.cpp **** /**
  35:peripherals/helper.cpp ****  * \brief Configures TIM6 for runtime stats.
  36:peripherals/helper.cpp ****  *
  37:peripherals/helper.cpp ****  * Configures TIM6 for runtime stats.
  38:peripherals/helper.cpp ****  */
  39:peripherals/helper.cpp **** 
  40:peripherals/helper.cpp **** void configureTimerForRuntimestats(void)
ARM GAS  /tmp/ccc4qMCA.s 			page 3


  41:peripherals/helper.cpp **** {
  75              		.loc 1 41 0
  76              		.cfi_startproc
  77              		@ args = 0, pretend = 0, frame = 0
  78              		@ frame_needed = 0, uses_anonymous_args = 0
  79 0000 38B5     		push	{r3, r4, r5, lr}	@
  80              	.LCFI0:
  81              		.cfi_def_cfa_offset 16
  82              		.cfi_offset 3, -16
  83              		.cfi_offset 4, -12
  84              		.cfi_offset 5, -8
  85              		.cfi_offset 14, -4
  42:peripherals/helper.cpp **** 	RCC_APB1ENR_TIM6EN_bb = 1;				// enable timer
  86              		.loc 1 42 0
  87 0002 104B     		ldr	r3, .L2	@ tmp140,
  88 0004 0125     		movs	r5, #1	@ tmp141,
  43:peripherals/helper.cpp **** 
  44:peripherals/helper.cpp **** 	DBGMCU->APB1FZ |= DBGMCU_APB1_FZ_DBG_TIM6_STOP;
  89              		.loc 1 44 0
  90 0006 1048     		ldr	r0, .L2+4	@ tmp142,
  42:peripherals/helper.cpp **** 	RCC_APB1ENR_TIM6EN_bb = 1;				// enable timer
  91              		.loc 1 42 0
  92 0008 1D60     		str	r5, [r3, #0]	@ tmp141, MEM[(volatile long unsigned int *)1111950480B]
  93              		.loc 1 44 0
  94 000a 8268     		ldr	r2, [r0, #8]	@ D.6284, MEM[(struct DBGMCU_TypeDef *)3758366720B].APB1FZ
  45:peripherals/helper.cpp **** 
  46:peripherals/helper.cpp **** 	TIM6->CNT = 0;							// clear the timer
  95              		.loc 1 46 0
  96 000c 0F4C     		ldr	r4, .L2+8	@ tmp144,
  44:peripherals/helper.cpp **** 	DBGMCU->APB1FZ |= DBGMCU_APB1_FZ_DBG_TIM6_STOP;
  97              		.loc 1 44 0
  98 000e 42F01001 		orr	r1, r2, #16	@ D.6285, D.6284,
  99              		.loc 1 46 0
 100 0012 0023     		movs	r3, #0	@ tmp145,
  44:peripherals/helper.cpp **** 	DBGMCU->APB1FZ |= DBGMCU_APB1_FZ_DBG_TIM6_STOP;
 101              		.loc 1 44 0
 102 0014 8160     		str	r1, [r0, #8]	@ D.6285, MEM[(struct DBGMCU_TypeDef *)3758366720B].APB1FZ
 103              		.loc 1 46 0
 104 0016 6362     		str	r3, [r4, #36]	@ tmp145, MEM[(struct TIM_TypeDef *)1073745920B].CNT
  47:peripherals/helper.cpp **** 	TIM6->PSC = (rccGetCoreFrequency() / 10000) - 1;	// 100us resolution
 105              		.loc 1 47 0
 106 0018 FFF7FEFF 		bl	rccGetCoreFrequency	@
 107              	.LVL0:
 108 001c 42F21072 		movw	r2, #10000	@ tmp148,
 109 0020 B0FBF2F0 		udiv	r0, r0, r2	@ tmp147,, tmp148
 110 0024 411E     		subs	r1, r0, #1	@ tmp150, tmp147,
 111 0026 8BB2     		uxth	r3, r1	@ D.6290, tmp150
 112              	.LBB6:
 113              	.LBB7:
 114              		.file 2 "./inc/core_cm3.h"
   1:./inc/core_cm3.h **** /**************************************************************************//**
   2:./inc/core_cm3.h ****  * @file     core_cm3.h
   3:./inc/core_cm3.h ****  * @brief    CMSIS Cortex-M3 Core Peripheral Access Layer Header File
   4:./inc/core_cm3.h ****  * @version  V2.10
   5:./inc/core_cm3.h ****  * @date     19. July 2011
   6:./inc/core_cm3.h ****  *
   7:./inc/core_cm3.h ****  * @note
ARM GAS  /tmp/ccc4qMCA.s 			page 4


   8:./inc/core_cm3.h ****  * Copyright (C) 2009-2011 ARM Limited. All rights reserved.
   9:./inc/core_cm3.h ****  *
  10:./inc/core_cm3.h ****  * @par
  11:./inc/core_cm3.h ****  * ARM Limited (ARM) is supplying this software for use with Cortex-M
  12:./inc/core_cm3.h ****  * processor based microcontrollers.  This file can be freely distributed
  13:./inc/core_cm3.h ****  * within development tools that are supporting such ARM based processors.
  14:./inc/core_cm3.h ****  *
  15:./inc/core_cm3.h ****  * @par
  16:./inc/core_cm3.h ****  * THIS SOFTWARE IS PROVIDED "AS IS".  NO WARRANTIES, WHETHER EXPRESS, IMPLIED
  17:./inc/core_cm3.h ****  * OR STATUTORY, INCLUDING, BUT NOT LIMITED TO, IMPLIED WARRANTIES OF
  18:./inc/core_cm3.h ****  * MERCHANTABILITY AND FITNESS FOR A PARTICULAR PURPOSE APPLY TO THIS SOFTWARE.
  19:./inc/core_cm3.h ****  * ARM SHALL NOT, IN ANY CIRCUMSTANCES, BE LIABLE FOR SPECIAL, INCIDENTAL, OR
  20:./inc/core_cm3.h ****  * CONSEQUENTIAL DAMAGES, FOR ANY REASON WHATSOEVER.
  21:./inc/core_cm3.h ****  *
  22:./inc/core_cm3.h ****  ******************************************************************************/
  23:./inc/core_cm3.h **** #if defined ( __ICCARM__ )
  24:./inc/core_cm3.h ****  #pragma system_include  /* treat file as system include file for MISRA check */
  25:./inc/core_cm3.h **** #endif
  26:./inc/core_cm3.h **** 
  27:./inc/core_cm3.h **** #ifdef __cplusplus
  28:./inc/core_cm3.h ****  extern "C" {
  29:./inc/core_cm3.h **** #endif
  30:./inc/core_cm3.h **** 
  31:./inc/core_cm3.h **** #ifndef __CORE_CM3_H_GENERIC
  32:./inc/core_cm3.h **** #define __CORE_CM3_H_GENERIC
  33:./inc/core_cm3.h **** 
  34:./inc/core_cm3.h **** 
  35:./inc/core_cm3.h **** /** \mainpage CMSIS Cortex-M3
  36:./inc/core_cm3.h **** 
  37:./inc/core_cm3.h ****   This documentation describes the CMSIS Cortex-M Core Peripheral Access Layer.
  38:./inc/core_cm3.h ****   It consists of:
  39:./inc/core_cm3.h **** 
  40:./inc/core_cm3.h ****      - Cortex-M Core Register Definitions
  41:./inc/core_cm3.h ****      - Cortex-M functions
  42:./inc/core_cm3.h ****      - Cortex-M instructions
  43:./inc/core_cm3.h **** 
  44:./inc/core_cm3.h ****   The CMSIS Cortex-M3 Core Peripheral Access Layer contains C and assembly functions that ease
  45:./inc/core_cm3.h ****   access to the Cortex-M Core
  46:./inc/core_cm3.h ****  */
  47:./inc/core_cm3.h **** 
  48:./inc/core_cm3.h **** /** \defgroup CMSIS_MISRA_Exceptions  CMSIS MISRA-C:2004 Compliance Exceptions
  49:./inc/core_cm3.h ****   CMSIS violates following MISRA-C2004 Rules:
  50:./inc/core_cm3.h ****   
  51:./inc/core_cm3.h ****    - Violates MISRA 2004 Required Rule 8.5, object/function definition in header file.<br>
  52:./inc/core_cm3.h ****      Function definitions in header files are used to allow 'inlining'. 
  53:./inc/core_cm3.h **** 
  54:./inc/core_cm3.h ****    - Violates MISRA 2004 Required Rule 18.4, declaration of union type or object of union type: '{.
  55:./inc/core_cm3.h ****      Unions are used for effective representation of core registers.
  56:./inc/core_cm3.h ****    
  57:./inc/core_cm3.h ****    - Violates MISRA 2004 Advisory Rule 19.7, Function-like macro defined.<br>
  58:./inc/core_cm3.h ****      Function-like macros are used to allow more efficient code. 
  59:./inc/core_cm3.h **** 
  60:./inc/core_cm3.h ****  */
  61:./inc/core_cm3.h **** 
  62:./inc/core_cm3.h **** 
  63:./inc/core_cm3.h **** /*******************************************************************************
  64:./inc/core_cm3.h ****  *                 CMSIS definitions
ARM GAS  /tmp/ccc4qMCA.s 			page 5


  65:./inc/core_cm3.h ****  ******************************************************************************/
  66:./inc/core_cm3.h **** /** \defgroup CMSIS_core_definitions CMSIS Core Definitions
  67:./inc/core_cm3.h ****   This file defines all structures and symbols for CMSIS core:
  68:./inc/core_cm3.h ****    - CMSIS version number
  69:./inc/core_cm3.h ****    - Cortex-M core
  70:./inc/core_cm3.h ****    - Cortex-M core Revision Number
  71:./inc/core_cm3.h ****   @{
  72:./inc/core_cm3.h ****  */
  73:./inc/core_cm3.h **** 
  74:./inc/core_cm3.h **** /*  CMSIS CM3 definitions */
  75:./inc/core_cm3.h **** #define __CM3_CMSIS_VERSION_MAIN  (0x02)                                                       /*!<
  76:./inc/core_cm3.h **** #define __CM3_CMSIS_VERSION_SUB   (0x10)                                                       /*!<
  77:./inc/core_cm3.h **** #define __CM3_CMSIS_VERSION       ((__CM3_CMSIS_VERSION_MAIN << 16) | __CM3_CMSIS_VERSION_SUB) /*!<
  78:./inc/core_cm3.h **** 
  79:./inc/core_cm3.h **** #define __CORTEX_M                (0x03)                                                       /*!<
  80:./inc/core_cm3.h **** 
  81:./inc/core_cm3.h **** 
  82:./inc/core_cm3.h **** #if   defined ( __CC_ARM )
  83:./inc/core_cm3.h ****   #define __ASM            __asm                                      /*!< asm keyword for ARM Comp
  84:./inc/core_cm3.h ****   #define __INLINE         __inline                                   /*!< inline keyword for ARM C
  85:./inc/core_cm3.h **** 
  86:./inc/core_cm3.h **** #elif defined ( __ICCARM__ )
  87:./inc/core_cm3.h ****   #define __ASM           __asm                                       /*!< asm keyword for IAR Comp
  88:./inc/core_cm3.h ****   #define __INLINE        inline                                      /*!< inline keyword for IAR C
  89:./inc/core_cm3.h **** 
  90:./inc/core_cm3.h **** #elif defined ( __GNUC__ )
  91:./inc/core_cm3.h ****   #define __ASM            __asm                                      /*!< asm keyword for GNU Comp
  92:./inc/core_cm3.h ****   #define __INLINE         inline                                     /*!< inline keyword for GNU C
  93:./inc/core_cm3.h **** 
  94:./inc/core_cm3.h **** #elif defined ( __TASKING__ )
  95:./inc/core_cm3.h ****   #define __ASM            __asm                                      /*!< asm keyword for TASKING 
  96:./inc/core_cm3.h ****   #define __INLINE         inline                                     /*!< inline keyword for TASKI
  97:./inc/core_cm3.h **** 
  98:./inc/core_cm3.h **** #endif
  99:./inc/core_cm3.h **** 
 100:./inc/core_cm3.h **** /*!< __FPU_USED to be checked prior to making use of FPU specific registers and functions */
 101:./inc/core_cm3.h **** #define __FPU_USED       0
 102:./inc/core_cm3.h **** 
 103:./inc/core_cm3.h **** #if defined ( __CC_ARM )
 104:./inc/core_cm3.h ****   #if defined __TARGET_FPU_VFP
 105:./inc/core_cm3.h ****     #warning "Compiler generates FPU instructions for a device without an FPU (check __FPU_PRESENT)
 106:./inc/core_cm3.h ****   #endif
 107:./inc/core_cm3.h **** #elif defined ( __ICCARM__ )
 108:./inc/core_cm3.h ****   #if defined __ARMVFP__
 109:./inc/core_cm3.h ****     #warning "Compiler generates FPU instructions for a device without an FPU (check __FPU_PRESENT)
 110:./inc/core_cm3.h ****   #endif
 111:./inc/core_cm3.h **** 
 112:./inc/core_cm3.h **** #elif defined ( __GNUC__ )
 113:./inc/core_cm3.h ****   #if defined (__VFP_FP__) && !defined(__SOFTFP__)
 114:./inc/core_cm3.h ****     #warning "Compiler generates FPU instructions for a device without an FPU (check __FPU_PRESENT)
 115:./inc/core_cm3.h ****   #endif
 116:./inc/core_cm3.h **** 
 117:./inc/core_cm3.h **** #elif defined ( __TASKING__ )
 118:./inc/core_cm3.h ****     /* add preprocessor checks */
 119:./inc/core_cm3.h **** #endif
 120:./inc/core_cm3.h **** 
 121:./inc/core_cm3.h **** #include <stdint.h>                      /*!< standard types definitions                      */
ARM GAS  /tmp/ccc4qMCA.s 			page 6


 122:./inc/core_cm3.h **** #include "core_cmInstr.h"                /*!< Core Instruction Access                         */
 123:./inc/core_cm3.h **** #include "core_cmFunc.h"                 /*!< Core Function Access                            */
 124:./inc/core_cm3.h **** 
 125:./inc/core_cm3.h **** #endif /* __CORE_CM3_H_GENERIC */
 126:./inc/core_cm3.h **** 
 127:./inc/core_cm3.h **** #ifndef __CMSIS_GENERIC
 128:./inc/core_cm3.h **** 
 129:./inc/core_cm3.h **** #ifndef __CORE_CM3_H_DEPENDANT
 130:./inc/core_cm3.h **** #define __CORE_CM3_H_DEPENDANT
 131:./inc/core_cm3.h **** 
 132:./inc/core_cm3.h **** /* check device defines and use defaults */
 133:./inc/core_cm3.h **** #if defined __CHECK_DEVICE_DEFINES
 134:./inc/core_cm3.h ****   #ifndef __CM3_REV
 135:./inc/core_cm3.h ****     #define __CM3_REV               0x0200
 136:./inc/core_cm3.h ****     #warning "__CM3_REV not defined in device header file; using default!"
 137:./inc/core_cm3.h ****   #endif
 138:./inc/core_cm3.h **** 
 139:./inc/core_cm3.h ****   #ifndef __MPU_PRESENT
 140:./inc/core_cm3.h ****     #define __MPU_PRESENT             0
 141:./inc/core_cm3.h ****     #warning "__MPU_PRESENT not defined in device header file; using default!"
 142:./inc/core_cm3.h ****   #endif
 143:./inc/core_cm3.h **** 
 144:./inc/core_cm3.h ****   #ifndef __NVIC_PRIO_BITS
 145:./inc/core_cm3.h ****     #define __NVIC_PRIO_BITS          4
 146:./inc/core_cm3.h ****     #warning "__NVIC_PRIO_BITS not defined in device header file; using default!"
 147:./inc/core_cm3.h ****   #endif
 148:./inc/core_cm3.h **** 
 149:./inc/core_cm3.h ****   #ifndef __Vendor_SysTickConfig
 150:./inc/core_cm3.h ****     #define __Vendor_SysTickConfig    0
 151:./inc/core_cm3.h ****     #warning "__Vendor_SysTickConfig not defined in device header file; using default!"
 152:./inc/core_cm3.h ****   #endif
 153:./inc/core_cm3.h **** #endif
 154:./inc/core_cm3.h **** 
 155:./inc/core_cm3.h **** /* IO definitions (access restrictions to peripheral registers) */
 156:./inc/core_cm3.h **** #ifdef __cplusplus
 157:./inc/core_cm3.h ****   #define   __I     volatile             /*!< defines 'read only' permissions                 */
 158:./inc/core_cm3.h **** #else
 159:./inc/core_cm3.h ****   #define   __I     volatile const       /*!< defines 'read only' permissions                 */
 160:./inc/core_cm3.h **** #endif
 161:./inc/core_cm3.h **** #define     __O     volatile             /*!< defines 'write only' permissions                */
 162:./inc/core_cm3.h **** #define     __IO    volatile             /*!< defines 'read / write' permissions              */
 163:./inc/core_cm3.h **** 
 164:./inc/core_cm3.h **** /*@} end of group CMSIS_core_definitions */
 165:./inc/core_cm3.h **** 
 166:./inc/core_cm3.h **** 
 167:./inc/core_cm3.h **** 
 168:./inc/core_cm3.h **** /*******************************************************************************
 169:./inc/core_cm3.h ****  *                 Register Abstraction
 170:./inc/core_cm3.h ****  ******************************************************************************/
 171:./inc/core_cm3.h **** /** \defgroup CMSIS_core_register CMSIS Core Register
 172:./inc/core_cm3.h ****   Core Register contain:
 173:./inc/core_cm3.h ****   - Core Register
 174:./inc/core_cm3.h ****   - Core NVIC Register
 175:./inc/core_cm3.h ****   - Core SCB Register
 176:./inc/core_cm3.h ****   - Core SysTick Register
 177:./inc/core_cm3.h ****   - Core Debug Register
 178:./inc/core_cm3.h ****   - Core MPU Register
ARM GAS  /tmp/ccc4qMCA.s 			page 7


 179:./inc/core_cm3.h **** */
 180:./inc/core_cm3.h **** 
 181:./inc/core_cm3.h **** /** \ingroup  CMSIS_core_register
 182:./inc/core_cm3.h ****     \defgroup CMSIS_CORE CMSIS Core
 183:./inc/core_cm3.h ****   Type definitions for the Cortex-M Core Registers
 184:./inc/core_cm3.h ****   @{
 185:./inc/core_cm3.h ****  */
 186:./inc/core_cm3.h **** 
 187:./inc/core_cm3.h **** /** \brief  Union type to access the Application Program Status Register (APSR).
 188:./inc/core_cm3.h ****  */
 189:./inc/core_cm3.h **** typedef union
 190:./inc/core_cm3.h **** {
 191:./inc/core_cm3.h ****   struct
 192:./inc/core_cm3.h ****   {
 193:./inc/core_cm3.h **** #if (__CORTEX_M != 0x04)
 194:./inc/core_cm3.h ****     uint32_t _reserved0:27;              /*!< bit:  0..26  Reserved                           */
 195:./inc/core_cm3.h **** #else
 196:./inc/core_cm3.h ****     uint32_t _reserved0:16;              /*!< bit:  0..15  Reserved                           */
 197:./inc/core_cm3.h ****     uint32_t GE:4;                       /*!< bit: 16..19  Greater than or Equal flags        */
 198:./inc/core_cm3.h ****     uint32_t _reserved1:7;               /*!< bit: 20..26  Reserved                           */
 199:./inc/core_cm3.h **** #endif
 200:./inc/core_cm3.h ****     uint32_t Q:1;                        /*!< bit:     27  Saturation condition flag          */
 201:./inc/core_cm3.h ****     uint32_t V:1;                        /*!< bit:     28  Overflow condition code flag       */
 202:./inc/core_cm3.h ****     uint32_t C:1;                        /*!< bit:     29  Carry condition code flag          */
 203:./inc/core_cm3.h ****     uint32_t Z:1;                        /*!< bit:     30  Zero condition code flag           */
 204:./inc/core_cm3.h ****     uint32_t N:1;                        /*!< bit:     31  Negative condition code flag       */
 205:./inc/core_cm3.h ****   } b;                                   /*!< Structure used for bit  access                  */
 206:./inc/core_cm3.h ****   uint32_t w;                            /*!< Type      used for word access                  */
 207:./inc/core_cm3.h **** } APSR_Type;
 208:./inc/core_cm3.h **** 
 209:./inc/core_cm3.h **** 
 210:./inc/core_cm3.h **** /** \brief  Union type to access the Interrupt Program Status Register (IPSR).
 211:./inc/core_cm3.h ****  */
 212:./inc/core_cm3.h **** typedef union
 213:./inc/core_cm3.h **** {
 214:./inc/core_cm3.h ****   struct
 215:./inc/core_cm3.h ****   {
 216:./inc/core_cm3.h ****     uint32_t ISR:9;                      /*!< bit:  0.. 8  Exception number                   */
 217:./inc/core_cm3.h ****     uint32_t _reserved0:23;              /*!< bit:  9..31  Reserved                           */
 218:./inc/core_cm3.h ****   } b;                                   /*!< Structure used for bit  access                  */
 219:./inc/core_cm3.h ****   uint32_t w;                            /*!< Type      used for word access                  */
 220:./inc/core_cm3.h **** } IPSR_Type;
 221:./inc/core_cm3.h **** 
 222:./inc/core_cm3.h **** 
 223:./inc/core_cm3.h **** /** \brief  Union type to access the Special-Purpose Program Status Registers (xPSR).
 224:./inc/core_cm3.h ****  */
 225:./inc/core_cm3.h **** typedef union
 226:./inc/core_cm3.h **** {
 227:./inc/core_cm3.h ****   struct
 228:./inc/core_cm3.h ****   {
 229:./inc/core_cm3.h ****     uint32_t ISR:9;                      /*!< bit:  0.. 8  Exception number                   */
 230:./inc/core_cm3.h **** #if (__CORTEX_M != 0x04)
 231:./inc/core_cm3.h ****     uint32_t _reserved0:15;              /*!< bit:  9..23  Reserved                           */
 232:./inc/core_cm3.h **** #else
 233:./inc/core_cm3.h ****     uint32_t _reserved0:7;               /*!< bit:  9..15  Reserved                           */
 234:./inc/core_cm3.h ****     uint32_t GE:4;                       /*!< bit: 16..19  Greater than or Equal flags        */
 235:./inc/core_cm3.h ****     uint32_t _reserved1:4;               /*!< bit: 20..23  Reserved                           */
ARM GAS  /tmp/ccc4qMCA.s 			page 8


 236:./inc/core_cm3.h **** #endif
 237:./inc/core_cm3.h ****     uint32_t T:1;                        /*!< bit:     24  Thumb bit        (read 0)          */
 238:./inc/core_cm3.h ****     uint32_t IT:2;                       /*!< bit: 25..26  saved IT state   (read 0)          */
 239:./inc/core_cm3.h ****     uint32_t Q:1;                        /*!< bit:     27  Saturation condition flag          */
 240:./inc/core_cm3.h ****     uint32_t V:1;                        /*!< bit:     28  Overflow condition code flag       */
 241:./inc/core_cm3.h ****     uint32_t C:1;                        /*!< bit:     29  Carry condition code flag          */
 242:./inc/core_cm3.h ****     uint32_t Z:1;                        /*!< bit:     30  Zero condition code flag           */
 243:./inc/core_cm3.h ****     uint32_t N:1;                        /*!< bit:     31  Negative condition code flag       */
 244:./inc/core_cm3.h ****   } b;                                   /*!< Structure used for bit  access                  */
 245:./inc/core_cm3.h ****   uint32_t w;                            /*!< Type      used for word access                  */
 246:./inc/core_cm3.h **** } xPSR_Type;
 247:./inc/core_cm3.h **** 
 248:./inc/core_cm3.h **** 
 249:./inc/core_cm3.h **** /** \brief  Union type to access the Control Registers (CONTROL).
 250:./inc/core_cm3.h ****  */
 251:./inc/core_cm3.h **** typedef union
 252:./inc/core_cm3.h **** {
 253:./inc/core_cm3.h ****   struct
 254:./inc/core_cm3.h ****   {
 255:./inc/core_cm3.h ****     uint32_t nPRIV:1;                    /*!< bit:      0  Execution privilege in Thread mode */
 256:./inc/core_cm3.h ****     uint32_t SPSEL:1;                    /*!< bit:      1  Stack to be used                   */
 257:./inc/core_cm3.h ****     uint32_t FPCA:1;                     /*!< bit:      2  FP extension active flag           */
 258:./inc/core_cm3.h ****     uint32_t _reserved0:29;              /*!< bit:  3..31  Reserved                           */
 259:./inc/core_cm3.h ****   } b;                                   /*!< Structure used for bit  access                  */
 260:./inc/core_cm3.h ****   uint32_t w;                            /*!< Type      used for word access                  */
 261:./inc/core_cm3.h **** } CONTROL_Type;
 262:./inc/core_cm3.h **** 
 263:./inc/core_cm3.h **** /*@} end of group CMSIS_CORE */
 264:./inc/core_cm3.h **** 
 265:./inc/core_cm3.h **** 
 266:./inc/core_cm3.h **** /** \ingroup  CMSIS_core_register
 267:./inc/core_cm3.h ****     \defgroup CMSIS_NVIC CMSIS NVIC
 268:./inc/core_cm3.h ****   Type definitions for the Cortex-M NVIC Registers
 269:./inc/core_cm3.h ****   @{
 270:./inc/core_cm3.h ****  */
 271:./inc/core_cm3.h **** 
 272:./inc/core_cm3.h **** /** \brief  Structure type to access the Nested Vectored Interrupt Controller (NVIC).
 273:./inc/core_cm3.h ****  */
 274:./inc/core_cm3.h **** typedef struct
 275:./inc/core_cm3.h **** {
 276:./inc/core_cm3.h ****   __IO uint32_t ISER[8];                 /*!< Offset: 0x000 (R/W)  Interrupt Set Enable Register   
 277:./inc/core_cm3.h ****        uint32_t RESERVED0[24];
 278:./inc/core_cm3.h ****   __IO uint32_t ICER[8];                 /*!< Offset: 0x080 (R/W)  Interrupt Clear Enable Register 
 279:./inc/core_cm3.h ****        uint32_t RSERVED1[24];
 280:./inc/core_cm3.h ****   __IO uint32_t ISPR[8];                 /*!< Offset: 0x100 (R/W)  Interrupt Set Pending Register  
 281:./inc/core_cm3.h ****        uint32_t RESERVED2[24];
 282:./inc/core_cm3.h ****   __IO uint32_t ICPR[8];                 /*!< Offset: 0x180 (R/W)  Interrupt Clear Pending Register
 283:./inc/core_cm3.h ****        uint32_t RESERVED3[24];
 284:./inc/core_cm3.h ****   __IO uint32_t IABR[8];                 /*!< Offset: 0x200 (R/W)  Interrupt Active bit Register   
 285:./inc/core_cm3.h ****        uint32_t RESERVED4[56];
 286:./inc/core_cm3.h ****   __IO uint8_t  IP[240];                 /*!< Offset: 0x300 (R/W)  Interrupt Priority Register (8Bi
 287:./inc/core_cm3.h ****        uint32_t RESERVED5[644];
 288:./inc/core_cm3.h ****   __O  uint32_t STIR;                    /*!< Offset: 0xE00 ( /W)  Software Trigger Interrupt Regis
 289:./inc/core_cm3.h **** }  NVIC_Type;
 290:./inc/core_cm3.h **** 
 291:./inc/core_cm3.h **** /* Software Triggered Interrupt Register Definitions */
 292:./inc/core_cm3.h **** #define NVIC_STIR_INTID_Pos                 0                                          /*!< STIR: I
ARM GAS  /tmp/ccc4qMCA.s 			page 9


 293:./inc/core_cm3.h **** #define NVIC_STIR_INTID_Msk                (0x1FFUL << NVIC_STIR_INTID_Pos)            /*!< STIR: I
 294:./inc/core_cm3.h **** 
 295:./inc/core_cm3.h **** /*@} end of group CMSIS_NVIC */
 296:./inc/core_cm3.h **** 
 297:./inc/core_cm3.h **** 
 298:./inc/core_cm3.h **** /** \ingroup  CMSIS_core_register
 299:./inc/core_cm3.h ****     \defgroup CMSIS_SCB CMSIS SCB
 300:./inc/core_cm3.h ****   Type definitions for the Cortex-M System Control Block Registers
 301:./inc/core_cm3.h ****   @{
 302:./inc/core_cm3.h ****  */
 303:./inc/core_cm3.h **** 
 304:./inc/core_cm3.h **** /** \brief  Structure type to access the System Control Block (SCB).
 305:./inc/core_cm3.h ****  */
 306:./inc/core_cm3.h **** typedef struct
 307:./inc/core_cm3.h **** {
 308:./inc/core_cm3.h ****   __I  uint32_t CPUID;                   /*!< Offset: 0x000 (R/ )  CPUID Base Register             
 309:./inc/core_cm3.h ****   __IO uint32_t ICSR;                    /*!< Offset: 0x004 (R/W)  Interrupt Control and State Regi
 310:./inc/core_cm3.h ****   __IO uint32_t VTOR;                    /*!< Offset: 0x008 (R/W)  Vector Table Offset Register    
 311:./inc/core_cm3.h ****   __IO uint32_t AIRCR;                   /*!< Offset: 0x00C (R/W)  Application Interrupt and Reset 
 312:./inc/core_cm3.h ****   __IO uint32_t SCR;                     /*!< Offset: 0x010 (R/W)  System Control Register         
 313:./inc/core_cm3.h ****   __IO uint32_t CCR;                     /*!< Offset: 0x014 (R/W)  Configuration Control Register  
 314:./inc/core_cm3.h ****   __IO uint8_t  SHP[12];                 /*!< Offset: 0x018 (R/W)  System Handlers Priority Registe
 315:./inc/core_cm3.h ****   __IO uint32_t SHCSR;                   /*!< Offset: 0x024 (R/W)  System Handler Control and State
 316:./inc/core_cm3.h ****   __IO uint32_t CFSR;                    /*!< Offset: 0x028 (R/W)  Configurable Fault Status Regist
 317:./inc/core_cm3.h ****   __IO uint32_t HFSR;                    /*!< Offset: 0x02C (R/W)  HardFault Status Register       
 318:./inc/core_cm3.h ****   __IO uint32_t DFSR;                    /*!< Offset: 0x030 (R/W)  Debug Fault Status Register     
 319:./inc/core_cm3.h ****   __IO uint32_t MMFAR;                   /*!< Offset: 0x034 (R/W)  MemManage Fault Address Register
 320:./inc/core_cm3.h ****   __IO uint32_t BFAR;                    /*!< Offset: 0x038 (R/W)  BusFault Address Register       
 321:./inc/core_cm3.h ****   __IO uint32_t AFSR;                    /*!< Offset: 0x03C (R/W)  Auxiliary Fault Status Register 
 322:./inc/core_cm3.h ****   __I  uint32_t PFR[2];                  /*!< Offset: 0x040 (R/ )  Processor Feature Register      
 323:./inc/core_cm3.h ****   __I  uint32_t DFR;                     /*!< Offset: 0x048 (R/ )  Debug Feature Register          
 324:./inc/core_cm3.h ****   __I  uint32_t ADR;                     /*!< Offset: 0x04C (R/ )  Auxiliary Feature Register      
 325:./inc/core_cm3.h ****   __I  uint32_t MMFR[4];                 /*!< Offset: 0x050 (R/ )  Memory Model Feature Register   
 326:./inc/core_cm3.h ****   __I  uint32_t ISAR[5];                 /*!< Offset: 0x060 (R/ )  Instruction Set Attributes Regis
 327:./inc/core_cm3.h ****        uint32_t RESERVED0[5];
 328:./inc/core_cm3.h ****   __IO uint32_t CPACR;                   /*!< Offset: 0x088 (R/W)  Coprocessor Access Control Regis
 329:./inc/core_cm3.h **** } SCB_Type;
 330:./inc/core_cm3.h **** 
 331:./inc/core_cm3.h **** /* SCB CPUID Register Definitions */
 332:./inc/core_cm3.h **** #define SCB_CPUID_IMPLEMENTER_Pos          24                                             /*!< SCB 
 333:./inc/core_cm3.h **** #define SCB_CPUID_IMPLEMENTER_Msk          (0xFFUL << SCB_CPUID_IMPLEMENTER_Pos)          /*!< SCB 
 334:./inc/core_cm3.h **** 
 335:./inc/core_cm3.h **** #define SCB_CPUID_VARIANT_Pos              20                                             /*!< SCB 
 336:./inc/core_cm3.h **** #define SCB_CPUID_VARIANT_Msk              (0xFUL << SCB_CPUID_VARIANT_Pos)               /*!< SCB 
 337:./inc/core_cm3.h **** 
 338:./inc/core_cm3.h **** #define SCB_CPUID_ARCHITECTURE_Pos         16                                             /*!< SCB 
 339:./inc/core_cm3.h **** #define SCB_CPUID_ARCHITECTURE_Msk         (0xFUL << SCB_CPUID_ARCHITECTURE_Pos)          /*!< SCB 
 340:./inc/core_cm3.h **** 
 341:./inc/core_cm3.h **** #define SCB_CPUID_PARTNO_Pos                4                                             /*!< SCB 
 342:./inc/core_cm3.h **** #define SCB_CPUID_PARTNO_Msk               (0xFFFUL << SCB_CPUID_PARTNO_Pos)              /*!< SCB 
 343:./inc/core_cm3.h **** 
 344:./inc/core_cm3.h **** #define SCB_CPUID_REVISION_Pos              0                                             /*!< SCB 
 345:./inc/core_cm3.h **** #define SCB_CPUID_REVISION_Msk             (0xFUL << SCB_CPUID_REVISION_Pos)              /*!< SCB 
 346:./inc/core_cm3.h **** 
 347:./inc/core_cm3.h **** /* SCB Interrupt Control State Register Definitions */
 348:./inc/core_cm3.h **** #define SCB_ICSR_NMIPENDSET_Pos            31                                             /*!< SCB 
 349:./inc/core_cm3.h **** #define SCB_ICSR_NMIPENDSET_Msk            (1UL << SCB_ICSR_NMIPENDSET_Pos)               /*!< SCB 
ARM GAS  /tmp/ccc4qMCA.s 			page 10


 350:./inc/core_cm3.h **** 
 351:./inc/core_cm3.h **** #define SCB_ICSR_PENDSVSET_Pos             28                                             /*!< SCB 
 352:./inc/core_cm3.h **** #define SCB_ICSR_PENDSVSET_Msk             (1UL << SCB_ICSR_PENDSVSET_Pos)                /*!< SCB 
 353:./inc/core_cm3.h **** 
 354:./inc/core_cm3.h **** #define SCB_ICSR_PENDSVCLR_Pos             27                                             /*!< SCB 
 355:./inc/core_cm3.h **** #define SCB_ICSR_PENDSVCLR_Msk             (1UL << SCB_ICSR_PENDSVCLR_Pos)                /*!< SCB 
 356:./inc/core_cm3.h **** 
 357:./inc/core_cm3.h **** #define SCB_ICSR_PENDSTSET_Pos             26                                             /*!< SCB 
 358:./inc/core_cm3.h **** #define SCB_ICSR_PENDSTSET_Msk             (1UL << SCB_ICSR_PENDSTSET_Pos)                /*!< SCB 
 359:./inc/core_cm3.h **** 
 360:./inc/core_cm3.h **** #define SCB_ICSR_PENDSTCLR_Pos             25                                             /*!< SCB 
 361:./inc/core_cm3.h **** #define SCB_ICSR_PENDSTCLR_Msk             (1UL << SCB_ICSR_PENDSTCLR_Pos)                /*!< SCB 
 362:./inc/core_cm3.h **** 
 363:./inc/core_cm3.h **** #define SCB_ICSR_ISRPREEMPT_Pos            23                                             /*!< SCB 
 364:./inc/core_cm3.h **** #define SCB_ICSR_ISRPREEMPT_Msk            (1UL << SCB_ICSR_ISRPREEMPT_Pos)               /*!< SCB 
 365:./inc/core_cm3.h **** 
 366:./inc/core_cm3.h **** #define SCB_ICSR_ISRPENDING_Pos            22                                             /*!< SCB 
 367:./inc/core_cm3.h **** #define SCB_ICSR_ISRPENDING_Msk            (1UL << SCB_ICSR_ISRPENDING_Pos)               /*!< SCB 
 368:./inc/core_cm3.h **** 
 369:./inc/core_cm3.h **** #define SCB_ICSR_VECTPENDING_Pos           12                                             /*!< SCB 
 370:./inc/core_cm3.h **** #define SCB_ICSR_VECTPENDING_Msk           (0x1FFUL << SCB_ICSR_VECTPENDING_Pos)          /*!< SCB 
 371:./inc/core_cm3.h **** 
 372:./inc/core_cm3.h **** #define SCB_ICSR_RETTOBASE_Pos             11                                             /*!< SCB 
 373:./inc/core_cm3.h **** #define SCB_ICSR_RETTOBASE_Msk             (1UL << SCB_ICSR_RETTOBASE_Pos)                /*!< SCB 
 374:./inc/core_cm3.h **** 
 375:./inc/core_cm3.h **** #define SCB_ICSR_VECTACTIVE_Pos             0                                             /*!< SCB 
 376:./inc/core_cm3.h **** #define SCB_ICSR_VECTACTIVE_Msk            (0x1FFUL << SCB_ICSR_VECTACTIVE_Pos)           /*!< SCB 
 377:./inc/core_cm3.h **** 
 378:./inc/core_cm3.h **** /* SCB Vector Table Offset Register Definitions */
 379:./inc/core_cm3.h **** #define SCB_VTOR_TBLOFF_Pos                 7                                             /*!< SCB 
 380:./inc/core_cm3.h **** #define SCB_VTOR_TBLOFF_Msk                (0x1FFFFFFUL << SCB_VTOR_TBLOFF_Pos)           /*!< SCB 
 381:./inc/core_cm3.h **** 
 382:./inc/core_cm3.h **** /* SCB Application Interrupt and Reset Control Register Definitions */
 383:./inc/core_cm3.h **** #define SCB_AIRCR_VECTKEY_Pos              16                                             /*!< SCB 
 384:./inc/core_cm3.h **** #define SCB_AIRCR_VECTKEY_Msk              (0xFFFFUL << SCB_AIRCR_VECTKEY_Pos)            /*!< SCB 
 385:./inc/core_cm3.h **** 
 386:./inc/core_cm3.h **** #define SCB_AIRCR_VECTKEYSTAT_Pos          16                                             /*!< SCB 
 387:./inc/core_cm3.h **** #define SCB_AIRCR_VECTKEYSTAT_Msk          (0xFFFFUL << SCB_AIRCR_VECTKEYSTAT_Pos)        /*!< SCB 
 388:./inc/core_cm3.h **** 
 389:./inc/core_cm3.h **** #define SCB_AIRCR_ENDIANESS_Pos            15                                             /*!< SCB 
 390:./inc/core_cm3.h **** #define SCB_AIRCR_ENDIANESS_Msk            (1UL << SCB_AIRCR_ENDIANESS_Pos)               /*!< SCB 
 391:./inc/core_cm3.h **** 
 392:./inc/core_cm3.h **** #define SCB_AIRCR_PRIGROUP_Pos              8                                             /*!< SCB 
 393:./inc/core_cm3.h **** #define SCB_AIRCR_PRIGROUP_Msk             (7UL << SCB_AIRCR_PRIGROUP_Pos)                /*!< SCB 
 394:./inc/core_cm3.h **** 
 395:./inc/core_cm3.h **** #define SCB_AIRCR_SYSRESETREQ_Pos           2                                             /*!< SCB 
 396:./inc/core_cm3.h **** #define SCB_AIRCR_SYSRESETREQ_Msk          (1UL << SCB_AIRCR_SYSRESETREQ_Pos)             /*!< SCB 
 397:./inc/core_cm3.h **** 
 398:./inc/core_cm3.h **** #define SCB_AIRCR_VECTCLRACTIVE_Pos         1                                             /*!< SCB 
 399:./inc/core_cm3.h **** #define SCB_AIRCR_VECTCLRACTIVE_Msk        (1UL << SCB_AIRCR_VECTCLRACTIVE_Pos)           /*!< SCB 
 400:./inc/core_cm3.h **** 
 401:./inc/core_cm3.h **** #define SCB_AIRCR_VECTRESET_Pos             0                                             /*!< SCB 
 402:./inc/core_cm3.h **** #define SCB_AIRCR_VECTRESET_Msk            (1UL << SCB_AIRCR_VECTRESET_Pos)               /*!< SCB 
 403:./inc/core_cm3.h **** 
 404:./inc/core_cm3.h **** /* SCB System Control Register Definitions */
 405:./inc/core_cm3.h **** #define SCB_SCR_SEVONPEND_Pos               4                                             /*!< SCB 
 406:./inc/core_cm3.h **** #define SCB_SCR_SEVONPEND_Msk              (1UL << SCB_SCR_SEVONPEND_Pos)                 /*!< SCB 
ARM GAS  /tmp/ccc4qMCA.s 			page 11


 407:./inc/core_cm3.h **** 
 408:./inc/core_cm3.h **** #define SCB_SCR_SLEEPDEEP_Pos               2                                             /*!< SCB 
 409:./inc/core_cm3.h **** #define SCB_SCR_SLEEPDEEP_Msk              (1UL << SCB_SCR_SLEEPDEEP_Pos)                 /*!< SCB 
 410:./inc/core_cm3.h **** 
 411:./inc/core_cm3.h **** #define SCB_SCR_SLEEPONEXIT_Pos             1                                             /*!< SCB 
 412:./inc/core_cm3.h **** #define SCB_SCR_SLEEPONEXIT_Msk            (1UL << SCB_SCR_SLEEPONEXIT_Pos)               /*!< SCB 
 413:./inc/core_cm3.h **** 
 414:./inc/core_cm3.h **** /* SCB Configuration Control Register Definitions */
 415:./inc/core_cm3.h **** #define SCB_CCR_STKALIGN_Pos                9                                             /*!< SCB 
 416:./inc/core_cm3.h **** #define SCB_CCR_STKALIGN_Msk               (1UL << SCB_CCR_STKALIGN_Pos)                  /*!< SCB 
 417:./inc/core_cm3.h **** 
 418:./inc/core_cm3.h **** #define SCB_CCR_BFHFNMIGN_Pos               8                                             /*!< SCB 
 419:./inc/core_cm3.h **** #define SCB_CCR_BFHFNMIGN_Msk              (1UL << SCB_CCR_BFHFNMIGN_Pos)                 /*!< SCB 
 420:./inc/core_cm3.h **** 
 421:./inc/core_cm3.h **** #define SCB_CCR_DIV_0_TRP_Pos               4                                             /*!< SCB 
 422:./inc/core_cm3.h **** #define SCB_CCR_DIV_0_TRP_Msk              (1UL << SCB_CCR_DIV_0_TRP_Pos)                 /*!< SCB 
 423:./inc/core_cm3.h **** 
 424:./inc/core_cm3.h **** #define SCB_CCR_UNALIGN_TRP_Pos             3                                             /*!< SCB 
 425:./inc/core_cm3.h **** #define SCB_CCR_UNALIGN_TRP_Msk            (1UL << SCB_CCR_UNALIGN_TRP_Pos)               /*!< SCB 
 426:./inc/core_cm3.h **** 
 427:./inc/core_cm3.h **** #define SCB_CCR_USERSETMPEND_Pos            1                                             /*!< SCB 
 428:./inc/core_cm3.h **** #define SCB_CCR_USERSETMPEND_Msk           (1UL << SCB_CCR_USERSETMPEND_Pos)              /*!< SCB 
 429:./inc/core_cm3.h **** 
 430:./inc/core_cm3.h **** #define SCB_CCR_NONBASETHRDENA_Pos          0                                             /*!< SCB 
 431:./inc/core_cm3.h **** #define SCB_CCR_NONBASETHRDENA_Msk         (1UL << SCB_CCR_NONBASETHRDENA_Pos)            /*!< SCB 
 432:./inc/core_cm3.h **** 
 433:./inc/core_cm3.h **** /* SCB System Handler Control and State Register Definitions */
 434:./inc/core_cm3.h **** #define SCB_SHCSR_USGFAULTENA_Pos          18                                             /*!< SCB 
 435:./inc/core_cm3.h **** #define SCB_SHCSR_USGFAULTENA_Msk          (1UL << SCB_SHCSR_USGFAULTENA_Pos)             /*!< SCB 
 436:./inc/core_cm3.h **** 
 437:./inc/core_cm3.h **** #define SCB_SHCSR_BUSFAULTENA_Pos          17                                             /*!< SCB 
 438:./inc/core_cm3.h **** #define SCB_SHCSR_BUSFAULTENA_Msk          (1UL << SCB_SHCSR_BUSFAULTENA_Pos)             /*!< SCB 
 439:./inc/core_cm3.h **** 
 440:./inc/core_cm3.h **** #define SCB_SHCSR_MEMFAULTENA_Pos          16                                             /*!< SCB 
 441:./inc/core_cm3.h **** #define SCB_SHCSR_MEMFAULTENA_Msk          (1UL << SCB_SHCSR_MEMFAULTENA_Pos)             /*!< SCB 
 442:./inc/core_cm3.h **** 
 443:./inc/core_cm3.h **** #define SCB_SHCSR_SVCALLPENDED_Pos         15                                             /*!< SCB 
 444:./inc/core_cm3.h **** #define SCB_SHCSR_SVCALLPENDED_Msk         (1UL << SCB_SHCSR_SVCALLPENDED_Pos)            /*!< SCB 
 445:./inc/core_cm3.h **** 
 446:./inc/core_cm3.h **** #define SCB_SHCSR_BUSFAULTPENDED_Pos       14                                             /*!< SCB 
 447:./inc/core_cm3.h **** #define SCB_SHCSR_BUSFAULTPENDED_Msk       (1UL << SCB_SHCSR_BUSFAULTPENDED_Pos)          /*!< SCB 
 448:./inc/core_cm3.h **** 
 449:./inc/core_cm3.h **** #define SCB_SHCSR_MEMFAULTPENDED_Pos       13                                             /*!< SCB 
 450:./inc/core_cm3.h **** #define SCB_SHCSR_MEMFAULTPENDED_Msk       (1UL << SCB_SHCSR_MEMFAULTPENDED_Pos)          /*!< SCB 
 451:./inc/core_cm3.h **** 
 452:./inc/core_cm3.h **** #define SCB_SHCSR_USGFAULTPENDED_Pos       12                                             /*!< SCB 
 453:./inc/core_cm3.h **** #define SCB_SHCSR_USGFAULTPENDED_Msk       (1UL << SCB_SHCSR_USGFAULTPENDED_Pos)          /*!< SCB 
 454:./inc/core_cm3.h **** 
 455:./inc/core_cm3.h **** #define SCB_SHCSR_SYSTICKACT_Pos           11                                             /*!< SCB 
 456:./inc/core_cm3.h **** #define SCB_SHCSR_SYSTICKACT_Msk           (1UL << SCB_SHCSR_SYSTICKACT_Pos)              /*!< SCB 
 457:./inc/core_cm3.h **** 
 458:./inc/core_cm3.h **** #define SCB_SHCSR_PENDSVACT_Pos            10                                             /*!< SCB 
 459:./inc/core_cm3.h **** #define SCB_SHCSR_PENDSVACT_Msk            (1UL << SCB_SHCSR_PENDSVACT_Pos)               /*!< SCB 
 460:./inc/core_cm3.h **** 
 461:./inc/core_cm3.h **** #define SCB_SHCSR_MONITORACT_Pos            8                                             /*!< SCB 
 462:./inc/core_cm3.h **** #define SCB_SHCSR_MONITORACT_Msk           (1UL << SCB_SHCSR_MONITORACT_Pos)              /*!< SCB 
 463:./inc/core_cm3.h **** 
ARM GAS  /tmp/ccc4qMCA.s 			page 12


 464:./inc/core_cm3.h **** #define SCB_SHCSR_SVCALLACT_Pos             7                                             /*!< SCB 
 465:./inc/core_cm3.h **** #define SCB_SHCSR_SVCALLACT_Msk            (1UL << SCB_SHCSR_SVCALLACT_Pos)               /*!< SCB 
 466:./inc/core_cm3.h **** 
 467:./inc/core_cm3.h **** #define SCB_SHCSR_USGFAULTACT_Pos           3                                             /*!< SCB 
 468:./inc/core_cm3.h **** #define SCB_SHCSR_USGFAULTACT_Msk          (1UL << SCB_SHCSR_USGFAULTACT_Pos)             /*!< SCB 
 469:./inc/core_cm3.h **** 
 470:./inc/core_cm3.h **** #define SCB_SHCSR_BUSFAULTACT_Pos           1                                             /*!< SCB 
 471:./inc/core_cm3.h **** #define SCB_SHCSR_BUSFAULTACT_Msk          (1UL << SCB_SHCSR_BUSFAULTACT_Pos)             /*!< SCB 
 472:./inc/core_cm3.h **** 
 473:./inc/core_cm3.h **** #define SCB_SHCSR_MEMFAULTACT_Pos           0                                             /*!< SCB 
 474:./inc/core_cm3.h **** #define SCB_SHCSR_MEMFAULTACT_Msk          (1UL << SCB_SHCSR_MEMFAULTACT_Pos)             /*!< SCB 
 475:./inc/core_cm3.h **** 
 476:./inc/core_cm3.h **** /* SCB Configurable Fault Status Registers Definitions */
 477:./inc/core_cm3.h **** #define SCB_CFSR_USGFAULTSR_Pos            16                                             /*!< SCB 
 478:./inc/core_cm3.h **** #define SCB_CFSR_USGFAULTSR_Msk            (0xFFFFUL << SCB_CFSR_USGFAULTSR_Pos)          /*!< SCB 
 479:./inc/core_cm3.h **** 
 480:./inc/core_cm3.h **** #define SCB_CFSR_BUSFAULTSR_Pos             8                                             /*!< SCB 
 481:./inc/core_cm3.h **** #define SCB_CFSR_BUSFAULTSR_Msk            (0xFFUL << SCB_CFSR_BUSFAULTSR_Pos)            /*!< SCB 
 482:./inc/core_cm3.h **** 
 483:./inc/core_cm3.h **** #define SCB_CFSR_MEMFAULTSR_Pos             0                                             /*!< SCB 
 484:./inc/core_cm3.h **** #define SCB_CFSR_MEMFAULTSR_Msk            (0xFFUL << SCB_CFSR_MEMFAULTSR_Pos)            /*!< SCB 
 485:./inc/core_cm3.h **** 
 486:./inc/core_cm3.h **** /* SCB Hard Fault Status Registers Definitions */
 487:./inc/core_cm3.h **** #define SCB_HFSR_DEBUGEVT_Pos              31                                             /*!< SCB 
 488:./inc/core_cm3.h **** #define SCB_HFSR_DEBUGEVT_Msk              (1UL << SCB_HFSR_DEBUGEVT_Pos)                 /*!< SCB 
 489:./inc/core_cm3.h **** 
 490:./inc/core_cm3.h **** #define SCB_HFSR_FORCED_Pos                30                                             /*!< SCB 
 491:./inc/core_cm3.h **** #define SCB_HFSR_FORCED_Msk                (1UL << SCB_HFSR_FORCED_Pos)                   /*!< SCB 
 492:./inc/core_cm3.h **** 
 493:./inc/core_cm3.h **** #define SCB_HFSR_VECTTBL_Pos                1                                             /*!< SCB 
 494:./inc/core_cm3.h **** #define SCB_HFSR_VECTTBL_Msk               (1UL << SCB_HFSR_VECTTBL_Pos)                  /*!< SCB 
 495:./inc/core_cm3.h **** 
 496:./inc/core_cm3.h **** /* SCB Debug Fault Status Register Definitions */
 497:./inc/core_cm3.h **** #define SCB_DFSR_EXTERNAL_Pos               4                                             /*!< SCB 
 498:./inc/core_cm3.h **** #define SCB_DFSR_EXTERNAL_Msk              (1UL << SCB_DFSR_EXTERNAL_Pos)                 /*!< SCB 
 499:./inc/core_cm3.h **** 
 500:./inc/core_cm3.h **** #define SCB_DFSR_VCATCH_Pos                 3                                             /*!< SCB 
 501:./inc/core_cm3.h **** #define SCB_DFSR_VCATCH_Msk                (1UL << SCB_DFSR_VCATCH_Pos)                   /*!< SCB 
 502:./inc/core_cm3.h **** 
 503:./inc/core_cm3.h **** #define SCB_DFSR_DWTTRAP_Pos                2                                             /*!< SCB 
 504:./inc/core_cm3.h **** #define SCB_DFSR_DWTTRAP_Msk               (1UL << SCB_DFSR_DWTTRAP_Pos)                  /*!< SCB 
 505:./inc/core_cm3.h **** 
 506:./inc/core_cm3.h **** #define SCB_DFSR_BKPT_Pos                   1                                             /*!< SCB 
 507:./inc/core_cm3.h **** #define SCB_DFSR_BKPT_Msk                  (1UL << SCB_DFSR_BKPT_Pos)                     /*!< SCB 
 508:./inc/core_cm3.h **** 
 509:./inc/core_cm3.h **** #define SCB_DFSR_HALTED_Pos                 0                                             /*!< SCB 
 510:./inc/core_cm3.h **** #define SCB_DFSR_HALTED_Msk                (1UL << SCB_DFSR_HALTED_Pos)                   /*!< SCB 
 511:./inc/core_cm3.h **** 
 512:./inc/core_cm3.h **** /*@} end of group CMSIS_SCB */
 513:./inc/core_cm3.h **** 
 514:./inc/core_cm3.h **** 
 515:./inc/core_cm3.h **** /** \ingroup  CMSIS_core_register
 516:./inc/core_cm3.h ****     \defgroup CMSIS_SCnSCB CMSIS System Control and ID Register not in the SCB
 517:./inc/core_cm3.h ****   Type definitions for the Cortex-M System Control and ID Register not in the SCB
 518:./inc/core_cm3.h ****   @{
 519:./inc/core_cm3.h ****  */
 520:./inc/core_cm3.h **** 
ARM GAS  /tmp/ccc4qMCA.s 			page 13


 521:./inc/core_cm3.h **** /** \brief  Structure type to access the System Control and ID Register not in the SCB.
 522:./inc/core_cm3.h ****  */
 523:./inc/core_cm3.h **** typedef struct
 524:./inc/core_cm3.h **** {
 525:./inc/core_cm3.h ****        uint32_t RESERVED0[1];
 526:./inc/core_cm3.h ****   __I  uint32_t ICTR;                    /*!< Offset: 0x004 (R/ )  Interrupt Controller Type Regist
 527:./inc/core_cm3.h **** #if ((defined __CM3_REV) && (__CM3_REV >= 0x200))
 528:./inc/core_cm3.h ****   __IO uint32_t ACTLR;                   /*!< Offset: 0x008 (R/W)  Auxiliary Control Register      
 529:./inc/core_cm3.h **** #else
 530:./inc/core_cm3.h ****        uint32_t RESERVED1[1];
 531:./inc/core_cm3.h **** #endif
 532:./inc/core_cm3.h **** } SCnSCB_Type;
 533:./inc/core_cm3.h **** 
 534:./inc/core_cm3.h **** /* Interrupt Controller Type Register Definitions */
 535:./inc/core_cm3.h **** #define SCnSCB_ICTR_INTLINESNUM_Pos         0                                          /*!< ICTR: I
 536:./inc/core_cm3.h **** #define SCnSCB_ICTR_INTLINESNUM_Msk        (0xFUL << SCnSCB_ICTR_INTLINESNUM_Pos)      /*!< ICTR: I
 537:./inc/core_cm3.h **** 
 538:./inc/core_cm3.h **** /* Auxiliary Control Register Definitions */
 539:./inc/core_cm3.h **** 
 540:./inc/core_cm3.h **** #define SCnSCB_ACTLR_DISFOLD_Pos            2                                          /*!< ACTLR: 
 541:./inc/core_cm3.h **** #define SCnSCB_ACTLR_DISFOLD_Msk           (1UL << SCnSCB_ACTLR_DISFOLD_Pos)           /*!< ACTLR: 
 542:./inc/core_cm3.h **** 
 543:./inc/core_cm3.h **** #define SCnSCB_ACTLR_DISDEFWBUF_Pos         1                                          /*!< ACTLR: 
 544:./inc/core_cm3.h **** #define SCnSCB_ACTLR_DISDEFWBUF_Msk        (1UL << SCnSCB_ACTLR_DISDEFWBUF_Pos)        /*!< ACTLR: 
 545:./inc/core_cm3.h **** 
 546:./inc/core_cm3.h **** #define SCnSCB_ACTLR_DISMCYCINT_Pos         0                                          /*!< ACTLR: 
 547:./inc/core_cm3.h **** #define SCnSCB_ACTLR_DISMCYCINT_Msk        (1UL << SCnSCB_ACTLR_DISMCYCINT_Pos)        /*!< ACTLR: 
 548:./inc/core_cm3.h **** 
 549:./inc/core_cm3.h **** /*@} end of group CMSIS_SCnotSCB */
 550:./inc/core_cm3.h **** 
 551:./inc/core_cm3.h **** 
 552:./inc/core_cm3.h **** /** \ingroup  CMSIS_core_register
 553:./inc/core_cm3.h ****     \defgroup CMSIS_SysTick CMSIS SysTick
 554:./inc/core_cm3.h ****   Type definitions for the Cortex-M System Timer Registers
 555:./inc/core_cm3.h ****   @{
 556:./inc/core_cm3.h ****  */
 557:./inc/core_cm3.h **** 
 558:./inc/core_cm3.h **** /** \brief  Structure type to access the System Timer (SysTick).
 559:./inc/core_cm3.h ****  */
 560:./inc/core_cm3.h **** typedef struct
 561:./inc/core_cm3.h **** {
 562:./inc/core_cm3.h ****   __IO uint32_t CTRL;                    /*!< Offset: 0x000 (R/W)  SysTick Control and Status Regis
 563:./inc/core_cm3.h ****   __IO uint32_t LOAD;                    /*!< Offset: 0x004 (R/W)  SysTick Reload Value Register   
 564:./inc/core_cm3.h ****   __IO uint32_t VAL;                     /*!< Offset: 0x008 (R/W)  SysTick Current Value Register  
 565:./inc/core_cm3.h ****   __I  uint32_t CALIB;                   /*!< Offset: 0x00C (R/ )  SysTick Calibration Register    
 566:./inc/core_cm3.h **** } SysTick_Type;
 567:./inc/core_cm3.h **** 
 568:./inc/core_cm3.h **** /* SysTick Control / Status Register Definitions */
 569:./inc/core_cm3.h **** #define SysTick_CTRL_COUNTFLAG_Pos         16                                             /*!< SysT
 570:./inc/core_cm3.h **** #define SysTick_CTRL_COUNTFLAG_Msk         (1UL << SysTick_CTRL_COUNTFLAG_Pos)            /*!< SysT
 571:./inc/core_cm3.h **** 
 572:./inc/core_cm3.h **** #define SysTick_CTRL_CLKSOURCE_Pos          2                                             /*!< SysT
 573:./inc/core_cm3.h **** #define SysTick_CTRL_CLKSOURCE_Msk         (1UL << SysTick_CTRL_CLKSOURCE_Pos)            /*!< SysT
 574:./inc/core_cm3.h **** 
 575:./inc/core_cm3.h **** #define SysTick_CTRL_TICKINT_Pos            1                                             /*!< SysT
 576:./inc/core_cm3.h **** #define SysTick_CTRL_TICKINT_Msk           (1UL << SysTick_CTRL_TICKINT_Pos)              /*!< SysT
 577:./inc/core_cm3.h **** 
ARM GAS  /tmp/ccc4qMCA.s 			page 14


 578:./inc/core_cm3.h **** #define SysTick_CTRL_ENABLE_Pos             0                                             /*!< SysT
 579:./inc/core_cm3.h **** #define SysTick_CTRL_ENABLE_Msk            (1UL << SysTick_CTRL_ENABLE_Pos)               /*!< SysT
 580:./inc/core_cm3.h **** 
 581:./inc/core_cm3.h **** /* SysTick Reload Register Definitions */
 582:./inc/core_cm3.h **** #define SysTick_LOAD_RELOAD_Pos             0                                             /*!< SysT
 583:./inc/core_cm3.h **** #define SysTick_LOAD_RELOAD_Msk            (0xFFFFFFUL << SysTick_LOAD_RELOAD_Pos)        /*!< SysT
 584:./inc/core_cm3.h **** 
 585:./inc/core_cm3.h **** /* SysTick Current Register Definitions */
 586:./inc/core_cm3.h **** #define SysTick_VAL_CURRENT_Pos             0                                             /*!< SysT
 587:./inc/core_cm3.h **** #define SysTick_VAL_CURRENT_Msk            (0xFFFFFFUL << SysTick_VAL_CURRENT_Pos)        /*!< SysT
 588:./inc/core_cm3.h **** 
 589:./inc/core_cm3.h **** /* SysTick Calibration Register Definitions */
 590:./inc/core_cm3.h **** #define SysTick_CALIB_NOREF_Pos            31                                             /*!< SysT
 591:./inc/core_cm3.h **** #define SysTick_CALIB_NOREF_Msk            (1UL << SysTick_CALIB_NOREF_Pos)               /*!< SysT
 592:./inc/core_cm3.h **** 
 593:./inc/core_cm3.h **** #define SysTick_CALIB_SKEW_Pos             30                                             /*!< SysT
 594:./inc/core_cm3.h **** #define SysTick_CALIB_SKEW_Msk             (1UL << SysTick_CALIB_SKEW_Pos)                /*!< SysT
 595:./inc/core_cm3.h **** 
 596:./inc/core_cm3.h **** #define SysTick_CALIB_TENMS_Pos             0                                             /*!< SysT
 597:./inc/core_cm3.h **** #define SysTick_CALIB_TENMS_Msk            (0xFFFFFFUL << SysTick_VAL_CURRENT_Pos)        /*!< SysT
 598:./inc/core_cm3.h **** 
 599:./inc/core_cm3.h **** /*@} end of group CMSIS_SysTick */
 600:./inc/core_cm3.h **** 
 601:./inc/core_cm3.h **** 
 602:./inc/core_cm3.h **** /** \ingroup  CMSIS_core_register
 603:./inc/core_cm3.h ****     \defgroup CMSIS_ITM CMSIS ITM
 604:./inc/core_cm3.h ****   Type definitions for the Cortex-M Instrumentation Trace Macrocell (ITM)
 605:./inc/core_cm3.h ****   @{
 606:./inc/core_cm3.h ****  */
 607:./inc/core_cm3.h **** 
 608:./inc/core_cm3.h **** /** \brief  Structure type to access the Instrumentation Trace Macrocell Register (ITM).
 609:./inc/core_cm3.h ****  */
 610:./inc/core_cm3.h **** typedef struct
 611:./inc/core_cm3.h **** {
 612:./inc/core_cm3.h ****   __O  union
 613:./inc/core_cm3.h ****   {
 614:./inc/core_cm3.h ****     __O  uint8_t    u8;                  /*!< Offset: 0x000 ( /W)  ITM Stimulus Port 8-bit         
 615:./inc/core_cm3.h ****     __O  uint16_t   u16;                 /*!< Offset: 0x000 ( /W)  ITM Stimulus Port 16-bit        
 616:./inc/core_cm3.h ****     __O  uint32_t   u32;                 /*!< Offset: 0x000 ( /W)  ITM Stimulus Port 32-bit        
 617:./inc/core_cm3.h ****   }  PORT [32];                          /*!< Offset: 0x000 ( /W)  ITM Stimulus Port Registers     
 618:./inc/core_cm3.h ****        uint32_t RESERVED0[864];
 619:./inc/core_cm3.h ****   __IO uint32_t TER;                     /*!< Offset: 0xE00 (R/W)  ITM Trace Enable Register       
 620:./inc/core_cm3.h ****        uint32_t RESERVED1[15];
 621:./inc/core_cm3.h ****   __IO uint32_t TPR;                     /*!< Offset: 0xE40 (R/W)  ITM Trace Privilege Register    
 622:./inc/core_cm3.h ****        uint32_t RESERVED2[15];
 623:./inc/core_cm3.h ****   __IO uint32_t TCR;                     /*!< Offset: 0xE80 (R/W)  ITM Trace Control Register      
 624:./inc/core_cm3.h **** } ITM_Type;
 625:./inc/core_cm3.h **** 
 626:./inc/core_cm3.h **** /* ITM Trace Privilege Register Definitions */
 627:./inc/core_cm3.h **** #define ITM_TPR_PRIVMASK_Pos                0                                          /*!< ITM TPR
 628:./inc/core_cm3.h **** #define ITM_TPR_PRIVMASK_Msk               (0xFUL << ITM_TPR_PRIVMASK_Pos)             /*!< ITM TPR
 629:./inc/core_cm3.h **** 
 630:./inc/core_cm3.h **** /* ITM Trace Control Register Definitions */
 631:./inc/core_cm3.h **** #define ITM_TCR_BUSY_Pos                   23                                          /*!< ITM TCR
 632:./inc/core_cm3.h **** #define ITM_TCR_BUSY_Msk                   (1UL << ITM_TCR_BUSY_Pos)                   /*!< ITM TCR
 633:./inc/core_cm3.h **** 
 634:./inc/core_cm3.h **** #define ITM_TCR_TraceBusID_Pos             16                                          /*!< ITM TCR
ARM GAS  /tmp/ccc4qMCA.s 			page 15


 635:./inc/core_cm3.h **** #define ITM_TCR_TraceBusID_Msk             (0x7FUL << ITM_TCR_TraceBusID_Pos)          /*!< ITM TCR
 636:./inc/core_cm3.h **** 
 637:./inc/core_cm3.h **** #define ITM_TCR_GTSFREQ_Pos                10                                          /*!< ITM TCR
 638:./inc/core_cm3.h **** #define ITM_TCR_GTSFREQ_Msk                (3UL << ITM_TCR_GTSFREQ_Pos)                /*!< ITM TCR
 639:./inc/core_cm3.h **** 
 640:./inc/core_cm3.h **** #define ITM_TCR_TSPrescale_Pos              8                                          /*!< ITM TCR
 641:./inc/core_cm3.h **** #define ITM_TCR_TSPrescale_Msk             (3UL << ITM_TCR_TSPrescale_Pos)             /*!< ITM TCR
 642:./inc/core_cm3.h **** 
 643:./inc/core_cm3.h **** #define ITM_TCR_SWOENA_Pos                  4                                          /*!< ITM TCR
 644:./inc/core_cm3.h **** #define ITM_TCR_SWOENA_Msk                 (1UL << ITM_TCR_SWOENA_Pos)                 /*!< ITM TCR
 645:./inc/core_cm3.h **** 
 646:./inc/core_cm3.h **** #define ITM_TCR_TXENA_Pos                   3                                          /*!< ITM TCR
 647:./inc/core_cm3.h **** #define ITM_TCR_TXENA_Msk                  (1UL << ITM_TCR_TXENA_Pos)                  /*!< ITM TCR
 648:./inc/core_cm3.h **** 
 649:./inc/core_cm3.h **** #define ITM_TCR_SYNCENA_Pos                 2                                          /*!< ITM TCR
 650:./inc/core_cm3.h **** #define ITM_TCR_SYNCENA_Msk                (1UL << ITM_TCR_SYNCENA_Pos)                /*!< ITM TCR
 651:./inc/core_cm3.h **** 
 652:./inc/core_cm3.h **** #define ITM_TCR_TSENA_Pos                   1                                          /*!< ITM TCR
 653:./inc/core_cm3.h **** #define ITM_TCR_TSENA_Msk                  (1UL << ITM_TCR_TSENA_Pos)                  /*!< ITM TCR
 654:./inc/core_cm3.h **** 
 655:./inc/core_cm3.h **** #define ITM_TCR_ITMENA_Pos                  0                                          /*!< ITM TCR
 656:./inc/core_cm3.h **** #define ITM_TCR_ITMENA_Msk                 (1UL << ITM_TCR_ITMENA_Pos)                 /*!< ITM TCR
 657:./inc/core_cm3.h **** 
 658:./inc/core_cm3.h **** /*@}*/ /* end of group CMSIS_ITM */
 659:./inc/core_cm3.h **** 
 660:./inc/core_cm3.h **** 
 661:./inc/core_cm3.h **** #if (__MPU_PRESENT == 1)
 662:./inc/core_cm3.h **** /** \ingroup  CMSIS_core_register
 663:./inc/core_cm3.h ****     \defgroup CMSIS_MPU CMSIS MPU
 664:./inc/core_cm3.h ****   Type definitions for the Cortex-M Memory Protection Unit (MPU)
 665:./inc/core_cm3.h ****   @{
 666:./inc/core_cm3.h ****  */
 667:./inc/core_cm3.h **** 
 668:./inc/core_cm3.h **** /** \brief  Structure type to access the Memory Protection Unit (MPU).
 669:./inc/core_cm3.h ****  */
 670:./inc/core_cm3.h **** typedef struct
 671:./inc/core_cm3.h **** {
 672:./inc/core_cm3.h ****   __I  uint32_t TYPE;                    /*!< Offset: 0x000 (R/ )  MPU Type Register               
 673:./inc/core_cm3.h ****   __IO uint32_t CTRL;                    /*!< Offset: 0x004 (R/W)  MPU Control Register            
 674:./inc/core_cm3.h ****   __IO uint32_t RNR;                     /*!< Offset: 0x008 (R/W)  MPU Region RNRber Register      
 675:./inc/core_cm3.h ****   __IO uint32_t RBAR;                    /*!< Offset: 0x00C (R/W)  MPU Region Base Address Register
 676:./inc/core_cm3.h ****   __IO uint32_t RASR;                    /*!< Offset: 0x010 (R/W)  MPU Region Attribute and Size Re
 677:./inc/core_cm3.h ****   __IO uint32_t RBAR_A1;                 /*!< Offset: 0x014 (R/W)  MPU Alias 1 Region Base Address 
 678:./inc/core_cm3.h ****   __IO uint32_t RASR_A1;                 /*!< Offset: 0x018 (R/W)  MPU Alias 1 Region Attribute and
 679:./inc/core_cm3.h ****   __IO uint32_t RBAR_A2;                 /*!< Offset: 0x01C (R/W)  MPU Alias 2 Region Base Address 
 680:./inc/core_cm3.h ****   __IO uint32_t RASR_A2;                 /*!< Offset: 0x020 (R/W)  MPU Alias 2 Region Attribute and
 681:./inc/core_cm3.h ****   __IO uint32_t RBAR_A3;                 /*!< Offset: 0x024 (R/W)  MPU Alias 3 Region Base Address 
 682:./inc/core_cm3.h ****   __IO uint32_t RASR_A3;                 /*!< Offset: 0x028 (R/W)  MPU Alias 3 Region Attribute and
 683:./inc/core_cm3.h **** } MPU_Type;
 684:./inc/core_cm3.h **** 
 685:./inc/core_cm3.h **** /* MPU Type Register */
 686:./inc/core_cm3.h **** #define MPU_TYPE_IREGION_Pos               16                                             /*!< MPU 
 687:./inc/core_cm3.h **** #define MPU_TYPE_IREGION_Msk               (0xFFUL << MPU_TYPE_IREGION_Pos)               /*!< MPU 
 688:./inc/core_cm3.h **** 
 689:./inc/core_cm3.h **** #define MPU_TYPE_DREGION_Pos                8                                             /*!< MPU 
 690:./inc/core_cm3.h **** #define MPU_TYPE_DREGION_Msk               (0xFFUL << MPU_TYPE_DREGION_Pos)               /*!< MPU 
 691:./inc/core_cm3.h **** 
ARM GAS  /tmp/ccc4qMCA.s 			page 16


 692:./inc/core_cm3.h **** #define MPU_TYPE_SEPARATE_Pos               0                                             /*!< MPU 
 693:./inc/core_cm3.h **** #define MPU_TYPE_SEPARATE_Msk              (1UL << MPU_TYPE_SEPARATE_Pos)                 /*!< MPU 
 694:./inc/core_cm3.h **** 
 695:./inc/core_cm3.h **** /* MPU Control Register */
 696:./inc/core_cm3.h **** #define MPU_CTRL_PRIVDEFENA_Pos             2                                             /*!< MPU 
 697:./inc/core_cm3.h **** #define MPU_CTRL_PRIVDEFENA_Msk            (1UL << MPU_CTRL_PRIVDEFENA_Pos)               /*!< MPU 
 698:./inc/core_cm3.h **** 
 699:./inc/core_cm3.h **** #define MPU_CTRL_HFNMIENA_Pos               1                                             /*!< MPU 
 700:./inc/core_cm3.h **** #define MPU_CTRL_HFNMIENA_Msk              (1UL << MPU_CTRL_HFNMIENA_Pos)                 /*!< MPU 
 701:./inc/core_cm3.h **** 
 702:./inc/core_cm3.h **** #define MPU_CTRL_ENABLE_Pos                 0                                             /*!< MPU 
 703:./inc/core_cm3.h **** #define MPU_CTRL_ENABLE_Msk                (1UL << MPU_CTRL_ENABLE_Pos)                   /*!< MPU 
 704:./inc/core_cm3.h **** 
 705:./inc/core_cm3.h **** /* MPU Region Number Register */
 706:./inc/core_cm3.h **** #define MPU_RNR_REGION_Pos                  0                                             /*!< MPU 
 707:./inc/core_cm3.h **** #define MPU_RNR_REGION_Msk                 (0xFFUL << MPU_RNR_REGION_Pos)                 /*!< MPU 
 708:./inc/core_cm3.h **** 
 709:./inc/core_cm3.h **** /* MPU Region Base Address Register */
 710:./inc/core_cm3.h **** #define MPU_RBAR_ADDR_Pos                   5                                             /*!< MPU 
 711:./inc/core_cm3.h **** #define MPU_RBAR_ADDR_Msk                  (0x7FFFFFFUL << MPU_RBAR_ADDR_Pos)             /*!< MPU 
 712:./inc/core_cm3.h **** 
 713:./inc/core_cm3.h **** #define MPU_RBAR_VALID_Pos                  4                                             /*!< MPU 
 714:./inc/core_cm3.h **** #define MPU_RBAR_VALID_Msk                 (1UL << MPU_RBAR_VALID_Pos)                    /*!< MPU 
 715:./inc/core_cm3.h **** 
 716:./inc/core_cm3.h **** #define MPU_RBAR_REGION_Pos                 0                                             /*!< MPU 
 717:./inc/core_cm3.h **** #define MPU_RBAR_REGION_Msk                (0xFUL << MPU_RBAR_REGION_Pos)                 /*!< MPU 
 718:./inc/core_cm3.h **** 
 719:./inc/core_cm3.h **** /* MPU Region Attribute and Size Register */
 720:./inc/core_cm3.h **** #define MPU_RASR_ATTRS_Pos                 16                                             /*!< MPU 
 721:./inc/core_cm3.h **** #define MPU_RASR_ATTRS_Msk                 (0xFFFFUL << MPU_RASR_ATTRS_Pos)               /*!< MPU 
 722:./inc/core_cm3.h **** 
 723:./inc/core_cm3.h **** #define MPU_RASR_SRD_Pos                    8                                             /*!< MPU 
 724:./inc/core_cm3.h **** #define MPU_RASR_SRD_Msk                   (0xFFUL << MPU_RASR_SRD_Pos)                   /*!< MPU 
 725:./inc/core_cm3.h **** 
 726:./inc/core_cm3.h **** #define MPU_RASR_SIZE_Pos                   1                                             /*!< MPU 
 727:./inc/core_cm3.h **** #define MPU_RASR_SIZE_Msk                  (0x1FUL << MPU_RASR_SIZE_Pos)                  /*!< MPU 
 728:./inc/core_cm3.h **** 
 729:./inc/core_cm3.h **** #define MPU_RASR_ENABLE_Pos                 0                                             /*!< MPU 
 730:./inc/core_cm3.h **** #define MPU_RASR_ENABLE_Msk                (1UL << MPU_RASR_ENABLE_Pos)                   /*!< MPU 
 731:./inc/core_cm3.h **** 
 732:./inc/core_cm3.h **** /*@} end of group CMSIS_MPU */
 733:./inc/core_cm3.h **** #endif
 734:./inc/core_cm3.h **** 
 735:./inc/core_cm3.h **** 
 736:./inc/core_cm3.h **** /** \ingroup  CMSIS_core_register
 737:./inc/core_cm3.h ****     \defgroup CMSIS_CoreDebug CMSIS Core Debug
 738:./inc/core_cm3.h ****   Type definitions for the Cortex-M Core Debug Registers
 739:./inc/core_cm3.h ****   @{
 740:./inc/core_cm3.h ****  */
 741:./inc/core_cm3.h **** 
 742:./inc/core_cm3.h **** /** \brief  Structure type to access the Core Debug Register (CoreDebug).
 743:./inc/core_cm3.h ****  */
 744:./inc/core_cm3.h **** typedef struct
 745:./inc/core_cm3.h **** {
 746:./inc/core_cm3.h ****   __IO uint32_t DHCSR;                   /*!< Offset: 0x000 (R/W)  Debug Halting Control and Status
 747:./inc/core_cm3.h ****   __O  uint32_t DCRSR;                   /*!< Offset: 0x004 ( /W)  Debug Core Register Selector Reg
 748:./inc/core_cm3.h ****   __IO uint32_t DCRDR;                   /*!< Offset: 0x008 (R/W)  Debug Core Register Data Registe
ARM GAS  /tmp/ccc4qMCA.s 			page 17


 749:./inc/core_cm3.h ****   __IO uint32_t DEMCR;                   /*!< Offset: 0x00C (R/W)  Debug Exception and Monitor Cont
 750:./inc/core_cm3.h **** } CoreDebug_Type;
 751:./inc/core_cm3.h **** 
 752:./inc/core_cm3.h **** /* Debug Halting Control and Status Register */
 753:./inc/core_cm3.h **** #define CoreDebug_DHCSR_DBGKEY_Pos         16                                             /*!< Core
 754:./inc/core_cm3.h **** #define CoreDebug_DHCSR_DBGKEY_Msk         (0xFFFFUL << CoreDebug_DHCSR_DBGKEY_Pos)       /*!< Core
 755:./inc/core_cm3.h **** 
 756:./inc/core_cm3.h **** #define CoreDebug_DHCSR_S_RESET_ST_Pos     25                                             /*!< Core
 757:./inc/core_cm3.h **** #define CoreDebug_DHCSR_S_RESET_ST_Msk     (1UL << CoreDebug_DHCSR_S_RESET_ST_Pos)        /*!< Core
 758:./inc/core_cm3.h **** 
 759:./inc/core_cm3.h **** #define CoreDebug_DHCSR_S_RETIRE_ST_Pos    24                                             /*!< Core
 760:./inc/core_cm3.h **** #define CoreDebug_DHCSR_S_RETIRE_ST_Msk    (1UL << CoreDebug_DHCSR_S_RETIRE_ST_Pos)       /*!< Core
 761:./inc/core_cm3.h **** 
 762:./inc/core_cm3.h **** #define CoreDebug_DHCSR_S_LOCKUP_Pos       19                                             /*!< Core
 763:./inc/core_cm3.h **** #define CoreDebug_DHCSR_S_LOCKUP_Msk       (1UL << CoreDebug_DHCSR_S_LOCKUP_Pos)          /*!< Core
 764:./inc/core_cm3.h **** 
 765:./inc/core_cm3.h **** #define CoreDebug_DHCSR_S_SLEEP_Pos        18                                             /*!< Core
 766:./inc/core_cm3.h **** #define CoreDebug_DHCSR_S_SLEEP_Msk        (1UL << CoreDebug_DHCSR_S_SLEEP_Pos)           /*!< Core
 767:./inc/core_cm3.h **** 
 768:./inc/core_cm3.h **** #define CoreDebug_DHCSR_S_HALT_Pos         17                                             /*!< Core
 769:./inc/core_cm3.h **** #define CoreDebug_DHCSR_S_HALT_Msk         (1UL << CoreDebug_DHCSR_S_HALT_Pos)            /*!< Core
 770:./inc/core_cm3.h **** 
 771:./inc/core_cm3.h **** #define CoreDebug_DHCSR_S_REGRDY_Pos       16                                             /*!< Core
 772:./inc/core_cm3.h **** #define CoreDebug_DHCSR_S_REGRDY_Msk       (1UL << CoreDebug_DHCSR_S_REGRDY_Pos)          /*!< Core
 773:./inc/core_cm3.h **** 
 774:./inc/core_cm3.h **** #define CoreDebug_DHCSR_C_SNAPSTALL_Pos     5                                             /*!< Core
 775:./inc/core_cm3.h **** #define CoreDebug_DHCSR_C_SNAPSTALL_Msk    (1UL << CoreDebug_DHCSR_C_SNAPSTALL_Pos)       /*!< Core
 776:./inc/core_cm3.h **** 
 777:./inc/core_cm3.h **** #define CoreDebug_DHCSR_C_MASKINTS_Pos      3                                             /*!< Core
 778:./inc/core_cm3.h **** #define CoreDebug_DHCSR_C_MASKINTS_Msk     (1UL << CoreDebug_DHCSR_C_MASKINTS_Pos)        /*!< Core
 779:./inc/core_cm3.h **** 
 780:./inc/core_cm3.h **** #define CoreDebug_DHCSR_C_STEP_Pos          2                                             /*!< Core
 781:./inc/core_cm3.h **** #define CoreDebug_DHCSR_C_STEP_Msk         (1UL << CoreDebug_DHCSR_C_STEP_Pos)            /*!< Core
 782:./inc/core_cm3.h **** 
 783:./inc/core_cm3.h **** #define CoreDebug_DHCSR_C_HALT_Pos          1                                             /*!< Core
 784:./inc/core_cm3.h **** #define CoreDebug_DHCSR_C_HALT_Msk         (1UL << CoreDebug_DHCSR_C_HALT_Pos)            /*!< Core
 785:./inc/core_cm3.h **** 
 786:./inc/core_cm3.h **** #define CoreDebug_DHCSR_C_DEBUGEN_Pos       0                                             /*!< Core
 787:./inc/core_cm3.h **** #define CoreDebug_DHCSR_C_DEBUGEN_Msk      (1UL << CoreDebug_DHCSR_C_DEBUGEN_Pos)         /*!< Core
 788:./inc/core_cm3.h **** 
 789:./inc/core_cm3.h **** /* Debug Core Register Selector Register */
 790:./inc/core_cm3.h **** #define CoreDebug_DCRSR_REGWnR_Pos         16                                             /*!< Core
 791:./inc/core_cm3.h **** #define CoreDebug_DCRSR_REGWnR_Msk         (1UL << CoreDebug_DCRSR_REGWnR_Pos)            /*!< Core
 792:./inc/core_cm3.h **** 
 793:./inc/core_cm3.h **** #define CoreDebug_DCRSR_REGSEL_Pos          0                                             /*!< Core
 794:./inc/core_cm3.h **** #define CoreDebug_DCRSR_REGSEL_Msk         (0x1FUL << CoreDebug_DCRSR_REGSEL_Pos)         /*!< Core
 795:./inc/core_cm3.h **** 
 796:./inc/core_cm3.h **** /* Debug Exception and Monitor Control Register */
 797:./inc/core_cm3.h **** #define CoreDebug_DEMCR_TRCENA_Pos         24                                             /*!< Core
 798:./inc/core_cm3.h **** #define CoreDebug_DEMCR_TRCENA_Msk         (1UL << CoreDebug_DEMCR_TRCENA_Pos)            /*!< Core
 799:./inc/core_cm3.h **** 
 800:./inc/core_cm3.h **** #define CoreDebug_DEMCR_MON_REQ_Pos        19                                             /*!< Core
 801:./inc/core_cm3.h **** #define CoreDebug_DEMCR_MON_REQ_Msk        (1UL << CoreDebug_DEMCR_MON_REQ_Pos)           /*!< Core
 802:./inc/core_cm3.h **** 
 803:./inc/core_cm3.h **** #define CoreDebug_DEMCR_MON_STEP_Pos       18                                             /*!< Core
 804:./inc/core_cm3.h **** #define CoreDebug_DEMCR_MON_STEP_Msk       (1UL << CoreDebug_DEMCR_MON_STEP_Pos)          /*!< Core
 805:./inc/core_cm3.h **** 
ARM GAS  /tmp/ccc4qMCA.s 			page 18


 806:./inc/core_cm3.h **** #define CoreDebug_DEMCR_MON_PEND_Pos       17                                             /*!< Core
 807:./inc/core_cm3.h **** #define CoreDebug_DEMCR_MON_PEND_Msk       (1UL << CoreDebug_DEMCR_MON_PEND_Pos)          /*!< Core
 808:./inc/core_cm3.h **** 
 809:./inc/core_cm3.h **** #define CoreDebug_DEMCR_MON_EN_Pos         16                                             /*!< Core
 810:./inc/core_cm3.h **** #define CoreDebug_DEMCR_MON_EN_Msk         (1UL << CoreDebug_DEMCR_MON_EN_Pos)            /*!< Core
 811:./inc/core_cm3.h **** 
 812:./inc/core_cm3.h **** #define CoreDebug_DEMCR_VC_HARDERR_Pos     10                                             /*!< Core
 813:./inc/core_cm3.h **** #define CoreDebug_DEMCR_VC_HARDERR_Msk     (1UL << CoreDebug_DEMCR_VC_HARDERR_Pos)        /*!< Core
 814:./inc/core_cm3.h **** 
 815:./inc/core_cm3.h **** #define CoreDebug_DEMCR_VC_INTERR_Pos       9                                             /*!< Core
 816:./inc/core_cm3.h **** #define CoreDebug_DEMCR_VC_INTERR_Msk      (1UL << CoreDebug_DEMCR_VC_INTERR_Pos)         /*!< Core
 817:./inc/core_cm3.h **** 
 818:./inc/core_cm3.h **** #define CoreDebug_DEMCR_VC_BUSERR_Pos       8                                             /*!< Core
 819:./inc/core_cm3.h **** #define CoreDebug_DEMCR_VC_BUSERR_Msk      (1UL << CoreDebug_DEMCR_VC_BUSERR_Pos)         /*!< Core
 820:./inc/core_cm3.h **** 
 821:./inc/core_cm3.h **** #define CoreDebug_DEMCR_VC_STATERR_Pos      7                                             /*!< Core
 822:./inc/core_cm3.h **** #define CoreDebug_DEMCR_VC_STATERR_Msk     (1UL << CoreDebug_DEMCR_VC_STATERR_Pos)        /*!< Core
 823:./inc/core_cm3.h **** 
 824:./inc/core_cm3.h **** #define CoreDebug_DEMCR_VC_CHKERR_Pos       6                                             /*!< Core
 825:./inc/core_cm3.h **** #define CoreDebug_DEMCR_VC_CHKERR_Msk      (1UL << CoreDebug_DEMCR_VC_CHKERR_Pos)         /*!< Core
 826:./inc/core_cm3.h **** 
 827:./inc/core_cm3.h **** #define CoreDebug_DEMCR_VC_NOCPERR_Pos      5                                             /*!< Core
 828:./inc/core_cm3.h **** #define CoreDebug_DEMCR_VC_NOCPERR_Msk     (1UL << CoreDebug_DEMCR_VC_NOCPERR_Pos)        /*!< Core
 829:./inc/core_cm3.h **** 
 830:./inc/core_cm3.h **** #define CoreDebug_DEMCR_VC_MMERR_Pos        4                                             /*!< Core
 831:./inc/core_cm3.h **** #define CoreDebug_DEMCR_VC_MMERR_Msk       (1UL << CoreDebug_DEMCR_VC_MMERR_Pos)          /*!< Core
 832:./inc/core_cm3.h **** 
 833:./inc/core_cm3.h **** #define CoreDebug_DEMCR_VC_CORERESET_Pos    0                                             /*!< Core
 834:./inc/core_cm3.h **** #define CoreDebug_DEMCR_VC_CORERESET_Msk   (1UL << CoreDebug_DEMCR_VC_CORERESET_Pos)      /*!< Core
 835:./inc/core_cm3.h **** 
 836:./inc/core_cm3.h **** /*@} end of group CMSIS_CoreDebug */
 837:./inc/core_cm3.h **** 
 838:./inc/core_cm3.h **** 
 839:./inc/core_cm3.h **** /** \ingroup  CMSIS_core_register
 840:./inc/core_cm3.h ****   @{
 841:./inc/core_cm3.h ****  */
 842:./inc/core_cm3.h **** 
 843:./inc/core_cm3.h **** /* Memory mapping of Cortex-M3 Hardware */
 844:./inc/core_cm3.h **** #define SCS_BASE            (0xE000E000UL)                            /*!< System Control Space Bas
 845:./inc/core_cm3.h **** #define ITM_BASE            (0xE0000000UL)                            /*!< ITM Base Address        
 846:./inc/core_cm3.h **** #define CoreDebug_BASE      (0xE000EDF0UL)                            /*!< Core Debug Base Address 
 847:./inc/core_cm3.h **** #define SysTick_BASE        (SCS_BASE +  0x0010UL)                    /*!< SysTick Base Address    
 848:./inc/core_cm3.h **** #define NVIC_BASE           (SCS_BASE +  0x0100UL)                    /*!< NVIC Base Address       
 849:./inc/core_cm3.h **** #define SCB_BASE            (SCS_BASE +  0x0D00UL)                    /*!< System Control Block Bas
 850:./inc/core_cm3.h **** 
 851:./inc/core_cm3.h **** #define SCnSCB              ((SCnSCB_Type    *)     SCS_BASE      )   /*!< System control Register 
 852:./inc/core_cm3.h **** #define SCB                 ((SCB_Type       *)     SCB_BASE      )   /*!< SCB configuration struct
 853:./inc/core_cm3.h **** #define SysTick             ((SysTick_Type   *)     SysTick_BASE  )   /*!< SysTick configuration st
 854:./inc/core_cm3.h **** #define NVIC                ((NVIC_Type      *)     NVIC_BASE     )   /*!< NVIC configuration struc
 855:./inc/core_cm3.h **** #define ITM                 ((ITM_Type       *)     ITM_BASE      )   /*!< ITM configuration struct
 856:./inc/core_cm3.h **** #define CoreDebug           ((CoreDebug_Type *)     CoreDebug_BASE)   /*!< Core Debug configuration
 857:./inc/core_cm3.h **** 
 858:./inc/core_cm3.h **** #if (__MPU_PRESENT == 1)
 859:./inc/core_cm3.h ****   #define MPU_BASE          (SCS_BASE +  0x0D90UL)                    /*!< Memory Protection Unit  
 860:./inc/core_cm3.h ****   #define MPU               ((MPU_Type       *)     MPU_BASE      )   /*!< Memory Protection Unit  
 861:./inc/core_cm3.h **** #endif
 862:./inc/core_cm3.h **** 
ARM GAS  /tmp/ccc4qMCA.s 			page 19


 863:./inc/core_cm3.h **** /*@} */
 864:./inc/core_cm3.h **** 
 865:./inc/core_cm3.h **** 
 866:./inc/core_cm3.h **** 
 867:./inc/core_cm3.h **** /*******************************************************************************
 868:./inc/core_cm3.h ****  *                Hardware Abstraction Layer
 869:./inc/core_cm3.h ****  ******************************************************************************/
 870:./inc/core_cm3.h **** /** \defgroup CMSIS_Core_FunctionInterface CMSIS Core Function Interface
 871:./inc/core_cm3.h ****   Core Function Interface contains:
 872:./inc/core_cm3.h ****   - Core NVIC Functions
 873:./inc/core_cm3.h ****   - Core SysTick Functions
 874:./inc/core_cm3.h ****   - Core Debug Functions
 875:./inc/core_cm3.h ****   - Core Register Access Functions
 876:./inc/core_cm3.h **** */
 877:./inc/core_cm3.h **** 
 878:./inc/core_cm3.h **** 
 879:./inc/core_cm3.h **** 
 880:./inc/core_cm3.h **** /* ##########################   NVIC functions  #################################### */
 881:./inc/core_cm3.h **** /** \ingroup  CMSIS_Core_FunctionInterface
 882:./inc/core_cm3.h ****     \defgroup CMSIS_Core_NVICFunctions CMSIS Core NVIC Functions
 883:./inc/core_cm3.h ****   @{
 884:./inc/core_cm3.h ****  */
 885:./inc/core_cm3.h **** 
 886:./inc/core_cm3.h **** /** \brief  Set Priority Grouping
 887:./inc/core_cm3.h **** 
 888:./inc/core_cm3.h ****   This function sets the priority grouping field using the required unlock sequence.
 889:./inc/core_cm3.h ****   The parameter PriorityGroup is assigned to the field SCB->AIRCR [10:8] PRIGROUP field.
 890:./inc/core_cm3.h ****   Only values from 0..7 are used.
 891:./inc/core_cm3.h ****   In case of a conflict between priority grouping and available
 892:./inc/core_cm3.h ****   priority bits (__NVIC_PRIO_BITS) the smallest possible priority group is set.
 893:./inc/core_cm3.h **** 
 894:./inc/core_cm3.h ****     \param [in]      PriorityGroup  Priority grouping field
 895:./inc/core_cm3.h ****  */
 896:./inc/core_cm3.h **** static __INLINE void NVIC_SetPriorityGrouping(uint32_t PriorityGroup)
 897:./inc/core_cm3.h **** {
 898:./inc/core_cm3.h ****   uint32_t reg_value;
 899:./inc/core_cm3.h ****   uint32_t PriorityGroupTmp = (PriorityGroup & (uint32_t)0x07);               /* only values 0..7 a
 900:./inc/core_cm3.h **** 
 901:./inc/core_cm3.h ****   reg_value  =  SCB->AIRCR;                                                   /* read old register 
 902:./inc/core_cm3.h ****   reg_value &= ~(SCB_AIRCR_VECTKEY_Msk | SCB_AIRCR_PRIGROUP_Msk);             /* clear bits to chan
 903:./inc/core_cm3.h ****   reg_value  =  (reg_value                                 |
 904:./inc/core_cm3.h ****                 ((uint32_t)0x5FA << SCB_AIRCR_VECTKEY_Pos) |
 905:./inc/core_cm3.h ****                 (PriorityGroupTmp << 8));                                     /* Insert write key a
 906:./inc/core_cm3.h ****   SCB->AIRCR =  reg_value;
 907:./inc/core_cm3.h **** }
 908:./inc/core_cm3.h **** 
 909:./inc/core_cm3.h **** 
 910:./inc/core_cm3.h **** /** \brief  Get Priority Grouping
 911:./inc/core_cm3.h **** 
 912:./inc/core_cm3.h ****   This function gets the priority grouping from NVIC Interrupt Controller.
 913:./inc/core_cm3.h ****   Priority grouping is SCB->AIRCR [10:8] PRIGROUP field.
 914:./inc/core_cm3.h **** 
 915:./inc/core_cm3.h ****     \return                Priority grouping field
 916:./inc/core_cm3.h ****  */
 917:./inc/core_cm3.h **** static __INLINE uint32_t NVIC_GetPriorityGrouping(void)
 918:./inc/core_cm3.h **** {
 919:./inc/core_cm3.h ****   return ((SCB->AIRCR & SCB_AIRCR_PRIGROUP_Msk) >> SCB_AIRCR_PRIGROUP_Pos);   /* read priority grou
ARM GAS  /tmp/ccc4qMCA.s 			page 20


 920:./inc/core_cm3.h **** }
 921:./inc/core_cm3.h **** 
 922:./inc/core_cm3.h **** 
 923:./inc/core_cm3.h **** /** \brief  Enable External Interrupt
 924:./inc/core_cm3.h **** 
 925:./inc/core_cm3.h ****     This function enables a device specific interrupt in the NVIC interrupt controller.
 926:./inc/core_cm3.h ****     The interrupt number cannot be a negative value.
 927:./inc/core_cm3.h **** 
 928:./inc/core_cm3.h ****     \param [in]      IRQn  Number of the external interrupt to enable
 929:./inc/core_cm3.h ****  */
 930:./inc/core_cm3.h **** static __INLINE void NVIC_EnableIRQ(IRQn_Type IRQn)
 931:./inc/core_cm3.h **** {
 932:./inc/core_cm3.h ****   NVIC->ISER[((uint32_t)(IRQn) >> 5)] = (1 << ((uint32_t)(IRQn) & 0x1F)); /* enable interrupt */
 933:./inc/core_cm3.h **** }
 934:./inc/core_cm3.h **** 
 935:./inc/core_cm3.h **** 
 936:./inc/core_cm3.h **** /** \brief  Disable External Interrupt
 937:./inc/core_cm3.h **** 
 938:./inc/core_cm3.h ****     This function disables a device specific interrupt in the NVIC interrupt controller.
 939:./inc/core_cm3.h ****     The interrupt number cannot be a negative value.
 940:./inc/core_cm3.h **** 
 941:./inc/core_cm3.h ****     \param [in]      IRQn  Number of the external interrupt to disable
 942:./inc/core_cm3.h ****  */
 943:./inc/core_cm3.h **** static __INLINE void NVIC_DisableIRQ(IRQn_Type IRQn)
 944:./inc/core_cm3.h **** {
 945:./inc/core_cm3.h ****   NVIC->ICER[((uint32_t)(IRQn) >> 5)] = (1 << ((uint32_t)(IRQn) & 0x1F)); /* disable interrupt */
 946:./inc/core_cm3.h **** }
 947:./inc/core_cm3.h **** 
 948:./inc/core_cm3.h **** 
 949:./inc/core_cm3.h **** /** \brief  Get Pending Interrupt
 950:./inc/core_cm3.h **** 
 951:./inc/core_cm3.h ****     This function reads the pending register in the NVIC and returns the pending bit
 952:./inc/core_cm3.h ****     for the specified interrupt.
 953:./inc/core_cm3.h **** 
 954:./inc/core_cm3.h ****     \param [in]      IRQn  Number of the interrupt for get pending
 955:./inc/core_cm3.h ****     \return             0  Interrupt status is not pending
 956:./inc/core_cm3.h ****     \return             1  Interrupt status is pending
 957:./inc/core_cm3.h ****  */
 958:./inc/core_cm3.h **** static __INLINE uint32_t NVIC_GetPendingIRQ(IRQn_Type IRQn)
 959:./inc/core_cm3.h **** {
 960:./inc/core_cm3.h ****   return((uint32_t) ((NVIC->ISPR[(uint32_t)(IRQn) >> 5] & (1 << ((uint32_t)(IRQn) & 0x1F)))?1:0)); 
 961:./inc/core_cm3.h **** }
 962:./inc/core_cm3.h **** 
 963:./inc/core_cm3.h **** 
 964:./inc/core_cm3.h **** /** \brief  Set Pending Interrupt
 965:./inc/core_cm3.h **** 
 966:./inc/core_cm3.h ****     This function sets the pending bit for the specified interrupt.
 967:./inc/core_cm3.h ****     The interrupt number cannot be a negative value.
 968:./inc/core_cm3.h **** 
 969:./inc/core_cm3.h ****     \param [in]      IRQn  Number of the interrupt for set pending
 970:./inc/core_cm3.h ****  */
 971:./inc/core_cm3.h **** static __INLINE void NVIC_SetPendingIRQ(IRQn_Type IRQn)
 972:./inc/core_cm3.h **** {
 973:./inc/core_cm3.h ****   NVIC->ISPR[((uint32_t)(IRQn) >> 5)] = (1 << ((uint32_t)(IRQn) & 0x1F)); /* set interrupt pending 
 974:./inc/core_cm3.h **** }
 975:./inc/core_cm3.h **** 
 976:./inc/core_cm3.h **** 
ARM GAS  /tmp/ccc4qMCA.s 			page 21


 977:./inc/core_cm3.h **** /** \brief  Clear Pending Interrupt
 978:./inc/core_cm3.h **** 
 979:./inc/core_cm3.h ****     This function clears the pending bit for the specified interrupt.
 980:./inc/core_cm3.h ****     The interrupt number cannot be a negative value.
 981:./inc/core_cm3.h **** 
 982:./inc/core_cm3.h ****     \param [in]      IRQn  Number of the interrupt for clear pending
 983:./inc/core_cm3.h ****  */
 984:./inc/core_cm3.h **** static __INLINE void NVIC_ClearPendingIRQ(IRQn_Type IRQn)
 985:./inc/core_cm3.h **** {
 986:./inc/core_cm3.h ****   NVIC->ICPR[((uint32_t)(IRQn) >> 5)] = (1 << ((uint32_t)(IRQn) & 0x1F)); /* Clear pending interrup
 987:./inc/core_cm3.h **** }
 988:./inc/core_cm3.h **** 
 989:./inc/core_cm3.h **** 
 990:./inc/core_cm3.h **** /** \brief  Get Active Interrupt
 991:./inc/core_cm3.h **** 
 992:./inc/core_cm3.h ****     This function reads the active register in NVIC and returns the active bit.
 993:./inc/core_cm3.h ****     \param [in]      IRQn  Number of the interrupt for get active
 994:./inc/core_cm3.h ****     \return             0  Interrupt status is not active
 995:./inc/core_cm3.h ****     \return             1  Interrupt status is active
 996:./inc/core_cm3.h ****  */
 997:./inc/core_cm3.h **** static __INLINE uint32_t NVIC_GetActive(IRQn_Type IRQn)
 998:./inc/core_cm3.h **** {
 999:./inc/core_cm3.h ****   return((uint32_t)((NVIC->IABR[(uint32_t)(IRQn) >> 5] & (1 << ((uint32_t)(IRQn) & 0x1F)))?1:0)); /
1000:./inc/core_cm3.h **** }
1001:./inc/core_cm3.h **** 
1002:./inc/core_cm3.h **** 
1003:./inc/core_cm3.h **** /** \brief  Set Interrupt Priority
1004:./inc/core_cm3.h **** 
1005:./inc/core_cm3.h ****     This function sets the priority for the specified interrupt. The interrupt
1006:./inc/core_cm3.h ****     number can be positive to specify an external (device specific)
1007:./inc/core_cm3.h ****     interrupt, or negative to specify an internal (core) interrupt.
1008:./inc/core_cm3.h **** 
1009:./inc/core_cm3.h ****     Note: The priority cannot be set for every core interrupt.
1010:./inc/core_cm3.h **** 
1011:./inc/core_cm3.h ****     \param [in]      IRQn  Number of the interrupt for set priority
1012:./inc/core_cm3.h ****     \param [in]  priority  Priority to set
1013:./inc/core_cm3.h ****  */
1014:./inc/core_cm3.h **** static __INLINE void NVIC_SetPriority(IRQn_Type IRQn, uint32_t priority)
1015:./inc/core_cm3.h **** {
1016:./inc/core_cm3.h ****   if(IRQn < 0) {
1017:./inc/core_cm3.h ****     SCB->SHP[((uint32_t)(IRQn) & 0xF)-4] = ((priority << (8 - __NVIC_PRIO_BITS)) & 0xff); } /* set 
1018:./inc/core_cm3.h ****   else {
1019:./inc/core_cm3.h ****     NVIC->IP[(uint32_t)(IRQn)] = ((priority << (8 - __NVIC_PRIO_BITS)) & 0xff);    }        /* set 
 115              		.loc 2 1019 0
 116 0028 0948     		ldr	r0, .L2+12	@ tmp161,
 117              	.LBE7:
 118              	.LBE6:
 119              		.loc 1 47 0
 120 002a 2385     		strh	r3, [r4, #40]	@ movhi	@ D.6290, MEM[(struct TIM_TypeDef *)1073745920B].PSC
  48:peripherals/helper.cpp **** 	TIM6->ARR = 0xFFFF;						// max autoreload
 121              		.loc 1 48 0
 122 002c 4FF6FF72 		movw	r2, #65535	@ tmp154,
 123              	.LBB10:
 124              	.LBB8:
 125              		.loc 2 1019 0
 126 0030 A021     		movs	r1, #160	@ tmp162,
 127              	.LBE8:
ARM GAS  /tmp/ccc4qMCA.s 			page 22


 128              	.LBE10:
 129              	.LBB11:
 130              	.LBB12:
 932:./inc/core_cm3.h ****   NVIC->ISER[((uint32_t)(IRQn) >> 5)] = (1 << ((uint32_t)(IRQn) & 0x1F)); /* enable interrupt */
 131              		.loc 2 932 0
 132 0032 4FF40063 		mov	r3, #2048	@ tmp165,
 133              	.LBE12:
 134              	.LBE11:
 135              		.loc 1 48 0
 136 0036 E262     		str	r2, [r4, #44]	@ tmp154, MEM[(struct TIM_TypeDef *)1073745920B].ARR
  49:peripherals/helper.cpp **** 	TIM6->DIER = TIM_DIER_UIE;				// enable update interrupt
 137              		.loc 1 49 0
 138 0038 A581     		strh	r5, [r4, #12]	@ movhi	@ tmp141, MEM[(struct TIM_TypeDef *)1073745920B].DIER
  50:peripherals/helper.cpp **** 	TIM6->CR1 = TIM_CR1_CEN;				// enable ARR buffering, enable timer
 139              		.loc 1 50 0
 140 003a 2580     		strh	r5, [r4, #0]	@ movhi	@ tmp141, MEM[(struct TIM_TypeDef *)1073745920B].CR1
 141              	.LVL1:
 142              	.LBB14:
 143              	.LBB9:
 144              		.loc 2 1019 0
 145 003c 80F82B13 		strb	r1, [r0, #811]	@ tmp162, MEM[(struct NVIC_Type *)3758153984B].IP
 146              	.LVL2:
 147              	.LBE9:
 148              	.LBE14:
 149              	.LBB15:
 150              	.LBB13:
 932:./inc/core_cm3.h ****   NVIC->ISER[((uint32_t)(IRQn) >> 5)] = (1 << ((uint32_t)(IRQn) & 0x1F)); /* enable interrupt */
 151              		.loc 2 932 0
 152 0040 4360     		str	r3, [r0, #4]	@ tmp165, MEM[(struct NVIC_Type *)3758153984B].ISER
 153 0042 38BD     		pop	{r3, r4, r5, pc}	@
 154              	.L3:
 155              		.align	2
 156              	.L2:
 157 0044 90044742 		.word	1111950480
 158 0048 002004E0 		.word	-536600576
 159 004c 00100040 		.word	1073745920
 160 0050 00E100E0 		.word	-536813312
 161              	.LBE13:
 162              	.LBE15:
 163              		.cfi_endproc
 164              	.LFE55:
 165              		.size	configureTimerForRuntimestats, .-configureTimerForRuntimestats
 166              		.section	.text.TIM6_IRQHandler,"ax",%progbits
 167              		.align	1
 168              		.global	TIM6_IRQHandler
 169              		.thumb
 170              		.thumb_func
 171              		.type	TIM6_IRQHandler, %function
 172              	TIM6_IRQHandler:
 173              	.LFB56:
  51:peripherals/helper.cpp **** 
  52:peripherals/helper.cpp **** 	NVIC_SetPriority(TIM6_IRQn, TIM6_IRQ_PRIORITY);
  53:peripherals/helper.cpp **** 	NVIC_EnableIRQ(TIM6_IRQn);
  54:peripherals/helper.cpp **** }
  55:peripherals/helper.cpp **** 
  56:peripherals/helper.cpp **** /*-------------------------------------------------------------------------------------------------
  57:peripherals/helper.cpp **** | ISRs
ARM GAS  /tmp/ccc4qMCA.s 			page 23


  58:peripherals/helper.cpp **** +--------------------------------------------------------------------------------------------------
  59:peripherals/helper.cpp **** 
  60:peripherals/helper.cpp **** /**
  61:peripherals/helper.cpp ****  * \brief TIM6_IRQHandler
  62:peripherals/helper.cpp ****  *
  63:peripherals/helper.cpp ****  * TIM6_IRQHandler
  64:peripherals/helper.cpp ****  */
  65:peripherals/helper.cpp **** 
  66:peripherals/helper.cpp **** extern "C" void TIM6_IRQHandler(void) __attribute__ ((interrupt));
  67:peripherals/helper.cpp **** void TIM6_IRQHandler(void)
  68:peripherals/helper.cpp **** {
 174              		.loc 1 68 0
 175              		.cfi_startproc
 176              		@ Stack Align: May be called with mis-aligned SP.
 177              		@ args = 0, pretend = 0, frame = 0
 178              		@ frame_needed = 0, uses_anonymous_args = 0
  69:peripherals/helper.cpp **** 	tim6OverflowCount++;
 179              		.loc 1 69 0
 180 0000 084B     		ldr	r3, .L5	@ tmp136,
  68:peripherals/helper.cpp **** {
 181              		.loc 1 68 0
 182 0002 6846     		mov	r0, sp	@,
 183              		.cfi_register 13, 0
 184              		.loc 1 69 0
 185 0004 1A88     		ldrh	r2, [r3, #0]	@, tim6OverflowCount
  68:peripherals/helper.cpp **** {
 186              		.loc 1 68 0
 187 0006 20F00701 		bic	r1, r0, #7	@,,
 188 000a 8D46     		mov	sp, r1	@,
 189 000c 01B5     		push	{r0, lr}	@
 190              	.LCFI1:
 191              		.cfi_def_cfa_offset 8
 192              		.cfi_offset 13, -8
 193              		.cfi_offset 14, -4
 194              		.loc 1 69 0
 195 000e 501C     		adds	r0, r2, #1	@ tmp138, tim6OverflowCount,
 196 0010 81B2     		uxth	r1, r0	@ tim6OverflowCount.1, tmp138
 197 0012 1980     		strh	r1, [r3, #0]	@ movhi	@ tim6OverflowCount.1, tim6OverflowCount
  70:peripherals/helper.cpp **** 
  71:peripherals/helper.cpp **** 	TIM6->SR = 0;							// clear UIF which is only bit in this register
 198              		.loc 1 71 0
 199 0014 044B     		ldr	r3, .L5+4	@ tmp141,
 200 0016 0022     		movs	r2, #0	@ tmp143,
 201 0018 1A82     		strh	r2, [r3, #16]	@ movhi	@ tmp143, MEM[(struct TIM_TypeDef *)1073745920B].SR
  72:peripherals/helper.cpp **** }
 202              		.loc 1 72 0
 203 001a BDE80140 		pop	{r0, lr}
 204 001e 8546     		mov	sp, r0
 205 0020 7047     		bx	lr
 206              	.L6:
 207 0022 00BF     		.align	2
 208              	.L5:
 209 0024 00000000 		.word	.LANCHOR0
 210 0028 00100040 		.word	1073745920
 211              		.cfi_endproc
 212              	.LFE56:
 213              		.size	TIM6_IRQHandler, .-TIM6_IRQHandler
ARM GAS  /tmp/ccc4qMCA.s 			page 24


 214              		.global	tim6OverflowCount
 215              		.section	.bss.tim6OverflowCount,"aw",%nobits
 216              		.align	1
 217              		.set	.LANCHOR0,. + 0
 218              		.type	tim6OverflowCount, %object
 219              		.size	tim6OverflowCount, 2
 220              	tim6OverflowCount:
 221 0000 0000     		.space	2
 222              		.text
 223              	.Letext0:
 224              		.file 3 "/home/maciek/gcc-arm-none-eabi/gcc-arm-none-eabi-4_7-2013q1/bin/../lib/gcc/arm-none-eabi/
 225              		.file 4 "./inc/stm32l1xx.h"
 226              		.file 5 "peripherals/rcc.h"