ARM GAS  C:\Users\Adrian\AppData\Local\Temp\ccz0T8C7.s 			page 1


   1              		.syntax unified
   2              		.cpu cortex-m3
   3              		.fpu softvfp
   4              		.eabi_attribute 20, 1	@ Tag_ABI_FP_denormal
   5              		.eabi_attribute 21, 1	@ Tag_ABI_FP_exceptions
   6              		.eabi_attribute 23, 3	@ Tag_ABI_FP_number_model
   7              		.eabi_attribute 24, 1	@ Tag_ABI_align8_needed
   8              		.eabi_attribute 25, 1	@ Tag_ABI_align8_preserved
   9              		.eabi_attribute 26, 1	@ Tag_ABI_enum_size
  10              		.eabi_attribute 30, 6	@ Tag_ABI_optimization_goals
  11              		.eabi_attribute 34, 1	@ Tag_CPU_unaligned_access
  12              		.eabi_attribute 18, 4	@ Tag_ABI_PCS_wchar_t
  13              		.file	"i2c.cpp"
  14              	@ GNU C++ (GNU Tools for ARM Embedded Processors) version 4.8.4 20140526 (release) [ARM/embedded-4_
  15              	@	compiled by GNU C version 4.6.4, GMP version 4.3.2, MPFR version 2.4.2, MPC version 0.8.1
  16              	@ GGC heuristics: --param ggc-min-expand=100 --param ggc-min-heapsize=131072
  17              	@ options passed:  -I . -I inc -I FreeRTOS/include
  18              	@ -I FreeRTOS/portable/GCC/ARM_CM3 -I FatFS -I peripherals -I configuration
  19              	@ -I drivers -I application -imultilib armv7-m
  20              	@ -iprefix d:\programy\gnu tools arm embedded\4.8 2014q2\bin\../lib/gcc/arm-none-eabi/4.8.4/
  21              	@ -isysroot d:\programy\gnu tools arm embedded\4.8 2014q2\bin\../arm-none-eabi
  22              	@ -MD out/i2c.d -MF out/i2c.d -MP -MQ out/i2c.o -D__USES_INITFINI__
  23              	@ -D STM32L1XX_MD peripherals/i2c.cpp -mcpu=cortex-m3 -mthumb
  24              	@ -auxbase-strip out/i2c.o -g -ggdb3 -O0 -Wall -Wextra -std=gnu++11
  25              	@ -ffunction-sections -fdata-sections -fno-rtti -fno-exceptions
  26              	@ -fverbose-asm
  27              	@ options enabled:  -faggressive-loop-optimizations -fauto-inc-dec
  28              	@ -fbranch-count-reg -fcommon -fdata-sections -fdelete-null-pointer-checks
  29              	@ -fdwarf2-cfi-asm -fearly-inlining -feliminate-unused-debug-types
  30              	@ -ffunction-cse -ffunction-sections -fgcse-lm -fgnu-runtime -fident
  31              	@ -finline-atomics -fira-hoist-pressure -fira-share-save-slots
  32              	@ -fira-share-spill-slots -fivopts -fkeep-static-consts
  33              	@ -fleading-underscore -fmath-errno -fmerge-debug-strings
  34              	@ -fmove-loop-invariants -fpeephole -fprefetch-loop-arrays
  35              	@ -freg-struct-return -fsched-critical-path-heuristic
  36              	@ -fsched-dep-count-heuristic -fsched-group-heuristic -fsched-interblock
  37              	@ -fsched-last-insn-heuristic -fsched-rank-heuristic -fsched-spec
  38              	@ -fsched-spec-insn-heuristic -fsched-stalled-insns-dep -fshow-column
  39              	@ -fsigned-zeros -fsplit-ivs-in-unroller -fstrict-volatile-bitfields
  40              	@ -fsync-libcalls -ftrapping-math -ftree-coalesce-vars -ftree-cselim
  41              	@ -ftree-forwprop -ftree-loop-if-convert -ftree-loop-im -ftree-loop-ivcanon
  42              	@ -ftree-loop-optimize -ftree-parallelize-loops= -ftree-phiprop -ftree-pta
  43              	@ -ftree-reassoc -ftree-scev-cprop -ftree-slp-vectorize
  44              	@ -ftree-vect-loop-version -funit-at-a-time -fverbose-asm
  45              	@ -fzero-initialized-in-bss -mfix-cortex-m3-ldrd -mlittle-endian
  46              	@ -mpic-data-is-text-relative -msched-prolog -mthumb -munaligned-access
  47              	@ -mvectorize-with-neon-quad
  48              	
  49              		.text
  50              	.Ltext0:
  51              		.cfi_sections	.debug_frame
  52              		.section	.text._Z13i2cInitializev,"ax",%progbits
  53              		.align	2
  54              		.global	_Z13i2cInitializev
  55              		.thumb
  56              		.thumb_func
  57              		.type	_Z13i2cInitializev, %function
ARM GAS  C:\Users\Adrian\AppData\Local\Temp\ccz0T8C7.s 			page 2


  58              	_Z13i2cInitializev:
  59              	.LFB55:
  60              		.file 1 "peripherals/i2c.cpp"
   1:peripherals/i2c.cpp **** /**
   2:peripherals/i2c.cpp ****  * \file i2c.cpp
   3:peripherals/i2c.cpp ****  * \brief I2C driver
   4:peripherals/i2c.cpp ****  *
   5:peripherals/i2c.cpp ****  * Functions for I2C control
   6:peripherals/i2c.cpp ****  *
   7:peripherals/i2c.cpp ****  * chip: STM32L1xx; prefix: i2c
   8:peripherals/i2c.cpp ****  *
   9:peripherals/i2c.cpp ****  * \author Freddie Chopin, http://www.freddiechopin.info http://www.distortec.com
  10:peripherals/i2c.cpp ****  * \date 2012-09-06
  11:peripherals/i2c.cpp ****  */
  12:peripherals/i2c.cpp **** 
  13:peripherals/i2c.cpp **** #include <stdint.h>
  14:peripherals/i2c.cpp **** 
  15:peripherals/i2c.cpp **** #include "inc/stm32l1xx.h"
  16:peripherals/i2c.cpp **** 
  17:peripherals/i2c.cpp **** #include "hdr/hdr_rcc.h"
  18:peripherals/i2c.cpp **** #include "hdr/hdr_i2c.h"
  19:peripherals/i2c.cpp **** 
  20:peripherals/i2c.cpp **** #include "config.h"
  21:peripherals/i2c.cpp **** 
  22:peripherals/i2c.cpp **** #include "i2c.h"
  23:peripherals/i2c.cpp **** #include "gpio.h"
  24:peripherals/i2c.cpp **** #include "rcc.h"
  25:peripherals/i2c.cpp **** 
  26:peripherals/i2c.cpp **** /*-------------------------------------------------------------------------------------------------
  27:peripherals/i2c.cpp **** | global functions
  28:peripherals/i2c.cpp **** +--------------------------------------------------------------------------------------------------
  29:peripherals/i2c.cpp **** 
  30:peripherals/i2c.cpp **** /**
  31:peripherals/i2c.cpp ****  * \brief Initializes I2C module
  32:peripherals/i2c.cpp ****  *
  33:peripherals/i2c.cpp ****  * Configures I/Os of I2C, enable clock for I2C module and configures it.
  34:peripherals/i2c.cpp ****  */
  35:peripherals/i2c.cpp **** 
  36:peripherals/i2c.cpp **** void i2cInitialize(void)
  37:peripherals/i2c.cpp **** {
  61              		.loc 1 37 0
  62              		.cfi_startproc
  63              		@ args = 0, pretend = 0, frame = 8
  64              		@ frame_needed = 1, uses_anonymous_args = 0
  65 0000 80B5     		push	{r7, lr}	@
  66              		.cfi_def_cfa_offset 8
  67              		.cfi_offset 7, -8
  68              		.cfi_offset 14, -4
  69 0002 82B0     		sub	sp, sp, #8	@,,
  70              		.cfi_def_cfa_offset 16
  71 0004 00AF     		add	r7, sp, #0	@,,
  72              		.cfi_def_cfa_register 7
  73              	.LBB2:
  38:peripherals/i2c.cpp **** 	gpioConfigurePin(I2Cx_SCL_GPIO, I2Cx_SCL_PIN, I2Cx_SCL_CONFIGURATION);
  74              		.loc 1 38 0
  75 0006 1B48     		ldr	r0, .L2	@,
  76 0008 0621     		movs	r1, #6	@,
ARM GAS  C:\Users\Adrian\AppData\Local\Temp\ccz0T8C7.s 			page 3


  77 000a 1B4A     		ldr	r2, .L2+4	@,
  78 000c FFF7FEFF 		bl	_Z16gpioConfigurePinP12GPIO_TypeDef7GpioPin17GpioConfiguration	@
  39:peripherals/i2c.cpp **** 	gpioConfigurePin(I2Cx_SDA_GPIO, I2Cx_SDA_PIN, I2Cx_SDA_CONFIGURATION);
  79              		.loc 1 39 0
  80 0010 1848     		ldr	r0, .L2	@,
  81 0012 0721     		movs	r1, #7	@,
  82 0014 184A     		ldr	r2, .L2+4	@,
  83 0016 FFF7FEFF 		bl	_Z16gpioConfigurePinP12GPIO_TypeDef7GpioPin17GpioConfiguration	@
  40:peripherals/i2c.cpp **** 
  41:peripherals/i2c.cpp **** 	RCC_APBxENR_I2CxEN_bb = 1;				// enable clock for I2C module
  84              		.loc 1 41 0
  85 001a 184B     		ldr	r3, .L2+8	@ D.6002,
  86 001c 0122     		movs	r2, #1	@ tmp124,
  87 001e 1A60     		str	r2, [r3]	@ tmp124, *_1
  42:peripherals/i2c.cpp **** 
  43:peripherals/i2c.cpp **** 	uint32_t frequency = rccGetCoreFrequency();
  88              		.loc 1 43 0
  89 0020 FFF7FEFF 		bl	rccGetCoreFrequency	@
  90 0024 7860     		str	r0, [r7, #4]	@, frequency
  44:peripherals/i2c.cpp **** 
  45:peripherals/i2c.cpp **** 	I2Cx_CR1_SWRST_bb(I2Cx) = 1;			// force software reset of I2C peripheral
  91              		.loc 1 45 0
  92 0026 164B     		ldr	r3, .L2+12	@ D.6002,
  93 0028 0122     		movs	r2, #1	@ tmp125,
  94 002a 1A60     		str	r2, [r3]	@ tmp125, *_3
  46:peripherals/i2c.cpp **** 	I2Cx_CR1_SWRST_bb(I2Cx) = 0;
  95              		.loc 1 46 0
  96 002c 144B     		ldr	r3, .L2+12	@ D.6002,
  97 002e 0022     		movs	r2, #0	@ tmp126,
  98 0030 1A60     		str	r2, [r3]	@ tmp126, *_4
  47:peripherals/i2c.cpp **** 
  48:peripherals/i2c.cpp **** 	I2Cx->TRISE = frequency / 1000000 + 1;	// limit slope (standard mode)
  99              		.loc 1 48 0
 100 0032 144B     		ldr	r3, .L2+16	@ D.6003,
 101 0034 7968     		ldr	r1, [r7, #4]	@ tmp127, frequency
 102 0036 144A     		ldr	r2, .L2+20	@ tmp129,
 103 0038 A2FB0102 		umull	r0, r2, r2, r1	@, tmp128, tmp129, tmp127
 104 003c 920C     		lsrs	r2, r2, #18	@ D.6004, tmp128,
 105 003e 92B2     		uxth	r2, r2	@ D.6005, D.6004
 106 0040 0132     		adds	r2, r2, #1	@ tmp130, D.6005,
 107 0042 92B2     		uxth	r2, r2	@ D.6005, tmp130
 108 0044 1A84     		strh	r2, [r3, #32]	@ movhi	@ tmp131, _5->TRISE
  49:peripherals/i2c.cpp **** 	I2Cx->CCR = frequency / I2C_FREQUENCY / 2;	// setup clock
 109              		.loc 1 49 0
 110 0046 0F4B     		ldr	r3, .L2+16	@ D.6003,
 111 0048 7A68     		ldr	r2, [r7, #4]	@ tmp132, frequency
 112 004a 9109     		lsrs	r1, r2, #6	@ tmp133, tmp132,
 113 004c 0F4A     		ldr	r2, .L2+24	@ tmp135,
 114 004e A2FB0102 		umull	r0, r2, r2, r1	@, tmp134, tmp135, tmp133
 115 0052 9209     		lsrs	r2, r2, #6	@ D.6004, tmp134,
 116 0054 92B2     		uxth	r2, r2	@ D.6005, D.6004
 117 0056 9A83     		strh	r2, [r3, #28]	@ movhi	@ tmp136, _9->CCR
  50:peripherals/i2c.cpp **** 	I2Cx->CR2 = (frequency / 1000000) << I2C_CR2_FREQ_bit;	// config I2C module's frequency
 118              		.loc 1 50 0
 119 0058 0A4B     		ldr	r3, .L2+16	@ D.6003,
 120 005a 7968     		ldr	r1, [r7, #4]	@ tmp137, frequency
 121 005c 0A4A     		ldr	r2, .L2+20	@ tmp139,
ARM GAS  C:\Users\Adrian\AppData\Local\Temp\ccz0T8C7.s 			page 4


 122 005e A2FB0102 		umull	r0, r2, r2, r1	@, tmp138, tmp139, tmp137
 123 0062 920C     		lsrs	r2, r2, #18	@ D.6004, tmp138,
 124 0064 92B2     		uxth	r2, r2	@ D.6005, D.6004
 125 0066 9A80     		strh	r2, [r3, #4]	@ movhi	@ tmp140, _12->CR2
  51:peripherals/i2c.cpp **** 	I2Cx_CR1_PE_bb(I2Cx) = 1;				// enable peripheral
 126              		.loc 1 51 0
 127 0068 094B     		ldr	r3, .L2+28	@ D.6002,
 128 006a 0122     		movs	r2, #1	@ tmp141,
 129 006c 1A60     		str	r2, [r3]	@ tmp141, *_15
 130              	.LBE2:
  52:peripherals/i2c.cpp **** }
 131              		.loc 1 52 0
 132 006e 0837     		adds	r7, r7, #8	@,,
 133 0070 BD46     		mov	sp, r7	@,
 134              		@ sp needed	@
 135 0072 80BD     		pop	{r7, pc}	@
 136              	.L3:
 137              		.align	2
 138              	.L2:
 139 0074 00040240 		.word	1073873920
 140 0078 12030400 		.word	262930
 141 007c D4044742 		.word	1111950548
 142 0080 3C800A42 		.word	1107984444
 143 0084 00540040 		.word	1073763328
 144 0088 83DE1B43 		.word	1125899907
 145 008c 632D3E05 		.word	87960931
 146 0090 00800A42 		.word	1107984384
 147              		.cfi_endproc
 148              	.LFE55:
 149              		.size	_Z13i2cInitializev, .-_Z13i2cInitializev
 150              		.section	.text._Z7i2cReadhPhj,"ax",%progbits
 151              		.align	2
 152              		.global	_Z7i2cReadhPhj
 153              		.thumb
 154              		.thumb_func
 155              		.type	_Z7i2cReadhPhj, %function
 156              	_Z7i2cReadhPhj:
 157              	.LFB56:
  53:peripherals/i2c.cpp **** 
  54:peripherals/i2c.cpp **** /**
  55:peripherals/i2c.cpp ****  * \brief Reads a block of data from I2C.
  56:peripherals/i2c.cpp ****  *
  57:peripherals/i2c.cpp ****  * Reads a block of data from I2C.
  58:peripherals/i2c.cpp ****  *
  59:peripherals/i2c.cpp ****  * \param [in] address is the address of the slave chip
  60:peripherals/i2c.cpp ****  * \param [in] data points to buffer for data that will be read
  61:peripherals/i2c.cpp ****  * \param [in] length is the length of the data block to be received
  62:peripherals/i2c.cpp ****  *
  63:peripherals/i2c.cpp ****  * \return pointer to received data block (data)
  64:peripherals/i2c.cpp ****  */
  65:peripherals/i2c.cpp **** 
  66:peripherals/i2c.cpp **** uint8_t* i2cRead(uint8_t address, uint8_t *data, size_t length)
  67:peripherals/i2c.cpp **** {
 158              		.loc 1 67 0
 159              		.cfi_startproc
 160              		@ args = 0, pretend = 0, frame = 24
 161              		@ frame_needed = 1, uses_anonymous_args = 0
ARM GAS  C:\Users\Adrian\AppData\Local\Temp\ccz0T8C7.s 			page 5


 162              		@ link register save eliminated.
 163 0000 80B4     		push	{r7}	@
 164              		.cfi_def_cfa_offset 4
 165              		.cfi_offset 7, -4
 166 0002 87B0     		sub	sp, sp, #28	@,,
 167              		.cfi_def_cfa_offset 32
 168 0004 00AF     		add	r7, sp, #0	@,,
 169              		.cfi_def_cfa_register 7
 170 0006 0346     		mov	r3, r0	@ tmp141, address
 171 0008 B960     		str	r1, [r7, #8]	@ data, data
 172 000a 7A60     		str	r2, [r7, #4]	@ length, length
 173 000c FB73     		strb	r3, [r7, #15]	@ tmp142, address
 174              	.LBB3:
  68:peripherals/i2c.cpp **** 	uint8_t *data_copy = data;
 175              		.loc 1 68 0
 176 000e BB68     		ldr	r3, [r7, #8]	@ tmp143, data
 177 0010 7B61     		str	r3, [r7, #20]	@ tmp143, data_copy
  69:peripherals/i2c.cpp **** 
  70:peripherals/i2c.cpp **** 	I2Cx_CR1_START_bb(I2Cx) = 1;			// request a start
 178              		.loc 1 70 0
 179 0012 2A4B     		ldr	r3, .L11	@ D.6006,
 180 0014 0122     		movs	r2, #1	@ tmp144,
 181 0016 1A60     		str	r2, [r3]	@ tmp144, *_5
  71:peripherals/i2c.cpp **** 	while (I2Cx_SR1_SB_bb(I2Cx) == 0);		// wait for start to finish
 182              		.loc 1 71 0
 183 0018 00BF     		nop
 184              	.L5:
 185              		.loc 1 71 0 is_stmt 0 discriminator 1
 186 001a 294B     		ldr	r3, .L11+4	@ D.6006,
 187 001c 1B68     		ldr	r3, [r3]	@ D.6007, *_6
 188 001e 002B     		cmp	r3, #0	@ D.6007,
 189 0020 14BF     		ite	ne	@
 190 0022 0023     		movne	r3, #0	@, tmp146
 191 0024 0123     		moveq	r3, #1	@, tmp146
 192 0026 DBB2     		uxtb	r3, r3	@ retval.0, tmp145
 193 0028 002B     		cmp	r3, #0	@ retval.0,
 194 002a F6D1     		bne	.L5	@,
  72:peripherals/i2c.cpp **** 	I2Cx->SR1;								// read of SR1 clears the flag
 195              		.loc 1 72 0 is_stmt 1
 196 002c 254B     		ldr	r3, .L11+8	@ D.6008,
 197 002e 9B8A     		ldrh	r3, [r3, #20]	@ movhi	@ tmp148, _9->SR1
  73:peripherals/i2c.cpp **** 	address = address << 1;
 198              		.loc 1 73 0
 199 0030 FB7B     		ldrb	r3, [r7, #15]	@ tmp149, address
 200 0032 5B00     		lsls	r3, r3, #1	@ tmp150, tmp149,
 201 0034 FB73     		strb	r3, [r7, #15]	@ tmp151, address
  74:peripherals/i2c.cpp **** 	I2Cx->DR = address | 1;					// transfer address (LSB set - read)
 202              		.loc 1 74 0
 203 0036 234B     		ldr	r3, .L11+8	@ D.6008,
 204 0038 FA7B     		ldrb	r2, [r7, #15]	@ tmp152, address
 205 003a 42F00102 		orr	r2, r2, #1	@ tmp153, tmp152,
 206 003e D2B2     		uxtb	r2, r2	@ D.6009, tmp153
 207 0040 1A82     		strh	r2, [r3, #16]	@ movhi	@ tmp154, _13->DR
  75:peripherals/i2c.cpp **** 	while (I2Cx_SR1_ADDR_bb(I2Cx) == 0);	// wait for address transfer
 208              		.loc 1 75 0
 209 0042 00BF     		nop
 210              	.L6:
ARM GAS  C:\Users\Adrian\AppData\Local\Temp\ccz0T8C7.s 			page 6


 211              		.loc 1 75 0 is_stmt 0 discriminator 1
 212 0044 204B     		ldr	r3, .L11+12	@ D.6006,
 213 0046 1B68     		ldr	r3, [r3]	@ D.6007, *_16
 214 0048 002B     		cmp	r3, #0	@ D.6007,
 215 004a 14BF     		ite	ne	@
 216 004c 0023     		movne	r3, #0	@, tmp156
 217 004e 0123     		moveq	r3, #1	@, tmp156
 218 0050 DBB2     		uxtb	r3, r3	@ retval.2, tmp155
 219 0052 002B     		cmp	r3, #0	@ retval.2,
 220 0054 F6D1     		bne	.L6	@,
  76:peripherals/i2c.cpp **** 	I2Cx->SR1;								// clear the flag
 221              		.loc 1 76 0 is_stmt 1
 222 0056 1B4B     		ldr	r3, .L11+8	@ D.6008,
 223 0058 9B8A     		ldrh	r3, [r3, #20]	@ movhi	@ tmp158, _19->SR1
  77:peripherals/i2c.cpp **** 	I2Cx->SR2;
 224              		.loc 1 77 0
 225 005a 1A4B     		ldr	r3, .L11+8	@ D.6008,
 226 005c 1B8B     		ldrh	r3, [r3, #24]	@ movhi	@ tmp160, _21->SR2
  78:peripherals/i2c.cpp **** 
  79:peripherals/i2c.cpp **** 	while (length--)
 227              		.loc 1 79 0
 228 005e 19E0     		b	.L7	@
 229              	.L9:
  80:peripherals/i2c.cpp **** 	{
  81:peripherals/i2c.cpp **** 		I2Cx_CR1_ACK_bb(I2Cx) = (length == 0 ? 0 : 1);	// acknowledge all but last byte
 230              		.loc 1 81 0
 231 0060 1A4B     		ldr	r3, .L11+16	@ D.6006,
 232 0062 7A68     		ldr	r2, [r7, #4]	@ tmp162, length
 233 0064 002A     		cmp	r2, #0	@ tmp162,
 234 0066 0CBF     		ite	eq	@
 235 0068 0022     		moveq	r2, #0	@, tmp163
 236 006a 0122     		movne	r2, #1	@, tmp163
 237 006c D2B2     		uxtb	r2, r2	@ D.6011, tmp161
 238 006e 1A60     		str	r2, [r3]	@ D.6007, *_27
  82:peripherals/i2c.cpp **** 
  83:peripherals/i2c.cpp **** 		while (I2Cx_SR1_RxNE_bb(I2Cx) == 0);	// wait for DR not-empty
 239              		.loc 1 83 0
 240 0070 00BF     		nop
 241              	.L8:
 242              		.loc 1 83 0 is_stmt 0 discriminator 1
 243 0072 174B     		ldr	r3, .L11+20	@ D.6006,
 244 0074 1B68     		ldr	r3, [r3]	@ D.6007, *_30
 245 0076 002B     		cmp	r3, #0	@ D.6007,
 246 0078 14BF     		ite	ne	@
 247 007a 0023     		movne	r3, #0	@, tmp165
 248 007c 0123     		moveq	r3, #1	@, tmp165
 249 007e DBB2     		uxtb	r3, r3	@ retval.5, tmp164
 250 0080 002B     		cmp	r3, #0	@ retval.5,
 251 0082 F6D1     		bne	.L8	@,
  84:peripherals/i2c.cpp **** 		*data++ = I2Cx->DR;
 252              		.loc 1 84 0 is_stmt 1
 253 0084 BB68     		ldr	r3, [r7, #8]	@ data.6, data
 254 0086 5A1C     		adds	r2, r3, #1	@ tmp166, data.6,
 255 0088 BA60     		str	r2, [r7, #8]	@ tmp166, data
 256 008a 0E4A     		ldr	r2, .L11+8	@ D.6008,
 257 008c 128A     		ldrh	r2, [r2, #16]	@ movhi	@ tmp168, _35->DR
 258 008e 92B2     		uxth	r2, r2	@ D.6010, tmp168
ARM GAS  C:\Users\Adrian\AppData\Local\Temp\ccz0T8C7.s 			page 7


 259 0090 D2B2     		uxtb	r2, r2	@ D.6009, D.6010
 260 0092 1A70     		strb	r2, [r3]	@ tmp169, *data.6_33
 261              	.L7:
  79:peripherals/i2c.cpp **** 	while (length--)
 262              		.loc 1 79 0 discriminator 1
 263 0094 7B68     		ldr	r3, [r7, #4]	@ length.8, length
 264 0096 5A1E     		subs	r2, r3, #1	@ tmp170, length.8,
 265 0098 7A60     		str	r2, [r7, #4]	@ tmp170, length
 266 009a 002B     		cmp	r3, #0	@ length.8,
 267 009c 0CBF     		ite	eq	@
 268 009e 0023     		moveq	r3, #0	@, tmp172
 269 00a0 0123     		movne	r3, #1	@, tmp172
 270 00a2 DBB2     		uxtb	r3, r3	@ retval.7, tmp171
 271 00a4 002B     		cmp	r3, #0	@ retval.7,
 272 00a6 DBD1     		bne	.L9	@,
  85:peripherals/i2c.cpp **** 	}
  86:peripherals/i2c.cpp **** 
  87:peripherals/i2c.cpp **** 	I2Cx_CR1_STOP_bb(I2Cx) = 1;				// request a stop
 273              		.loc 1 87 0
 274 00a8 0A4B     		ldr	r3, .L11+24	@ D.6006,
 275 00aa 0122     		movs	r2, #1	@ tmp173,
 276 00ac 1A60     		str	r2, [r3]	@ tmp173, *_38
  88:peripherals/i2c.cpp **** 
  89:peripherals/i2c.cpp **** 	return data_copy;
 277              		.loc 1 89 0
 278 00ae 7B69     		ldr	r3, [r7, #20]	@ D.6012, data_copy
 279              	.LBE3:
  90:peripherals/i2c.cpp **** }
 280              		.loc 1 90 0
 281 00b0 1846     		mov	r0, r3	@, <retval>
 282 00b2 1C37     		adds	r7, r7, #28	@,,
 283 00b4 BD46     		mov	sp, r7	@,
 284              		@ sp needed	@
 285 00b6 5DF8047B 		ldr	r7, [sp], #4	@,
 286 00ba 7047     		bx	lr	@
 287              	.L12:
 288              		.align	2
 289              	.L11:
 290 00bc 20800A42 		.word	1107984416
 291 00c0 80820A42 		.word	1107985024
 292 00c4 00540040 		.word	1073763328
 293 00c8 84820A42 		.word	1107985028
 294 00cc 28800A42 		.word	1107984424
 295 00d0 98820A42 		.word	1107985048
 296 00d4 24800A42 		.word	1107984420
 297              		.cfi_endproc
 298              	.LFE56:
 299              		.size	_Z7i2cReadhPhj, .-_Z7i2cReadhPhj
 300              		.section	.text._Z8i2cWritehPKhj,"ax",%progbits
 301              		.align	2
 302              		.global	_Z8i2cWritehPKhj
 303              		.thumb
 304              		.thumb_func
 305              		.type	_Z8i2cWritehPKhj, %function
 306              	_Z8i2cWritehPKhj:
 307              	.LFB57:
  91:peripherals/i2c.cpp **** 
ARM GAS  C:\Users\Adrian\AppData\Local\Temp\ccz0T8C7.s 			page 8


  92:peripherals/i2c.cpp **** /**
  93:peripherals/i2c.cpp ****  * \brief Transfers a block of data through I2C.
  94:peripherals/i2c.cpp ****  *
  95:peripherals/i2c.cpp ****  * Transfers a block of data through I2C.
  96:peripherals/i2c.cpp ****  *
  97:peripherals/i2c.cpp ****  * \param [in] address is the address of the slave chip
  98:peripherals/i2c.cpp ****  * \param [in] data points to data block that will be sent
  99:peripherals/i2c.cpp ****  * \param [in] length is the length of the data block
 100:peripherals/i2c.cpp ****  */
 101:peripherals/i2c.cpp **** 
 102:peripherals/i2c.cpp **** void i2cWrite(uint8_t address, const uint8_t *data, size_t length)
 103:peripherals/i2c.cpp **** {
 308              		.loc 1 103 0
 309              		.cfi_startproc
 310              		@ args = 0, pretend = 0, frame = 16
 311              		@ frame_needed = 1, uses_anonymous_args = 0
 312              		@ link register save eliminated.
 313 0000 80B4     		push	{r7}	@
 314              		.cfi_def_cfa_offset 4
 315              		.cfi_offset 7, -4
 316 0002 85B0     		sub	sp, sp, #20	@,,
 317              		.cfi_def_cfa_offset 24
 318 0004 00AF     		add	r7, sp, #0	@,,
 319              		.cfi_def_cfa_register 7
 320 0006 0346     		mov	r3, r0	@ tmp142, address
 321 0008 B960     		str	r1, [r7, #8]	@ data, data
 322 000a 7A60     		str	r2, [r7, #4]	@ length, length
 323 000c FB73     		strb	r3, [r7, #15]	@ tmp143, address
 104:peripherals/i2c.cpp **** 	I2Cx_CR1_START_bb(I2Cx) = 1;			// request a start
 324              		.loc 1 104 0
 325 000e 2C4B     		ldr	r3, .L23	@ D.6013,
 326 0010 0122     		movs	r2, #1	@ tmp144,
 327 0012 1A60     		str	r2, [r3]	@ tmp144, *_4
 105:peripherals/i2c.cpp **** 	while (I2Cx_SR1_SB_bb(I2Cx) == 0);		// wait for start to finish
 328              		.loc 1 105 0
 329 0014 00BF     		nop
 330              	.L14:
 331              		.loc 1 105 0 is_stmt 0 discriminator 1
 332 0016 2B4B     		ldr	r3, .L23+4	@ D.6013,
 333 0018 1B68     		ldr	r3, [r3]	@ D.6014, *_5
 334 001a 002B     		cmp	r3, #0	@ D.6014,
 335 001c 14BF     		ite	ne	@
 336 001e 0023     		movne	r3, #0	@, tmp146
 337 0020 0123     		moveq	r3, #1	@, tmp146
 338 0022 DBB2     		uxtb	r3, r3	@ retval.9, tmp145
 339 0024 002B     		cmp	r3, #0	@ retval.9,
 340 0026 F6D1     		bne	.L14	@,
 106:peripherals/i2c.cpp **** 	I2Cx->SR1;								// read of SR1 clears the flag
 341              		.loc 1 106 0 is_stmt 1
 342 0028 274B     		ldr	r3, .L23+8	@ D.6015,
 343 002a 9B8A     		ldrh	r3, [r3, #20]	@ movhi	@ tmp148, _8->SR1
 107:peripherals/i2c.cpp **** 	address = address << 1;
 344              		.loc 1 107 0
 345 002c FB7B     		ldrb	r3, [r7, #15]	@ tmp149, address
 346 002e 5B00     		lsls	r3, r3, #1	@ tmp150, tmp149,
 347 0030 FB73     		strb	r3, [r7, #15]	@ tmp151, address
 108:peripherals/i2c.cpp **** 	I2Cx->DR = (address & ~1);				// transfer address (LSB cleared - write)
ARM GAS  C:\Users\Adrian\AppData\Local\Temp\ccz0T8C7.s 			page 9


 348              		.loc 1 108 0
 349 0032 254B     		ldr	r3, .L23+8	@ D.6015,
 350 0034 FA7B     		ldrb	r2, [r7, #15]	@ zero_extendqisi2	@ tmp153, address
 351 0036 92B2     		uxth	r2, r2	@ D.6016, tmp152
 352 0038 22F00102 		bic	r2, r2, #1	@ tmp154, D.6016,
 353 003c 92B2     		uxth	r2, r2	@ D.6016, tmp154
 354 003e 1A82     		strh	r2, [r3, #16]	@ movhi	@ tmp155, _12->DR
 109:peripherals/i2c.cpp **** 	while (I2Cx_SR1_ADDR_bb(I2Cx) == 0);	// wait for address transfer
 355              		.loc 1 109 0
 356 0040 00BF     		nop
 357              	.L15:
 358              		.loc 1 109 0 is_stmt 0 discriminator 1
 359 0042 224B     		ldr	r3, .L23+12	@ D.6013,
 360 0044 1B68     		ldr	r3, [r3]	@ D.6014, *_15
 361 0046 002B     		cmp	r3, #0	@ D.6014,
 362 0048 14BF     		ite	ne	@
 363 004a 0023     		movne	r3, #0	@, tmp157
 364 004c 0123     		moveq	r3, #1	@, tmp157
 365 004e DBB2     		uxtb	r3, r3	@ retval.11, tmp156
 366 0050 002B     		cmp	r3, #0	@ retval.11,
 367 0052 F6D1     		bne	.L15	@,
 110:peripherals/i2c.cpp **** 	I2Cx->SR1;								// clear the flag
 368              		.loc 1 110 0 is_stmt 1
 369 0054 1C4B     		ldr	r3, .L23+8	@ D.6015,
 370 0056 9B8A     		ldrh	r3, [r3, #20]	@ movhi	@ tmp159, _18->SR1
 111:peripherals/i2c.cpp **** 	I2Cx->SR2;
 371              		.loc 1 111 0
 372 0058 1B4B     		ldr	r3, .L23+8	@ D.6015,
 373 005a 1B8B     		ldrh	r3, [r3, #24]	@ movhi	@ tmp161, _20->SR2
 112:peripherals/i2c.cpp **** 
 113:peripherals/i2c.cpp **** 	while (length--)
 374              		.loc 1 113 0
 375 005c 0FE0     		b	.L16	@
 376              	.L18:
 114:peripherals/i2c.cpp **** 	{
 115:peripherals/i2c.cpp **** 		while (I2Cx_SR1_TxE_bb(I2Cx) == 0);	// wait for DR empty
 377              		.loc 1 115 0
 378 005e 00BF     		nop
 379              	.L17:
 380              		.loc 1 115 0 is_stmt 0 discriminator 1
 381 0060 1B4B     		ldr	r3, .L23+16	@ D.6013,
 382 0062 1B68     		ldr	r3, [r3]	@ D.6014, *_27
 383 0064 002B     		cmp	r3, #0	@ D.6014,
 384 0066 14BF     		ite	ne	@
 385 0068 0023     		movne	r3, #0	@, tmp163
 386 006a 0123     		moveq	r3, #1	@, tmp163
 387 006c DBB2     		uxtb	r3, r3	@ retval.14, tmp162
 388 006e 002B     		cmp	r3, #0	@ retval.14,
 389 0070 F6D1     		bne	.L17	@,
 116:peripherals/i2c.cpp **** 		I2Cx->DR = *data++;
 390              		.loc 1 116 0 is_stmt 1
 391 0072 154A     		ldr	r2, .L23+8	@ D.6015,
 392 0074 BB68     		ldr	r3, [r7, #8]	@ data.15, data
 393 0076 591C     		adds	r1, r3, #1	@ tmp164, data.15,
 394 0078 B960     		str	r1, [r7, #8]	@ tmp164, data
 395 007a 1B78     		ldrb	r3, [r3]	@ zero_extendqisi2	@ D.6017, *data.15_31
 396 007c 1382     		strh	r3, [r2, #16]	@ movhi	@ tmp165, _30->DR
ARM GAS  C:\Users\Adrian\AppData\Local\Temp\ccz0T8C7.s 			page 10


 397              	.L16:
 113:peripherals/i2c.cpp **** 	while (length--)
 398              		.loc 1 113 0 discriminator 1
 399 007e 7B68     		ldr	r3, [r7, #4]	@ length.17, length
 400 0080 5A1E     		subs	r2, r3, #1	@ tmp166, length.17,
 401 0082 7A60     		str	r2, [r7, #4]	@ tmp166, length
 402 0084 002B     		cmp	r3, #0	@ length.17,
 403 0086 0CBF     		ite	eq	@
 404 0088 0023     		moveq	r3, #0	@, tmp168
 405 008a 0123     		movne	r3, #1	@, tmp168
 406 008c DBB2     		uxtb	r3, r3	@ retval.16, tmp167
 407 008e 002B     		cmp	r3, #0	@ retval.16,
 408 0090 E5D1     		bne	.L18	@,
 117:peripherals/i2c.cpp **** 	}
 118:peripherals/i2c.cpp **** 
 119:peripherals/i2c.cpp **** 	while (I2Cx_SR1_TxE_bb(I2Cx) == 0 || I2Cx_SR1_BTF_bb(I2Cx) == 1);	// wait for bus not-busy
 409              		.loc 1 119 0
 410 0092 00BF     		nop
 411              	.L22:
 412              		.loc 1 119 0 is_stmt 0 discriminator 1
 413 0094 0E4B     		ldr	r3, .L23+16	@ D.6013,
 414 0096 1B68     		ldr	r3, [r3]	@ D.6014, *_35
 415 0098 002B     		cmp	r3, #0	@ D.6014,
 416 009a 03D0     		beq	.L19	@,
 417              		.loc 1 119 0 discriminator 2
 418 009c 0D4B     		ldr	r3, .L23+20	@ D.6013,
 419 009e 1B68     		ldr	r3, [r3]	@ D.6014, *_37
 420 00a0 012B     		cmp	r3, #1	@ D.6014,
 421 00a2 01D1     		bne	.L20	@,
 422              	.L19:
 423              		.loc 1 119 0 discriminator 1
 424 00a4 0123     		movs	r3, #1	@ iftmp.19,
 425 00a6 00E0     		b	.L21	@
 426              	.L20:
 427              		.loc 1 119 0 discriminator 3
 428 00a8 0023     		movs	r3, #0	@ iftmp.19,
 429              	.L21:
 430              		.loc 1 119 0 discriminator 4
 431 00aa 002B     		cmp	r3, #0	@ retval.18,
 432 00ac F2D1     		bne	.L22	@,
 120:peripherals/i2c.cpp **** 	I2Cx_CR1_STOP_bb(I2Cx) = 1;				// request a stop
 433              		.loc 1 120 0 is_stmt 1
 434 00ae 0A4B     		ldr	r3, .L23+24	@ D.6013,
 435 00b0 0122     		movs	r2, #1	@ tmp169,
 436 00b2 1A60     		str	r2, [r3]	@ tmp169, *_42
 121:peripherals/i2c.cpp **** }
 437              		.loc 1 121 0
 438 00b4 1437     		adds	r7, r7, #20	@,,
 439 00b6 BD46     		mov	sp, r7	@,
 440              		@ sp needed	@
 441 00b8 5DF8047B 		ldr	r7, [sp], #4	@,
 442 00bc 7047     		bx	lr	@
 443              	.L24:
 444 00be 00BF     		.align	2
 445              	.L23:
 446 00c0 20800A42 		.word	1107984416
 447 00c4 80820A42 		.word	1107985024
ARM GAS  C:\Users\Adrian\AppData\Local\Temp\ccz0T8C7.s 			page 11


 448 00c8 00540040 		.word	1073763328
 449 00cc 84820A42 		.word	1107985028
 450 00d0 9C820A42 		.word	1107985052
 451 00d4 88820A42 		.word	1107985032
 452 00d8 24800A42 		.word	1107984420
 453              		.cfi_endproc
 454              	.LFE57:
 455              		.size	_Z8i2cWritehPKhj, .-_Z8i2cWritehPKhj
 456              		.text
 457              	.Letext0:
 458              		.file 2 "d:\\programy\\gnu tools arm embedded\\4.8 2014q2\\arm-none-eabi\\include\\machine\\_defau
 459              		.file 3 "d:\\programy\\gnu tools arm embedded\\4.8 2014q2\\arm-none-eabi\\include\\stdint.h"
 460              		.file 4 "./inc/stm32l1xx.h"
 461              		.file 5 "d:\\programy\\gnu tools arm embedded\\4.8 2014q2\\arm-none-eabi\\include\\c++\\4.8.4\\cst
 462              		.file 6 "d:\\programy\\gnu tools arm embedded\\4.8 2014q2\\lib\\gcc\\arm-none-eabi\\4.8.4\\include
 463              		.file 7 "peripherals/gpio.h"
 464              		.file 8 "<built-in>"
 465              		.file 9 "./inc/core_cm3.h"