ARM GAS  C:\Users\Adrian\AppData\Local\Temp\ccHpd0c2.s 			page 1


   1              		.syntax unified
   2              		.cpu cortex-m3
   3              		.fpu softvfp
   4              		.eabi_attribute 20, 1	@ Tag_ABI_FP_denormal
   5              		.eabi_attribute 21, 1	@ Tag_ABI_FP_exceptions
   6              		.eabi_attribute 23, 3	@ Tag_ABI_FP_number_model
   7              		.eabi_attribute 24, 1	@ Tag_ABI_align8_needed
   8              		.eabi_attribute 25, 1	@ Tag_ABI_align8_preserved
   9              		.eabi_attribute 26, 1	@ Tag_ABI_enum_size
  10              		.eabi_attribute 30, 6	@ Tag_ABI_optimization_goals
  11              		.eabi_attribute 34, 1	@ Tag_CPU_unaligned_access
  12              		.eabi_attribute 18, 4	@ Tag_ABI_PCS_wchar_t
  13              		.file	"lcd.cpp"
  14              	@ GNU C++ (GNU Tools for ARM Embedded Processors) version 4.8.4 20140526 (release) [ARM/embedded-4_
  15              	@	compiled by GNU C version 4.6.4, GMP version 4.3.2, MPFR version 2.4.2, MPC version 0.8.1
  16              	@ GGC heuristics: --param ggc-min-expand=100 --param ggc-min-heapsize=131072
  17              	@ options passed:  -I . -I inc -I FreeRTOS/include
  18              	@ -I FreeRTOS/portable/GCC/ARM_CM3 -I FatFS -I peripherals -I configuration
  19              	@ -I drivers -I application -imultilib armv7-m
  20              	@ -iprefix d:\programy\gnu tools arm embedded\4.8 2014q2\bin\../lib/gcc/arm-none-eabi/4.8.4/
  21              	@ -isysroot d:\programy\gnu tools arm embedded\4.8 2014q2\bin\../arm-none-eabi
  22              	@ -MD out/lcd.d -MF out/lcd.d -MP -MQ out/lcd.o -D__USES_INITFINI__
  23              	@ -D STM32L1XX_MD peripherals/lcd.cpp -mcpu=cortex-m3 -mthumb
  24              	@ -auxbase-strip out/lcd.o -g -ggdb3 -O0 -Wall -Wextra -std=gnu++11
  25              	@ -ffunction-sections -fdata-sections -fno-rtti -fno-exceptions
  26              	@ -fverbose-asm
  27              	@ options enabled:  -faggressive-loop-optimizations -fauto-inc-dec
  28              	@ -fbranch-count-reg -fcommon -fdata-sections -fdelete-null-pointer-checks
  29              	@ -fdwarf2-cfi-asm -fearly-inlining -feliminate-unused-debug-types
  30              	@ -ffunction-cse -ffunction-sections -fgcse-lm -fgnu-runtime -fident
  31              	@ -finline-atomics -fira-hoist-pressure -fira-share-save-slots
  32              	@ -fira-share-spill-slots -fivopts -fkeep-static-consts
  33              	@ -fleading-underscore -fmath-errno -fmerge-debug-strings
  34              	@ -fmove-loop-invariants -fpeephole -fprefetch-loop-arrays
  35              	@ -freg-struct-return -fsched-critical-path-heuristic
  36              	@ -fsched-dep-count-heuristic -fsched-group-heuristic -fsched-interblock
  37              	@ -fsched-last-insn-heuristic -fsched-rank-heuristic -fsched-spec
  38              	@ -fsched-spec-insn-heuristic -fsched-stalled-insns-dep -fshow-column
  39              	@ -fsigned-zeros -fsplit-ivs-in-unroller -fstrict-volatile-bitfields
  40              	@ -fsync-libcalls -ftrapping-math -ftree-coalesce-vars -ftree-cselim
  41              	@ -ftree-forwprop -ftree-loop-if-convert -ftree-loop-im -ftree-loop-ivcanon
  42              	@ -ftree-loop-optimize -ftree-parallelize-loops= -ftree-phiprop -ftree-pta
  43              	@ -ftree-reassoc -ftree-scev-cprop -ftree-slp-vectorize
  44              	@ -ftree-vect-loop-version -funit-at-a-time -fverbose-asm
  45              	@ -fzero-initialized-in-bss -mfix-cortex-m3-ldrd -mlittle-endian
  46              	@ -mpic-data-is-text-relative -msched-prolog -mthumb -munaligned-access
  47              	@ -mvectorize-with-neon-quad
  48              	
  49              		.text
  50              	.Ltext0:
  51              		.cfi_sections	.debug_frame
  52              		.section	.text._Z8LCD_Initv,"ax",%progbits
  53              		.align	2
  54              		.global	_Z8LCD_Initv
  55              		.thumb
  56              		.thumb_func
  57              		.type	_Z8LCD_Initv, %function
ARM GAS  C:\Users\Adrian\AppData\Local\Temp\ccHpd0c2.s 			page 2


  58              	_Z8LCD_Initv:
  59              	.LFB55:
  60              		.file 1 "peripherals/lcd.cpp"
   1:peripherals/lcd.cpp **** /*
   2:peripherals/lcd.cpp ****  * lcd.cpp
   3:peripherals/lcd.cpp ****  *
   4:peripherals/lcd.cpp ****  *  Created on: 14 lis 2014
   5:peripherals/lcd.cpp ****  *      Author: Adrian Ratajczyk
   6:peripherals/lcd.cpp ****  */
   7:peripherals/lcd.cpp **** 
   8:peripherals/lcd.cpp **** #include "stm32l1xx.h"
   9:peripherals/lcd.cpp **** #include "gpio.h"
  10:peripherals/lcd.cpp **** #include "lcd.h"
  11:peripherals/lcd.cpp **** #include "bsp.h"
  12:peripherals/lcd.cpp **** #include "hdr/hdr_bitband.h"
  13:peripherals/lcd.cpp **** #include <string.h>
  14:peripherals/lcd.cpp **** 
  15:peripherals/lcd.cpp **** /**
  16:peripherals/lcd.cpp ****   @verbatim
  17:peripherals/lcd.cpp **** ================================================================================
  18:peripherals/lcd.cpp ****                               GLASS LCD MAPPING
  19:peripherals/lcd.cpp **** ================================================================================
  20:peripherals/lcd.cpp ****       A
  21:peripherals/lcd.cpp ****      _  ----------
  22:peripherals/lcd.cpp **** COL |_| |\   |J  /|
  23:peripherals/lcd.cpp ****        F| H  |  K |B
  24:peripherals/lcd.cpp ****      _  |  \ | /  |
  25:peripherals/lcd.cpp **** COL |_| --G-- --M--
  26:peripherals/lcd.cpp ****         |   /| \  |
  27:peripherals/lcd.cpp ****        E|  Q |  N |C
  28:peripherals/lcd.cpp ****      _  | /  |P  \|
  29:peripherals/lcd.cpp **** DP  |_| -----------
  30:peripherals/lcd.cpp ****       D
  31:peripherals/lcd.cpp **** 
  32:peripherals/lcd.cpp ****  An LCD character coding is based on the following matrix:
  33:peripherals/lcd.cpp ****       { E , D , P , N   }
  34:peripherals/lcd.cpp ****       { M , C , COL , DP}
  35:peripherals/lcd.cpp ****       { B , A , K , J   }
  36:peripherals/lcd.cpp ****       { G , F , Q , H   }
  37:peripherals/lcd.cpp **** 
  38:peripherals/lcd.cpp ****  The character 'A' for example is:
  39:peripherals/lcd.cpp ****   -------------------------------
  40:peripherals/lcd.cpp **** LSB   { 1 , 0 , 0 , 0   }
  41:peripherals/lcd.cpp ****       { 1 , 1 , 0 , 0   }
  42:peripherals/lcd.cpp ****       { 1 , 1 , 0 , 0   }
  43:peripherals/lcd.cpp **** MSB   { 1 , 1 , 0 , 0   }
  44:peripherals/lcd.cpp ****       -------------------
  45:peripherals/lcd.cpp ****   'A' =  F    E   0   0 hexa
  46:peripherals/lcd.cpp **** 
  47:peripherals/lcd.cpp ****   @endverbatim
  48:peripherals/lcd.cpp **** */
  49:peripherals/lcd.cpp **** 
  50:peripherals/lcd.cpp **** /* Constant table for cap characters 'A' --> 'Z' */
  51:peripherals/lcd.cpp **** const uint16_t CapLetterMap[26]=
  52:peripherals/lcd.cpp **** {
  53:peripherals/lcd.cpp ****         /* A      B      C      D      E      F      G      H      I  */
  54:peripherals/lcd.cpp ****         0xFE00,0x6714,0x1d00,0x4714,0x9d00,0x9c00,0x3f00,0xfa00,0x0014,
ARM GAS  C:\Users\Adrian\AppData\Local\Temp\ccHpd0c2.s 			page 3


  55:peripherals/lcd.cpp ****         /* J      K      L      M      N      O      P      Q      R  */
  56:peripherals/lcd.cpp ****         0x5300,0x9841,0x1900,0x5a48,0x5a09,0x5f00,0xFC00,0x5F01,0xFC01,
  57:peripherals/lcd.cpp ****         /* S      T      U      V      W      X      Y      Z  */
  58:peripherals/lcd.cpp ****         0xAF00,0x0414,0x5b00,0x18c0,0x5a81,0x00c9,0x0058,0x05c0
  59:peripherals/lcd.cpp **** };
  60:peripherals/lcd.cpp **** 
  61:peripherals/lcd.cpp **** /* Constant table for number '0' --> '9' */
  62:peripherals/lcd.cpp **** const uint16_t NumberMap[10]=
  63:peripherals/lcd.cpp **** {
  64:peripherals/lcd.cpp ****         /* 0      1      2      3      4      5      6      7      8      9  */
  65:peripherals/lcd.cpp ****         0x5F00,0x4200,0xF500,0x6700,0xEa00,0xAF00,0xBF00,0x04600,0xFF00,0xEF00
  66:peripherals/lcd.cpp **** };
  67:peripherals/lcd.cpp **** 
  68:peripherals/lcd.cpp **** /**
  69:peripherals/lcd.cpp ****  * \brief Initialazes LCD driver
  70:peripherals/lcd.cpp ****  *
  71:peripherals/lcd.cpp ****  * Enables RCC clocks for LCD driver. Enables GPIO ports. Configures LCD driver to work with defaul
  72:peripherals/lcd.cpp ****  *
  73:peripherals/lcd.cpp ****  */
  74:peripherals/lcd.cpp **** void LCD_Init()
  75:peripherals/lcd.cpp **** {
  61              		.loc 1 75 0
  62              		.cfi_startproc
  63              		@ args = 0, pretend = 0, frame = 0
  64              		@ frame_needed = 1, uses_anonymous_args = 0
  65 0000 80B5     		push	{r7, lr}	@
  66              		.cfi_def_cfa_offset 8
  67              		.cfi_offset 7, -8
  68              		.cfi_offset 14, -4
  69 0002 00AF     		add	r7, sp, #0	@,,
  70              		.cfi_def_cfa_register 7
  76:peripherals/lcd.cpp **** 	// getting access to RCC registers
  77:peripherals/lcd.cpp **** 	PWR->CR |= PWR_CR_DBP;
  71              		.loc 1 77 0
  72 0004 6B4B     		ldr	r3, .L2	@ D.6827,
  73 0006 6B4A     		ldr	r2, .L2	@ D.6827,
  74 0008 1268     		ldr	r2, [r2]	@ D.6828, _2->CR
  75 000a 42F48072 		orr	r2, r2, #256	@ D.6828, D.6828,
  76 000e 1A60     		str	r2, [r3]	@ D.6828, _1->CR
  78:peripherals/lcd.cpp **** 
  79:peripherals/lcd.cpp **** 	// select the RTC clock source
  80:peripherals/lcd.cpp **** 	RCC->CSR |= (RCC_CSR_RTCSEL_LSE | RCC_CSR_RTCEN | RCC_CSR_LSEON);
  77              		.loc 1 80 0
  78 0010 694A     		ldr	r2, .L2+4	@ D.6829,
  79 0012 694B     		ldr	r3, .L2+4	@ D.6829,
  80 0014 5B6B     		ldr	r3, [r3, #52]	@ D.6828, _6->CSR
  81 0016 43F48203 		orr	r3, r3, #4259840	@ D.6828, D.6828,
  82 001a 43F48073 		orr	r3, r3, #256	@ D.6828, D.6828,
  83 001e 5363     		str	r3, [r2, #52]	@ D.6828, _5->CSR
  81:peripherals/lcd.cpp **** 
  82:peripherals/lcd.cpp **** 	// Enable rcc clock fot gpio
  83:peripherals/lcd.cpp **** 	RCC->AHBENR |= RCC_AHBENR_GPIOAEN | RCC_AHBENR_GPIOBEN | RCC_AHBENR_GPIOCEN;
  84              		.loc 1 83 0
  85 0020 654B     		ldr	r3, .L2+4	@ D.6829,
  86 0022 654A     		ldr	r2, .L2+4	@ D.6829,
  87 0024 D269     		ldr	r2, [r2, #28]	@ D.6828, _10->AHBENR
  88 0026 42F00702 		orr	r2, r2, #7	@ D.6828, D.6828,
ARM GAS  C:\Users\Adrian\AppData\Local\Temp\ccHpd0c2.s 			page 4


  89 002a DA61     		str	r2, [r3, #28]	@ D.6828, _9->AHBENR
  84:peripherals/lcd.cpp **** 
  85:peripherals/lcd.cpp **** 	// Enable rcc clock for lcd
  86:peripherals/lcd.cpp **** 	RCC->APB1ENR|=RCC_APB1ENR_LCDEN;
  90              		.loc 1 86 0
  91 002c 624B     		ldr	r3, .L2+4	@ D.6829,
  92 002e 624A     		ldr	r2, .L2+4	@ D.6829,
  93 0030 526A     		ldr	r2, [r2, #36]	@ D.6828, _14->APB1ENR
  94 0032 42F40072 		orr	r2, r2, #512	@ D.6828, D.6828,
  95 0036 5A62     		str	r2, [r3, #36]	@ D.6828, _13->APB1ENR
  87:peripherals/lcd.cpp **** 
  88:peripherals/lcd.cpp **** 	// RTC and LCD clock source selection
  89:peripherals/lcd.cpp **** 	// 00 - noclock
  90:peripherals/lcd.cpp **** 	// 01 - LSE     RCC_CSR_RTCSEL_LSE
  91:peripherals/lcd.cpp **** 	// 10 - LSI     RCC_CSR_RTCSEL_LSI
  92:peripherals/lcd.cpp **** 	// 11 - HSE		RCC_CSR_RTCSEL_HSE
  93:peripherals/lcd.cpp **** 
  94:peripherals/lcd.cpp **** 	// enabling RTC clock
  95:peripherals/lcd.cpp **** 	/*state = RCC->CSR;
  96:peripherals/lcd.cpp **** 	state = state | RCC_CSR_RTCSEL_LSI | RCC_CSR_RTCEN;
  97:peripherals/lcd.cpp **** 	RCC->CSR =state;*/
  98:peripherals/lcd.cpp **** 
  99:peripherals/lcd.cpp **** 	RCC->CSR |= (RCC_CSR_RTCSEL_LSI | RCC_CSR_RTCEN);
  96              		.loc 1 99 0
  97 0038 5F4B     		ldr	r3, .L2+4	@ D.6829,
  98 003a 5F4A     		ldr	r2, .L2+4	@ D.6829,
  99 003c 526B     		ldr	r2, [r2, #52]	@ D.6828, _18->CSR
 100 003e 42F48402 		orr	r2, r2, #4325376	@ D.6828, D.6828,
 101 0042 5A63     		str	r2, [r3, #52]	@ D.6828, _17->CSR
 100:peripherals/lcd.cpp **** 
 101:peripherals/lcd.cpp **** 	// Configure the LCD GPIO pins as alternate functions
 102:peripherals/lcd.cpp **** 	// Comons
 103:peripherals/lcd.cpp **** 	gpioConfigurePin(GPIOA, GPIO_PIN_8, GPIO_COM_CONFIGURATION);
 102              		.loc 1 103 0
 103 0044 5D48     		ldr	r0, .L2+8	@,
 104 0046 0821     		movs	r1, #8	@,
 105 0048 5D4A     		ldr	r2, .L2+12	@,
 106 004a FFF7FEFF 		bl	_Z16gpioConfigurePinP12GPIO_TypeDef7GpioPin17GpioConfiguration	@
 104:peripherals/lcd.cpp **** 	gpioConfigurePin(GPIOA, GPIO_PIN_9, GPIO_COM_CONFIGURATION);
 107              		.loc 1 104 0
 108 004e 5B48     		ldr	r0, .L2+8	@,
 109 0050 0921     		movs	r1, #9	@,
 110 0052 5B4A     		ldr	r2, .L2+12	@,
 111 0054 FFF7FEFF 		bl	_Z16gpioConfigurePinP12GPIO_TypeDef7GpioPin17GpioConfiguration	@
 105:peripherals/lcd.cpp **** 	gpioConfigurePin(GPIOA, GPIO_PIN_10, GPIO_COM_CONFIGURATION);
 112              		.loc 1 105 0
 113 0058 5848     		ldr	r0, .L2+8	@,
 114 005a 0A21     		movs	r1, #10	@,
 115 005c 584A     		ldr	r2, .L2+12	@,
 116 005e FFF7FEFF 		bl	_Z16gpioConfigurePinP12GPIO_TypeDef7GpioPin17GpioConfiguration	@
 106:peripherals/lcd.cpp **** 
 107:peripherals/lcd.cpp **** 	gpioConfigurePin(GPIOB, GPIO_PIN_9, GPIO_COM_CONFIGURATION);
 117              		.loc 1 107 0
 118 0062 5848     		ldr	r0, .L2+16	@,
 119 0064 0921     		movs	r1, #9	@,
 120 0066 564A     		ldr	r2, .L2+12	@,
 121 0068 FFF7FEFF 		bl	_Z16gpioConfigurePinP12GPIO_TypeDef7GpioPin17GpioConfiguration	@
ARM GAS  C:\Users\Adrian\AppData\Local\Temp\ccHpd0c2.s 			page 5


 108:peripherals/lcd.cpp **** 
 109:peripherals/lcd.cpp **** 	// Segments
 110:peripherals/lcd.cpp **** 	gpioConfigurePin(GPIOA, GPIO_PIN_1, GPIO_SEG_CONFIGURATION);
 122              		.loc 1 110 0
 123 006c 5348     		ldr	r0, .L2+8	@,
 124 006e 0121     		movs	r1, #1	@,
 125 0070 534A     		ldr	r2, .L2+12	@,
 126 0072 FFF7FEFF 		bl	_Z16gpioConfigurePinP12GPIO_TypeDef7GpioPin17GpioConfiguration	@
 111:peripherals/lcd.cpp **** 	gpioConfigurePin(GPIOA, GPIO_PIN_2, GPIO_SEG_CONFIGURATION);
 127              		.loc 1 111 0
 128 0076 5148     		ldr	r0, .L2+8	@,
 129 0078 0221     		movs	r1, #2	@,
 130 007a 514A     		ldr	r2, .L2+12	@,
 131 007c FFF7FEFF 		bl	_Z16gpioConfigurePinP12GPIO_TypeDef7GpioPin17GpioConfiguration	@
 112:peripherals/lcd.cpp **** 	gpioConfigurePin(GPIOA, GPIO_PIN_3, GPIO_SEG_CONFIGURATION);
 132              		.loc 1 112 0
 133 0080 4E48     		ldr	r0, .L2+8	@,
 134 0082 0321     		movs	r1, #3	@,
 135 0084 4E4A     		ldr	r2, .L2+12	@,
 136 0086 FFF7FEFF 		bl	_Z16gpioConfigurePinP12GPIO_TypeDef7GpioPin17GpioConfiguration	@
 113:peripherals/lcd.cpp **** 
 114:peripherals/lcd.cpp **** 	gpioConfigurePin(GPIOB, GPIO_PIN_3, GPIO_SEG_CONFIGURATION);
 137              		.loc 1 114 0
 138 008a 4E48     		ldr	r0, .L2+16	@,
 139 008c 0321     		movs	r1, #3	@,
 140 008e 4C4A     		ldr	r2, .L2+12	@,
 141 0090 FFF7FEFF 		bl	_Z16gpioConfigurePinP12GPIO_TypeDef7GpioPin17GpioConfiguration	@
 115:peripherals/lcd.cpp **** 	gpioConfigurePin(GPIOB, GPIO_PIN_4, GPIO_SEG_CONFIGURATION);
 142              		.loc 1 115 0
 143 0094 4B48     		ldr	r0, .L2+16	@,
 144 0096 0421     		movs	r1, #4	@,
 145 0098 494A     		ldr	r2, .L2+12	@,
 146 009a FFF7FEFF 		bl	_Z16gpioConfigurePinP12GPIO_TypeDef7GpioPin17GpioConfiguration	@
 116:peripherals/lcd.cpp **** 	gpioConfigurePin(GPIOB, GPIO_PIN_5, GPIO_SEG_CONFIGURATION);
 147              		.loc 1 116 0
 148 009e 4948     		ldr	r0, .L2+16	@,
 149 00a0 0521     		movs	r1, #5	@,
 150 00a2 474A     		ldr	r2, .L2+12	@,
 151 00a4 FFF7FEFF 		bl	_Z16gpioConfigurePinP12GPIO_TypeDef7GpioPin17GpioConfiguration	@
 117:peripherals/lcd.cpp **** 	gpioConfigurePin(GPIOB, GPIO_PIN_10, GPIO_SEG_CONFIGURATION);
 152              		.loc 1 117 0
 153 00a8 4648     		ldr	r0, .L2+16	@,
 154 00aa 0A21     		movs	r1, #10	@,
 155 00ac 444A     		ldr	r2, .L2+12	@,
 156 00ae FFF7FEFF 		bl	_Z16gpioConfigurePinP12GPIO_TypeDef7GpioPin17GpioConfiguration	@
 118:peripherals/lcd.cpp **** 	gpioConfigurePin(GPIOB, GPIO_PIN_11, GPIO_SEG_CONFIGURATION);
 157              		.loc 1 118 0
 158 00b2 4448     		ldr	r0, .L2+16	@,
 159 00b4 0B21     		movs	r1, #11	@,
 160 00b6 424A     		ldr	r2, .L2+12	@,
 161 00b8 FFF7FEFF 		bl	_Z16gpioConfigurePinP12GPIO_TypeDef7GpioPin17GpioConfiguration	@
 119:peripherals/lcd.cpp **** 	gpioConfigurePin(GPIOB, GPIO_PIN_12, GPIO_SEG_CONFIGURATION);
 162              		.loc 1 119 0
 163 00bc 4148     		ldr	r0, .L2+16	@,
 164 00be 0C21     		movs	r1, #12	@,
 165 00c0 3F4A     		ldr	r2, .L2+12	@,
 166 00c2 FFF7FEFF 		bl	_Z16gpioConfigurePinP12GPIO_TypeDef7GpioPin17GpioConfiguration	@
ARM GAS  C:\Users\Adrian\AppData\Local\Temp\ccHpd0c2.s 			page 6


 120:peripherals/lcd.cpp **** 	gpioConfigurePin(GPIOB, GPIO_PIN_13, GPIO_SEG_CONFIGURATION);
 167              		.loc 1 120 0
 168 00c6 3F48     		ldr	r0, .L2+16	@,
 169 00c8 0D21     		movs	r1, #13	@,
 170 00ca 3D4A     		ldr	r2, .L2+12	@,
 171 00cc FFF7FEFF 		bl	_Z16gpioConfigurePinP12GPIO_TypeDef7GpioPin17GpioConfiguration	@
 121:peripherals/lcd.cpp **** 	gpioConfigurePin(GPIOB, GPIO_PIN_14, GPIO_SEG_CONFIGURATION);
 172              		.loc 1 121 0
 173 00d0 3C48     		ldr	r0, .L2+16	@,
 174 00d2 0E21     		movs	r1, #14	@,
 175 00d4 3A4A     		ldr	r2, .L2+12	@,
 176 00d6 FFF7FEFF 		bl	_Z16gpioConfigurePinP12GPIO_TypeDef7GpioPin17GpioConfiguration	@
 122:peripherals/lcd.cpp **** 	gpioConfigurePin(GPIOB, GPIO_PIN_15, GPIO_SEG_CONFIGURATION);
 177              		.loc 1 122 0
 178 00da 3A48     		ldr	r0, .L2+16	@,
 179 00dc 0F21     		movs	r1, #15	@,
 180 00de 384A     		ldr	r2, .L2+12	@,
 181 00e0 FFF7FEFF 		bl	_Z16gpioConfigurePinP12GPIO_TypeDef7GpioPin17GpioConfiguration	@
 123:peripherals/lcd.cpp **** 	gpioConfigurePin(GPIOB, GPIO_PIN_8, GPIO_SEG_CONFIGURATION);
 182              		.loc 1 123 0
 183 00e4 3748     		ldr	r0, .L2+16	@,
 184 00e6 0821     		movs	r1, #8	@,
 185 00e8 354A     		ldr	r2, .L2+12	@,
 186 00ea FFF7FEFF 		bl	_Z16gpioConfigurePinP12GPIO_TypeDef7GpioPin17GpioConfiguration	@
 124:peripherals/lcd.cpp **** 
 125:peripherals/lcd.cpp **** 	gpioConfigurePin(GPIOC, GPIO_PIN_0, GPIO_SEG_CONFIGURATION);
 187              		.loc 1 125 0
 188 00ee 3648     		ldr	r0, .L2+20	@,
 189 00f0 0021     		movs	r1, #0	@,
 190 00f2 334A     		ldr	r2, .L2+12	@,
 191 00f4 FFF7FEFF 		bl	_Z16gpioConfigurePinP12GPIO_TypeDef7GpioPin17GpioConfiguration	@
 126:peripherals/lcd.cpp **** 	gpioConfigurePin(GPIOC, GPIO_PIN_1, GPIO_SEG_CONFIGURATION);
 192              		.loc 1 126 0
 193 00f8 3348     		ldr	r0, .L2+20	@,
 194 00fa 0121     		movs	r1, #1	@,
 195 00fc 304A     		ldr	r2, .L2+12	@,
 196 00fe FFF7FEFF 		bl	_Z16gpioConfigurePinP12GPIO_TypeDef7GpioPin17GpioConfiguration	@
 127:peripherals/lcd.cpp **** 	gpioConfigurePin(GPIOC, GPIO_PIN_2, GPIO_SEG_CONFIGURATION);
 197              		.loc 1 127 0
 198 0102 3148     		ldr	r0, .L2+20	@,
 199 0104 0221     		movs	r1, #2	@,
 200 0106 2E4A     		ldr	r2, .L2+12	@,
 201 0108 FFF7FEFF 		bl	_Z16gpioConfigurePinP12GPIO_TypeDef7GpioPin17GpioConfiguration	@
 128:peripherals/lcd.cpp **** 	gpioConfigurePin(GPIOC, GPIO_PIN_3, GPIO_SEG_CONFIGURATION);
 202              		.loc 1 128 0
 203 010c 2E48     		ldr	r0, .L2+20	@,
 204 010e 0321     		movs	r1, #3	@,
 205 0110 2B4A     		ldr	r2, .L2+12	@,
 206 0112 FFF7FEFF 		bl	_Z16gpioConfigurePinP12GPIO_TypeDef7GpioPin17GpioConfiguration	@
 129:peripherals/lcd.cpp **** 	gpioConfigurePin(GPIOC, GPIO_PIN_6, GPIO_SEG_CONFIGURATION);
 207              		.loc 1 129 0
 208 0116 2C48     		ldr	r0, .L2+20	@,
 209 0118 0621     		movs	r1, #6	@,
 210 011a 294A     		ldr	r2, .L2+12	@,
 211 011c FFF7FEFF 		bl	_Z16gpioConfigurePinP12GPIO_TypeDef7GpioPin17GpioConfiguration	@
 130:peripherals/lcd.cpp **** 	gpioConfigurePin(GPIOC, GPIO_PIN_7, GPIO_SEG_CONFIGURATION);
 212              		.loc 1 130 0
ARM GAS  C:\Users\Adrian\AppData\Local\Temp\ccHpd0c2.s 			page 7


 213 0120 2948     		ldr	r0, .L2+20	@,
 214 0122 0721     		movs	r1, #7	@,
 215 0124 264A     		ldr	r2, .L2+12	@,
 216 0126 FFF7FEFF 		bl	_Z16gpioConfigurePinP12GPIO_TypeDef7GpioPin17GpioConfiguration	@
 131:peripherals/lcd.cpp **** 	gpioConfigurePin(GPIOC, GPIO_PIN_8, GPIO_SEG_CONFIGURATION);
 217              		.loc 1 131 0
 218 012a 2748     		ldr	r0, .L2+20	@,
 219 012c 0821     		movs	r1, #8	@,
 220 012e 244A     		ldr	r2, .L2+12	@,
 221 0130 FFF7FEFF 		bl	_Z16gpioConfigurePinP12GPIO_TypeDef7GpioPin17GpioConfiguration	@
 132:peripherals/lcd.cpp **** 	gpioConfigurePin(GPIOC, GPIO_PIN_9, GPIO_SEG_CONFIGURATION);
 222              		.loc 1 132 0
 223 0134 2448     		ldr	r0, .L2+20	@,
 224 0136 0921     		movs	r1, #9	@,
 225 0138 214A     		ldr	r2, .L2+12	@,
 226 013a FFF7FEFF 		bl	_Z16gpioConfigurePinP12GPIO_TypeDef7GpioPin17GpioConfiguration	@
 133:peripherals/lcd.cpp **** 	gpioConfigurePin(GPIOC, GPIO_PIN_10, GPIO_SEG_CONFIGURATION);
 227              		.loc 1 133 0
 228 013e 2248     		ldr	r0, .L2+20	@,
 229 0140 0A21     		movs	r1, #10	@,
 230 0142 1F4A     		ldr	r2, .L2+12	@,
 231 0144 FFF7FEFF 		bl	_Z16gpioConfigurePinP12GPIO_TypeDef7GpioPin17GpioConfiguration	@
 134:peripherals/lcd.cpp **** 	gpioConfigurePin(GPIOC, GPIO_PIN_11, GPIO_SEG_CONFIGURATION);
 232              		.loc 1 134 0
 233 0148 1F48     		ldr	r0, .L2+20	@,
 234 014a 0B21     		movs	r1, #11	@,
 235 014c 1C4A     		ldr	r2, .L2+12	@,
 236 014e FFF7FEFF 		bl	_Z16gpioConfigurePinP12GPIO_TypeDef7GpioPin17GpioConfiguration	@
 135:peripherals/lcd.cpp **** 
 136:peripherals/lcd.cpp **** 
 137:peripherals/lcd.cpp **** 	// multiplexed pin enabled
 138:peripherals/lcd.cpp **** 	LCD->CR|=LCD_CR_MUX_SEG;
 237              		.loc 1 138 0
 238 0152 1E4B     		ldr	r3, .L2+24	@ D.6830,
 239 0154 1D4A     		ldr	r2, .L2+24	@ D.6830,
 240 0156 1268     		ldr	r2, [r2]	@ D.6828, _22->CR
 241 0158 42F08002 		orr	r2, r2, #128	@ D.6828, D.6828,
 242 015c 1A60     		str	r2, [r3]	@ D.6828, _21->CR
 139:peripherals/lcd.cpp **** 
 140:peripherals/lcd.cpp **** 	// BIAS in LCD_CR 1/3
 141:peripherals/lcd.cpp **** 	LCD->CR|=LCD_CR_BIAS_1;
 243              		.loc 1 141 0
 244 015e 1B4B     		ldr	r3, .L2+24	@ D.6830,
 245 0160 1A4A     		ldr	r2, .L2+24	@ D.6830,
 246 0162 1268     		ldr	r2, [r2]	@ D.6828, _26->CR
 247 0164 42F04002 		orr	r2, r2, #64	@ D.6828, D.6828,
 248 0168 1A60     		str	r2, [r3]	@ D.6828, _25->CR
 142:peripherals/lcd.cpp **** 
 143:peripherals/lcd.cpp **** 	// DUTY in LCD_CR 1/4
 144:peripherals/lcd.cpp **** 	LCD->CR|=(LCD_CR_DUTY_0 | LCD_CR_DUTY_1);
 249              		.loc 1 144 0
 250 016a 184B     		ldr	r3, .L2+24	@ D.6830,
 251 016c 174A     		ldr	r2, .L2+24	@ D.6830,
 252 016e 1268     		ldr	r2, [r2]	@ D.6828, _30->CR
 253 0170 42F00C02 		orr	r2, r2, #12	@ D.6828, D.6828,
 254 0174 1A60     		str	r2, [r3]	@ D.6828, _29->CR
 145:peripherals/lcd.cpp **** 
ARM GAS  C:\Users\Adrian\AppData\Local\Temp\ccHpd0c2.s 			page 8


 146:peripherals/lcd.cpp **** 	// Voltage internal source
 147:peripherals/lcd.cpp **** 
 148:peripherals/lcd.cpp **** 	// Enable the display (LCDEN bit in LCD_FCR register)
 149:peripherals/lcd.cpp **** 	LCD->CR|=LCD_CR_LCDEN;
 255              		.loc 1 149 0
 256 0176 154B     		ldr	r3, .L2+24	@ D.6830,
 257 0178 144A     		ldr	r2, .L2+24	@ D.6830,
 258 017a 1268     		ldr	r2, [r2]	@ D.6828, _34->CR
 259 017c 42F00102 		orr	r2, r2, #1	@ D.6828, D.6828,
 260 0180 1A60     		str	r2, [r3]	@ D.6828, _33->CR
 150:peripherals/lcd.cpp **** 
 151:peripherals/lcd.cpp **** 	// prescaler 1
 152:peripherals/lcd.cpp **** 
 153:peripherals/lcd.cpp **** 	// divider 31
 154:peripherals/lcd.cpp **** 	LCD->FCR|=LCD_FCR_DIV;
 261              		.loc 1 154 0
 262 0182 124B     		ldr	r3, .L2+24	@ D.6830,
 263 0184 114A     		ldr	r2, .L2+24	@ D.6830,
 264 0186 5268     		ldr	r2, [r2, #4]	@ D.6828, _38->FCR
 265 0188 42F47012 		orr	r2, r2, #3932160	@ D.6828, D.6828,
 266 018c 5A60     		str	r2, [r3, #4]	@ D.6828, _37->FCR
 155:peripherals/lcd.cpp **** 
 156:peripherals/lcd.cpp **** 	// blink mode off
 157:peripherals/lcd.cpp **** 
 158:peripherals/lcd.cpp **** 	// blink frequency 32
 159:peripherals/lcd.cpp **** 	LCD->FCR|=LCD_FCR_BLINKF_1;
 267              		.loc 1 159 0
 268 018e 0F4B     		ldr	r3, .L2+24	@ D.6830,
 269 0190 0E4A     		ldr	r2, .L2+24	@ D.6830,
 270 0192 5268     		ldr	r2, [r2, #4]	@ D.6828, _42->FCR
 271 0194 42F48042 		orr	r2, r2, #16384	@ D.6828, D.6828,
 272 0198 5A60     		str	r2, [r3, #4]	@ D.6828, _41->FCR
 160:peripherals/lcd.cpp **** 
 161:peripherals/lcd.cpp **** 	// Program the contrast (CC bits in LCD_CR)
 162:peripherals/lcd.cpp **** 	LCD->FCR|=(LCD_FCR_CC_2);
 273              		.loc 1 162 0
 274 019a 0C4B     		ldr	r3, .L2+24	@ D.6830,
 275 019c 0B4A     		ldr	r2, .L2+24	@ D.6830,
 276 019e 5268     		ldr	r2, [r2, #4]	@ D.6828, _46->FCR
 277 01a0 42F48052 		orr	r2, r2, #4096	@ D.6828, D.6828,
 278 01a4 5A60     		str	r2, [r3, #4]	@ D.6828, _45->FCR
 163:peripherals/lcd.cpp **** 
 164:peripherals/lcd.cpp **** 	// deadtime 0
 165:peripherals/lcd.cpp **** 
 166:peripherals/lcd.cpp **** 	// pulse on duration 4
 167:peripherals/lcd.cpp **** 	LCD->FCR|=LCD_FCR_PON_2;
 279              		.loc 1 167 0
 280 01a6 094B     		ldr	r3, .L2+24	@ D.6830,
 281 01a8 084A     		ldr	r2, .L2+24	@ D.6830,
 282 01aa 5268     		ldr	r2, [r2, #4]	@ D.6828, _50->FCR
 283 01ac 42F04002 		orr	r2, r2, #64	@ D.6828, D.6828,
 284 01b0 5A60     		str	r2, [r3, #4]	@ D.6828, _49->FCR
 168:peripherals/lcd.cpp **** }
 285              		.loc 1 168 0
 286 01b2 80BD     		pop	{r7, pc}	@
 287              	.L3:
 288              		.align	2
ARM GAS  C:\Users\Adrian\AppData\Local\Temp\ccHpd0c2.s 			page 9


 289              	.L2:
 290 01b4 00700040 		.word	1073770496
 291 01b8 00380240 		.word	1073887232
 292 01bc 00000240 		.word	1073872896
 293 01c0 02030B00 		.word	721666
 294 01c4 00040240 		.word	1073873920
 295 01c8 00080240 		.word	1073874944
 296 01cc 00240040 		.word	1073751040
 297              		.cfi_endproc
 298              	.LFE55:
 299              		.size	_Z8LCD_Initv, .-_Z8LCD_Initv
 300              		.section	.text._Z17LCD_Conv_Char_SegcbbPh,"ax",%progbits
 301              		.align	2
 302              		.global	_Z17LCD_Conv_Char_SegcbbPh
 303              		.thumb
 304              		.thumb_func
 305              		.type	_Z17LCD_Conv_Char_SegcbbPh, %function
 306              	_Z17LCD_Conv_Char_SegcbbPh:
 307              	.LFB56:
 169:peripherals/lcd.cpp **** 
 170:peripherals/lcd.cpp **** 
 171:peripherals/lcd.cpp **** /**
 172:peripherals/lcd.cpp ****  * \brief Converts char to digit on the LCD.
 173:peripherals/lcd.cpp ****  *
 174:peripherals/lcd.cpp ****  * \param [in] Char to convert
 175:peripherals/lcd.cpp ****  * \param [in] Point display enable. Values 0 or 1.
 176:peripherals/lcd.cpp ****  * \param [in] Colon display enable. Values 0 or 1.
 177:peripherals/lcd.cpp ****  * \param [in] Digit number. Values from 1 to 6.
 178:peripherals/lcd.cpp ****  *
 179:peripherals/lcd.cpp ****  */
 180:peripherals/lcd.cpp **** void LCD_Conv_Char_Seg(char c,bool point,bool column, uint8_t* digit)
 181:peripherals/lcd.cpp **** {
 308              		.loc 1 181 0
 309              		.cfi_startproc
 310              		@ args = 0, pretend = 0, frame = 16
 311              		@ frame_needed = 1, uses_anonymous_args = 0
 312              		@ link register save eliminated.
 313 0000 80B4     		push	{r7}	@
 314              		.cfi_def_cfa_offset 4
 315              		.cfi_offset 7, -4
 316 0002 85B0     		sub	sp, sp, #20	@,,
 317              		.cfi_def_cfa_offset 24
 318 0004 00AF     		add	r7, sp, #0	@,,
 319              		.cfi_def_cfa_register 7
 320 0006 3B60     		str	r3, [r7]	@ digit, digit
 321 0008 0346     		mov	r3, r0	@ tmp126, tmp125
 322 000a FB71     		strb	r3, [r7, #7]	@ tmp126, c
 323 000c 0B46     		mov	r3, r1	@ tmp128, tmp127
 324 000e BB71     		strb	r3, [r7, #6]	@ tmp128, point
 325 0010 1346     		mov	r3, r2	@ tmp130, tmp129
 326 0012 7B71     		strb	r3, [r7, #5]	@ tmp130, column
 327              	.LBB2:
 182:peripherals/lcd.cpp ****   uint16_t ch = 0 ;
 328              		.loc 1 182 0
 329 0014 0023     		movs	r3, #0	@ tmp132,
 330 0016 FB81     		strh	r3, [r7, #14]	@ movhi	@ tmp131, ch
 183:peripherals/lcd.cpp ****   uint8_t i,j;
ARM GAS  C:\Users\Adrian\AppData\Local\Temp\ccHpd0c2.s 			page 10


 184:peripherals/lcd.cpp **** 
 185:peripherals/lcd.cpp ****   switch (c)
 331              		.loc 1 185 0
 332 0018 FB79     		ldrb	r3, [r7, #7]	@ zero_extendqisi2	@ D.6831, c
 333 001a 202B     		cmp	r3, #32	@ D.6831,
 334 001c 05D0     		beq	.L6	@,
 335 001e 202B     		cmp	r3, #32	@ D.6831,
 336 0020 0EDB     		blt	.L5	@,
 337 0022 303B     		subs	r3, r3, #48	@ tmp133, D.6831,
 338 0024 092B     		cmp	r3, #9	@ tmp133,
 339 0026 0BD8     		bhi	.L5	@,
 340 0028 02E0     		b	.L15	@
 341              	.L6:
 186:peripherals/lcd.cpp ****     {
 187:peripherals/lcd.cpp ****       case ' ' :
 188:peripherals/lcd.cpp ****       ch = 0x00;
 342              		.loc 1 188 0
 343 002a 0023     		movs	r3, #0	@ tmp135,
 344 002c FB81     		strh	r3, [r7, #14]	@ movhi	@ tmp134, ch
 189:peripherals/lcd.cpp ****       break;
 345              		.loc 1 189 0
 346 002e 22E0     		b	.L8	@
 347              	.L15:
 190:peripherals/lcd.cpp **** 
 191:peripherals/lcd.cpp ****     /*case '*':
 192:peripherals/lcd.cpp ****       ch = star;
 193:peripherals/lcd.cpp ****       break;
 194:peripherals/lcd.cpp **** 
 195:peripherals/lcd.cpp ****     case (uint8_t)(0xB5) :
 196:peripherals/lcd.cpp ****       ch = C_UMAP;
 197:peripherals/lcd.cpp ****       break;
 198:peripherals/lcd.cpp **** 
 199:peripherals/lcd.cpp ****     case 'm' :
 200:peripherals/lcd.cpp ****       ch = C_mMap;
 201:peripherals/lcd.cpp ****       break;
 202:peripherals/lcd.cpp **** 
 203:peripherals/lcd.cpp ****     case 'n' :
 204:peripherals/lcd.cpp ****       ch = C_nMap;
 205:peripherals/lcd.cpp ****       break;
 206:peripherals/lcd.cpp **** 
 207:peripherals/lcd.cpp ****     case '-' :
 208:peripherals/lcd.cpp ****       ch = C_minus;
 209:peripherals/lcd.cpp ****       break;
 210:peripherals/lcd.cpp **** 
 211:peripherals/lcd.cpp ****     case '/' :
 212:peripherals/lcd.cpp ****       ch = C_slatch;
 213:peripherals/lcd.cpp ****       break;
 214:peripherals/lcd.cpp **** 
 215:peripherals/lcd.cpp ****     case (uint8_t)(0xB0) :
 216:peripherals/lcd.cpp ****       ch = C_percent_1;
 217:peripherals/lcd.cpp ****       break;
 218:peripherals/lcd.cpp ****     case '%' :
 219:peripherals/lcd.cpp ****       ch = C_percent_2;
 220:peripherals/lcd.cpp ****       break;
 221:peripherals/lcd.cpp ****     case 255 :
 222:peripherals/lcd.cpp ****       ch = C_full;
 223:peripherals/lcd.cpp ****       break ;*/
ARM GAS  C:\Users\Adrian\AppData\Local\Temp\ccHpd0c2.s 			page 11


 224:peripherals/lcd.cpp **** 
 225:peripherals/lcd.cpp ****     case '0':
 226:peripherals/lcd.cpp ****     case '1':
 227:peripherals/lcd.cpp ****     case '2':
 228:peripherals/lcd.cpp ****     case '3':
 229:peripherals/lcd.cpp ****     case '4':
 230:peripherals/lcd.cpp ****     case '5':
 231:peripherals/lcd.cpp ****     case '6':
 232:peripherals/lcd.cpp ****     case '7':
 233:peripherals/lcd.cpp ****     case '8':
 234:peripherals/lcd.cpp ****     case '9':
 235:peripherals/lcd.cpp ****       ch = NumberMap[c-0x30];
 348              		.loc 1 235 0
 349 0030 FB79     		ldrb	r3, [r7, #7]	@ zero_extendqisi2	@ D.6831, c
 350 0032 A3F13002 		sub	r2, r3, #48	@ D.6831, D.6831,
 351 0036 264B     		ldr	r3, .L16	@ tmp136,
 352 0038 33F81230 		ldrh	r3, [r3, r2, lsl #1]	@ movhi	@ tmp137, NumberMap
 353 003c FB81     		strh	r3, [r7, #14]	@ movhi	@ tmp137, ch
 236:peripherals/lcd.cpp ****       break;
 354              		.loc 1 236 0
 355 003e 1AE0     		b	.L8	@
 356              	.L5:
 237:peripherals/lcd.cpp **** 
 238:peripherals/lcd.cpp ****     default:
 239:peripherals/lcd.cpp ****       /* The character c is one letter in upper case*/
 240:peripherals/lcd.cpp ****       if ( (c < 0x5b) && (c > 0x40) )
 357              		.loc 1 240 0
 358 0040 FB79     		ldrb	r3, [r7, #7]	@ zero_extendqisi2	@ tmp138, c
 359 0042 5A2B     		cmp	r3, #90	@ tmp138,
 360 0044 09D8     		bhi	.L9	@,
 361              		.loc 1 240 0 is_stmt 0 discriminator 1
 362 0046 FB79     		ldrb	r3, [r7, #7]	@ zero_extendqisi2	@ tmp139, c
 363 0048 402B     		cmp	r3, #64	@ tmp139,
 364 004a 06D9     		bls	.L9	@,
 241:peripherals/lcd.cpp ****       {
 242:peripherals/lcd.cpp ****         ch = CapLetterMap[c-'A'];
 365              		.loc 1 242 0 is_stmt 1
 366 004c FB79     		ldrb	r3, [r7, #7]	@ zero_extendqisi2	@ D.6831, c
 367 004e A3F14102 		sub	r2, r3, #65	@ D.6831, D.6831,
 368 0052 204B     		ldr	r3, .L16+4	@ tmp140,
 369 0054 33F81230 		ldrh	r3, [r3, r2, lsl #1]	@ movhi	@ tmp141, CapLetterMap
 370 0058 FB81     		strh	r3, [r7, #14]	@ movhi	@ tmp141, ch
 371              	.L9:
 243:peripherals/lcd.cpp ****       }
 244:peripherals/lcd.cpp ****       /* The character c is one letter in lower case*/
 245:peripherals/lcd.cpp ****       if ( (c <0x7b) && ( c> 0x60) )
 372              		.loc 1 245 0
 373 005a FB79     		ldrb	r3, [r7, #7]	@ zero_extendqisi2	@ tmp142, c
 374 005c 7A2B     		cmp	r3, #122	@ tmp142,
 375 005e 09D8     		bhi	.L10	@,
 376              		.loc 1 245 0 is_stmt 0 discriminator 1
 377 0060 FB79     		ldrb	r3, [r7, #7]	@ zero_extendqisi2	@ tmp143, c
 378 0062 602B     		cmp	r3, #96	@ tmp143,
 379 0064 06D9     		bls	.L10	@,
 246:peripherals/lcd.cpp ****       {
 247:peripherals/lcd.cpp ****         ch = CapLetterMap[c-'a'];
 380              		.loc 1 247 0 is_stmt 1
ARM GAS  C:\Users\Adrian\AppData\Local\Temp\ccHpd0c2.s 			page 12


 381 0066 FB79     		ldrb	r3, [r7, #7]	@ zero_extendqisi2	@ D.6831, c
 382 0068 A3F16102 		sub	r2, r3, #97	@ D.6831, D.6831,
 383 006c 194B     		ldr	r3, .L16+4	@ tmp144,
 384 006e 33F81230 		ldrh	r3, [r3, r2, lsl #1]	@ movhi	@ tmp145, CapLetterMap
 385 0072 FB81     		strh	r3, [r7, #14]	@ movhi	@ tmp145, ch
 386              	.L10:
 248:peripherals/lcd.cpp ****       }
 249:peripherals/lcd.cpp ****       break;
 387              		.loc 1 249 0
 388 0074 00BF     		nop
 389              	.L8:
 250:peripherals/lcd.cpp ****   }
 251:peripherals/lcd.cpp **** 
 252:peripherals/lcd.cpp ****   /* Set the digital point can be displayed if the point is on */
 253:peripherals/lcd.cpp ****   if (point)
 390              		.loc 1 253 0
 391 0076 BB79     		ldrb	r3, [r7, #6]	@ zero_extendqisi2	@ tmp146, point
 392 0078 002B     		cmp	r3, #0	@ tmp146,
 393 007a 03D0     		beq	.L11	@,
 254:peripherals/lcd.cpp ****   {
 255:peripherals/lcd.cpp ****     ch |= 0x0002;
 394              		.loc 1 255 0
 395 007c FB89     		ldrh	r3, [r7, #14]	@ movhi	@ tmp147, ch
 396 007e 43F00203 		orr	r3, r3, #2	@ tmp148, tmp147,
 397 0082 FB81     		strh	r3, [r7, #14]	@ movhi	@ tmp149, ch
 398              	.L11:
 256:peripherals/lcd.cpp ****   }
 257:peripherals/lcd.cpp **** 
 258:peripherals/lcd.cpp ****   /* Set the "COL" segment in the character that can be displayed if the column is on */
 259:peripherals/lcd.cpp ****   if (column)
 399              		.loc 1 259 0
 400 0084 7B79     		ldrb	r3, [r7, #5]	@ zero_extendqisi2	@ tmp150, column
 401 0086 002B     		cmp	r3, #0	@ tmp150,
 402 0088 03D0     		beq	.L12	@,
 260:peripherals/lcd.cpp ****   {
 261:peripherals/lcd.cpp ****     ch |= 0x0020;
 403              		.loc 1 261 0
 404 008a FB89     		ldrh	r3, [r7, #14]	@ movhi	@ tmp151, ch
 405 008c 43F02003 		orr	r3, r3, #32	@ tmp152, tmp151,
 406 0090 FB81     		strh	r3, [r7, #14]	@ movhi	@ tmp153, ch
 407              	.L12:
 262:peripherals/lcd.cpp ****   }
 263:peripherals/lcd.cpp **** 
 264:peripherals/lcd.cpp ****   for (i = 12,j=0 ;j<4; i-=4,j++)
 408              		.loc 1 264 0
 409 0092 0C23     		movs	r3, #12	@ tmp154,
 410 0094 7B73     		strb	r3, [r7, #13]	@ tmp155, i
 411 0096 0023     		movs	r3, #0	@ tmp156,
 412 0098 3B73     		strb	r3, [r7, #12]	@ tmp157, j
 413 009a 11E0     		b	.L13	@
 414              	.L14:
 265:peripherals/lcd.cpp ****   {
 266:peripherals/lcd.cpp ****     digit[j] = (ch >> i) & 0x0f; //To isolate the less signifiant dibit
 415              		.loc 1 266 0 discriminator 2
 416 009c 3B7B     		ldrb	r3, [r7, #12]	@ zero_extendqisi2	@ D.6832, j
 417 009e 3A68     		ldr	r2, [r7]	@ tmp158, digit
 418 00a0 1344     		add	r3, r3, r2	@ D.6833, tmp158
ARM GAS  C:\Users\Adrian\AppData\Local\Temp\ccHpd0c2.s 			page 13


 419 00a2 F989     		ldrh	r1, [r7, #14]	@ D.6831, ch
 420 00a4 7A7B     		ldrb	r2, [r7, #13]	@ zero_extendqisi2	@ D.6831, i
 421 00a6 41FA02F2 		asr	r2, r1, r2	@ D.6831, D.6831, D.6831
 422 00aa D2B2     		uxtb	r2, r2	@ D.6834, D.6831
 423 00ac 02F00F02 		and	r2, r2, #15	@ tmp159, D.6834,
 424 00b0 D2B2     		uxtb	r2, r2	@ D.6834, tmp159
 425 00b2 1A70     		strb	r2, [r3]	@ tmp160, *_29
 264:peripherals/lcd.cpp ****   for (i = 12,j=0 ;j<4; i-=4,j++)
 426              		.loc 1 264 0 discriminator 2
 427 00b4 7B7B     		ldrb	r3, [r7, #13]	@ tmp161, i
 428 00b6 043B     		subs	r3, r3, #4	@ tmp162, tmp161,
 429 00b8 7B73     		strb	r3, [r7, #13]	@ tmp163, i
 430 00ba 3B7B     		ldrb	r3, [r7, #12]	@ zero_extendqisi2	@ j.0, j
 431 00bc 0133     		adds	r3, r3, #1	@ tmp164, j.0,
 432 00be 3B73     		strb	r3, [r7, #12]	@ tmp165, j
 433              	.L13:
 264:peripherals/lcd.cpp ****   for (i = 12,j=0 ;j<4; i-=4,j++)
 434              		.loc 1 264 0 is_stmt 0 discriminator 1
 435 00c0 3B7B     		ldrb	r3, [r7, #12]	@ zero_extendqisi2	@ tmp166, j
 436 00c2 032B     		cmp	r3, #3	@ tmp166,
 437 00c4 EAD9     		bls	.L14	@,
 438              	.LBE2:
 267:peripherals/lcd.cpp ****   }
 268:peripherals/lcd.cpp **** }
 439              		.loc 1 268 0 is_stmt 1
 440 00c6 1437     		adds	r7, r7, #20	@,,
 441 00c8 BD46     		mov	sp, r7	@,
 442              		@ sp needed	@
 443 00ca 5DF8047B 		ldr	r7, [sp], #4	@,
 444 00ce 7047     		bx	lr	@
 445              	.L17:
 446              		.align	2
 447              	.L16:
 448 00d0 00000000 		.word	_ZL9NumberMap
 449 00d4 00000000 		.word	_ZL12CapLetterMap
 450              		.cfi_endproc
 451              	.LFE56:
 452              		.size	_Z17LCD_Conv_Char_SegcbbPh, .-_Z17LCD_Conv_Char_SegcbbPh
 453              		.section	.text._Z13LCD_WriteCharcbbh,"ax",%progbits
 454              		.align	2
 455              		.global	_Z13LCD_WriteCharcbbh
 456              		.thumb
 457              		.thumb_func
 458              		.type	_Z13LCD_WriteCharcbbh, %function
 459              	_Z13LCD_WriteCharcbbh:
 460              	.LFB57:
 269:peripherals/lcd.cpp **** 
 270:peripherals/lcd.cpp **** /**
 271:peripherals/lcd.cpp ****  * \brief  Writes a char on the LCD.
 272:peripherals/lcd.cpp ****  *
 273:peripherals/lcd.cpp ****  * \param [in] Char to display
 274:peripherals/lcd.cpp ****  * \param [in] Point display enable. Values 0 or 1.
 275:peripherals/lcd.cpp ****  * \param [in] Colon display enable. Values 0 or 1.
 276:peripherals/lcd.cpp ****  * \param [in] Digit number. Values from 1 to 6.
 277:peripherals/lcd.cpp ****  *
 278:peripherals/lcd.cpp ****  */
 279:peripherals/lcd.cpp **** void LCD_WriteChar(char ch, bool point, bool column, uint8_t position)
ARM GAS  C:\Users\Adrian\AppData\Local\Temp\ccHpd0c2.s 			page 14


 280:peripherals/lcd.cpp **** {
 461              		.loc 1 280 0
 462              		.cfi_startproc
 463              		@ args = 0, pretend = 0, frame = 16
 464              		@ frame_needed = 1, uses_anonymous_args = 0
 465 0000 80B5     		push	{r7, lr}	@
 466              		.cfi_def_cfa_offset 8
 467              		.cfi_offset 7, -8
 468              		.cfi_offset 14, -4
 469 0002 84B0     		sub	sp, sp, #16	@,,
 470              		.cfi_def_cfa_offset 24
 471 0004 00AF     		add	r7, sp, #0	@,,
 472              		.cfi_def_cfa_register 7
 473 0006 F871     		strb	r0, [r7, #7]	@ tmp588, ch
 474 0008 B971     		strb	r1, [r7, #6]	@ tmp590, point
 475 000a 7A71     		strb	r2, [r7, #5]	@ tmp592, column
 476 000c 3B71     		strb	r3, [r7, #4]	@ tmp594, position
 477              	.LBB3:
 281:peripherals/lcd.cpp ****   uint8_t digit[4];     /* Digit frame buffer */
 282:peripherals/lcd.cpp **** 
 283:peripherals/lcd.cpp **** /* To convert displayed character in segment in array digit */
 284:peripherals/lcd.cpp ****   LCD_Conv_Char_Seg(ch,point,column,digit);
 478              		.loc 1 284 0
 479 000e F879     		ldrb	r0, [r7, #7]	@ zero_extendqisi2	@ tmp595, ch
 480 0010 B979     		ldrb	r1, [r7, #6]	@ zero_extendqisi2	@ tmp596, point
 481 0012 7A79     		ldrb	r2, [r7, #5]	@ zero_extendqisi2	@ tmp597, column
 482 0014 07F10C03 		add	r3, r7, #12	@ tmp598,,
 483 0018 FFF7FEFF 		bl	_Z17LCD_Conv_Char_SegcbbPh	@
 285:peripherals/lcd.cpp **** 
 286:peripherals/lcd.cpp ****   while((LCD->SR&LCD_SR_UDR)!=0);
 484              		.loc 1 286 0
 485 001c 00BF     		nop
 486              	.L19:
 487              		.loc 1 286 0 is_stmt 0 discriminator 1
 488 001e 994B     		ldr	r3, .L30	@ D.6835,
 489 0020 9B68     		ldr	r3, [r3, #8]	@ D.6836, _4->SR
 490 0022 03F00403 		and	r3, r3, #4	@ D.6836, D.6836,
 491 0026 002B     		cmp	r3, #0	@ D.6836,
 492 0028 0CBF     		ite	eq	@
 493 002a 0023     		moveq	r3, #0	@, tmp600
 494 002c 0123     		movne	r3, #1	@, tmp600
 495 002e DBB2     		uxtb	r3, r3	@ retval.1, tmp599
 496 0030 002B     		cmp	r3, #0	@ retval.1,
 497 0032 F4D1     		bne	.L19	@,
 287:peripherals/lcd.cpp **** 
 288:peripherals/lcd.cpp ****   switch (position)
 498              		.loc 1 288 0 is_stmt 1
 499 0034 3B79     		ldrb	r3, [r7, #4]	@ zero_extendqisi2	@ D.6837, position
 500 0036 013B     		subs	r3, r3, #1	@ tmp601, D.6837,
 501 0038 052B     		cmp	r3, #5	@ tmp601,
 502 003a 00F23282 		bhi	.L29	@
 503 003e 01A2     		adr	r2, .L22	@,
 504 0040 52F823F0 		ldr	pc, [r2, r3, lsl #2]	@, tmp601
 505              		.p2align 2
 506              	.L22:
 507 0044 5D000000 		.word	.L21+1
 508 0048 07010000 		.word	.L23+1
ARM GAS  C:\Users\Adrian\AppData\Local\Temp\ccHpd0c2.s 			page 15


 509 004c E1010000 		.word	.L24+1
 510 0050 89020000 		.word	.L25+1
 511 0054 3B030000 		.word	.L26+1
 512 0058 DD030000 		.word	.L27+1
 513              		.p2align 1
 514              	.L21:
 289:peripherals/lcd.cpp ****   {
 290:peripherals/lcd.cpp ****     /* Position 1 on LCD (Digit1)*/
 291:peripherals/lcd.cpp ****     case 1:
 292:peripherals/lcd.cpp ****       LCD->RAM[0] &= 0xcffffffc;
 515              		.loc 1 292 0
 516 005c 894A     		ldr	r2, .L30	@ D.6835,
 517 005e 894B     		ldr	r3, .L30	@ D.6835,
 518 0060 5B69     		ldr	r3, [r3, #20]	@ D.6836, _11->RAM
 519 0062 23F04053 		bic	r3, r3, #805306368	@ D.6836, D.6836,
 520 0066 23F00303 		bic	r3, r3, #3	@ D.6836, D.6836,
 521 006a 5361     		str	r3, [r2, #20]	@ D.6836, _10->RAM
 293:peripherals/lcd.cpp ****       LCD->RAM[2] &= 0xcffffffc;
 522              		.loc 1 293 0
 523 006c 854A     		ldr	r2, .L30	@ D.6835,
 524 006e 854B     		ldr	r3, .L30	@ D.6835,
 525 0070 DB69     		ldr	r3, [r3, #28]	@ D.6836, _15->RAM
 526 0072 23F04053 		bic	r3, r3, #805306368	@ D.6836, D.6836,
 527 0076 23F00303 		bic	r3, r3, #3	@ D.6836, D.6836,
 528 007a D361     		str	r3, [r2, #28]	@ D.6836, _14->RAM
 294:peripherals/lcd.cpp ****       LCD->RAM[4] &= 0xcffffffc;
 529              		.loc 1 294 0
 530 007c 814A     		ldr	r2, .L30	@ D.6835,
 531 007e 814B     		ldr	r3, .L30	@ D.6835,
 532 0080 5B6A     		ldr	r3, [r3, #36]	@ D.6836, _19->RAM
 533 0082 23F04053 		bic	r3, r3, #805306368	@ D.6836, D.6836,
 534 0086 23F00303 		bic	r3, r3, #3	@ D.6836, D.6836,
 535 008a 5362     		str	r3, [r2, #36]	@ D.6836, _18->RAM
 295:peripherals/lcd.cpp ****       LCD->RAM[6] &= 0xcffffffc;
 536              		.loc 1 295 0
 537 008c 7D4A     		ldr	r2, .L30	@ D.6835,
 538 008e 7D4B     		ldr	r3, .L30	@ D.6835,
 539 0090 DB6A     		ldr	r3, [r3, #44]	@ D.6836, _23->RAM
 540 0092 23F04053 		bic	r3, r3, #805306368	@ D.6836, D.6836,
 541 0096 23F00303 		bic	r3, r3, #3	@ D.6836, D.6836,
 542 009a D362     		str	r3, [r2, #44]	@ D.6836, _22->RAM
 296:peripherals/lcd.cpp **** 
 297:peripherals/lcd.cpp ****       LCD->RAM[0] |= ((digit[0]& 0x0c) << 26 ) | (digit[0]& 0x03) ; // 1G 1B 1M 1E
 543              		.loc 1 297 0
 544 009c 794B     		ldr	r3, .L30	@ D.6835,
 545 009e 794A     		ldr	r2, .L30	@ D.6835,
 546 00a0 5169     		ldr	r1, [r2, #20]	@ D.6836, _27->RAM
 547 00a2 3A7B     		ldrb	r2, [r7, #12]	@ zero_extendqisi2	@ D.6838, digit
 548 00a4 02F00C02 		and	r2, r2, #12	@ D.6837, D.6837,
 549 00a8 9006     		lsls	r0, r2, #26	@ D.6837, D.6837,
 550 00aa 3A7B     		ldrb	r2, [r7, #12]	@ zero_extendqisi2	@ D.6838, digit
 551 00ac 02F00302 		and	r2, r2, #3	@ D.6837, D.6837,
 552 00b0 0243     		orrs	r2, r2, r0	@, D.6837, D.6837, D.6837
 553 00b2 0A43     		orrs	r2, r2, r1	@, D.6836, D.6836, D.6836
 554 00b4 5A61     		str	r2, [r3, #20]	@ D.6836, _26->RAM
 298:peripherals/lcd.cpp ****       LCD->RAM[2] |= ((digit[1]& 0x0c) << 26 ) | (digit[1]& 0x03) ; // 1F 1A 1C 1D
 555              		.loc 1 298 0
ARM GAS  C:\Users\Adrian\AppData\Local\Temp\ccHpd0c2.s 			page 16


 556 00b6 734B     		ldr	r3, .L30	@ D.6835,
 557 00b8 724A     		ldr	r2, .L30	@ D.6835,
 558 00ba D169     		ldr	r1, [r2, #28]	@ D.6836, _40->RAM
 559 00bc 7A7B     		ldrb	r2, [r7, #13]	@ zero_extendqisi2	@ D.6838, digit
 560 00be 02F00C02 		and	r2, r2, #12	@ D.6837, D.6837,
 561 00c2 9006     		lsls	r0, r2, #26	@ D.6837, D.6837,
 562 00c4 7A7B     		ldrb	r2, [r7, #13]	@ zero_extendqisi2	@ D.6838, digit
 563 00c6 02F00302 		and	r2, r2, #3	@ D.6837, D.6837,
 564 00ca 0243     		orrs	r2, r2, r0	@, D.6837, D.6837, D.6837
 565 00cc 0A43     		orrs	r2, r2, r1	@, D.6836, D.6836, D.6836
 566 00ce DA61     		str	r2, [r3, #28]	@ D.6836, _39->RAM
 299:peripherals/lcd.cpp ****       LCD->RAM[4] |= ((digit[2]& 0x0c) << 26 ) | (digit[2]& 0x03) ; // 1Q 1K 1Col 1P
 567              		.loc 1 299 0
 568 00d0 6C4B     		ldr	r3, .L30	@ D.6835,
 569 00d2 6C4A     		ldr	r2, .L30	@ D.6835,
 570 00d4 516A     		ldr	r1, [r2, #36]	@ D.6836, _53->RAM
 571 00d6 BA7B     		ldrb	r2, [r7, #14]	@ zero_extendqisi2	@ D.6838, digit
 572 00d8 02F00C02 		and	r2, r2, #12	@ D.6837, D.6837,
 573 00dc 9006     		lsls	r0, r2, #26	@ D.6837, D.6837,
 574 00de BA7B     		ldrb	r2, [r7, #14]	@ zero_extendqisi2	@ D.6838, digit
 575 00e0 02F00302 		and	r2, r2, #3	@ D.6837, D.6837,
 576 00e4 0243     		orrs	r2, r2, r0	@, D.6837, D.6837, D.6837
 577 00e6 0A43     		orrs	r2, r2, r1	@, D.6836, D.6836, D.6836
 578 00e8 5A62     		str	r2, [r3, #36]	@ D.6836, _52->RAM
 300:peripherals/lcd.cpp ****       LCD->RAM[6] |= ((digit[3]& 0x0c) << 26 ) | (digit[3]& 0x03) ; // 1H 1J 1DP 1N
 579              		.loc 1 300 0
 580 00ea 664B     		ldr	r3, .L30	@ D.6835,
 581 00ec 654A     		ldr	r2, .L30	@ D.6835,
 582 00ee D16A     		ldr	r1, [r2, #44]	@ D.6836, _66->RAM
 583 00f0 FA7B     		ldrb	r2, [r7, #15]	@ zero_extendqisi2	@ D.6838, digit
 584 00f2 02F00C02 		and	r2, r2, #12	@ D.6837, D.6837,
 585 00f6 9006     		lsls	r0, r2, #26	@ D.6837, D.6837,
 586 00f8 FA7B     		ldrb	r2, [r7, #15]	@ zero_extendqisi2	@ D.6838, digit
 587 00fa 02F00302 		and	r2, r2, #3	@ D.6837, D.6837,
 588 00fe 0243     		orrs	r2, r2, r0	@, D.6837, D.6837, D.6837
 589 0100 0A43     		orrs	r2, r2, r1	@, D.6836, D.6836, D.6836
 590 0102 DA62     		str	r2, [r3, #44]	@ D.6836, _65->RAM
 301:peripherals/lcd.cpp **** 
 302:peripherals/lcd.cpp ****       break;
 591              		.loc 1 302 0
 592 0104 CEE1     		b	.L28	@
 593              	.L23:
 303:peripherals/lcd.cpp **** 
 304:peripherals/lcd.cpp ****     /* Position 2 on LCD (Digit2)*/
 305:peripherals/lcd.cpp ****     case 2:
 306:peripherals/lcd.cpp ****       LCD->RAM[0] &= 0xf3ffff03;
 594              		.loc 1 306 0
 595 0106 5F4A     		ldr	r2, .L30	@ D.6835,
 596 0108 5E4B     		ldr	r3, .L30	@ D.6835,
 597 010a 5B69     		ldr	r3, [r3, #20]	@ D.6836, _79->RAM
 598 010c 23F04063 		bic	r3, r3, #201326592	@ D.6836, D.6836,
 599 0110 23F0FC03 		bic	r3, r3, #252	@ D.6836, D.6836,
 600 0114 5361     		str	r3, [r2, #20]	@ D.6836, _78->RAM
 307:peripherals/lcd.cpp ****       LCD->RAM[2] &= 0xf3ffff03;
 601              		.loc 1 307 0
 602 0116 5B4A     		ldr	r2, .L30	@ D.6835,
 603 0118 5A4B     		ldr	r3, .L30	@ D.6835,
ARM GAS  C:\Users\Adrian\AppData\Local\Temp\ccHpd0c2.s 			page 17


 604 011a DB69     		ldr	r3, [r3, #28]	@ D.6836, _83->RAM
 605 011c 23F04063 		bic	r3, r3, #201326592	@ D.6836, D.6836,
 606 0120 23F0FC03 		bic	r3, r3, #252	@ D.6836, D.6836,
 607 0124 D361     		str	r3, [r2, #28]	@ D.6836, _82->RAM
 308:peripherals/lcd.cpp ****       LCD->RAM[4] &= 0xf3ffff03;
 608              		.loc 1 308 0
 609 0126 574A     		ldr	r2, .L30	@ D.6835,
 610 0128 564B     		ldr	r3, .L30	@ D.6835,
 611 012a 5B6A     		ldr	r3, [r3, #36]	@ D.6836, _87->RAM
 612 012c 23F04063 		bic	r3, r3, #201326592	@ D.6836, D.6836,
 613 0130 23F0FC03 		bic	r3, r3, #252	@ D.6836, D.6836,
 614 0134 5362     		str	r3, [r2, #36]	@ D.6836, _86->RAM
 309:peripherals/lcd.cpp ****       LCD->RAM[6] &= 0xf3ffff03;
 615              		.loc 1 309 0
 616 0136 534A     		ldr	r2, .L30	@ D.6835,
 617 0138 524B     		ldr	r3, .L30	@ D.6835,
 618 013a DB6A     		ldr	r3, [r3, #44]	@ D.6836, _91->RAM
 619 013c 23F04063 		bic	r3, r3, #201326592	@ D.6836, D.6836,
 620 0140 23F0FC03 		bic	r3, r3, #252	@ D.6836, D.6836,
 621 0144 D362     		str	r3, [r2, #44]	@ D.6836, _90->RAM
 310:peripherals/lcd.cpp **** 
 311:peripherals/lcd.cpp ****       LCD->RAM[0] |= ((digit[0]& 0x0c) << 24 )|((digit[0]& 0x02) << 6 )|((digit[0]& 0x01) << 2 ) ; 
 622              		.loc 1 311 0
 623 0146 4F4B     		ldr	r3, .L30	@ D.6835,
 624 0148 4E4A     		ldr	r2, .L30	@ D.6835,
 625 014a 5169     		ldr	r1, [r2, #20]	@ D.6836, _95->RAM
 626 014c 3A7B     		ldrb	r2, [r7, #12]	@ zero_extendqisi2	@ D.6838, digit
 627 014e 02F00C02 		and	r2, r2, #12	@ D.6837, D.6837,
 628 0152 1006     		lsls	r0, r2, #24	@ D.6837, D.6837,
 629 0154 3A7B     		ldrb	r2, [r7, #12]	@ zero_extendqisi2	@ D.6838, digit
 630 0156 02F00202 		and	r2, r2, #2	@ D.6837, D.6837,
 631 015a 9201     		lsls	r2, r2, #6	@ D.6837, D.6837,
 632 015c 1043     		orrs	r0, r0, r2	@, D.6837, D.6837, D.6837
 633 015e 3A7B     		ldrb	r2, [r7, #12]	@ zero_extendqisi2	@ D.6838, digit
 634 0160 02F00102 		and	r2, r2, #1	@ D.6837, D.6837,
 635 0164 9200     		lsls	r2, r2, #2	@ D.6837, D.6837,
 636 0166 0243     		orrs	r2, r2, r0	@, D.6837, D.6837, D.6837
 637 0168 0A43     		orrs	r2, r2, r1	@, D.6836, D.6836, D.6836
 638 016a 5A61     		str	r2, [r3, #20]	@ D.6836, _94->RAM
 312:peripherals/lcd.cpp ****       LCD->RAM[2] |= ((digit[1]& 0x0c) << 24 )|((digit[1]& 0x02) << 6 )|((digit[1]& 0x01) << 2 ) ; 
 639              		.loc 1 312 0
 640 016c 454B     		ldr	r3, .L30	@ D.6835,
 641 016e 454A     		ldr	r2, .L30	@ D.6835,
 642 0170 D169     		ldr	r1, [r2, #28]	@ D.6836, _114->RAM
 643 0172 7A7B     		ldrb	r2, [r7, #13]	@ zero_extendqisi2	@ D.6838, digit
 644 0174 02F00C02 		and	r2, r2, #12	@ D.6837, D.6837,
 645 0178 1006     		lsls	r0, r2, #24	@ D.6837, D.6837,
 646 017a 7A7B     		ldrb	r2, [r7, #13]	@ zero_extendqisi2	@ D.6838, digit
 647 017c 02F00202 		and	r2, r2, #2	@ D.6837, D.6837,
 648 0180 9201     		lsls	r2, r2, #6	@ D.6837, D.6837,
 649 0182 1043     		orrs	r0, r0, r2	@, D.6837, D.6837, D.6837
 650 0184 7A7B     		ldrb	r2, [r7, #13]	@ zero_extendqisi2	@ D.6838, digit
 651 0186 02F00102 		and	r2, r2, #1	@ D.6837, D.6837,
 652 018a 9200     		lsls	r2, r2, #2	@ D.6837, D.6837,
 653 018c 0243     		orrs	r2, r2, r0	@, D.6837, D.6837, D.6837
 654 018e 0A43     		orrs	r2, r2, r1	@, D.6836, D.6836, D.6836
 655 0190 DA61     		str	r2, [r3, #28]	@ D.6836, _113->RAM
ARM GAS  C:\Users\Adrian\AppData\Local\Temp\ccHpd0c2.s 			page 18


 313:peripherals/lcd.cpp ****       LCD->RAM[4] |= ((digit[2]& 0x0c) << 24 )|((digit[2]& 0x02) << 6 )|((digit[2]& 0x01) << 2 ) ; 
 656              		.loc 1 313 0
 657 0192 3C4B     		ldr	r3, .L30	@ D.6835,
 658 0194 3B4A     		ldr	r2, .L30	@ D.6835,
 659 0196 516A     		ldr	r1, [r2, #36]	@ D.6836, _133->RAM
 660 0198 BA7B     		ldrb	r2, [r7, #14]	@ zero_extendqisi2	@ D.6838, digit
 661 019a 02F00C02 		and	r2, r2, #12	@ D.6837, D.6837,
 662 019e 1006     		lsls	r0, r2, #24	@ D.6837, D.6837,
 663 01a0 BA7B     		ldrb	r2, [r7, #14]	@ zero_extendqisi2	@ D.6838, digit
 664 01a2 02F00202 		and	r2, r2, #2	@ D.6837, D.6837,
 665 01a6 9201     		lsls	r2, r2, #6	@ D.6837, D.6837,
 666 01a8 1043     		orrs	r0, r0, r2	@, D.6837, D.6837, D.6837
 667 01aa BA7B     		ldrb	r2, [r7, #14]	@ zero_extendqisi2	@ D.6838, digit
 668 01ac 02F00102 		and	r2, r2, #1	@ D.6837, D.6837,
 669 01b0 9200     		lsls	r2, r2, #2	@ D.6837, D.6837,
 670 01b2 0243     		orrs	r2, r2, r0	@, D.6837, D.6837, D.6837
 671 01b4 0A43     		orrs	r2, r2, r1	@, D.6836, D.6836, D.6836
 672 01b6 5A62     		str	r2, [r3, #36]	@ D.6836, _132->RAM
 314:peripherals/lcd.cpp ****       LCD->RAM[6] |= ((digit[3]& 0x0c) << 24 )|((digit[3]& 0x02) << 6 )|((digit[3]& 0x01) << 2 ) ; 
 673              		.loc 1 314 0
 674 01b8 324B     		ldr	r3, .L30	@ D.6835,
 675 01ba 324A     		ldr	r2, .L30	@ D.6835,
 676 01bc D16A     		ldr	r1, [r2, #44]	@ D.6836, _152->RAM
 677 01be FA7B     		ldrb	r2, [r7, #15]	@ zero_extendqisi2	@ D.6838, digit
 678 01c0 02F00C02 		and	r2, r2, #12	@ D.6837, D.6837,
 679 01c4 1006     		lsls	r0, r2, #24	@ D.6837, D.6837,
 680 01c6 FA7B     		ldrb	r2, [r7, #15]	@ zero_extendqisi2	@ D.6838, digit
 681 01c8 02F00202 		and	r2, r2, #2	@ D.6837, D.6837,
 682 01cc 9201     		lsls	r2, r2, #6	@ D.6837, D.6837,
 683 01ce 1043     		orrs	r0, r0, r2	@, D.6837, D.6837, D.6837
 684 01d0 FA7B     		ldrb	r2, [r7, #15]	@ zero_extendqisi2	@ D.6838, digit
 685 01d2 02F00102 		and	r2, r2, #1	@ D.6837, D.6837,
 686 01d6 9200     		lsls	r2, r2, #2	@ D.6837, D.6837,
 687 01d8 0243     		orrs	r2, r2, r0	@, D.6837, D.6837, D.6837
 688 01da 0A43     		orrs	r2, r2, r1	@, D.6836, D.6836, D.6836
 689 01dc DA62     		str	r2, [r3, #44]	@ D.6836, _151->RAM
 315:peripherals/lcd.cpp **** 
 316:peripherals/lcd.cpp ****       break;
 690              		.loc 1 316 0
 691 01de 61E1     		b	.L28	@
 692              	.L24:
 317:peripherals/lcd.cpp **** 
 318:peripherals/lcd.cpp ****     /* Position 3 on LCD (Digit3)*/
 319:peripherals/lcd.cpp ****     case 3:
 320:peripherals/lcd.cpp ****       LCD->RAM[0] &= 0xfcfffcff;
 693              		.loc 1 320 0
 694 01e0 284B     		ldr	r3, .L30	@ D.6835,
 695 01e2 284A     		ldr	r2, .L30	@ D.6835,
 696 01e4 5269     		ldr	r2, [r2, #20]	@ D.6836, _171->RAM
 697 01e6 22F00322 		bic	r2, r2, #50332416	@ D.6836, D.6836,
 698 01ea 5A61     		str	r2, [r3, #20]	@ D.6836, _170->RAM
 321:peripherals/lcd.cpp ****       LCD->RAM[2] &= 0xfcfffcff;
 699              		.loc 1 321 0
 700 01ec 254B     		ldr	r3, .L30	@ D.6835,
 701 01ee 254A     		ldr	r2, .L30	@ D.6835,
 702 01f0 D269     		ldr	r2, [r2, #28]	@ D.6836, _175->RAM
 703 01f2 22F00322 		bic	r2, r2, #50332416	@ D.6836, D.6836,
ARM GAS  C:\Users\Adrian\AppData\Local\Temp\ccHpd0c2.s 			page 19


 704 01f6 DA61     		str	r2, [r3, #28]	@ D.6836, _174->RAM
 322:peripherals/lcd.cpp ****       LCD->RAM[4] &= 0xfcfffcff;
 705              		.loc 1 322 0
 706 01f8 224B     		ldr	r3, .L30	@ D.6835,
 707 01fa 224A     		ldr	r2, .L30	@ D.6835,
 708 01fc 526A     		ldr	r2, [r2, #36]	@ D.6836, _179->RAM
 709 01fe 22F00322 		bic	r2, r2, #50332416	@ D.6836, D.6836,
 710 0202 5A62     		str	r2, [r3, #36]	@ D.6836, _178->RAM
 323:peripherals/lcd.cpp ****       LCD->RAM[6] &= 0xfcfffcff;
 711              		.loc 1 323 0
 712 0204 1F4B     		ldr	r3, .L30	@ D.6835,
 713 0206 1F4A     		ldr	r2, .L30	@ D.6835,
 714 0208 D26A     		ldr	r2, [r2, #44]	@ D.6836, _183->RAM
 715 020a 22F00322 		bic	r2, r2, #50332416	@ D.6836, D.6836,
 716 020e DA62     		str	r2, [r3, #44]	@ D.6836, _182->RAM
 324:peripherals/lcd.cpp **** 
 325:peripherals/lcd.cpp ****       LCD->RAM[0] |= ((digit[0]& 0x0c) << 22 ) | ((digit[0]& 0x03) << 8 ) ; // 3G 3B 3M 3E
 717              		.loc 1 325 0
 718 0210 1C4B     		ldr	r3, .L30	@ D.6835,
 719 0212 1C4A     		ldr	r2, .L30	@ D.6835,
 720 0214 5169     		ldr	r1, [r2, #20]	@ D.6836, _187->RAM
 721 0216 3A7B     		ldrb	r2, [r7, #12]	@ zero_extendqisi2	@ D.6838, digit
 722 0218 02F00C02 		and	r2, r2, #12	@ D.6837, D.6837,
 723 021c 9005     		lsls	r0, r2, #22	@ D.6837, D.6837,
 724 021e 3A7B     		ldrb	r2, [r7, #12]	@ zero_extendqisi2	@ D.6838, digit
 725 0220 02F00302 		and	r2, r2, #3	@ D.6837, D.6837,
 726 0224 1202     		lsls	r2, r2, #8	@ D.6837, D.6837,
 727 0226 0243     		orrs	r2, r2, r0	@, D.6837, D.6837, D.6837
 728 0228 0A43     		orrs	r2, r2, r1	@, D.6836, D.6836, D.6836
 729 022a 5A61     		str	r2, [r3, #20]	@ D.6836, _186->RAM
 326:peripherals/lcd.cpp ****       LCD->RAM[2] |= ((digit[1]& 0x0c) << 22 ) | ((digit[1]& 0x03) << 8 ) ; // 3F 3A 3C 3D
 730              		.loc 1 326 0
 731 022c 154B     		ldr	r3, .L30	@ D.6835,
 732 022e 154A     		ldr	r2, .L30	@ D.6835,
 733 0230 D169     		ldr	r1, [r2, #28]	@ D.6836, _201->RAM
 734 0232 7A7B     		ldrb	r2, [r7, #13]	@ zero_extendqisi2	@ D.6838, digit
 735 0234 02F00C02 		and	r2, r2, #12	@ D.6837, D.6837,
 736 0238 9005     		lsls	r0, r2, #22	@ D.6837, D.6837,
 737 023a 7A7B     		ldrb	r2, [r7, #13]	@ zero_extendqisi2	@ D.6838, digit
 738 023c 02F00302 		and	r2, r2, #3	@ D.6837, D.6837,
 739 0240 1202     		lsls	r2, r2, #8	@ D.6837, D.6837,
 740 0242 0243     		orrs	r2, r2, r0	@, D.6837, D.6837, D.6837
 741 0244 0A43     		orrs	r2, r2, r1	@, D.6836, D.6836, D.6836
 742 0246 DA61     		str	r2, [r3, #28]	@ D.6836, _200->RAM
 327:peripherals/lcd.cpp ****       LCD->RAM[4] |= ((digit[2]& 0x0c) << 22 ) | ((digit[2]& 0x03) << 8 ) ; // 3Q 3K 3Col 3P
 743              		.loc 1 327 0
 744 0248 0E4B     		ldr	r3, .L30	@ D.6835,
 745 024a 0E4A     		ldr	r2, .L30	@ D.6835,
 746 024c 516A     		ldr	r1, [r2, #36]	@ D.6836, _215->RAM
 747 024e BA7B     		ldrb	r2, [r7, #14]	@ zero_extendqisi2	@ D.6838, digit
 748 0250 02F00C02 		and	r2, r2, #12	@ D.6837, D.6837,
 749 0254 9005     		lsls	r0, r2, #22	@ D.6837, D.6837,
 750 0256 BA7B     		ldrb	r2, [r7, #14]	@ zero_extendqisi2	@ D.6838, digit
 751 0258 02F00302 		and	r2, r2, #3	@ D.6837, D.6837,
 752 025c 1202     		lsls	r2, r2, #8	@ D.6837, D.6837,
 753 025e 0243     		orrs	r2, r2, r0	@, D.6837, D.6837, D.6837
 754 0260 0A43     		orrs	r2, r2, r1	@, D.6836, D.6836, D.6836
ARM GAS  C:\Users\Adrian\AppData\Local\Temp\ccHpd0c2.s 			page 20


 755 0262 5A62     		str	r2, [r3, #36]	@ D.6836, _214->RAM
 328:peripherals/lcd.cpp ****       LCD->RAM[6] |= ((digit[3]& 0x0c) << 22 ) | ((digit[3]& 0x03) << 8 ) ; // 3H 3J 3DP 3N
 756              		.loc 1 328 0
 757 0264 074B     		ldr	r3, .L30	@ D.6835,
 758 0266 074A     		ldr	r2, .L30	@ D.6835,
 759 0268 D16A     		ldr	r1, [r2, #44]	@ D.6836, _229->RAM
 760 026a FA7B     		ldrb	r2, [r7, #15]	@ zero_extendqisi2	@ D.6838, digit
 761 026c 02F00C02 		and	r2, r2, #12	@ D.6837, D.6837,
 762 0270 9005     		lsls	r0, r2, #22	@ D.6837, D.6837,
 763 0272 FA7B     		ldrb	r2, [r7, #15]	@ zero_extendqisi2	@ D.6838, digit
 764 0274 02F00302 		and	r2, r2, #3	@ D.6837, D.6837,
 765 0278 1202     		lsls	r2, r2, #8	@ D.6837, D.6837,
 766 027a 0243     		orrs	r2, r2, r0	@, D.6837, D.6837, D.6837
 767 027c 0A43     		orrs	r2, r2, r1	@, D.6836, D.6836, D.6836
 768 027e DA62     		str	r2, [r3, #44]	@ D.6836, _228->RAM
 329:peripherals/lcd.cpp **** 
 330:peripherals/lcd.cpp ****       break;
 769              		.loc 1 330 0
 770 0280 10E1     		b	.L28	@
 771              	.L31:
 772 0282 00BF     		.align	2
 773              	.L30:
 774 0284 00240040 		.word	1073751040
 775              	.L25:
 331:peripherals/lcd.cpp **** 
 332:peripherals/lcd.cpp ****     /* Position 4 on LCD (Digit4)*/
 333:peripherals/lcd.cpp ****     case 4:
 334:peripherals/lcd.cpp ****       LCD->RAM[0] &= 0xffcff3ff;
 776              		.loc 1 334 0
 777 0288 8B4A     		ldr	r2, .L32	@ D.6835,
 778 028a 8B4B     		ldr	r3, .L32	@ D.6835,
 779 028c 5B69     		ldr	r3, [r3, #20]	@ D.6836, _243->RAM
 780 028e 23F44013 		bic	r3, r3, #3145728	@ D.6836, D.6836,
 781 0292 23F44063 		bic	r3, r3, #3072	@ D.6836, D.6836,
 782 0296 5361     		str	r3, [r2, #20]	@ D.6836, _242->RAM
 335:peripherals/lcd.cpp ****       LCD->RAM[2] &= 0xffcff3ff;
 783              		.loc 1 335 0
 784 0298 874A     		ldr	r2, .L32	@ D.6835,
 785 029a 874B     		ldr	r3, .L32	@ D.6835,
 786 029c DB69     		ldr	r3, [r3, #28]	@ D.6836, _247->RAM
 787 029e 23F44013 		bic	r3, r3, #3145728	@ D.6836, D.6836,
 788 02a2 23F44063 		bic	r3, r3, #3072	@ D.6836, D.6836,
 789 02a6 D361     		str	r3, [r2, #28]	@ D.6836, _246->RAM
 336:peripherals/lcd.cpp ****       LCD->RAM[4] &= 0xffcff3ff;
 790              		.loc 1 336 0
 791 02a8 834A     		ldr	r2, .L32	@ D.6835,
 792 02aa 834B     		ldr	r3, .L32	@ D.6835,
 793 02ac 5B6A     		ldr	r3, [r3, #36]	@ D.6836, _251->RAM
 794 02ae 23F44013 		bic	r3, r3, #3145728	@ D.6836, D.6836,
 795 02b2 23F44063 		bic	r3, r3, #3072	@ D.6836, D.6836,
 796 02b6 5362     		str	r3, [r2, #36]	@ D.6836, _250->RAM
 337:peripherals/lcd.cpp ****       LCD->RAM[6] &= 0xffcff3ff;
 797              		.loc 1 337 0
 798 02b8 7F4A     		ldr	r2, .L32	@ D.6835,
 799 02ba 7F4B     		ldr	r3, .L32	@ D.6835,
 800 02bc DB6A     		ldr	r3, [r3, #44]	@ D.6836, _255->RAM
 801 02be 23F44013 		bic	r3, r3, #3145728	@ D.6836, D.6836,
ARM GAS  C:\Users\Adrian\AppData\Local\Temp\ccHpd0c2.s 			page 21


 802 02c2 23F44063 		bic	r3, r3, #3072	@ D.6836, D.6836,
 803 02c6 D362     		str	r3, [r2, #44]	@ D.6836, _254->RAM
 338:peripherals/lcd.cpp **** 
 339:peripherals/lcd.cpp ****       LCD->RAM[0] |= ((digit[0]& 0x0c) << 18 ) | ((digit[0]& 0x03) << 10 ) ; // 4G 4B 4M 4E
 804              		.loc 1 339 0
 805 02c8 7B4B     		ldr	r3, .L32	@ D.6835,
 806 02ca 7B4A     		ldr	r2, .L32	@ D.6835,
 807 02cc 5169     		ldr	r1, [r2, #20]	@ D.6836, _259->RAM
 808 02ce 3A7B     		ldrb	r2, [r7, #12]	@ zero_extendqisi2	@ D.6838, digit
 809 02d0 02F00C02 		and	r2, r2, #12	@ D.6837, D.6837,
 810 02d4 9004     		lsls	r0, r2, #18	@ D.6837, D.6837,
 811 02d6 3A7B     		ldrb	r2, [r7, #12]	@ zero_extendqisi2	@ D.6838, digit
 812 02d8 02F00302 		and	r2, r2, #3	@ D.6837, D.6837,
 813 02dc 9202     		lsls	r2, r2, #10	@ D.6837, D.6837,
 814 02de 0243     		orrs	r2, r2, r0	@, D.6837, D.6837, D.6837
 815 02e0 0A43     		orrs	r2, r2, r1	@, D.6836, D.6836, D.6836
 816 02e2 5A61     		str	r2, [r3, #20]	@ D.6836, _258->RAM
 340:peripherals/lcd.cpp ****       LCD->RAM[2] |= ((digit[1]& 0x0c) << 18 ) | ((digit[1]& 0x03) << 10 ) ; // 4F 4A 4C 4D
 817              		.loc 1 340 0
 818 02e4 744B     		ldr	r3, .L32	@ D.6835,
 819 02e6 744A     		ldr	r2, .L32	@ D.6835,
 820 02e8 D169     		ldr	r1, [r2, #28]	@ D.6836, _273->RAM
 821 02ea 7A7B     		ldrb	r2, [r7, #13]	@ zero_extendqisi2	@ D.6838, digit
 822 02ec 02F00C02 		and	r2, r2, #12	@ D.6837, D.6837,
 823 02f0 9004     		lsls	r0, r2, #18	@ D.6837, D.6837,
 824 02f2 7A7B     		ldrb	r2, [r7, #13]	@ zero_extendqisi2	@ D.6838, digit
 825 02f4 02F00302 		and	r2, r2, #3	@ D.6837, D.6837,
 826 02f8 9202     		lsls	r2, r2, #10	@ D.6837, D.6837,
 827 02fa 0243     		orrs	r2, r2, r0	@, D.6837, D.6837, D.6837
 828 02fc 0A43     		orrs	r2, r2, r1	@, D.6836, D.6836, D.6836
 829 02fe DA61     		str	r2, [r3, #28]	@ D.6836, _272->RAM
 341:peripherals/lcd.cpp ****       LCD->RAM[4] |= ((digit[2]& 0x0c) << 18 ) | ((digit[2]& 0x03) << 10 ) ; // 4Q 4K 4Col 4P
 830              		.loc 1 341 0
 831 0300 6D4B     		ldr	r3, .L32	@ D.6835,
 832 0302 6D4A     		ldr	r2, .L32	@ D.6835,
 833 0304 516A     		ldr	r1, [r2, #36]	@ D.6836, _287->RAM
 834 0306 BA7B     		ldrb	r2, [r7, #14]	@ zero_extendqisi2	@ D.6838, digit
 835 0308 02F00C02 		and	r2, r2, #12	@ D.6837, D.6837,
 836 030c 9004     		lsls	r0, r2, #18	@ D.6837, D.6837,
 837 030e BA7B     		ldrb	r2, [r7, #14]	@ zero_extendqisi2	@ D.6838, digit
 838 0310 02F00302 		and	r2, r2, #3	@ D.6837, D.6837,
 839 0314 9202     		lsls	r2, r2, #10	@ D.6837, D.6837,
 840 0316 0243     		orrs	r2, r2, r0	@, D.6837, D.6837, D.6837
 841 0318 0A43     		orrs	r2, r2, r1	@, D.6836, D.6836, D.6836
 842 031a 5A62     		str	r2, [r3, #36]	@ D.6836, _286->RAM
 342:peripherals/lcd.cpp ****       LCD->RAM[6] |= ((digit[3]& 0x0c) << 18 ) | ((digit[3]& 0x03) << 10 ) ; // 4H 4J 4DP 4N
 843              		.loc 1 342 0
 844 031c 664B     		ldr	r3, .L32	@ D.6835,
 845 031e 664A     		ldr	r2, .L32	@ D.6835,
 846 0320 D16A     		ldr	r1, [r2, #44]	@ D.6836, _301->RAM
 847 0322 FA7B     		ldrb	r2, [r7, #15]	@ zero_extendqisi2	@ D.6838, digit
 848 0324 02F00C02 		and	r2, r2, #12	@ D.6837, D.6837,
 849 0328 9004     		lsls	r0, r2, #18	@ D.6837, D.6837,
 850 032a FA7B     		ldrb	r2, [r7, #15]	@ zero_extendqisi2	@ D.6838, digit
 851 032c 02F00302 		and	r2, r2, #3	@ D.6837, D.6837,
 852 0330 9202     		lsls	r2, r2, #10	@ D.6837, D.6837,
 853 0332 0243     		orrs	r2, r2, r0	@, D.6837, D.6837, D.6837
ARM GAS  C:\Users\Adrian\AppData\Local\Temp\ccHpd0c2.s 			page 22


 854 0334 0A43     		orrs	r2, r2, r1	@, D.6836, D.6836, D.6836
 855 0336 DA62     		str	r2, [r3, #44]	@ D.6836, _300->RAM
 343:peripherals/lcd.cpp **** 
 344:peripherals/lcd.cpp ****       break;
 856              		.loc 1 344 0
 857 0338 B4E0     		b	.L28	@
 858              	.L26:
 345:peripherals/lcd.cpp **** 
 346:peripherals/lcd.cpp ****     /* Position 5 on LCD (Digit5)*/
 347:peripherals/lcd.cpp ****     case 5:
 348:peripherals/lcd.cpp ****       LCD->RAM[0] &= 0xfff3cfff;
 859              		.loc 1 348 0
 860 033a 5F4B     		ldr	r3, .L32	@ D.6835,
 861 033c 5E4A     		ldr	r2, .L32	@ D.6835,
 862 033e 5269     		ldr	r2, [r2, #20]	@ D.6836, _315->RAM
 863 0340 22F44322 		bic	r2, r2, #798720	@ D.6836, D.6836,
 864 0344 5A61     		str	r2, [r3, #20]	@ D.6836, _314->RAM
 349:peripherals/lcd.cpp ****       LCD->RAM[2] &= 0xfff3cfff;
 865              		.loc 1 349 0
 866 0346 5C4B     		ldr	r3, .L32	@ D.6835,
 867 0348 5B4A     		ldr	r2, .L32	@ D.6835,
 868 034a D269     		ldr	r2, [r2, #28]	@ D.6836, _319->RAM
 869 034c 22F44322 		bic	r2, r2, #798720	@ D.6836, D.6836,
 870 0350 DA61     		str	r2, [r3, #28]	@ D.6836, _318->RAM
 350:peripherals/lcd.cpp ****       LCD->RAM[4] &= 0xfff3efff;
 871              		.loc 1 350 0
 872 0352 594B     		ldr	r3, .L32	@ D.6835,
 873 0354 584A     		ldr	r2, .L32	@ D.6835,
 874 0356 526A     		ldr	r2, [r2, #36]	@ D.6836, _323->RAM
 875 0358 22F44122 		bic	r2, r2, #790528	@ D.6836, D.6836,
 876 035c 5A62     		str	r2, [r3, #36]	@ D.6836, _322->RAM
 351:peripherals/lcd.cpp ****       LCD->RAM[6] &= 0xfff3efff;
 877              		.loc 1 351 0
 878 035e 564B     		ldr	r3, .L32	@ D.6835,
 879 0360 554A     		ldr	r2, .L32	@ D.6835,
 880 0362 D26A     		ldr	r2, [r2, #44]	@ D.6836, _327->RAM
 881 0364 22F44122 		bic	r2, r2, #790528	@ D.6836, D.6836,
 882 0368 DA62     		str	r2, [r3, #44]	@ D.6836, _326->RAM
 352:peripherals/lcd.cpp **** 
 353:peripherals/lcd.cpp ****       LCD->RAM[0] |= ((digit[0]& 0x0c) << 16 ) | ((digit[0]& 0x03) << 12 ) ; // 5G 5B 5M 5E
 883              		.loc 1 353 0
 884 036a 534B     		ldr	r3, .L32	@ D.6835,
 885 036c 524A     		ldr	r2, .L32	@ D.6835,
 886 036e 5169     		ldr	r1, [r2, #20]	@ D.6836, _331->RAM
 887 0370 3A7B     		ldrb	r2, [r7, #12]	@ zero_extendqisi2	@ D.6838, digit
 888 0372 02F00C02 		and	r2, r2, #12	@ D.6837, D.6837,
 889 0376 1004     		lsls	r0, r2, #16	@ D.6837, D.6837,
 890 0378 3A7B     		ldrb	r2, [r7, #12]	@ zero_extendqisi2	@ D.6838, digit
 891 037a 02F00302 		and	r2, r2, #3	@ D.6837, D.6837,
 892 037e 1203     		lsls	r2, r2, #12	@ D.6837, D.6837,
 893 0380 0243     		orrs	r2, r2, r0	@, D.6837, D.6837, D.6837
 894 0382 0A43     		orrs	r2, r2, r1	@, D.6836, D.6836, D.6836
 895 0384 5A61     		str	r2, [r3, #20]	@ D.6836, _330->RAM
 354:peripherals/lcd.cpp ****       LCD->RAM[2] |= ((digit[1]& 0x0c) << 16 ) | ((digit[1]& 0x03) << 12 ) ; // 5F 5A 5C 5D
 896              		.loc 1 354 0
 897 0386 4C4B     		ldr	r3, .L32	@ D.6835,
 898 0388 4B4A     		ldr	r2, .L32	@ D.6835,
ARM GAS  C:\Users\Adrian\AppData\Local\Temp\ccHpd0c2.s 			page 23


 899 038a D169     		ldr	r1, [r2, #28]	@ D.6836, _345->RAM
 900 038c 7A7B     		ldrb	r2, [r7, #13]	@ zero_extendqisi2	@ D.6838, digit
 901 038e 02F00C02 		and	r2, r2, #12	@ D.6837, D.6837,
 902 0392 1004     		lsls	r0, r2, #16	@ D.6837, D.6837,
 903 0394 7A7B     		ldrb	r2, [r7, #13]	@ zero_extendqisi2	@ D.6838, digit
 904 0396 02F00302 		and	r2, r2, #3	@ D.6837, D.6837,
 905 039a 1203     		lsls	r2, r2, #12	@ D.6837, D.6837,
 906 039c 0243     		orrs	r2, r2, r0	@, D.6837, D.6837, D.6837
 907 039e 0A43     		orrs	r2, r2, r1	@, D.6836, D.6836, D.6836
 908 03a0 DA61     		str	r2, [r3, #28]	@ D.6836, _344->RAM
 355:peripherals/lcd.cpp ****       LCD->RAM[4] |= ((digit[2]& 0x0c) << 16 ) | ((digit[2]& 0x01) << 12 ) ; // 5Q 5K   5P
 909              		.loc 1 355 0
 910 03a2 454B     		ldr	r3, .L32	@ D.6835,
 911 03a4 444A     		ldr	r2, .L32	@ D.6835,
 912 03a6 516A     		ldr	r1, [r2, #36]	@ D.6836, _359->RAM
 913 03a8 BA7B     		ldrb	r2, [r7, #14]	@ zero_extendqisi2	@ D.6838, digit
 914 03aa 02F00C02 		and	r2, r2, #12	@ D.6837, D.6837,
 915 03ae 1004     		lsls	r0, r2, #16	@ D.6837, D.6837,
 916 03b0 BA7B     		ldrb	r2, [r7, #14]	@ zero_extendqisi2	@ D.6838, digit
 917 03b2 02F00102 		and	r2, r2, #1	@ D.6837, D.6837,
 918 03b6 1203     		lsls	r2, r2, #12	@ D.6837, D.6837,
 919 03b8 0243     		orrs	r2, r2, r0	@, D.6837, D.6837, D.6837
 920 03ba 0A43     		orrs	r2, r2, r1	@, D.6836, D.6836, D.6836
 921 03bc 5A62     		str	r2, [r3, #36]	@ D.6836, _358->RAM
 356:peripherals/lcd.cpp ****       LCD->RAM[6] |= ((digit[3]& 0x0c) << 16 ) | ((digit[3]& 0x01) << 12 ) ; // 5H 5J   5N
 922              		.loc 1 356 0
 923 03be 3E4B     		ldr	r3, .L32	@ D.6835,
 924 03c0 3D4A     		ldr	r2, .L32	@ D.6835,
 925 03c2 D16A     		ldr	r1, [r2, #44]	@ D.6836, _373->RAM
 926 03c4 FA7B     		ldrb	r2, [r7, #15]	@ zero_extendqisi2	@ D.6838, digit
 927 03c6 02F00C02 		and	r2, r2, #12	@ D.6837, D.6837,
 928 03ca 1004     		lsls	r0, r2, #16	@ D.6837, D.6837,
 929 03cc FA7B     		ldrb	r2, [r7, #15]	@ zero_extendqisi2	@ D.6838, digit
 930 03ce 02F00102 		and	r2, r2, #1	@ D.6837, D.6837,
 931 03d2 1203     		lsls	r2, r2, #12	@ D.6837, D.6837,
 932 03d4 0243     		orrs	r2, r2, r0	@, D.6837, D.6837, D.6837
 933 03d6 0A43     		orrs	r2, r2, r1	@, D.6836, D.6836, D.6836
 934 03d8 DA62     		str	r2, [r3, #44]	@ D.6836, _372->RAM
 357:peripherals/lcd.cpp **** 
 358:peripherals/lcd.cpp ****       break;
 935              		.loc 1 358 0
 936 03da 63E0     		b	.L28	@
 937              	.L27:
 359:peripherals/lcd.cpp **** 
 360:peripherals/lcd.cpp ****     /* Position 6 on LCD (Digit6)*/
 361:peripherals/lcd.cpp ****     case 6:
 362:peripherals/lcd.cpp ****       LCD->RAM[0] &= 0xfffc3fff;
 938              		.loc 1 362 0
 939 03dc 364B     		ldr	r3, .L32	@ D.6835,
 940 03de 364A     		ldr	r2, .L32	@ D.6835,
 941 03e0 5269     		ldr	r2, [r2, #20]	@ D.6836, _387->RAM
 942 03e2 22F47032 		bic	r2, r2, #245760	@ D.6836, D.6836,
 943 03e6 5A61     		str	r2, [r3, #20]	@ D.6836, _386->RAM
 363:peripherals/lcd.cpp ****       LCD->RAM[2] &= 0xfffc3fff;
 944              		.loc 1 363 0
 945 03e8 334B     		ldr	r3, .L32	@ D.6835,
 946 03ea 334A     		ldr	r2, .L32	@ D.6835,
ARM GAS  C:\Users\Adrian\AppData\Local\Temp\ccHpd0c2.s 			page 24


 947 03ec D269     		ldr	r2, [r2, #28]	@ D.6836, _391->RAM
 948 03ee 22F47032 		bic	r2, r2, #245760	@ D.6836, D.6836,
 949 03f2 DA61     		str	r2, [r3, #28]	@ D.6836, _390->RAM
 364:peripherals/lcd.cpp ****       LCD->RAM[4] &= 0xfffc3fff;
 950              		.loc 1 364 0
 951 03f4 304B     		ldr	r3, .L32	@ D.6835,
 952 03f6 304A     		ldr	r2, .L32	@ D.6835,
 953 03f8 526A     		ldr	r2, [r2, #36]	@ D.6836, _395->RAM
 954 03fa 22F47032 		bic	r2, r2, #245760	@ D.6836, D.6836,
 955 03fe 5A62     		str	r2, [r3, #36]	@ D.6836, _394->RAM
 365:peripherals/lcd.cpp ****       LCD->RAM[6] &= 0xfffc3fff;
 956              		.loc 1 365 0
 957 0400 2D4B     		ldr	r3, .L32	@ D.6835,
 958 0402 2D4A     		ldr	r2, .L32	@ D.6835,
 959 0404 D26A     		ldr	r2, [r2, #44]	@ D.6836, _399->RAM
 960 0406 22F47032 		bic	r2, r2, #245760	@ D.6836, D.6836,
 961 040a DA62     		str	r2, [r3, #44]	@ D.6836, _398->RAM
 366:peripherals/lcd.cpp **** 
 367:peripherals/lcd.cpp ****       LCD->RAM[0] |= ((digit[0]& 0x04) << 15 ) | ((digit[0]& 0x08) << 13 ) | ((digit[0]& 0x03) << 1
 962              		.loc 1 367 0
 963 040c 2A4B     		ldr	r3, .L32	@ D.6835,
 964 040e 2A4A     		ldr	r2, .L32	@ D.6835,
 965 0410 5169     		ldr	r1, [r2, #20]	@ D.6836, _403->RAM
 966 0412 3A7B     		ldrb	r2, [r7, #12]	@ zero_extendqisi2	@ D.6838, digit
 967 0414 02F00402 		and	r2, r2, #4	@ D.6837, D.6837,
 968 0418 D003     		lsls	r0, r2, #15	@ D.6837, D.6837,
 969 041a 3A7B     		ldrb	r2, [r7, #12]	@ zero_extendqisi2	@ D.6838, digit
 970 041c 02F00802 		and	r2, r2, #8	@ D.6837, D.6837,
 971 0420 5203     		lsls	r2, r2, #13	@ D.6837, D.6837,
 972 0422 1043     		orrs	r0, r0, r2	@, D.6837, D.6837, D.6837
 973 0424 3A7B     		ldrb	r2, [r7, #12]	@ zero_extendqisi2	@ D.6838, digit
 974 0426 9203     		lsls	r2, r2, #14	@ D.6837, D.6837,
 975 0428 92B2     		uxth	r2, r2	@ D.6837, D.6837
 976 042a 0243     		orrs	r2, r2, r0	@, D.6837, D.6837, D.6837
 977 042c 0A43     		orrs	r2, r2, r1	@, D.6836, D.6836, D.6836
 978 042e 5A61     		str	r2, [r3, #20]	@ D.6836, _402->RAM
 368:peripherals/lcd.cpp ****       LCD->RAM[2] |= ((digit[1]& 0x04) << 15 ) | ((digit[1]& 0x08) << 13 ) | ((digit[1]& 0x03) << 1
 979              		.loc 1 368 0
 980 0430 214B     		ldr	r3, .L32	@ D.6835,
 981 0432 214A     		ldr	r2, .L32	@ D.6835,
 982 0434 D169     		ldr	r1, [r2, #28]	@ D.6836, _422->RAM
 983 0436 7A7B     		ldrb	r2, [r7, #13]	@ zero_extendqisi2	@ D.6838, digit
 984 0438 02F00402 		and	r2, r2, #4	@ D.6837, D.6837,
 985 043c D003     		lsls	r0, r2, #15	@ D.6837, D.6837,
 986 043e 7A7B     		ldrb	r2, [r7, #13]	@ zero_extendqisi2	@ D.6838, digit
 987 0440 02F00802 		and	r2, r2, #8	@ D.6837, D.6837,
 988 0444 5203     		lsls	r2, r2, #13	@ D.6837, D.6837,
 989 0446 1043     		orrs	r0, r0, r2	@, D.6837, D.6837, D.6837
 990 0448 7A7B     		ldrb	r2, [r7, #13]	@ zero_extendqisi2	@ D.6838, digit
 991 044a 9203     		lsls	r2, r2, #14	@ D.6837, D.6837,
 992 044c 92B2     		uxth	r2, r2	@ D.6837, D.6837
 993 044e 0243     		orrs	r2, r2, r0	@, D.6837, D.6837, D.6837
 994 0450 0A43     		orrs	r2, r2, r1	@, D.6836, D.6836, D.6836
 995 0452 DA61     		str	r2, [r3, #28]	@ D.6836, _421->RAM
 369:peripherals/lcd.cpp ****       LCD->RAM[4] |= ((digit[2]& 0x04) << 15 ) | ((digit[2]& 0x08) << 13 ) | ((digit[2]& 0x01) << 1
 996              		.loc 1 369 0
 997 0454 184B     		ldr	r3, .L32	@ D.6835,
ARM GAS  C:\Users\Adrian\AppData\Local\Temp\ccHpd0c2.s 			page 25


 998 0456 184A     		ldr	r2, .L32	@ D.6835,
 999 0458 516A     		ldr	r1, [r2, #36]	@ D.6836, _441->RAM
 1000 045a BA7B     		ldrb	r2, [r7, #14]	@ zero_extendqisi2	@ D.6838, digit
 1001 045c 02F00402 		and	r2, r2, #4	@ D.6837, D.6837,
 1002 0460 D003     		lsls	r0, r2, #15	@ D.6837, D.6837,
 1003 0462 BA7B     		ldrb	r2, [r7, #14]	@ zero_extendqisi2	@ D.6838, digit
 1004 0464 02F00802 		and	r2, r2, #8	@ D.6837, D.6837,
 1005 0468 5203     		lsls	r2, r2, #13	@ D.6837, D.6837,
 1006 046a 1043     		orrs	r0, r0, r2	@, D.6837, D.6837, D.6837
 1007 046c BA7B     		ldrb	r2, [r7, #14]	@ zero_extendqisi2	@ D.6838, digit
 1008 046e 02F00102 		and	r2, r2, #1	@ D.6837, D.6837,
 1009 0472 9203     		lsls	r2, r2, #14	@ D.6837, D.6837,
 1010 0474 0243     		orrs	r2, r2, r0	@, D.6837, D.6837, D.6837
 1011 0476 0A43     		orrs	r2, r2, r1	@, D.6836, D.6836, D.6836
 1012 0478 5A62     		str	r2, [r3, #36]	@ D.6836, _440->RAM
 370:peripherals/lcd.cpp ****       LCD->RAM[6] |= ((digit[3]& 0x04) << 15 ) | ((digit[3]& 0x08) << 13 ) | ((digit[3]& 0x01) << 1
 1013              		.loc 1 370 0
 1014 047a 0F4B     		ldr	r3, .L32	@ D.6835,
 1015 047c 0E4A     		ldr	r2, .L32	@ D.6835,
 1016 047e D16A     		ldr	r1, [r2, #44]	@ D.6836, _460->RAM
 1017 0480 FA7B     		ldrb	r2, [r7, #15]	@ zero_extendqisi2	@ D.6838, digit
 1018 0482 02F00402 		and	r2, r2, #4	@ D.6837, D.6837,
 1019 0486 D003     		lsls	r0, r2, #15	@ D.6837, D.6837,
 1020 0488 FA7B     		ldrb	r2, [r7, #15]	@ zero_extendqisi2	@ D.6838, digit
 1021 048a 02F00802 		and	r2, r2, #8	@ D.6837, D.6837,
 1022 048e 5203     		lsls	r2, r2, #13	@ D.6837, D.6837,
 1023 0490 1043     		orrs	r0, r0, r2	@, D.6837, D.6837, D.6837
 1024 0492 FA7B     		ldrb	r2, [r7, #15]	@ zero_extendqisi2	@ D.6838, digit
 1025 0494 02F00102 		and	r2, r2, #1	@ D.6837, D.6837,
 1026 0498 9203     		lsls	r2, r2, #14	@ D.6837, D.6837,
 1027 049a 0243     		orrs	r2, r2, r0	@, D.6837, D.6837, D.6837
 1028 049c 0A43     		orrs	r2, r2, r1	@, D.6836, D.6836, D.6836
 1029 049e DA62     		str	r2, [r3, #44]	@ D.6836, _459->RAM
 371:peripherals/lcd.cpp **** 
 372:peripherals/lcd.cpp ****       break;
 1030              		.loc 1 372 0
 1031 04a0 00E0     		b	.L28	@
 1032              	.L29:
 373:peripherals/lcd.cpp **** 
 374:peripherals/lcd.cpp ****      default:
 375:peripherals/lcd.cpp ****       break;
 1033              		.loc 1 375 0
 1034 04a2 00BF     		nop
 1035              	.L28:
 376:peripherals/lcd.cpp ****   }
 377:peripherals/lcd.cpp **** 
 378:peripherals/lcd.cpp ****   // Sending update display request
 379:peripherals/lcd.cpp ****   LCD->SR|=LCD_SR_UDR;
 1036              		.loc 1 379 0
 1037 04a4 044B     		ldr	r3, .L32	@ D.6835,
 1038 04a6 044A     		ldr	r2, .L32	@ D.6835,
 1039 04a8 9268     		ldr	r2, [r2, #8]	@ D.6836, _479->SR
 1040 04aa 42F00402 		orr	r2, r2, #4	@ D.6836, D.6836,
 1041 04ae 9A60     		str	r2, [r3, #8]	@ D.6836, _478->SR
 1042              	.LBE3:
 380:peripherals/lcd.cpp **** }
 1043              		.loc 1 380 0
ARM GAS  C:\Users\Adrian\AppData\Local\Temp\ccHpd0c2.s 			page 26


 1044 04b0 1037     		adds	r7, r7, #16	@,,
 1045 04b2 BD46     		mov	sp, r7	@,
 1046              		@ sp needed	@
 1047 04b4 80BD     		pop	{r7, pc}	@
 1048              	.L33:
 1049 04b6 00BF     		.align	2
 1050              	.L32:
 1051 04b8 00240040 		.word	1073751040
 1052              		.cfi_endproc
 1053              	.LFE57:
 1054              		.size	_Z13LCD_WriteCharcbbh, .-_Z13LCD_WriteCharcbbh
 1055              		.section	.text._Z15LCD_WriteStringPc,"ax",%progbits
 1056              		.align	2
 1057              		.global	_Z15LCD_WriteStringPc
 1058              		.thumb
 1059              		.thumb_func
 1060              		.type	_Z15LCD_WriteStringPc, %function
 1061              	_Z15LCD_WriteStringPc:
 1062              	.LFB58:
 381:peripherals/lcd.cpp **** 
 382:peripherals/lcd.cpp **** /**
 383:peripherals/lcd.cpp ****  * \brief  Displays a string on the LCD.
 384:peripherals/lcd.cpp ****  *
 385:peripherals/lcd.cpp ****  * \param [in] Char table to display
 386:peripherals/lcd.cpp ****  *
 387:peripherals/lcd.cpp ****  */
 388:peripherals/lcd.cpp **** void LCD_WriteString(char* s)
 389:peripherals/lcd.cpp **** {
 1063              		.loc 1 389 0
 1064              		.cfi_startproc
 1065              		@ args = 0, pretend = 0, frame = 16
 1066              		@ frame_needed = 1, uses_anonymous_args = 0
 1067 0000 80B5     		push	{r7, lr}	@
 1068              		.cfi_def_cfa_offset 8
 1069              		.cfi_offset 7, -8
 1070              		.cfi_offset 14, -4
 1071 0002 84B0     		sub	sp, sp, #16	@,,
 1072              		.cfi_def_cfa_offset 24
 1073 0004 00AF     		add	r7, sp, #0	@,,
 1074              		.cfi_def_cfa_register 7
 1075 0006 7860     		str	r0, [r7, #4]	@ s, s
 1076              	.LBB4:
 390:peripherals/lcd.cpp **** 	int i;
 391:peripherals/lcd.cpp **** 	for(i=0;*s!='\0' && i<6;i++)
 1077              		.loc 1 391 0
 1078 0008 0023     		movs	r3, #0	@ tmp116,
 1079 000a FB60     		str	r3, [r7, #12]	@ tmp116, i
 1080 000c 10E0     		b	.L35	@
 1081              	.L37:
 392:peripherals/lcd.cpp **** 	{
 393:peripherals/lcd.cpp **** 		LCD_WriteChar(*s,0,0,i+1);
 1082              		.loc 1 393 0 discriminator 1
 1083 000e 7B68     		ldr	r3, [r7, #4]	@ tmp117, s
 1084 0010 1A78     		ldrb	r2, [r3]	@ zero_extendqisi2	@ D.6839, *s_1
 1085 0012 FB68     		ldr	r3, [r7, #12]	@ tmp118, i
 1086 0014 DBB2     		uxtb	r3, r3	@ D.6840, tmp118
 1087 0016 0133     		adds	r3, r3, #1	@ tmp119, D.6840,
ARM GAS  C:\Users\Adrian\AppData\Local\Temp\ccHpd0c2.s 			page 27


 1088 0018 DBB2     		uxtb	r3, r3	@ D.6840, tmp119
 1089 001a 1046     		mov	r0, r2	@, D.6839
 1090 001c 0021     		movs	r1, #0	@,
 1091 001e 0022     		movs	r2, #0	@,
 1092 0020 FFF7FEFF 		bl	_Z13LCD_WriteCharcbbh	@
 394:peripherals/lcd.cpp **** 		s++;
 1093              		.loc 1 394 0 discriminator 1
 1094 0024 7B68     		ldr	r3, [r7, #4]	@ tmp121, s
 1095 0026 0133     		adds	r3, r3, #1	@ tmp120, tmp121,
 1096 0028 7B60     		str	r3, [r7, #4]	@ tmp120, s
 391:peripherals/lcd.cpp **** 	for(i=0;*s!='\0' && i<6;i++)
 1097              		.loc 1 391 0 discriminator 1
 1098 002a FB68     		ldr	r3, [r7, #12]	@ tmp123, i
 1099 002c 0133     		adds	r3, r3, #1	@ tmp122, tmp123,
 1100 002e FB60     		str	r3, [r7, #12]	@ tmp122, i
 1101              	.L35:
 1102 0030 7B68     		ldr	r3, [r7, #4]	@ tmp124, s
 1103 0032 1B78     		ldrb	r3, [r3]	@ zero_extendqisi2	@ D.6839, *s_1
 1104 0034 002B     		cmp	r3, #0	@ D.6839,
 1105 0036 02D0     		beq	.L36	@,
 391:peripherals/lcd.cpp **** 	for(i=0;*s!='\0' && i<6;i++)
 1106              		.loc 1 391 0 is_stmt 0 discriminator 2
 1107 0038 FB68     		ldr	r3, [r7, #12]	@ tmp125, i
 1108 003a 052B     		cmp	r3, #5	@ tmp125,
 1109 003c E7DD     		ble	.L37	@,
 1110              	.L36:
 395:peripherals/lcd.cpp **** 	}
 396:peripherals/lcd.cpp **** 	while(i<6)
 1111              		.loc 1 396 0 is_stmt 1
 1112 003e 0BE0     		b	.L38	@
 1113              	.L39:
 397:peripherals/lcd.cpp **** 	{
 398:peripherals/lcd.cpp **** 		LCD_WriteChar(' ',0,0,i+1);
 1114              		.loc 1 398 0
 1115 0040 FB68     		ldr	r3, [r7, #12]	@ tmp126, i
 1116 0042 DBB2     		uxtb	r3, r3	@ D.6840, tmp126
 1117 0044 0133     		adds	r3, r3, #1	@ tmp127, D.6840,
 1118 0046 DBB2     		uxtb	r3, r3	@ D.6840, tmp127
 1119 0048 2020     		movs	r0, #32	@,
 1120 004a 0021     		movs	r1, #0	@,
 1121 004c 0022     		movs	r2, #0	@,
 1122 004e FFF7FEFF 		bl	_Z13LCD_WriteCharcbbh	@
 399:peripherals/lcd.cpp **** 		i++;
 1123              		.loc 1 399 0
 1124 0052 FB68     		ldr	r3, [r7, #12]	@ tmp129, i
 1125 0054 0133     		adds	r3, r3, #1	@ tmp128, tmp129,
 1126 0056 FB60     		str	r3, [r7, #12]	@ tmp128, i
 1127              	.L38:
 396:peripherals/lcd.cpp **** 	while(i<6)
 1128              		.loc 1 396 0 discriminator 1
 1129 0058 FB68     		ldr	r3, [r7, #12]	@ tmp130, i
 1130 005a 052B     		cmp	r3, #5	@ tmp130,
 1131 005c F0DD     		ble	.L39	@,
 1132              	.LBE4:
 400:peripherals/lcd.cpp **** 	}
 401:peripherals/lcd.cpp **** }
 1133              		.loc 1 401 0
ARM GAS  C:\Users\Adrian\AppData\Local\Temp\ccHpd0c2.s 			page 28


 1134 005e 1037     		adds	r7, r7, #16	@,,
 1135 0060 BD46     		mov	sp, r7	@,
 1136              		@ sp needed	@
 1137 0062 80BD     		pop	{r7, pc}	@
 1138              		.cfi_endproc
 1139              	.LFE58:
 1140              		.size	_Z15LCD_WriteStringPc, .-_Z15LCD_WriteStringPc
 1141              		.section	.text._Z21LCD_WriteChar_examplev,"ax",%progbits
 1142              		.align	2
 1143              		.global	_Z21LCD_WriteChar_examplev
 1144              		.thumb
 1145              		.thumb_func
 1146              		.type	_Z21LCD_WriteChar_examplev, %function
 1147              	_Z21LCD_WriteChar_examplev:
 1148              	.LFB59:
 402:peripherals/lcd.cpp **** /**
 403:peripherals/lcd.cpp ****  * \brief Example of use function LCD_WriteChar.
 404:peripherals/lcd.cpp ****  *
 405:peripherals/lcd.cpp ****  * Displays "A" whith colon on digit 1 and displays "B" whith point on digit 3.
 406:peripherals/lcd.cpp ****  *
 407:peripherals/lcd.cpp ****  */
 408:peripherals/lcd.cpp **** void LCD_WriteChar_example()
 409:peripherals/lcd.cpp **** {
 1149              		.loc 1 409 0
 1150              		.cfi_startproc
 1151              		@ args = 0, pretend = 0, frame = 0
 1152              		@ frame_needed = 1, uses_anonymous_args = 0
 1153 0000 80B5     		push	{r7, lr}	@
 1154              		.cfi_def_cfa_offset 8
 1155              		.cfi_offset 7, -8
 1156              		.cfi_offset 14, -4
 1157 0002 00AF     		add	r7, sp, #0	@,,
 1158              		.cfi_def_cfa_register 7
 410:peripherals/lcd.cpp **** 	LCD_WriteChar('a',0,1,1);
 1159              		.loc 1 410 0
 1160 0004 6120     		movs	r0, #97	@,
 1161 0006 0021     		movs	r1, #0	@,
 1162 0008 0122     		movs	r2, #1	@,
 1163 000a 0123     		movs	r3, #1	@,
 1164 000c FFF7FEFF 		bl	_Z13LCD_WriteCharcbbh	@
 411:peripherals/lcd.cpp **** 	LCD_WriteChar('b',1,0,3);
 1165              		.loc 1 411 0
 1166 0010 6220     		movs	r0, #98	@,
 1167 0012 0121     		movs	r1, #1	@,
 1168 0014 0022     		movs	r2, #0	@,
 1169 0016 0323     		movs	r3, #3	@,
 1170 0018 FFF7FEFF 		bl	_Z13LCD_WriteCharcbbh	@
 412:peripherals/lcd.cpp **** }
 1171              		.loc 1 412 0
 1172 001c 80BD     		pop	{r7, pc}	@
 1173              		.cfi_endproc
 1174              	.LFE59:
 1175              		.size	_Z21LCD_WriteChar_examplev, .-_Z21LCD_WriteChar_examplev
 1176 001e 00BF     		.section	.rodata
 1177              		.align	2
 1178              	.LC0:
 1179 0000 75626972 		.ascii	"ubirds\000"
ARM GAS  C:\Users\Adrian\AppData\Local\Temp\ccHpd0c2.s 			page 29


 1179      647300
 1180 0007 00       		.section	.text._Z23LCD_WriteString_examplev,"ax",%progbits
 1181              		.align	2
 1182              		.global	_Z23LCD_WriteString_examplev
 1183              		.thumb
 1184              		.thumb_func
 1185              		.type	_Z23LCD_WriteString_examplev, %function
 1186              	_Z23LCD_WriteString_examplev:
 1187              	.LFB60:
 413:peripherals/lcd.cpp **** 
 414:peripherals/lcd.cpp **** /**
 415:peripherals/lcd.cpp ****  *  \brief Example of use function LCD_WriteString.
 416:peripherals/lcd.cpp ****  *
 417:peripherals/lcd.cpp ****  *  Displays string.
 418:peripherals/lcd.cpp ****  *
 419:peripherals/lcd.cpp ****  */
 420:peripherals/lcd.cpp **** void LCD_WriteString_example()
 421:peripherals/lcd.cpp **** {
 1188              		.loc 1 421 0
 1189              		.cfi_startproc
 1190              		@ args = 0, pretend = 0, frame = 8
 1191              		@ frame_needed = 1, uses_anonymous_args = 0
 1192 0000 80B5     		push	{r7, lr}	@
 1193              		.cfi_def_cfa_offset 8
 1194              		.cfi_offset 7, -8
 1195              		.cfi_offset 14, -4
 1196 0002 82B0     		sub	sp, sp, #8	@,,
 1197              		.cfi_def_cfa_offset 16
 1198 0004 00AF     		add	r7, sp, #0	@,,
 1199              		.cfi_def_cfa_register 7
 1200              	.LBB5:
 422:peripherals/lcd.cpp **** 	char string[7];
 423:peripherals/lcd.cpp **** 	strcpy(string,"ubirds");
 1201              		.loc 1 423 0
 1202 0006 084A     		ldr	r2, .L42	@ tmp110,
 1203 0008 3B46     		mov	r3, r7	@ tmp111,
 1204 000a 92E80300 		ldmia	r2, {r0, r1}	@ tmp112,,
 1205 000e 1860     		str	r0, [r3]	@, MEM[(char * {ref-all})&string]
 1206 0010 0433     		adds	r3, r3, #4	@ tmp111, tmp111,
 1207 0012 1980     		strh	r1, [r3]	@ movhi	@, MEM[(char * {ref-all})&string]
 1208 0014 0233     		adds	r3, r3, #2	@ tmp111, tmp111,
 1209 0016 0A0C     		lsrs	r2, r1, #16	@ tmp113,,
 1210 0018 1A70     		strb	r2, [r3]	@ tmp114, MEM[(char * {ref-all})&string]
 424:peripherals/lcd.cpp **** 	LCD_WriteString(string);
 1211              		.loc 1 424 0
 1212 001a 3B46     		mov	r3, r7	@ tmp115,
 1213 001c 1846     		mov	r0, r3	@, tmp115
 1214 001e FFF7FEFF 		bl	_Z15LCD_WriteStringPc	@
 1215              	.LBE5:
 425:peripherals/lcd.cpp **** }
 1216              		.loc 1 425 0
 1217 0022 0837     		adds	r7, r7, #8	@,,
 1218 0024 BD46     		mov	sp, r7	@,
 1219              		@ sp needed	@
 1220 0026 80BD     		pop	{r7, pc}	@
 1221              	.L43:
 1222              		.align	2
ARM GAS  C:\Users\Adrian\AppData\Local\Temp\ccHpd0c2.s 			page 30


 1223              	.L42:
 1224 0028 00000000 		.word	.LC0
 1225              		.cfi_endproc
 1226              	.LFE60:
 1227              		.size	_Z23LCD_WriteString_examplev, .-_Z23LCD_WriteString_examplev
 1228              		.section	.rodata._ZL12CapLetterMap,"a",%progbits
 1229              		.align	2
 1230              		.type	_ZL12CapLetterMap, %object
 1231              		.size	_ZL12CapLetterMap, 52
 1232              	_ZL12CapLetterMap:
 1233 0000 00FE     		.short	-512
 1234 0002 1467     		.short	26388
 1235 0004 001D     		.short	7424
 1236 0006 1447     		.short	18196
 1237 0008 009D     		.short	-25344
 1238 000a 009C     		.short	-25600
 1239 000c 003F     		.short	16128
 1240 000e 00FA     		.short	-1536
 1241 0010 1400     		.short	20
 1242 0012 0053     		.short	21248
 1243 0014 4198     		.short	-26559
 1244 0016 0019     		.short	6400
 1245 0018 485A     		.short	23112
 1246 001a 095A     		.short	23049
 1247 001c 005F     		.short	24320
 1248 001e 00FC     		.short	-1024
 1249 0020 015F     		.short	24321
 1250 0022 01FC     		.short	-1023
 1251 0024 00AF     		.short	-20736
 1252 0026 1404     		.short	1044
 1253 0028 005B     		.short	23296
 1254 002a C018     		.short	6336
 1255 002c 815A     		.short	23169
 1256 002e C900     		.short	201
 1257 0030 5800     		.short	88
 1258 0032 C005     		.short	1472
 1259              		.section	.rodata._ZL9NumberMap,"a",%progbits
 1260              		.align	2
 1261              		.type	_ZL9NumberMap, %object
 1262              		.size	_ZL9NumberMap, 20
 1263              	_ZL9NumberMap:
 1264 0000 005F     		.short	24320
 1265 0002 0042     		.short	16896
 1266 0004 00F5     		.short	-2816
 1267 0006 0067     		.short	26368
 1268 0008 00EA     		.short	-5632
 1269 000a 00AF     		.short	-20736
 1270 000c 00BF     		.short	-16640
 1271 000e 0046     		.short	17920
 1272 0010 00FF     		.short	-256
 1273 0012 00EF     		.short	-4352
 1274              		.text
 1275              	.Letext0:
 1276              		.file 2 "d:\\programy\\gnu tools arm embedded\\4.8 2014q2\\arm-none-eabi\\include\\machine\\_defau
 1277              		.file 3 "d:\\programy\\gnu tools arm embedded\\4.8 2014q2\\arm-none-eabi\\include\\stdint.h"
 1278              		.file 4 "inc/stm32l1xx.h"
 1279              		.file 5 "peripherals/gpio.h"
ARM GAS  C:\Users\Adrian\AppData\Local\Temp\ccHpd0c2.s 			page 31


 1280              		.file 6 "inc/core_cm3.h"