ARM GAS  /tmp/ccEUjPAt.s 			page 1


   1              		.syntax unified
   2              		.cpu cortex-m3
   3              		.fpu softvfp
   4              		.eabi_attribute 20, 1	@ Tag_ABI_FP_denormal
   5              		.eabi_attribute 21, 1	@ Tag_ABI_FP_exceptions
   6              		.eabi_attribute 23, 3	@ Tag_ABI_FP_number_model
   7              		.eabi_attribute 24, 1	@ Tag_ABI_align8_needed
   8              		.eabi_attribute 25, 1	@ Tag_ABI_align8_preserved
   9              		.eabi_attribute 26, 1	@ Tag_ABI_enum_size
  10              		.eabi_attribute 30, 4	@ Tag_ABI_optimization_goals
  11              		.eabi_attribute 34, 1	@ Tag_CPU_unaligned_access
  12              		.eabi_attribute 18, 4	@ Tag_ABI_PCS_wchar_t
  13              		.file	"list.c"
  14              	@ GNU C (GNU Tools for ARM Embedded Processors) version 4.7.3 20130312 (release) [ARM/embedded-4_7-
  15              	@	compiled by GNU C version 4.3.6, GMP version 4.3.2, MPFR version 2.4.2, MPC version 0.8.1
  16              	@ GGC heuristics: --param ggc-min-expand=100 --param ggc-min-heapsize=131072
  17              	@ options passed:  -I . -I inc -I FreeRTOS/include
  18              	@ -I FreeRTOS/portable/GCC/ARM_CM3 -I FatFS -I peripherals
  19              	@ -imultilib armv7-m
  20              	@ -iprefix /home/maciek/gcc-arm-none-eabi/gcc-arm-none-eabi-4_7-2013q1/bin/../lib/gcc/arm-none-eabi
  21              	@ -isysroot /home/maciek/gcc-arm-none-eabi/gcc-arm-none-eabi-4_7-2013q1/bin/../arm-none-eabi
  22              	@ -MD out/list.d -MF out/list.d -MP -MQ out/list.o -D__USES_INITFINI__
  23              	@ -D STM32L1XX_MD FreeRTOS/list.c -mcpu=cortex-m3 -mthumb
  24              	@ -auxbase-strip out/list.o -g -ggdb3 -Os -Wall -Wstrict-prototypes -Wextra
  25              	@ -std=gnu90 -ffunction-sections -fdata-sections -fverbose-asm
  26              	@ options enabled:  -fauto-inc-dec -fbranch-count-reg -fcaller-saves
  27              	@ -fcombine-stack-adjustments -fcommon -fcompare-elim -fcprop-registers
  28              	@ -fcrossjumping -fcse-follow-jumps -fdata-sections -fdebug-types-section
  29              	@ -fdefer-pop -fdelete-null-pointer-checks -fdevirtualize -fdwarf2-cfi-asm
  30              	@ -fearly-inlining -feliminate-unused-debug-types -fexpensive-optimizations
  31              	@ -fforward-propagate -ffunction-cse -ffunction-sections -fgcse -fgcse-lm
  32              	@ -fgnu-runtime -fguess-branch-probability -fident -fif-conversion
  33              	@ -fif-conversion2 -findirect-inlining -finline -finline-atomics
  34              	@ -finline-functions -finline-functions-called-once
  35              	@ -finline-small-functions -fipa-cp -fipa-profile -fipa-pure-const
  36              	@ -fipa-reference -fipa-sra -fira-share-save-slots -fira-share-spill-slots
  37              	@ -fivopts -fkeep-static-consts -fleading-underscore -fmath-errno
  38              	@ -fmerge-constants -fmerge-debug-strings -fomit-frame-pointer
  39              	@ -foptimize-register-move -foptimize-sibling-calls -fpartial-inlining
  40              	@ -fpeephole -fpeephole2 -fprefetch-loop-arrays -freg-struct-return
  41              	@ -fregmove -frename-registers -freorder-blocks -freorder-functions
  42              	@ -frerun-cse-after-loop -fsched-critical-path-heuristic
  43              	@ -fsched-dep-count-heuristic -fsched-group-heuristic -fsched-interblock
  44              	@ -fsched-last-insn-heuristic -fsched-rank-heuristic -fsched-spec
  45              	@ -fsched-spec-insn-heuristic -fsched-stalled-insns-dep -fschedule-insns2
  46              	@ -fsection-anchors -fshow-column -fshrink-wrap -fsigned-zeros
  47              	@ -fsplit-ivs-in-unroller -fsplit-wide-types -fstrict-aliasing
  48              	@ -fstrict-overflow -fstrict-volatile-bitfields -fthread-jumps
  49              	@ -ftoplevel-reorder -ftrapping-math -ftree-bit-ccp -ftree-builtin-call-dce
  50              	@ -ftree-ccp -ftree-ch -ftree-copy-prop -ftree-copyrename -ftree-cselim
  51              	@ -ftree-dce -ftree-dominator-opts -ftree-dse -ftree-forwprop -ftree-fre
  52              	@ -ftree-loop-if-convert -ftree-loop-im -ftree-loop-ivcanon
  53              	@ -ftree-loop-optimize -ftree-parallelize-loops= -ftree-phiprop -ftree-pre
  54              	@ -ftree-pta -ftree-reassoc -ftree-scev-cprop -ftree-sink
  55              	@ -ftree-slp-vectorize -ftree-sra -ftree-switch-conversion
  56              	@ -ftree-tail-merge -ftree-ter -ftree-vect-loop-version -ftree-vrp
  57              	@ -funit-at-a-time -funroll-loops -fvar-tracking -fvar-tracking-assignments
ARM GAS  /tmp/ccEUjPAt.s 			page 2


  58              	@ -fverbose-asm -fweb -fzero-initialized-in-bss -mfix-cortex-m3-ldrd
  59              	@ -mlittle-endian -msched-prolog -mthumb -munaligned-access
  60              	@ -mvectorize-with-neon-quad
  61              	
  62              		.text
  63              	.Ltext0:
  64              		.cfi_sections	.debug_frame
  65              		.section	.text.vListInitialise,"ax",%progbits
  66              		.align	1
  67              		.global	vListInitialise
  68              		.thumb
  69              		.thumb_func
  70              		.type	vListInitialise, %function
  71              	vListInitialise:
  72              	.LFB55:
  73              		.file 1 "FreeRTOS/list.c"
   1:FreeRTOS/list.c **** /*
   2:FreeRTOS/list.c ****     FreeRTOS V7.2.0 - Copyright (C) 2012 Real Time Engineers Ltd.
   3:FreeRTOS/list.c **** 
   4:FreeRTOS/list.c **** 
   5:FreeRTOS/list.c ****     ***************************************************************************
   6:FreeRTOS/list.c ****      *                                                                       *
   7:FreeRTOS/list.c ****      *    FreeRTOS tutorial books are available in pdf and paperback.        *
   8:FreeRTOS/list.c ****      *    Complete, revised, and edited pdf reference manuals are also       *
   9:FreeRTOS/list.c ****      *    available.                                                         *
  10:FreeRTOS/list.c ****      *                                                                       *
  11:FreeRTOS/list.c ****      *    Purchasing FreeRTOS documentation will not only help you, by       *
  12:FreeRTOS/list.c ****      *    ensuring you get running as quickly as possible and with an        *
  13:FreeRTOS/list.c ****      *    in-depth knowledge of how to use FreeRTOS, it will also help       *
  14:FreeRTOS/list.c ****      *    the FreeRTOS project to continue with its mission of providing     *
  15:FreeRTOS/list.c ****      *    professional grade, cross platform, de facto standard solutions    *
  16:FreeRTOS/list.c ****      *    for microcontrollers - completely free of charge!                  *
  17:FreeRTOS/list.c ****      *                                                                       *
  18:FreeRTOS/list.c ****      *    >>> See http://www.FreeRTOS.org/Documentation for details. <<<     *
  19:FreeRTOS/list.c ****      *                                                                       *
  20:FreeRTOS/list.c ****      *    Thank you for using FreeRTOS, and thank you for your support!      *
  21:FreeRTOS/list.c ****      *                                                                       *
  22:FreeRTOS/list.c ****     ***************************************************************************
  23:FreeRTOS/list.c **** 
  24:FreeRTOS/list.c **** 
  25:FreeRTOS/list.c ****     This file is part of the FreeRTOS distribution.
  26:FreeRTOS/list.c **** 
  27:FreeRTOS/list.c ****     FreeRTOS is free software; you can redistribute it and/or modify it under
  28:FreeRTOS/list.c ****     the terms of the GNU General Public License (version 2) as published by the
  29:FreeRTOS/list.c ****     Free Software Foundation AND MODIFIED BY the FreeRTOS exception.
  30:FreeRTOS/list.c ****     >>>NOTE<<< The modification to the GPL is included to allow you to
  31:FreeRTOS/list.c ****     distribute a combined work that includes FreeRTOS without being obliged to
  32:FreeRTOS/list.c ****     provide the source code for proprietary components outside of the FreeRTOS
  33:FreeRTOS/list.c ****     kernel.  FreeRTOS is distributed in the hope that it will be useful, but
  34:FreeRTOS/list.c ****     WITHOUT ANY WARRANTY; without even the implied warranty of MERCHANTABILITY
  35:FreeRTOS/list.c ****     or FITNESS FOR A PARTICULAR PURPOSE.  See the GNU General Public License for
  36:FreeRTOS/list.c ****     more details. You should have received a copy of the GNU General Public
  37:FreeRTOS/list.c ****     License and the FreeRTOS license exception along with FreeRTOS; if not it
  38:FreeRTOS/list.c ****     can be viewed here: http://www.freertos.org/a00114.html and also obtained
  39:FreeRTOS/list.c ****     by writing to Richard Barry, contact details for whom are available on the
  40:FreeRTOS/list.c ****     FreeRTOS WEB site.
  41:FreeRTOS/list.c **** 
ARM GAS  /tmp/ccEUjPAt.s 			page 3


  42:FreeRTOS/list.c ****     1 tab == 4 spaces!
  43:FreeRTOS/list.c ****     
  44:FreeRTOS/list.c ****     ***************************************************************************
  45:FreeRTOS/list.c ****      *                                                                       *
  46:FreeRTOS/list.c ****      *    Having a problem?  Start by reading the FAQ "My application does   *
  47:FreeRTOS/list.c ****      *    not run, what could be wrong?                                      *
  48:FreeRTOS/list.c ****      *                                                                       *
  49:FreeRTOS/list.c ****      *    http://www.FreeRTOS.org/FAQHelp.html                               *
  50:FreeRTOS/list.c ****      *                                                                       *
  51:FreeRTOS/list.c ****     ***************************************************************************
  52:FreeRTOS/list.c **** 
  53:FreeRTOS/list.c ****     
  54:FreeRTOS/list.c ****     http://www.FreeRTOS.org - Documentation, training, latest information, 
  55:FreeRTOS/list.c ****     license and contact details.
  56:FreeRTOS/list.c ****     
  57:FreeRTOS/list.c ****     http://www.FreeRTOS.org/plus - A selection of FreeRTOS ecosystem products,
  58:FreeRTOS/list.c ****     including FreeRTOS+Trace - an indispensable productivity tool.
  59:FreeRTOS/list.c **** 
  60:FreeRTOS/list.c ****     Real Time Engineers ltd license FreeRTOS to High Integrity Systems, who sell 
  61:FreeRTOS/list.c ****     the code with commercial support, indemnification, and middleware, under 
  62:FreeRTOS/list.c ****     the OpenRTOS brand: http://www.OpenRTOS.com.  High Integrity Systems also
  63:FreeRTOS/list.c ****     provide a safety engineered and independently SIL3 certified version under 
  64:FreeRTOS/list.c ****     the SafeRTOS brand: http://www.SafeRTOS.com.
  65:FreeRTOS/list.c **** */
  66:FreeRTOS/list.c **** 
  67:FreeRTOS/list.c **** 
  68:FreeRTOS/list.c **** #include <stdlib.h>
  69:FreeRTOS/list.c **** #include "FreeRTOS.h"
  70:FreeRTOS/list.c **** #include "list.h"
  71:FreeRTOS/list.c **** 
  72:FreeRTOS/list.c **** /*-----------------------------------------------------------
  73:FreeRTOS/list.c ****  * PUBLIC LIST API documented in list.h
  74:FreeRTOS/list.c ****  *----------------------------------------------------------*/
  75:FreeRTOS/list.c **** 
  76:FreeRTOS/list.c **** void vListInitialise( xList *pxList )
  77:FreeRTOS/list.c **** {
  74              		.loc 1 77 0
  75              		.cfi_startproc
  76              		@ args = 0, pretend = 0, frame = 0
  77              		@ frame_needed = 0, uses_anonymous_args = 0
  78              		@ link register save eliminated.
  79              	.LVL0:
  78:FreeRTOS/list.c **** 	/* The list structure contains a list item which is used to mark the
  79:FreeRTOS/list.c **** 	end of the list.  To initialise the list the list end is inserted
  80:FreeRTOS/list.c **** 	as the only list entry. */
  81:FreeRTOS/list.c **** 	pxList->pxIndex = ( xListItem * ) &( pxList->xListEnd );
  80              		.loc 1 81 0
  81 0000 00F10803 		add	r3, r0, #8	@ tmp138, pxList,
  82:FreeRTOS/list.c **** 
  83:FreeRTOS/list.c **** 	/* The list end value is the highest possible value in the list to
  84:FreeRTOS/list.c **** 	ensure it remains at the end of the list. */
  85:FreeRTOS/list.c **** 	pxList->xListEnd.xItemValue = portMAX_DELAY;
  82              		.loc 1 85 0
  83 0004 4FF0FF32 		mov	r2, #-1	@ tmp139,
  86:FreeRTOS/list.c **** 
  87:FreeRTOS/list.c **** 	/* The list end next and previous pointers point to itself so we know
  88:FreeRTOS/list.c **** 	when the list is empty. */
ARM GAS  /tmp/ccEUjPAt.s 			page 4


  89:FreeRTOS/list.c **** 	pxList->xListEnd.pxNext = ( xListItem * ) &( pxList->xListEnd );
  90:FreeRTOS/list.c **** 	pxList->xListEnd.pxPrevious = ( xListItem * ) &( pxList->xListEnd );
  91:FreeRTOS/list.c **** 
  92:FreeRTOS/list.c **** 	pxList->uxNumberOfItems = ( unsigned portBASE_TYPE ) 0U;
  84              		.loc 1 92 0
  85 0008 0021     		movs	r1, #0	@ tmp140,
  85:FreeRTOS/list.c **** 	pxList->xListEnd.xItemValue = portMAX_DELAY;
  86              		.loc 1 85 0
  87 000a 8260     		str	r2, [r0, #8]	@ tmp139, pxList_1(D)->xListEnd.xItemValue
  81:FreeRTOS/list.c **** 	pxList->pxIndex = ( xListItem * ) &( pxList->xListEnd );
  88              		.loc 1 81 0
  89 000c 4360     		str	r3, [r0, #4]	@ tmp138, pxList_1(D)->pxIndex
  89:FreeRTOS/list.c **** 	pxList->xListEnd.pxNext = ( xListItem * ) &( pxList->xListEnd );
  90              		.loc 1 89 0
  91 000e C360     		str	r3, [r0, #12]	@ tmp138, pxList_1(D)->xListEnd.pxNext
  90:FreeRTOS/list.c **** 	pxList->xListEnd.pxPrevious = ( xListItem * ) &( pxList->xListEnd );
  92              		.loc 1 90 0
  93 0010 0361     		str	r3, [r0, #16]	@ tmp138, pxList_1(D)->xListEnd.pxPrevious
  94              		.loc 1 92 0
  95 0012 0160     		str	r1, [r0, #0]	@ tmp140, pxList_1(D)->uxNumberOfItems
  96 0014 7047     		bx	lr	@
  97              		.cfi_endproc
  98              	.LFE55:
  99              		.size	vListInitialise, .-vListInitialise
 100              		.section	.text.vListInitialiseItem,"ax",%progbits
 101              		.align	1
 102              		.global	vListInitialiseItem
 103              		.thumb
 104              		.thumb_func
 105              		.type	vListInitialiseItem, %function
 106              	vListInitialiseItem:
 107              	.LFB56:
  93:FreeRTOS/list.c **** }
  94:FreeRTOS/list.c **** /*-----------------------------------------------------------*/
  95:FreeRTOS/list.c **** 
  96:FreeRTOS/list.c **** void vListInitialiseItem( xListItem *pxItem )
  97:FreeRTOS/list.c **** {
 108              		.loc 1 97 0
 109              		.cfi_startproc
 110              		@ args = 0, pretend = 0, frame = 0
 111              		@ frame_needed = 0, uses_anonymous_args = 0
 112              		@ link register save eliminated.
 113              	.LVL1:
  98:FreeRTOS/list.c **** 	/* Make sure the list item is not recorded as being on a list. */
  99:FreeRTOS/list.c **** 	pxItem->pvContainer = NULL;
 114              		.loc 1 99 0
 115 0000 0023     		movs	r3, #0	@ tmp135,
 116 0002 0361     		str	r3, [r0, #16]	@ tmp135, pxItem_1(D)->pvContainer
 117 0004 7047     		bx	lr	@
 118              		.cfi_endproc
 119              	.LFE56:
 120              		.size	vListInitialiseItem, .-vListInitialiseItem
 121              		.section	.text.vListInsertEnd,"ax",%progbits
 122              		.align	1
 123              		.global	vListInsertEnd
 124              		.thumb
 125              		.thumb_func
ARM GAS  /tmp/ccEUjPAt.s 			page 5


 126              		.type	vListInsertEnd, %function
 127              	vListInsertEnd:
 128              	.LFB57:
 100:FreeRTOS/list.c **** }
 101:FreeRTOS/list.c **** /*-----------------------------------------------------------*/
 102:FreeRTOS/list.c **** 
 103:FreeRTOS/list.c **** void vListInsertEnd( xList *pxList, xListItem *pxNewListItem )
 104:FreeRTOS/list.c **** {
 129              		.loc 1 104 0
 130              		.cfi_startproc
 131              		@ args = 0, pretend = 0, frame = 0
 132              		@ frame_needed = 0, uses_anonymous_args = 0
 133              		@ link register save eliminated.
 134              	.LVL2:
 105:FreeRTOS/list.c **** volatile xListItem * pxIndex;
 106:FreeRTOS/list.c **** 
 107:FreeRTOS/list.c **** 	/* Insert a new list item into pxList, but rather than sort the list,
 108:FreeRTOS/list.c **** 	makes the new list item the last item to be removed by a call to
 109:FreeRTOS/list.c **** 	pvListGetOwnerOfNextEntry.  This means it has to be the item pointed to by
 110:FreeRTOS/list.c **** 	the pxIndex member. */
 111:FreeRTOS/list.c **** 	pxIndex = pxList->pxIndex;
 135              		.loc 1 111 0
 136 0000 4368     		ldr	r3, [r0, #4]	@ pxIndex, pxList_1(D)->pxIndex
 137              	.LVL3:
 112:FreeRTOS/list.c **** 
 113:FreeRTOS/list.c **** 	pxNewListItem->pxNext = pxIndex->pxNext;
 138              		.loc 1 113 0
 139 0002 5A68     		ldr	r2, [r3, #4]	@ D.6264, pxIndex_2->pxNext
 114:FreeRTOS/list.c **** 	pxNewListItem->pxPrevious = pxList->pxIndex;
 140              		.loc 1 114 0
 141 0004 8B60     		str	r3, [r1, #8]	@ pxIndex, pxNewListItem_4(D)->pxPrevious
 113:FreeRTOS/list.c **** 	pxNewListItem->pxNext = pxIndex->pxNext;
 142              		.loc 1 113 0
 143 0006 4A60     		str	r2, [r1, #4]	@ D.6264, pxNewListItem_4(D)->pxNext
 115:FreeRTOS/list.c **** 	pxIndex->pxNext->pxPrevious = ( volatile xListItem * ) pxNewListItem;
 144              		.loc 1 115 0
 145 0008 5A68     		ldr	r2, [r3, #4]	@ D.6266, pxIndex_2->pxNext
 146 000a 9160     		str	r1, [r2, #8]	@ pxNewListItem, D.6266_6->pxPrevious
 116:FreeRTOS/list.c **** 	pxIndex->pxNext = ( volatile xListItem * ) pxNewListItem;
 147              		.loc 1 116 0
 148 000c 5960     		str	r1, [r3, #4]	@ pxNewListItem, pxIndex_2->pxNext
 117:FreeRTOS/list.c **** 	pxList->pxIndex = ( volatile xListItem * ) pxNewListItem;
 149              		.loc 1 117 0
 150 000e 4160     		str	r1, [r0, #4]	@ pxNewListItem, pxList_1(D)->pxIndex
 118:FreeRTOS/list.c **** 
 119:FreeRTOS/list.c **** 	/* Remember which list the item is in. */
 120:FreeRTOS/list.c **** 	pxNewListItem->pvContainer = ( void * ) pxList;
 151              		.loc 1 120 0
 152 0010 0861     		str	r0, [r1, #16]	@ pxList, pxNewListItem_4(D)->pvContainer
 121:FreeRTOS/list.c **** 
 122:FreeRTOS/list.c **** 	( pxList->uxNumberOfItems )++;
 153              		.loc 1 122 0
 154 0012 0168     		ldr	r1, [r0, #0]	@ D.6267, pxList_1(D)->uxNumberOfItems
 155              	.LVL4:
 156 0014 4B1C     		adds	r3, r1, #1	@ D.6268, D.6267,
 157              	.LVL5:
 158 0016 0360     		str	r3, [r0, #0]	@ D.6268, pxList_1(D)->uxNumberOfItems
ARM GAS  /tmp/ccEUjPAt.s 			page 6


 159 0018 7047     		bx	lr	@
 160              		.cfi_endproc
 161              	.LFE57:
 162              		.size	vListInsertEnd, .-vListInsertEnd
 163              		.section	.text.vListInsert,"ax",%progbits
 164              		.align	1
 165              		.global	vListInsert
 166              		.thumb
 167              		.thumb_func
 168              		.type	vListInsert, %function
 169              	vListInsert:
 170              	.LFB58:
 123:FreeRTOS/list.c **** }
 124:FreeRTOS/list.c **** /*-----------------------------------------------------------*/
 125:FreeRTOS/list.c **** 
 126:FreeRTOS/list.c **** void vListInsert( xList *pxList, xListItem *pxNewListItem )
 127:FreeRTOS/list.c **** {
 171              		.loc 1 127 0
 172              		.cfi_startproc
 173              		@ args = 0, pretend = 0, frame = 0
 174              		@ frame_needed = 0, uses_anonymous_args = 0
 175              	.LVL6:
 128:FreeRTOS/list.c **** volatile xListItem *pxIterator;
 129:FreeRTOS/list.c **** portTickType xValueOfInsertion;
 130:FreeRTOS/list.c **** 
 131:FreeRTOS/list.c **** 	/* Insert the new list item into the list, sorted in ulListItem order. */
 132:FreeRTOS/list.c **** 	xValueOfInsertion = pxNewListItem->xItemValue;
 176              		.loc 1 132 0
 177 0000 0A68     		ldr	r2, [r1, #0]	@ xValueOfInsertion, pxNewListItem_3(D)->xItemValue
 178              	.LVL7:
 127:FreeRTOS/list.c **** {
 179              		.loc 1 127 0
 180 0002 10B5     		push	{r4, lr}	@
 181              	.LCFI0:
 182              		.cfi_def_cfa_offset 8
 183              		.cfi_offset 4, -8
 184              		.cfi_offset 14, -4
 133:FreeRTOS/list.c **** 
 134:FreeRTOS/list.c **** 	/* If the list already contains a list item with the same item value then
 135:FreeRTOS/list.c **** 	the new list item should be placed after it.  This ensures that TCB's which
 136:FreeRTOS/list.c **** 	are stored in ready lists (all of which have the same ulListItem value)
 137:FreeRTOS/list.c **** 	get an equal share of the CPU.  However, if the xItemValue is the same as
 138:FreeRTOS/list.c **** 	the back marker the iteration loop below will not end.  This means we need
 139:FreeRTOS/list.c **** 	to guard against this by checking the value first and modifying the
 140:FreeRTOS/list.c **** 	algorithm slightly if necessary. */
 141:FreeRTOS/list.c **** 	if( xValueOfInsertion == portMAX_DELAY )
 185              		.loc 1 141 0
 186 0004 531C     		adds	r3, r2, #1	@, xValueOfInsertion,
 187 0006 01D1     		bne	.L5	@,
 142:FreeRTOS/list.c **** 	{
 143:FreeRTOS/list.c **** 		pxIterator = pxList->xListEnd.pxPrevious;
 188              		.loc 1 143 0
 189 0008 0369     		ldr	r3, [r0, #16]	@ pxIterator, pxList_5(D)->xListEnd.pxPrevious
 190              	.LVL8:
 191 000a 07E0     		b	.L6	@
 192              	.LVL9:
 193              	.L5:
ARM GAS  /tmp/ccEUjPAt.s 			page 7


 144:FreeRTOS/list.c **** 	}
 145:FreeRTOS/list.c **** 	else
 146:FreeRTOS/list.c **** 	{
 147:FreeRTOS/list.c **** 		/* *** NOTE ***********************************************************
 148:FreeRTOS/list.c **** 		If you find your application is crashing here then likely causes are:
 149:FreeRTOS/list.c **** 			1) Stack overflow -
 150:FreeRTOS/list.c **** 			   see http://www.freertos.org/Stacks-and-stack-overflow-checking.html
 151:FreeRTOS/list.c **** 			2) Incorrect interrupt priority assignment, especially on Cortex-M3
 152:FreeRTOS/list.c **** 			   parts where numerically high priority values denote low actual
 153:FreeRTOS/list.c **** 			   interrupt priories, which can seem counter intuitive.  See
 154:FreeRTOS/list.c **** 			   configMAX_SYSCALL_INTERRUPT_PRIORITY on http://www.freertos.org/a00110.html
 155:FreeRTOS/list.c **** 			3) Calling an API function from within a critical section or when
 156:FreeRTOS/list.c **** 			   the scheduler is suspended.
 157:FreeRTOS/list.c **** 			4) Using a queue or semaphore before it has been initialised or
 158:FreeRTOS/list.c **** 			   before the scheduler has been started (are interrupts firing
 159:FreeRTOS/list.c **** 			   before vTaskStartScheduler() has been called?).
 160:FreeRTOS/list.c **** 		See http://www.freertos.org/FAQHelp.html for more tips.
 161:FreeRTOS/list.c **** 		**********************************************************************/
 162:FreeRTOS/list.c **** 		
 163:FreeRTOS/list.c **** 		for( pxIterator = ( xListItem * ) &( pxList->xListEnd ); pxIterator->pxNext->xItemValue <= xValue
 194              		.loc 1 163 0
 195 000c 00F10803 		add	r3, r0, #8	@ pxIterator, pxList,
 196              	.LVL10:
 197              	.L7:
 198              		.loc 1 163 0 is_stmt 0 discriminator 1
 199 0010 5C68     		ldr	r4, [r3, #4]	@ D.6258, pxIterator_1->pxNext
 200 0012 2468     		ldr	r4, [r4, #0]	@ D.6259, D.6258_8->xItemValue
 201 0014 9442     		cmp	r4, r2	@ D.6259, xValueOfInsertion
 202 0016 01D8     		bhi	.L6	@,
 203              	.L8:
 204              		.loc 1 163 0 discriminator 2
 205 0018 5B68     		ldr	r3, [r3, #4]	@ pxIterator, pxIterator_1->pxNext
 206              	.LVL11:
 207 001a F9E7     		b	.L7	@
 208              	.L6:
 164:FreeRTOS/list.c **** 		{
 165:FreeRTOS/list.c **** 			/* There is nothing to do here, we are just iterating to the
 166:FreeRTOS/list.c **** 			wanted insertion position. */
 167:FreeRTOS/list.c **** 		}
 168:FreeRTOS/list.c **** 	}
 169:FreeRTOS/list.c **** 
 170:FreeRTOS/list.c **** 	pxNewListItem->pxNext = pxIterator->pxNext;
 209              		.loc 1 170 0 is_stmt 1
 210 001c 5A68     		ldr	r2, [r3, #4]	@ D.6260, pxIterator_2->pxNext
 211              	.LVL12:
 171:FreeRTOS/list.c **** 	pxNewListItem->pxNext->pxPrevious = ( volatile xListItem * ) pxNewListItem;
 172:FreeRTOS/list.c **** 	pxNewListItem->pxPrevious = pxIterator;
 173:FreeRTOS/list.c **** 	pxIterator->pxNext = ( volatile xListItem * ) pxNewListItem;
 174:FreeRTOS/list.c **** 
 175:FreeRTOS/list.c **** 	/* Remember which list the item is in.  This allows fast removal of the
 176:FreeRTOS/list.c **** 	item later. */
 177:FreeRTOS/list.c **** 	pxNewListItem->pvContainer = ( void * ) pxList;
 212              		.loc 1 177 0
 213 001e 0861     		str	r0, [r1, #16]	@ pxList, pxNewListItem_3(D)->pvContainer
 171:FreeRTOS/list.c **** 	pxNewListItem->pxNext->pxPrevious = ( volatile xListItem * ) pxNewListItem;
 214              		.loc 1 171 0
 215 0020 9160     		str	r1, [r2, #8]	@ pxNewListItem, D.6260_11->pxPrevious
ARM GAS  /tmp/ccEUjPAt.s 			page 8


 170:FreeRTOS/list.c **** 	pxNewListItem->pxNext = pxIterator->pxNext;
 216              		.loc 1 170 0
 217 0022 4A60     		str	r2, [r1, #4]	@ D.6260, pxNewListItem_3(D)->pxNext
 173:FreeRTOS/list.c **** 	pxIterator->pxNext = ( volatile xListItem * ) pxNewListItem;
 218              		.loc 1 173 0
 219 0024 5960     		str	r1, [r3, #4]	@ pxNewListItem, pxIterator_2->pxNext
 172:FreeRTOS/list.c **** 	pxNewListItem->pxPrevious = pxIterator;
 220              		.loc 1 172 0
 221 0026 8B60     		str	r3, [r1, #8]	@ pxIterator, pxNewListItem_3(D)->pxPrevious
 178:FreeRTOS/list.c **** 
 179:FreeRTOS/list.c **** 	( pxList->uxNumberOfItems )++;
 222              		.loc 1 179 0
 223 0028 0168     		ldr	r1, [r0, #0]	@ D.6262, pxList_5(D)->uxNumberOfItems
 224              	.LVL13:
 225 002a 4B1C     		adds	r3, r1, #1	@ D.6263, D.6262,
 226              	.LVL14:
 227 002c 0360     		str	r3, [r0, #0]	@ D.6263, pxList_5(D)->uxNumberOfItems
 228 002e 10BD     		pop	{r4, pc}	@
 229              		.cfi_endproc
 230              	.LFE58:
 231              		.size	vListInsert, .-vListInsert
 232              		.section	.text.vListRemove,"ax",%progbits
 233              		.align	1
 234              		.global	vListRemove
 235              		.thumb
 236              		.thumb_func
 237              		.type	vListRemove, %function
 238              	vListRemove:
 239              	.LFB59:
 180:FreeRTOS/list.c **** }
 181:FreeRTOS/list.c **** /*-----------------------------------------------------------*/
 182:FreeRTOS/list.c **** 
 183:FreeRTOS/list.c **** void vListRemove( xListItem *pxItemToRemove )
 184:FreeRTOS/list.c **** {
 240              		.loc 1 184 0
 241              		.cfi_startproc
 242              		@ args = 0, pretend = 0, frame = 0
 243              		@ frame_needed = 0, uses_anonymous_args = 0
 244              		@ link register save eliminated.
 245              	.LVL15:
 185:FreeRTOS/list.c **** xList * pxList;
 186:FreeRTOS/list.c **** 
 187:FreeRTOS/list.c **** 	pxItemToRemove->pxNext->pxPrevious = pxItemToRemove->pxPrevious;
 246              		.loc 1 187 0
 247 0000 4368     		ldr	r3, [r0, #4]	@ D.6248, pxItemToRemove_1(D)->pxNext
 248 0002 8268     		ldr	r2, [r0, #8]	@ D.6249, pxItemToRemove_1(D)->pxPrevious
 249 0004 9A60     		str	r2, [r3, #8]	@ D.6249, D.6248_2->pxPrevious
 188:FreeRTOS/list.c **** 	pxItemToRemove->pxPrevious->pxNext = pxItemToRemove->pxNext;
 250              		.loc 1 188 0
 251 0006 8268     		ldr	r2, [r0, #8]	@ D.6249, pxItemToRemove_1(D)->pxPrevious
 252 0008 5360     		str	r3, [r2, #4]	@ D.6248, D.6249_4->pxNext
 189:FreeRTOS/list.c **** 	
 190:FreeRTOS/list.c **** 	/* The list item knows which list it is in.  Obtain the list from the list
 191:FreeRTOS/list.c **** 	item. */
 192:FreeRTOS/list.c **** 	pxList = ( xList * ) pxItemToRemove->pvContainer;
 253              		.loc 1 192 0
 254 000a 0369     		ldr	r3, [r0, #16]	@ pxList, pxItemToRemove_1(D)->pvContainer
ARM GAS  /tmp/ccEUjPAt.s 			page 9


 255              	.LVL16:
 193:FreeRTOS/list.c **** 
 194:FreeRTOS/list.c **** 	/* Make sure the index is left pointing to a valid item. */
 195:FreeRTOS/list.c **** 	if( pxList->pxIndex == pxItemToRemove )
 256              		.loc 1 195 0
 257 000c 5968     		ldr	r1, [r3, #4]	@ pxList_6->pxIndex, pxList_6->pxIndex
 258 000e 8142     		cmp	r1, r0	@ pxList_6->pxIndex, pxItemToRemove
 196:FreeRTOS/list.c **** 	{
 197:FreeRTOS/list.c **** 		pxList->pxIndex = pxItemToRemove->pxPrevious;
 259              		.loc 1 197 0
 260 0010 08BF     		it	eq
 261 0012 5A60     		streq	r2, [r3, #4]	@ D.6249, pxList_6->pxIndex
 198:FreeRTOS/list.c **** 	}
 199:FreeRTOS/list.c **** 
 200:FreeRTOS/list.c **** 	pxItemToRemove->pvContainer = NULL;
 262              		.loc 1 200 0
 263 0014 0022     		movs	r2, #0	@ tmp143,
 264 0016 0261     		str	r2, [r0, #16]	@ tmp143, pxItemToRemove_1(D)->pvContainer
 201:FreeRTOS/list.c **** 	( pxList->uxNumberOfItems )--;
 265              		.loc 1 201 0
 266 0018 1868     		ldr	r0, [r3, #0]	@ D.6253, pxList_6->uxNumberOfItems
 267              	.LVL17:
 268 001a 411E     		subs	r1, r0, #1	@ D.6254, D.6253,
 269 001c 1960     		str	r1, [r3, #0]	@ D.6254, pxList_6->uxNumberOfItems
 270 001e 7047     		bx	lr	@
 271              		.cfi_endproc
 272              	.LFE59:
 273              		.size	vListRemove, .-vListRemove
 274              		.text
 275              	.Letext0:
 276              		.file 2 "/home/maciek/gcc-arm-none-eabi/gcc-arm-none-eabi-4_7-2013q1/bin/../lib/gcc/arm-none-eabi/
 277              		.file 3 "FreeRTOS/portable/GCC/ARM_CM3/portmacro.h"
 278              		.file 4 "FreeRTOS/include/list.h"
 279              		.file 5 "inc/core_cm3.h"