ARM GAS  C:\Users\Adrian\AppData\Local\Temp\ccGJSvBN.s 			page 1


   1              		.syntax unified
   2              		.cpu cortex-m3
   3              		.fpu softvfp
   4              		.eabi_attribute 20, 1	@ Tag_ABI_FP_denormal
   5              		.eabi_attribute 21, 1	@ Tag_ABI_FP_exceptions
   6              		.eabi_attribute 23, 3	@ Tag_ABI_FP_number_model
   7              		.eabi_attribute 24, 1	@ Tag_ABI_align8_needed
   8              		.eabi_attribute 25, 1	@ Tag_ABI_align8_preserved
   9              		.eabi_attribute 26, 1	@ Tag_ABI_enum_size
  10              		.eabi_attribute 30, 6	@ Tag_ABI_optimization_goals
  11              		.eabi_attribute 34, 1	@ Tag_CPU_unaligned_access
  12              		.eabi_attribute 18, 4	@ Tag_ABI_PCS_wchar_t
  13              		.file	"main.cpp"
  14              	@ GNU C++ (GNU Tools for ARM Embedded Processors) version 4.8.4 20140526 (release) [ARM/embedded-4_
  15              	@	compiled by GNU C version 4.6.4, GMP version 4.3.2, MPFR version 2.4.2, MPC version 0.8.1
  16              	@ GGC heuristics: --param ggc-min-expand=100 --param ggc-min-heapsize=131072
  17              	@ options passed:  -I . -I inc -I FreeRTOS/include
  18              	@ -I FreeRTOS/portable/GCC/ARM_CM3 -I FatFS -I peripherals -I configuration
  19              	@ -I drivers -I application -imultilib armv7-m
  20              	@ -iprefix d:\programy\gnu tools arm embedded\4.8 2014q2\bin\../lib/gcc/arm-none-eabi/4.8.4/
  21              	@ -isysroot d:\programy\gnu tools arm embedded\4.8 2014q2\bin\../arm-none-eabi
  22              	@ -MD out/main.d -MF out/main.d -MP -MQ out/main.o -D__USES_INITFINI__
  23              	@ -D STM32L1XX_MD configuration/main.cpp -mcpu=cortex-m3 -mthumb
  24              	@ -auxbase-strip out/main.o -g -ggdb3 -O0 -Wall -Wextra -std=gnu++11
  25              	@ -ffunction-sections -fdata-sections -fno-rtti -fno-exceptions
  26              	@ -fverbose-asm
  27              	@ options enabled:  -faggressive-loop-optimizations -fauto-inc-dec
  28              	@ -fbranch-count-reg -fcommon -fdata-sections -fdelete-null-pointer-checks
  29              	@ -fdwarf2-cfi-asm -fearly-inlining -feliminate-unused-debug-types
  30              	@ -ffunction-cse -ffunction-sections -fgcse-lm -fgnu-runtime -fident
  31              	@ -finline-atomics -fira-hoist-pressure -fira-share-save-slots
  32              	@ -fira-share-spill-slots -fivopts -fkeep-static-consts
  33              	@ -fleading-underscore -fmath-errno -fmerge-debug-strings
  34              	@ -fmove-loop-invariants -fpeephole -fprefetch-loop-arrays
  35              	@ -freg-struct-return -fsched-critical-path-heuristic
  36              	@ -fsched-dep-count-heuristic -fsched-group-heuristic -fsched-interblock
  37              	@ -fsched-last-insn-heuristic -fsched-rank-heuristic -fsched-spec
  38              	@ -fsched-spec-insn-heuristic -fsched-stalled-insns-dep -fshow-column
  39              	@ -fsigned-zeros -fsplit-ivs-in-unroller -fstrict-volatile-bitfields
  40              	@ -fsync-libcalls -ftrapping-math -ftree-coalesce-vars -ftree-cselim
  41              	@ -ftree-forwprop -ftree-loop-if-convert -ftree-loop-im -ftree-loop-ivcanon
  42              	@ -ftree-loop-optimize -ftree-parallelize-loops= -ftree-phiprop -ftree-pta
  43              	@ -ftree-reassoc -ftree-scev-cprop -ftree-slp-vectorize
  44              	@ -ftree-vect-loop-version -funit-at-a-time -fverbose-asm
  45              	@ -fzero-initialized-in-bss -mfix-cortex-m3-ldrd -mlittle-endian
  46              	@ -mpic-data-is-text-relative -msched-prolog -mthumb -munaligned-access
  47              	@ -mvectorize-with-neon-quad
  48              	
  49              		.text
  50              	.Ltext0:
  51              		.cfi_sections	.debug_frame
  52              		.section	.text.NVIC_EnableIRQ,"ax",%progbits
  53              		.align	2
  54              		.thumb
  55              		.thumb_func
  56              		.type	NVIC_EnableIRQ, %function
  57              	NVIC_EnableIRQ:
ARM GAS  C:\Users\Adrian\AppData\Local\Temp\ccGJSvBN.s 			page 2


  58              	.LFB40:
  59              		.file 1 "inc/core_cm3.h"
   1:inc/core_cm3.h **** /**************************************************************************//**
   2:inc/core_cm3.h ****  * @file     core_cm3.h
   3:inc/core_cm3.h ****  * @brief    CMSIS Cortex-M3 Core Peripheral Access Layer Header File
   4:inc/core_cm3.h ****  * @version  V2.10
   5:inc/core_cm3.h ****  * @date     19. July 2011
   6:inc/core_cm3.h ****  *
   7:inc/core_cm3.h ****  * @note
   8:inc/core_cm3.h ****  * Copyright (C) 2009-2011 ARM Limited. All rights reserved.
   9:inc/core_cm3.h ****  *
  10:inc/core_cm3.h ****  * @par
  11:inc/core_cm3.h ****  * ARM Limited (ARM) is supplying this software for use with Cortex-M
  12:inc/core_cm3.h ****  * processor based microcontrollers.  This file can be freely distributed
  13:inc/core_cm3.h ****  * within development tools that are supporting such ARM based processors.
  14:inc/core_cm3.h ****  *
  15:inc/core_cm3.h ****  * @par
  16:inc/core_cm3.h ****  * THIS SOFTWARE IS PROVIDED "AS IS".  NO WARRANTIES, WHETHER EXPRESS, IMPLIED
  17:inc/core_cm3.h ****  * OR STATUTORY, INCLUDING, BUT NOT LIMITED TO, IMPLIED WARRANTIES OF
  18:inc/core_cm3.h ****  * MERCHANTABILITY AND FITNESS FOR A PARTICULAR PURPOSE APPLY TO THIS SOFTWARE.
  19:inc/core_cm3.h ****  * ARM SHALL NOT, IN ANY CIRCUMSTANCES, BE LIABLE FOR SPECIAL, INCIDENTAL, OR
  20:inc/core_cm3.h ****  * CONSEQUENTIAL DAMAGES, FOR ANY REASON WHATSOEVER.
  21:inc/core_cm3.h ****  *
  22:inc/core_cm3.h ****  ******************************************************************************/
  23:inc/core_cm3.h **** #if defined ( __ICCARM__ )
  24:inc/core_cm3.h ****  #pragma system_include  /* treat file as system include file for MISRA check */
  25:inc/core_cm3.h **** #endif
  26:inc/core_cm3.h **** 
  27:inc/core_cm3.h **** #ifdef __cplusplus
  28:inc/core_cm3.h ****  extern "C" {
  29:inc/core_cm3.h **** #endif
  30:inc/core_cm3.h **** 
  31:inc/core_cm3.h **** #ifndef __CORE_CM3_H_GENERIC
  32:inc/core_cm3.h **** #define __CORE_CM3_H_GENERIC
  33:inc/core_cm3.h **** 
  34:inc/core_cm3.h **** 
  35:inc/core_cm3.h **** /** \mainpage CMSIS Cortex-M3
  36:inc/core_cm3.h **** 
  37:inc/core_cm3.h ****   This documentation describes the CMSIS Cortex-M Core Peripheral Access Layer.
  38:inc/core_cm3.h ****   It consists of:
  39:inc/core_cm3.h **** 
  40:inc/core_cm3.h ****      - Cortex-M Core Register Definitions
  41:inc/core_cm3.h ****      - Cortex-M functions
  42:inc/core_cm3.h ****      - Cortex-M instructions
  43:inc/core_cm3.h **** 
  44:inc/core_cm3.h ****   The CMSIS Cortex-M3 Core Peripheral Access Layer contains C and assembly functions that ease
  45:inc/core_cm3.h ****   access to the Cortex-M Core
  46:inc/core_cm3.h ****  */
  47:inc/core_cm3.h **** 
  48:inc/core_cm3.h **** /** \defgroup CMSIS_MISRA_Exceptions  CMSIS MISRA-C:2004 Compliance Exceptions
  49:inc/core_cm3.h ****   CMSIS violates following MISRA-C2004 Rules:
  50:inc/core_cm3.h ****   
  51:inc/core_cm3.h ****    - Violates MISRA 2004 Required Rule 8.5, object/function definition in header file.<br>
  52:inc/core_cm3.h ****      Function definitions in header files are used to allow 'inlining'. 
  53:inc/core_cm3.h **** 
  54:inc/core_cm3.h ****    - Violates MISRA 2004 Required Rule 18.4, declaration of union type or object of union type: '{.
  55:inc/core_cm3.h ****      Unions are used for effective representation of core registers.
ARM GAS  C:\Users\Adrian\AppData\Local\Temp\ccGJSvBN.s 			page 3


  56:inc/core_cm3.h ****    
  57:inc/core_cm3.h ****    - Violates MISRA 2004 Advisory Rule 19.7, Function-like macro defined.<br>
  58:inc/core_cm3.h ****      Function-like macros are used to allow more efficient code. 
  59:inc/core_cm3.h **** 
  60:inc/core_cm3.h ****  */
  61:inc/core_cm3.h **** 
  62:inc/core_cm3.h **** 
  63:inc/core_cm3.h **** /*******************************************************************************
  64:inc/core_cm3.h ****  *                 CMSIS definitions
  65:inc/core_cm3.h ****  ******************************************************************************/
  66:inc/core_cm3.h **** /** \defgroup CMSIS_core_definitions CMSIS Core Definitions
  67:inc/core_cm3.h ****   This file defines all structures and symbols for CMSIS core:
  68:inc/core_cm3.h ****    - CMSIS version number
  69:inc/core_cm3.h ****    - Cortex-M core
  70:inc/core_cm3.h ****    - Cortex-M core Revision Number
  71:inc/core_cm3.h ****   @{
  72:inc/core_cm3.h ****  */
  73:inc/core_cm3.h **** 
  74:inc/core_cm3.h **** /*  CMSIS CM3 definitions */
  75:inc/core_cm3.h **** #define __CM3_CMSIS_VERSION_MAIN  (0x02)                                                       /*!<
  76:inc/core_cm3.h **** #define __CM3_CMSIS_VERSION_SUB   (0x10)                                                       /*!<
  77:inc/core_cm3.h **** #define __CM3_CMSIS_VERSION       ((__CM3_CMSIS_VERSION_MAIN << 16) | __CM3_CMSIS_VERSION_SUB) /*!<
  78:inc/core_cm3.h **** 
  79:inc/core_cm3.h **** #define __CORTEX_M                (0x03)                                                       /*!<
  80:inc/core_cm3.h **** 
  81:inc/core_cm3.h **** 
  82:inc/core_cm3.h **** #if   defined ( __CC_ARM )
  83:inc/core_cm3.h ****   #define __ASM            __asm                                      /*!< asm keyword for ARM Comp
  84:inc/core_cm3.h ****   #define __INLINE         __inline                                   /*!< inline keyword for ARM C
  85:inc/core_cm3.h **** 
  86:inc/core_cm3.h **** #elif defined ( __ICCARM__ )
  87:inc/core_cm3.h ****   #define __ASM           __asm                                       /*!< asm keyword for IAR Comp
  88:inc/core_cm3.h ****   #define __INLINE        inline                                      /*!< inline keyword for IAR C
  89:inc/core_cm3.h **** 
  90:inc/core_cm3.h **** #elif defined ( __GNUC__ )
  91:inc/core_cm3.h ****   #define __ASM            __asm                                      /*!< asm keyword for GNU Comp
  92:inc/core_cm3.h ****   #define __INLINE         inline                                     /*!< inline keyword for GNU C
  93:inc/core_cm3.h **** 
  94:inc/core_cm3.h **** #elif defined ( __TASKING__ )
  95:inc/core_cm3.h ****   #define __ASM            __asm                                      /*!< asm keyword for TASKING 
  96:inc/core_cm3.h ****   #define __INLINE         inline                                     /*!< inline keyword for TASKI
  97:inc/core_cm3.h **** 
  98:inc/core_cm3.h **** #endif
  99:inc/core_cm3.h **** 
 100:inc/core_cm3.h **** /*!< __FPU_USED to be checked prior to making use of FPU specific registers and functions */
 101:inc/core_cm3.h **** #define __FPU_USED       0
 102:inc/core_cm3.h **** 
 103:inc/core_cm3.h **** #if defined ( __CC_ARM )
 104:inc/core_cm3.h ****   #if defined __TARGET_FPU_VFP
 105:inc/core_cm3.h ****     #warning "Compiler generates FPU instructions for a device without an FPU (check __FPU_PRESENT)
 106:inc/core_cm3.h ****   #endif
 107:inc/core_cm3.h **** #elif defined ( __ICCARM__ )
 108:inc/core_cm3.h ****   #if defined __ARMVFP__
 109:inc/core_cm3.h ****     #warning "Compiler generates FPU instructions for a device without an FPU (check __FPU_PRESENT)
 110:inc/core_cm3.h ****   #endif
 111:inc/core_cm3.h **** 
 112:inc/core_cm3.h **** #elif defined ( __GNUC__ )
ARM GAS  C:\Users\Adrian\AppData\Local\Temp\ccGJSvBN.s 			page 4


 113:inc/core_cm3.h ****   #if defined (__VFP_FP__) && !defined(__SOFTFP__)
 114:inc/core_cm3.h ****     #warning "Compiler generates FPU instructions for a device without an FPU (check __FPU_PRESENT)
 115:inc/core_cm3.h ****   #endif
 116:inc/core_cm3.h **** 
 117:inc/core_cm3.h **** #elif defined ( __TASKING__ )
 118:inc/core_cm3.h ****     /* add preprocessor checks */
 119:inc/core_cm3.h **** #endif
 120:inc/core_cm3.h **** 
 121:inc/core_cm3.h **** #include <stdint.h>                      /*!< standard types definitions                      */
 122:inc/core_cm3.h **** #include "core_cmInstr.h"                /*!< Core Instruction Access                         */
 123:inc/core_cm3.h **** #include "core_cmFunc.h"                 /*!< Core Function Access                            */
 124:inc/core_cm3.h **** 
 125:inc/core_cm3.h **** #endif /* __CORE_CM3_H_GENERIC */
 126:inc/core_cm3.h **** 
 127:inc/core_cm3.h **** #ifndef __CMSIS_GENERIC
 128:inc/core_cm3.h **** 
 129:inc/core_cm3.h **** #ifndef __CORE_CM3_H_DEPENDANT
 130:inc/core_cm3.h **** #define __CORE_CM3_H_DEPENDANT
 131:inc/core_cm3.h **** 
 132:inc/core_cm3.h **** /* check device defines and use defaults */
 133:inc/core_cm3.h **** #if defined __CHECK_DEVICE_DEFINES
 134:inc/core_cm3.h ****   #ifndef __CM3_REV
 135:inc/core_cm3.h ****     #define __CM3_REV               0x0200
 136:inc/core_cm3.h ****     #warning "__CM3_REV not defined in device header file; using default!"
 137:inc/core_cm3.h ****   #endif
 138:inc/core_cm3.h **** 
 139:inc/core_cm3.h ****   #ifndef __MPU_PRESENT
 140:inc/core_cm3.h ****     #define __MPU_PRESENT             0
 141:inc/core_cm3.h ****     #warning "__MPU_PRESENT not defined in device header file; using default!"
 142:inc/core_cm3.h ****   #endif
 143:inc/core_cm3.h **** 
 144:inc/core_cm3.h ****   #ifndef __NVIC_PRIO_BITS
 145:inc/core_cm3.h ****     #define __NVIC_PRIO_BITS          4
 146:inc/core_cm3.h ****     #warning "__NVIC_PRIO_BITS not defined in device header file; using default!"
 147:inc/core_cm3.h ****   #endif
 148:inc/core_cm3.h **** 
 149:inc/core_cm3.h ****   #ifndef __Vendor_SysTickConfig
 150:inc/core_cm3.h ****     #define __Vendor_SysTickConfig    0
 151:inc/core_cm3.h ****     #warning "__Vendor_SysTickConfig not defined in device header file; using default!"
 152:inc/core_cm3.h ****   #endif
 153:inc/core_cm3.h **** #endif
 154:inc/core_cm3.h **** 
 155:inc/core_cm3.h **** /* IO definitions (access restrictions to peripheral registers) */
 156:inc/core_cm3.h **** #ifdef __cplusplus
 157:inc/core_cm3.h ****   #define   __I     volatile             /*!< defines 'read only' permissions                 */
 158:inc/core_cm3.h **** #else
 159:inc/core_cm3.h ****   #define   __I     volatile const       /*!< defines 'read only' permissions                 */
 160:inc/core_cm3.h **** #endif
 161:inc/core_cm3.h **** #define     __O     volatile             /*!< defines 'write only' permissions                */
 162:inc/core_cm3.h **** #define     __IO    volatile             /*!< defines 'read / write' permissions              */
 163:inc/core_cm3.h **** 
 164:inc/core_cm3.h **** /*@} end of group CMSIS_core_definitions */
 165:inc/core_cm3.h **** 
 166:inc/core_cm3.h **** 
 167:inc/core_cm3.h **** 
 168:inc/core_cm3.h **** /*******************************************************************************
 169:inc/core_cm3.h ****  *                 Register Abstraction
ARM GAS  C:\Users\Adrian\AppData\Local\Temp\ccGJSvBN.s 			page 5


 170:inc/core_cm3.h ****  ******************************************************************************/
 171:inc/core_cm3.h **** /** \defgroup CMSIS_core_register CMSIS Core Register
 172:inc/core_cm3.h ****   Core Register contain:
 173:inc/core_cm3.h ****   - Core Register
 174:inc/core_cm3.h ****   - Core NVIC Register
 175:inc/core_cm3.h ****   - Core SCB Register
 176:inc/core_cm3.h ****   - Core SysTick Register
 177:inc/core_cm3.h ****   - Core Debug Register
 178:inc/core_cm3.h ****   - Core MPU Register
 179:inc/core_cm3.h **** */
 180:inc/core_cm3.h **** 
 181:inc/core_cm3.h **** /** \ingroup  CMSIS_core_register
 182:inc/core_cm3.h ****     \defgroup CMSIS_CORE CMSIS Core
 183:inc/core_cm3.h ****   Type definitions for the Cortex-M Core Registers
 184:inc/core_cm3.h ****   @{
 185:inc/core_cm3.h ****  */
 186:inc/core_cm3.h **** 
 187:inc/core_cm3.h **** /** \brief  Union type to access the Application Program Status Register (APSR).
 188:inc/core_cm3.h ****  */
 189:inc/core_cm3.h **** typedef union
 190:inc/core_cm3.h **** {
 191:inc/core_cm3.h ****   struct
 192:inc/core_cm3.h ****   {
 193:inc/core_cm3.h **** #if (__CORTEX_M != 0x04)
 194:inc/core_cm3.h ****     uint32_t _reserved0:27;              /*!< bit:  0..26  Reserved                           */
 195:inc/core_cm3.h **** #else
 196:inc/core_cm3.h ****     uint32_t _reserved0:16;              /*!< bit:  0..15  Reserved                           */
 197:inc/core_cm3.h ****     uint32_t GE:4;                       /*!< bit: 16..19  Greater than or Equal flags        */
 198:inc/core_cm3.h ****     uint32_t _reserved1:7;               /*!< bit: 20..26  Reserved                           */
 199:inc/core_cm3.h **** #endif
 200:inc/core_cm3.h ****     uint32_t Q:1;                        /*!< bit:     27  Saturation condition flag          */
 201:inc/core_cm3.h ****     uint32_t V:1;                        /*!< bit:     28  Overflow condition code flag       */
 202:inc/core_cm3.h ****     uint32_t C:1;                        /*!< bit:     29  Carry condition code flag          */
 203:inc/core_cm3.h ****     uint32_t Z:1;                        /*!< bit:     30  Zero condition code flag           */
 204:inc/core_cm3.h ****     uint32_t N:1;                        /*!< bit:     31  Negative condition code flag       */
 205:inc/core_cm3.h ****   } b;                                   /*!< Structure used for bit  access                  */
 206:inc/core_cm3.h ****   uint32_t w;                            /*!< Type      used for word access                  */
 207:inc/core_cm3.h **** } APSR_Type;
 208:inc/core_cm3.h **** 
 209:inc/core_cm3.h **** 
 210:inc/core_cm3.h **** /** \brief  Union type to access the Interrupt Program Status Register (IPSR).
 211:inc/core_cm3.h ****  */
 212:inc/core_cm3.h **** typedef union
 213:inc/core_cm3.h **** {
 214:inc/core_cm3.h ****   struct
 215:inc/core_cm3.h ****   {
 216:inc/core_cm3.h ****     uint32_t ISR:9;                      /*!< bit:  0.. 8  Exception number                   */
 217:inc/core_cm3.h ****     uint32_t _reserved0:23;              /*!< bit:  9..31  Reserved                           */
 218:inc/core_cm3.h ****   } b;                                   /*!< Structure used for bit  access                  */
 219:inc/core_cm3.h ****   uint32_t w;                            /*!< Type      used for word access                  */
 220:inc/core_cm3.h **** } IPSR_Type;
 221:inc/core_cm3.h **** 
 222:inc/core_cm3.h **** 
 223:inc/core_cm3.h **** /** \brief  Union type to access the Special-Purpose Program Status Registers (xPSR).
 224:inc/core_cm3.h ****  */
 225:inc/core_cm3.h **** typedef union
 226:inc/core_cm3.h **** {
ARM GAS  C:\Users\Adrian\AppData\Local\Temp\ccGJSvBN.s 			page 6


 227:inc/core_cm3.h ****   struct
 228:inc/core_cm3.h ****   {
 229:inc/core_cm3.h ****     uint32_t ISR:9;                      /*!< bit:  0.. 8  Exception number                   */
 230:inc/core_cm3.h **** #if (__CORTEX_M != 0x04)
 231:inc/core_cm3.h ****     uint32_t _reserved0:15;              /*!< bit:  9..23  Reserved                           */
 232:inc/core_cm3.h **** #else
 233:inc/core_cm3.h ****     uint32_t _reserved0:7;               /*!< bit:  9..15  Reserved                           */
 234:inc/core_cm3.h ****     uint32_t GE:4;                       /*!< bit: 16..19  Greater than or Equal flags        */
 235:inc/core_cm3.h ****     uint32_t _reserved1:4;               /*!< bit: 20..23  Reserved                           */
 236:inc/core_cm3.h **** #endif
 237:inc/core_cm3.h ****     uint32_t T:1;                        /*!< bit:     24  Thumb bit        (read 0)          */
 238:inc/core_cm3.h ****     uint32_t IT:2;                       /*!< bit: 25..26  saved IT state   (read 0)          */
 239:inc/core_cm3.h ****     uint32_t Q:1;                        /*!< bit:     27  Saturation condition flag          */
 240:inc/core_cm3.h ****     uint32_t V:1;                        /*!< bit:     28  Overflow condition code flag       */
 241:inc/core_cm3.h ****     uint32_t C:1;                        /*!< bit:     29  Carry condition code flag          */
 242:inc/core_cm3.h ****     uint32_t Z:1;                        /*!< bit:     30  Zero condition code flag           */
 243:inc/core_cm3.h ****     uint32_t N:1;                        /*!< bit:     31  Negative condition code flag       */
 244:inc/core_cm3.h ****   } b;                                   /*!< Structure used for bit  access                  */
 245:inc/core_cm3.h ****   uint32_t w;                            /*!< Type      used for word access                  */
 246:inc/core_cm3.h **** } xPSR_Type;
 247:inc/core_cm3.h **** 
 248:inc/core_cm3.h **** 
 249:inc/core_cm3.h **** /** \brief  Union type to access the Control Registers (CONTROL).
 250:inc/core_cm3.h ****  */
 251:inc/core_cm3.h **** typedef union
 252:inc/core_cm3.h **** {
 253:inc/core_cm3.h ****   struct
 254:inc/core_cm3.h ****   {
 255:inc/core_cm3.h ****     uint32_t nPRIV:1;                    /*!< bit:      0  Execution privilege in Thread mode */
 256:inc/core_cm3.h ****     uint32_t SPSEL:1;                    /*!< bit:      1  Stack to be used                   */
 257:inc/core_cm3.h ****     uint32_t FPCA:1;                     /*!< bit:      2  FP extension active flag           */
 258:inc/core_cm3.h ****     uint32_t _reserved0:29;              /*!< bit:  3..31  Reserved                           */
 259:inc/core_cm3.h ****   } b;                                   /*!< Structure used for bit  access                  */
 260:inc/core_cm3.h ****   uint32_t w;                            /*!< Type      used for word access                  */
 261:inc/core_cm3.h **** } CONTROL_Type;
 262:inc/core_cm3.h **** 
 263:inc/core_cm3.h **** /*@} end of group CMSIS_CORE */
 264:inc/core_cm3.h **** 
 265:inc/core_cm3.h **** 
 266:inc/core_cm3.h **** /** \ingroup  CMSIS_core_register
 267:inc/core_cm3.h ****     \defgroup CMSIS_NVIC CMSIS NVIC
 268:inc/core_cm3.h ****   Type definitions for the Cortex-M NVIC Registers
 269:inc/core_cm3.h ****   @{
 270:inc/core_cm3.h ****  */
 271:inc/core_cm3.h **** 
 272:inc/core_cm3.h **** /** \brief  Structure type to access the Nested Vectored Interrupt Controller (NVIC).
 273:inc/core_cm3.h ****  */
 274:inc/core_cm3.h **** typedef struct
 275:inc/core_cm3.h **** {
 276:inc/core_cm3.h ****   __IO uint32_t ISER[8];                 /*!< Offset: 0x000 (R/W)  Interrupt Set Enable Register   
 277:inc/core_cm3.h ****        uint32_t RESERVED0[24];
 278:inc/core_cm3.h ****   __IO uint32_t ICER[8];                 /*!< Offset: 0x080 (R/W)  Interrupt Clear Enable Register 
 279:inc/core_cm3.h ****        uint32_t RSERVED1[24];
 280:inc/core_cm3.h ****   __IO uint32_t ISPR[8];                 /*!< Offset: 0x100 (R/W)  Interrupt Set Pending Register  
 281:inc/core_cm3.h ****        uint32_t RESERVED2[24];
 282:inc/core_cm3.h ****   __IO uint32_t ICPR[8];                 /*!< Offset: 0x180 (R/W)  Interrupt Clear Pending Register
 283:inc/core_cm3.h ****        uint32_t RESERVED3[24];
ARM GAS  C:\Users\Adrian\AppData\Local\Temp\ccGJSvBN.s 			page 7


 284:inc/core_cm3.h ****   __IO uint32_t IABR[8];                 /*!< Offset: 0x200 (R/W)  Interrupt Active bit Register   
 285:inc/core_cm3.h ****        uint32_t RESERVED4[56];
 286:inc/core_cm3.h ****   __IO uint8_t  IP[240];                 /*!< Offset: 0x300 (R/W)  Interrupt Priority Register (8Bi
 287:inc/core_cm3.h ****        uint32_t RESERVED5[644];
 288:inc/core_cm3.h ****   __O  uint32_t STIR;                    /*!< Offset: 0xE00 ( /W)  Software Trigger Interrupt Regis
 289:inc/core_cm3.h **** }  NVIC_Type;
 290:inc/core_cm3.h **** 
 291:inc/core_cm3.h **** /* Software Triggered Interrupt Register Definitions */
 292:inc/core_cm3.h **** #define NVIC_STIR_INTID_Pos                 0                                          /*!< STIR: I
 293:inc/core_cm3.h **** #define NVIC_STIR_INTID_Msk                (0x1FFUL << NVIC_STIR_INTID_Pos)            /*!< STIR: I
 294:inc/core_cm3.h **** 
 295:inc/core_cm3.h **** /*@} end of group CMSIS_NVIC */
 296:inc/core_cm3.h **** 
 297:inc/core_cm3.h **** 
 298:inc/core_cm3.h **** /** \ingroup  CMSIS_core_register
 299:inc/core_cm3.h ****     \defgroup CMSIS_SCB CMSIS SCB
 300:inc/core_cm3.h ****   Type definitions for the Cortex-M System Control Block Registers
 301:inc/core_cm3.h ****   @{
 302:inc/core_cm3.h ****  */
 303:inc/core_cm3.h **** 
 304:inc/core_cm3.h **** /** \brief  Structure type to access the System Control Block (SCB).
 305:inc/core_cm3.h ****  */
 306:inc/core_cm3.h **** typedef struct
 307:inc/core_cm3.h **** {
 308:inc/core_cm3.h ****   __I  uint32_t CPUID;                   /*!< Offset: 0x000 (R/ )  CPUID Base Register             
 309:inc/core_cm3.h ****   __IO uint32_t ICSR;                    /*!< Offset: 0x004 (R/W)  Interrupt Control and State Regi
 310:inc/core_cm3.h ****   __IO uint32_t VTOR;                    /*!< Offset: 0x008 (R/W)  Vector Table Offset Register    
 311:inc/core_cm3.h ****   __IO uint32_t AIRCR;                   /*!< Offset: 0x00C (R/W)  Application Interrupt and Reset 
 312:inc/core_cm3.h ****   __IO uint32_t SCR;                     /*!< Offset: 0x010 (R/W)  System Control Register         
 313:inc/core_cm3.h ****   __IO uint32_t CCR;                     /*!< Offset: 0x014 (R/W)  Configuration Control Register  
 314:inc/core_cm3.h ****   __IO uint8_t  SHP[12];                 /*!< Offset: 0x018 (R/W)  System Handlers Priority Registe
 315:inc/core_cm3.h ****   __IO uint32_t SHCSR;                   /*!< Offset: 0x024 (R/W)  System Handler Control and State
 316:inc/core_cm3.h ****   __IO uint32_t CFSR;                    /*!< Offset: 0x028 (R/W)  Configurable Fault Status Regist
 317:inc/core_cm3.h ****   __IO uint32_t HFSR;                    /*!< Offset: 0x02C (R/W)  HardFault Status Register       
 318:inc/core_cm3.h ****   __IO uint32_t DFSR;                    /*!< Offset: 0x030 (R/W)  Debug Fault Status Register     
 319:inc/core_cm3.h ****   __IO uint32_t MMFAR;                   /*!< Offset: 0x034 (R/W)  MemManage Fault Address Register
 320:inc/core_cm3.h ****   __IO uint32_t BFAR;                    /*!< Offset: 0x038 (R/W)  BusFault Address Register       
 321:inc/core_cm3.h ****   __IO uint32_t AFSR;                    /*!< Offset: 0x03C (R/W)  Auxiliary Fault Status Register 
 322:inc/core_cm3.h ****   __I  uint32_t PFR[2];                  /*!< Offset: 0x040 (R/ )  Processor Feature Register      
 323:inc/core_cm3.h ****   __I  uint32_t DFR;                     /*!< Offset: 0x048 (R/ )  Debug Feature Register          
 324:inc/core_cm3.h ****   __I  uint32_t ADR;                     /*!< Offset: 0x04C (R/ )  Auxiliary Feature Register      
 325:inc/core_cm3.h ****   __I  uint32_t MMFR[4];                 /*!< Offset: 0x050 (R/ )  Memory Model Feature Register   
 326:inc/core_cm3.h ****   __I  uint32_t ISAR[5];                 /*!< Offset: 0x060 (R/ )  Instruction Set Attributes Regis
 327:inc/core_cm3.h ****        uint32_t RESERVED0[5];
 328:inc/core_cm3.h ****   __IO uint32_t CPACR;                   /*!< Offset: 0x088 (R/W)  Coprocessor Access Control Regis
 329:inc/core_cm3.h **** } SCB_Type;
 330:inc/core_cm3.h **** 
 331:inc/core_cm3.h **** /* SCB CPUID Register Definitions */
 332:inc/core_cm3.h **** #define SCB_CPUID_IMPLEMENTER_Pos          24                                             /*!< SCB 
 333:inc/core_cm3.h **** #define SCB_CPUID_IMPLEMENTER_Msk          (0xFFUL << SCB_CPUID_IMPLEMENTER_Pos)          /*!< SCB 
 334:inc/core_cm3.h **** 
 335:inc/core_cm3.h **** #define SCB_CPUID_VARIANT_Pos              20                                             /*!< SCB 
 336:inc/core_cm3.h **** #define SCB_CPUID_VARIANT_Msk              (0xFUL << SCB_CPUID_VARIANT_Pos)               /*!< SCB 
 337:inc/core_cm3.h **** 
 338:inc/core_cm3.h **** #define SCB_CPUID_ARCHITECTURE_Pos         16                                             /*!< SCB 
 339:inc/core_cm3.h **** #define SCB_CPUID_ARCHITECTURE_Msk         (0xFUL << SCB_CPUID_ARCHITECTURE_Pos)          /*!< SCB 
 340:inc/core_cm3.h **** 
ARM GAS  C:\Users\Adrian\AppData\Local\Temp\ccGJSvBN.s 			page 8


 341:inc/core_cm3.h **** #define SCB_CPUID_PARTNO_Pos                4                                             /*!< SCB 
 342:inc/core_cm3.h **** #define SCB_CPUID_PARTNO_Msk               (0xFFFUL << SCB_CPUID_PARTNO_Pos)              /*!< SCB 
 343:inc/core_cm3.h **** 
 344:inc/core_cm3.h **** #define SCB_CPUID_REVISION_Pos              0                                             /*!< SCB 
 345:inc/core_cm3.h **** #define SCB_CPUID_REVISION_Msk             (0xFUL << SCB_CPUID_REVISION_Pos)              /*!< SCB 
 346:inc/core_cm3.h **** 
 347:inc/core_cm3.h **** /* SCB Interrupt Control State Register Definitions */
 348:inc/core_cm3.h **** #define SCB_ICSR_NMIPENDSET_Pos            31                                             /*!< SCB 
 349:inc/core_cm3.h **** #define SCB_ICSR_NMIPENDSET_Msk            (1UL << SCB_ICSR_NMIPENDSET_Pos)               /*!< SCB 
 350:inc/core_cm3.h **** 
 351:inc/core_cm3.h **** #define SCB_ICSR_PENDSVSET_Pos             28                                             /*!< SCB 
 352:inc/core_cm3.h **** #define SCB_ICSR_PENDSVSET_Msk             (1UL << SCB_ICSR_PENDSVSET_Pos)                /*!< SCB 
 353:inc/core_cm3.h **** 
 354:inc/core_cm3.h **** #define SCB_ICSR_PENDSVCLR_Pos             27                                             /*!< SCB 
 355:inc/core_cm3.h **** #define SCB_ICSR_PENDSVCLR_Msk             (1UL << SCB_ICSR_PENDSVCLR_Pos)                /*!< SCB 
 356:inc/core_cm3.h **** 
 357:inc/core_cm3.h **** #define SCB_ICSR_PENDSTSET_Pos             26                                             /*!< SCB 
 358:inc/core_cm3.h **** #define SCB_ICSR_PENDSTSET_Msk             (1UL << SCB_ICSR_PENDSTSET_Pos)                /*!< SCB 
 359:inc/core_cm3.h **** 
 360:inc/core_cm3.h **** #define SCB_ICSR_PENDSTCLR_Pos             25                                             /*!< SCB 
 361:inc/core_cm3.h **** #define SCB_ICSR_PENDSTCLR_Msk             (1UL << SCB_ICSR_PENDSTCLR_Pos)                /*!< SCB 
 362:inc/core_cm3.h **** 
 363:inc/core_cm3.h **** #define SCB_ICSR_ISRPREEMPT_Pos            23                                             /*!< SCB 
 364:inc/core_cm3.h **** #define SCB_ICSR_ISRPREEMPT_Msk            (1UL << SCB_ICSR_ISRPREEMPT_Pos)               /*!< SCB 
 365:inc/core_cm3.h **** 
 366:inc/core_cm3.h **** #define SCB_ICSR_ISRPENDING_Pos            22                                             /*!< SCB 
 367:inc/core_cm3.h **** #define SCB_ICSR_ISRPENDING_Msk            (1UL << SCB_ICSR_ISRPENDING_Pos)               /*!< SCB 
 368:inc/core_cm3.h **** 
 369:inc/core_cm3.h **** #define SCB_ICSR_VECTPENDING_Pos           12                                             /*!< SCB 
 370:inc/core_cm3.h **** #define SCB_ICSR_VECTPENDING_Msk           (0x1FFUL << SCB_ICSR_VECTPENDING_Pos)          /*!< SCB 
 371:inc/core_cm3.h **** 
 372:inc/core_cm3.h **** #define SCB_ICSR_RETTOBASE_Pos             11                                             /*!< SCB 
 373:inc/core_cm3.h **** #define SCB_ICSR_RETTOBASE_Msk             (1UL << SCB_ICSR_RETTOBASE_Pos)                /*!< SCB 
 374:inc/core_cm3.h **** 
 375:inc/core_cm3.h **** #define SCB_ICSR_VECTACTIVE_Pos             0                                             /*!< SCB 
 376:inc/core_cm3.h **** #define SCB_ICSR_VECTACTIVE_Msk            (0x1FFUL << SCB_ICSR_VECTACTIVE_Pos)           /*!< SCB 
 377:inc/core_cm3.h **** 
 378:inc/core_cm3.h **** /* SCB Vector Table Offset Register Definitions */
 379:inc/core_cm3.h **** #define SCB_VTOR_TBLOFF_Pos                 7                                             /*!< SCB 
 380:inc/core_cm3.h **** #define SCB_VTOR_TBLOFF_Msk                (0x1FFFFFFUL << SCB_VTOR_TBLOFF_Pos)           /*!< SCB 
 381:inc/core_cm3.h **** 
 382:inc/core_cm3.h **** /* SCB Application Interrupt and Reset Control Register Definitions */
 383:inc/core_cm3.h **** #define SCB_AIRCR_VECTKEY_Pos              16                                             /*!< SCB 
 384:inc/core_cm3.h **** #define SCB_AIRCR_VECTKEY_Msk              (0xFFFFUL << SCB_AIRCR_VECTKEY_Pos)            /*!< SCB 
 385:inc/core_cm3.h **** 
 386:inc/core_cm3.h **** #define SCB_AIRCR_VECTKEYSTAT_Pos          16                                             /*!< SCB 
 387:inc/core_cm3.h **** #define SCB_AIRCR_VECTKEYSTAT_Msk          (0xFFFFUL << SCB_AIRCR_VECTKEYSTAT_Pos)        /*!< SCB 
 388:inc/core_cm3.h **** 
 389:inc/core_cm3.h **** #define SCB_AIRCR_ENDIANESS_Pos            15                                             /*!< SCB 
 390:inc/core_cm3.h **** #define SCB_AIRCR_ENDIANESS_Msk            (1UL << SCB_AIRCR_ENDIANESS_Pos)               /*!< SCB 
 391:inc/core_cm3.h **** 
 392:inc/core_cm3.h **** #define SCB_AIRCR_PRIGROUP_Pos              8                                             /*!< SCB 
 393:inc/core_cm3.h **** #define SCB_AIRCR_PRIGROUP_Msk             (7UL << SCB_AIRCR_PRIGROUP_Pos)                /*!< SCB 
 394:inc/core_cm3.h **** 
 395:inc/core_cm3.h **** #define SCB_AIRCR_SYSRESETREQ_Pos           2                                             /*!< SCB 
 396:inc/core_cm3.h **** #define SCB_AIRCR_SYSRESETREQ_Msk          (1UL << SCB_AIRCR_SYSRESETREQ_Pos)             /*!< SCB 
 397:inc/core_cm3.h **** 
ARM GAS  C:\Users\Adrian\AppData\Local\Temp\ccGJSvBN.s 			page 9


 398:inc/core_cm3.h **** #define SCB_AIRCR_VECTCLRACTIVE_Pos         1                                             /*!< SCB 
 399:inc/core_cm3.h **** #define SCB_AIRCR_VECTCLRACTIVE_Msk        (1UL << SCB_AIRCR_VECTCLRACTIVE_Pos)           /*!< SCB 
 400:inc/core_cm3.h **** 
 401:inc/core_cm3.h **** #define SCB_AIRCR_VECTRESET_Pos             0                                             /*!< SCB 
 402:inc/core_cm3.h **** #define SCB_AIRCR_VECTRESET_Msk            (1UL << SCB_AIRCR_VECTRESET_Pos)               /*!< SCB 
 403:inc/core_cm3.h **** 
 404:inc/core_cm3.h **** /* SCB System Control Register Definitions */
 405:inc/core_cm3.h **** #define SCB_SCR_SEVONPEND_Pos               4                                             /*!< SCB 
 406:inc/core_cm3.h **** #define SCB_SCR_SEVONPEND_Msk              (1UL << SCB_SCR_SEVONPEND_Pos)                 /*!< SCB 
 407:inc/core_cm3.h **** 
 408:inc/core_cm3.h **** #define SCB_SCR_SLEEPDEEP_Pos               2                                             /*!< SCB 
 409:inc/core_cm3.h **** #define SCB_SCR_SLEEPDEEP_Msk              (1UL << SCB_SCR_SLEEPDEEP_Pos)                 /*!< SCB 
 410:inc/core_cm3.h **** 
 411:inc/core_cm3.h **** #define SCB_SCR_SLEEPONEXIT_Pos             1                                             /*!< SCB 
 412:inc/core_cm3.h **** #define SCB_SCR_SLEEPONEXIT_Msk            (1UL << SCB_SCR_SLEEPONEXIT_Pos)               /*!< SCB 
 413:inc/core_cm3.h **** 
 414:inc/core_cm3.h **** /* SCB Configuration Control Register Definitions */
 415:inc/core_cm3.h **** #define SCB_CCR_STKALIGN_Pos                9                                             /*!< SCB 
 416:inc/core_cm3.h **** #define SCB_CCR_STKALIGN_Msk               (1UL << SCB_CCR_STKALIGN_Pos)                  /*!< SCB 
 417:inc/core_cm3.h **** 
 418:inc/core_cm3.h **** #define SCB_CCR_BFHFNMIGN_Pos               8                                             /*!< SCB 
 419:inc/core_cm3.h **** #define SCB_CCR_BFHFNMIGN_Msk              (1UL << SCB_CCR_BFHFNMIGN_Pos)                 /*!< SCB 
 420:inc/core_cm3.h **** 
 421:inc/core_cm3.h **** #define SCB_CCR_DIV_0_TRP_Pos               4                                             /*!< SCB 
 422:inc/core_cm3.h **** #define SCB_CCR_DIV_0_TRP_Msk              (1UL << SCB_CCR_DIV_0_TRP_Pos)                 /*!< SCB 
 423:inc/core_cm3.h **** 
 424:inc/core_cm3.h **** #define SCB_CCR_UNALIGN_TRP_Pos             3                                             /*!< SCB 
 425:inc/core_cm3.h **** #define SCB_CCR_UNALIGN_TRP_Msk            (1UL << SCB_CCR_UNALIGN_TRP_Pos)               /*!< SCB 
 426:inc/core_cm3.h **** 
 427:inc/core_cm3.h **** #define SCB_CCR_USERSETMPEND_Pos            1                                             /*!< SCB 
 428:inc/core_cm3.h **** #define SCB_CCR_USERSETMPEND_Msk           (1UL << SCB_CCR_USERSETMPEND_Pos)              /*!< SCB 
 429:inc/core_cm3.h **** 
 430:inc/core_cm3.h **** #define SCB_CCR_NONBASETHRDENA_Pos          0                                             /*!< SCB 
 431:inc/core_cm3.h **** #define SCB_CCR_NONBASETHRDENA_Msk         (1UL << SCB_CCR_NONBASETHRDENA_Pos)            /*!< SCB 
 432:inc/core_cm3.h **** 
 433:inc/core_cm3.h **** /* SCB System Handler Control and State Register Definitions */
 434:inc/core_cm3.h **** #define SCB_SHCSR_USGFAULTENA_Pos          18                                             /*!< SCB 
 435:inc/core_cm3.h **** #define SCB_SHCSR_USGFAULTENA_Msk          (1UL << SCB_SHCSR_USGFAULTENA_Pos)             /*!< SCB 
 436:inc/core_cm3.h **** 
 437:inc/core_cm3.h **** #define SCB_SHCSR_BUSFAULTENA_Pos          17                                             /*!< SCB 
 438:inc/core_cm3.h **** #define SCB_SHCSR_BUSFAULTENA_Msk          (1UL << SCB_SHCSR_BUSFAULTENA_Pos)             /*!< SCB 
 439:inc/core_cm3.h **** 
 440:inc/core_cm3.h **** #define SCB_SHCSR_MEMFAULTENA_Pos          16                                             /*!< SCB 
 441:inc/core_cm3.h **** #define SCB_SHCSR_MEMFAULTENA_Msk          (1UL << SCB_SHCSR_MEMFAULTENA_Pos)             /*!< SCB 
 442:inc/core_cm3.h **** 
 443:inc/core_cm3.h **** #define SCB_SHCSR_SVCALLPENDED_Pos         15                                             /*!< SCB 
 444:inc/core_cm3.h **** #define SCB_SHCSR_SVCALLPENDED_Msk         (1UL << SCB_SHCSR_SVCALLPENDED_Pos)            /*!< SCB 
 445:inc/core_cm3.h **** 
 446:inc/core_cm3.h **** #define SCB_SHCSR_BUSFAULTPENDED_Pos       14                                             /*!< SCB 
 447:inc/core_cm3.h **** #define SCB_SHCSR_BUSFAULTPENDED_Msk       (1UL << SCB_SHCSR_BUSFAULTPENDED_Pos)          /*!< SCB 
 448:inc/core_cm3.h **** 
 449:inc/core_cm3.h **** #define SCB_SHCSR_MEMFAULTPENDED_Pos       13                                             /*!< SCB 
 450:inc/core_cm3.h **** #define SCB_SHCSR_MEMFAULTPENDED_Msk       (1UL << SCB_SHCSR_MEMFAULTPENDED_Pos)          /*!< SCB 
 451:inc/core_cm3.h **** 
 452:inc/core_cm3.h **** #define SCB_SHCSR_USGFAULTPENDED_Pos       12                                             /*!< SCB 
 453:inc/core_cm3.h **** #define SCB_SHCSR_USGFAULTPENDED_Msk       (1UL << SCB_SHCSR_USGFAULTPENDED_Pos)          /*!< SCB 
 454:inc/core_cm3.h **** 
ARM GAS  C:\Users\Adrian\AppData\Local\Temp\ccGJSvBN.s 			page 10


 455:inc/core_cm3.h **** #define SCB_SHCSR_SYSTICKACT_Pos           11                                             /*!< SCB 
 456:inc/core_cm3.h **** #define SCB_SHCSR_SYSTICKACT_Msk           (1UL << SCB_SHCSR_SYSTICKACT_Pos)              /*!< SCB 
 457:inc/core_cm3.h **** 
 458:inc/core_cm3.h **** #define SCB_SHCSR_PENDSVACT_Pos            10                                             /*!< SCB 
 459:inc/core_cm3.h **** #define SCB_SHCSR_PENDSVACT_Msk            (1UL << SCB_SHCSR_PENDSVACT_Pos)               /*!< SCB 
 460:inc/core_cm3.h **** 
 461:inc/core_cm3.h **** #define SCB_SHCSR_MONITORACT_Pos            8                                             /*!< SCB 
 462:inc/core_cm3.h **** #define SCB_SHCSR_MONITORACT_Msk           (1UL << SCB_SHCSR_MONITORACT_Pos)              /*!< SCB 
 463:inc/core_cm3.h **** 
 464:inc/core_cm3.h **** #define SCB_SHCSR_SVCALLACT_Pos             7                                             /*!< SCB 
 465:inc/core_cm3.h **** #define SCB_SHCSR_SVCALLACT_Msk            (1UL << SCB_SHCSR_SVCALLACT_Pos)               /*!< SCB 
 466:inc/core_cm3.h **** 
 467:inc/core_cm3.h **** #define SCB_SHCSR_USGFAULTACT_Pos           3                                             /*!< SCB 
 468:inc/core_cm3.h **** #define SCB_SHCSR_USGFAULTACT_Msk          (1UL << SCB_SHCSR_USGFAULTACT_Pos)             /*!< SCB 
 469:inc/core_cm3.h **** 
 470:inc/core_cm3.h **** #define SCB_SHCSR_BUSFAULTACT_Pos           1                                             /*!< SCB 
 471:inc/core_cm3.h **** #define SCB_SHCSR_BUSFAULTACT_Msk          (1UL << SCB_SHCSR_BUSFAULTACT_Pos)             /*!< SCB 
 472:inc/core_cm3.h **** 
 473:inc/core_cm3.h **** #define SCB_SHCSR_MEMFAULTACT_Pos           0                                             /*!< SCB 
 474:inc/core_cm3.h **** #define SCB_SHCSR_MEMFAULTACT_Msk          (1UL << SCB_SHCSR_MEMFAULTACT_Pos)             /*!< SCB 
 475:inc/core_cm3.h **** 
 476:inc/core_cm3.h **** /* SCB Configurable Fault Status Registers Definitions */
 477:inc/core_cm3.h **** #define SCB_CFSR_USGFAULTSR_Pos            16                                             /*!< SCB 
 478:inc/core_cm3.h **** #define SCB_CFSR_USGFAULTSR_Msk            (0xFFFFUL << SCB_CFSR_USGFAULTSR_Pos)          /*!< SCB 
 479:inc/core_cm3.h **** 
 480:inc/core_cm3.h **** #define SCB_CFSR_BUSFAULTSR_Pos             8                                             /*!< SCB 
 481:inc/core_cm3.h **** #define SCB_CFSR_BUSFAULTSR_Msk            (0xFFUL << SCB_CFSR_BUSFAULTSR_Pos)            /*!< SCB 
 482:inc/core_cm3.h **** 
 483:inc/core_cm3.h **** #define SCB_CFSR_MEMFAULTSR_Pos             0                                             /*!< SCB 
 484:inc/core_cm3.h **** #define SCB_CFSR_MEMFAULTSR_Msk            (0xFFUL << SCB_CFSR_MEMFAULTSR_Pos)            /*!< SCB 
 485:inc/core_cm3.h **** 
 486:inc/core_cm3.h **** /* SCB Hard Fault Status Registers Definitions */
 487:inc/core_cm3.h **** #define SCB_HFSR_DEBUGEVT_Pos              31                                             /*!< SCB 
 488:inc/core_cm3.h **** #define SCB_HFSR_DEBUGEVT_Msk              (1UL << SCB_HFSR_DEBUGEVT_Pos)                 /*!< SCB 
 489:inc/core_cm3.h **** 
 490:inc/core_cm3.h **** #define SCB_HFSR_FORCED_Pos                30                                             /*!< SCB 
 491:inc/core_cm3.h **** #define SCB_HFSR_FORCED_Msk                (1UL << SCB_HFSR_FORCED_Pos)                   /*!< SCB 
 492:inc/core_cm3.h **** 
 493:inc/core_cm3.h **** #define SCB_HFSR_VECTTBL_Pos                1                                             /*!< SCB 
 494:inc/core_cm3.h **** #define SCB_HFSR_VECTTBL_Msk               (1UL << SCB_HFSR_VECTTBL_Pos)                  /*!< SCB 
 495:inc/core_cm3.h **** 
 496:inc/core_cm3.h **** /* SCB Debug Fault Status Register Definitions */
 497:inc/core_cm3.h **** #define SCB_DFSR_EXTERNAL_Pos               4                                             /*!< SCB 
 498:inc/core_cm3.h **** #define SCB_DFSR_EXTERNAL_Msk              (1UL << SCB_DFSR_EXTERNAL_Pos)                 /*!< SCB 
 499:inc/core_cm3.h **** 
 500:inc/core_cm3.h **** #define SCB_DFSR_VCATCH_Pos                 3                                             /*!< SCB 
 501:inc/core_cm3.h **** #define SCB_DFSR_VCATCH_Msk                (1UL << SCB_DFSR_VCATCH_Pos)                   /*!< SCB 
 502:inc/core_cm3.h **** 
 503:inc/core_cm3.h **** #define SCB_DFSR_DWTTRAP_Pos                2                                             /*!< SCB 
 504:inc/core_cm3.h **** #define SCB_DFSR_DWTTRAP_Msk               (1UL << SCB_DFSR_DWTTRAP_Pos)                  /*!< SCB 
 505:inc/core_cm3.h **** 
 506:inc/core_cm3.h **** #define SCB_DFSR_BKPT_Pos                   1                                             /*!< SCB 
 507:inc/core_cm3.h **** #define SCB_DFSR_BKPT_Msk                  (1UL << SCB_DFSR_BKPT_Pos)                     /*!< SCB 
 508:inc/core_cm3.h **** 
 509:inc/core_cm3.h **** #define SCB_DFSR_HALTED_Pos                 0                                             /*!< SCB 
 510:inc/core_cm3.h **** #define SCB_DFSR_HALTED_Msk                (1UL << SCB_DFSR_HALTED_Pos)                   /*!< SCB 
 511:inc/core_cm3.h **** 
ARM GAS  C:\Users\Adrian\AppData\Local\Temp\ccGJSvBN.s 			page 11


 512:inc/core_cm3.h **** /*@} end of group CMSIS_SCB */
 513:inc/core_cm3.h **** 
 514:inc/core_cm3.h **** 
 515:inc/core_cm3.h **** /** \ingroup  CMSIS_core_register
 516:inc/core_cm3.h ****     \defgroup CMSIS_SCnSCB CMSIS System Control and ID Register not in the SCB
 517:inc/core_cm3.h ****   Type definitions for the Cortex-M System Control and ID Register not in the SCB
 518:inc/core_cm3.h ****   @{
 519:inc/core_cm3.h ****  */
 520:inc/core_cm3.h **** 
 521:inc/core_cm3.h **** /** \brief  Structure type to access the System Control and ID Register not in the SCB.
 522:inc/core_cm3.h ****  */
 523:inc/core_cm3.h **** typedef struct
 524:inc/core_cm3.h **** {
 525:inc/core_cm3.h ****        uint32_t RESERVED0[1];
 526:inc/core_cm3.h ****   __I  uint32_t ICTR;                    /*!< Offset: 0x004 (R/ )  Interrupt Controller Type Regist
 527:inc/core_cm3.h **** #if ((defined __CM3_REV) && (__CM3_REV >= 0x200))
 528:inc/core_cm3.h ****   __IO uint32_t ACTLR;                   /*!< Offset: 0x008 (R/W)  Auxiliary Control Register      
 529:inc/core_cm3.h **** #else
 530:inc/core_cm3.h ****        uint32_t RESERVED1[1];
 531:inc/core_cm3.h **** #endif
 532:inc/core_cm3.h **** } SCnSCB_Type;
 533:inc/core_cm3.h **** 
 534:inc/core_cm3.h **** /* Interrupt Controller Type Register Definitions */
 535:inc/core_cm3.h **** #define SCnSCB_ICTR_INTLINESNUM_Pos         0                                          /*!< ICTR: I
 536:inc/core_cm3.h **** #define SCnSCB_ICTR_INTLINESNUM_Msk        (0xFUL << SCnSCB_ICTR_INTLINESNUM_Pos)      /*!< ICTR: I
 537:inc/core_cm3.h **** 
 538:inc/core_cm3.h **** /* Auxiliary Control Register Definitions */
 539:inc/core_cm3.h **** 
 540:inc/core_cm3.h **** #define SCnSCB_ACTLR_DISFOLD_Pos            2                                          /*!< ACTLR: 
 541:inc/core_cm3.h **** #define SCnSCB_ACTLR_DISFOLD_Msk           (1UL << SCnSCB_ACTLR_DISFOLD_Pos)           /*!< ACTLR: 
 542:inc/core_cm3.h **** 
 543:inc/core_cm3.h **** #define SCnSCB_ACTLR_DISDEFWBUF_Pos         1                                          /*!< ACTLR: 
 544:inc/core_cm3.h **** #define SCnSCB_ACTLR_DISDEFWBUF_Msk        (1UL << SCnSCB_ACTLR_DISDEFWBUF_Pos)        /*!< ACTLR: 
 545:inc/core_cm3.h **** 
 546:inc/core_cm3.h **** #define SCnSCB_ACTLR_DISMCYCINT_Pos         0                                          /*!< ACTLR: 
 547:inc/core_cm3.h **** #define SCnSCB_ACTLR_DISMCYCINT_Msk        (1UL << SCnSCB_ACTLR_DISMCYCINT_Pos)        /*!< ACTLR: 
 548:inc/core_cm3.h **** 
 549:inc/core_cm3.h **** /*@} end of group CMSIS_SCnotSCB */
 550:inc/core_cm3.h **** 
 551:inc/core_cm3.h **** 
 552:inc/core_cm3.h **** /** \ingroup  CMSIS_core_register
 553:inc/core_cm3.h ****     \defgroup CMSIS_SysTick CMSIS SysTick
 554:inc/core_cm3.h ****   Type definitions for the Cortex-M System Timer Registers
 555:inc/core_cm3.h ****   @{
 556:inc/core_cm3.h ****  */
 557:inc/core_cm3.h **** 
 558:inc/core_cm3.h **** /** \brief  Structure type to access the System Timer (SysTick).
 559:inc/core_cm3.h ****  */
 560:inc/core_cm3.h **** typedef struct
 561:inc/core_cm3.h **** {
 562:inc/core_cm3.h ****   __IO uint32_t CTRL;                    /*!< Offset: 0x000 (R/W)  SysTick Control and Status Regis
 563:inc/core_cm3.h ****   __IO uint32_t LOAD;                    /*!< Offset: 0x004 (R/W)  SysTick Reload Value Register   
 564:inc/core_cm3.h ****   __IO uint32_t VAL;                     /*!< Offset: 0x008 (R/W)  SysTick Current Value Register  
 565:inc/core_cm3.h ****   __I  uint32_t CALIB;                   /*!< Offset: 0x00C (R/ )  SysTick Calibration Register    
 566:inc/core_cm3.h **** } SysTick_Type;
 567:inc/core_cm3.h **** 
 568:inc/core_cm3.h **** /* SysTick Control / Status Register Definitions */
ARM GAS  C:\Users\Adrian\AppData\Local\Temp\ccGJSvBN.s 			page 12


 569:inc/core_cm3.h **** #define SysTick_CTRL_COUNTFLAG_Pos         16                                             /*!< SysT
 570:inc/core_cm3.h **** #define SysTick_CTRL_COUNTFLAG_Msk         (1UL << SysTick_CTRL_COUNTFLAG_Pos)            /*!< SysT
 571:inc/core_cm3.h **** 
 572:inc/core_cm3.h **** #define SysTick_CTRL_CLKSOURCE_Pos          2                                             /*!< SysT
 573:inc/core_cm3.h **** #define SysTick_CTRL_CLKSOURCE_Msk         (1UL << SysTick_CTRL_CLKSOURCE_Pos)            /*!< SysT
 574:inc/core_cm3.h **** 
 575:inc/core_cm3.h **** #define SysTick_CTRL_TICKINT_Pos            1                                             /*!< SysT
 576:inc/core_cm3.h **** #define SysTick_CTRL_TICKINT_Msk           (1UL << SysTick_CTRL_TICKINT_Pos)              /*!< SysT
 577:inc/core_cm3.h **** 
 578:inc/core_cm3.h **** #define SysTick_CTRL_ENABLE_Pos             0                                             /*!< SysT
 579:inc/core_cm3.h **** #define SysTick_CTRL_ENABLE_Msk            (1UL << SysTick_CTRL_ENABLE_Pos)               /*!< SysT
 580:inc/core_cm3.h **** 
 581:inc/core_cm3.h **** /* SysTick Reload Register Definitions */
 582:inc/core_cm3.h **** #define SysTick_LOAD_RELOAD_Pos             0                                             /*!< SysT
 583:inc/core_cm3.h **** #define SysTick_LOAD_RELOAD_Msk            (0xFFFFFFUL << SysTick_LOAD_RELOAD_Pos)        /*!< SysT
 584:inc/core_cm3.h **** 
 585:inc/core_cm3.h **** /* SysTick Current Register Definitions */
 586:inc/core_cm3.h **** #define SysTick_VAL_CURRENT_Pos             0                                             /*!< SysT
 587:inc/core_cm3.h **** #define SysTick_VAL_CURRENT_Msk            (0xFFFFFFUL << SysTick_VAL_CURRENT_Pos)        /*!< SysT
 588:inc/core_cm3.h **** 
 589:inc/core_cm3.h **** /* SysTick Calibration Register Definitions */
 590:inc/core_cm3.h **** #define SysTick_CALIB_NOREF_Pos            31                                             /*!< SysT
 591:inc/core_cm3.h **** #define SysTick_CALIB_NOREF_Msk            (1UL << SysTick_CALIB_NOREF_Pos)               /*!< SysT
 592:inc/core_cm3.h **** 
 593:inc/core_cm3.h **** #define SysTick_CALIB_SKEW_Pos             30                                             /*!< SysT
 594:inc/core_cm3.h **** #define SysTick_CALIB_SKEW_Msk             (1UL << SysTick_CALIB_SKEW_Pos)                /*!< SysT
 595:inc/core_cm3.h **** 
 596:inc/core_cm3.h **** #define SysTick_CALIB_TENMS_Pos             0                                             /*!< SysT
 597:inc/core_cm3.h **** #define SysTick_CALIB_TENMS_Msk            (0xFFFFFFUL << SysTick_VAL_CURRENT_Pos)        /*!< SysT
 598:inc/core_cm3.h **** 
 599:inc/core_cm3.h **** /*@} end of group CMSIS_SysTick */
 600:inc/core_cm3.h **** 
 601:inc/core_cm3.h **** 
 602:inc/core_cm3.h **** /** \ingroup  CMSIS_core_register
 603:inc/core_cm3.h ****     \defgroup CMSIS_ITM CMSIS ITM
 604:inc/core_cm3.h ****   Type definitions for the Cortex-M Instrumentation Trace Macrocell (ITM)
 605:inc/core_cm3.h ****   @{
 606:inc/core_cm3.h ****  */
 607:inc/core_cm3.h **** 
 608:inc/core_cm3.h **** /** \brief  Structure type to access the Instrumentation Trace Macrocell Register (ITM).
 609:inc/core_cm3.h ****  */
 610:inc/core_cm3.h **** typedef struct
 611:inc/core_cm3.h **** {
 612:inc/core_cm3.h ****   __O  union
 613:inc/core_cm3.h ****   {
 614:inc/core_cm3.h ****     __O  uint8_t    u8;                  /*!< Offset: 0x000 ( /W)  ITM Stimulus Port 8-bit         
 615:inc/core_cm3.h ****     __O  uint16_t   u16;                 /*!< Offset: 0x000 ( /W)  ITM Stimulus Port 16-bit        
 616:inc/core_cm3.h ****     __O  uint32_t   u32;                 /*!< Offset: 0x000 ( /W)  ITM Stimulus Port 32-bit        
 617:inc/core_cm3.h ****   }  PORT [32];                          /*!< Offset: 0x000 ( /W)  ITM Stimulus Port Registers     
 618:inc/core_cm3.h ****        uint32_t RESERVED0[864];
 619:inc/core_cm3.h ****   __IO uint32_t TER;                     /*!< Offset: 0xE00 (R/W)  ITM Trace Enable Register       
 620:inc/core_cm3.h ****        uint32_t RESERVED1[15];
 621:inc/core_cm3.h ****   __IO uint32_t TPR;                     /*!< Offset: 0xE40 (R/W)  ITM Trace Privilege Register    
 622:inc/core_cm3.h ****        uint32_t RESERVED2[15];
 623:inc/core_cm3.h ****   __IO uint32_t TCR;                     /*!< Offset: 0xE80 (R/W)  ITM Trace Control Register      
 624:inc/core_cm3.h **** } ITM_Type;
 625:inc/core_cm3.h **** 
ARM GAS  C:\Users\Adrian\AppData\Local\Temp\ccGJSvBN.s 			page 13


 626:inc/core_cm3.h **** /* ITM Trace Privilege Register Definitions */
 627:inc/core_cm3.h **** #define ITM_TPR_PRIVMASK_Pos                0                                          /*!< ITM TPR
 628:inc/core_cm3.h **** #define ITM_TPR_PRIVMASK_Msk               (0xFUL << ITM_TPR_PRIVMASK_Pos)             /*!< ITM TPR
 629:inc/core_cm3.h **** 
 630:inc/core_cm3.h **** /* ITM Trace Control Register Definitions */
 631:inc/core_cm3.h **** #define ITM_TCR_BUSY_Pos                   23                                          /*!< ITM TCR
 632:inc/core_cm3.h **** #define ITM_TCR_BUSY_Msk                   (1UL << ITM_TCR_BUSY_Pos)                   /*!< ITM TCR
 633:inc/core_cm3.h **** 
 634:inc/core_cm3.h **** #define ITM_TCR_TraceBusID_Pos             16                                          /*!< ITM TCR
 635:inc/core_cm3.h **** #define ITM_TCR_TraceBusID_Msk             (0x7FUL << ITM_TCR_TraceBusID_Pos)          /*!< ITM TCR
 636:inc/core_cm3.h **** 
 637:inc/core_cm3.h **** #define ITM_TCR_GTSFREQ_Pos                10                                          /*!< ITM TCR
 638:inc/core_cm3.h **** #define ITM_TCR_GTSFREQ_Msk                (3UL << ITM_TCR_GTSFREQ_Pos)                /*!< ITM TCR
 639:inc/core_cm3.h **** 
 640:inc/core_cm3.h **** #define ITM_TCR_TSPrescale_Pos              8                                          /*!< ITM TCR
 641:inc/core_cm3.h **** #define ITM_TCR_TSPrescale_Msk             (3UL << ITM_TCR_TSPrescale_Pos)             /*!< ITM TCR
 642:inc/core_cm3.h **** 
 643:inc/core_cm3.h **** #define ITM_TCR_SWOENA_Pos                  4                                          /*!< ITM TCR
 644:inc/core_cm3.h **** #define ITM_TCR_SWOENA_Msk                 (1UL << ITM_TCR_SWOENA_Pos)                 /*!< ITM TCR
 645:inc/core_cm3.h **** 
 646:inc/core_cm3.h **** #define ITM_TCR_TXENA_Pos                   3                                          /*!< ITM TCR
 647:inc/core_cm3.h **** #define ITM_TCR_TXENA_Msk                  (1UL << ITM_TCR_TXENA_Pos)                  /*!< ITM TCR
 648:inc/core_cm3.h **** 
 649:inc/core_cm3.h **** #define ITM_TCR_SYNCENA_Pos                 2                                          /*!< ITM TCR
 650:inc/core_cm3.h **** #define ITM_TCR_SYNCENA_Msk                (1UL << ITM_TCR_SYNCENA_Pos)                /*!< ITM TCR
 651:inc/core_cm3.h **** 
 652:inc/core_cm3.h **** #define ITM_TCR_TSENA_Pos                   1                                          /*!< ITM TCR
 653:inc/core_cm3.h **** #define ITM_TCR_TSENA_Msk                  (1UL << ITM_TCR_TSENA_Pos)                  /*!< ITM TCR
 654:inc/core_cm3.h **** 
 655:inc/core_cm3.h **** #define ITM_TCR_ITMENA_Pos                  0                                          /*!< ITM TCR
 656:inc/core_cm3.h **** #define ITM_TCR_ITMENA_Msk                 (1UL << ITM_TCR_ITMENA_Pos)                 /*!< ITM TCR
 657:inc/core_cm3.h **** 
 658:inc/core_cm3.h **** /*@}*/ /* end of group CMSIS_ITM */
 659:inc/core_cm3.h **** 
 660:inc/core_cm3.h **** 
 661:inc/core_cm3.h **** #if (__MPU_PRESENT == 1)
 662:inc/core_cm3.h **** /** \ingroup  CMSIS_core_register
 663:inc/core_cm3.h ****     \defgroup CMSIS_MPU CMSIS MPU
 664:inc/core_cm3.h ****   Type definitions for the Cortex-M Memory Protection Unit (MPU)
 665:inc/core_cm3.h ****   @{
 666:inc/core_cm3.h ****  */
 667:inc/core_cm3.h **** 
 668:inc/core_cm3.h **** /** \brief  Structure type to access the Memory Protection Unit (MPU).
 669:inc/core_cm3.h ****  */
 670:inc/core_cm3.h **** typedef struct
 671:inc/core_cm3.h **** {
 672:inc/core_cm3.h ****   __I  uint32_t TYPE;                    /*!< Offset: 0x000 (R/ )  MPU Type Register               
 673:inc/core_cm3.h ****   __IO uint32_t CTRL;                    /*!< Offset: 0x004 (R/W)  MPU Control Register            
 674:inc/core_cm3.h ****   __IO uint32_t RNR;                     /*!< Offset: 0x008 (R/W)  MPU Region RNRber Register      
 675:inc/core_cm3.h ****   __IO uint32_t RBAR;                    /*!< Offset: 0x00C (R/W)  MPU Region Base Address Register
 676:inc/core_cm3.h ****   __IO uint32_t RASR;                    /*!< Offset: 0x010 (R/W)  MPU Region Attribute and Size Re
 677:inc/core_cm3.h ****   __IO uint32_t RBAR_A1;                 /*!< Offset: 0x014 (R/W)  MPU Alias 1 Region Base Address 
 678:inc/core_cm3.h ****   __IO uint32_t RASR_A1;                 /*!< Offset: 0x018 (R/W)  MPU Alias 1 Region Attribute and
 679:inc/core_cm3.h ****   __IO uint32_t RBAR_A2;                 /*!< Offset: 0x01C (R/W)  MPU Alias 2 Region Base Address 
 680:inc/core_cm3.h ****   __IO uint32_t RASR_A2;                 /*!< Offset: 0x020 (R/W)  MPU Alias 2 Region Attribute and
 681:inc/core_cm3.h ****   __IO uint32_t RBAR_A3;                 /*!< Offset: 0x024 (R/W)  MPU Alias 3 Region Base Address 
 682:inc/core_cm3.h ****   __IO uint32_t RASR_A3;                 /*!< Offset: 0x028 (R/W)  MPU Alias 3 Region Attribute and
ARM GAS  C:\Users\Adrian\AppData\Local\Temp\ccGJSvBN.s 			page 14


 683:inc/core_cm3.h **** } MPU_Type;
 684:inc/core_cm3.h **** 
 685:inc/core_cm3.h **** /* MPU Type Register */
 686:inc/core_cm3.h **** #define MPU_TYPE_IREGION_Pos               16                                             /*!< MPU 
 687:inc/core_cm3.h **** #define MPU_TYPE_IREGION_Msk               (0xFFUL << MPU_TYPE_IREGION_Pos)               /*!< MPU 
 688:inc/core_cm3.h **** 
 689:inc/core_cm3.h **** #define MPU_TYPE_DREGION_Pos                8                                             /*!< MPU 
 690:inc/core_cm3.h **** #define MPU_TYPE_DREGION_Msk               (0xFFUL << MPU_TYPE_DREGION_Pos)               /*!< MPU 
 691:inc/core_cm3.h **** 
 692:inc/core_cm3.h **** #define MPU_TYPE_SEPARATE_Pos               0                                             /*!< MPU 
 693:inc/core_cm3.h **** #define MPU_TYPE_SEPARATE_Msk              (1UL << MPU_TYPE_SEPARATE_Pos)                 /*!< MPU 
 694:inc/core_cm3.h **** 
 695:inc/core_cm3.h **** /* MPU Control Register */
 696:inc/core_cm3.h **** #define MPU_CTRL_PRIVDEFENA_Pos             2                                             /*!< MPU 
 697:inc/core_cm3.h **** #define MPU_CTRL_PRIVDEFENA_Msk            (1UL << MPU_CTRL_PRIVDEFENA_Pos)               /*!< MPU 
 698:inc/core_cm3.h **** 
 699:inc/core_cm3.h **** #define MPU_CTRL_HFNMIENA_Pos               1                                             /*!< MPU 
 700:inc/core_cm3.h **** #define MPU_CTRL_HFNMIENA_Msk              (1UL << MPU_CTRL_HFNMIENA_Pos)                 /*!< MPU 
 701:inc/core_cm3.h **** 
 702:inc/core_cm3.h **** #define MPU_CTRL_ENABLE_Pos                 0                                             /*!< MPU 
 703:inc/core_cm3.h **** #define MPU_CTRL_ENABLE_Msk                (1UL << MPU_CTRL_ENABLE_Pos)                   /*!< MPU 
 704:inc/core_cm3.h **** 
 705:inc/core_cm3.h **** /* MPU Region Number Register */
 706:inc/core_cm3.h **** #define MPU_RNR_REGION_Pos                  0                                             /*!< MPU 
 707:inc/core_cm3.h **** #define MPU_RNR_REGION_Msk                 (0xFFUL << MPU_RNR_REGION_Pos)                 /*!< MPU 
 708:inc/core_cm3.h **** 
 709:inc/core_cm3.h **** /* MPU Region Base Address Register */
 710:inc/core_cm3.h **** #define MPU_RBAR_ADDR_Pos                   5                                             /*!< MPU 
 711:inc/core_cm3.h **** #define MPU_RBAR_ADDR_Msk                  (0x7FFFFFFUL << MPU_RBAR_ADDR_Pos)             /*!< MPU 
 712:inc/core_cm3.h **** 
 713:inc/core_cm3.h **** #define MPU_RBAR_VALID_Pos                  4                                             /*!< MPU 
 714:inc/core_cm3.h **** #define MPU_RBAR_VALID_Msk                 (1UL << MPU_RBAR_VALID_Pos)                    /*!< MPU 
 715:inc/core_cm3.h **** 
 716:inc/core_cm3.h **** #define MPU_RBAR_REGION_Pos                 0                                             /*!< MPU 
 717:inc/core_cm3.h **** #define MPU_RBAR_REGION_Msk                (0xFUL << MPU_RBAR_REGION_Pos)                 /*!< MPU 
 718:inc/core_cm3.h **** 
 719:inc/core_cm3.h **** /* MPU Region Attribute and Size Register */
 720:inc/core_cm3.h **** #define MPU_RASR_ATTRS_Pos                 16                                             /*!< MPU 
 721:inc/core_cm3.h **** #define MPU_RASR_ATTRS_Msk                 (0xFFFFUL << MPU_RASR_ATTRS_Pos)               /*!< MPU 
 722:inc/core_cm3.h **** 
 723:inc/core_cm3.h **** #define MPU_RASR_SRD_Pos                    8                                             /*!< MPU 
 724:inc/core_cm3.h **** #define MPU_RASR_SRD_Msk                   (0xFFUL << MPU_RASR_SRD_Pos)                   /*!< MPU 
 725:inc/core_cm3.h **** 
 726:inc/core_cm3.h **** #define MPU_RASR_SIZE_Pos                   1                                             /*!< MPU 
 727:inc/core_cm3.h **** #define MPU_RASR_SIZE_Msk                  (0x1FUL << MPU_RASR_SIZE_Pos)                  /*!< MPU 
 728:inc/core_cm3.h **** 
 729:inc/core_cm3.h **** #define MPU_RASR_ENABLE_Pos                 0                                             /*!< MPU 
 730:inc/core_cm3.h **** #define MPU_RASR_ENABLE_Msk                (1UL << MPU_RASR_ENABLE_Pos)                   /*!< MPU 
 731:inc/core_cm3.h **** 
 732:inc/core_cm3.h **** /*@} end of group CMSIS_MPU */
 733:inc/core_cm3.h **** #endif
 734:inc/core_cm3.h **** 
 735:inc/core_cm3.h **** 
 736:inc/core_cm3.h **** /** \ingroup  CMSIS_core_register
 737:inc/core_cm3.h ****     \defgroup CMSIS_CoreDebug CMSIS Core Debug
 738:inc/core_cm3.h ****   Type definitions for the Cortex-M Core Debug Registers
 739:inc/core_cm3.h ****   @{
ARM GAS  C:\Users\Adrian\AppData\Local\Temp\ccGJSvBN.s 			page 15


 740:inc/core_cm3.h ****  */
 741:inc/core_cm3.h **** 
 742:inc/core_cm3.h **** /** \brief  Structure type to access the Core Debug Register (CoreDebug).
 743:inc/core_cm3.h ****  */
 744:inc/core_cm3.h **** typedef struct
 745:inc/core_cm3.h **** {
 746:inc/core_cm3.h ****   __IO uint32_t DHCSR;                   /*!< Offset: 0x000 (R/W)  Debug Halting Control and Status
 747:inc/core_cm3.h ****   __O  uint32_t DCRSR;                   /*!< Offset: 0x004 ( /W)  Debug Core Register Selector Reg
 748:inc/core_cm3.h ****   __IO uint32_t DCRDR;                   /*!< Offset: 0x008 (R/W)  Debug Core Register Data Registe
 749:inc/core_cm3.h ****   __IO uint32_t DEMCR;                   /*!< Offset: 0x00C (R/W)  Debug Exception and Monitor Cont
 750:inc/core_cm3.h **** } CoreDebug_Type;
 751:inc/core_cm3.h **** 
 752:inc/core_cm3.h **** /* Debug Halting Control and Status Register */
 753:inc/core_cm3.h **** #define CoreDebug_DHCSR_DBGKEY_Pos         16                                             /*!< Core
 754:inc/core_cm3.h **** #define CoreDebug_DHCSR_DBGKEY_Msk         (0xFFFFUL << CoreDebug_DHCSR_DBGKEY_Pos)       /*!< Core
 755:inc/core_cm3.h **** 
 756:inc/core_cm3.h **** #define CoreDebug_DHCSR_S_RESET_ST_Pos     25                                             /*!< Core
 757:inc/core_cm3.h **** #define CoreDebug_DHCSR_S_RESET_ST_Msk     (1UL << CoreDebug_DHCSR_S_RESET_ST_Pos)        /*!< Core
 758:inc/core_cm3.h **** 
 759:inc/core_cm3.h **** #define CoreDebug_DHCSR_S_RETIRE_ST_Pos    24                                             /*!< Core
 760:inc/core_cm3.h **** #define CoreDebug_DHCSR_S_RETIRE_ST_Msk    (1UL << CoreDebug_DHCSR_S_RETIRE_ST_Pos)       /*!< Core
 761:inc/core_cm3.h **** 
 762:inc/core_cm3.h **** #define CoreDebug_DHCSR_S_LOCKUP_Pos       19                                             /*!< Core
 763:inc/core_cm3.h **** #define CoreDebug_DHCSR_S_LOCKUP_Msk       (1UL << CoreDebug_DHCSR_S_LOCKUP_Pos)          /*!< Core
 764:inc/core_cm3.h **** 
 765:inc/core_cm3.h **** #define CoreDebug_DHCSR_S_SLEEP_Pos        18                                             /*!< Core
 766:inc/core_cm3.h **** #define CoreDebug_DHCSR_S_SLEEP_Msk        (1UL << CoreDebug_DHCSR_S_SLEEP_Pos)           /*!< Core
 767:inc/core_cm3.h **** 
 768:inc/core_cm3.h **** #define CoreDebug_DHCSR_S_HALT_Pos         17                                             /*!< Core
 769:inc/core_cm3.h **** #define CoreDebug_DHCSR_S_HALT_Msk         (1UL << CoreDebug_DHCSR_S_HALT_Pos)            /*!< Core
 770:inc/core_cm3.h **** 
 771:inc/core_cm3.h **** #define CoreDebug_DHCSR_S_REGRDY_Pos       16                                             /*!< Core
 772:inc/core_cm3.h **** #define CoreDebug_DHCSR_S_REGRDY_Msk       (1UL << CoreDebug_DHCSR_S_REGRDY_Pos)          /*!< Core
 773:inc/core_cm3.h **** 
 774:inc/core_cm3.h **** #define CoreDebug_DHCSR_C_SNAPSTALL_Pos     5                                             /*!< Core
 775:inc/core_cm3.h **** #define CoreDebug_DHCSR_C_SNAPSTALL_Msk    (1UL << CoreDebug_DHCSR_C_SNAPSTALL_Pos)       /*!< Core
 776:inc/core_cm3.h **** 
 777:inc/core_cm3.h **** #define CoreDebug_DHCSR_C_MASKINTS_Pos      3                                             /*!< Core
 778:inc/core_cm3.h **** #define CoreDebug_DHCSR_C_MASKINTS_Msk     (1UL << CoreDebug_DHCSR_C_MASKINTS_Pos)        /*!< Core
 779:inc/core_cm3.h **** 
 780:inc/core_cm3.h **** #define CoreDebug_DHCSR_C_STEP_Pos          2                                             /*!< Core
 781:inc/core_cm3.h **** #define CoreDebug_DHCSR_C_STEP_Msk         (1UL << CoreDebug_DHCSR_C_STEP_Pos)            /*!< Core
 782:inc/core_cm3.h **** 
 783:inc/core_cm3.h **** #define CoreDebug_DHCSR_C_HALT_Pos          1                                             /*!< Core
 784:inc/core_cm3.h **** #define CoreDebug_DHCSR_C_HALT_Msk         (1UL << CoreDebug_DHCSR_C_HALT_Pos)            /*!< Core
 785:inc/core_cm3.h **** 
 786:inc/core_cm3.h **** #define CoreDebug_DHCSR_C_DEBUGEN_Pos       0                                             /*!< Core
 787:inc/core_cm3.h **** #define CoreDebug_DHCSR_C_DEBUGEN_Msk      (1UL << CoreDebug_DHCSR_C_DEBUGEN_Pos)         /*!< Core
 788:inc/core_cm3.h **** 
 789:inc/core_cm3.h **** /* Debug Core Register Selector Register */
 790:inc/core_cm3.h **** #define CoreDebug_DCRSR_REGWnR_Pos         16                                             /*!< Core
 791:inc/core_cm3.h **** #define CoreDebug_DCRSR_REGWnR_Msk         (1UL << CoreDebug_DCRSR_REGWnR_Pos)            /*!< Core
 792:inc/core_cm3.h **** 
 793:inc/core_cm3.h **** #define CoreDebug_DCRSR_REGSEL_Pos          0                                             /*!< Core
 794:inc/core_cm3.h **** #define CoreDebug_DCRSR_REGSEL_Msk         (0x1FUL << CoreDebug_DCRSR_REGSEL_Pos)         /*!< Core
 795:inc/core_cm3.h **** 
 796:inc/core_cm3.h **** /* Debug Exception and Monitor Control Register */
ARM GAS  C:\Users\Adrian\AppData\Local\Temp\ccGJSvBN.s 			page 16


 797:inc/core_cm3.h **** #define CoreDebug_DEMCR_TRCENA_Pos         24                                             /*!< Core
 798:inc/core_cm3.h **** #define CoreDebug_DEMCR_TRCENA_Msk         (1UL << CoreDebug_DEMCR_TRCENA_Pos)            /*!< Core
 799:inc/core_cm3.h **** 
 800:inc/core_cm3.h **** #define CoreDebug_DEMCR_MON_REQ_Pos        19                                             /*!< Core
 801:inc/core_cm3.h **** #define CoreDebug_DEMCR_MON_REQ_Msk        (1UL << CoreDebug_DEMCR_MON_REQ_Pos)           /*!< Core
 802:inc/core_cm3.h **** 
 803:inc/core_cm3.h **** #define CoreDebug_DEMCR_MON_STEP_Pos       18                                             /*!< Core
 804:inc/core_cm3.h **** #define CoreDebug_DEMCR_MON_STEP_Msk       (1UL << CoreDebug_DEMCR_MON_STEP_Pos)          /*!< Core
 805:inc/core_cm3.h **** 
 806:inc/core_cm3.h **** #define CoreDebug_DEMCR_MON_PEND_Pos       17                                             /*!< Core
 807:inc/core_cm3.h **** #define CoreDebug_DEMCR_MON_PEND_Msk       (1UL << CoreDebug_DEMCR_MON_PEND_Pos)          /*!< Core
 808:inc/core_cm3.h **** 
 809:inc/core_cm3.h **** #define CoreDebug_DEMCR_MON_EN_Pos         16                                             /*!< Core
 810:inc/core_cm3.h **** #define CoreDebug_DEMCR_MON_EN_Msk         (1UL << CoreDebug_DEMCR_MON_EN_Pos)            /*!< Core
 811:inc/core_cm3.h **** 
 812:inc/core_cm3.h **** #define CoreDebug_DEMCR_VC_HARDERR_Pos     10                                             /*!< Core
 813:inc/core_cm3.h **** #define CoreDebug_DEMCR_VC_HARDERR_Msk     (1UL << CoreDebug_DEMCR_VC_HARDERR_Pos)        /*!< Core
 814:inc/core_cm3.h **** 
 815:inc/core_cm3.h **** #define CoreDebug_DEMCR_VC_INTERR_Pos       9                                             /*!< Core
 816:inc/core_cm3.h **** #define CoreDebug_DEMCR_VC_INTERR_Msk      (1UL << CoreDebug_DEMCR_VC_INTERR_Pos)         /*!< Core
 817:inc/core_cm3.h **** 
 818:inc/core_cm3.h **** #define CoreDebug_DEMCR_VC_BUSERR_Pos       8                                             /*!< Core
 819:inc/core_cm3.h **** #define CoreDebug_DEMCR_VC_BUSERR_Msk      (1UL << CoreDebug_DEMCR_VC_BUSERR_Pos)         /*!< Core
 820:inc/core_cm3.h **** 
 821:inc/core_cm3.h **** #define CoreDebug_DEMCR_VC_STATERR_Pos      7                                             /*!< Core
 822:inc/core_cm3.h **** #define CoreDebug_DEMCR_VC_STATERR_Msk     (1UL << CoreDebug_DEMCR_VC_STATERR_Pos)        /*!< Core
 823:inc/core_cm3.h **** 
 824:inc/core_cm3.h **** #define CoreDebug_DEMCR_VC_CHKERR_Pos       6                                             /*!< Core
 825:inc/core_cm3.h **** #define CoreDebug_DEMCR_VC_CHKERR_Msk      (1UL << CoreDebug_DEMCR_VC_CHKERR_Pos)         /*!< Core
 826:inc/core_cm3.h **** 
 827:inc/core_cm3.h **** #define CoreDebug_DEMCR_VC_NOCPERR_Pos      5                                             /*!< Core
 828:inc/core_cm3.h **** #define CoreDebug_DEMCR_VC_NOCPERR_Msk     (1UL << CoreDebug_DEMCR_VC_NOCPERR_Pos)        /*!< Core
 829:inc/core_cm3.h **** 
 830:inc/core_cm3.h **** #define CoreDebug_DEMCR_VC_MMERR_Pos        4                                             /*!< Core
 831:inc/core_cm3.h **** #define CoreDebug_DEMCR_VC_MMERR_Msk       (1UL << CoreDebug_DEMCR_VC_MMERR_Pos)          /*!< Core
 832:inc/core_cm3.h **** 
 833:inc/core_cm3.h **** #define CoreDebug_DEMCR_VC_CORERESET_Pos    0                                             /*!< Core
 834:inc/core_cm3.h **** #define CoreDebug_DEMCR_VC_CORERESET_Msk   (1UL << CoreDebug_DEMCR_VC_CORERESET_Pos)      /*!< Core
 835:inc/core_cm3.h **** 
 836:inc/core_cm3.h **** /*@} end of group CMSIS_CoreDebug */
 837:inc/core_cm3.h **** 
 838:inc/core_cm3.h **** 
 839:inc/core_cm3.h **** /** \ingroup  CMSIS_core_register
 840:inc/core_cm3.h ****   @{
 841:inc/core_cm3.h ****  */
 842:inc/core_cm3.h **** 
 843:inc/core_cm3.h **** /* Memory mapping of Cortex-M3 Hardware */
 844:inc/core_cm3.h **** #define SCS_BASE            (0xE000E000UL)                            /*!< System Control Space Bas
 845:inc/core_cm3.h **** #define ITM_BASE            (0xE0000000UL)                            /*!< ITM Base Address        
 846:inc/core_cm3.h **** #define CoreDebug_BASE      (0xE000EDF0UL)                            /*!< Core Debug Base Address 
 847:inc/core_cm3.h **** #define SysTick_BASE        (SCS_BASE +  0x0010UL)                    /*!< SysTick Base Address    
 848:inc/core_cm3.h **** #define NVIC_BASE           (SCS_BASE +  0x0100UL)                    /*!< NVIC Base Address       
 849:inc/core_cm3.h **** #define SCB_BASE            (SCS_BASE +  0x0D00UL)                    /*!< System Control Block Bas
 850:inc/core_cm3.h **** 
 851:inc/core_cm3.h **** #define SCnSCB              ((SCnSCB_Type    *)     SCS_BASE      )   /*!< System control Register 
 852:inc/core_cm3.h **** #define SCB                 ((SCB_Type       *)     SCB_BASE      )   /*!< SCB configuration struct
 853:inc/core_cm3.h **** #define SysTick             ((SysTick_Type   *)     SysTick_BASE  )   /*!< SysTick configuration st
ARM GAS  C:\Users\Adrian\AppData\Local\Temp\ccGJSvBN.s 			page 17


 854:inc/core_cm3.h **** #define NVIC                ((NVIC_Type      *)     NVIC_BASE     )   /*!< NVIC configuration struc
 855:inc/core_cm3.h **** #define ITM                 ((ITM_Type       *)     ITM_BASE      )   /*!< ITM configuration struct
 856:inc/core_cm3.h **** #define CoreDebug           ((CoreDebug_Type *)     CoreDebug_BASE)   /*!< Core Debug configuration
 857:inc/core_cm3.h **** 
 858:inc/core_cm3.h **** #if (__MPU_PRESENT == 1)
 859:inc/core_cm3.h ****   #define MPU_BASE          (SCS_BASE +  0x0D90UL)                    /*!< Memory Protection Unit  
 860:inc/core_cm3.h ****   #define MPU               ((MPU_Type       *)     MPU_BASE      )   /*!< Memory Protection Unit  
 861:inc/core_cm3.h **** #endif
 862:inc/core_cm3.h **** 
 863:inc/core_cm3.h **** /*@} */
 864:inc/core_cm3.h **** 
 865:inc/core_cm3.h **** 
 866:inc/core_cm3.h **** 
 867:inc/core_cm3.h **** /*******************************************************************************
 868:inc/core_cm3.h ****  *                Hardware Abstraction Layer
 869:inc/core_cm3.h ****  ******************************************************************************/
 870:inc/core_cm3.h **** /** \defgroup CMSIS_Core_FunctionInterface CMSIS Core Function Interface
 871:inc/core_cm3.h ****   Core Function Interface contains:
 872:inc/core_cm3.h ****   - Core NVIC Functions
 873:inc/core_cm3.h ****   - Core SysTick Functions
 874:inc/core_cm3.h ****   - Core Debug Functions
 875:inc/core_cm3.h ****   - Core Register Access Functions
 876:inc/core_cm3.h **** */
 877:inc/core_cm3.h **** 
 878:inc/core_cm3.h **** 
 879:inc/core_cm3.h **** 
 880:inc/core_cm3.h **** /* ##########################   NVIC functions  #################################### */
 881:inc/core_cm3.h **** /** \ingroup  CMSIS_Core_FunctionInterface
 882:inc/core_cm3.h ****     \defgroup CMSIS_Core_NVICFunctions CMSIS Core NVIC Functions
 883:inc/core_cm3.h ****   @{
 884:inc/core_cm3.h ****  */
 885:inc/core_cm3.h **** 
 886:inc/core_cm3.h **** /** \brief  Set Priority Grouping
 887:inc/core_cm3.h **** 
 888:inc/core_cm3.h ****   This function sets the priority grouping field using the required unlock sequence.
 889:inc/core_cm3.h ****   The parameter PriorityGroup is assigned to the field SCB->AIRCR [10:8] PRIGROUP field.
 890:inc/core_cm3.h ****   Only values from 0..7 are used.
 891:inc/core_cm3.h ****   In case of a conflict between priority grouping and available
 892:inc/core_cm3.h ****   priority bits (__NVIC_PRIO_BITS) the smallest possible priority group is set.
 893:inc/core_cm3.h **** 
 894:inc/core_cm3.h ****     \param [in]      PriorityGroup  Priority grouping field
 895:inc/core_cm3.h ****  */
 896:inc/core_cm3.h **** static __INLINE void NVIC_SetPriorityGrouping(uint32_t PriorityGroup)
 897:inc/core_cm3.h **** {
 898:inc/core_cm3.h ****   uint32_t reg_value;
 899:inc/core_cm3.h ****   uint32_t PriorityGroupTmp = (PriorityGroup & (uint32_t)0x07);               /* only values 0..7 a
 900:inc/core_cm3.h **** 
 901:inc/core_cm3.h ****   reg_value  =  SCB->AIRCR;                                                   /* read old register 
 902:inc/core_cm3.h ****   reg_value &= ~(SCB_AIRCR_VECTKEY_Msk | SCB_AIRCR_PRIGROUP_Msk);             /* clear bits to chan
 903:inc/core_cm3.h ****   reg_value  =  (reg_value                                 |
 904:inc/core_cm3.h ****                 ((uint32_t)0x5FA << SCB_AIRCR_VECTKEY_Pos) |
 905:inc/core_cm3.h ****                 (PriorityGroupTmp << 8));                                     /* Insert write key a
 906:inc/core_cm3.h ****   SCB->AIRCR =  reg_value;
 907:inc/core_cm3.h **** }
 908:inc/core_cm3.h **** 
 909:inc/core_cm3.h **** 
 910:inc/core_cm3.h **** /** \brief  Get Priority Grouping
ARM GAS  C:\Users\Adrian\AppData\Local\Temp\ccGJSvBN.s 			page 18


 911:inc/core_cm3.h **** 
 912:inc/core_cm3.h ****   This function gets the priority grouping from NVIC Interrupt Controller.
 913:inc/core_cm3.h ****   Priority grouping is SCB->AIRCR [10:8] PRIGROUP field.
 914:inc/core_cm3.h **** 
 915:inc/core_cm3.h ****     \return                Priority grouping field
 916:inc/core_cm3.h ****  */
 917:inc/core_cm3.h **** static __INLINE uint32_t NVIC_GetPriorityGrouping(void)
 918:inc/core_cm3.h **** {
 919:inc/core_cm3.h ****   return ((SCB->AIRCR & SCB_AIRCR_PRIGROUP_Msk) >> SCB_AIRCR_PRIGROUP_Pos);   /* read priority grou
 920:inc/core_cm3.h **** }
 921:inc/core_cm3.h **** 
 922:inc/core_cm3.h **** 
 923:inc/core_cm3.h **** /** \brief  Enable External Interrupt
 924:inc/core_cm3.h **** 
 925:inc/core_cm3.h ****     This function enables a device specific interrupt in the NVIC interrupt controller.
 926:inc/core_cm3.h ****     The interrupt number cannot be a negative value.
 927:inc/core_cm3.h **** 
 928:inc/core_cm3.h ****     \param [in]      IRQn  Number of the external interrupt to enable
 929:inc/core_cm3.h ****  */
 930:inc/core_cm3.h **** static __INLINE void NVIC_EnableIRQ(IRQn_Type IRQn)
 931:inc/core_cm3.h **** {
  60              		.loc 1 931 0
  61              		.cfi_startproc
  62              		@ args = 0, pretend = 0, frame = 8
  63              		@ frame_needed = 1, uses_anonymous_args = 0
  64              		@ link register save eliminated.
  65 0000 80B4     		push	{r7}	@
  66              		.cfi_def_cfa_offset 4
  67              		.cfi_offset 7, -4
  68 0002 83B0     		sub	sp, sp, #12	@,,
  69              		.cfi_def_cfa_offset 16
  70 0004 00AF     		add	r7, sp, #0	@,,
  71              		.cfi_def_cfa_register 7
  72 0006 0346     		mov	r3, r0	@ tmp118, IRQn
  73 0008 FB71     		strb	r3, [r7, #7]	@ tmp119, IRQn
 932:inc/core_cm3.h ****   NVIC->ISER[((uint32_t)(IRQn) >> 5)] = (1 << ((uint32_t)(IRQn) & 0x1F)); /* enable interrupt */
  74              		.loc 1 932 0
  75 000a 084B     		ldr	r3, .L2	@ D.8018,
  76 000c 97F90720 		ldrsb	r2, [r7, #7]	@ D.8019, IRQn
  77 0010 5209     		lsrs	r2, r2, #5	@ D.8019, D.8019,
  78 0012 F979     		ldrb	r1, [r7, #7]	@ zero_extendqisi2	@ IRQn.3, IRQn
  79 0014 01F01F01 		and	r1, r1, #31	@ D.8020, D.8020,
  80 0018 0120     		movs	r0, #1	@ tmp120,
  81 001a 00FA01F1 		lsl	r1, r0, r1	@ D.8020, tmp120, D.8020
  82 001e 43F82210 		str	r1, [r3, r2, lsl #2]	@ D.8019, _1->ISER
 933:inc/core_cm3.h **** }
  83              		.loc 1 933 0
  84 0022 0C37     		adds	r7, r7, #12	@,,
  85 0024 BD46     		mov	sp, r7	@,
  86              		@ sp needed	@
  87 0026 5DF8047B 		ldr	r7, [sp], #4	@,
  88 002a 7047     		bx	lr	@
  89              	.L3:
  90              		.align	2
  91              	.L2:
  92 002c 00E100E0 		.word	-536813312
  93              		.cfi_endproc
ARM GAS  C:\Users\Adrian\AppData\Local\Temp\ccGJSvBN.s 			page 19


  94              	.LFE40:
  95              		.size	NVIC_EnableIRQ, .-NVIC_EnableIRQ
  96              		.section	.text._ZL26errorConvert_portBASE_TYPEl,"ax",%progbits
  97              		.align	2
  98              		.thumb
  99              		.thumb_func
 100              		.type	_ZL26errorConvert_portBASE_TYPEl, %function
 101              	_ZL26errorConvert_portBASE_TYPEl:
 102              	.LFB56:
 103              		.file 2 "configuration/error.h"
   1:configuration/error.h **** /**
   2:configuration/error.h ****  * \file error.h
   3:configuration/error.h ****  * \brief Error codes used in program, functions for error handling.
   4:configuration/error.h ****  *
   5:configuration/error.h ****  * Error codes used in program, functions for error handling.
   6:configuration/error.h ****  *
   7:configuration/error.h ****  * prefix: error
   8:configuration/error.h ****  *
   9:configuration/error.h ****  * \author: Freddie Chopin, http://www.freddiechopin.info http://www.distortec.com
  10:configuration/error.h ****  * \date 2012-08-30
  11:configuration/error.h ****  */
  12:configuration/error.h **** 
  13:configuration/error.h **** #ifndef ERROR_H_
  14:configuration/error.h **** #define ERROR_H_
  15:configuration/error.h **** 
  16:configuration/error.h **** //#include <cstdint>
  17:configuration/error.h **** 
  18:configuration/error.h **** #include "FreeRTOS.h"
  19:configuration/error.h **** #include "projdefs.h"
  20:configuration/error.h **** 
  21:configuration/error.h **** #include "ff.h"
  22:configuration/error.h **** 
  23:configuration/error.h **** /*-------------------------------------------------------------------------------------------------
  24:configuration/error.h **** | global variables' types
  25:configuration/error.h **** +--------------------------------------------------------------------------------------------------
  26:configuration/error.h **** 
  27:configuration/error.h **** /// error (and result) values for whole project. It is assumed that 0 means "no error", negative va
  28:configuration/error.h **** /// errors, while positive are for non-fatal ones
  29:configuration/error.h **** enum Error
  30:configuration/error.h **** {
  31:configuration/error.h **** 	// --- negative values ---
  32:configuration/error.h **** 	ERROR_FreeRTOS_errSCHEDULER_FAIL,		// Scheduler leak
  33:configuration/error.h **** 
  34:configuration/error.h **** 	// FreeRTOS errors from projdefs.h
  35:configuration/error.h **** 
  36:configuration/error.h **** 	ERROR_FreeRTOS_errQUEUE_YIELD = -6,		// errQUEUE_YIELD == -5 in FreeRTOS
  37:configuration/error.h **** 	ERROR_FreeRTOS_errQUEUE_BLOCKED,		// errQUEUE_BLOCKED == -4 in FreeRTOS
  38:configuration/error.h **** 	// -3 is not assigned to any error in FreeRTOS
  39:configuration/error.h **** 	ERROR_FreeRTOS_errNO_TASK_TO_RUN = ERROR_FreeRTOS_errQUEUE_BLOCKED + 2,	// errNO_TASK_TO_RUN == -2
  40:configuration/error.h **** 	ERROR_FreeRTOS_errCOULD_NOT_ALLOCATE_REQUIRED_MEMORY,	// errCOULD_NOT_ALLOCATE_REQUIRED_MEMORY == 
  41:configuration/error.h **** 	// pdFAIL == errQUEUE_EMPTY == errQUEUE_FULL == 0 in FreeRTOS
  42:configuration/error.h **** 	ERROR_FreeRTOS_pdFAIL, ERROR_FreeRTOS_errQUEUE_EMPTY = ERROR_FreeRTOS_pdFAIL, ERROR_FreeRTOS_errQU
  43:configuration/error.h **** 
  44:configuration/error.h **** 	// --- NOERROR success value 0 ---
  45:configuration/error.h **** 
  46:configuration/error.h **** 	ERROR_NONE = 0,
  47:configuration/error.h **** 
ARM GAS  C:\Users\Adrian\AppData\Local\Temp\ccGJSvBN.s 			page 20


  48:configuration/error.h **** 	ERROR_FreeRTOS_pdPASS = ERROR_NONE, // pdPASS == 1 in FreeRTOS
  49:configuration/error.h **** 	ERROR_FatFS_FR_OK = ERROR_NONE,									/* (0) Succeeded */
  50:configuration/error.h **** 
  51:configuration/error.h **** 	// FatFS results from ff.h
  52:configuration/error.h **** 
  53:configuration/error.h **** 	ERROR_FatFS_FR_DISK_ERR = FR_DISK_ERR,							/* (1) A hard error occured in the low level disk I/O
  54:configuration/error.h **** 	ERROR_FatFS_FR_INT_ERR = FR_INT_ERR,							/* (2) Assertion failed */
  55:configuration/error.h **** 	ERROR_FatFS_FR_NOT_READY = FR_NOT_READY,						/* (3) The physical drive cannot work */
  56:configuration/error.h **** 	ERROR_FatFS_FR_NO_FILE = FR_NO_FILE,							/* (4) Could not find the file */
  57:configuration/error.h **** 	ERROR_FatFS_FR_NO_PATH = FR_NO_PATH,							/* (5) Could not find the path */
  58:configuration/error.h **** 	ERROR_FatFS_FR_INVALID_NAME = FR_INVALID_NAME,					/* (6) The path name format is invalid */
  59:configuration/error.h **** 	ERROR_FatFS_FR_DENIED = FR_DENIED,								/* (7) Acces denied due to prohibited access or director
  60:configuration/error.h **** 	ERROR_FatFS_FR_EXIST = FR_EXIST,								/* (8) Acces denied due to prohibited access */
  61:configuration/error.h **** 	ERROR_FatFS_FR_INVALID_OBJECT = FR_INVALID_OBJECT,				/* (9) The file/directory object is invalid 
  62:configuration/error.h **** 	ERROR_FatFS_FR_WRITE_PROTECTED = FR_WRITE_PROTECTED,			/* (10) The physical drive is write protect
  63:configuration/error.h **** 	ERROR_FatFS_FR_INVALID_DRIVE = FR_INVALID_DRIVE,				/* (11) The logical drive number is invalid */
  64:configuration/error.h **** 	ERROR_FatFS_FR_NOT_ENABLED = FR_NOT_ENABLED,					/* (12) The volume has no work area */
  65:configuration/error.h **** 	ERROR_FatFS_FR_NO_FILESYSTEM = FR_NO_FILESYSTEM,				/* (13) There is no valid FAT volume */
  66:configuration/error.h **** 	ERROR_FatFS_FR_MKFS_ABORTED = FR_MKFS_ABORTED,					/* (14) The f_mkfs() aborted due to any paramet
  67:configuration/error.h **** 	ERROR_FatFS_FR_TIMEOUT = FR_TIMEOUT,							/* (15) Could not get a grant to access the volume with
  68:configuration/error.h **** 	ERROR_FatFS_FR_LOCKED = FR_LOCKED,								/* (16) The operation is rejected according to the file 
  69:configuration/error.h **** 	ERROR_FatFS_FR_NOT_ENOUGH_CORE = FR_NOT_ENOUGH_CORE,			/* (17) LFN working buffer could not be all
  70:configuration/error.h **** 	ERROR_FatFS_FR_TOO_MANY_OPEN_FILES = FR_TOO_MANY_OPEN_FILES,	/* (18) Number of open files > _FS_SH
  71:configuration/error.h **** 	ERROR_FatFS_FR_INVALID_PARAMETER = FR_INVALID_PARAMETER,		/* (19) Given parameter is invalid */
  72:configuration/error.h **** 
  73:configuration/error.h **** 	// --- PERIPHERALS errors and issues
  74:configuration/error.h **** 
  75:configuration/error.h **** 	// --- communications on MainBus <I2C> errors ---
  76:configuration/error.h **** 	ERROR_MAINBUSS_TARGET_UNREACHABLE,
  77:configuration/error.h **** 	ERROR_MAINBUSS_MODULE_NOT_READY,
  78:configuration/error.h **** 	ERROR_MAINBUSS_DATA_NOT_READY,
  79:configuration/error.h **** 	ERROR_MAINBUSS_BUS_CORRUPTION,
  80:configuration/error.h **** 
  81:configuration/error.h **** 	// --- END OF PERIPHERALS
  82:configuration/error.h **** 
  83:configuration/error.h **** 	// --- positive values ---
  84:configuration/error.h **** 
  85:configuration/error.h **** 	// commands
  86:configuration/error.h **** 
  87:configuration/error.h **** 	ERROR_COMMAND_NOT_FOUND,
  88:configuration/error.h **** 
  89:configuration/error.h **** 	// various
  90:configuration/error.h **** 
  91:configuration/error.h **** 	ERROR_BUFFER_OVERFLOW,
  92:configuration/error.h **** 
  93:configuration/error.h **** };
  94:configuration/error.h **** 
  95:configuration/error.h **** /*-------------------------------------------------------------------------------------------------
  96:configuration/error.h **** | global functions
  97:configuration/error.h **** +--------------------------------------------------------------------------------------------------
  98:configuration/error.h **** 
  99:configuration/error.h **** /**
 100:configuration/error.h ****  * \brief Converts FatFS FRESULT to enum Error.
 101:configuration/error.h ****  *
 102:configuration/error.h ****  * Converts FatFS FRESULT to enum Error.
 103:configuration/error.h ****  *
 104:configuration/error.h ****  * \param [in] fresult is a FRESULT from FatFS
ARM GAS  C:\Users\Adrian\AppData\Local\Temp\ccGJSvBN.s 			page 21


 105:configuration/error.h ****  *
 106:configuration/error.h ****  * \return fresult converted to enum Error
 107:configuration/error.h ****  */
 108:configuration/error.h **** 
 109:configuration/error.h **** static inline enum Error errorConvert_FRESULT(FRESULT fresult)
 110:configuration/error.h **** {
 111:configuration/error.h **** 	return (enum Error)(fresult + ERROR_FatFS_FR_OK);
 112:configuration/error.h **** }
 113:configuration/error.h **** 
 114:configuration/error.h **** /**
 115:configuration/error.h ****  * \brief Converts FreeRTOS portBASE_TYPE to enum Error.
 116:configuration/error.h ****  *
 117:configuration/error.h ****  * Converts FreeRTOS portBASE_TYPE to enum Error.
 118:configuration/error.h ****  *
 119:configuration/error.h ****  * \param [in] ret is a portBASE_TYPE return value from FreeRTOS
 120:configuration/error.h ****  *
 121:configuration/error.h ****  * \return ret converted to enum Error
 122:configuration/error.h ****  */
 123:configuration/error.h **** 
 124:configuration/error.h **** static inline enum Error errorConvert_portBASE_TYPE(portBASE_TYPE ret)
 125:configuration/error.h **** {
 104              		.loc 2 125 0
 105              		.cfi_startproc
 106              		@ args = 0, pretend = 0, frame = 8
 107              		@ frame_needed = 1, uses_anonymous_args = 0
 108              		@ link register save eliminated.
 109 0000 80B4     		push	{r7}	@
 110              		.cfi_def_cfa_offset 4
 111              		.cfi_offset 7, -4
 112 0002 83B0     		sub	sp, sp, #12	@,,
 113              		.cfi_def_cfa_offset 16
 114 0004 00AF     		add	r7, sp, #0	@,,
 115              		.cfi_def_cfa_register 7
 116 0006 7860     		str	r0, [r7, #4]	@ ret, ret
 126:configuration/error.h **** 	return (enum Error)(ret - pdPASS + (int32_t)ERROR_FreeRTOS_pdPASS);
 117              		.loc 2 126 0
 118 0008 7B68     		ldr	r3, [r7, #4]	@ tmp114, ret
 119 000a DBB2     		uxtb	r3, r3	@ D.8021, tmp114
 120 000c 013B     		subs	r3, r3, #1	@ tmp115, D.8021,
 121 000e DBB2     		uxtb	r3, r3	@ D.8021, tmp115
 122 0010 DBB2     		uxtb	r3, r3	@ D.8022, D.8021
 123 0012 5BB2     		sxtb	r3, r3	@ tmp117, D.8022
 127:configuration/error.h **** }
 124              		.loc 2 127 0
 125 0014 1846     		mov	r0, r3	@, <retval>
 126 0016 0C37     		adds	r7, r7, #12	@,,
 127 0018 BD46     		mov	sp, r7	@,
 128              		@ sp needed	@
 129 001a 5DF8047B 		ldr	r7, [sp], #4	@,
 130 001e 7047     		bx	lr	@
 131              		.cfi_endproc
 132              	.LFE56:
 133              		.size	_ZL26errorConvert_portBASE_TYPEl, .-_ZL26errorConvert_portBASE_TYPEl
 134              		.section	.bss._ZL11_fileSystem,"aw",%nobits
 135              		.align	2
 136              		.type	_ZL11_fileSystem, %object
 137              		.size	_ZL11_fileSystem, 564
ARM GAS  C:\Users\Adrian\AppData\Local\Temp\ccGJSvBN.s 			page 22


 138              	_ZL11_fileSystem:
 139 0000 00000000 		.space	564
 139      00000000 
 139      00000000 
 139      00000000 
 139      00000000 
 140              		.section	.text.main,"ax",%progbits
 141              		.align	2
 142              		.global	main
 143              		.thumb
 144              		.thumb_func
 145              		.type	main, %function
 146              	main:
 147              	.LFB57:
 148              		.file 3 "configuration/main.cpp"
   1:configuration/main.cpp **** /** \file main.cpp
   2:configuration/main.cpp ****  * \brief Main code block
   3:configuration/main.cpp ****  *
   4:configuration/main.cpp ****  * Main code block
   5:configuration/main.cpp ****  *
   6:configuration/main.cpp ****  * project: mg-stm32l_acquisition_supervisor; chip: STM32L152RB
   7:configuration/main.cpp ****  *
   8:configuration/main.cpp ****  * \author Mazeryt Freager
   9:configuration/main.cpp ****  * \date 2012-09-06
  10:configuration/main.cpp ****  */
  11:configuration/main.cpp **** 
  12:configuration/main.cpp **** #include <stdint.h>
  13:configuration/main.cpp **** #include <stdlib.h>
  14:configuration/main.cpp **** #include <string.h>
  15:configuration/main.cpp **** #include <stdio.h>
  16:configuration/main.cpp **** 
  17:configuration/main.cpp **** #include "FreeRTOS.h"
  18:configuration/main.cpp **** #include "task.h"
  19:configuration/main.cpp **** 
  20:configuration/main.cpp **** #include "ff.h"
  21:configuration/main.cpp **** 
  22:configuration/main.cpp **** #include "hdr/hdr_rcc.h"
  23:configuration/main.cpp **** 
  24:configuration/main.cpp **** // ./
  25:configuration/main.cpp **** #include "config.h"
  26:configuration/main.cpp **** #include "bsp.h"
  27:configuration/main.cpp **** #include "error.h"
  28:configuration/main.cpp **** #include "command.h"
  29:configuration/main.cpp **** 
  30:configuration/main.cpp **** //Peripherials
  31:configuration/main.cpp **** #include "gpio.h"
  32:configuration/main.cpp **** #include "rcc.h"
  33:configuration/main.cpp **** #include "helper.h"
  34:configuration/main.cpp **** #include "i2c.h"
  35:configuration/main.cpp **** #include "serial.h"
  36:configuration/main.cpp **** #include "usart.h"
  37:configuration/main.cpp **** #include "lcd.h"
  38:configuration/main.cpp **** 
  39:configuration/main.cpp **** //Application
  40:configuration/main.cpp **** #include "lcdprinter.h"
  41:configuration/main.cpp **** 
  42:configuration/main.cpp **** #define ACC_INT_PIN							GPIO_PIN_0
ARM GAS  C:\Users\Adrian\AppData\Local\Temp\ccGJSvBN.s 			page 23


  43:configuration/main.cpp **** #define ACC_INT_GPIO						GPIOA
  44:configuration/main.cpp **** #define ACC_INT_CONFIGURATION				GPIO_IN_PULL_DOWN
  45:configuration/main.cpp **** 
  46:configuration/main.cpp **** /*-------------------------------------------------------------------------------------------------
  47:configuration/main.cpp **** | local functions' declarations
  48:configuration/main.cpp **** +--------------------------------------------------------------------------------------------------
  49:configuration/main.cpp **** 
  50:configuration/main.cpp **** static void _heartbeatTask(void *parameters);
  51:configuration/main.cpp **** static enum Error _initializeHeartbeatTask(void);
  52:configuration/main.cpp **** static enum Error _initializeGuardianTask(void);
  53:configuration/main.cpp **** static enum Error _peripLauncher(void);
  54:configuration/main.cpp **** static enum Error _sysInit(void);
  55:configuration/main.cpp **** static enum Error _schedulerInitAndRun(void);
  56:configuration/main.cpp **** 
  57:configuration/main.cpp **** 
  58:configuration/main.cpp **** /*-------------------------------------------------------------------------------------------------
  59:configuration/main.cpp **** | extern functions' declarations
  60:configuration/main.cpp **** +--------------------------------------------------------------------------------------------------
  61:configuration/main.cpp **** 
  62:configuration/main.cpp **** 
  63:configuration/main.cpp **** /*-------------------------------------------------------------------------------------------------
  64:configuration/main.cpp **** | local variables
  65:configuration/main.cpp **** +--------------------------------------------------------------------------------------------------
  66:configuration/main.cpp **** 
  67:configuration/main.cpp **** static FATFS _fileSystem;
  68:configuration/main.cpp **** 
  69:configuration/main.cpp **** /*-------------------------------------------------------------------------------------------------
  70:configuration/main.cpp **** | global variables
  71:configuration/main.cpp **** +--------------------------------------------------------------------------------------------------
  72:configuration/main.cpp **** 
  73:configuration/main.cpp **** 
  74:configuration/main.cpp **** /*-------------------------------------------------------------------------------------------------
  75:configuration/main.cpp **** | global functions
  76:configuration/main.cpp **** +--------------------------------------------------------------------------------------------------
  77:configuration/main.cpp **** 
  78:configuration/main.cpp **** /**
  79:configuration/main.cpp ****  * \brief System root Task
  80:configuration/main.cpp ****  */
  81:configuration/main.cpp **** int main(void)
  82:configuration/main.cpp **** {
 149              		.loc 3 82 0
 150              		.cfi_startproc
 151              		@ args = 0, pretend = 0, frame = 8
 152              		@ frame_needed = 1, uses_anonymous_args = 0
 153 0000 80B5     		push	{r7, lr}	@
 154              		.cfi_def_cfa_offset 8
 155              		.cfi_offset 7, -8
 156              		.cfi_offset 14, -4
 157 0002 82B0     		sub	sp, sp, #8	@,,
 158              		.cfi_def_cfa_offset 16
 159 0004 00AF     		add	r7, sp, #0	@,,
 160              		.cfi_def_cfa_register 7
 161              	.LBB2:
  83:configuration/main.cpp **** 	enum Error sysError = _sysInit();
 162              		.loc 3 83 0
 163 0006 FFF7FEFF 		bl	_ZL8_sysInitv	@
 164 000a 0346     		mov	r3, r0	@ tmp111,
ARM GAS  C:\Users\Adrian\AppData\Local\Temp\ccGJSvBN.s 			page 24


 165 000c FB71     		strb	r3, [r7, #7]	@ tmp112, sysError
  84:configuration/main.cpp **** 	if (sysError != ERROR_NONE){
 166              		.loc 3 84 0
 167 000e 97F90730 		ldrsb	r3, [r7, #7]	@ tmp113, sysError
 168 0012 002B     		cmp	r3, #0	@ tmp113,
 169 0014 00D0     		beq	.L7	@,
  85:configuration/main.cpp **** 		goto sys_panic;
 170              		.loc 3 85 0
 171 0016 09E0     		b	.L8	@
 172              	.L7:
  86:configuration/main.cpp **** 	}
  87:configuration/main.cpp **** 
  88:configuration/main.cpp **** 	sysError = _peripLauncher();
 173              		.loc 3 88 0
 174 0018 FFF7FEFF 		bl	_ZL14_peripLauncherv	@
 175 001c 0346     		mov	r3, r0	@ tmp114,
 176 001e FB71     		strb	r3, [r7, #7]	@ tmp115, sysError
  89:configuration/main.cpp **** 	if (sysError != ERROR_NONE){
 177              		.loc 3 89 0
 178 0020 97F90730 		ldrsb	r3, [r7, #7]	@ tmp116, sysError
 179 0024 002B     		cmp	r3, #0	@ tmp116,
 180 0026 00D0     		beq	.L9	@,
  90:configuration/main.cpp **** 		goto sys_panic;
 181              		.loc 3 90 0
 182 0028 00E0     		b	.L8	@
 183              	.L9:
  91:configuration/main.cpp **** 	}
  92:configuration/main.cpp **** 
  93:configuration/main.cpp **** 	while(1)
  94:configuration/main.cpp **** 	{
  95:configuration/main.cpp **** 
  96:configuration/main.cpp **** 	}
  97:configuration/main.cpp **** 
  98:configuration/main.cpp **** 	goto sys_panic;
  99:configuration/main.cpp **** 
 100:configuration/main.cpp **** 	sys_panic:
 101:configuration/main.cpp **** 		while (1);
 184              		.loc 3 101 0 discriminator 1
 185 002a FEE7     		b	.L9	@
 186              	.L8:
 187              		.loc 3 101 0 is_stmt 0 discriminator 2
 188 002c FEE7     		b	.L8	@
 189              	.LBE2:
 190              		.cfi_endproc
 191              	.LFE57:
 192              		.size	main, .-main
 193 002e 00BF     		.section	.text._ZL8_sysInitv,"ax",%progbits
 194              		.align	2
 195              		.thumb
 196              		.thumb_func
 197              		.type	_ZL8_sysInitv, %function
 198              	_ZL8_sysInitv:
 199              	.LFB58:
 102:configuration/main.cpp **** }
 103:configuration/main.cpp **** 
 104:configuration/main.cpp **** /*-------------------------------------------------------------------------------------------------
 105:configuration/main.cpp **** | local functions implementation
ARM GAS  C:\Users\Adrian\AppData\Local\Temp\ccGJSvBN.s 			page 25


 106:configuration/main.cpp **** +--------------------------------------------------------------------------------------------------
 107:configuration/main.cpp **** 
 108:configuration/main.cpp **** /**
 109:configuration/main.cpp ****  *  \brief Initialize uC Core and sysCLK
 110:configuration/main.cpp ****  *
 111:configuration/main.cpp ****  *  \return ERROR_NONE on success, otherwise appropriate error code from error.h
 112:configuration/main.cpp ****  */
 113:configuration/main.cpp **** static enum Error _sysInit()
 114:configuration/main.cpp **** {
 200              		.loc 3 114 0 is_stmt 1
 201              		.cfi_startproc
 202              		@ args = 0, pretend = 0, frame = 8
 203              		@ frame_needed = 1, uses_anonymous_args = 0
 204 0000 80B5     		push	{r7, lr}	@
 205              		.cfi_def_cfa_offset 8
 206              		.cfi_offset 7, -8
 207              		.cfi_offset 14, -4
 208 0002 82B0     		sub	sp, sp, #8	@,,
 209              		.cfi_def_cfa_offset 16
 210 0004 00AF     		add	r7, sp, #0	@,,
 211              		.cfi_def_cfa_register 7
 212              	.LBB3:
 115:configuration/main.cpp **** 	Error error = ERROR_NONE;
 213              		.loc 3 115 0
 214 0006 0023     		movs	r3, #0	@ tmp126,
 215 0008 FB71     		strb	r3, [r7, #7]	@ tmp127, error
 116:configuration/main.cpp **** 
 117:configuration/main.cpp **** 	RCC_APB1ENR_PWREN_bb = 1;
 216              		.loc 3 117 0
 217 000a 174B     		ldr	r3, .L14	@ D.8023,
 218 000c 0122     		movs	r2, #1	@ tmp128,
 219 000e 1A60     		str	r2, [r3]	@ tmp128, *_2
 118:configuration/main.cpp **** 	PWR->CR = (PWR->CR & (~PWR_CR_VOS)) | PWR_CR_VOS_0;	// set VCORE voltage range 1 (1.8V)
 220              		.loc 3 118 0
 221 0010 164B     		ldr	r3, .L14+4	@ D.8024,
 222 0012 164A     		ldr	r2, .L14+4	@ D.8024,
 223 0014 1268     		ldr	r2, [r2]	@ D.8025, _4->CR
 224 0016 22F4C052 		bic	r2, r2, #6144	@ D.8025, D.8025,
 225 001a 42F40062 		orr	r2, r2, #2048	@ D.8025, D.8025,
 226 001e 1A60     		str	r2, [r3]	@ D.8025, _3->CR
 119:configuration/main.cpp **** 	while((PWR->CSR & PWR_CSR_VOSF) != 0);	// wait for regulator ready
 227              		.loc 3 119 0
 228 0020 00BF     		nop
 229              	.L11:
 230              		.loc 3 119 0 is_stmt 0 discriminator 1
 231 0022 124B     		ldr	r3, .L14+4	@ D.8024,
 232 0024 5B68     		ldr	r3, [r3, #4]	@ D.8025, _8->CSR
 233 0026 03F01003 		and	r3, r3, #16	@ D.8025, D.8025,
 234 002a 002B     		cmp	r3, #0	@ D.8025,
 235 002c 0CBF     		ite	eq	@
 236 002e 0023     		moveq	r3, #0	@, tmp130
 237 0030 0123     		movne	r3, #1	@, tmp130
 238 0032 DBB2     		uxtb	r3, r3	@ retval.0, tmp129
 239 0034 002B     		cmp	r3, #0	@ retval.0,
 240 0036 F4D1     		bne	.L11	@,
 120:configuration/main.cpp **** 
 121:configuration/main.cpp **** 	RCC_CR_HSION_bb = 1;					// enable HSI oscillator
ARM GAS  C:\Users\Adrian\AppData\Local\Temp\ccGJSvBN.s 			page 26


 241              		.loc 3 121 0 is_stmt 1
 242 0038 0D4B     		ldr	r3, .L14+8	@ D.8023,
 243 003a 0122     		movs	r2, #1	@ tmp131,
 244 003c 1A60     		str	r2, [r3]	@ tmp131, *_12
 122:configuration/main.cpp **** 	while (RCC_CR_HSIRDY_bb == 0);
 245              		.loc 3 122 0
 246 003e 00BF     		nop
 247              	.L12:
 248              		.loc 3 122 0 is_stmt 0 discriminator 1
 249 0040 0C4B     		ldr	r3, .L14+12	@ D.8023,
 250 0042 1B68     		ldr	r3, [r3]	@ D.8025, *_13
 251 0044 002B     		cmp	r3, #0	@ D.8025,
 252 0046 14BF     		ite	ne	@
 253 0048 0023     		movne	r3, #0	@, tmp133
 254 004a 0123     		moveq	r3, #1	@, tmp133
 255 004c DBB2     		uxtb	r3, r3	@ retval.1, tmp132
 256 004e 002B     		cmp	r3, #0	@ retval.1,
 257 0050 F6D1     		bne	.L12	@,
 123:configuration/main.cpp **** 
 124:configuration/main.cpp **** 	rccStartPll(RCC_PLL_INPUT_HSI, HSI_VALUE, FREQUENCY);
 258              		.loc 3 124 0 is_stmt 1
 259 0052 0020     		movs	r0, #0	@,
 260 0054 0849     		ldr	r1, .L14+16	@,
 261 0056 094A     		ldr	r2, .L14+20	@,
 262 0058 FFF7FEFF 		bl	_Z11rccStartPll11rccPllInputmm	@
 125:configuration/main.cpp **** 
 126:configuration/main.cpp **** 	return error;
 263              		.loc 3 126 0
 264 005c FB79     		ldrb	r3, [r7, #7]	@ zero_extendqisi2	@ D.8026, error
 265 005e 5BB2     		sxtb	r3, r3	@ tmp135, D.8026
 266              	.LBE3:
 127:configuration/main.cpp **** }
 267              		.loc 3 127 0
 268 0060 1846     		mov	r0, r3	@, <retval>
 269 0062 0837     		adds	r7, r7, #8	@,,
 270 0064 BD46     		mov	sp, r7	@,
 271              		@ sp needed	@
 272 0066 80BD     		pop	{r7, pc}	@
 273              	.L15:
 274              		.align	2
 275              	.L14:
 276 0068 F0044742 		.word	1111950576
 277 006c 00700040 		.word	1073770496
 278 0070 00004742 		.word	1111949312
 279 0074 04004742 		.word	1111949316
 280 0078 0024F400 		.word	16000000
 281 007c 0048E801 		.word	32000000
 282              		.cfi_endproc
 283              	.LFE58:
 284              		.size	_ZL8_sysInitv, .-_ZL8_sysInitv
 285              		.section	.rodata
 286              		.align	2
 287              	.LC0:
 288 0000 41737365 		.ascii	"Assertion \"%s\" failed at line %d in %s\012\000"
 288      7274696F 
 288      6E202225 
 288      73222066 
ARM GAS  C:\Users\Adrian\AppData\Local\Temp\ccGJSvBN.s 			page 27


 288      61696C65 
 289              		.align	2
 290              	.LC1:
 291 0028 665F6D6F 		.ascii	"f_mount()\000"
 291      756E7428 
 291      2900
 292 0032 0000     		.align	2
 293              	.LC2:
 294 0034 636F6E66 		.ascii	"configuration/main.cpp\000"
 294      69677572 
 294      6174696F 
 294      6E2F6D61 
 294      696E2E63 
 295 004b 00       		.align	2
 296              	.LC3:
 297 004c 5F696E69 		.ascii	"_initializeHeartbeatTask()\000"
 297      7469616C 
 297      697A6548 
 297      65617274 
 297      62656174 
 298              		.section	.text._ZL20_schedulerInitAndRunv,"ax",%progbits
 299              		.align	2
 300              		.thumb
 301              		.thumb_func
 302              		.type	_ZL20_schedulerInitAndRunv, %function
 303              	_ZL20_schedulerInitAndRunv:
 304              	.LFB59:
 128:configuration/main.cpp **** 
 129:configuration/main.cpp **** /**
 130:configuration/main.cpp ****  *  \brief Initialize tasks and run scheduler.
 131:configuration/main.cpp ****  *  At this point RTOS expropriates control from root task.
 132:configuration/main.cpp ****  *
 133:configuration/main.cpp ****  *  \return: This function should not never escape, if so that something goes wrong and scheduler f
 134:configuration/main.cpp ****  */
 135:configuration/main.cpp **** static enum Error _schedulerInitAndRun(){
 305              		.loc 3 135 0
 306              		.cfi_startproc
 307              		@ args = 0, pretend = 0, frame = 8
 308              		@ frame_needed = 1, uses_anonymous_args = 0
 309 0000 80B5     		push	{r7, lr}	@
 310              		.cfi_def_cfa_offset 8
 311              		.cfi_offset 7, -8
 312              		.cfi_offset 14, -4
 313 0002 82B0     		sub	sp, sp, #8	@,,
 314              		.cfi_def_cfa_offset 16
 315 0004 00AF     		add	r7, sp, #0	@,,
 316              		.cfi_def_cfa_register 7
 317              	.LBB4:
 136:configuration/main.cpp **** 	Error error = ERROR_FreeRTOS_errSCHEDULER_FAIL;
 318              		.loc 3 136 0
 319 0006 0023     		movs	r3, #0	@ tmp112,
 320 0008 FB71     		strb	r3, [r7, #7]	@ tmp113, error
 137:configuration/main.cpp **** 
 138:configuration/main.cpp **** 	FRESULT fresult = f_mount(0, &_fileSystem);	// try mounting the filesystem on SD card
 321              		.loc 3 138 0
 322 000a 0020     		movs	r0, #0	@,
 323 000c 1449     		ldr	r1, .L22	@,
ARM GAS  C:\Users\Adrian\AppData\Local\Temp\ccGJSvBN.s 			page 28


 324 000e FFF7FEFF 		bl	f_mount	@
 325 0012 0346     		mov	r3, r0	@ tmp114,
 326 0014 BB71     		strb	r3, [r7, #6]	@ tmp115, fresult
 139:configuration/main.cpp **** 	ASSERT("f_mount()", fresult == FR_OK);
 327              		.loc 3 139 0
 328 0016 BB79     		ldrb	r3, [r7, #6]	@ zero_extendqisi2	@ tmp116, fresult
 329 0018 002B     		cmp	r3, #0	@ tmp116,
 330 001a 06D0     		beq	.L17	@,
 331              		.loc 3 139 0 is_stmt 0 discriminator 1
 332 001c 1148     		ldr	r0, .L22+4	@,
 333 001e 1249     		ldr	r1, .L22+8	@,
 334 0020 8B22     		movs	r2, #139	@,
 335 0022 124B     		ldr	r3, .L22+12	@,
 336 0024 FFF7FEFF 		bl	printf	@
 337              	.L18:
 338 0028 FEE7     		b	.L18	@
 339              	.L17:
 140:configuration/main.cpp **** 
 141:configuration/main.cpp **** 	error = _initializeHeartbeatTask();
 340              		.loc 3 141 0 is_stmt 1
 341 002a FFF7FEFF 		bl	_ZL24_initializeHeartbeatTaskv	@
 342 002e 0346     		mov	r3, r0	@ tmp117,
 343 0030 FB71     		strb	r3, [r7, #7]	@ tmp118, error
 142:configuration/main.cpp **** 	ASSERT("_initializeHeartbeatTask()", error == ERROR_NONE);
 344              		.loc 3 142 0
 345 0032 97F90730 		ldrsb	r3, [r7, #7]	@ tmp119, error
 346 0036 002B     		cmp	r3, #0	@ tmp119,
 347 0038 06D0     		beq	.L19	@,
 348              		.loc 3 142 0 is_stmt 0 discriminator 1
 349 003a 0A48     		ldr	r0, .L22+4	@,
 350 003c 0C49     		ldr	r1, .L22+16	@,
 351 003e 8E22     		movs	r2, #142	@,
 352 0040 0A4B     		ldr	r3, .L22+12	@,
 353 0042 FFF7FEFF 		bl	printf	@
 354              	.L20:
 355 0046 FEE7     		b	.L20	@
 356              	.L19:
 143:configuration/main.cpp **** 
 144:configuration/main.cpp **** 	error = _initializeGuardianTask();
 357              		.loc 3 144 0 is_stmt 1
 358 0048 FFF7FEFF 		bl	_ZL23_initializeGuardianTaskv	@
 359 004c 0346     		mov	r3, r0	@ tmp120,
 360 004e FB71     		strb	r3, [r7, #7]	@ tmp121, error
 145:configuration/main.cpp **** 
 146:configuration/main.cpp **** 	vTaskStartScheduler();
 361              		.loc 3 146 0
 362 0050 FFF7FEFF 		bl	vTaskStartScheduler	@
 147:configuration/main.cpp **** 
 148:configuration/main.cpp **** 	return error;
 363              		.loc 3 148 0
 364 0054 FB79     		ldrb	r3, [r7, #7]	@ zero_extendqisi2	@ D.8027, error
 365 0056 5BB2     		sxtb	r3, r3	@ tmp123, D.8027
 366              	.LBE4:
 149:configuration/main.cpp **** }
 367              		.loc 3 149 0
 368 0058 1846     		mov	r0, r3	@, <retval>
 369 005a 0837     		adds	r7, r7, #8	@,,
ARM GAS  C:\Users\Adrian\AppData\Local\Temp\ccGJSvBN.s 			page 29


 370 005c BD46     		mov	sp, r7	@,
 371              		@ sp needed	@
 372 005e 80BD     		pop	{r7, pc}	@
 373              	.L23:
 374              		.align	2
 375              	.L22:
 376 0060 00000000 		.word	_ZL11_fileSystem
 377 0064 00000000 		.word	.LC0
 378 0068 28000000 		.word	.LC1
 379 006c 34000000 		.word	.LC2
 380 0070 4C000000 		.word	.LC3
 381              		.cfi_endproc
 382              	.LFE59:
 383              		.size	_ZL20_schedulerInitAndRunv, .-_ZL20_schedulerInitAndRunv
 384              		.section	.text._ZL14_peripLauncherv,"ax",%progbits
 385              		.align	2
 386              		.thumb
 387              		.thumb_func
 388              		.type	_ZL14_peripLauncherv, %function
 389              	_ZL14_peripLauncherv:
 390              	.LFB60:
 150:configuration/main.cpp **** 
 151:configuration/main.cpp **** /**
 152:configuration/main.cpp ****  *  \brief Launcher for used peripherals
 153:configuration/main.cpp ****  *
 154:configuration/main.cpp ****  *  \return ERROR_NONE on success, otherwise appropriate error code from error.h
 155:configuration/main.cpp ****  */
 156:configuration/main.cpp **** static enum Error _peripLauncher()
 157:configuration/main.cpp **** {
 391              		.loc 3 157 0
 392              		.cfi_startproc
 393              		@ args = 0, pretend = 0, frame = 8
 394              		@ frame_needed = 1, uses_anonymous_args = 0
 395 0000 80B5     		push	{r7, lr}	@
 396              		.cfi_def_cfa_offset 8
 397              		.cfi_offset 7, -8
 398              		.cfi_offset 14, -4
 399 0002 82B0     		sub	sp, sp, #8	@,,
 400              		.cfi_def_cfa_offset 16
 401 0004 00AF     		add	r7, sp, #0	@,,
 402              		.cfi_def_cfa_register 7
 403              	.LBB5:
 158:configuration/main.cpp **** 	Error error = ERROR_NONE;
 404              		.loc 3 158 0
 405 0006 0023     		movs	r3, #0	@ tmp114,
 406 0008 FB71     		strb	r3, [r7, #7]	@ tmp115, error
 159:configuration/main.cpp **** 
 160:configuration/main.cpp **** 	// LED Initialise
 161:configuration/main.cpp **** 	gpioConfigurePin(LED_GPIO, LED_pin, GPIO_OUT_PP_2MHz);
 407              		.loc 3 161 0
 408 000a 0E48     		ldr	r0, .L27	@,
 409 000c 0621     		movs	r1, #6	@,
 410 000e 40F20112 		movw	r2, #257	@,
 411 0012 FFF7FEFF 		bl	_Z16gpioConfigurePinP12GPIO_TypeDef7GpioPin17GpioConfiguration	@
 162:configuration/main.cpp **** 	LED_bb = 1;
 412              		.loc 3 162 0
 413 0016 0C4B     		ldr	r3, .L27+4	@ D.8032,
ARM GAS  C:\Users\Adrian\AppData\Local\Temp\ccGJSvBN.s 			page 30


 414 0018 0122     		movs	r2, #1	@ tmp116,
 415 001a 1A60     		str	r2, [r3]	@ tmp116, *_2
 163:configuration/main.cpp **** 	gpioConfigurePin(LED_GPIO, LED_pin_1, GPIO_OUT_PP_2MHz);
 416              		.loc 3 163 0
 417 001c 0948     		ldr	r0, .L27	@,
 418 001e 0721     		movs	r1, #7	@,
 419 0020 40F20112 		movw	r2, #257	@,
 420 0024 FFF7FEFF 		bl	_Z16gpioConfigurePinP12GPIO_TypeDef7GpioPin17GpioConfiguration	@
 164:configuration/main.cpp **** 	LED1_bb = 1;
 421              		.loc 3 164 0
 422 0028 084B     		ldr	r3, .L27+8	@ D.8032,
 423 002a 0122     		movs	r2, #1	@ tmp117,
 424 002c 1A60     		str	r2, [r3]	@ tmp117, *_3
 165:configuration/main.cpp **** 
 166:configuration/main.cpp **** 	// LCD Initialise
 167:configuration/main.cpp **** 	LCD_Init();
 425              		.loc 3 167 0
 426 002e FFF7FEFF 		bl	_Z8LCD_Initv	@
 168:configuration/main.cpp **** 
 169:configuration/main.cpp **** 	// Write on LCD "Ubirds"
 170:configuration/main.cpp **** 	LCD_WriteChar_example();
 427              		.loc 3 170 0
 428 0032 FFF7FEFF 		bl	_Z21LCD_WriteChar_examplev	@
 429              	.L25:
 171:configuration/main.cpp **** 
 172:configuration/main.cpp **** 	out:
 173:configuration/main.cpp **** 		return error;
 430              		.loc 3 173 0
 431 0036 FB79     		ldrb	r3, [r7, #7]	@ zero_extendqisi2	@ D.8033, error
 432 0038 5BB2     		sxtb	r3, r3	@ tmp119, D.8033
 433              	.LBE5:
 174:configuration/main.cpp **** }
 434              		.loc 3 174 0
 435 003a 1846     		mov	r0, r3	@, <retval>
 436 003c 0837     		adds	r7, r7, #8	@,,
 437 003e BD46     		mov	sp, r7	@,
 438              		@ sp needed	@
 439 0040 80BD     		pop	{r7, pc}	@
 440              	.L28:
 441 0042 00BF     		.align	2
 442              	.L27:
 443 0044 00040240 		.word	1073873920
 444 0048 98824042 		.word	1111523992
 445 004c 9C824042 		.word	1111523996
 446              		.cfi_endproc
 447              	.LFE60:
 448              		.size	_ZL14_peripLauncherv, .-_ZL14_peripLauncherv
 449              		.section	.text._ZL14_heartbeatTaskPv,"ax",%progbits
 450              		.align	2
 451              		.thumb
 452              		.thumb_func
 453              		.type	_ZL14_heartbeatTaskPv, %function
 454              	_ZL14_heartbeatTaskPv:
 455              	.LFB61:
 175:configuration/main.cpp **** 
 176:configuration/main.cpp **** 
 177:configuration/main.cpp **** /*-------------------------------------------------------------------------------------------------
ARM GAS  C:\Users\Adrian\AppData\Local\Temp\ccGJSvBN.s 			page 31


 178:configuration/main.cpp **** | System Tasks
 179:configuration/main.cpp **** +--------------------------------------------------------------------------------------------------
 180:configuration/main.cpp **** 
 181:configuration/main.cpp **** 
 182:configuration/main.cpp **** /**
 183:configuration/main.cpp ****  * \brief Heartbeat task that read measured data from slaves
 184:configuration/main.cpp ****  *
 185:configuration/main.cpp ****  * This is a main task in this device
 186:configuration/main.cpp ****  */
 187:configuration/main.cpp **** 
 188:configuration/main.cpp **** static void _heartbeatTask(void *parameters)
 189:configuration/main.cpp **** {
 456              		.loc 3 189 0
 457              		.cfi_startproc
 458              		@ args = 0, pretend = 0, frame = 16
 459              		@ frame_needed = 1, uses_anonymous_args = 0
 460 0000 80B5     		push	{r7, lr}	@
 461              		.cfi_def_cfa_offset 8
 462              		.cfi_offset 7, -8
 463              		.cfi_offset 14, -4
 464 0002 84B0     		sub	sp, sp, #16	@,,
 465              		.cfi_def_cfa_offset 24
 466 0004 00AF     		add	r7, sp, #0	@,,
 467              		.cfi_def_cfa_register 7
 468 0006 7860     		str	r0, [r7, #4]	@ parameters, parameters
 469              	.LBB6:
 190:configuration/main.cpp **** 	(void)parameters;						// suppress warning
 191:configuration/main.cpp **** 
 192:configuration/main.cpp **** 	portTickType xLastHeartBeat;
 193:configuration/main.cpp **** 
 194:configuration/main.cpp **** 	Error error = ERROR_NONE;
 470              		.loc 3 194 0
 471 0008 0023     		movs	r3, #0	@ tmp115,
 472 000a FB73     		strb	r3, [r7, #15]	@ tmp116, error
 195:configuration/main.cpp **** 
 196:configuration/main.cpp **** 	xLastHeartBeat = xTaskGetTickCount();
 473              		.loc 3 196 0
 474 000c FFF7FEFF 		bl	xTaskGetTickCount	@
 475 0010 0346     		mov	r3, r0	@ xLastHeartBeat.2,
 476 0012 BB60     		str	r3, [r7, #8]	@ xLastHeartBeat.2, xLastHeartBeat
 477              	.L30:
 197:configuration/main.cpp **** 
 198:configuration/main.cpp **** 	for(;;) {
 199:configuration/main.cpp **** 
 200:configuration/main.cpp **** 		vTaskDelayUntil(&xLastHeartBeat, 250 / portTICK_RATE_MS);
 478              		.loc 3 200 0 discriminator 1
 479 0014 07F10803 		add	r3, r7, #8	@ tmp117,,
 480 0018 1846     		mov	r0, r3	@, tmp117
 481 001a FA21     		movs	r1, #250	@,
 482 001c FFF7FEFF 		bl	vTaskDelayUntil	@
 201:configuration/main.cpp **** 
 202:configuration/main.cpp **** 		LED_bb ^= 1;
 483              		.loc 3 202 0 discriminator 1
 484 0020 034B     		ldr	r3, .L31	@ D.8034,
 485 0022 034A     		ldr	r2, .L31	@ D.8034,
 486 0024 1268     		ldr	r2, [r2]	@ D.8035, *_4
 487 0026 82F00102 		eor	r2, r2, #1	@ D.8035, D.8035,
ARM GAS  C:\Users\Adrian\AppData\Local\Temp\ccGJSvBN.s 			page 32


 488 002a 1A60     		str	r2, [r3]	@ D.8035, *_3
 203:configuration/main.cpp **** 
 204:configuration/main.cpp **** 	}
 489              		.loc 3 204 0 discriminator 1
 490 002c F2E7     		b	.L30	@
 491              	.L32:
 492 002e 00BF     		.align	2
 493              	.L31:
 494 0030 98824042 		.word	1111523992
 495              	.LBE6:
 496              		.cfi_endproc
 497              	.LFE61:
 498              		.size	_ZL14_heartbeatTaskPv, .-_ZL14_heartbeatTaskPv
 499              		.section	.text._ZL23_initializeGuardianTaskv,"ax",%progbits
 500              		.align	2
 501              		.thumb
 502              		.thumb_func
 503              		.type	_ZL23_initializeGuardianTaskv, %function
 504              	_ZL23_initializeGuardianTaskv:
 505              	.LFB62:
 205:configuration/main.cpp **** 
 206:configuration/main.cpp **** }
 207:configuration/main.cpp **** 
 208:configuration/main.cpp **** 
 209:configuration/main.cpp **** /**
 210:configuration/main.cpp ****  * \brief Initialization of guardian task - setup GPIO, create task.
 211:configuration/main.cpp ****  *
 212:configuration/main.cpp ****  * Initialization of Interrupt case PA0 is pulled up
 213:configuration/main.cpp ****  *
 214:configuration/main.cpp ****  * \return ERROR_NONE if the task was successfully created and added to a ready list, otherwise an 
 215:configuration/main.cpp ****  * the file error.h
 216:configuration/main.cpp ****  */
 217:configuration/main.cpp **** 
 218:configuration/main.cpp **** static enum Error _initializeGuardianTask(void)
 219:configuration/main.cpp **** {
 506              		.loc 3 219 0
 507              		.cfi_startproc
 508              		@ args = 0, pretend = 0, frame = 0
 509              		@ frame_needed = 1, uses_anonymous_args = 0
 510 0000 80B5     		push	{r7, lr}	@
 511              		.cfi_def_cfa_offset 8
 512              		.cfi_offset 7, -8
 513              		.cfi_offset 14, -4
 514 0002 00AF     		add	r7, sp, #0	@,,
 515              		.cfi_def_cfa_register 7
 220:configuration/main.cpp **** 	gpioConfigurePin(LED_GPIO, LED_pin, GPIO_OUT_PP_2MHz);
 516              		.loc 3 220 0
 517 0004 1648     		ldr	r0, .L35	@,
 518 0006 0621     		movs	r1, #6	@,
 519 0008 40F20112 		movw	r2, #257	@,
 520 000c FFF7FEFF 		bl	_Z16gpioConfigurePinP12GPIO_TypeDef7GpioPin17GpioConfiguration	@
 221:configuration/main.cpp **** 
 222:configuration/main.cpp **** 	gpioConfigurePin(ACC_INT_GPIO, ACC_INT_PIN, ACC_INT_CONFIGURATION);
 521              		.loc 3 222 0
 522 0010 1448     		ldr	r0, .L35+4	@,
 523 0012 0021     		movs	r1, #0	@,
 524 0014 4FF40052 		mov	r2, #8192	@,
ARM GAS  C:\Users\Adrian\AppData\Local\Temp\ccGJSvBN.s 			page 33


 525 0018 FFF7FEFF 		bl	_Z16gpioConfigurePinP12GPIO_TypeDef7GpioPin17GpioConfiguration	@
 223:configuration/main.cpp **** 
 224:configuration/main.cpp **** 	//setting interupt for PA0;
 225:configuration/main.cpp **** 	EXTI->IMR|=EXTI_EMR_MR0;
 526              		.loc 3 225 0
 527 001c 124B     		ldr	r3, .L35+8	@ D.8036,
 528 001e 124A     		ldr	r2, .L35+8	@ D.8036,
 529 0020 1268     		ldr	r2, [r2]	@ D.8037, _2->IMR
 530 0022 42F00102 		orr	r2, r2, #1	@ D.8037, D.8037,
 531 0026 1A60     		str	r2, [r3]	@ D.8037, _1->IMR
 226:configuration/main.cpp **** 	EXTI->RTSR|=EXTI_RTSR_TR0;
 532              		.loc 3 226 0
 533 0028 0F4B     		ldr	r3, .L35+8	@ D.8036,
 534 002a 0F4A     		ldr	r2, .L35+8	@ D.8036,
 535 002c 9268     		ldr	r2, [r2, #8]	@ D.8037, _6->RTSR
 536 002e 42F00102 		orr	r2, r2, #1	@ D.8037, D.8037,
 537 0032 9A60     		str	r2, [r3, #8]	@ D.8037, _5->RTSR
 227:configuration/main.cpp **** 	EXTI->FTSR&= ~(EXTI_FTSR_TR0);
 538              		.loc 3 227 0
 539 0034 0C4B     		ldr	r3, .L35+8	@ D.8036,
 540 0036 0C4A     		ldr	r2, .L35+8	@ D.8036,
 541 0038 D268     		ldr	r2, [r2, #12]	@ D.8037, _10->FTSR
 542 003a 22F00102 		bic	r2, r2, #1	@ D.8037, D.8037,
 543 003e DA60     		str	r2, [r3, #12]	@ D.8037, _9->FTSR
 228:configuration/main.cpp **** 
 229:configuration/main.cpp **** 	//enabling interupt
 230:configuration/main.cpp **** 	RCC->APB2ENR|=RCC_APB2ENR_SYSCFGEN;
 544              		.loc 3 230 0
 545 0040 0A4B     		ldr	r3, .L35+12	@ D.8038,
 546 0042 0A4A     		ldr	r2, .L35+12	@ D.8038,
 547 0044 126A     		ldr	r2, [r2, #32]	@ D.8037, _14->APB2ENR
 548 0046 42F00102 		orr	r2, r2, #1	@ D.8037, D.8037,
 549 004a 1A62     		str	r2, [r3, #32]	@ D.8037, _13->APB2ENR
 231:configuration/main.cpp **** 	SYSCFG->EXTICR[0]=SYSCFG_EXTICR1_EXTI0_PA;
 550              		.loc 3 231 0
 551 004c 084B     		ldr	r3, .L35+16	@ D.8039,
 552 004e 0022     		movs	r2, #0	@ tmp129,
 553 0050 9A60     		str	r2, [r3, #8]	@ tmp129, _17->EXTICR
 232:configuration/main.cpp **** 	NVIC_EnableIRQ(EXTI0_IRQn);
 554              		.loc 3 232 0
 555 0052 0620     		movs	r0, #6	@,
 556 0054 FFF7FEFF 		bl	NVIC_EnableIRQ	@
 233:configuration/main.cpp **** 
 234:configuration/main.cpp **** 	return ERROR_NONE;
 557              		.loc 3 234 0
 558 0058 0023     		movs	r3, #0	@ D.8040,
 559 005a 5BB2     		sxtb	r3, r3	@ tmp131, D.8040
 235:configuration/main.cpp **** }
 560              		.loc 3 235 0
 561 005c 1846     		mov	r0, r3	@, <retval>
 562 005e 80BD     		pop	{r7, pc}	@
 563              	.L36:
 564              		.align	2
 565              	.L35:
 566 0060 00040240 		.word	1073873920
 567 0064 00000240 		.word	1073872896
 568 0068 00040140 		.word	1073808384
ARM GAS  C:\Users\Adrian\AppData\Local\Temp\ccGJSvBN.s 			page 34


 569 006c 00380240 		.word	1073887232
 570 0070 00000140 		.word	1073807360
 571              		.cfi_endproc
 572              	.LFE62:
 573              		.size	_ZL23_initializeGuardianTaskv, .-_ZL23_initializeGuardianTaskv
 574              		.section	.rodata
 575 0067 00       		.align	2
 576              	.LC4:
 577 0068 68656172 		.ascii	"heartbeat\000"
 577      74626561 
 577      7400
 578 0072 0000     		.section	.text._ZL24_initializeHeartbeatTaskv,"ax",%progbits
 579              		.align	2
 580              		.thumb
 581              		.thumb_func
 582              		.type	_ZL24_initializeHeartbeatTaskv, %function
 583              	_ZL24_initializeHeartbeatTaskv:
 584              	.LFB63:
 236:configuration/main.cpp **** 
 237:configuration/main.cpp **** /**
 238:configuration/main.cpp ****  * \brief Initialization of heartbeat task - setup GPIO, create task.
 239:configuration/main.cpp ****  *
 240:configuration/main.cpp ****  * Initialization of heartbeat task - setup GPIO, create task.
 241:configuration/main.cpp ****  *
 242:configuration/main.cpp ****  * \return ERROR_NONE if the task was successfully created and added to a ready list, otherwise an 
 243:configuration/main.cpp ****  * the file error.h
 244:configuration/main.cpp ****  */
 245:configuration/main.cpp **** 
 246:configuration/main.cpp **** static enum Error _initializeHeartbeatTask(void)
 247:configuration/main.cpp **** {
 585              		.loc 3 247 0
 586              		.cfi_startproc
 587              		@ args = 0, pretend = 0, frame = 8
 588              		@ frame_needed = 1, uses_anonymous_args = 0
 589 0000 80B5     		push	{r7, lr}	@
 590              		.cfi_def_cfa_offset 8
 591              		.cfi_offset 7, -8
 592              		.cfi_offset 14, -4
 593 0002 86B0     		sub	sp, sp, #24	@,,
 594              		.cfi_def_cfa_offset 32
 595 0004 04AF     		add	r7, sp, #16	@,,
 596              		.cfi_def_cfa 7, 16
 597              	.LBB7:
 248:configuration/main.cpp **** 	gpioConfigurePin(LED_GPIO, LED_pin, GPIO_OUT_PP_2MHz);
 598              		.loc 3 248 0
 599 0006 0E48     		ldr	r0, .L39	@,
 600 0008 0621     		movs	r1, #6	@,
 601 000a 40F20112 		movw	r2, #257	@,
 602 000e FFF7FEFF 		bl	_Z16gpioConfigurePinP12GPIO_TypeDef7GpioPin17GpioConfiguration	@
 249:configuration/main.cpp **** 
 250:configuration/main.cpp **** 	portBASE_TYPE ret = xTaskCreate(_heartbeatTask, (signed char*)"heartbeat", HEARTBEAT_STACK_SIZE, N
 603              		.loc 3 250 0
 604 0012 0023     		movs	r3, #0	@ tmp112,
 605 0014 0093     		str	r3, [sp]	@ tmp112,
 606 0016 0023     		movs	r3, #0	@ tmp113,
 607 0018 0193     		str	r3, [sp, #4]	@ tmp113,
 608 001a 0023     		movs	r3, #0	@ tmp114,
ARM GAS  C:\Users\Adrian\AppData\Local\Temp\ccGJSvBN.s 			page 35


 609 001c 0293     		str	r3, [sp, #8]	@ tmp114,
 610 001e 0023     		movs	r3, #0	@ tmp115,
 611 0020 0393     		str	r3, [sp, #12]	@ tmp115,
 612 0022 0848     		ldr	r0, .L39+4	@,
 613 0024 0849     		ldr	r1, .L39+8	@,
 614 0026 4022     		movs	r2, #64	@,
 615 0028 0023     		movs	r3, #0	@,
 616 002a FFF7FEFF 		bl	xTaskGenericCreate	@
 617 002e 7860     		str	r0, [r7, #4]	@, ret
 251:configuration/main.cpp **** 			HEARTBEAT_TASK_PRIORITY, NULL);
 252:configuration/main.cpp **** 
 253:configuration/main.cpp **** 	return errorConvert_portBASE_TYPE(ret);
 618              		.loc 3 253 0
 619 0030 7868     		ldr	r0, [r7, #4]	@, ret
 620 0032 FFF7FEFF 		bl	_ZL26errorConvert_portBASE_TYPEl	@
 621 0036 0346     		mov	r3, r0	@ tmp116,
 622              	.LBE7:
 254:configuration/main.cpp **** }
 623              		.loc 3 254 0
 624 0038 1846     		mov	r0, r3	@, <retval>
 625 003a 0837     		adds	r7, r7, #8	@,,
 626 003c BD46     		mov	sp, r7	@,
 627              		@ sp needed	@
 628 003e 80BD     		pop	{r7, pc}	@
 629              	.L40:
 630              		.align	2
 631              	.L39:
 632 0040 00040240 		.word	1073873920
 633 0044 00000000 		.word	_ZL14_heartbeatTaskPv
 634 0048 68000000 		.word	.LC4
 635              		.cfi_endproc
 636              	.LFE63:
 637              		.size	_ZL24_initializeHeartbeatTaskv, .-_ZL24_initializeHeartbeatTaskv
 638              		.section	.text.EXTI0_IRQHandler,"ax",%progbits
 639              		.align	2
 640              		.global	EXTI0_IRQHandler
 641              		.thumb
 642              		.thumb_func
 643              		.type	EXTI0_IRQHandler, %function
 644              	EXTI0_IRQHandler:
 645              	.LFB64:
 255:configuration/main.cpp **** 
 256:configuration/main.cpp **** extern "C" void EXTI0_IRQHandler(void) __attribute((interrupt));
 257:configuration/main.cpp **** void EXTI0_IRQHandler(void)
 258:configuration/main.cpp **** {
 646              		.loc 3 258 0
 647              		.cfi_startproc
 648              		@ Stack Align: May be called with mis-aligned SP.
 649              		@ args = 0, pretend = 0, frame = 0
 650              		@ frame_needed = 1, uses_anonymous_args = 0
 651              		@ link register save eliminated.
 652 0000 6846     		mov	r0, sp	@,
 653              		.cfi_register 13, 0
 654 0002 20F00701 		bic	r1, r0, #7	@,,
 655 0006 8D46     		mov	sp, r1	@,
 656 0008 81B4     		push	{r0, r7}	@
 657              		.cfi_def_cfa_offset 8
ARM GAS  C:\Users\Adrian\AppData\Local\Temp\ccGJSvBN.s 			page 36


 658              		.cfi_offset 13, -8
 659              		.cfi_offset 7, -4
 660 000a 00AF     		add	r7, sp, #0	@,,
 661              		.cfi_def_cfa_register 7
 259:configuration/main.cpp **** 	//Do something
 260:configuration/main.cpp **** 
 261:configuration/main.cpp **** 	//Clear flags
 262:configuration/main.cpp **** 	EXTI->PR=EXTI_PR_PR0;
 662              		.loc 3 262 0
 663 000c 034B     		ldr	r3, .L42	@ D.8043,
 664 000e 0122     		movs	r2, #1	@ tmp111,
 665 0010 5A61     		str	r2, [r3, #20]	@ tmp111, _1->PR
 263:configuration/main.cpp **** }
 666              		.loc 3 263 0
 667 0012 BD46     		mov	sp, r7	@,
 668              		@ sp needed	@
 669 0014 81BC     		pop	{r0, r7}	@
 670 0016 8546     		mov	sp, r0	@,
 671 0018 7047     		bx	lr	@
 672              	.L43:
 673 001a 00BF     		.align	2
 674              	.L42:
 675 001c 00040140 		.word	1073808384
 676              		.cfi_endproc
 677              	.LFE64:
 678              		.size	EXTI0_IRQHandler, .-EXTI0_IRQHandler
 679              		.text
 680              	.Letext0:
 681              		.file 4 "d:\\programy\\gnu tools arm embedded\\4.8 2014q2\\arm-none-eabi\\include\\machine\\_defau
 682              		.file 5 "d:\\programy\\gnu tools arm embedded\\4.8 2014q2\\arm-none-eabi\\include\\stdint.h"
 683              		.file 6 "inc/stm32l1xx.h"
 684              		.file 7 "peripherals/rcc.h"
 685              		.file 8 "FreeRTOS/portable/GCC/ARM_CM3/portmacro.h"
 686              		.file 9 "FatFS/integer.h"
 687              		.file 10 "FreeRTOS/include/queue.h"
 688              		.file 11 "FreeRTOS/include/semphr.h"
 689              		.file 12 "FatFS/ff.h"
 690              		.file 13 "peripherals/gpio.h"
 691              		.file 14 "d:\\programy\\gnu tools arm embedded\\4.8 2014q2\\arm-none-eabi\\include\\c++\\4.8.4\\cs
 692              		.file 15 "<built-in>"