ARM GAS  /tmp/ccx2XJRZ.s 			page 1


   1              		.syntax unified
   2              		.cpu cortex-m3
   3              		.fpu softvfp
   4              		.eabi_attribute 20, 1	@ Tag_ABI_FP_denormal
   5              		.eabi_attribute 21, 1	@ Tag_ABI_FP_exceptions
   6              		.eabi_attribute 23, 3	@ Tag_ABI_FP_number_model
   7              		.eabi_attribute 24, 1	@ Tag_ABI_align8_needed
   8              		.eabi_attribute 25, 1	@ Tag_ABI_align8_preserved
   9              		.eabi_attribute 26, 1	@ Tag_ABI_enum_size
  10              		.eabi_attribute 30, 4	@ Tag_ABI_optimization_goals
  11              		.eabi_attribute 34, 1	@ Tag_CPU_unaligned_access
  12              		.eabi_attribute 18, 4	@ Tag_ABI_PCS_wchar_t
  13              		.file	"mmc.cpp"
  14              	@ GNU C++ (GNU Tools for ARM Embedded Processors) version 4.7.3 20130312 (release) [ARM/embedded-4_
  15              	@	compiled by GNU C version 4.3.6, GMP version 4.3.2, MPFR version 2.4.2, MPC version 0.8.1
  16              	@ GGC heuristics: --param ggc-min-expand=100 --param ggc-min-heapsize=131072
  17              	@ options passed:  -I . -I inc -I FreeRTOS/include
  18              	@ -I FreeRTOS/portable/GCC/ARM_CM3 -I FatFS -I peripherals
  19              	@ -imultilib armv7-m
  20              	@ -iprefix /home/maciek/gcc-arm-none-eabi/gcc-arm-none-eabi-4_7-2013q1/bin/../lib/gcc/arm-none-eabi
  21              	@ -isysroot /home/maciek/gcc-arm-none-eabi/gcc-arm-none-eabi-4_7-2013q1/bin/../arm-none-eabi
  22              	@ -MD out/mmc.d -MF out/mmc.d -MP -MQ out/mmc.o -D__USES_INITFINI__
  23              	@ -D STM32L1XX_MD FatFS/mmc.cpp -mcpu=cortex-m3 -mthumb
  24              	@ -auxbase-strip out/mmc.o -g -ggdb3 -Os -Wall -Wextra -std=gnu++11
  25              	@ -ffunction-sections -fdata-sections -fno-rtti -fno-exceptions
  26              	@ -fverbose-asm
  27              	@ options enabled:  -fauto-inc-dec -fbranch-count-reg -fcaller-saves
  28              	@ -fcombine-stack-adjustments -fcommon -fcompare-elim -fcprop-registers
  29              	@ -fcrossjumping -fcse-follow-jumps -fdata-sections -fdebug-types-section
  30              	@ -fdefer-pop -fdelete-null-pointer-checks -fdevirtualize -fdwarf2-cfi-asm
  31              	@ -fearly-inlining -feliminate-unused-debug-types -fexpensive-optimizations
  32              	@ -fforward-propagate -ffunction-cse -ffunction-sections -fgcse -fgcse-lm
  33              	@ -fgnu-runtime -fguess-branch-probability -fident -fif-conversion
  34              	@ -fif-conversion2 -findirect-inlining -finline -finline-atomics
  35              	@ -finline-functions -finline-functions-called-once
  36              	@ -finline-small-functions -fipa-cp -fipa-profile -fipa-pure-const
  37              	@ -fipa-reference -fipa-sra -fira-share-save-slots -fira-share-spill-slots
  38              	@ -fivopts -fkeep-static-consts -fleading-underscore -fmath-errno
  39              	@ -fmerge-constants -fmerge-debug-strings -fomit-frame-pointer
  40              	@ -foptimize-register-move -foptimize-sibling-calls -fpartial-inlining
  41              	@ -fpeephole -fpeephole2 -fprefetch-loop-arrays -freg-struct-return
  42              	@ -fregmove -frename-registers -freorder-blocks -freorder-functions
  43              	@ -frerun-cse-after-loop -fsched-critical-path-heuristic
  44              	@ -fsched-dep-count-heuristic -fsched-group-heuristic -fsched-interblock
  45              	@ -fsched-last-insn-heuristic -fsched-rank-heuristic -fsched-spec
  46              	@ -fsched-spec-insn-heuristic -fsched-stalled-insns-dep -fschedule-insns2
  47              	@ -fsection-anchors -fshow-column -fshrink-wrap -fsigned-zeros
  48              	@ -fsplit-ivs-in-unroller -fsplit-wide-types -fstrict-aliasing
  49              	@ -fstrict-overflow -fstrict-volatile-bitfields -fthread-jumps
  50              	@ -ftoplevel-reorder -ftrapping-math -ftree-bit-ccp -ftree-builtin-call-dce
  51              	@ -ftree-ccp -ftree-ch -ftree-copy-prop -ftree-copyrename -ftree-cselim
  52              	@ -ftree-dce -ftree-dominator-opts -ftree-dse -ftree-forwprop -ftree-fre
  53              	@ -ftree-loop-if-convert -ftree-loop-im -ftree-loop-ivcanon
  54              	@ -ftree-loop-optimize -ftree-parallelize-loops= -ftree-phiprop -ftree-pre
  55              	@ -ftree-pta -ftree-reassoc -ftree-scev-cprop -ftree-sink
  56              	@ -ftree-slp-vectorize -ftree-sra -ftree-switch-conversion
  57              	@ -ftree-tail-merge -ftree-ter -ftree-vect-loop-version -ftree-vrp
ARM GAS  /tmp/ccx2XJRZ.s 			page 2


  58              	@ -funit-at-a-time -funroll-loops -fvar-tracking -fvar-tracking-assignments
  59              	@ -fverbose-asm -fweb -fzero-initialized-in-bss -mfix-cortex-m3-ldrd
  60              	@ -mlittle-endian -msched-prolog -mthumb -munaligned-access
  61              	@ -mvectorize-with-neon-quad
  62              	
  63              		.text
  64              	.Ltext0:
  65              		.cfi_sections	.debug_frame
  66              		.section	.text._ZL15prvDeselectCardv,"ax",%progbits
  67              		.align	1
  68              		.thumb
  69              		.thumb_func
  70              		.type	_ZL15prvDeselectCardv, %function
  71              	_ZL15prvDeselectCardv:
  72              	.LFB63:
  73              		.file 1 "FatFS/mmc.cpp"
   1:FatFS/mmc.cpp **** /*-------------------------------------------------------------------------------------------------
   2:FatFS/mmc.cpp ****  Original MMCv3/SDv1/SDv2 (in SPI mode) control module  (C)ChaN, 2007
   3:FatFS/mmc.cpp ****  FreeRTOS+IO version by Real Time Engineers ltd (http://www.FreeRTOS.org)
   4:FatFS/mmc.cpp ****  Heavily modified by Freddie Chopin, http://www.freddiechopin.info http://www.distortec.com
   5:FatFS/mmc.cpp **** 
   6:FatFS/mmc.cpp ****  Note:  While this file has been reworked as a demonstration of how to use
   7:FatFS/mmc.cpp ****  FreeRTOS+IO, it does *not* fully comply with the FreeRTOS coding standard.
   8:FatFS/mmc.cpp **** ---------------------------------------------------------------------------------------------------
   9:FatFS/mmc.cpp **** 
  10:FatFS/mmc.cpp **** #include <stdbool.h>
  11:FatFS/mmc.cpp **** 
  12:FatFS/mmc.cpp **** #include "diskio.h"
  13:FatFS/mmc.cpp **** #include "ff.h"
  14:FatFS/mmc.cpp **** 
  15:FatFS/mmc.cpp **** /* FreeRTOS includes. */
  16:FatFS/mmc.cpp **** #include "FreeRTOS.h"
  17:FatFS/mmc.cpp **** #include "task.h"
  18:FatFS/mmc.cpp **** 
  19:FatFS/mmc.cpp **** #include "config.h"
  20:FatFS/mmc.cpp **** 
  21:FatFS/mmc.cpp **** #include "gpio.h"
  22:FatFS/mmc.cpp **** #include "spi.h"
  23:FatFS/mmc.cpp **** 
  24:FatFS/mmc.cpp **** /* Place holder for calls to ioctl that don't use the value parameter. */
  25:FatFS/mmc.cpp **** #define mmcPARAMETER_NOT_USED			( ( void * ) 0 )
  26:FatFS/mmc.cpp **** 
  27:FatFS/mmc.cpp **** /* Clock speed to use before the card type is determined. */
  28:FatFS/mmc.cpp **** #define mmcSD_INTERFACE_SLOW_CLOCK		100000UL
  29:FatFS/mmc.cpp **** 
  30:FatFS/mmc.cpp **** /* Clock speed to use after the card type has been determined. */
  31:FatFS/mmc.cpp **** #define mmcSD_INTERFACE_FAST_CLOCK		10000000UL
  32:FatFS/mmc.cpp **** 
  33:FatFS/mmc.cpp **** /* Misc constants required by the MMC SPI protocol. */
  34:FatFS/mmc.cpp **** #define mmc80_CLOCKS_IN_BYTES			( 10 )
  35:FatFS/mmc.cpp **** #define mmcCOMMAND_LENGTH_BYTES			6
  36:FatFS/mmc.cpp **** #define mmcOCR_LENGTH					4
  37:FatFS/mmc.cpp **** #define mmcMAX_QUERY_STRING_BYTES		16
  38:FatFS/mmc.cpp **** #define mmcSECTOR_SIZE					512
  39:FatFS/mmc.cpp **** #define mmcDATA_BLOCK_SIZE				mmcSECTOR_SIZE
  40:FatFS/mmc.cpp **** 
  41:FatFS/mmc.cpp **** /* Definitions for MMC/SDC command */
ARM GAS  /tmp/ccx2XJRZ.s 			page 3


  42:FatFS/mmc.cpp **** #define mmcCMD0_SOFTWARE_RESET				( 0x40+0 )	/* GO_IDLE_STATE */
  43:FatFS/mmc.cpp **** #define mmcCMD1_START_INITIALISE_MMC		( 0x40+1 )	/* SEND_OP_COND (MMC) */
  44:FatFS/mmc.cpp **** #define	mmcACMD41_START_INIT_SDC			( 0xC0+41 )	/* SEND_OP_COND (SDC) */
  45:FatFS/mmc.cpp **** #define mmcCMD8_CHECK_VOLTAGE_RANGE			( 0x40+8 )	/* SEND_IF_COND */
  46:FatFS/mmc.cpp **** #define mmcCMD9_READ_CSD_REGISTER			( 0x40+9 )	/* SEND_CSD */
  47:FatFS/mmc.cpp **** #define mmcCMD10_READ_CID_REGISTER			( 0x40+10 )	/* SEND_CID */
  48:FatFS/mmc.cpp **** #define mmcCMD12_STOP						( 0x40+12 )	/* STOP_TRANSMISSION */
  49:FatFS/mmc.cpp **** #define mmcACMD13_READ_SD_STATUS			( 0xC0+13 )	/* SD_STATUS (SDC) */
  50:FatFS/mmc.cpp **** #define mmcCMD16_CHANGE_RW_BLOCK_SIZE		( 0x40+16 )	/* SET_BLOCKLEN */
  51:FatFS/mmc.cpp **** #define mmcCMD17_READ_SINGLE_BLOCK			( 0x40+17 )	/* READ_SINGLE_BLOCK */
  52:FatFS/mmc.cpp **** #define mmcCMD18_READ_MULTI_BLOCK			( 0x40+18 )	/* READ_MULTIPLE_BLOCK */
  53:FatFS/mmc.cpp **** #define mmcCMD23_SET_BLOCK_COUNT			( 0x40+23 )	/* SET_BLOCK_COUNT (MMC) */
  54:FatFS/mmc.cpp **** #define	mmcACMD23_SET_ERASE_COUNT			( 0xC0+23 )	/* SET_WR_BLK_ERASE_COUNT (SDC) */
  55:FatFS/mmc.cpp **** #define mmcCMD24_WRITE_SINGLE_BLOCK			( 0x40+24 )	/* WRITE_BLOCK */
  56:FatFS/mmc.cpp **** #define mmcCMD25_WRITE_MULTI_BLOCK			( 0x40+25 )	/* WRITE_MULTIPLE_BLOCK */
  57:FatFS/mmc.cpp **** #define mmcCMD55_LEADING_COMMAND_OF_ACMD	( 0x40+55 )	/* APP_CMD */
  58:FatFS/mmc.cpp **** #define mmcCMD58_READ_OCR					( 0x40+58 )	/* READ_OCR */
  59:FatFS/mmc.cpp **** 
  60:FatFS/mmc.cpp **** /* A block time of 500ms, converted to ticks. */
  61:FatFS/mmc.cpp **** #define mmc500ms		( ( void * ) ( 500UL / portTICK_RATE_MS ) )
  62:FatFS/mmc.cpp **** 
  63:FatFS/mmc.cpp **** /*-----------------------------------------------------------*/
  64:FatFS/mmc.cpp **** 
  65:FatFS/mmc.cpp **** /*
  66:FatFS/mmc.cpp ****  * Send the command cCommand, with argument xArgument (if any) to the card.
  67:FatFS/mmc.cpp ****  */
  68:FatFS/mmc.cpp **** static BYTE prvSendCommand( BYTE cCommand,	DWORD xArgument	);
  69:FatFS/mmc.cpp **** 
  70:FatFS/mmc.cpp **** /*
  71:FatFS/mmc.cpp ****  * Deselect the card and release the SPI bus.
  72:FatFS/mmc.cpp ****  */
  73:FatFS/mmc.cpp **** static void prvDeselectCard( void );
  74:FatFS/mmc.cpp **** 
  75:FatFS/mmc.cpp **** /*
  76:FatFS/mmc.cpp ****  * Wait for the card to be read.
  77:FatFS/mmc.cpp ****  */
  78:FatFS/mmc.cpp **** static BYTE prvWaitForCardReady( void );
  79:FatFS/mmc.cpp **** 
  80:FatFS/mmc.cpp **** /*
  81:FatFS/mmc.cpp ****  * Select the card and wait for it to be ready.
  82:FatFS/mmc.cpp ****  */
  83:FatFS/mmc.cpp **** static bool prvSelectCard( void );
  84:FatFS/mmc.cpp **** 
  85:FatFS/mmc.cpp **** /*
  86:FatFS/mmc.cpp ****  * Receive a data packet from the card in response to a query command.
  87:FatFS/mmc.cpp ****  */
  88:FatFS/mmc.cpp **** static bool prvQueryCard( BYTE ucCommand, DWORD ulCommandArgument, BYTE *pucRxBuffer, UINT uiRxLeng
  89:FatFS/mmc.cpp **** 
  90:FatFS/mmc.cpp **** /*
  91:FatFS/mmc.cpp ****  * Receive a block of data read from the card.
  92:FatFS/mmc.cpp ****  */
  93:FatFS/mmc.cpp **** static bool prvReceiveDataBlock( BYTE *pcBuffer, UINT xBytesToRead );
  94:FatFS/mmc.cpp **** 
  95:FatFS/mmc.cpp **** /*
  96:FatFS/mmc.cpp ****  * Write a block of data to the card.
  97:FatFS/mmc.cpp ****  */
  98:FatFS/mmc.cpp **** static bool prvWriteDataBlock( const BYTE *pcBuffer, BYTE cToken );
ARM GAS  /tmp/ccx2XJRZ.s 			page 4


  99:FatFS/mmc.cpp **** 
 100:FatFS/mmc.cpp **** /*
 101:FatFS/mmc.cpp ****  * Check the card is inserted, and set the STA_NODISK bits in the xDiskStatus
 102:FatFS/mmc.cpp ****  * byte accordingly.  Return pdTRUE if the card is present, and pdFALSE if the
 103:FatFS/mmc.cpp ****  * card is not present.
 104:FatFS/mmc.cpp ****  */
 105:FatFS/mmc.cpp **** static portBASE_TYPE prvIsDiskInserted( void );
 106:FatFS/mmc.cpp **** 
 107:FatFS/mmc.cpp **** /*-----------------------------------------------------------*/
 108:FatFS/mmc.cpp **** 
 109:FatFS/mmc.cpp **** /* Bitwise status for STA_NODISK and STA_NOINIT status of the card. */
 110:FatFS/mmc.cpp **** static volatile DSTATUS xDiskStatus = STA_NOINIT;
 111:FatFS/mmc.cpp **** 
 112:FatFS/mmc.cpp **** /* Stores the card type discovered during the initialisation process. */
 113:FatFS/mmc.cpp **** static BYTE ucInsertedCardType = 0U;
 114:FatFS/mmc.cpp **** 
 115:FatFS/mmc.cpp **** /*-----------------------------------------------------------*/
 116:FatFS/mmc.cpp **** 
 117:FatFS/mmc.cpp **** /*-----------------------------------------------------------------------*/
 118:FatFS/mmc.cpp **** /* Initialize Disk Drive                                                 */
 119:FatFS/mmc.cpp **** /*-----------------------------------------------------------------------*/
 120:FatFS/mmc.cpp **** DSTATUS disk_initialize ( BYTE cDriveNumber )
 121:FatFS/mmc.cpp **** {
 122:FatFS/mmc.cpp **** BYTE cCommand, cCardType;
 123:FatFS/mmc.cpp **** DSTATUS xReturn = 0;
 124:FatFS/mmc.cpp **** BYTE ucBuffer[ mmc80_CLOCKS_IN_BYTES + 1 ];
 125:FatFS/mmc.cpp **** portTickType xTimeAtStart;
 126:FatFS/mmc.cpp **** const portTickType xTimeOut = 1000UL / portTICK_RATE_MS;
 127:FatFS/mmc.cpp **** 
 128:FatFS/mmc.cpp **** 	static bool initialized = false;
 129:FatFS/mmc.cpp **** 
 130:FatFS/mmc.cpp **** 	if (initialized == false)
 131:FatFS/mmc.cpp **** 	{
 132:FatFS/mmc.cpp **** 		gpioConfigurePin(SD_CS_GPIO, SD_CS_PIN, GPIO_OUT_PP_2MHz);
 133:FatFS/mmc.cpp **** 		SD_CS_bb = SD_CS_DEASSERTED;
 134:FatFS/mmc.cpp **** 
 135:FatFS/mmc.cpp **** 		spiInitialize();
 136:FatFS/mmc.cpp **** 
 137:FatFS/mmc.cpp **** 		initialized = true;
 138:FatFS/mmc.cpp **** 	}
 139:FatFS/mmc.cpp **** 
 140:FatFS/mmc.cpp **** 	if( cDriveNumber != 0 )
 141:FatFS/mmc.cpp **** 	{
 142:FatFS/mmc.cpp **** 		/* This driver only supports a single drive. */
 143:FatFS/mmc.cpp **** 		xReturn = STA_NOINIT;
 144:FatFS/mmc.cpp **** 	}
 145:FatFS/mmc.cpp **** 	else if( ( xDiskStatus & STA_NOINIT ) != 0U )
 146:FatFS/mmc.cpp **** 	{
 147:FatFS/mmc.cpp **** 		/* Always start with the slow SPI clock. */
 148:FatFS/mmc.cpp **** 		spiSetBaudRate(mmcSD_INTERFACE_SLOW_CLOCK);
 149:FatFS/mmc.cpp **** 
 150:FatFS/mmc.cpp **** 		/* Wait the obligatory 80 clocks. */
 151:FatFS/mmc.cpp **** 		spiRead(ucBuffer, mmc80_CLOCKS_IN_BYTES);
 152:FatFS/mmc.cpp **** 
 153:FatFS/mmc.cpp **** 		cCardType = 0;
 154:FatFS/mmc.cpp **** 		if( prvSendCommand( mmcCMD0_SOFTWARE_RESET, 0 ) == 1 )
 155:FatFS/mmc.cpp **** 		{
ARM GAS  /tmp/ccx2XJRZ.s 			page 5


 156:FatFS/mmc.cpp **** 			/* Enter Idle state.  Initialization timeout of 1000 msec */
 157:FatFS/mmc.cpp **** 			xTimeAtStart = xTaskGetTickCount();
 158:FatFS/mmc.cpp **** 
 159:FatFS/mmc.cpp **** 			if( prvSendCommand( mmcCMD8_CHECK_VOLTAGE_RANGE, 0x1AA ) == 1 )
 160:FatFS/mmc.cpp **** 			{
 161:FatFS/mmc.cpp **** 				/* SDHC */
 162:FatFS/mmc.cpp **** 				/* Get trailing return value of R7 resp */
 163:FatFS/mmc.cpp **** 				spiRead(ucBuffer, mmcOCR_LENGTH);
 164:FatFS/mmc.cpp **** 
 165:FatFS/mmc.cpp **** 				if( ( ucBuffer[ 2 ] == 0x01 ) && ( ucBuffer[ 3 ] == 0xAA ) )
 166:FatFS/mmc.cpp **** 				{
 167:FatFS/mmc.cpp **** 					/* The card can work at vdd range of 2.7-3.6V */
 168:FatFS/mmc.cpp **** 
 169:FatFS/mmc.cpp **** 					/* Wait for leaving idle state (mmcACMD41_START_INIT_SDC
 170:FatFS/mmc.cpp **** 					with HCS bit) */
 171:FatFS/mmc.cpp **** 					while( ( ( xTaskGetTickCount() - xTimeAtStart ) < xTimeOut ) && ( prvSendCommand( mmcACMD41_ST
 172:FatFS/mmc.cpp **** 					{
 173:FatFS/mmc.cpp **** 						/* Nothing to do here. */
 174:FatFS/mmc.cpp **** 					}
 175:FatFS/mmc.cpp **** 
 176:FatFS/mmc.cpp **** 					if( ( ( xTaskGetTickCount() - xTimeAtStart ) < xTimeOut ) && ( prvSendCommand( mmcCMD58_READ_O
 177:FatFS/mmc.cpp **** 					{
 178:FatFS/mmc.cpp **** 						/* Check CCS bit in the OCR */
 179:FatFS/mmc.cpp **** 						spiRead(ucBuffer, mmcOCR_LENGTH);
 180:FatFS/mmc.cpp **** 
 181:FatFS/mmc.cpp **** 						/* SDv2 */
 182:FatFS/mmc.cpp **** 						if( ( ucBuffer[ 0 ] & 0x40 ) != 0 )
 183:FatFS/mmc.cpp **** 						{
 184:FatFS/mmc.cpp **** 							cCardType = CT_SD2 | CT_BLOCK;
 185:FatFS/mmc.cpp **** 						}
 186:FatFS/mmc.cpp **** 						else
 187:FatFS/mmc.cpp **** 						{
 188:FatFS/mmc.cpp **** 							cCardType = CT_SD2;
 189:FatFS/mmc.cpp **** 						}
 190:FatFS/mmc.cpp **** 					}
 191:FatFS/mmc.cpp **** 				}
 192:FatFS/mmc.cpp **** 			}
 193:FatFS/mmc.cpp **** 			else
 194:FatFS/mmc.cpp **** 			{
 195:FatFS/mmc.cpp **** 				/* SDSC or MMC */
 196:FatFS/mmc.cpp **** 				if( prvSendCommand( mmcACMD41_START_INIT_SDC, 0 ) <= 1 )
 197:FatFS/mmc.cpp **** 				{
 198:FatFS/mmc.cpp **** 					/* SDv1 */
 199:FatFS/mmc.cpp **** 					cCardType = CT_SD1;
 200:FatFS/mmc.cpp **** 					cCommand = mmcACMD41_START_INIT_SDC;
 201:FatFS/mmc.cpp **** 				}
 202:FatFS/mmc.cpp **** 				else
 203:FatFS/mmc.cpp **** 				{
 204:FatFS/mmc.cpp **** 					/* MMCv3 */
 205:FatFS/mmc.cpp **** 					cCardType = CT_MMC;
 206:FatFS/mmc.cpp **** 					cCommand = mmcCMD1_START_INITIALISE_MMC;
 207:FatFS/mmc.cpp **** 				}
 208:FatFS/mmc.cpp **** 
 209:FatFS/mmc.cpp **** 				while( ( ( xTaskGetTickCount() - xTimeAtStart ) < xTimeOut ) && ( prvSendCommand( cCommand, 0 )
 210:FatFS/mmc.cpp **** 				{
 211:FatFS/mmc.cpp **** 					/* Wait for leaving idle state */
 212:FatFS/mmc.cpp **** 				}
ARM GAS  /tmp/ccx2XJRZ.s 			page 6


 213:FatFS/mmc.cpp **** 
 214:FatFS/mmc.cpp **** 				if( ( ( xTaskGetTickCount() - xTimeAtStart ) >= xTimeOut ) || ( prvSendCommand( mmcCMD16_CHANGE
 215:FatFS/mmc.cpp **** 				{
 216:FatFS/mmc.cpp **** 					/* Set R/W block length to mmcSECTOR_SIZE */
 217:FatFS/mmc.cpp **** 					cCardType = 0;
 218:FatFS/mmc.cpp **** 				}
 219:FatFS/mmc.cpp **** 			}
 220:FatFS/mmc.cpp **** 		}
 221:FatFS/mmc.cpp **** 
 222:FatFS/mmc.cpp **** 		ucInsertedCardType = cCardType;
 223:FatFS/mmc.cpp **** 		prvDeselectCard();
 224:FatFS/mmc.cpp **** 
 225:FatFS/mmc.cpp **** 		if( cCardType != 0 )
 226:FatFS/mmc.cpp **** 		{
 227:FatFS/mmc.cpp **** 			/* Initialization succeeded.  Clear STA_NOINIT */
 228:FatFS/mmc.cpp **** 			xDiskStatus &= ~STA_NOINIT;
 229:FatFS/mmc.cpp **** 			spiSetBaudRate(mmcSD_INTERFACE_FAST_CLOCK);
 230:FatFS/mmc.cpp **** 		}
 231:FatFS/mmc.cpp **** 
 232:FatFS/mmc.cpp **** 		xReturn = xDiskStatus;
 233:FatFS/mmc.cpp **** 	}
 234:FatFS/mmc.cpp **** 
 235:FatFS/mmc.cpp **** 	return xReturn;
 236:FatFS/mmc.cpp **** }
 237:FatFS/mmc.cpp **** 
 238:FatFS/mmc.cpp **** /*-----------------------------------------------------------------------*/
 239:FatFS/mmc.cpp **** /* Get Disk Status                                                       */
 240:FatFS/mmc.cpp **** /*-----------------------------------------------------------------------*/
 241:FatFS/mmc.cpp **** DSTATUS disk_status( BYTE cDriveNumber )
 242:FatFS/mmc.cpp **** {
 243:FatFS/mmc.cpp **** DSTATUS xReturn;
 244:FatFS/mmc.cpp **** 
 245:FatFS/mmc.cpp **** 	/* This call will update xDiskStatus. */
 246:FatFS/mmc.cpp **** 	prvIsDiskInserted();
 247:FatFS/mmc.cpp **** 
 248:FatFS/mmc.cpp **** 	if( cDriveNumber != 0 )
 249:FatFS/mmc.cpp **** 	{
 250:FatFS/mmc.cpp **** 		xReturn = STA_NOINIT;
 251:FatFS/mmc.cpp **** 	}
 252:FatFS/mmc.cpp **** 	else
 253:FatFS/mmc.cpp **** 	{
 254:FatFS/mmc.cpp **** 		xReturn = xDiskStatus;
 255:FatFS/mmc.cpp **** 	}
 256:FatFS/mmc.cpp **** 
 257:FatFS/mmc.cpp **** 	return xReturn;
 258:FatFS/mmc.cpp **** }
 259:FatFS/mmc.cpp **** 
 260:FatFS/mmc.cpp **** /*-----------------------------------------------------------------------*/
 261:FatFS/mmc.cpp **** /* Read Sector(s)                                                        */
 262:FatFS/mmc.cpp **** /*-----------------------------------------------------------------------*/
 263:FatFS/mmc.cpp **** DRESULT disk_read
 264:FatFS/mmc.cpp **** 		(
 265:FatFS/mmc.cpp **** 			BYTE	cDriveNumber,	/* Physical drive nmuber (0) */
 266:FatFS/mmc.cpp **** 			BYTE	*pcBuffer,		/* Pointer to the data buffer to store read data */
 267:FatFS/mmc.cpp **** 			DWORD	ulSector, 		/* Start ulSector number (LBA) */
 268:FatFS/mmc.cpp **** 			BYTE	xCount			/* Sector xCount (1..255) */
 269:FatFS/mmc.cpp **** 		)
ARM GAS  /tmp/ccx2XJRZ.s 			page 7


 270:FatFS/mmc.cpp **** {
 271:FatFS/mmc.cpp **** DRESULT xReturn;
 272:FatFS/mmc.cpp **** 
 273:FatFS/mmc.cpp **** 	if( ( cDriveNumber != 0 ) || ( xCount == 0 ) )
 274:FatFS/mmc.cpp **** 	{
 275:FatFS/mmc.cpp **** 		xReturn = RES_PARERR;
 276:FatFS/mmc.cpp **** 	}
 277:FatFS/mmc.cpp **** 	else if( ( ( xDiskStatus & STA_NOINIT ) != 0 ) || ( prvIsDiskInserted() != pdTRUE ) )
 278:FatFS/mmc.cpp **** 	{
 279:FatFS/mmc.cpp **** 		xReturn = RES_NOTRDY;
 280:FatFS/mmc.cpp **** 	}
 281:FatFS/mmc.cpp **** 	else
 282:FatFS/mmc.cpp **** 	{
 283:FatFS/mmc.cpp **** 		if( ( ucInsertedCardType & CT_BLOCK ) == 0U )
 284:FatFS/mmc.cpp **** 		{
 285:FatFS/mmc.cpp **** 			/* Convert to byte address if needed */
 286:FatFS/mmc.cpp **** 			ulSector *= mmcSECTOR_SIZE;
 287:FatFS/mmc.cpp **** 		}
 288:FatFS/mmc.cpp **** 
 289:FatFS/mmc.cpp **** 		if( xCount == 1 )
 290:FatFS/mmc.cpp **** 		{
 291:FatFS/mmc.cpp **** 			/* Single block read */
 292:FatFS/mmc.cpp **** 			if( prvSendCommand( mmcCMD17_READ_SINGLE_BLOCK, ulSector ) == 0 )
 293:FatFS/mmc.cpp **** 			{
 294:FatFS/mmc.cpp **** 				if( prvReceiveDataBlock( pcBuffer, mmcSECTOR_SIZE ) == true )
 295:FatFS/mmc.cpp **** 				{
 296:FatFS/mmc.cpp **** 					xCount = 0;
 297:FatFS/mmc.cpp **** 				}
 298:FatFS/mmc.cpp **** 			}
 299:FatFS/mmc.cpp **** 		}
 300:FatFS/mmc.cpp **** 		else
 301:FatFS/mmc.cpp **** 		{
 302:FatFS/mmc.cpp **** 			/* Multiple block read */
 303:FatFS/mmc.cpp **** 			if( prvSendCommand( mmcCMD18_READ_MULTI_BLOCK, ulSector ) == 0 )
 304:FatFS/mmc.cpp **** 			{
 305:FatFS/mmc.cpp **** 				do
 306:FatFS/mmc.cpp **** 				{
 307:FatFS/mmc.cpp **** 					if( prvReceiveDataBlock( pcBuffer, mmcSECTOR_SIZE ) == false )
 308:FatFS/mmc.cpp **** 					{
 309:FatFS/mmc.cpp **** 						break;
 310:FatFS/mmc.cpp **** 					}
 311:FatFS/mmc.cpp **** 
 312:FatFS/mmc.cpp **** 					pcBuffer += mmcSECTOR_SIZE;
 313:FatFS/mmc.cpp **** 				} while( --xCount );
 314:FatFS/mmc.cpp **** 
 315:FatFS/mmc.cpp **** 				prvSendCommand( mmcCMD12_STOP, 0 );
 316:FatFS/mmc.cpp **** 			}
 317:FatFS/mmc.cpp **** 		}
 318:FatFS/mmc.cpp **** 
 319:FatFS/mmc.cpp **** 		prvDeselectCard();
 320:FatFS/mmc.cpp **** 
 321:FatFS/mmc.cpp **** 		if( xCount > 0 )
 322:FatFS/mmc.cpp **** 		{
 323:FatFS/mmc.cpp **** 			xReturn = RES_ERROR;
 324:FatFS/mmc.cpp **** 		}
 325:FatFS/mmc.cpp **** 		else
 326:FatFS/mmc.cpp **** 		{
ARM GAS  /tmp/ccx2XJRZ.s 			page 8


 327:FatFS/mmc.cpp **** 			xReturn = RES_OK;
 328:FatFS/mmc.cpp **** 		}
 329:FatFS/mmc.cpp **** 	}
 330:FatFS/mmc.cpp **** 
 331:FatFS/mmc.cpp **** 	return xReturn;
 332:FatFS/mmc.cpp **** }
 333:FatFS/mmc.cpp **** 
 334:FatFS/mmc.cpp **** 
 335:FatFS/mmc.cpp **** 
 336:FatFS/mmc.cpp **** /*-----------------------------------------------------------------------*/
 337:FatFS/mmc.cpp **** /* Write Sector(s)                                                       */
 338:FatFS/mmc.cpp **** /*-----------------------------------------------------------------------*/
 339:FatFS/mmc.cpp **** #if _READONLY == 0
 340:FatFS/mmc.cpp **** DRESULT disk_write
 341:FatFS/mmc.cpp **** 		(
 342:FatFS/mmc.cpp **** 			BYTE		cDriveNumber,	/* Physical drive nmuber (0) */
 343:FatFS/mmc.cpp **** 			const BYTE	*pcBuffer,		/* Pointer to the data to be written */
 344:FatFS/mmc.cpp **** 			DWORD		ulSector, 		/* Start ulSector number (LBA) */
 345:FatFS/mmc.cpp **** 			BYTE		xCount			/* Sector xCount (1..255) */
 346:FatFS/mmc.cpp **** 		)
 347:FatFS/mmc.cpp **** {
 348:FatFS/mmc.cpp **** DRESULT xReturn;
 349:FatFS/mmc.cpp **** 
 350:FatFS/mmc.cpp **** 	if( ( cDriveNumber != 0 ) || ( xCount == 0 ) )
 351:FatFS/mmc.cpp **** 	{
 352:FatFS/mmc.cpp **** 		xReturn = RES_PARERR;
 353:FatFS/mmc.cpp **** 	}
 354:FatFS/mmc.cpp **** 	else if( ( ( xDiskStatus & STA_NOINIT ) != 0 ) || ( prvIsDiskInserted() != pdTRUE ) )
 355:FatFS/mmc.cpp **** 	{
 356:FatFS/mmc.cpp **** 		xReturn = RES_NOTRDY;
 357:FatFS/mmc.cpp **** 	}
 358:FatFS/mmc.cpp **** 	else if( ( xDiskStatus & STA_PROTECT ) != 0 )
 359:FatFS/mmc.cpp **** 	{
 360:FatFS/mmc.cpp **** 		xReturn = RES_WRPRT;
 361:FatFS/mmc.cpp **** 	}
 362:FatFS/mmc.cpp **** 	else
 363:FatFS/mmc.cpp **** 	{
 364:FatFS/mmc.cpp **** 		if( ( ucInsertedCardType & CT_BLOCK ) == 0 )
 365:FatFS/mmc.cpp **** 		{
 366:FatFS/mmc.cpp **** 			/* Convert to byte address if needed */
 367:FatFS/mmc.cpp **** 			ulSector *= mmcSECTOR_SIZE;
 368:FatFS/mmc.cpp **** 		}
 369:FatFS/mmc.cpp **** 
 370:FatFS/mmc.cpp **** 		if( xCount == 1 )
 371:FatFS/mmc.cpp **** 		{
 372:FatFS/mmc.cpp **** 			/* Single block write */
 373:FatFS/mmc.cpp **** 			if( prvSendCommand( mmcCMD24_WRITE_SINGLE_BLOCK, ulSector ) == 0 )
 374:FatFS/mmc.cpp **** 			{
 375:FatFS/mmc.cpp **** 				if( prvWriteDataBlock( pcBuffer, 0xFE ) == true )
 376:FatFS/mmc.cpp **** 				{
 377:FatFS/mmc.cpp **** 					xCount = 0;
 378:FatFS/mmc.cpp **** 				}
 379:FatFS/mmc.cpp **** 			}
 380:FatFS/mmc.cpp **** 		}
 381:FatFS/mmc.cpp **** 		else
 382:FatFS/mmc.cpp **** 		{
 383:FatFS/mmc.cpp **** 			/* Multiple block write */
ARM GAS  /tmp/ccx2XJRZ.s 			page 9


 384:FatFS/mmc.cpp **** 			if( ucInsertedCardType & CT_SDC )
 385:FatFS/mmc.cpp **** 			{
 386:FatFS/mmc.cpp **** 				prvSendCommand( mmcACMD23_SET_ERASE_COUNT, xCount );
 387:FatFS/mmc.cpp **** 			}
 388:FatFS/mmc.cpp **** 
 389:FatFS/mmc.cpp **** 			if( prvSendCommand( mmcCMD25_WRITE_MULTI_BLOCK, ulSector ) == 0 )
 390:FatFS/mmc.cpp **** 			{
 391:FatFS/mmc.cpp **** 				do
 392:FatFS/mmc.cpp **** 				{
 393:FatFS/mmc.cpp **** 					if( prvWriteDataBlock( pcBuffer, 0xFC ) != true )
 394:FatFS/mmc.cpp **** 					{
 395:FatFS/mmc.cpp **** 						break;
 396:FatFS/mmc.cpp **** 					}
 397:FatFS/mmc.cpp **** 
 398:FatFS/mmc.cpp **** 					pcBuffer += mmcSECTOR_SIZE;
 399:FatFS/mmc.cpp **** 
 400:FatFS/mmc.cpp **** 				} while( --xCount );
 401:FatFS/mmc.cpp **** 
 402:FatFS/mmc.cpp **** 				if( prvWriteDataBlock( NULL, 0xFD ) != true )
 403:FatFS/mmc.cpp **** 				{
 404:FatFS/mmc.cpp **** 					/* STOP_TRAN token */
 405:FatFS/mmc.cpp **** 					xCount = 1;
 406:FatFS/mmc.cpp **** 				}
 407:FatFS/mmc.cpp **** 			}
 408:FatFS/mmc.cpp **** 		}
 409:FatFS/mmc.cpp **** 
 410:FatFS/mmc.cpp **** 		prvDeselectCard();
 411:FatFS/mmc.cpp **** 
 412:FatFS/mmc.cpp **** 		if( xCount > 0 )
 413:FatFS/mmc.cpp **** 		{
 414:FatFS/mmc.cpp **** 			xReturn = RES_ERROR;
 415:FatFS/mmc.cpp **** 		}
 416:FatFS/mmc.cpp **** 		else
 417:FatFS/mmc.cpp **** 		{
 418:FatFS/mmc.cpp **** 			xReturn = RES_OK;
 419:FatFS/mmc.cpp **** 		}
 420:FatFS/mmc.cpp **** 	}
 421:FatFS/mmc.cpp **** 
 422:FatFS/mmc.cpp **** 	return xReturn;
 423:FatFS/mmc.cpp **** }
 424:FatFS/mmc.cpp **** #endif /* _READONLY == 0 */
 425:FatFS/mmc.cpp **** 
 426:FatFS/mmc.cpp **** 
 427:FatFS/mmc.cpp **** 
 428:FatFS/mmc.cpp **** /*-----------------------------------------------------------------------*/
 429:FatFS/mmc.cpp **** /* Miscellaneous Functions                                               */
 430:FatFS/mmc.cpp **** /*-----------------------------------------------------------------------*/
 431:FatFS/mmc.cpp **** 
 432:FatFS/mmc.cpp **** #if _USE_IOCTL != 0
 433:FatFS/mmc.cpp **** DRESULT disk_ioctl
 434:FatFS/mmc.cpp **** 		(
 435:FatFS/mmc.cpp **** 			BYTE	cDriveNumber,	/* Physical drive nmuber (0) */
 436:FatFS/mmc.cpp **** 			BYTE	cControlCode,	/* Control code */
 437:FatFS/mmc.cpp **** 			void	*pvBuffer		/* Buffer to send/receive control data */
 438:FatFS/mmc.cpp **** 		)
 439:FatFS/mmc.cpp **** {
 440:FatFS/mmc.cpp **** DRESULT xResult = RES_ERROR;
ARM GAS  /tmp/ccx2XJRZ.s 			page 10


 441:FatFS/mmc.cpp **** BYTE	n, pcTempBuffer[ mmcMAX_QUERY_STRING_BYTES ], *pcExternalBuffer = (BYTE*)pvBuffer;
 442:FatFS/mmc.cpp **** WORD	usSize;
 443:FatFS/mmc.cpp **** 
 444:FatFS/mmc.cpp **** 	/* Only one drive is supported. */
 445:FatFS/mmc.cpp **** 	configASSERT( cDriveNumber == 0 );
 446:FatFS/mmc.cpp **** 
 447:FatFS/mmc.cpp **** 	/* Remove compiler warnings when configASSERT() is not defined. */
 448:FatFS/mmc.cpp **** 	( void ) cDriveNumber;
 449:FatFS/mmc.cpp **** 
 450:FatFS/mmc.cpp **** 	if( ( ( xDiskStatus & STA_NOINIT ) != 0 ) || ( prvIsDiskInserted() != pdTRUE ) )
 451:FatFS/mmc.cpp **** 	{
 452:FatFS/mmc.cpp **** 		xResult = RES_NOTRDY;
 453:FatFS/mmc.cpp **** 	}
 454:FatFS/mmc.cpp **** 	else
 455:FatFS/mmc.cpp **** 	{
 456:FatFS/mmc.cpp **** 		switch( cControlCode )
 457:FatFS/mmc.cpp **** 		{
 458:FatFS/mmc.cpp **** 			case CTRL_SYNC:
 459:FatFS/mmc.cpp **** 
 460:FatFS/mmc.cpp **** 				/* Make sure that no pending write process. Do not remove
 461:FatFS/mmc.cpp **** 				this or written ulSector might not left updated. */
 462:FatFS/mmc.cpp **** 				if( prvSelectCard() == true )
 463:FatFS/mmc.cpp **** 				{
 464:FatFS/mmc.cpp **** 					xResult = RES_OK;
 465:FatFS/mmc.cpp **** 					prvDeselectCard();
 466:FatFS/mmc.cpp **** 				}
 467:FatFS/mmc.cpp **** 				break;
 468:FatFS/mmc.cpp **** 
 469:FatFS/mmc.cpp **** 
 470:FatFS/mmc.cpp **** 			case GET_SECTOR_COUNT:
 471:FatFS/mmc.cpp **** 
 472:FatFS/mmc.cpp **** 				/* Get number of sectors on the disk (DWORD) */
 473:FatFS/mmc.cpp **** 				if( prvQueryCard( mmcCMD9_READ_CSD_REGISTER, 0, pcTempBuffer, 16 ) == true )
 474:FatFS/mmc.cpp **** 				{
 475:FatFS/mmc.cpp **** 					if( ( pcTempBuffer[ 0 ] >> 6 ) == 1 )
 476:FatFS/mmc.cpp **** 					{
 477:FatFS/mmc.cpp **** 						/* SDC ver 2.00 */
 478:FatFS/mmc.cpp **** 						usSize = pcTempBuffer[ 9 ] + ( ( ( WORD ) pcTempBuffer[ 8 ] << 8 ) + 1 );
 479:FatFS/mmc.cpp **** 						*( DWORD * ) pvBuffer = ( DWORD ) usSize << 10UL;
 480:FatFS/mmc.cpp **** 					}
 481:FatFS/mmc.cpp **** 					else
 482:FatFS/mmc.cpp **** 					{
 483:FatFS/mmc.cpp **** 						/* SDC ver 1.XX or MMC */
 484:FatFS/mmc.cpp **** 						n = ( pcTempBuffer[ 5 ] & 15 ) + ( (pcTempBuffer[ 10 ] & 128 ) >> 7 ) + ( (pcTempBuffer[ 9 ] 
 485:FatFS/mmc.cpp **** 						usSize = ( pcTempBuffer[ 8 ] >> 6 ) + ( ( WORD ) pcTempBuffer[ 7 ] << 2 ) + ( ( WORD ) ( pcTe
 486:FatFS/mmc.cpp **** 						*( DWORD * ) pvBuffer = ( DWORD ) usSize << ( n - 9 );
 487:FatFS/mmc.cpp **** 					}
 488:FatFS/mmc.cpp **** 
 489:FatFS/mmc.cpp **** 					xResult = RES_OK;
 490:FatFS/mmc.cpp **** 				}
 491:FatFS/mmc.cpp **** 				break;
 492:FatFS/mmc.cpp **** 
 493:FatFS/mmc.cpp **** 
 494:FatFS/mmc.cpp **** 			case GET_SECTOR_SIZE:
 495:FatFS/mmc.cpp **** 
 496:FatFS/mmc.cpp **** 				/* Get R/W ulSector size (WORD) */
 497:FatFS/mmc.cpp **** 				* ( WORD * ) pvBuffer = mmcSECTOR_SIZE;
ARM GAS  /tmp/ccx2XJRZ.s 			page 11


 498:FatFS/mmc.cpp **** 				xResult = RES_OK;
 499:FatFS/mmc.cpp **** 				break;
 500:FatFS/mmc.cpp **** 
 501:FatFS/mmc.cpp **** 
 502:FatFS/mmc.cpp **** 			case GET_BLOCK_SIZE:
 503:FatFS/mmc.cpp **** 
 504:FatFS/mmc.cpp **** 				/* Get erase block size in unit of ulSector (DWORD) */
 505:FatFS/mmc.cpp **** 				if( ( ucInsertedCardType & CT_SD2 ) != 0 )
 506:FatFS/mmc.cpp **** 				{
 507:FatFS/mmc.cpp **** 					/* SDC ver 2.00 */
 508:FatFS/mmc.cpp **** 					if( prvQueryCard( mmcACMD13_READ_SD_STATUS, 0, pcTempBuffer, mmcMAX_QUERY_STRING_BYTES ) == tr
 509:FatFS/mmc.cpp **** 					{
 510:FatFS/mmc.cpp **** 						* ( DWORD * ) pvBuffer = 16UL << ( pcTempBuffer[ 10 ] >> 4 );
 511:FatFS/mmc.cpp **** 						xResult = RES_OK;
 512:FatFS/mmc.cpp **** 
 513:FatFS/mmc.cpp **** 						/* Only 16 of the 64 bytes have been read.  Purge
 514:FatFS/mmc.cpp **** 						the remaining bytes.  Read bytes 16 to 32. */
 515:FatFS/mmc.cpp **** 						spiRead(pcTempBuffer, mmcMAX_QUERY_STRING_BYTES);
 516:FatFS/mmc.cpp **** 
 517:FatFS/mmc.cpp **** 						/* Read bytes 32 to 48. */
 518:FatFS/mmc.cpp **** 						spiRead(pcTempBuffer, mmcMAX_QUERY_STRING_BYTES);
 519:FatFS/mmc.cpp **** 
 520:FatFS/mmc.cpp **** 						/* Read bytes 48 to 64. */
 521:FatFS/mmc.cpp **** 						spiRead(pcTempBuffer, mmcMAX_QUERY_STRING_BYTES);
 522:FatFS/mmc.cpp **** 					}
 523:FatFS/mmc.cpp **** 				}
 524:FatFS/mmc.cpp **** 				else
 525:FatFS/mmc.cpp **** 				{
 526:FatFS/mmc.cpp **** 					/* SDC ver 1.XX or MMC */
 527:FatFS/mmc.cpp **** 					if( prvQueryCard( mmcCMD9_READ_CSD_REGISTER, 0, pcTempBuffer, 16 ) == true )
 528:FatFS/mmc.cpp **** 					{
 529:FatFS/mmc.cpp **** 						/* Read CSD */
 530:FatFS/mmc.cpp **** 						if( ( ucInsertedCardType & CT_SD1 ) != 0 )
 531:FatFS/mmc.cpp **** 						{
 532:FatFS/mmc.cpp **** 							/* SDC ver 1.XX */
 533:FatFS/mmc.cpp **** 							*( DWORD * ) pvBuffer = ( ( ( pcTempBuffer[ 10 ] & 63 ) << 1 ) + ( ( WORD ) ( pcTempBuffer[ 
 534:FatFS/mmc.cpp **** 						}
 535:FatFS/mmc.cpp **** 						else
 536:FatFS/mmc.cpp **** 						{
 537:FatFS/mmc.cpp **** 							/* MMC */
 538:FatFS/mmc.cpp **** 							*( DWORD * ) pvBuffer = ( ( WORD ) ( ( pcTempBuffer[ 10 ] & 124 ) >> 2 ) + 1 ) * ( ( ( pcTem
 539:FatFS/mmc.cpp **** 						}
 540:FatFS/mmc.cpp **** 
 541:FatFS/mmc.cpp **** 						xResult = RES_OK;
 542:FatFS/mmc.cpp **** 					}
 543:FatFS/mmc.cpp **** 				}
 544:FatFS/mmc.cpp **** 				break;
 545:FatFS/mmc.cpp **** 
 546:FatFS/mmc.cpp **** 
 547:FatFS/mmc.cpp **** 			case MMC_GET_TYPE:
 548:FatFS/mmc.cpp **** 
 549:FatFS/mmc.cpp **** 				/* Get card type flags (1 byte) */
 550:FatFS/mmc.cpp **** 				*pcExternalBuffer = ucInsertedCardType;
 551:FatFS/mmc.cpp **** 				xResult = RES_OK;
 552:FatFS/mmc.cpp **** 				break;
 553:FatFS/mmc.cpp **** 
 554:FatFS/mmc.cpp **** 
ARM GAS  /tmp/ccx2XJRZ.s 			page 12


 555:FatFS/mmc.cpp **** 			case MMC_GET_CSD:
 556:FatFS/mmc.cpp **** 
 557:FatFS/mmc.cpp **** 				/* Receive CSD as a data block (16 bytes) */
 558:FatFS/mmc.cpp **** 				if( prvQueryCard( mmcCMD9_READ_CSD_REGISTER, 0, pcExternalBuffer, 16 ) == true )
 559:FatFS/mmc.cpp **** 				{
 560:FatFS/mmc.cpp **** 					xResult = RES_OK;
 561:FatFS/mmc.cpp **** 				}
 562:FatFS/mmc.cpp **** 				break;
 563:FatFS/mmc.cpp **** 
 564:FatFS/mmc.cpp **** 
 565:FatFS/mmc.cpp **** 			case MMC_GET_CID:
 566:FatFS/mmc.cpp **** 
 567:FatFS/mmc.cpp **** 				/* Receive CID as a data block (16 bytes) */
 568:FatFS/mmc.cpp **** 				if( prvQueryCard( mmcCMD10_READ_CID_REGISTER, 0, pcExternalBuffer, 16 ) == true )
 569:FatFS/mmc.cpp **** 				{
 570:FatFS/mmc.cpp **** 					xResult = RES_OK;
 571:FatFS/mmc.cpp **** 				}
 572:FatFS/mmc.cpp **** 				break;
 573:FatFS/mmc.cpp **** 
 574:FatFS/mmc.cpp **** 
 575:FatFS/mmc.cpp **** 			case MMC_GET_OCR:
 576:FatFS/mmc.cpp **** 
 577:FatFS/mmc.cpp **** 				/* Receive OCR as an R3 resp (4 bytes) */
 578:FatFS/mmc.cpp **** 				if( prvSendCommand( mmcCMD58_READ_OCR, 0 ) == 0 )
 579:FatFS/mmc.cpp **** 				{
 580:FatFS/mmc.cpp **** 					/* READ_OCR */
 581:FatFS/mmc.cpp **** 					spiRead(pcExternalBuffer, mmcOCR_LENGTH);
 582:FatFS/mmc.cpp **** 
 583:FatFS/mmc.cpp **** 					xResult = RES_OK;
 584:FatFS/mmc.cpp **** 				}
 585:FatFS/mmc.cpp **** 				break;
 586:FatFS/mmc.cpp **** 
 587:FatFS/mmc.cpp **** 
 588:FatFS/mmc.cpp **** 			case MMC_GET_SDSTAT:
 589:FatFS/mmc.cpp **** 
 590:FatFS/mmc.cpp **** 				/* Receive SD status as a data block (64 bytes) */
 591:FatFS/mmc.cpp **** 				if( prvQueryCard( mmcACMD13_READ_SD_STATUS, 0, pcExternalBuffer, 64 ) == true )
 592:FatFS/mmc.cpp **** 				{
 593:FatFS/mmc.cpp **** 					xResult = RES_OK;
 594:FatFS/mmc.cpp **** 				}
 595:FatFS/mmc.cpp **** 
 596:FatFS/mmc.cpp **** 				break;
 597:FatFS/mmc.cpp **** 
 598:FatFS/mmc.cpp **** 
 599:FatFS/mmc.cpp **** 			default:
 600:FatFS/mmc.cpp **** 
 601:FatFS/mmc.cpp **** 				xResult = RES_PARERR;
 602:FatFS/mmc.cpp **** 				break;
 603:FatFS/mmc.cpp **** 		}
 604:FatFS/mmc.cpp **** 	}
 605:FatFS/mmc.cpp **** 
 606:FatFS/mmc.cpp **** 	prvDeselectCard();
 607:FatFS/mmc.cpp **** 
 608:FatFS/mmc.cpp **** 	return xResult;
 609:FatFS/mmc.cpp **** }
 610:FatFS/mmc.cpp **** #endif /* _USE_IOCTL != 0 */
 611:FatFS/mmc.cpp **** /*-----------------------------------------------------------*/
ARM GAS  /tmp/ccx2XJRZ.s 			page 13


 612:FatFS/mmc.cpp **** 
 613:FatFS/mmc.cpp **** static portBASE_TYPE prvIsDiskInserted( void )
 614:FatFS/mmc.cpp **** {
 615:FatFS/mmc.cpp **** 	portBASE_TYPE xReturn;
 616:FatFS/mmc.cpp **** 
 617:FatFS/mmc.cpp **** 	xDiskStatus &= ~STA_NODISK;
 618:FatFS/mmc.cpp **** 	xReturn = pdTRUE;
 619:FatFS/mmc.cpp **** 
 620:FatFS/mmc.cpp **** 	return xReturn;
 621:FatFS/mmc.cpp **** }
 622:FatFS/mmc.cpp **** /*-----------------------------------------------------------*/
 623:FatFS/mmc.cpp **** 
 624:FatFS/mmc.cpp **** static BYTE prvSendCommand( BYTE cCommand,	DWORD xArgument	)
 625:FatFS/mmc.cpp **** {
 626:FatFS/mmc.cpp **** BYTE cResult = 0, n;
 627:FatFS/mmc.cpp **** BYTE cCommandString[ mmcCOMMAND_LENGTH_BYTES ];
 628:FatFS/mmc.cpp **** 
 629:FatFS/mmc.cpp **** 	if( ( cCommand & 0x80 ) != 0 )
 630:FatFS/mmc.cpp **** 	{
 631:FatFS/mmc.cpp **** 		/* ACMD<n> is the command sequence of mmcCMD55_LEADING_COMMAND_OF_ACMD-CMD<n> */
 632:FatFS/mmc.cpp **** 		cCommand &= 0x7F;
 633:FatFS/mmc.cpp **** 		cResult = prvSendCommand( mmcCMD55_LEADING_COMMAND_OF_ACMD, 0 );
 634:FatFS/mmc.cpp **** 	}
 635:FatFS/mmc.cpp **** 
 636:FatFS/mmc.cpp **** 	if( cResult <= 1 )
 637:FatFS/mmc.cpp **** 	{
 638:FatFS/mmc.cpp **** 		cResult = 0xff;
 639:FatFS/mmc.cpp **** 
 640:FatFS/mmc.cpp **** 		/* Select the card and wait for ready */
 641:FatFS/mmc.cpp **** 		prvDeselectCard();
 642:FatFS/mmc.cpp **** 		if( prvSelectCard() == true )
 643:FatFS/mmc.cpp **** 		{
 644:FatFS/mmc.cpp **** 			/* Send command packet */
 645:FatFS/mmc.cpp **** 			cCommandString[ 0 ] = cCommand;
 646:FatFS/mmc.cpp **** 			cCommandString[ 1 ] = ( BYTE ) ( ( xArgument >> 24UL ) & 0xffUL );
 647:FatFS/mmc.cpp **** 			cCommandString[ 2 ] = ( BYTE ) ( ( xArgument >> 16UL ) & 0xffUL );
 648:FatFS/mmc.cpp **** 			cCommandString[ 3 ] = ( BYTE ) ( ( xArgument >> 8UL ) & 0xffUL );
 649:FatFS/mmc.cpp **** 			cCommandString[ 4 ] = ( BYTE ) ( xArgument & 0xffUL );
 650:FatFS/mmc.cpp **** 
 651:FatFS/mmc.cpp **** 			if( cCommand == mmcCMD0_SOFTWARE_RESET )
 652:FatFS/mmc.cpp **** 			{
 653:FatFS/mmc.cpp **** 				/* Valid CRC for mmcCMD0_SOFTWARE_RESET(0) */
 654:FatFS/mmc.cpp **** 				cCommandString[ 5 ] = 0x95;
 655:FatFS/mmc.cpp **** 			}
 656:FatFS/mmc.cpp **** 			else if( cCommand == mmcCMD8_CHECK_VOLTAGE_RANGE )
 657:FatFS/mmc.cpp **** 			{
 658:FatFS/mmc.cpp **** 				/* Valid CRC for mmcCMD8_CHECK_VOLTAGE_RANGE(0x1AA) */
 659:FatFS/mmc.cpp **** 				cCommandString[ 5 ] = 0x87;
 660:FatFS/mmc.cpp **** 			}
 661:FatFS/mmc.cpp **** 			else
 662:FatFS/mmc.cpp **** 			{
 663:FatFS/mmc.cpp **** 				/* Dummy CRC and stop. */
 664:FatFS/mmc.cpp **** 				cCommandString[ 5 ] = 0x01;
 665:FatFS/mmc.cpp **** 			}
 666:FatFS/mmc.cpp **** 
 667:FatFS/mmc.cpp **** 			if (spiWrite(cCommandString, mmcCOMMAND_LENGTH_BYTES) == mmcCOMMAND_LENGTH_BYTES)
 668:FatFS/mmc.cpp **** 			{
ARM GAS  /tmp/ccx2XJRZ.s 			page 14


 669:FatFS/mmc.cpp **** 				/* Receive command response */
 670:FatFS/mmc.cpp **** 				if( cCommand == mmcCMD12_STOP )
 671:FatFS/mmc.cpp **** 				{
 672:FatFS/mmc.cpp **** 					/* Skip a stuff byte when stop reading */
 673:FatFS/mmc.cpp **** 					spiRead(&cResult, sizeof(cResult));
 674:FatFS/mmc.cpp **** 				}
 675:FatFS/mmc.cpp **** 
 676:FatFS/mmc.cpp **** 				/* Wait for a valid response. */
 677:FatFS/mmc.cpp **** 				for( n = 0; n < 10; n++ )
 678:FatFS/mmc.cpp **** 				{
 679:FatFS/mmc.cpp **** 					if(spiRead(&cResult, sizeof(cResult)) == sizeof(cResult))
 680:FatFS/mmc.cpp **** 					{
 681:FatFS/mmc.cpp **** 						if( ( cResult & 0x80 ) == 0 )
 682:FatFS/mmc.cpp **** 						{
 683:FatFS/mmc.cpp **** 							break;
 684:FatFS/mmc.cpp **** 						}
 685:FatFS/mmc.cpp **** 					}
 686:FatFS/mmc.cpp **** 				}
 687:FatFS/mmc.cpp **** 			}
 688:FatFS/mmc.cpp **** 		}
 689:FatFS/mmc.cpp **** 	}
 690:FatFS/mmc.cpp **** 
 691:FatFS/mmc.cpp **** 	return cResult;
 692:FatFS/mmc.cpp **** }
 693:FatFS/mmc.cpp **** /*-----------------------------------------------------------*/
 694:FatFS/mmc.cpp **** 
 695:FatFS/mmc.cpp **** static BYTE prvWaitForCardReady (void)
 696:FatFS/mmc.cpp **** {
 697:FatFS/mmc.cpp **** portTickType xTimeOnEntering;
 698:FatFS/mmc.cpp **** const portTickType xMaxTimeToWait_ms = 1000 / portTICK_RATE_MS;
 699:FatFS/mmc.cpp **** BYTE cDummy;
 700:FatFS/mmc.cpp **** 
 701:FatFS/mmc.cpp **** 	xTimeOnEntering = xTaskGetTickCount();
 702:FatFS/mmc.cpp **** 
 703:FatFS/mmc.cpp **** 	spiRead(&cDummy, sizeof(cDummy));
 704:FatFS/mmc.cpp **** 	do
 705:FatFS/mmc.cpp **** 	{
 706:FatFS/mmc.cpp **** 		spiRead(&cDummy, sizeof(cDummy));
 707:FatFS/mmc.cpp **** 	}
 708:FatFS/mmc.cpp **** 	while( ( cDummy != 0xFF ) && ( ( xTaskGetTickCount() - xTimeOnEntering ) < xMaxTimeToWait_ms ) );
 709:FatFS/mmc.cpp **** 
 710:FatFS/mmc.cpp **** 	return cDummy;
 711:FatFS/mmc.cpp **** }
 712:FatFS/mmc.cpp **** /*-----------------------------------------------------------*/
 713:FatFS/mmc.cpp **** 
 714:FatFS/mmc.cpp **** static void prvDeselectCard( void )
 715:FatFS/mmc.cpp **** {
  74              		.loc 1 715 0
  75              		.cfi_startproc
  76              		@ args = 0, pretend = 0, frame = 8
  77              		@ frame_needed = 0, uses_anonymous_args = 0
  78 0000 07B5     		push	{r0, r1, r2, lr}	@
  79              	.LCFI0:
  80              		.cfi_def_cfa_offset 16
  81              		.cfi_offset 0, -16
  82              		.cfi_offset 1, -12
  83              		.cfi_offset 2, -8
ARM GAS  /tmp/ccx2XJRZ.s 			page 15


  84              		.cfi_offset 14, -4
  85              	.LBB5:
 716:FatFS/mmc.cpp **** 	uint8_t cDummy;
 717:FatFS/mmc.cpp **** 
 718:FatFS/mmc.cpp **** 	SD_CS_bb = SD_CS_DEASSERTED;
  86              		.loc 1 718 0
  87 0002 044B     		ldr	r3, .L2	@ tmp134,
  88 0004 0122     		movs	r2, #1	@ tmp135,
  89 0006 1A60     		str	r2, [r3, #0]	@ tmp135, MEM[(volatile long unsigned int *)1111556784B]
 719:FatFS/mmc.cpp **** 	spiRead(&cDummy, sizeof(cDummy));
  90              		.loc 1 719 0
  91 0008 0020     		movs	r0, #0	@,
  92 000a 0DF10701 		add	r1, sp, #7	@,,
  93 000e FFF7FEFF 		bl	_Z11spiTransferPKhPhj	@
  94              	.LVL0:
  95              	.LBE5:
 720:FatFS/mmc.cpp **** }
  96              		.loc 1 720 0
  97 0012 0EBD     		pop	{r1, r2, r3, pc}
  98              	.L3:
  99              		.align	2
 100              	.L2:
 101 0014 B0024142 		.word	1111556784
 102              		.cfi_endproc
 103              	.LFE63:
 104              		.size	_ZL15prvDeselectCardv, .-_ZL15prvDeselectCardv
 105              		.section	.text._ZL19prvWaitForCardReadyv,"ax",%progbits
 106              		.align	1
 107              		.thumb
 108              		.thumb_func
 109              		.type	_ZL19prvWaitForCardReadyv, %function
 110              	_ZL19prvWaitForCardReadyv:
 111              	.LFB62:
 696:FatFS/mmc.cpp **** {
 112              		.loc 1 696 0
 113              		.cfi_startproc
 114              		@ args = 0, pretend = 0, frame = 8
 115              		@ frame_needed = 0, uses_anonymous_args = 0
 116              	.LVL1:
 117 0000 13B5     		push	{r0, r1, r4, lr}	@
 118              	.LCFI1:
 119              		.cfi_def_cfa_offset 16
 120              		.cfi_offset 0, -16
 121              		.cfi_offset 1, -12
 122              		.cfi_offset 4, -8
 123              		.cfi_offset 14, -4
 124              	.LBB6:
 701:FatFS/mmc.cpp **** 	xTimeOnEntering = xTaskGetTickCount();
 125              		.loc 1 701 0
 126 0002 FFF7FEFF 		bl	xTaskGetTickCount	@
 127              	.LVL2:
 703:FatFS/mmc.cpp **** 	spiRead(&cDummy, sizeof(cDummy));
 128              		.loc 1 703 0
 129 0006 0DF10701 		add	r1, sp, #7	@,,
 701:FatFS/mmc.cpp **** 	xTimeOnEntering = xTaskGetTickCount();
 130              		.loc 1 701 0
 131 000a 0446     		mov	r4, r0	@ xTimeOnEntering,
ARM GAS  /tmp/ccx2XJRZ.s 			page 16


 132              	.LVL3:
 703:FatFS/mmc.cpp **** 	spiRead(&cDummy, sizeof(cDummy));
 133              		.loc 1 703 0
 134 000c 0122     		movs	r2, #1	@,
 135 000e 0020     		movs	r0, #0	@,
 136              	.LVL4:
 137 0010 FFF7FEFF 		bl	_Z11spiTransferPKhPhj	@
 138              	.LVL5:
 139              	.L6:
 706:FatFS/mmc.cpp **** 		spiRead(&cDummy, sizeof(cDummy));
 140              		.loc 1 706 0 discriminator 5
 141 0014 0020     		movs	r0, #0	@,
 142 0016 0122     		movs	r2, #1	@,
 143 0018 0DF10701 		add	r1, sp, #7	@,,
 144 001c FFF7FEFF 		bl	_Z11spiTransferPKhPhj	@
 145              	.LVL6:
 704:FatFS/mmc.cpp **** 	do
 146              		.loc 1 704 0 discriminator 5
 147 0020 9DF80730 		ldrb	r3, [sp, #7]	@ zero_extendqisi2	@ cDummy, cDummy
 148              	.LVL7:
 149 0024 FF2B     		cmp	r3, #255	@ cDummy,
 150              	.LVL8:
 151 0026 02D1     		bne	.L5	@,
 152              	.L7:
 153              	.LVL9:
 710:FatFS/mmc.cpp **** 	return cDummy;
 154              		.loc 1 710 0
 155 0028 9DF80700 		ldrb	r0, [sp, #7]	@ zero_extendqisi2	@ D.7434, cDummy
 156              	.LBE6:
 711:FatFS/mmc.cpp **** }
 157              		.loc 1 711 0
 158 002c 1CBD     		pop	{r2, r3, r4, pc}
 159              	.LVL10:
 160              	.L5:
 161              	.LBB7:
 708:FatFS/mmc.cpp **** 	while( ( cDummy != 0xFF ) && ( ( xTaskGetTickCount() - xTimeOnEntering ) < xMaxTimeToWait_ms ) );
 162              		.loc 1 708 0 discriminator 1
 163 002e FFF7FEFF 		bl	xTaskGetTickCount	@
 164              	.LVL11:
 704:FatFS/mmc.cpp **** 	do
 165              		.loc 1 704 0 discriminator 1
 166 0032 001B     		subs	r0, r0, r4	@ tmp144,, xTimeOnEntering
 167 0034 B0F57A7F 		cmp	r0, #1000	@ tmp144,
 168 0038 ECD3     		bcc	.L6	@,
 169 003a F5E7     		b	.L7	@
 170              	.LBE7:
 171              		.cfi_endproc
 172              	.LFE62:
 173              		.size	_ZL19prvWaitForCardReadyv, .-_ZL19prvWaitForCardReadyv
 174              		.section	.text._ZL14prvSendCommandhm,"ax",%progbits
 175              		.align	1
 176              		.thumb
 177              		.thumb_func
 178              		.type	_ZL14prvSendCommandhm, %function
 179              	_ZL14prvSendCommandhm:
 180              	.LFB61:
 625:FatFS/mmc.cpp **** {
ARM GAS  /tmp/ccx2XJRZ.s 			page 17


 181              		.loc 1 625 0
 182              		.cfi_startproc
 183              		@ args = 0, pretend = 0, frame = 16
 184              		@ frame_needed = 0, uses_anonymous_args = 0
 185              	.LVL12:
 186 0000 30B5     		push	{r4, r5, lr}	@
 187              	.LCFI2:
 188              		.cfi_def_cfa_offset 12
 189              		.cfi_offset 4, -12
 190              		.cfi_offset 5, -8
 191              		.cfi_offset 14, -4
 192 0002 0D46     		mov	r5, r1	@ xArgument, xArgument
 193 0004 85B0     		sub	sp, sp, #20	@,,
 194              	.LCFI3:
 195              		.cfi_def_cfa_offset 32
 196              	.LBB12:
 626:FatFS/mmc.cpp **** BYTE cResult = 0, n;
 197              		.loc 1 626 0
 198 0006 0021     		movs	r1, #0	@ tmp158,
 199              	.LVL13:
 629:FatFS/mmc.cpp **** 	if( ( cCommand & 0x80 ) != 0 )
 200              		.loc 1 629 0
 201 0008 0306     		lsls	r3, r0, #24	@, cCommand,
 202              	.LBE12:
 625:FatFS/mmc.cpp **** {
 203              		.loc 1 625 0
 204 000a 0446     		mov	r4, r0	@ cCommand, cCommand
 205              	.LBB15:
 626:FatFS/mmc.cpp **** BYTE cResult = 0, n;
 206              		.loc 1 626 0
 207 000c 8DF80710 		strb	r1, [sp, #7]	@ tmp158, cResult
 208              	.LVL14:
 629:FatFS/mmc.cpp **** 	if( ( cCommand & 0x80 ) != 0 )
 209              		.loc 1 629 0
 210 0010 06D5     		bpl	.L12	@,
 632:FatFS/mmc.cpp **** 		cCommand &= 0x7F;
 211              		.loc 1 632 0
 212 0012 00F07F04 		and	r4, r0, #127	@ cCommand, cCommand,
 213              	.LVL15:
 633:FatFS/mmc.cpp **** 		cResult = prvSendCommand( mmcCMD55_LEADING_COMMAND_OF_ACMD, 0 );
 214              		.loc 1 633 0
 215 0016 7720     		movs	r0, #119	@,
 216 0018 FFF7F2FF 		bl	_ZL14prvSendCommandhm	@
 217              	.LVL16:
 218 001c 8DF80700 		strb	r0, [sp, #7]	@, cResult
 219              	.LVL17:
 220              	.L12:
 636:FatFS/mmc.cpp **** 	if( cResult <= 1 )
 221              		.loc 1 636 0
 222 0020 9DF80730 		ldrb	r3, [sp, #7]	@ zero_extendqisi2	@ cResult, cResult
 223              	.LVL18:
 224 0024 012B     		cmp	r3, #1	@ cResult,
 225              	.LVL19:
 226 0026 27D8     		bhi	.L14	@,
 638:FatFS/mmc.cpp **** 		cResult = 0xff;
 227              		.loc 1 638 0
 228 0028 FF20     		movs	r0, #255	@ tmp165,
ARM GAS  /tmp/ccx2XJRZ.s 			page 18


 229 002a 8DF80700 		strb	r0, [sp, #7]	@ tmp165, cResult
 230              	.LVL20:
 641:FatFS/mmc.cpp **** 		prvDeselectCard();
 231              		.loc 1 641 0
 232 002e FFF7FEFF 		bl	_ZL15prvDeselectCardv	@
 233              	.LVL21:
 234              	.LBB13:
 235              	.LBB14:
 721:FatFS/mmc.cpp **** /*-----------------------------------------------------------*/
 722:FatFS/mmc.cpp **** 
 723:FatFS/mmc.cpp **** static bool prvSelectCard( void )
 724:FatFS/mmc.cpp **** {
 725:FatFS/mmc.cpp **** bool xReturn = true;
 726:FatFS/mmc.cpp **** 
 727:FatFS/mmc.cpp **** 	SD_CS_bb = SD_CS_ASSERTED;
 236              		.loc 1 727 0
 237 0032 2349     		ldr	r1, .L29	@ tmp167,
 238 0034 0022     		movs	r2, #0	@ tmp168,
 239 0036 0A60     		str	r2, [r1, #0]	@ tmp168, MEM[(volatile long unsigned int *)1111556784B]
 728:FatFS/mmc.cpp **** 	if( prvWaitForCardReady() != 0xFF )
 240              		.loc 1 728 0
 241 0038 FFF7FEFF 		bl	_ZL19prvWaitForCardReadyv	@
 242              	.LVL22:
 243 003c FF28     		cmp	r0, #255	@,
 244 003e 02D0     		beq	.L15	@,
 729:FatFS/mmc.cpp **** 	{
 730:FatFS/mmc.cpp **** 		prvDeselectCard();
 245              		.loc 1 730 0
 246 0040 FFF7FEFF 		bl	_ZL15prvDeselectCardv	@
 247              	.LVL23:
 248 0044 18E0     		b	.L14	@
 249              	.LVL24:
 250              	.L15:
 251              	.LBE14:
 252              	.LBE13:
 646:FatFS/mmc.cpp **** 			cCommandString[ 1 ] = ( BYTE ) ( ( xArgument >> 24UL ) & 0xffUL );
 253              		.loc 1 646 0
 254 0046 2B0E     		lsrs	r3, r5, #24	@ tmp183, xArgument,
 647:FatFS/mmc.cpp **** 			cCommandString[ 2 ] = ( BYTE ) ( ( xArgument >> 16UL ) & 0xffUL );
 255              		.loc 1 647 0
 256 0048 280C     		lsrs	r0, r5, #16	@ tmp185, xArgument,
 648:FatFS/mmc.cpp **** 			cCommandString[ 3 ] = ( BYTE ) ( ( xArgument >> 8UL ) & 0xffUL );
 257              		.loc 1 648 0
 258 004a 2A0A     		lsrs	r2, r5, #8	@ tmp187, xArgument,
 651:FatFS/mmc.cpp **** 			if( cCommand == mmcCMD0_SOFTWARE_RESET )
 259              		.loc 1 651 0
 260 004c 402C     		cmp	r4, #64	@ cCommand,
 645:FatFS/mmc.cpp **** 			cCommandString[ 0 ] = cCommand;
 261              		.loc 1 645 0
 262 004e 8DF80840 		strb	r4, [sp, #8]	@ cCommand, cCommandString
 646:FatFS/mmc.cpp **** 			cCommandString[ 1 ] = ( BYTE ) ( ( xArgument >> 24UL ) & 0xffUL );
 263              		.loc 1 646 0
 264 0052 8DF80930 		strb	r3, [sp, #9]	@ tmp183, cCommandString
 647:FatFS/mmc.cpp **** 			cCommandString[ 2 ] = ( BYTE ) ( ( xArgument >> 16UL ) & 0xffUL );
 265              		.loc 1 647 0
 266 0056 8DF80A00 		strb	r0, [sp, #10]	@ tmp185, cCommandString
 648:FatFS/mmc.cpp **** 			cCommandString[ 3 ] = ( BYTE ) ( ( xArgument >> 8UL ) & 0xffUL );
ARM GAS  /tmp/ccx2XJRZ.s 			page 19


 267              		.loc 1 648 0
 268 005a 8DF80B20 		strb	r2, [sp, #11]	@ tmp187, cCommandString
 649:FatFS/mmc.cpp **** 			cCommandString[ 4 ] = ( BYTE ) ( xArgument & 0xffUL );
 269              		.loc 1 649 0
 270 005e 8DF80C50 		strb	r5, [sp, #12]	@ xArgument, cCommandString
 651:FatFS/mmc.cpp **** 			if( cCommand == mmcCMD0_SOFTWARE_RESET )
 271              		.loc 1 651 0
 272 0062 0DD1     		bne	.L26	@,
 654:FatFS/mmc.cpp **** 				cCommandString[ 5 ] = 0x95;
 273              		.loc 1 654 0
 274 0064 9521     		movs	r1, #149	@ tmp170,
 275              	.L27:
 664:FatFS/mmc.cpp **** 				cCommandString[ 5 ] = 0x01;
 276              		.loc 1 664 0
 277 0066 8DF80D10 		strb	r1, [sp, #13]	@ tmp174, cCommandString
 667:FatFS/mmc.cpp **** 			if (spiWrite(cCommandString, mmcCOMMAND_LENGTH_BYTES) == mmcCOMMAND_LENGTH_BYTES)
 278              		.loc 1 667 0
 279 006a 0622     		movs	r2, #6	@,
 280 006c 0021     		movs	r1, #0	@,
 281 006e 02A8     		add	r0, sp, #8	@,,
 282 0070 FFF7FEFF 		bl	_Z11spiTransferPKhPhj	@
 283              	.LVL25:
 284 0074 0628     		cmp	r0, #6	@,
 285 0076 09D0     		beq	.L28	@,
 286              	.LVL26:
 287              	.L14:
 691:FatFS/mmc.cpp **** 	return cResult;
 288              		.loc 1 691 0
 289 0078 9DF80700 		ldrb	r0, [sp, #7]	@ zero_extendqisi2	@ D.7484, cResult
 290              	.LBE15:
 692:FatFS/mmc.cpp **** }
 291              		.loc 1 692 0
 292 007c 05B0     		add	sp, sp, #20	@,,
 293 007e 30BD     		pop	{r4, r5, pc}
 294              	.LVL27:
 295              	.L26:
 296              	.LBB16:
 656:FatFS/mmc.cpp **** 			else if( cCommand == mmcCMD8_CHECK_VOLTAGE_RANGE )
 297              		.loc 1 656 0
 298 0080 482C     		cmp	r4, #72	@ cCommand,
 299 0082 01D1     		bne	.L17	@,
 659:FatFS/mmc.cpp **** 				cCommandString[ 5 ] = 0x87;
 300              		.loc 1 659 0
 301 0084 8721     		movs	r1, #135	@ tmp172,
 302 0086 EEE7     		b	.L27	@
 303              	.L17:
 664:FatFS/mmc.cpp **** 				cCommandString[ 5 ] = 0x01;
 304              		.loc 1 664 0
 305 0088 0121     		movs	r1, #1	@ tmp174,
 306 008a ECE7     		b	.L27	@
 307              	.L28:
 670:FatFS/mmc.cpp **** 				if( cCommand == mmcCMD12_STOP )
 308              		.loc 1 670 0
 309 008c 4C2C     		cmp	r4, #76	@ cCommand,
 310 008e 05D1     		bne	.L19	@,
 673:FatFS/mmc.cpp **** 					spiRead(&cResult, sizeof(cResult));
 311              		.loc 1 673 0
ARM GAS  /tmp/ccx2XJRZ.s 			page 20


 312 0090 0020     		movs	r0, #0	@,
 313 0092 0DF10701 		add	r1, sp, #7	@,,
 314 0096 0122     		movs	r2, #1	@,
 315 0098 FFF7FEFF 		bl	_Z11spiTransferPKhPhj	@
 316              	.LVL28:
 317              	.L19:
 318              	.LBE16:
 625:FatFS/mmc.cpp **** {
 319              		.loc 1 625 0 discriminator 1
 320 009c 0A24     		movs	r4, #10	@ ivtmp.95,
 321              	.LVL29:
 322              	.L21:
 323              	.LBB17:
 679:FatFS/mmc.cpp **** 					if(spiRead(&cResult, sizeof(cResult)) == sizeof(cResult))
 324              		.loc 1 679 0
 325 009e 0020     		movs	r0, #0	@,
 326 00a0 0122     		movs	r2, #1	@,
 327 00a2 0DF10701 		add	r1, sp, #7	@,,
 328 00a6 FFF7FEFF 		bl	_Z11spiTransferPKhPhj	@
 329              	.LVL30:
 330 00aa 0128     		cmp	r0, #1	@,
 331 00ac 03D1     		bne	.L20	@,
 681:FatFS/mmc.cpp **** 						if( ( cResult & 0x80 ) == 0 )
 332              		.loc 1 681 0
 333 00ae 9DF90730 		ldrsb	r3, [sp, #7]	@ cResult, cResult
 334              	.LVL31:
 335 00b2 002B     		cmp	r3, #0	@ cResult,
 336              	.LVL32:
 337 00b4 E0DA     		bge	.L14	@,
 338              	.LVL33:
 339              	.L20:
 340 00b6 013C     		subs	r4, r4, #1	@ tmp180, ivtmp.95,
 677:FatFS/mmc.cpp **** 				for( n = 0; n < 10; n++ )
 341              		.loc 1 677 0
 342 00b8 14F0FF04 		ands	r4, r4, #255	@ ivtmp.95, tmp180,
 343 00bc EFD1     		bne	.L21	@,
 344 00be DBE7     		b	.L14	@
 345              	.L30:
 346              		.align	2
 347              	.L29:
 348 00c0 B0024142 		.word	1111556784
 349              	.LBE17:
 350              		.cfi_endproc
 351              	.LFE61:
 352              		.size	_ZL14prvSendCommandhm, .-_ZL14prvSendCommandhm
 353              		.section	.text._ZL17prvWriteDataBlockPKhh,"ax",%progbits
 354              		.align	1
 355              		.thumb
 356              		.thumb_func
 357              		.type	_ZL17prvWriteDataBlockPKhh, %function
 358              	_ZL17prvWriteDataBlockPKhh:
 359              	.LFB67:
 731:FatFS/mmc.cpp **** 		xReturn = false;
 732:FatFS/mmc.cpp **** 	}
 733:FatFS/mmc.cpp **** 
 734:FatFS/mmc.cpp **** 	return xReturn;
 735:FatFS/mmc.cpp **** }
ARM GAS  /tmp/ccx2XJRZ.s 			page 21


 736:FatFS/mmc.cpp **** /*-----------------------------------------------------------*/
 737:FatFS/mmc.cpp **** 
 738:FatFS/mmc.cpp **** static bool prvQueryCard( BYTE ucCommand, DWORD ulCommandArgument, BYTE *pucRxBuffer, UINT uiRxLeng
 739:FatFS/mmc.cpp **** {
 740:FatFS/mmc.cpp **** bool xReturn = false;
 741:FatFS/mmc.cpp **** portTickType xTimeAtStart;
 742:FatFS/mmc.cpp **** const portTickType xTimeOut = 200 / portTICK_RATE_MS;
 743:FatFS/mmc.cpp **** uint8_t cDummy[ 2 ];
 744:FatFS/mmc.cpp **** BYTE cTimedOut = ( BYTE ) pdFALSE;
 745:FatFS/mmc.cpp **** 
 746:FatFS/mmc.cpp **** 	/* The length must be a multiple of 4. */
 747:FatFS/mmc.cpp **** 	configASSERT( ( uiRxLength % 4 ) == 0U );
 748:FatFS/mmc.cpp **** 	configASSERT( xSPIPort );
 749:FatFS/mmc.cpp **** 
 750:FatFS/mmc.cpp **** 	if( prvSendCommand( ucCommand, ulCommandArgument ) <= 1 )
 751:FatFS/mmc.cpp **** 	{
 752:FatFS/mmc.cpp **** 		xTimeAtStart = xTaskGetTickCount();
 753:FatFS/mmc.cpp **** 
 754:FatFS/mmc.cpp **** 		do
 755:FatFS/mmc.cpp **** 		{
 756:FatFS/mmc.cpp **** 			spiRead(pucRxBuffer, sizeof(*pucRxBuffer));
 757:FatFS/mmc.cpp **** 
 758:FatFS/mmc.cpp **** 			if( ( xTaskGetTickCount() - xTimeAtStart ) > xTimeOut )
 759:FatFS/mmc.cpp **** 			{
 760:FatFS/mmc.cpp **** 				cTimedOut = ( BYTE ) pdTRUE;
 761:FatFS/mmc.cpp **** 			}
 762:FatFS/mmc.cpp **** 
 763:FatFS/mmc.cpp **** 		} while( ( ( *pucRxBuffer ) != 0xfeU ) && ( cTimedOut == pdFALSE ) );
 764:FatFS/mmc.cpp **** 
 765:FatFS/mmc.cpp **** 		if( cTimedOut != pdTRUE )
 766:FatFS/mmc.cpp **** 		{
 767:FatFS/mmc.cpp **** 			/* Read data. */
 768:FatFS/mmc.cpp **** 			if(spiRead(pucRxBuffer, uiRxLength) == uiRxLength )
 769:FatFS/mmc.cpp **** 			{
 770:FatFS/mmc.cpp **** 				/* Read and discard CRC. */
 771:FatFS/mmc.cpp **** 				spiRead(cDummy, sizeof(cDummy));
 772:FatFS/mmc.cpp **** 				xReturn = true;
 773:FatFS/mmc.cpp **** 			}
 774:FatFS/mmc.cpp **** 		}
 775:FatFS/mmc.cpp **** 	}
 776:FatFS/mmc.cpp **** 
 777:FatFS/mmc.cpp **** 	return xReturn;
 778:FatFS/mmc.cpp **** }
 779:FatFS/mmc.cpp **** /*-----------------------------------------------------------*/
 780:FatFS/mmc.cpp **** 
 781:FatFS/mmc.cpp **** static bool prvReceiveDataBlock( BYTE *pcBuffer, UINT xBytesToRead )
 782:FatFS/mmc.cpp **** {
 783:FatFS/mmc.cpp **** bool xReturn = false;
 784:FatFS/mmc.cpp **** portTickType xTimeOnEntering;
 785:FatFS/mmc.cpp **** BYTE pcToken[ 2 ] = { 0x00, 0x00 };
 786:FatFS/mmc.cpp **** const portTickType xMaxTimeToWait_ms = 200 / portTICK_RATE_MS;
 787:FatFS/mmc.cpp **** 
 788:FatFS/mmc.cpp **** 	xTimeOnEntering = xTaskGetTickCount();
 789:FatFS/mmc.cpp **** 
 790:FatFS/mmc.cpp **** 	/* Wait with timeout for a valid byte. */
 791:FatFS/mmc.cpp **** 	do
 792:FatFS/mmc.cpp **** 	{
ARM GAS  /tmp/ccx2XJRZ.s 			page 22


 793:FatFS/mmc.cpp **** 		spiRead(pcToken, sizeof(*pcToken));
 794:FatFS/mmc.cpp **** 	} while( ( *pcToken == 0xff ) && ( ( xTaskGetTickCount() - xTimeOnEntering ) < xMaxTimeToWait_ms )
 795:FatFS/mmc.cpp **** 
 796:FatFS/mmc.cpp **** 	/* Was the byte as expected? */
 797:FatFS/mmc.cpp **** 	if( *pcToken == 0xfe )
 798:FatFS/mmc.cpp **** 	{
 799:FatFS/mmc.cpp **** 		/* Receive the data block. */
 800:FatFS/mmc.cpp **** 		if(spiRead(pcBuffer, xBytesToRead) == xBytesToRead )
 801:FatFS/mmc.cpp **** 		{
 802:FatFS/mmc.cpp **** 			/* Read and discard the CRC. */
 803:FatFS/mmc.cpp **** 			spiRead(pcToken, sizeof(pcToken));
 804:FatFS/mmc.cpp **** 			xReturn = true;
 805:FatFS/mmc.cpp **** 		}
 806:FatFS/mmc.cpp **** 	}
 807:FatFS/mmc.cpp **** 
 808:FatFS/mmc.cpp **** 	return xReturn;
 809:FatFS/mmc.cpp **** }
 810:FatFS/mmc.cpp **** /*-----------------------------------------------------------*/
 811:FatFS/mmc.cpp **** 
 812:FatFS/mmc.cpp **** #if _READONLY == 0
 813:FatFS/mmc.cpp **** static bool prvWriteDataBlock( const BYTE *pcBuffer, BYTE cToken )
 814:FatFS/mmc.cpp **** {
 360              		.loc 1 814 0
 361              		.cfi_startproc
 362              		@ args = 0, pretend = 0, frame = 16
 363              		@ frame_needed = 0, uses_anonymous_args = 0
 364              	.LVL34:
 365 0000 7FB5     		push	{r0, r1, r2, r3, r4, r5, r6, lr}	@
 366              	.LCFI4:
 367              		.cfi_def_cfa_offset 32
 368              		.cfi_offset 0, -32
 369              		.cfi_offset 1, -28
 370              		.cfi_offset 2, -24
 371              		.cfi_offset 3, -20
 372              		.cfi_offset 4, -16
 373              		.cfi_offset 5, -12
 374              		.cfi_offset 6, -8
 375              		.cfi_offset 14, -4
 376              	.LVL35:
 377              	.LBB18:
 815:FatFS/mmc.cpp **** /* Two dummy CRC bytes, and one space to receive the response. */
 816:FatFS/mmc.cpp **** const BYTE cCRCDummy[ 2 ] = { 0xff, 0xff };
 378              		.loc 1 816 0
 379 0002 214B     		ldr	r3, .L36	@ tmp147,
 380              	.LBE18:
 814:FatFS/mmc.cpp **** {
 381              		.loc 1 814 0
 382 0004 0646     		mov	r6, r0	@ pcBuffer, pcBuffer
 383              	.LBB19:
 384              		.loc 1 816 0
 385 0006 1888     		ldrh	r0, [r3, #0]	@ unaligned	@ tmp150,
 386              	.LVL36:
 817:FatFS/mmc.cpp **** volatile bool bReturn = false;
 387              		.loc 1 817 0
 388 0008 0024     		movs	r4, #0	@ tmp151,
 389              	.LVL37:
 390              	.LBE19:
ARM GAS  /tmp/ccx2XJRZ.s 			page 23


 814:FatFS/mmc.cpp **** {
 391              		.loc 1 814 0
 392 000a 8DF80710 		strb	r1, [sp, #7]	@ cToken, cToken
 393              	.LBB20:
 816:FatFS/mmc.cpp **** const BYTE cCRCDummy[ 2 ] = { 0xff, 0xff };
 394              		.loc 1 816 0
 395 000e ADF80C00 		strh	r0, [sp, #12]	@ unaligned	@ tmp150, cCRCDummy
 396              		.loc 1 817 0
 397 0012 8DF80B40 		strb	r4, [sp, #11]	@ tmp151, bReturn
 398              	.LVL38:
 818:FatFS/mmc.cpp **** 
 819:FatFS/mmc.cpp **** 	if( prvWaitForCardReady() == 0xff )
 399              		.loc 1 819 0
 400 0016 FFF7FEFF 		bl	_ZL19prvWaitForCardReadyv	@
 401              	.LVL39:
 402 001a FF28     		cmp	r0, #255	@,
 403 001c 2FD1     		bne	.L33	@,
 820:FatFS/mmc.cpp **** 		/* Transmit the token. */
 821:FatFS/mmc.cpp **** 		if( spiWrite(&cToken, sizeof( cToken ) ) == 1 )
 404              		.loc 1 821 0
 405 001e 0122     		movs	r2, #1	@,
 406 0020 0DF10700 		add	r0, sp, #7	@,,
 407 0024 2146     		mov	r1, r4	@, tmp151
 408 0026 FFF7FEFF 		bl	_Z11spiTransferPKhPhj	@
 409              	.LVL40:
 410 002a 0128     		cmp	r0, #1	@ D.7595,
 411 002c 0546     		mov	r5, r0	@ D.7595,
 412 002e 26D1     		bne	.L33	@,
 822:FatFS/mmc.cpp **** 		{
 823:FatFS/mmc.cpp **** 			if( cToken != 0xFD )
 413              		.loc 1 823 0
 414 0030 9DF80710 		ldrb	r1, [sp, #7]	@ zero_extendqisi2	@ cToken, cToken
 415              	.LVL41:
 416 0034 FD29     		cmp	r1, #253	@ cToken,
 417              	.LVL42:
 418 0036 20D0     		beq	.L35	@,
 824:FatFS/mmc.cpp **** 			{
 825:FatFS/mmc.cpp **** 				/* Write the data block. */
 826:FatFS/mmc.cpp **** 				if( spiWrite(pcBuffer, mmcDATA_BLOCK_SIZE ) == mmcDATA_BLOCK_SIZE )
 419              		.loc 1 826 0
 420 0038 3046     		mov	r0, r6	@, pcBuffer
 421 003a 2146     		mov	r1, r4	@, tmp151
 422              	.LVL43:
 423 003c 4FF40072 		mov	r2, #512	@,
 424 0040 FFF7FEFF 		bl	_Z11spiTransferPKhPhj	@
 425              	.LVL44:
 426 0044 B0F5007F 		cmp	r0, #512	@,
 427 0048 19D1     		bne	.L33	@,
 827:FatFS/mmc.cpp **** 					/* Write the CRC. */
 828:FatFS/mmc.cpp **** 					if( spiWrite(cCRCDummy, sizeof( cCRCDummy ) ) == sizeof( cCRCDummy ) )
 428              		.loc 1 828 0
 429 004a 0222     		movs	r2, #2	@,
 430 004c 03A8     		add	r0, sp, #12	@,,
 431 004e 2146     		mov	r1, r4	@, tmp151
 432 0050 FFF7FEFF 		bl	_Z11spiTransferPKhPhj	@
 433              	.LVL45:
 434 0054 0228     		cmp	r0, #2	@,
ARM GAS  /tmp/ccx2XJRZ.s 			page 24


 435 0056 12D1     		bne	.L33	@,
 829:FatFS/mmc.cpp **** 						/* Receive response. */
 830:FatFS/mmc.cpp **** 						if(spiRead(&cToken, sizeof(cToken)) == sizeof(cToken))
 436              		.loc 1 830 0
 437 0058 2046     		mov	r0, r4	@, tmp151
 438 005a 0DF10701 		add	r1, sp, #7	@,,
 439 005e 2A46     		mov	r2, r5	@, D.7595
 440 0060 FFF7FEFF 		bl	_Z11spiTransferPKhPhj	@
 441              	.LVL46:
 442 0064 0128     		cmp	r0, #1	@ D.7610,
 443 0066 0AD1     		bne	.L33	@,
 444              	.LVL47:
 831:FatFS/mmc.cpp **** 							if( ( cToken & 0x1f ) == 0x05 )
 445              		.loc 1 831 0
 446 0068 9DF80720 		ldrb	r2, [sp, #7]	@ zero_extendqisi2	@ cToken, cToken
 447              	.LVL48:
 448 006c 02F01F03 		and	r3, r2, #31	@ tmp161, cToken,
 449              	.LVL49:
 450 0070 052B     		cmp	r3, #5	@ tmp161,
 451 0072 04D1     		bne	.L33	@,
 832:FatFS/mmc.cpp **** 								bReturn = true;
 452              		.loc 1 832 0
 453 0074 8DF80B00 		strb	r0, [sp, #11]	@ D.7610, bReturn
 454 0078 01E0     		b	.L33	@
 455              	.LVL50:
 456              	.L35:
 833:FatFS/mmc.cpp **** 			}
 834:FatFS/mmc.cpp **** 			else
 835:FatFS/mmc.cpp **** 				bReturn = true;
 457              		.loc 1 835 0
 458 007a 8DF80B00 		strb	r0, [sp, #11]	@ D.7595, bReturn
 459              	.LVL51:
 460              	.L33:
 836:FatFS/mmc.cpp **** 		}
 837:FatFS/mmc.cpp **** 
 838:FatFS/mmc.cpp **** 	configASSERT( bReturn );
 839:FatFS/mmc.cpp **** 	return bReturn;
 461              		.loc 1 839 0
 462 007e 9DF80B00 		ldrb	r0, [sp, #11]	@ zero_extendqisi2	@ bReturn, bReturn
 463              	.LVL52:
 464              	.LVL53:
 465              	.LBE20:
 840:FatFS/mmc.cpp **** }
 466              		.loc 1 840 0
 467 0082 04B0     		add	sp, sp, #16	@,,
 468 0084 70BD     		pop	{r4, r5, r6, pc}
 469              	.L37:
 470 0086 00BF     		.align	2
 471              	.L36:
 472 0088 00000000 		.word	.LANCHOR0
 473              		.cfi_endproc
 474              	.LFE67:
 475              		.size	_ZL17prvWriteDataBlockPKhh, .-_ZL17prvWriteDataBlockPKhh
 476              		.section	.text._ZL12prvQueryCardhmPhj.constprop.1,"ax",%progbits
 477              		.align	1
 478              		.thumb
 479              		.thumb_func
ARM GAS  /tmp/ccx2XJRZ.s 			page 25


 480              		.type	_ZL12prvQueryCardhmPhj.constprop.1, %function
 481              	_ZL12prvQueryCardhmPhj.constprop.1:
 482              	.LFB71:
 738:FatFS/mmc.cpp **** static bool prvQueryCard( BYTE ucCommand, DWORD ulCommandArgument, BYTE *pucRxBuffer, UINT uiRxLeng
 483              		.loc 1 738 0
 484              		.cfi_startproc
 485              		@ args = 0, pretend = 0, frame = 8
 486              		@ frame_needed = 0, uses_anonymous_args = 0
 487              	.LVL54:
 488 0000 73B5     		push	{r0, r1, r4, r5, r6, lr}	@
 489              	.LCFI5:
 490              		.cfi_def_cfa_offset 24
 491              		.cfi_offset 0, -24
 492              		.cfi_offset 1, -20
 493              		.cfi_offset 4, -16
 494              		.cfi_offset 5, -12
 495              		.cfi_offset 6, -8
 496              		.cfi_offset 14, -4
 738:FatFS/mmc.cpp **** static bool prvQueryCard( BYTE ucCommand, DWORD ulCommandArgument, BYTE *pucRxBuffer, UINT uiRxLeng
 497              		.loc 1 738 0
 498 0002 0C46     		mov	r4, r1	@ pucRxBuffer, pucRxBuffer
 499              	.LBB25:
 750:FatFS/mmc.cpp **** 	if( prvSendCommand( ucCommand, ulCommandArgument ) <= 1 )
 500              		.loc 1 750 0
 501 0004 0021     		movs	r1, #0	@,
 502              	.LVL55:
 503              	.LBE25:
 738:FatFS/mmc.cpp **** static bool prvQueryCard( BYTE ucCommand, DWORD ulCommandArgument, BYTE *pucRxBuffer, UINT uiRxLeng
 504              		.loc 1 738 0
 505 0006 1546     		mov	r5, r2	@ uiRxLength, uiRxLength
 506              	.LBB26:
 750:FatFS/mmc.cpp **** 	if( prvSendCommand( ucCommand, ulCommandArgument ) <= 1 )
 507              		.loc 1 750 0
 508 0008 FFF7FEFF 		bl	_ZL14prvSendCommandhm	@
 509              	.LVL56:
 510 000c 0128     		cmp	r0, #1	@,
 511 000e 01D9     		bls	.L39	@,
 512              	.LVL57:
 513              	.L43:
 514              	.LBE26:
 740:FatFS/mmc.cpp **** bool xReturn = false;
 515              		.loc 1 740 0
 516 0010 0020     		movs	r0, #0	@ xReturn,
 517 0012 23E0     		b	.L40	@
 518              	.LVL58:
 519              	.L39:
 520              	.LBB27:
 752:FatFS/mmc.cpp **** 		xTimeAtStart = xTaskGetTickCount();
 521              		.loc 1 752 0
 522 0014 FFF7FEFF 		bl	xTaskGetTickCount	@
 523              	.LVL59:
 524 0018 0646     		mov	r6, r0	@ xTimeAtStart,
 525              	.LVL60:
 526              	.L44:
 756:FatFS/mmc.cpp **** 			spiRead(pucRxBuffer, sizeof(*pucRxBuffer));
 527              		.loc 1 756 0
 528 001a 0122     		movs	r2, #1	@,
ARM GAS  /tmp/ccx2XJRZ.s 			page 26


 529 001c 0020     		movs	r0, #0	@,
 530 001e 2146     		mov	r1, r4	@, pucRxBuffer
 531 0020 FFF7FEFF 		bl	_Z11spiTransferPKhPhj	@
 532              	.LVL61:
 758:FatFS/mmc.cpp **** 			if( ( xTaskGetTickCount() - xTimeAtStart ) > xTimeOut )
 533              		.loc 1 758 0
 534 0024 FFF7FEFF 		bl	xTaskGetTickCount	@
 535              	.LVL62:
 754:FatFS/mmc.cpp **** 		do
 536              		.loc 1 754 0
 537 0028 2278     		ldrb	r2, [r4, #0]	@ zero_extendqisi2	@ *pucRxBuffer_4(D), *pucRxBuffer_4(D)
 758:FatFS/mmc.cpp **** 			if( ( xTaskGetTickCount() - xTimeAtStart ) > xTimeOut )
 538              		.loc 1 758 0
 539 002a 801B     		subs	r0, r0, r6	@ tmp148,, xTimeAtStart
 760:FatFS/mmc.cpp **** 				cTimedOut = ( BYTE ) pdTRUE;
 540              		.loc 1 760 0
 541 002c C828     		cmp	r0, #200	@ tmp148,
 542 002e 94BF     		ite	ls
 543 0030 0023     		movls	r3, #0	@ D.7941,
 544 0032 0123     		movhi	r3, #1	@ D.7941,
 545              	.LVL63:
 754:FatFS/mmc.cpp **** 		do
 546              		.loc 1 754 0
 547 0034 FE2A     		cmp	r2, #254	@ *pucRxBuffer_4(D),
 548 0036 01D1     		bne	.L41	@,
 765:FatFS/mmc.cpp **** 		if( cTimedOut != pdTRUE )
 549              		.loc 1 765 0
 550 0038 1BB1     		cbz	r3, .L42	@ D.7941,
 551 003a E9E7     		b	.L43	@
 552              	.L41:
 754:FatFS/mmc.cpp **** 		do
 553              		.loc 1 754 0
 554 003c 002B     		cmp	r3, #0	@ D.7941
 555 003e ECD0     		beq	.L44	@
 556 0040 E6E7     		b	.L43	@
 557              	.L42:
 768:FatFS/mmc.cpp **** 			if(spiRead(pucRxBuffer, uiRxLength) == uiRxLength )
 558              		.loc 1 768 0
 559 0042 0020     		movs	r0, #0	@,
 560              	.LVL64:
 561 0044 2146     		mov	r1, r4	@, pucRxBuffer
 562 0046 2A46     		mov	r2, r5	@, uiRxLength
 563 0048 FFF7FEFF 		bl	_Z11spiTransferPKhPhj	@
 564              	.LVL65:
 565 004c A842     		cmp	r0, r5	@, uiRxLength
 566 004e DFD1     		bne	.L43	@,
 567              	.LBE27:
 568              	.LBB28:
 569              	.LBB29:
 570              	.LBB30:
 771:FatFS/mmc.cpp **** 				spiRead(cDummy, sizeof(cDummy));
 571              		.loc 1 771 0
 572 0050 0020     		movs	r0, #0	@,
 573 0052 01A9     		add	r1, sp, #4	@,,
 574 0054 0222     		movs	r2, #2	@,
 575 0056 FFF7FEFF 		bl	_Z11spiTransferPKhPhj	@
 576              	.LVL66:
ARM GAS  /tmp/ccx2XJRZ.s 			page 27


 577 005a 0120     		movs	r0, #1	@ xReturn,
 578              	.LVL67:
 579              	.L40:
 580              	.LBE30:
 581              	.LBE29:
 582              	.LBE28:
 778:FatFS/mmc.cpp **** }
 583              		.loc 1 778 0
 584 005c 7CBD     		pop	{r2, r3, r4, r5, r6, pc}
 585              		.cfi_endproc
 586              	.LFE71:
 587              		.size	_ZL12prvQueryCardhmPhj.constprop.1, .-_ZL12prvQueryCardhmPhj.constprop.1
 588              		.section	.text._ZL19prvReceiveDataBlockPhj.constprop.2,"ax",%progbits
 589              		.align	1
 590              		.thumb
 591              		.thumb_func
 592              		.type	_ZL19prvReceiveDataBlockPhj.constprop.2, %function
 593              	_ZL19prvReceiveDataBlockPhj.constprop.2:
 594              	.LFB70:
 781:FatFS/mmc.cpp **** static bool prvReceiveDataBlock( BYTE *pcBuffer, UINT xBytesToRead )
 595              		.loc 1 781 0
 596              		.cfi_startproc
 597              		@ args = 0, pretend = 0, frame = 8
 598              		@ frame_needed = 0, uses_anonymous_args = 0
 599              	.LVL68:
 600 0000 37B5     		push	{r0, r1, r2, r4, r5, lr}	@
 601              	.LCFI6:
 602              		.cfi_def_cfa_offset 24
 603              		.cfi_offset 0, -24
 604              		.cfi_offset 1, -20
 605              		.cfi_offset 2, -16
 606              		.cfi_offset 4, -12
 607              		.cfi_offset 5, -8
 608              		.cfi_offset 14, -4
 609              	.LBB31:
 785:FatFS/mmc.cpp **** BYTE pcToken[ 2 ] = { 0x00, 0x00 };
 610              		.loc 1 785 0
 611 0002 0023     		movs	r3, #0	@ tmp143,
 612              	.LBE31:
 781:FatFS/mmc.cpp **** static bool prvReceiveDataBlock( BYTE *pcBuffer, UINT xBytesToRead )
 613              		.loc 1 781 0
 614 0004 0446     		mov	r4, r0	@ pcBuffer, pcBuffer
 615              	.LBB32:
 785:FatFS/mmc.cpp **** BYTE pcToken[ 2 ] = { 0x00, 0x00 };
 616              		.loc 1 785 0
 617 0006 8DF80430 		strb	r3, [sp, #4]	@ tmp143, pcToken
 618 000a 8DF80530 		strb	r3, [sp, #5]	@ tmp143, pcToken
 619              	.LVL69:
 788:FatFS/mmc.cpp **** 	xTimeOnEntering = xTaskGetTickCount();
 620              		.loc 1 788 0
 621 000e FFF7FEFF 		bl	xTaskGetTickCount	@
 622              	.LVL70:
 623 0012 0546     		mov	r5, r0	@ xTimeOnEntering,
 624              	.LVL71:
 625              	.L51:
 793:FatFS/mmc.cpp **** 		spiRead(pcToken, sizeof(*pcToken));
 626              		.loc 1 793 0
ARM GAS  /tmp/ccx2XJRZ.s 			page 28


 627 0014 0020     		movs	r0, #0	@,
 628 0016 0122     		movs	r2, #1	@,
 629 0018 01A9     		add	r1, sp, #4	@,,
 630 001a FFF7FEFF 		bl	_Z11spiTransferPKhPhj	@
 631              	.LVL72:
 791:FatFS/mmc.cpp **** 	do
 632              		.loc 1 791 0
 633 001e 9DF80400 		ldrb	r0, [sp, #4]	@ zero_extendqisi2	@ pcToken, pcToken
 634 0022 FF28     		cmp	r0, #255	@ pcToken,
 635 0024 04D1     		bne	.L50	@,
 794:FatFS/mmc.cpp **** 	} while( ( *pcToken == 0xff ) && ( ( xTaskGetTickCount() - xTimeOnEntering ) < xMaxTimeToWait_ms )
 636              		.loc 1 794 0
 637 0026 FFF7FEFF 		bl	xTaskGetTickCount	@
 638              	.LVL73:
 791:FatFS/mmc.cpp **** 	do
 639              		.loc 1 791 0
 640 002a 411B     		subs	r1, r0, r5	@ tmp149,, xTimeOnEntering
 641 002c C729     		cmp	r1, #199	@ tmp149,
 642 002e F1D9     		bls	.L51	@,
 643              	.L50:
 797:FatFS/mmc.cpp **** 	if( *pcToken == 0xfe )
 644              		.loc 1 797 0
 645 0030 9DF80420 		ldrb	r2, [sp, #4]	@ zero_extendqisi2	@ pcToken, pcToken
 646 0034 FE2A     		cmp	r2, #254	@ pcToken,
 647 0036 08D1     		bne	.L55	@,
 800:FatFS/mmc.cpp **** 		if(spiRead(pcBuffer, xBytesToRead) == xBytesToRead )
 648              		.loc 1 800 0
 649 0038 0020     		movs	r0, #0	@,
 650 003a 2146     		mov	r1, r4	@, pcBuffer
 651 003c 4FF40072 		mov	r2, #512	@,
 652 0040 FFF7FEFF 		bl	_Z11spiTransferPKhPhj	@
 653              	.LVL74:
 654 0044 B0F5007F 		cmp	r0, #512	@,
 655 0048 01D0     		beq	.L52	@,
 656              	.L55:
 783:FatFS/mmc.cpp **** bool xReturn = false;
 657              		.loc 1 783 0
 658 004a 0020     		movs	r0, #0	@ xReturn,
 659 004c 05E0     		b	.L57	@
 660              	.L52:
 803:FatFS/mmc.cpp **** 			spiRead(pcToken, sizeof(pcToken));
 661              		.loc 1 803 0
 662 004e 0020     		movs	r0, #0	@,
 663 0050 01A9     		add	r1, sp, #4	@,,
 664 0052 0222     		movs	r2, #2	@,
 665 0054 FFF7FEFF 		bl	_Z11spiTransferPKhPhj	@
 666              	.LVL75:
 804:FatFS/mmc.cpp **** 			xReturn = true;
 667              		.loc 1 804 0
 668 0058 0120     		movs	r0, #1	@ xReturn,
 669              	.LVL76:
 670              	.L57:
 671              	.LBE32:
 809:FatFS/mmc.cpp **** }
 672              		.loc 1 809 0
 673 005a 3EBD     		pop	{r1, r2, r3, r4, r5, pc}
 674              		.cfi_endproc
ARM GAS  /tmp/ccx2XJRZ.s 			page 29


 675              	.LFE70:
 676              		.size	_ZL19prvReceiveDataBlockPhj.constprop.2, .-_ZL19prvReceiveDataBlockPhj.constprop.2
 677              		.section	.text.disk_initialize,"ax",%progbits
 678              		.align	1
 679              		.global	disk_initialize
 680              		.thumb
 681              		.thumb_func
 682              		.type	disk_initialize, %function
 683              	disk_initialize:
 684              	.LFB55:
 121:FatFS/mmc.cpp **** {
 685              		.loc 1 121 0
 686              		.cfi_startproc
 687              		@ args = 0, pretend = 0, frame = 16
 688              		@ frame_needed = 0, uses_anonymous_args = 0
 689              	.LVL77:
 690 0000 7FB5     		push	{r0, r1, r2, r3, r4, r5, r6, lr}	@
 691              	.LCFI7:
 692              		.cfi_def_cfa_offset 32
 693              		.cfi_offset 0, -32
 694              		.cfi_offset 1, -28
 695              		.cfi_offset 2, -24
 696              		.cfi_offset 3, -20
 697              		.cfi_offset 4, -16
 698              		.cfi_offset 5, -12
 699              		.cfi_offset 6, -8
 700              		.cfi_offset 14, -4
 701              	.LBB33:
 130:FatFS/mmc.cpp **** 	if (initialized == false)
 702              		.loc 1 130 0
 703 0002 4F4D     		ldr	r5, .L88	@ tmp164,
 704              	.LBE33:
 121:FatFS/mmc.cpp **** {
 705              		.loc 1 121 0
 706 0004 0446     		mov	r4, r0	@ cDriveNumber, cDriveNumber
 707              	.LBB34:
 130:FatFS/mmc.cpp **** 	if (initialized == false)
 708              		.loc 1 130 0
 709 0006 2B78     		ldrb	r3, [r5, #0]	@ zero_extendqisi2	@ initialized, initialized
 710 0008 5BB9     		cbnz	r3, .L59	@ initialized,
 132:FatFS/mmc.cpp **** 		gpioConfigurePin(SD_CS_GPIO, SD_CS_PIN, GPIO_OUT_PP_2MHz);
 711              		.loc 1 132 0
 712 000a 4E48     		ldr	r0, .L88+4	@,
 713              	.LVL78:
 714 000c 0C21     		movs	r1, #12	@,
 715 000e 40F20112 		movw	r2, #257	@,
 716 0012 FFF7FEFF 		bl	_Z16gpioConfigurePinP12GPIO_TypeDef7GpioPin17GpioConfiguration	@
 717              	.LVL79:
 133:FatFS/mmc.cpp **** 		SD_CS_bb = SD_CS_DEASSERTED;
 718              		.loc 1 133 0
 719 0016 4C48     		ldr	r0, .L88+8	@ tmp168,
 720 0018 0126     		movs	r6, #1	@ tmp169,
 721 001a 0660     		str	r6, [r0, #0]	@ tmp169, MEM[(volatile long unsigned int *)1111556784B]
 135:FatFS/mmc.cpp **** 		spiInitialize();
 722              		.loc 1 135 0
 723 001c FFF7FEFF 		bl	_Z13spiInitializev	@
 724              	.LVL80:
ARM GAS  /tmp/ccx2XJRZ.s 			page 30


 137:FatFS/mmc.cpp **** 		initialized = true;
 725              		.loc 1 137 0
 726 0020 2E70     		strb	r6, [r5, #0]	@ tmp169, initialized
 727              	.L59:
 140:FatFS/mmc.cpp **** 	if( cDriveNumber != 0 )
 728              		.loc 1 140 0
 729 0022 002C     		cmp	r4, #0	@ cDriveNumber
 730 0024 40F08780 		bne	.L75	@
 145:FatFS/mmc.cpp **** 	else if( ( xDiskStatus & STA_NOINIT ) != 0U )
 731              		.loc 1 145 0
 732 0028 4849     		ldr	r1, .L88+12	@ tmp173,
 733 002a 0A78     		ldrb	r2, [r1, #0]	@ zero_extendqisi2	@ xDiskStatus, xDiskStatus
 734 002c D207     		lsls	r2, r2, #31	@, xDiskStatus,
 735 002e 40F18480 		bpl	.L76	@,
 148:FatFS/mmc.cpp **** 		spiSetBaudRate(mmcSD_INTERFACE_SLOW_CLOCK);
 736              		.loc 1 148 0
 737 0032 4748     		ldr	r0, .L88+16	@,
 738 0034 FFF7FEFF 		bl	_Z14spiSetBaudRatem	@
 739              	.LVL81:
 151:FatFS/mmc.cpp **** 		spiRead(ucBuffer, mmc80_CLOCKS_IN_BYTES);
 740              		.loc 1 151 0
 741 0038 0A22     		movs	r2, #10	@,
 742 003a 01A9     		add	r1, sp, #4	@,,
 743 003c 2046     		mov	r0, r4	@, cDriveNumber
 744 003e FFF7FEFF 		bl	_Z11spiTransferPKhPhj	@
 745              	.LVL82:
 154:FatFS/mmc.cpp **** 		if( prvSendCommand( mmcCMD0_SOFTWARE_RESET, 0 ) == 1 )
 746              		.loc 1 154 0
 747 0042 4020     		movs	r0, #64	@,
 748 0044 2146     		mov	r1, r4	@, cDriveNumber
 749 0046 FFF7FEFF 		bl	_ZL14prvSendCommandhm	@
 750              	.LVL83:
 751 004a 0128     		cmp	r0, #1	@,
 752 004c 41D1     		bne	.L71	@,
 753              	.L61:
 157:FatFS/mmc.cpp **** 			xTimeAtStart = xTaskGetTickCount();
 754              		.loc 1 157 0
 755 004e FFF7FEFF 		bl	xTaskGetTickCount	@
 756              	.LVL84:
 159:FatFS/mmc.cpp **** 			if( prvSendCommand( mmcCMD8_CHECK_VOLTAGE_RANGE, 0x1AA ) == 1 )
 757              		.loc 1 159 0
 758 0052 4FF4D571 		mov	r1, #426	@,
 157:FatFS/mmc.cpp **** 			xTimeAtStart = xTaskGetTickCount();
 759              		.loc 1 157 0
 760 0056 0546     		mov	r5, r0	@ xTimeAtStart,
 761              	.LVL85:
 159:FatFS/mmc.cpp **** 			if( prvSendCommand( mmcCMD8_CHECK_VOLTAGE_RANGE, 0x1AA ) == 1 )
 762              		.loc 1 159 0
 763 0058 4820     		movs	r0, #72	@,
 764              	.LVL86:
 765 005a FFF7FEFF 		bl	_ZL14prvSendCommandhm	@
 766              	.LVL87:
 767 005e 0128     		cmp	r0, #1	@,
 768 0060 1AD1     		bne	.L63	@,
 163:FatFS/mmc.cpp **** 				spiRead(ucBuffer, mmcOCR_LENGTH);
 769              		.loc 1 163 0
 770 0062 2046     		mov	r0, r4	@, cDriveNumber
ARM GAS  /tmp/ccx2XJRZ.s 			page 31


 771 0064 0422     		movs	r2, #4	@,
 772 0066 01A9     		add	r1, sp, #4	@,,
 773 0068 FFF7FEFF 		bl	_Z11spiTransferPKhPhj	@
 774              	.LVL88:
 165:FatFS/mmc.cpp **** 				if( ( ucBuffer[ 2 ] == 0x01 ) && ( ucBuffer[ 3 ] == 0xAA ) )
 775              		.loc 1 165 0
 776 006c 9DF80640 		ldrb	r4, [sp, #6]	@ zero_extendqisi2	@ ucBuffer, ucBuffer
 777 0070 012C     		cmp	r4, #1	@ ucBuffer,
 778 0072 2ED1     		bne	.L71	@,
 165:FatFS/mmc.cpp **** 				if( ( ucBuffer[ 2 ] == 0x01 ) && ( ucBuffer[ 3 ] == 0xAA ) )
 779              		.loc 1 165 0 is_stmt 0 discriminator 1
 780 0074 9DF80710 		ldrb	r1, [sp, #7]	@ zero_extendqisi2	@ ucBuffer, ucBuffer
 781 0078 AA29     		cmp	r1, #170	@ ucBuffer,
 782 007a 2AD1     		bne	.L71	@,
 783              	.L81:
 171:FatFS/mmc.cpp **** 					while( ( ( xTaskGetTickCount() - xTimeAtStart ) < xTimeOut ) && ( prvSendCommand( mmcACMD41_ST
 784              		.loc 1 171 0 is_stmt 1
 785 007c FFF7FEFF 		bl	xTaskGetTickCount	@
 786              	.LVL89:
 787 0080 421B     		subs	r2, r0, r5	@ tmp186,, xTimeAtStart
 788 0082 B2F57A7F 		cmp	r2, #1000	@ tmp186,
 789 0086 2DD2     		bcs	.L65	@,
 171:FatFS/mmc.cpp **** 					while( ( ( xTaskGetTickCount() - xTimeAtStart ) < xTimeOut ) && ( prvSendCommand( mmcACMD41_ST
 790              		.loc 1 171 0 is_stmt 0 discriminator 2
 791 0088 E920     		movs	r0, #233	@,
 792 008a 4FF08041 		mov	r1, #1073741824	@,
 793 008e FFF7FEFF 		bl	_ZL14prvSendCommandhm	@
 794              	.LVL90:
 795 0092 0028     		cmp	r0, #0	@
 796 0094 F2D1     		bne	.L81	@
 797 0096 25E0     		b	.L65	@
 798              	.L63:
 196:FatFS/mmc.cpp **** 				if( prvSendCommand( mmcACMD41_START_INIT_SDC, 0 ) <= 1 )
 799              		.loc 1 196 0 is_stmt 1
 800 0098 E920     		movs	r0, #233	@,
 801 009a 2146     		mov	r1, r4	@, cDriveNumber
 802 009c FFF7FEFF 		bl	_ZL14prvSendCommandhm	@
 803              	.LVL91:
 199:FatFS/mmc.cpp **** 					cCardType = CT_SD1;
 804              		.loc 1 199 0
 805 00a0 0128     		cmp	r0, #1	@,
 806 00a2 8CBF     		ite	hi	@
 807 00a4 0124     		movhi	r4, #1	@, cCardType,
 808 00a6 0224     		movls	r4, #2	@, cCardType,
 809 00a8 8CBF     		ite	hi	@
 810 00aa 4126     		movhi	r6, #65	@, cCommand,
 811 00ac E926     		movls	r6, #233	@, cCommand,
 812              	.LVL92:
 813              	.L70:
 209:FatFS/mmc.cpp **** 				while( ( ( xTaskGetTickCount() - xTimeAtStart ) < xTimeOut ) && ( prvSendCommand( cCommand, 0 )
 814              		.loc 1 209 0 discriminator 1
 815 00ae FFF7FEFF 		bl	xTaskGetTickCount	@
 816              	.LVL93:
 817 00b2 431B     		subs	r3, r0, r5	@ tmp191,, xTimeAtStart
 818 00b4 B3F57A7F 		cmp	r3, #1000	@ tmp191,
 819 00b8 0DD3     		bcc	.L87	@,
 820              	.L69:
ARM GAS  /tmp/ccx2XJRZ.s 			page 32


 214:FatFS/mmc.cpp **** 				if( ( ( xTaskGetTickCount() - xTimeAtStart ) >= xTimeOut ) || ( prvSendCommand( mmcCMD16_CHANGE
 821              		.loc 1 214 0
 822 00ba FFF7FEFF 		bl	xTaskGetTickCount	@
 823              	.LVL94:
 824 00be 401B     		subs	r0, r0, r5	@ tmp216,, xTimeAtStart
 825 00c0 B0F57A7F 		cmp	r0, #1000	@ tmp216,
 826 00c4 05D2     		bcs	.L71	@,
 214:FatFS/mmc.cpp **** 				if( ( ( xTaskGetTickCount() - xTimeAtStart ) >= xTimeOut ) || ( prvSendCommand( mmcCMD16_CHANGE
 827              		.loc 1 214 0 is_stmt 0 discriminator 2
 828 00c6 5020     		movs	r0, #80	@,
 829 00c8 4FF40071 		mov	r1, #512	@,
 830 00cc FFF7FEFF 		bl	_ZL14prvSendCommandhm	@
 831              	.LVL95:
 832 00d0 08B3     		cbz	r0, .L62	@,
 833              	.LVL96:
 834              	.L71:
 153:FatFS/mmc.cpp **** 		cCardType = 0;
 835              		.loc 1 153 0 is_stmt 1
 836 00d2 0024     		movs	r4, #0	@ cCardType,
 837 00d4 1FE0     		b	.L62	@
 838              	.LVL97:
 839              	.L87:
 209:FatFS/mmc.cpp **** 				while( ( ( xTaskGetTickCount() - xTimeAtStart ) < xTimeOut ) && ( prvSendCommand( cCommand, 0 )
 840              		.loc 1 209 0 discriminator 2
 841 00d6 3046     		mov	r0, r6	@, cCommand
 842 00d8 0021     		movs	r1, #0	@,
 843 00da FFF7FEFF 		bl	_ZL14prvSendCommandhm	@
 844              	.LVL98:
 845 00de 0028     		cmp	r0, #0	@
 846 00e0 E5D1     		bne	.L70	@
 847 00e2 EAE7     		b	.L69	@
 848              	.LVL99:
 849              	.L65:
 176:FatFS/mmc.cpp **** 					if( ( ( xTaskGetTickCount() - xTimeAtStart ) < xTimeOut ) && ( prvSendCommand( mmcCMD58_READ_O
 850              		.loc 1 176 0
 851 00e4 FFF7FEFF 		bl	xTaskGetTickCount	@
 852              	.LVL100:
 853 00e8 431B     		subs	r3, r0, r5	@ tmp208,, xTimeAtStart
 854 00ea B3F57A7F 		cmp	r3, #1000	@ tmp208,
 855 00ee F0D2     		bcs	.L71	@,
 176:FatFS/mmc.cpp **** 					if( ( ( xTaskGetTickCount() - xTimeAtStart ) < xTimeOut ) && ( prvSendCommand( mmcCMD58_READ_O
 856              		.loc 1 176 0 is_stmt 0 discriminator 1
 857 00f0 7A20     		movs	r0, #122	@,
 858 00f2 0021     		movs	r1, #0	@,
 859 00f4 FFF7FEFF 		bl	_ZL14prvSendCommandhm	@
 860              	.LVL101:
 861 00f8 0028     		cmp	r0, #0	@
 862 00fa EAD1     		bne	.L71	@
 863              	.L67:
 179:FatFS/mmc.cpp **** 						spiRead(ucBuffer, mmcOCR_LENGTH);
 864              		.loc 1 179 0 is_stmt 1
 865 00fc 01A9     		add	r1, sp, #4	@,,
 866 00fe 0422     		movs	r2, #4	@,
 867 0100 FFF7FEFF 		bl	_Z11spiTransferPKhPhj	@
 868              	.LVL102:
 182:FatFS/mmc.cpp **** 						if( ( ucBuffer[ 0 ] & 0x40 ) != 0 )
 869              		.loc 1 182 0
ARM GAS  /tmp/ccx2XJRZ.s 			page 33


 870 0104 9DF80400 		ldrb	r0, [sp, #4]	@ zero_extendqisi2	@ ucBuffer, ucBuffer
 871 0108 00F04004 		and	r4, r0, #64	@ tmp214, ucBuffer,
 872 010c E1B2     		uxtb	r1, r4	@ tmp215, tmp214
 184:FatFS/mmc.cpp **** 							cCardType = CT_SD2 | CT_BLOCK;
 873              		.loc 1 184 0
 874 010e 0029     		cmp	r1, #0	@ tmp215,
 875 0110 0CBF     		ite	eq	@
 876 0112 0424     		moveq	r4, #4	@, cCardType,
 877 0114 0C24     		movne	r4, #12	@, cCardType,
 878              	.LVL103:
 879              	.L62:
 222:FatFS/mmc.cpp **** 		ucInsertedCardType = cCardType;
 880              		.loc 1 222 0
 881 0116 0F4A     		ldr	r2, .L88+20	@ tmp195,
 882 0118 1470     		strb	r4, [r2, #0]	@ cCardType, ucInsertedCardType
 223:FatFS/mmc.cpp **** 		prvDeselectCard();
 883              		.loc 1 223 0
 884 011a FFF7FEFF 		bl	_ZL15prvDeselectCardv	@
 885              	.LVL104:
 225:FatFS/mmc.cpp **** 		if( cCardType != 0 )
 886              		.loc 1 225 0
 887 011e 3CB1     		cbz	r4, .L72	@ cCardType,
 228:FatFS/mmc.cpp **** 			xDiskStatus &= ~STA_NOINIT;
 888              		.loc 1 228 0
 889 0120 0A4B     		ldr	r3, .L88+12	@ tmp197,
 890 0122 1878     		ldrb	r0, [r3, #0]	@ zero_extendqisi2	@ xDiskStatus, xDiskStatus
 891 0124 00F0FE01 		and	r1, r0, #254	@ xDiskStatus.74, xDiskStatus,
 229:FatFS/mmc.cpp **** 			spiSetBaudRate(mmcSD_INTERFACE_FAST_CLOCK);
 892              		.loc 1 229 0
 893 0128 0B48     		ldr	r0, .L88+24	@,
 228:FatFS/mmc.cpp **** 			xDiskStatus &= ~STA_NOINIT;
 894              		.loc 1 228 0
 895 012a 1970     		strb	r1, [r3, #0]	@ xDiskStatus.74, xDiskStatus
 229:FatFS/mmc.cpp **** 			spiSetBaudRate(mmcSD_INTERFACE_FAST_CLOCK);
 896              		.loc 1 229 0
 897 012c FFF7FEFF 		bl	_Z14spiSetBaudRatem	@
 898              	.LVL105:
 899              	.L72:
 232:FatFS/mmc.cpp **** 		xReturn = xDiskStatus;
 900              		.loc 1 232 0
 901 0130 064A     		ldr	r2, .L88+12	@ tmp204,
 902 0132 1078     		ldrb	r0, [r2, #0]	@ zero_extendqisi2	@ xDiskStatus, xDiskStatus
 903              	.LVL106:
 904 0134 02E0     		b	.L85	@
 905              	.LVL107:
 906              	.L75:
 143:FatFS/mmc.cpp **** 		xReturn = STA_NOINIT;
 907              		.loc 1 143 0
 908 0136 0120     		movs	r0, #1	@ xReturn,
 909 0138 00E0     		b	.L85	@
 910              	.L76:
 123:FatFS/mmc.cpp **** DSTATUS xReturn = 0;
 911              		.loc 1 123 0
 912 013a 2046     		mov	r0, r4	@ xReturn, cDriveNumber
 913              	.LVL108:
 914              	.L85:
 915              	.LBE34:
ARM GAS  /tmp/ccx2XJRZ.s 			page 34


 236:FatFS/mmc.cpp **** }
 916              		.loc 1 236 0
 917 013c 04B0     		add	sp, sp, #16	@,,
 918 013e 70BD     		pop	{r4, r5, r6, pc}
 919              	.L89:
 920              		.align	2
 921              	.L88:
 922 0140 00000000 		.word	.LANCHOR1
 923 0144 00080240 		.word	1073874944
 924 0148 B0024142 		.word	1111556784
 925 014c 00000000 		.word	.LANCHOR2
 926 0150 A0860100 		.word	100000
 927 0154 00000000 		.word	.LANCHOR3
 928 0158 80969800 		.word	10000000
 929              		.cfi_endproc
 930              	.LFE55:
 931              		.size	disk_initialize, .-disk_initialize
 932              		.section	.text.disk_status,"ax",%progbits
 933              		.align	1
 934              		.global	disk_status
 935              		.thumb
 936              		.thumb_func
 937              		.type	disk_status, %function
 938              	disk_status:
 939              	.LFB56:
 242:FatFS/mmc.cpp **** {
 940              		.loc 1 242 0
 941              		.cfi_startproc
 942              		@ args = 0, pretend = 0, frame = 0
 943              		@ frame_needed = 0, uses_anonymous_args = 0
 944              		@ link register save eliminated.
 945              	.LVL109:
 946              	.LBB39:
 947              	.LBB40:
 948              	.LBB41:
 617:FatFS/mmc.cpp **** 	xDiskStatus &= ~STA_NODISK;
 949              		.loc 1 617 0
 950 0000 044B     		ldr	r3, .L93	@ tmp139,
 951 0002 1A78     		ldrb	r2, [r3, #0]	@ zero_extendqisi2	@ xDiskStatus, xDiskStatus
 952 0004 02F0FD01 		and	r1, r2, #253	@ xDiskStatus.13, xDiskStatus,
 953 0008 1970     		strb	r1, [r3, #0]	@ xDiskStatus.13, xDiskStatus
 954              	.LVL110:
 955              	.LBE41:
 956              	.LBE40:
 248:FatFS/mmc.cpp **** 	if( cDriveNumber != 0 )
 957              		.loc 1 248 0
 958 000a 08B9     		cbnz	r0, .L92	@ cDriveNumber,
 254:FatFS/mmc.cpp **** 		xReturn = xDiskStatus;
 959              		.loc 1 254 0
 960 000c 1878     		ldrb	r0, [r3, #0]	@ zero_extendqisi2	@ xDiskStatus, xDiskStatus
 961              	.LVL111:
 962 000e 7047     		bx	lr	@
 963              	.LVL112:
 964              	.L92:
 250:FatFS/mmc.cpp **** 		xReturn = STA_NOINIT;
 965              		.loc 1 250 0
 966 0010 0120     		movs	r0, #1	@ xReturn,
ARM GAS  /tmp/ccx2XJRZ.s 			page 35


 967              	.LVL113:
 968              	.LBE39:
 258:FatFS/mmc.cpp **** }
 969              		.loc 1 258 0
 970 0012 7047     		bx	lr	@
 971              	.L94:
 972              		.align	2
 973              	.L93:
 974 0014 00000000 		.word	.LANCHOR2
 975              		.cfi_endproc
 976              	.LFE56:
 977              		.size	disk_status, .-disk_status
 978              		.section	.text.disk_read,"ax",%progbits
 979              		.align	1
 980              		.global	disk_read
 981              		.thumb
 982              		.thumb_func
 983              		.type	disk_read, %function
 984              	disk_read:
 985              	.LFB57:
 270:FatFS/mmc.cpp **** {
 986              		.loc 1 270 0
 987              		.cfi_startproc
 988              		@ args = 0, pretend = 0, frame = 0
 989              		@ frame_needed = 0, uses_anonymous_args = 0
 990              	.LVL114:
 991 0000 38B5     		push	{r3, r4, r5, lr}	@
 992              	.LCFI8:
 993              		.cfi_def_cfa_offset 16
 994              		.cfi_offset 3, -16
 995              		.cfi_offset 4, -12
 996              		.cfi_offset 5, -8
 997              		.cfi_offset 14, -4
 270:FatFS/mmc.cpp **** {
 998              		.loc 1 270 0
 999 0002 0D46     		mov	r5, r1	@ pcBuffer, pcBuffer
 1000 0004 1C46     		mov	r4, r3	@ xCount, xCount
 1001 0006 1146     		mov	r1, r2	@ ulSector, ulSector
 1002              	.LVL115:
 1003              	.LBB46:
 273:FatFS/mmc.cpp **** 	if( ( cDriveNumber != 0 ) || ( xCount == 0 ) )
 1004              		.loc 1 273 0
 1005 0008 0028     		cmp	r0, #0	@ cDriveNumber
 1006 000a 35D1     		bne	.L103	@
 273:FatFS/mmc.cpp **** 	if( ( cDriveNumber != 0 ) || ( xCount == 0 ) )
 1007              		.loc 1 273 0 is_stmt 0 discriminator 1
 1008 000c 002B     		cmp	r3, #0	@ xCount
 1009 000e 33D0     		beq	.L103	@
 277:FatFS/mmc.cpp **** 	else if( ( ( xDiskStatus & STA_NOINIT ) != 0 ) || ( prvIsDiskInserted() != pdTRUE ) )
 1010              		.loc 1 277 0 is_stmt 1
 1011 0010 1B4B     		ldr	r3, .L110	@ tmp162,
 1012              	.LVL116:
 1013 0012 1A78     		ldrb	r2, [r3, #0]	@ zero_extendqisi2	@ xDiskStatus, xDiskStatus
 1014              	.LVL117:
 1015 0014 D007     		lsls	r0, r2, #31	@, xDiskStatus,
 1016              	.LVL118:
 1017 0016 31D4     		bmi	.L104	@,
ARM GAS  /tmp/ccx2XJRZ.s 			page 36


 1018              	.LBB47:
 1019              	.LBB48:
 617:FatFS/mmc.cpp **** 	xDiskStatus &= ~STA_NODISK;
 1020              		.loc 1 617 0
 1021 0018 1878     		ldrb	r0, [r3, #0]	@ zero_extendqisi2	@ xDiskStatus, xDiskStatus
 1022 001a 00F0FD02 		and	r2, r0, #253	@ xDiskStatus.13, xDiskStatus,
 1023 001e 1A70     		strb	r2, [r3, #0]	@ xDiskStatus.13, xDiskStatus
 1024              	.LVL119:
 1025              	.LBE48:
 1026              	.LBE47:
 283:FatFS/mmc.cpp **** 		if( ( ucInsertedCardType & CT_BLOCK ) == 0U )
 1027              		.loc 1 283 0
 1028 0020 184B     		ldr	r3, .L110+4	@ tmp174,
 1029 0022 1878     		ldrb	r0, [r3, #0]	@ zero_extendqisi2	@ ucInsertedCardType, ucInsertedCardType
 1030 0024 00F00802 		and	r2, r0, #8	@ tmp178, ucInsertedCardType,
 1031 0028 D3B2     		uxtb	r3, r2	@ tmp179, tmp178
 1032 002a 03B9     		cbnz	r3, .L97	@ tmp179,
 286:FatFS/mmc.cpp **** 			ulSector *= mmcSECTOR_SIZE;
 1033              		.loc 1 286 0
 1034 002c 4902     		lsls	r1, r1, #9	@ ulSector, ulSector,
 1035              	.LVL120:
 1036              	.L97:
 289:FatFS/mmc.cpp **** 		if( xCount == 1 )
 1037              		.loc 1 289 0
 1038 002e 012C     		cmp	r4, #1	@ xCount,
 1039 0030 0AD1     		bne	.L98	@,
 292:FatFS/mmc.cpp **** 			if( prvSendCommand( mmcCMD17_READ_SINGLE_BLOCK, ulSector ) == 0 )
 1040              		.loc 1 292 0
 1041 0032 5120     		movs	r0, #81	@,
 1042 0034 FFF7FEFF 		bl	_ZL14prvSendCommandhm	@
 1043              	.LVL121:
 1044 0038 C0B9     		cbnz	r0, .L99	@,
 294:FatFS/mmc.cpp **** 				if( prvReceiveDataBlock( pcBuffer, mmcSECTOR_SIZE ) == true )
 1045              		.loc 1 294 0
 1046 003a 2846     		mov	r0, r5	@, pcBuffer
 1047 003c FFF7FEFF 		bl	_ZL19prvReceiveDataBlockPhj.constprop.2	@
 1048              	.LVL122:
 1049 0040 80F00101 		eor	r1, r0, #1	@ tmp182,,
 296:FatFS/mmc.cpp **** 					xCount = 0;
 1050              		.loc 1 296 0
 1051 0044 CCB2     		uxtb	r4, r1	@ xCount, tmp182
 1052 0046 11E0     		b	.L99	@
 1053              	.LVL123:
 1054              	.L98:
 303:FatFS/mmc.cpp **** 			if( prvSendCommand( mmcCMD18_READ_MULTI_BLOCK, ulSector ) == 0 )
 1055              		.loc 1 303 0
 1056 0048 5220     		movs	r0, #82	@,
 1057 004a FFF7FEFF 		bl	_ZL14prvSendCommandhm	@
 1058              	.LVL124:
 1059 004e 68B9     		cbnz	r0, .L99	@,
 1060              	.LVL125:
 1061              	.L107:
 307:FatFS/mmc.cpp **** 					if( prvReceiveDataBlock( pcBuffer, mmcSECTOR_SIZE ) == false )
 1062              		.loc 1 307 0
 1063 0050 2846     		mov	r0, r5	@, pcBuffer
 1064 0052 FFF7FEFF 		bl	_ZL19prvReceiveDataBlockPhj.constprop.2	@
 1065              	.LVL126:
ARM GAS  /tmp/ccx2XJRZ.s 			page 37


 1066 0056 28B1     		cbz	r0, .L100	@,
 305:FatFS/mmc.cpp **** 				do
 1067              		.loc 1 305 0
 1068 0058 013C     		subs	r4, r4, #1	@ tmp185, xCount,
 1069              	.LVL127:
 1070 005a 14F0FF04 		ands	r4, r4, #255	@ xCount, tmp185,
 1071              	.LVL128:
 312:FatFS/mmc.cpp **** 					pcBuffer += mmcSECTOR_SIZE;
 1072              		.loc 1 312 0
 1073 005e 05F50075 		add	r5, r5, #512	@ pcBuffer, pcBuffer,
 1074              	.LVL129:
 305:FatFS/mmc.cpp **** 				do
 1075              		.loc 1 305 0
 1076 0062 F5D1     		bne	.L107	@,
 1077              	.L100:
 1078              	.LVL130:
 315:FatFS/mmc.cpp **** 				prvSendCommand( mmcCMD12_STOP, 0 );
 1079              		.loc 1 315 0
 1080 0064 4C20     		movs	r0, #76	@,
 1081 0066 0021     		movs	r1, #0	@,
 1082 0068 FFF7FEFF 		bl	_ZL14prvSendCommandhm	@
 1083              	.LVL131:
 1084              	.L99:
 319:FatFS/mmc.cpp **** 		prvDeselectCard();
 1085              		.loc 1 319 0
 1086 006c FFF7FEFF 		bl	_ZL15prvDeselectCardv	@
 1087              	.LVL132:
 275:FatFS/mmc.cpp **** 		xReturn = RES_PARERR;
 1088              		.loc 1 275 0
 1089 0070 201C     		adds	r0, r4, #0	@ xReturn, xCount,
 1090 0072 18BF     		it	ne
 1091 0074 0120     		movne	r0, #1	@ xReturn,
 1092 0076 38BD     		pop	{r3, r4, r5, pc}	@
 1093              	.LVL133:
 1094              	.L103:
 1095 0078 0420     		movs	r0, #4	@ xReturn,
 1096              	.LVL134:
 1097 007a 38BD     		pop	{r3, r4, r5, pc}	@
 1098              	.LVL135:
 1099              	.L104:
 279:FatFS/mmc.cpp **** 		xReturn = RES_NOTRDY;
 1100              		.loc 1 279 0
 1101 007c 0320     		movs	r0, #3	@ xReturn,
 1102              	.LVL136:
 1103              	.LBE46:
 332:FatFS/mmc.cpp **** }
 1104              		.loc 1 332 0
 1105 007e 38BD     		pop	{r3, r4, r5, pc}	@
 1106              	.L111:
 1107              		.align	2
 1108              	.L110:
 1109 0080 00000000 		.word	.LANCHOR2
 1110 0084 00000000 		.word	.LANCHOR3
 1111              		.cfi_endproc
 1112              	.LFE57:
 1113              		.size	disk_read, .-disk_read
 1114              		.section	.text.disk_write,"ax",%progbits
ARM GAS  /tmp/ccx2XJRZ.s 			page 38


 1115              		.align	1
 1116              		.global	disk_write
 1117              		.thumb
 1118              		.thumb_func
 1119              		.type	disk_write, %function
 1120              	disk_write:
 1121              	.LFB58:
 347:FatFS/mmc.cpp **** {
 1122              		.loc 1 347 0
 1123              		.cfi_startproc
 1124              		@ args = 0, pretend = 0, frame = 0
 1125              		@ frame_needed = 0, uses_anonymous_args = 0
 1126              	.LVL137:
 1127 0000 70B5     		push	{r4, r5, r6, lr}	@
 1128              	.LCFI9:
 1129              		.cfi_def_cfa_offset 16
 1130              		.cfi_offset 4, -16
 1131              		.cfi_offset 5, -12
 1132              		.cfi_offset 6, -8
 1133              		.cfi_offset 14, -4
 347:FatFS/mmc.cpp **** {
 1134              		.loc 1 347 0
 1135 0002 0D46     		mov	r5, r1	@ pcBuffer, pcBuffer
 1136 0004 1646     		mov	r6, r2	@ ulSector, ulSector
 1137 0006 1C46     		mov	r4, r3	@ xCount, xCount
 1138              	.LBB53:
 350:FatFS/mmc.cpp **** 	if( ( cDriveNumber != 0 ) || ( xCount == 0 ) )
 1139              		.loc 1 350 0
 1140 0008 0028     		cmp	r0, #0	@ cDriveNumber
 1141 000a 49D1     		bne	.L121	@
 350:FatFS/mmc.cpp **** 	if( ( cDriveNumber != 0 ) || ( xCount == 0 ) )
 1142              		.loc 1 350 0 is_stmt 0 discriminator 1
 1143 000c 002B     		cmp	r3, #0	@ xCount
 1144 000e 47D0     		beq	.L121	@
 354:FatFS/mmc.cpp **** 	else if( ( ( xDiskStatus & STA_NOINIT ) != 0 ) || ( prvIsDiskInserted() != pdTRUE ) )
 1145              		.loc 1 354 0 is_stmt 1
 1146 0010 264B     		ldr	r3, .L133	@ tmp164,
 1147              	.LVL138:
 1148 0012 1A78     		ldrb	r2, [r3, #0]	@ zero_extendqisi2	@ xDiskStatus, xDiskStatus
 1149              	.LVL139:
 1150 0014 D207     		lsls	r2, r2, #31	@, xDiskStatus,
 1151 0016 45D4     		bmi	.L122	@,
 1152              	.LBB54:
 1153              	.LBB55:
 617:FatFS/mmc.cpp **** 	xDiskStatus &= ~STA_NODISK;
 1154              		.loc 1 617 0
 1155 0018 1878     		ldrb	r0, [r3, #0]	@ zero_extendqisi2	@ xDiskStatus, xDiskStatus
 1156              	.LVL140:
 1157 001a 00F0FD01 		and	r1, r0, #253	@ xDiskStatus.13, xDiskStatus,
 1158              	.LVL141:
 1159 001e 1970     		strb	r1, [r3, #0]	@ xDiskStatus.13, xDiskStatus
 1160              	.LVL142:
 1161              	.LBE55:
 1162              	.LBE54:
 358:FatFS/mmc.cpp **** 	else if( ( xDiskStatus & STA_PROTECT ) != 0 )
 1163              		.loc 1 358 0
 1164 0020 1B78     		ldrb	r3, [r3, #0]	@ zero_extendqisi2	@ xDiskStatus, xDiskStatus
ARM GAS  /tmp/ccx2XJRZ.s 			page 39


 1165 0022 03F00402 		and	r2, r3, #4	@ tmp180, xDiskStatus,
 1166 0026 D0B2     		uxtb	r0, r2	@ tmp181, tmp180
 1167 0028 0028     		cmp	r0, #0	@ tmp181
 1168 002a 3DD1     		bne	.L123	@
 364:FatFS/mmc.cpp **** 		if( ( ucInsertedCardType & CT_BLOCK ) == 0 )
 1169              		.loc 1 364 0
 1170 002c 2049     		ldr	r1, .L133+4	@ tmp182,
 1171 002e 0B78     		ldrb	r3, [r1, #0]	@ zero_extendqisi2	@ ucInsertedCardType.34, ucInsertedCardType
 1172 0030 03F00802 		and	r2, r3, #8	@ tmp184, ucInsertedCardType.34,
 1173 0034 D0B2     		uxtb	r0, r2	@ tmp185, tmp184
 1174 0036 00B9     		cbnz	r0, .L114	@ tmp185,
 367:FatFS/mmc.cpp **** 			ulSector *= mmcSECTOR_SIZE;
 1175              		.loc 1 367 0
 1176 0038 7602     		lsls	r6, r6, #9	@ ulSector, ulSector,
 1177              	.LVL143:
 1178              	.L114:
 370:FatFS/mmc.cpp **** 		if( xCount == 1 )
 1179              		.loc 1 370 0
 1180 003a 012C     		cmp	r4, #1	@ xCount,
 1181 003c 0CD1     		bne	.L115	@,
 373:FatFS/mmc.cpp **** 			if( prvSendCommand( mmcCMD24_WRITE_SINGLE_BLOCK, ulSector ) == 0 )
 1182              		.loc 1 373 0
 1183 003e 5820     		movs	r0, #88	@,
 1184 0040 3146     		mov	r1, r6	@, ulSector
 1185 0042 FFF7FEFF 		bl	_ZL14prvSendCommandhm	@
 1186              	.LVL144:
 1187 0046 28BB     		cbnz	r0, .L116	@,
 375:FatFS/mmc.cpp **** 				if( prvWriteDataBlock( pcBuffer, 0xFE ) == true )
 1188              		.loc 1 375 0
 1189 0048 FE21     		movs	r1, #254	@,
 1190 004a 2846     		mov	r0, r5	@, pcBuffer
 1191 004c FFF7FEFF 		bl	_ZL17prvWriteDataBlockPKhh	@
 1192              	.LVL145:
 1193 0050 80F00101 		eor	r1, r0, #1	@ tmp188,,
 377:FatFS/mmc.cpp **** 					xCount = 0;
 1194              		.loc 1 377 0
 1195 0054 CCB2     		uxtb	r4, r1	@ xCount, tmp188
 1196 0056 1DE0     		b	.L116	@
 1197              	.L115:
 384:FatFS/mmc.cpp **** 			if( ucInsertedCardType & CT_SDC )
 1198              		.loc 1 384 0
 1199 0058 13F0060F 		tst	r3, #6	@ ucInsertedCardType.34,
 1200 005c 03D0     		beq	.L117	@,
 386:FatFS/mmc.cpp **** 				prvSendCommand( mmcACMD23_SET_ERASE_COUNT, xCount );
 1201              		.loc 1 386 0
 1202 005e D720     		movs	r0, #215	@,
 1203 0060 2146     		mov	r1, r4	@, xCount
 1204 0062 FFF7FEFF 		bl	_ZL14prvSendCommandhm	@
 1205              	.LVL146:
 1206              	.L117:
 389:FatFS/mmc.cpp **** 			if( prvSendCommand( mmcCMD25_WRITE_MULTI_BLOCK, ulSector ) == 0 )
 1207              		.loc 1 389 0
 1208 0066 5920     		movs	r0, #89	@,
 1209 0068 3146     		mov	r1, r6	@, ulSector
 1210 006a FFF7FEFF 		bl	_ZL14prvSendCommandhm	@
 1211              	.LVL147:
 1212 006e 88B9     		cbnz	r0, .L116	@,
ARM GAS  /tmp/ccx2XJRZ.s 			page 40


 1213              	.LVL148:
 1214              	.L129:
 393:FatFS/mmc.cpp **** 					if( prvWriteDataBlock( pcBuffer, 0xFC ) != true )
 1215              		.loc 1 393 0
 1216 0070 2846     		mov	r0, r5	@, pcBuffer
 1217 0072 FC21     		movs	r1, #252	@,
 1218 0074 FFF7FEFF 		bl	_ZL17prvWriteDataBlockPKhh	@
 1219              	.LVL149:
 1220 0078 28B1     		cbz	r0, .L118	@,
 391:FatFS/mmc.cpp **** 				do
 1221              		.loc 1 391 0
 1222 007a 013C     		subs	r4, r4, #1	@ tmp194, xCount,
 1223              	.LVL150:
 1224 007c 14F0FF04 		ands	r4, r4, #255	@ xCount, tmp194,
 1225              	.LVL151:
 398:FatFS/mmc.cpp **** 					pcBuffer += mmcSECTOR_SIZE;
 1226              		.loc 1 398 0
 1227 0080 05F50075 		add	r5, r5, #512	@ pcBuffer, pcBuffer,
 1228              	.LVL152:
 391:FatFS/mmc.cpp **** 				do
 1229              		.loc 1 391 0
 1230 0084 F4D1     		bne	.L129	@,
 1231              	.L118:
 1232              	.LVL153:
 402:FatFS/mmc.cpp **** 				if( prvWriteDataBlock( NULL, 0xFD ) != true )
 1233              		.loc 1 402 0
 1234 0086 0020     		movs	r0, #0	@,
 1235 0088 FD21     		movs	r1, #253	@,
 1236 008a FFF7FEFF 		bl	_ZL17prvWriteDataBlockPKhh	@
 1237              	.LVL154:
 405:FatFS/mmc.cpp **** 					xCount = 1;
 1238              		.loc 1 405 0
 1239 008e 0028     		cmp	r0, #0	@,
 1240 0090 08BF     		it	eq	@
 1241 0092 0124     		moveq	r4, #1	@, xCount,
 1242              	.LVL155:
 1243              	.L116:
 410:FatFS/mmc.cpp **** 		prvDeselectCard();
 1244              		.loc 1 410 0
 1245 0094 FFF7FEFF 		bl	_ZL15prvDeselectCardv	@
 1246              	.LVL156:
 352:FatFS/mmc.cpp **** 		xReturn = RES_PARERR;
 1247              		.loc 1 352 0
 1248 0098 201C     		adds	r0, r4, #0	@ xReturn, xCount,
 1249 009a 18BF     		it	ne
 1250 009c 0120     		movne	r0, #1	@ xReturn,
 1251 009e 70BD     		pop	{r4, r5, r6, pc}	@
 1252              	.LVL157:
 1253              	.L121:
 1254 00a0 0420     		movs	r0, #4	@ xReturn,
 1255              	.LVL158:
 1256 00a2 70BD     		pop	{r4, r5, r6, pc}	@
 1257              	.LVL159:
 1258              	.L122:
 356:FatFS/mmc.cpp **** 		xReturn = RES_NOTRDY;
 1259              		.loc 1 356 0
 1260 00a4 0320     		movs	r0, #3	@ xReturn,
ARM GAS  /tmp/ccx2XJRZ.s 			page 41


 1261              	.LVL160:
 1262 00a6 70BD     		pop	{r4, r5, r6, pc}	@
 1263              	.LVL161:
 1264              	.L123:
 360:FatFS/mmc.cpp **** 		xReturn = RES_WRPRT;
 1265              		.loc 1 360 0
 1266 00a8 0220     		movs	r0, #2	@ xReturn,
 1267              	.LVL162:
 1268              	.LBE53:
 423:FatFS/mmc.cpp **** }
 1269              		.loc 1 423 0
 1270 00aa 70BD     		pop	{r4, r5, r6, pc}	@
 1271              	.L134:
 1272              		.align	2
 1273              	.L133:
 1274 00ac 00000000 		.word	.LANCHOR2
 1275 00b0 00000000 		.word	.LANCHOR3
 1276              		.cfi_endproc
 1277              	.LFE58:
 1278              		.size	disk_write, .-disk_write
 1279              		.section	.text.disk_ioctl,"ax",%progbits
 1280              		.align	1
 1281              		.global	disk_ioctl
 1282              		.thumb
 1283              		.thumb_func
 1284              		.type	disk_ioctl, %function
 1285              	disk_ioctl:
 1286              	.LFB59:
 439:FatFS/mmc.cpp **** {
 1287              		.loc 1 439 0
 1288              		.cfi_startproc
 1289              		@ args = 0, pretend = 0, frame = 16
 1290              		@ frame_needed = 0, uses_anonymous_args = 0
 1291              	.LVL163:
 1292 0000 F0B5     		push	{r4, r5, r6, r7, lr}	@
 1293              	.LCFI10:
 1294              		.cfi_def_cfa_offset 20
 1295              		.cfi_offset 4, -20
 1296              		.cfi_offset 5, -16
 1297              		.cfi_offset 6, -12
 1298              		.cfi_offset 7, -8
 1299              		.cfi_offset 14, -4
 1300              	.LBB63:
 450:FatFS/mmc.cpp **** 	if( ( ( xDiskStatus & STA_NOINIT ) != 0 ) || ( prvIsDiskInserted() != pdTRUE ) )
 1301              		.loc 1 450 0
 1302 0002 6C4B     		ldr	r3, .L166	@ tmp233,
 1303              	.LBE63:
 439:FatFS/mmc.cpp **** {
 1304              		.loc 1 439 0
 1305 0004 1546     		mov	r5, r2	@ pvBuffer, pvBuffer
 1306              	.LVL164:
 1307              	.LBB70:
 450:FatFS/mmc.cpp **** 	if( ( ( xDiskStatus & STA_NOINIT ) != 0 ) || ( prvIsDiskInserted() != pdTRUE ) )
 1308              		.loc 1 450 0
 1309 0006 1A78     		ldrb	r2, [r3, #0]	@ zero_extendqisi2	@ xDiskStatus, xDiskStatus
 1310              	.LVL165:
 1311              	.LBE70:
ARM GAS  /tmp/ccx2XJRZ.s 			page 42


 439:FatFS/mmc.cpp **** {
 1312              		.loc 1 439 0
 1313 0008 85B0     		sub	sp, sp, #20	@,,
 1314              	.LCFI11:
 1315              		.cfi_def_cfa_offset 40
 1316              	.LBB71:
 450:FatFS/mmc.cpp **** 	if( ( ( xDiskStatus & STA_NOINIT ) != 0 ) || ( prvIsDiskInserted() != pdTRUE ) )
 1317              		.loc 1 450 0
 1318 000a D007     		lsls	r0, r2, #31	@, xDiskStatus,
 1319              	.LVL166:
 1320 000c 00F1C780 		bmi	.L153	@,
 1321              	.LBB64:
 1322              	.LBB65:
 617:FatFS/mmc.cpp **** 	xDiskStatus &= ~STA_NODISK;
 1323              		.loc 1 617 0
 1324 0010 1878     		ldrb	r0, [r3, #0]	@ zero_extendqisi2	@ xDiskStatus, xDiskStatus
 1325 0012 00F0FD04 		and	r4, r0, #253	@ xDiskStatus.13, xDiskStatus,
 1326 0016 1C70     		strb	r4, [r3, #0]	@ xDiskStatus.13, xDiskStatus
 1327              	.LVL167:
 1328              	.LBE65:
 1329              	.LBE64:
 456:FatFS/mmc.cpp **** 		switch( cControlCode )
 1330              		.loc 1 456 0
 1331 0018 0E29     		cmp	r1, #14	@ cControlCode,
 1332 001a 00F2C280 		bhi	.L154	@
 1333 001e DFE801F0 		tbb	[pc, r1]	@ cControlCode
 1334              	.L146:
 1335 0022 08       		.byte	(.L137-.L146)/2
 1336 0023 13       		.byte	(.L138-.L146)/2
 1337 0024 4A       		.byte	(.L139-.L146)/2
 1338 0025 4E       		.byte	(.L140-.L146)/2
 1339 0026 C0       		.byte	(.L154-.L146)/2
 1340 0027 C0       		.byte	(.L154-.L146)/2
 1341 0028 C0       		.byte	(.L154-.L146)/2
 1342 0029 C0       		.byte	(.L154-.L146)/2
 1343 002a C0       		.byte	(.L154-.L146)/2
 1344 002b C0       		.byte	(.L154-.L146)/2
 1345 002c 9E       		.byte	(.L141-.L146)/2
 1346 002d A2       		.byte	(.L142-.L146)/2
 1347 002e A4       		.byte	(.L143-.L146)/2
 1348 002f AD       		.byte	(.L144-.L146)/2
 1349 0030 BA       		.byte	(.L145-.L146)/2
 1350 0031 00       		.align	1
 1351              	.L137:
 1352              	.LVL168:
 1353              	.LBB66:
 1354              	.LBB67:
 727:FatFS/mmc.cpp **** 	SD_CS_bb = SD_CS_ASSERTED;
 1355              		.loc 1 727 0
 1356 0032 6149     		ldr	r1, .L166+4	@ tmp245,
 1357              	.LVL169:
 1358 0034 0024     		movs	r4, #0	@ tmp246,
 1359 0036 0C60     		str	r4, [r1, #0]	@ tmp246, MEM[(volatile long unsigned int *)1111556784B]
 728:FatFS/mmc.cpp **** 	if( prvWaitForCardReady() != 0xFF )
 1360              		.loc 1 728 0
 1361 0038 FFF7FEFF 		bl	_ZL19prvWaitForCardReadyv	@
 1362              	.LVL170:
ARM GAS  /tmp/ccx2XJRZ.s 			page 43


 1363 003c FF28     		cmp	r0, #255	@,
 1364 003e 00F0B280 		beq	.L147	@,
 730:FatFS/mmc.cpp **** 		prvDeselectCard();
 1365              		.loc 1 730 0
 1366 0042 FFF7FEFF 		bl	_ZL15prvDeselectCardv	@
 1367              	.LVL171:
 1368 0046 05E0     		b	.L151	@
 1369              	.LVL172:
 1370              	.L138:
 1371              	.LBE67:
 1372              	.LBE66:
 473:FatFS/mmc.cpp **** 				if( prvQueryCard( mmcCMD9_READ_CSD_REGISTER, 0, pcTempBuffer, 16 ) == true )
 1373              		.loc 1 473 0
 1374 0048 4920     		movs	r0, #73	@,
 1375 004a 6946     		mov	r1, sp	@,
 1376              	.LVL173:
 1377 004c 1022     		movs	r2, #16	@,
 1378 004e FFF7FEFF 		bl	_ZL12prvQueryCardhmPhj.constprop.1	@
 1379              	.LVL174:
 1380 0052 08B9     		cbnz	r0, .L148	@,
 1381              	.L151:
 1382              	.LBB69:
 1383              	.LBB68:
 440:FatFS/mmc.cpp **** DRESULT xResult = RES_ERROR;
 1384              		.loc 1 440 0
 1385 0054 0124     		movs	r4, #1	@ xResult,
 1386 0056 A8E0     		b	.L136	@
 1387              	.L148:
 1388              	.LBE68:
 1389              	.LBE69:
 475:FatFS/mmc.cpp **** 					if( ( pcTempBuffer[ 0 ] >> 6 ) == 1 )
 1390              		.loc 1 475 0
 1391 0058 9DF80000 		ldrb	r0, [sp, #0]	@ zero_extendqisi2	@ pcTempBuffer, pcTempBuffer
 1392 005c 9DF80840 		ldrb	r4, [sp, #8]	@ zero_extendqisi2	@ pcTempBuffer, pcTempBuffer
 1393 0060 8211     		asrs	r2, r0, #6	@ tmp251, pcTempBuffer,
 1394 0062 012A     		cmp	r2, #1	@ tmp251,
 1395 0064 07D1     		bne	.L149	@,
 1396              	.LVL175:
 478:FatFS/mmc.cpp **** 						usSize = pcTempBuffer[ 9 ] + ( ( ( WORD ) pcTempBuffer[ 8 ] << 8 ) + 1 );
 1397              		.loc 1 478 0
 1398 0066 9DF80930 		ldrb	r3, [sp, #9]	@ zero_extendqisi2	@ pcTempBuffer, pcTempBuffer
 1399 006a 581C     		adds	r0, r3, #1	@ tmp254, pcTempBuffer,
 1400 006c 00EB0424 		add	r4, r0, r4, lsl #8	@, tmp260, tmp254, pcTempBuffer,
 479:FatFS/mmc.cpp **** 						*( DWORD * ) pvBuffer = ( DWORD ) usSize << 10UL;
 1401              		.loc 1 479 0
 1402 0070 A2B2     		uxth	r2, r4	@ tmp261, tmp260
 1403 0072 9302     		lsls	r3, r2, #10	@ tmp262, tmp261,
 1404 0074 1CE0     		b	.L162	@
 1405              	.LVL176:
 1406              	.L149:
 485:FatFS/mmc.cpp **** 						usSize = ( pcTempBuffer[ 8 ] >> 6 ) + ( ( WORD ) pcTempBuffer[ 7 ] << 2 ) + ( ( WORD ) ( pcTe
 1407              		.loc 1 485 0
 1408 0076 9DF80710 		ldrb	r1, [sp, #7]	@ zero_extendqisi2	@ pcTempBuffer, pcTempBuffer
 1409 007a 9DF80620 		ldrb	r2, [sp, #6]	@ zero_extendqisi2	@ pcTempBuffer, pcTempBuffer
 1410 007e 8B00     		lsls	r3, r1, #2	@ tmp265, pcTempBuffer,
 1411 0080 581C     		adds	r0, r3, #1	@ tmp267, tmp265,
 1412 0082 00EB9414 		add	r4, r0, r4, lsr #6	@, tmp272, tmp267, pcTempBuffer,
ARM GAS  /tmp/ccx2XJRZ.s 			page 44


 484:FatFS/mmc.cpp **** 						n = ( pcTempBuffer[ 5 ] & 15 ) + ( (pcTempBuffer[ 10 ] & 128 ) >> 7 ) + ( (pcTempBuffer[ 9 ] 
 1413              		.loc 1 484 0
 1414 0086 9DF80500 		ldrb	r0, [sp, #5]	@ zero_extendqisi2	@ pcTempBuffer, pcTempBuffer
 485:FatFS/mmc.cpp **** 						usSize = ( pcTempBuffer[ 8 ] >> 6 ) + ( ( WORD ) pcTempBuffer[ 7 ] << 2 ) + ( ( WORD ) ( pcTe
 1415              		.loc 1 485 0
 1416 008a 02F00301 		and	r1, r2, #3	@ tmp277, pcTempBuffer,
 486:FatFS/mmc.cpp **** 						*( DWORD * ) pvBuffer = ( DWORD ) usSize << ( n - 9 );
 1417              		.loc 1 486 0
 1418 008e 04EB8123 		add	r3, r4, r1, lsl #10	@, tmp282, tmp272, tmp277,
 484:FatFS/mmc.cpp **** 						n = ( pcTempBuffer[ 5 ] & 15 ) + ( (pcTempBuffer[ 10 ] & 128 ) >> 7 ) + ( (pcTempBuffer[ 9 ] 
 1419              		.loc 1 484 0
 1420 0092 9DF80A20 		ldrb	r2, [sp, #10]	@ zero_extendqisi2	@ pcTempBuffer, pcTempBuffer
 1421 0096 00F00F04 		and	r4, r0, #15	@ tmp285, pcTempBuffer,
 1422 009a 9DF80900 		ldrb	r0, [sp, #9]	@ zero_extendqisi2	@ pcTempBuffer, pcTempBuffer
 1423 009e 04EBD211 		add	r1, r4, r2, lsr #7	@, tmp290, tmp285, pcTempBuffer,
 1424 00a2 00F00304 		and	r4, r0, #3	@ tmp295, pcTempBuffer,
 486:FatFS/mmc.cpp **** 						*( DWORD * ) pvBuffer = ( DWORD ) usSize << ( n - 9 );
 1425              		.loc 1 486 0
 1426 00a6 01EB4402 		add	r2, r1, r4, lsl #1	@, tmp301, tmp290, tmp295,
 1427 00aa D11F     		subs	r1, r2, #7	@ tmp302, tmp301,
 1428 00ac 03FA01F3 		lsl	r3, r3, r1	@ tmp303, tmp282, tmp302
 1429              	.LVL177:
 1430              	.L162:
 1431 00b0 2B60     		str	r3, [r5, #0]	@ tmp303, MEM[(DWORD *)pvBuffer_4(D)]
 1432              	.LVL178:
 1433              	.L164:
 489:FatFS/mmc.cpp **** 					xResult = RES_OK;
 1434              		.loc 1 489 0
 1435 00b2 0024     		movs	r4, #0	@ xResult,
 1436 00b4 79E0     		b	.L136	@
 1437              	.LVL179:
 1438              	.L139:
 497:FatFS/mmc.cpp **** 				* ( WORD * ) pvBuffer = mmcSECTOR_SIZE;
 1439              		.loc 1 497 0
 1440 00b6 4FF40073 		mov	r3, #512	@ tmp305,
 1441 00ba 2B80     		strh	r3, [r5, #0]	@ movhi	@ tmp305, MEM[(WORD *)pvBuffer_4(D)]
 1442              	.LVL180:
 1443 00bc F9E7     		b	.L164	@
 1444              	.LVL181:
 1445              	.L140:
 505:FatFS/mmc.cpp **** 				if( ( ucInsertedCardType & CT_SD2 ) != 0 )
 1446              		.loc 1 505 0
 1447 00be 3F4F     		ldr	r7, .L166+8	@ tmp306,
 1448 00c0 3E78     		ldrb	r6, [r7, #0]	@ zero_extendqisi2	@ ucInsertedCardType, ucInsertedCardType
 1449 00c2 06F00400 		and	r0, r6, #4	@ tmp310, ucInsertedCardType,
 1450 00c6 C6B2     		uxtb	r6, r0	@ tmp311, tmp310
 1451 00c8 EEB1     		cbz	r6, .L150	@ tmp311,
 508:FatFS/mmc.cpp **** 					if( prvQueryCard( mmcACMD13_READ_SD_STATUS, 0, pcTempBuffer, mmcMAX_QUERY_STRING_BYTES ) == tr
 1452              		.loc 1 508 0
 1453 00ca CD20     		movs	r0, #205	@,
 1454 00cc 6946     		mov	r1, sp	@,
 1455              	.LVL182:
 1456 00ce 1022     		movs	r2, #16	@,
 1457 00d0 FFF7FEFF 		bl	_ZL12prvQueryCardhmPhj.constprop.1	@
 1458              	.LVL183:
 1459 00d4 0028     		cmp	r0, #0	@
 1460 00d6 BDD0     		beq	.L151	@
ARM GAS  /tmp/ccx2XJRZ.s 			page 45


 510:FatFS/mmc.cpp **** 						* ( DWORD * ) pvBuffer = 16UL << ( pcTempBuffer[ 10 ] >> 4 );
 1461              		.loc 1 510 0
 1462 00d8 9DF80A00 		ldrb	r0, [sp, #10]	@ zero_extendqisi2	@ pcTempBuffer, pcTempBuffer
 1463 00dc 1024     		movs	r4, #16	@ tmp317,
 1464 00de 0211     		asrs	r2, r0, #4	@ tmp315, pcTempBuffer,
 1465 00e0 04FA02F1 		lsl	r1, r4, r2	@ tmp316, tmp317, tmp315
 515:FatFS/mmc.cpp **** 						spiRead(pcTempBuffer, mmcMAX_QUERY_STRING_BYTES);
 1466              		.loc 1 515 0
 1467 00e4 0020     		movs	r0, #0	@,
 510:FatFS/mmc.cpp **** 						* ( DWORD * ) pvBuffer = 16UL << ( pcTempBuffer[ 10 ] >> 4 );
 1468              		.loc 1 510 0
 1469 00e6 2960     		str	r1, [r5, #0]	@ tmp316, MEM[(DWORD *)pvBuffer_4(D)]
 1470              	.LVL184:
 515:FatFS/mmc.cpp **** 						spiRead(pcTempBuffer, mmcMAX_QUERY_STRING_BYTES);
 1471              		.loc 1 515 0
 1472 00e8 2246     		mov	r2, r4	@, tmp317
 1473 00ea 6946     		mov	r1, sp	@,
 1474 00ec FFF7FEFF 		bl	_Z11spiTransferPKhPhj	@
 1475              	.LVL185:
 518:FatFS/mmc.cpp **** 						spiRead(pcTempBuffer, mmcMAX_QUERY_STRING_BYTES);
 1476              		.loc 1 518 0
 1477 00f0 6946     		mov	r1, sp	@,
 1478 00f2 2246     		mov	r2, r4	@, tmp317
 1479 00f4 0020     		movs	r0, #0	@,
 1480 00f6 FFF7FEFF 		bl	_Z11spiTransferPKhPhj	@
 1481              	.LVL186:
 521:FatFS/mmc.cpp **** 						spiRead(pcTempBuffer, mmcMAX_QUERY_STRING_BYTES);
 1482              		.loc 1 521 0
 1483 00fa 0020     		movs	r0, #0	@,
 1484 00fc 6946     		mov	r1, sp	@,
 1485 00fe 2246     		mov	r2, r4	@, tmp317
 1486 0100 FFF7FEFF 		bl	_Z11spiTransferPKhPhj	@
 1487              	.LVL187:
 1488 0104 D5E7     		b	.L164	@
 1489              	.LVL188:
 1490              	.L150:
 527:FatFS/mmc.cpp **** 					if( prvQueryCard( mmcCMD9_READ_CSD_REGISTER, 0, pcTempBuffer, 16 ) == true )
 1491              		.loc 1 527 0
 1492 0106 4920     		movs	r0, #73	@,
 1493 0108 6946     		mov	r1, sp	@,
 1494              	.LVL189:
 1495 010a 1022     		movs	r2, #16	@,
 1496 010c FFF7FEFF 		bl	_ZL12prvQueryCardhmPhj.constprop.1	@
 1497              	.LVL190:
 1498 0110 0028     		cmp	r0, #0	@
 1499 0112 9FD0     		beq	.L151	@
 530:FatFS/mmc.cpp **** 						if( ( ucInsertedCardType & CT_SD1 ) != 0 )
 1500              		.loc 1 530 0
 1501 0114 3C78     		ldrb	r4, [r7, #0]	@ zero_extendqisi2	@ ucInsertedCardType, ucInsertedCardType
 1502 0116 9DF80A20 		ldrb	r2, [sp, #10]	@ zero_extendqisi2	@ pcTempBuffer, pcTempBuffer
 1503 011a 04F00201 		and	r1, r4, #2	@ tmp327, ucInsertedCardType,
 1504 011e CCB2     		uxtb	r4, r1	@ tmp328, tmp327
 1505 0120 7CB1     		cbz	r4, .L152	@ tmp328,
 533:FatFS/mmc.cpp **** 							*( DWORD * ) pvBuffer = ( ( ( pcTempBuffer[ 10 ] & 63 ) << 1 ) + ( ( WORD ) ( pcTempBuffer[ 
 1506              		.loc 1 533 0
 1507 0122 9DF80B10 		ldrb	r1, [sp, #11]	@ zero_extendqisi2	@ pcTempBuffer, pcTempBuffer
 1508 0126 02F03F04 		and	r4, r2, #63	@ tmp332, pcTempBuffer,
ARM GAS  /tmp/ccx2XJRZ.s 			page 46


 1509 012a CB09     		lsrs	r3, r1, #7	@ tmp336, pcTempBuffer,
 1510 012c 03EB4400 		add	r0, r3, r4, lsl #1	@, tmp337, tmp336, tmp332,
 1511 0130 9DF80D40 		ldrb	r4, [sp, #13]	@ zero_extendqisi2	@ pcTempBuffer, pcTempBuffer
 1512 0134 421C     		adds	r2, r0, #1	@ tmp338, tmp337,
 1513 0136 A111     		asrs	r1, r4, #6	@ tmp340, pcTempBuffer,
 1514 0138 4B1E     		subs	r3, r1, #1	@ tmp341, tmp340,
 1515 013a 02FA03F2 		lsl	r2, r2, r3	@ tmp342, tmp338, tmp341
 1516 013e 2A60     		str	r2, [r5, #0]	@ tmp342, MEM[(DWORD *)pvBuffer_4(D)]
 1517 0140 B7E7     		b	.L164	@
 1518              	.L152:
 538:FatFS/mmc.cpp **** 							*( DWORD * ) pvBuffer = ( ( WORD ) ( ( pcTempBuffer[ 10 ] & 124 ) >> 2 ) + 1 ) * ( ( ( pcTem
 1519              		.loc 1 538 0
 1520 0142 9DF80B30 		ldrb	r3, [sp, #11]	@ zero_extendqisi2	@ D.7363, pcTempBuffer
 1521 0146 C2F38400 		ubfx	r0, r2, #2, #5	@ tmp347, pcTempBuffer,,
 1522 014a 03F00302 		and	r2, r3, #3	@ tmp350, D.7363,
 1523 014e 5B09     		lsrs	r3, r3, #5	@ tmp353, D.7363,
 1524 0150 411C     		adds	r1, r0, #1	@ tmp348, tmp347,
 1525 0152 03EBC200 		add	r0, r3, r2, lsl #3	@, tmp354, tmp353, tmp350,
 1526 0156 421C     		adds	r2, r0, #1	@ tmp355, tmp354,
 1527 0158 4A43     		muls	r2, r1, r2	@ tmp356, tmp348
 1528 015a 2A60     		str	r2, [r5, #0]	@ tmp356, MEM[(DWORD *)pvBuffer_4(D)]
 1529 015c 25E0     		b	.L136	@
 1530              	.LVL191:
 1531              	.L141:
 550:FatFS/mmc.cpp **** 				*pcExternalBuffer = ucInsertedCardType;
 1532              		.loc 1 550 0
 1533 015e 174B     		ldr	r3, .L166+8	@ tmp357,
 1534 0160 1A78     		ldrb	r2, [r3, #0]	@ zero_extendqisi2	@ ucInsertedCardType, ucInsertedCardType
 1535 0162 2A70     		strb	r2, [r5, #0]	@ ucInsertedCardType, MEM[(BYTE *)pvBuffer_4(D)]
 1536              	.LVL192:
 1537 0164 A5E7     		b	.L164	@
 1538              	.LVL193:
 1539              	.L142:
 558:FatFS/mmc.cpp **** 				if( prvQueryCard( mmcCMD9_READ_CSD_REGISTER, 0, pcExternalBuffer, 16 ) == true )
 1540              		.loc 1 558 0
 1541 0166 4920     		movs	r0, #73	@,
 1542 0168 00E0     		b	.L163	@
 1543              	.L143:
 568:FatFS/mmc.cpp **** 				if( prvQueryCard( mmcCMD10_READ_CID_REGISTER, 0, pcExternalBuffer, 16 ) == true )
 1544              		.loc 1 568 0
 1545 016a 4A20     		movs	r0, #74	@,
 1546              	.L163:
 1547 016c 2946     		mov	r1, r5	@, pvBuffer
 1548              	.LVL194:
 1549 016e 1022     		movs	r2, #16	@,
 1550              	.LVL195:
 1551              	.L165:
 1552 0170 FFF7FEFF 		bl	_ZL12prvQueryCardhmPhj.constprop.1	@
 1553              	.LVL196:
 1554 0174 80F00101 		eor	r1, r0, #1	@ tmp363,,
 452:FatFS/mmc.cpp **** 		xResult = RES_NOTRDY;
 1555              		.loc 1 452 0
 1556 0178 CCB2     		uxtb	r4, r1	@ xResult, tmp363
 1557 017a 16E0     		b	.L136	@
 1558              	.LVL197:
 1559              	.L144:
 578:FatFS/mmc.cpp **** 				if( prvSendCommand( mmcCMD58_READ_OCR, 0 ) == 0 )
ARM GAS  /tmp/ccx2XJRZ.s 			page 47


 1560              		.loc 1 578 0
 1561 017c 7A20     		movs	r0, #122	@,
 1562 017e 0021     		movs	r1, #0	@,
 1563              	.LVL198:
 1564 0180 FFF7FEFF 		bl	_ZL14prvSendCommandhm	@
 1565              	.LVL199:
 1566 0184 0446     		mov	r4, r0	@ tmp364,
 1567 0186 0028     		cmp	r0, #0	@
 1568 0188 7FF464AF 		bne	.L151	@
 581:FatFS/mmc.cpp **** 					spiRead(pcExternalBuffer, mmcOCR_LENGTH);
 1569              		.loc 1 581 0
 1570 018c 2946     		mov	r1, r5	@, pvBuffer
 1571 018e 0422     		movs	r2, #4	@,
 1572 0190 FFF7FEFF 		bl	_Z11spiTransferPKhPhj	@
 1573              	.LVL200:
 1574 0194 09E0     		b	.L136	@
 1575              	.LVL201:
 1576              	.L145:
 591:FatFS/mmc.cpp **** 				if( prvQueryCard( mmcACMD13_READ_SD_STATUS, 0, pcExternalBuffer, 64 ) == true )
 1577              		.loc 1 591 0
 1578 0196 CD20     		movs	r0, #205	@,
 1579 0198 2946     		mov	r1, r5	@, pvBuffer
 1580              	.LVL202:
 1581 019a 4022     		movs	r2, #64	@,
 1582 019c E8E7     		b	.L165	@
 1583              	.LVL203:
 1584              	.L153:
 452:FatFS/mmc.cpp **** 		xResult = RES_NOTRDY;
 1585              		.loc 1 452 0
 1586 019e 0324     		movs	r4, #3	@ xResult,
 1587 01a0 03E0     		b	.L136	@
 1588              	.LVL204:
 1589              	.L154:
 601:FatFS/mmc.cpp **** 				xResult = RES_PARERR;
 1590              		.loc 1 601 0
 1591 01a2 0424     		movs	r4, #4	@ xResult,
 1592 01a4 01E0     		b	.L136	@
 1593              	.LVL205:
 1594              	.L147:
 465:FatFS/mmc.cpp **** 					prvDeselectCard();
 1595              		.loc 1 465 0
 1596 01a6 FFF7FEFF 		bl	_ZL15prvDeselectCardv	@
 1597              	.LVL206:
 1598              	.L136:
 606:FatFS/mmc.cpp **** 	prvDeselectCard();
 1599              		.loc 1 606 0
 1600 01aa FFF7FEFF 		bl	_ZL15prvDeselectCardv	@
 1601              	.LVL207:
 1602              	.LBE71:
 609:FatFS/mmc.cpp **** }
 1603              		.loc 1 609 0
 1604 01ae 2046     		mov	r0, r4	@, xResult
 1605 01b0 05B0     		add	sp, sp, #20	@,,
 1606 01b2 F0BD     		pop	{r4, r5, r6, r7, pc}
 1607              	.L167:
 1608              		.align	2
 1609              	.L166:
ARM GAS  /tmp/ccx2XJRZ.s 			page 48


 1610 01b4 00000000 		.word	.LANCHOR2
 1611 01b8 B0024142 		.word	1111556784
 1612 01bc 00000000 		.word	.LANCHOR3
 1613              		.cfi_endproc
 1614              	.LFE59:
 1615              		.size	disk_ioctl, .-disk_ioctl
 1616              		.section	.text.get_fattime,"ax",%progbits
 1617              		.align	1
 1618              		.global	get_fattime
 1619              		.thumb
 1620              		.thumb_func
 1621              		.type	get_fattime, %function
 1622              	get_fattime:
 1623              	.LFB68:
 841:FatFS/mmc.cpp **** #endif /* _READONLY */
 842:FatFS/mmc.cpp **** /*-----------------------------------------------------------*/
 843:FatFS/mmc.cpp **** 
 844:FatFS/mmc.cpp **** DWORD get_fattime(void)
 845:FatFS/mmc.cpp **** {
 1624              		.loc 1 845 0
 1625              		.cfi_startproc
 1626              		@ args = 0, pretend = 0, frame = 0
 1627              		@ frame_needed = 0, uses_anonymous_args = 0
 1628              		@ link register save eliminated.
 846:FatFS/mmc.cpp **** 	return 0;								// no time is implemented
 847:FatFS/mmc.cpp **** }
 1629              		.loc 1 847 0
 1630 0000 0020     		movs	r0, #0	@,
 1631 0002 7047     		bx	lr	@
 1632              		.cfi_endproc
 1633              	.LFE68:
 1634              		.size	get_fattime, .-get_fattime
 1635              		.section	.rodata
 1636              		.set	.LANCHOR0,. + 0
 1637              	.LC0:
 1638 0000 FF       		.byte	-1
 1639 0001 FF       		.byte	-1
 1640              		.section	.bss._ZZ15disk_initializeE11initialized,"aw",%nobits
 1641              		.set	.LANCHOR1,. + 0
 1642              		.type	_ZZ15disk_initializeE11initialized, %object
 1643              		.size	_ZZ15disk_initializeE11initialized, 1
 1644              	_ZZ15disk_initializeE11initialized:
 1645 0000 00       		.space	1
 1646              		.section	.bss._ZL18ucInsertedCardType,"aw",%nobits
 1647              		.set	.LANCHOR3,. + 0
 1648              		.type	_ZL18ucInsertedCardType, %object
 1649              		.size	_ZL18ucInsertedCardType, 1
 1650              	_ZL18ucInsertedCardType:
 1651 0000 00       		.space	1
 1652              		.section	.data._ZL11xDiskStatus,"aw",%progbits
 1653              		.set	.LANCHOR2,. + 0
 1654              		.type	_ZL11xDiskStatus, %object
 1655              		.size	_ZL11xDiskStatus, 1
 1656              	_ZL11xDiskStatus:
 1657 0000 01       		.byte	1
 1658              		.text
 1659              	.Letext0:
ARM GAS  /tmp/ccx2XJRZ.s 			page 49


 1660              		.file 2 "FatFS/integer.h"
 1661              		.file 3 "FatFS/diskio.h"
 1662              		.file 4 "/home/maciek/gcc-arm-none-eabi/gcc-arm-none-eabi-4_7-2013q1/bin/../lib/gcc/arm-none-eabi/
 1663              		.file 5 "/home/maciek/gcc-arm-none-eabi/gcc-arm-none-eabi-4_7-2013q1/bin/../lib/gcc/arm-none-eabi/
 1664              		.file 6 "inc/stm32l1xx.h"
 1665              		.file 7 "FreeRTOS/portable/GCC/ARM_CM3/portmacro.h"
 1666              		.file 8 "peripherals/gpio.h"
 1667              		.file 9 "FreeRTOS/include/task.h"
 1668              		.file 10 "peripherals/spi.h"
 1669              		.file 11 "inc/core_cm3.h"