ARM GAS  C:\Users\Adrian\AppData\Local\Temp\ccETyeaT.s 			page 1


   1              		.syntax unified
   2              		.cpu cortex-m3
   3              		.fpu softvfp
   4              		.eabi_attribute 20, 1	@ Tag_ABI_FP_denormal
   5              		.eabi_attribute 21, 1	@ Tag_ABI_FP_exceptions
   6              		.eabi_attribute 23, 3	@ Tag_ABI_FP_number_model
   7              		.eabi_attribute 24, 1	@ Tag_ABI_align8_needed
   8              		.eabi_attribute 25, 1	@ Tag_ABI_align8_preserved
   9              		.eabi_attribute 26, 1	@ Tag_ABI_enum_size
  10              		.eabi_attribute 30, 6	@ Tag_ABI_optimization_goals
  11              		.eabi_attribute 34, 1	@ Tag_CPU_unaligned_access
  12              		.eabi_attribute 18, 4	@ Tag_ABI_PCS_wchar_t
  13              		.file	"overrides.cpp"
  14              	@ GNU C++ (GNU Tools for ARM Embedded Processors) version 4.8.4 20140526 (release) [ARM/embedded-4_
  15              	@	compiled by GNU C version 4.6.4, GMP version 4.3.2, MPFR version 2.4.2, MPC version 0.8.1
  16              	@ GGC heuristics: --param ggc-min-expand=100 --param ggc-min-heapsize=131072
  17              	@ options passed:  -I . -I inc -I FreeRTOS/include
  18              	@ -I FreeRTOS/portable/GCC/ARM_CM3 -I FatFS -I peripherals -I configuration
  19              	@ -I drivers -I application -imultilib armv7-m
  20              	@ -iprefix d:\programy\gnu tools arm embedded\4.8 2014q2\bin\../lib/gcc/arm-none-eabi/4.8.4/
  21              	@ -isysroot d:\programy\gnu tools arm embedded\4.8 2014q2\bin\../arm-none-eabi
  22              	@ -MD out/overrides.d -MF out/overrides.d -MP -MQ out/overrides.o
  23              	@ -D__USES_INITFINI__ -D STM32L1XX_MD configuration/overrides.cpp
  24              	@ -mcpu=cortex-m3 -mthumb -auxbase-strip out/overrides.o -g -ggdb3 -O0
  25              	@ -Wall -Wextra -std=gnu++11 -ffunction-sections -fdata-sections -fno-rtti
  26              	@ -fno-exceptions -fverbose-asm
  27              	@ options enabled:  -faggressive-loop-optimizations -fauto-inc-dec
  28              	@ -fbranch-count-reg -fcommon -fdata-sections -fdelete-null-pointer-checks
  29              	@ -fdwarf2-cfi-asm -fearly-inlining -feliminate-unused-debug-types
  30              	@ -ffunction-cse -ffunction-sections -fgcse-lm -fgnu-runtime -fident
  31              	@ -finline-atomics -fira-hoist-pressure -fira-share-save-slots
  32              	@ -fira-share-spill-slots -fivopts -fkeep-static-consts
  33              	@ -fleading-underscore -fmath-errno -fmerge-debug-strings
  34              	@ -fmove-loop-invariants -fpeephole -fprefetch-loop-arrays
  35              	@ -freg-struct-return -fsched-critical-path-heuristic
  36              	@ -fsched-dep-count-heuristic -fsched-group-heuristic -fsched-interblock
  37              	@ -fsched-last-insn-heuristic -fsched-rank-heuristic -fsched-spec
  38              	@ -fsched-spec-insn-heuristic -fsched-stalled-insns-dep -fshow-column
  39              	@ -fsigned-zeros -fsplit-ivs-in-unroller -fstrict-volatile-bitfields
  40              	@ -fsync-libcalls -ftrapping-math -ftree-coalesce-vars -ftree-cselim
  41              	@ -ftree-forwprop -ftree-loop-if-convert -ftree-loop-im -ftree-loop-ivcanon
  42              	@ -ftree-loop-optimize -ftree-parallelize-loops= -ftree-phiprop -ftree-pta
  43              	@ -ftree-reassoc -ftree-scev-cprop -ftree-slp-vectorize
  44              	@ -ftree-vect-loop-version -funit-at-a-time -fverbose-asm
  45              	@ -fzero-initialized-in-bss -mfix-cortex-m3-ldrd -mlittle-endian
  46              	@ -mpic-data-is-text-relative -msched-prolog -mthumb -munaligned-access
  47              	@ -mvectorize-with-neon-quad
  48              	
  49              		.text
  50              	.Ltext0:
  51              		.cfi_sections	.debug_frame
  52              		.section	.text._Znwj,"ax",%progbits
  53              		.align	2
  54              		.global	_Znwj
  55              		.thumb
  56              		.thumb_func
  57              		.type	_Znwj, %function
ARM GAS  C:\Users\Adrian\AppData\Local\Temp\ccETyeaT.s 			page 2


  58              	_Znwj:
  59              	.LFB55:
  60              		.file 1 "configuration/overrides.cpp"
   1:configuration/overrides.cpp **** /**
   2:configuration/overrides.cpp ****  * \file overrides.cpp
   3:configuration/overrides.cpp ****  * \brief Overrides of C++ functions.
   4:configuration/overrides.cpp ****  *
   5:configuration/overrides.cpp ****  * Overrides of C++ functions.
   6:configuration/overrides.cpp ****  *
   7:configuration/overrides.cpp ****  * \author Mazeryt Freager
   8:configuration/overrides.cpp ****  * \date 2012-08-28
   9:configuration/overrides.cpp ****  */
  10:configuration/overrides.cpp **** 
  11:configuration/overrides.cpp **** #include <stddef.h>
  12:configuration/overrides.cpp **** 
  13:configuration/overrides.cpp **** #include "FreeRTOS.h"
  14:configuration/overrides.cpp **** 
  15:configuration/overrides.cpp **** #include "helper.h"
  16:configuration/overrides.cpp **** 
  17:configuration/overrides.cpp **** /**
  18:configuration/overrides.cpp ****  * \brief Operator new without exceptions.
  19:configuration/overrides.cpp ****  *
  20:configuration/overrides.cpp ****  * Operator new without exceptions. This uses FreeRTOS memory allocation.
  21:configuration/overrides.cpp ****  *
  22:configuration/overrides.cpp ****  * \param [in] size is the requested size of memory
  23:configuration/overrides.cpp ****  *
  24:configuration/overrides.cpp ****  * \return pointer to allocated memory or NULL if allocation failed
  25:configuration/overrides.cpp ****  */
  26:configuration/overrides.cpp **** 
  27:configuration/overrides.cpp **** void* operator new(size_t size) throw()
  28:configuration/overrides.cpp **** {
  61              		.loc 1 28 0
  62              		.cfi_startproc
  63              		@ args = 0, pretend = 0, frame = 8
  64              		@ frame_needed = 1, uses_anonymous_args = 0
  65 0000 80B5     		push	{r7, lr}	@
  66              		.cfi_def_cfa_offset 8
  67              		.cfi_offset 7, -8
  68              		.cfi_offset 14, -4
  69 0002 82B0     		sub	sp, sp, #8	@,,
  70              		.cfi_def_cfa_offset 16
  71 0004 00AF     		add	r7, sp, #0	@,,
  72              		.cfi_def_cfa_register 7
  73 0006 7860     		str	r0, [r7, #4]	@ size, size
  29:configuration/overrides.cpp **** 	return pvPortMalloc(size);
  74              		.loc 1 29 0
  75 0008 7868     		ldr	r0, [r7, #4]	@, size
  76 000a FFF7FEFF 		bl	pvPortMalloc	@
  77 000e 0346     		mov	r3, r0	@ D.6333,
  30:configuration/overrides.cpp **** }
  78              		.loc 1 30 0
  79 0010 1846     		mov	r0, r3	@, <retval>
  80 0012 0837     		adds	r7, r7, #8	@,,
  81 0014 BD46     		mov	sp, r7	@,
  82              		@ sp needed	@
  83 0016 80BD     		pop	{r7, pc}	@
  84              		.cfi_endproc
ARM GAS  C:\Users\Adrian\AppData\Local\Temp\ccETyeaT.s 			page 3


  85              	.LFE55:
  86              		.size	_Znwj, .-_Znwj
  87              		.section	.text._ZdlPv,"ax",%progbits
  88              		.align	2
  89              		.global	_ZdlPv
  90              		.thumb
  91              		.thumb_func
  92              		.type	_ZdlPv, %function
  93              	_ZdlPv:
  94              	.LFB56:
  31:configuration/overrides.cpp **** 
  32:configuration/overrides.cpp **** /**
  33:configuration/overrides.cpp ****  * \brief Operator delete without exceptions.
  34:configuration/overrides.cpp ****  *
  35:configuration/overrides.cpp ****  * Operator delete without exceptions. This uses FreeRTOS memory allocation.
  36:configuration/overrides.cpp ****  *
  37:configuration/overrides.cpp ****  * \param [in] ptr is the pointer to memory segment that should be freed
  38:configuration/overrides.cpp ****  */
  39:configuration/overrides.cpp **** 
  40:configuration/overrides.cpp **** void operator delete(void* ptr) throw ()
  41:configuration/overrides.cpp **** {
  95              		.loc 1 41 0
  96              		.cfi_startproc
  97              		@ args = 0, pretend = 0, frame = 8
  98              		@ frame_needed = 1, uses_anonymous_args = 0
  99 0000 80B5     		push	{r7, lr}	@
 100              		.cfi_def_cfa_offset 8
 101              		.cfi_offset 7, -8
 102              		.cfi_offset 14, -4
 103 0002 82B0     		sub	sp, sp, #8	@,,
 104              		.cfi_def_cfa_offset 16
 105 0004 00AF     		add	r7, sp, #0	@,,
 106              		.cfi_def_cfa_register 7
 107 0006 7860     		str	r0, [r7, #4]	@ ptr, ptr
  42:configuration/overrides.cpp **** 	if (ptr)
 108              		.loc 1 42 0
 109 0008 7B68     		ldr	r3, [r7, #4]	@ tmp110, ptr
 110 000a 002B     		cmp	r3, #0	@ tmp110,
 111 000c 02D0     		beq	.L3	@,
  43:configuration/overrides.cpp **** 		vPortFree(ptr);
 112              		.loc 1 43 0
 113 000e 7868     		ldr	r0, [r7, #4]	@, ptr
 114 0010 FFF7FEFF 		bl	vPortFree	@
 115              	.L3:
  44:configuration/overrides.cpp **** }
 116              		.loc 1 44 0
 117 0014 0837     		adds	r7, r7, #8	@,,
 118 0016 BD46     		mov	sp, r7	@,
 119              		@ sp needed	@
 120 0018 80BD     		pop	{r7, pc}	@
 121              		.cfi_endproc
 122              	.LFE56:
 123              		.size	_ZdlPv, .-_ZdlPv
 124 001a 00BF     		.section	.rodata
 125              		.align	2
 126              	.LC0:
 127 0000 41737365 		.ascii	"Assertion \"%s\" failed at line %d in %s\012\000"
ARM GAS  C:\Users\Adrian\AppData\Local\Temp\ccETyeaT.s 			page 4


 127      7274696F 
 127      6E202225 
 127      73222066 
 127      61696C65 
 128              		.align	2
 129              	.LC1:
 130 0028 50757265 		.ascii	"Pure virtual function was called...\000"
 130      20766972 
 130      7475616C 
 130      2066756E 
 130      6374696F 
 131              		.align	2
 132              	.LC2:
 133 004c 636F6E66 		.ascii	"configuration/overrides.cpp\000"
 133      69677572 
 133      6174696F 
 133      6E2F6F76 
 133      65727269 
 134              		.section	.text.__cxa_pure_virtual,"ax",%progbits
 135              		.align	2
 136              		.global	__cxa_pure_virtual
 137              		.thumb
 138              		.thumb_func
 139              		.type	__cxa_pure_virtual, %function
 140              	__cxa_pure_virtual:
 141              	.LFB57:
  45:configuration/overrides.cpp **** 
  46:configuration/overrides.cpp **** /**
  47:configuration/overrides.cpp ****  * \brief Pure virtual function called handler.
  48:configuration/overrides.cpp ****  *
  49:configuration/overrides.cpp ****  * Pure virtual function called handler.
  50:configuration/overrides.cpp ****  */
  51:configuration/overrides.cpp **** 
  52:configuration/overrides.cpp **** extern "C" void __cxa_pure_virtual(void)
  53:configuration/overrides.cpp **** {
 142              		.loc 1 53 0
 143              		.cfi_startproc
 144              		@ args = 0, pretend = 0, frame = 0
 145              		@ frame_needed = 1, uses_anonymous_args = 0
 146 0000 80B5     		push	{r7, lr}	@
 147              		.cfi_def_cfa_offset 8
 148              		.cfi_offset 7, -8
 149              		.cfi_offset 14, -4
 150 0002 00AF     		add	r7, sp, #0	@,,
 151              		.cfi_def_cfa_register 7
  54:configuration/overrides.cpp **** 	PLATFORM_ASSERT("Pure virtual function was called...");
 152              		.loc 1 54 0
 153 0004 0348     		ldr	r0, .L7	@,
 154 0006 0449     		ldr	r1, .L7+4	@,
 155 0008 3622     		movs	r2, #54	@,
 156 000a 044B     		ldr	r3, .L7+8	@,
 157 000c FFF7FEFF 		bl	printf	@
 158              	.L6:
  52:configuration/overrides.cpp **** extern "C" void __cxa_pure_virtual(void)
 159              		.loc 1 52 0 discriminator 1
 160 0010 FEE7     		b	.L6	@
 161              	.L8:
ARM GAS  C:\Users\Adrian\AppData\Local\Temp\ccETyeaT.s 			page 5


 162 0012 00BF     		.align	2
 163              	.L7:
 164 0014 00000000 		.word	.LC0
 165 0018 28000000 		.word	.LC1
 166 001c 4C000000 		.word	.LC2
 167              		.cfi_endproc
 168              	.LFE57:
 169              		.size	__cxa_pure_virtual, .-__cxa_pure_virtual
 170              		.text
 171              	.Letext0:
 172              		.file 2 "d:\\programy\\gnu tools arm embedded\\4.8 2014q2\\lib\\gcc\\arm-none-eabi\\4.8.4\\include
 173              		.file 3 "d:\\programy\\gnu tools arm embedded\\4.8 2014q2\\arm-none-eabi\\include\\machine\\_defau
 174              		.file 4 "d:\\programy\\gnu tools arm embedded\\4.8 2014q2\\arm-none-eabi\\include\\stdint.h"
 175              		.file 5 "inc/core_cm3.h"