ARM GAS  C:\Users\Adrian\AppData\Local\Temp\ccSb56Ec.s 			page 1


   1              		.syntax unified
   2              		.cpu cortex-m3
   3              		.fpu softvfp
   4              		.eabi_attribute 20, 1	@ Tag_ABI_FP_denormal
   5              		.eabi_attribute 21, 1	@ Tag_ABI_FP_exceptions
   6              		.eabi_attribute 23, 3	@ Tag_ABI_FP_number_model
   7              		.eabi_attribute 24, 1	@ Tag_ABI_align8_needed
   8              		.eabi_attribute 25, 1	@ Tag_ABI_align8_preserved
   9              		.eabi_attribute 26, 1	@ Tag_ABI_enum_size
  10              		.eabi_attribute 30, 6	@ Tag_ABI_optimization_goals
  11              		.eabi_attribute 34, 1	@ Tag_CPU_unaligned_access
  12              		.eabi_attribute 18, 4	@ Tag_ABI_PCS_wchar_t
  13              		.file	"port.c"
  14              	@ GNU C (GNU Tools for ARM Embedded Processors) version 4.8.4 20140526 (release) [ARM/embedded-4_8-
  15              	@	compiled by GNU C version 4.6.4, GMP version 4.3.2, MPFR version 2.4.2, MPC version 0.8.1
  16              	@ GGC heuristics: --param ggc-min-expand=100 --param ggc-min-heapsize=131072
  17              	@ options passed:  -I . -I inc -I FreeRTOS/include
  18              	@ -I FreeRTOS/portable/GCC/ARM_CM3 -I FatFS -I peripherals -I configuration
  19              	@ -I drivers -I application -imultilib armv7-m
  20              	@ -iprefix d:\programy\gnu tools arm embedded\4.8 2014q2\bin\../lib/gcc/arm-none-eabi/4.8.4/
  21              	@ -isysroot d:\programy\gnu tools arm embedded\4.8 2014q2\bin\../arm-none-eabi
  22              	@ -MD out/port.d -MF out/port.d -MP -MQ out/port.o -D__USES_INITFINI__
  23              	@ -D STM32L1XX_MD FreeRTOS/portable/GCC/ARM_CM3/port.c -mcpu=cortex-m3
  24              	@ -mthumb -auxbase-strip out/port.o -g -ggdb3 -O0 -Wall -Wstrict-prototypes
  25              	@ -Wextra -std=c11 -ffunction-sections -fdata-sections -fverbose-asm
  26              	@ options enabled:  -faggressive-loop-optimizations -fauto-inc-dec
  27              	@ -fbranch-count-reg -fcommon -fdata-sections -fdelete-null-pointer-checks
  28              	@ -fdwarf2-cfi-asm -fearly-inlining -feliminate-unused-debug-types
  29              	@ -ffunction-cse -ffunction-sections -fgcse-lm -fgnu-runtime -fident
  30              	@ -finline-atomics -fira-hoist-pressure -fira-share-save-slots
  31              	@ -fira-share-spill-slots -fivopts -fkeep-static-consts
  32              	@ -fleading-underscore -fmath-errno -fmerge-debug-strings
  33              	@ -fmove-loop-invariants -fpeephole -fprefetch-loop-arrays
  34              	@ -freg-struct-return -fsched-critical-path-heuristic
  35              	@ -fsched-dep-count-heuristic -fsched-group-heuristic -fsched-interblock
  36              	@ -fsched-last-insn-heuristic -fsched-rank-heuristic -fsched-spec
  37              	@ -fsched-spec-insn-heuristic -fsched-stalled-insns-dep -fshow-column
  38              	@ -fsigned-zeros -fsplit-ivs-in-unroller -fstrict-volatile-bitfields
  39              	@ -fsync-libcalls -ftrapping-math -ftree-coalesce-vars -ftree-cselim
  40              	@ -ftree-forwprop -ftree-loop-if-convert -ftree-loop-im -ftree-loop-ivcanon
  41              	@ -ftree-loop-optimize -ftree-parallelize-loops= -ftree-phiprop -ftree-pta
  42              	@ -ftree-reassoc -ftree-scev-cprop -ftree-slp-vectorize
  43              	@ -ftree-vect-loop-version -funit-at-a-time -fverbose-asm
  44              	@ -fzero-initialized-in-bss -mfix-cortex-m3-ldrd -mlittle-endian
  45              	@ -mpic-data-is-text-relative -msched-prolog -mthumb -munaligned-access
  46              	@ -mvectorize-with-neon-quad
  47              	
  48              		.text
  49              	.Ltext0:
  50              		.cfi_sections	.debug_frame
  51              		.global	ulKernelPriority
  52              		.section	.rodata.ulKernelPriority,"a",%progbits
  53              		.align	2
  54              		.type	ulKernelPriority, %object
  55              		.size	ulKernelPriority, 4
  56              	ulKernelPriority:
  57 0000 F0000000 		.word	240
ARM GAS  C:\Users\Adrian\AppData\Local\Temp\ccSb56Ec.s 			page 2


  58              		.section	.data.uxCriticalNesting,"aw",%progbits
  59              		.align	2
  60              		.type	uxCriticalNesting, %object
  61              		.size	uxCriticalNesting, 4
  62              	uxCriticalNesting:
  63 0000 AAAAAAAA 		.word	-1431655766
  64              		.section	.text.pxPortInitialiseStack,"ax",%progbits
  65              		.align	2
  66              		.global	pxPortInitialiseStack
  67              		.thumb
  68              		.thumb_func
  69              		.type	pxPortInitialiseStack, %function
  70              	pxPortInitialiseStack:
  71              	.LFB55:
  72              		.file 1 "FreeRTOS/portable/GCC/ARM_CM3/port.c"
   1:FreeRTOS/portable/GCC/ARM_CM3/port.c **** /*
   2:FreeRTOS/portable/GCC/ARM_CM3/port.c ****     FreeRTOS V7.2.0 - Copyright (C) 2012 Real Time Engineers Ltd.
   3:FreeRTOS/portable/GCC/ARM_CM3/port.c **** 
   4:FreeRTOS/portable/GCC/ARM_CM3/port.c **** 
   5:FreeRTOS/portable/GCC/ARM_CM3/port.c ****     ***************************************************************************
   6:FreeRTOS/portable/GCC/ARM_CM3/port.c ****      *                                                                       *
   7:FreeRTOS/portable/GCC/ARM_CM3/port.c ****      *    FreeRTOS tutorial books are available in pdf and paperback.        *
   8:FreeRTOS/portable/GCC/ARM_CM3/port.c ****      *    Complete, revised, and edited pdf reference manuals are also       *
   9:FreeRTOS/portable/GCC/ARM_CM3/port.c ****      *    available.                                                         *
  10:FreeRTOS/portable/GCC/ARM_CM3/port.c ****      *                                                                       *
  11:FreeRTOS/portable/GCC/ARM_CM3/port.c ****      *    Purchasing FreeRTOS documentation will not only help you, by       *
  12:FreeRTOS/portable/GCC/ARM_CM3/port.c ****      *    ensuring you get running as quickly as possible and with an        *
  13:FreeRTOS/portable/GCC/ARM_CM3/port.c ****      *    in-depth knowledge of how to use FreeRTOS, it will also help       *
  14:FreeRTOS/portable/GCC/ARM_CM3/port.c ****      *    the FreeRTOS project to continue with its mission of providing     *
  15:FreeRTOS/portable/GCC/ARM_CM3/port.c ****      *    professional grade, cross platform, de facto standard solutions    *
  16:FreeRTOS/portable/GCC/ARM_CM3/port.c ****      *    for microcontrollers - completely free of charge!                  *
  17:FreeRTOS/portable/GCC/ARM_CM3/port.c ****      *                                                                       *
  18:FreeRTOS/portable/GCC/ARM_CM3/port.c ****      *    >>> See http://www.FreeRTOS.org/Documentation for details. <<<     *
  19:FreeRTOS/portable/GCC/ARM_CM3/port.c ****      *                                                                       *
  20:FreeRTOS/portable/GCC/ARM_CM3/port.c ****      *    Thank you for using FreeRTOS, and thank you for your support!      *
  21:FreeRTOS/portable/GCC/ARM_CM3/port.c ****      *                                                                       *
  22:FreeRTOS/portable/GCC/ARM_CM3/port.c ****     ***************************************************************************
  23:FreeRTOS/portable/GCC/ARM_CM3/port.c **** 
  24:FreeRTOS/portable/GCC/ARM_CM3/port.c **** 
  25:FreeRTOS/portable/GCC/ARM_CM3/port.c ****     This file is part of the FreeRTOS distribution.
  26:FreeRTOS/portable/GCC/ARM_CM3/port.c **** 
  27:FreeRTOS/portable/GCC/ARM_CM3/port.c ****     FreeRTOS is free software; you can redistribute it and/or modify it under
  28:FreeRTOS/portable/GCC/ARM_CM3/port.c ****     the terms of the GNU General Public License (version 2) as published by the
  29:FreeRTOS/portable/GCC/ARM_CM3/port.c ****     Free Software Foundation AND MODIFIED BY the FreeRTOS exception.
  30:FreeRTOS/portable/GCC/ARM_CM3/port.c ****     >>>NOTE<<< The modification to the GPL is included to allow you to
  31:FreeRTOS/portable/GCC/ARM_CM3/port.c ****     distribute a combined work that includes FreeRTOS without being obliged to
  32:FreeRTOS/portable/GCC/ARM_CM3/port.c ****     provide the source code for proprietary components outside of the FreeRTOS
  33:FreeRTOS/portable/GCC/ARM_CM3/port.c ****     kernel.  FreeRTOS is distributed in the hope that it will be useful, but
  34:FreeRTOS/portable/GCC/ARM_CM3/port.c ****     WITHOUT ANY WARRANTY; without even the implied warranty of MERCHANTABILITY
  35:FreeRTOS/portable/GCC/ARM_CM3/port.c ****     or FITNESS FOR A PARTICULAR PURPOSE.  See the GNU General Public License for
  36:FreeRTOS/portable/GCC/ARM_CM3/port.c ****     more details. You should have received a copy of the GNU General Public
  37:FreeRTOS/portable/GCC/ARM_CM3/port.c ****     License and the FreeRTOS license exception along with FreeRTOS; if not it
  38:FreeRTOS/portable/GCC/ARM_CM3/port.c ****     can be viewed here: http://www.freertos.org/a00114.html and also obtained
  39:FreeRTOS/portable/GCC/ARM_CM3/port.c ****     by writing to Richard Barry, contact details for whom are available on the
  40:FreeRTOS/portable/GCC/ARM_CM3/port.c ****     FreeRTOS WEB site.
  41:FreeRTOS/portable/GCC/ARM_CM3/port.c **** 
  42:FreeRTOS/portable/GCC/ARM_CM3/port.c ****     1 tab == 4 spaces!
ARM GAS  C:\Users\Adrian\AppData\Local\Temp\ccSb56Ec.s 			page 3


  43:FreeRTOS/portable/GCC/ARM_CM3/port.c ****     
  44:FreeRTOS/portable/GCC/ARM_CM3/port.c ****     ***************************************************************************
  45:FreeRTOS/portable/GCC/ARM_CM3/port.c ****      *                                                                       *
  46:FreeRTOS/portable/GCC/ARM_CM3/port.c ****      *    Having a problem?  Start by reading the FAQ "My application does   *
  47:FreeRTOS/portable/GCC/ARM_CM3/port.c ****      *    not run, what could be wrong?                                      *
  48:FreeRTOS/portable/GCC/ARM_CM3/port.c ****      *                                                                       *
  49:FreeRTOS/portable/GCC/ARM_CM3/port.c ****      *    http://www.FreeRTOS.org/FAQHelp.html                               *
  50:FreeRTOS/portable/GCC/ARM_CM3/port.c ****      *                                                                       *
  51:FreeRTOS/portable/GCC/ARM_CM3/port.c ****     ***************************************************************************
  52:FreeRTOS/portable/GCC/ARM_CM3/port.c **** 
  53:FreeRTOS/portable/GCC/ARM_CM3/port.c ****     
  54:FreeRTOS/portable/GCC/ARM_CM3/port.c ****     http://www.FreeRTOS.org - Documentation, training, latest information, 
  55:FreeRTOS/portable/GCC/ARM_CM3/port.c ****     license and contact details.
  56:FreeRTOS/portable/GCC/ARM_CM3/port.c ****     
  57:FreeRTOS/portable/GCC/ARM_CM3/port.c ****     http://www.FreeRTOS.org/plus - A selection of FreeRTOS ecosystem products,
  58:FreeRTOS/portable/GCC/ARM_CM3/port.c ****     including FreeRTOS+Trace - an indispensable productivity tool.
  59:FreeRTOS/portable/GCC/ARM_CM3/port.c **** 
  60:FreeRTOS/portable/GCC/ARM_CM3/port.c ****     Real Time Engineers ltd license FreeRTOS to High Integrity Systems, who sell 
  61:FreeRTOS/portable/GCC/ARM_CM3/port.c ****     the code with commercial support, indemnification, and middleware, under 
  62:FreeRTOS/portable/GCC/ARM_CM3/port.c ****     the OpenRTOS brand: http://www.OpenRTOS.com.  High Integrity Systems also
  63:FreeRTOS/portable/GCC/ARM_CM3/port.c ****     provide a safety engineered and independently SIL3 certified version under 
  64:FreeRTOS/portable/GCC/ARM_CM3/port.c ****     the SafeRTOS brand: http://www.SafeRTOS.com.
  65:FreeRTOS/portable/GCC/ARM_CM3/port.c **** */
  66:FreeRTOS/portable/GCC/ARM_CM3/port.c **** 
  67:FreeRTOS/portable/GCC/ARM_CM3/port.c **** /*-----------------------------------------------------------
  68:FreeRTOS/portable/GCC/ARM_CM3/port.c ****  * Implementation of functions defined in portable.h for the ARM CM3 port.
  69:FreeRTOS/portable/GCC/ARM_CM3/port.c ****  *----------------------------------------------------------*/
  70:FreeRTOS/portable/GCC/ARM_CM3/port.c **** 
  71:FreeRTOS/portable/GCC/ARM_CM3/port.c **** /* Scheduler includes. */
  72:FreeRTOS/portable/GCC/ARM_CM3/port.c **** #include "FreeRTOS.h"
  73:FreeRTOS/portable/GCC/ARM_CM3/port.c **** #include "task.h"
  74:FreeRTOS/portable/GCC/ARM_CM3/port.c **** 
  75:FreeRTOS/portable/GCC/ARM_CM3/port.c **** /* For backward compatibility, ensure configKERNEL_INTERRUPT_PRIORITY is
  76:FreeRTOS/portable/GCC/ARM_CM3/port.c **** defined.  The value should also ensure backward compatibility.
  77:FreeRTOS/portable/GCC/ARM_CM3/port.c **** FreeRTOS.org versions prior to V4.4.0 did not include this definition. */
  78:FreeRTOS/portable/GCC/ARM_CM3/port.c **** #ifndef configKERNEL_INTERRUPT_PRIORITY
  79:FreeRTOS/portable/GCC/ARM_CM3/port.c **** 	#define configKERNEL_INTERRUPT_PRIORITY 255
  80:FreeRTOS/portable/GCC/ARM_CM3/port.c **** #endif
  81:FreeRTOS/portable/GCC/ARM_CM3/port.c **** 
  82:FreeRTOS/portable/GCC/ARM_CM3/port.c **** /* Constants required to manipulate the NVIC. */
  83:FreeRTOS/portable/GCC/ARM_CM3/port.c **** #define portNVIC_SYSTICK_CTRL		( ( volatile unsigned long *) 0xe000e010 )
  84:FreeRTOS/portable/GCC/ARM_CM3/port.c **** #define portNVIC_SYSTICK_LOAD		( ( volatile unsigned long *) 0xe000e014 )
  85:FreeRTOS/portable/GCC/ARM_CM3/port.c **** #define portNVIC_INT_CTRL			( ( volatile unsigned long *) 0xe000ed04 )
  86:FreeRTOS/portable/GCC/ARM_CM3/port.c **** #define portNVIC_SYSPRI2			( ( volatile unsigned long *) 0xe000ed20 )
  87:FreeRTOS/portable/GCC/ARM_CM3/port.c **** #define portNVIC_SYSTICK_CLK		0x00000004
  88:FreeRTOS/portable/GCC/ARM_CM3/port.c **** #define portNVIC_SYSTICK_INT		0x00000002
  89:FreeRTOS/portable/GCC/ARM_CM3/port.c **** #define portNVIC_SYSTICK_ENABLE		0x00000001
  90:FreeRTOS/portable/GCC/ARM_CM3/port.c **** #define portNVIC_PENDSVSET			0x10000000
  91:FreeRTOS/portable/GCC/ARM_CM3/port.c **** #define portNVIC_PENDSV_PRI			( ( ( unsigned long ) configKERNEL_INTERRUPT_PRIORITY ) << 16 )
  92:FreeRTOS/portable/GCC/ARM_CM3/port.c **** #define portNVIC_SYSTICK_PRI		( ( ( unsigned long ) configKERNEL_INTERRUPT_PRIORITY ) << 24 )
  93:FreeRTOS/portable/GCC/ARM_CM3/port.c **** 
  94:FreeRTOS/portable/GCC/ARM_CM3/port.c **** /* Constants required to set up the initial stack. */
  95:FreeRTOS/portable/GCC/ARM_CM3/port.c **** #define portINITIAL_XPSR			( 0x01000000 )
  96:FreeRTOS/portable/GCC/ARM_CM3/port.c **** 
  97:FreeRTOS/portable/GCC/ARM_CM3/port.c **** /* The priority used by the kernel is assigned to a variable to make access
  98:FreeRTOS/portable/GCC/ARM_CM3/port.c **** from inline assembler easier. */
  99:FreeRTOS/portable/GCC/ARM_CM3/port.c **** const unsigned long ulKernelPriority = configKERNEL_INTERRUPT_PRIORITY;
ARM GAS  C:\Users\Adrian\AppData\Local\Temp\ccSb56Ec.s 			page 4


 100:FreeRTOS/portable/GCC/ARM_CM3/port.c **** 
 101:FreeRTOS/portable/GCC/ARM_CM3/port.c **** /* Each task maintains its own interrupt status in the critical nesting
 102:FreeRTOS/portable/GCC/ARM_CM3/port.c **** variable. */
 103:FreeRTOS/portable/GCC/ARM_CM3/port.c **** static unsigned portBASE_TYPE uxCriticalNesting = 0xaaaaaaaa;
 104:FreeRTOS/portable/GCC/ARM_CM3/port.c **** 
 105:FreeRTOS/portable/GCC/ARM_CM3/port.c **** /*
 106:FreeRTOS/portable/GCC/ARM_CM3/port.c ****  * Setup the timer to generate the tick interrupts.
 107:FreeRTOS/portable/GCC/ARM_CM3/port.c ****  */
 108:FreeRTOS/portable/GCC/ARM_CM3/port.c **** static void prvSetupTimerInterrupt( void );
 109:FreeRTOS/portable/GCC/ARM_CM3/port.c **** 
 110:FreeRTOS/portable/GCC/ARM_CM3/port.c **** /*
 111:FreeRTOS/portable/GCC/ARM_CM3/port.c ****  * Exception handlers.
 112:FreeRTOS/portable/GCC/ARM_CM3/port.c ****  */
 113:FreeRTOS/portable/GCC/ARM_CM3/port.c **** void xPortPendSVHandler( void ) __attribute__ (( naked ));
 114:FreeRTOS/portable/GCC/ARM_CM3/port.c **** void xPortSysTickHandler( void );
 115:FreeRTOS/portable/GCC/ARM_CM3/port.c **** void vPortSVCHandler( void ) __attribute__ (( naked ));
 116:FreeRTOS/portable/GCC/ARM_CM3/port.c **** 
 117:FreeRTOS/portable/GCC/ARM_CM3/port.c **** /*
 118:FreeRTOS/portable/GCC/ARM_CM3/port.c ****  * Start first task is a separate function so it can be tested in isolation.
 119:FreeRTOS/portable/GCC/ARM_CM3/port.c ****  */
 120:FreeRTOS/portable/GCC/ARM_CM3/port.c **** static void prvPortStartFirstTask( void ) __attribute__ (( naked ));
 121:FreeRTOS/portable/GCC/ARM_CM3/port.c **** 
 122:FreeRTOS/portable/GCC/ARM_CM3/port.c **** /*-----------------------------------------------------------*/
 123:FreeRTOS/portable/GCC/ARM_CM3/port.c **** 
 124:FreeRTOS/portable/GCC/ARM_CM3/port.c **** /*
 125:FreeRTOS/portable/GCC/ARM_CM3/port.c ****  * See header file for description.
 126:FreeRTOS/portable/GCC/ARM_CM3/port.c ****  */
 127:FreeRTOS/portable/GCC/ARM_CM3/port.c **** portSTACK_TYPE *pxPortInitialiseStack( portSTACK_TYPE *pxTopOfStack, pdTASK_CODE pxCode, void *pvPa
 128:FreeRTOS/portable/GCC/ARM_CM3/port.c **** {
  73              		.loc 1 128 0
  74              		.cfi_startproc
  75              		@ args = 0, pretend = 0, frame = 16
  76              		@ frame_needed = 1, uses_anonymous_args = 0
  77              		@ link register save eliminated.
  78 0000 80B4     		push	{r7}	@
  79              		.cfi_def_cfa_offset 4
  80              		.cfi_offset 7, -4
  81 0002 85B0     		sub	sp, sp, #20	@,,
  82              		.cfi_def_cfa_offset 24
  83 0004 00AF     		add	r7, sp, #0	@,,
  84              		.cfi_def_cfa_register 7
  85 0006 F860     		str	r0, [r7, #12]	@ pxTopOfStack, pxTopOfStack
  86 0008 B960     		str	r1, [r7, #8]	@ pxCode, pxCode
  87 000a 7A60     		str	r2, [r7, #4]	@ pvParameters, pvParameters
 129:FreeRTOS/portable/GCC/ARM_CM3/port.c **** 	/* Simulate the stack frame as it would be created by a context switch
 130:FreeRTOS/portable/GCC/ARM_CM3/port.c **** 	interrupt. */
 131:FreeRTOS/portable/GCC/ARM_CM3/port.c **** 	pxTopOfStack--; /* Offset added to account for the way the MCU uses the stack on entry/exit of int
  88              		.loc 1 131 0
  89 000c FB68     		ldr	r3, [r7, #12]	@ tmp115, pxTopOfStack
  90 000e 043B     		subs	r3, r3, #4	@ tmp114, tmp115,
  91 0010 FB60     		str	r3, [r7, #12]	@ tmp114, pxTopOfStack
 132:FreeRTOS/portable/GCC/ARM_CM3/port.c **** 	*pxTopOfStack = portINITIAL_XPSR;	/* xPSR */
  92              		.loc 1 132 0
  93 0012 FB68     		ldr	r3, [r7, #12]	@ tmp116, pxTopOfStack
  94 0014 4FF08072 		mov	r2, #16777216	@ tmp117,
  95 0018 1A60     		str	r2, [r3]	@ tmp117, *pxTopOfStack_2
 133:FreeRTOS/portable/GCC/ARM_CM3/port.c **** 	pxTopOfStack--;
ARM GAS  C:\Users\Adrian\AppData\Local\Temp\ccSb56Ec.s 			page 5


  96              		.loc 1 133 0
  97 001a FB68     		ldr	r3, [r7, #12]	@ tmp119, pxTopOfStack
  98 001c 043B     		subs	r3, r3, #4	@ tmp118, tmp119,
  99 001e FB60     		str	r3, [r7, #12]	@ tmp118, pxTopOfStack
 134:FreeRTOS/portable/GCC/ARM_CM3/port.c **** 	*pxTopOfStack = ( portSTACK_TYPE ) pxCode;	/* PC */
 100              		.loc 1 134 0
 101 0020 BA68     		ldr	r2, [r7, #8]	@ pxCode.0, pxCode
 102 0022 FB68     		ldr	r3, [r7, #12]	@ tmp120, pxTopOfStack
 103 0024 1A60     		str	r2, [r3]	@ pxCode.0, *pxTopOfStack_3
 135:FreeRTOS/portable/GCC/ARM_CM3/port.c **** 	pxTopOfStack--;
 104              		.loc 1 135 0
 105 0026 FB68     		ldr	r3, [r7, #12]	@ tmp122, pxTopOfStack
 106 0028 043B     		subs	r3, r3, #4	@ tmp121, tmp122,
 107 002a FB60     		str	r3, [r7, #12]	@ tmp121, pxTopOfStack
 136:FreeRTOS/portable/GCC/ARM_CM3/port.c **** 	*pxTopOfStack = 0;	/* LR */
 108              		.loc 1 136 0
 109 002c FB68     		ldr	r3, [r7, #12]	@ tmp123, pxTopOfStack
 110 002e 0022     		movs	r2, #0	@ tmp124,
 111 0030 1A60     		str	r2, [r3]	@ tmp124, *pxTopOfStack_6
 137:FreeRTOS/portable/GCC/ARM_CM3/port.c **** 	pxTopOfStack -= 5;	/* R12, R3, R2 and R1. */
 112              		.loc 1 137 0
 113 0032 FB68     		ldr	r3, [r7, #12]	@ tmp126, pxTopOfStack
 114 0034 143B     		subs	r3, r3, #20	@ tmp125, tmp126,
 115 0036 FB60     		str	r3, [r7, #12]	@ tmp125, pxTopOfStack
 138:FreeRTOS/portable/GCC/ARM_CM3/port.c **** 	*pxTopOfStack = ( portSTACK_TYPE ) pvParameters;	/* R0 */
 116              		.loc 1 138 0
 117 0038 7A68     		ldr	r2, [r7, #4]	@ pvParameters.1, pvParameters
 118 003a FB68     		ldr	r3, [r7, #12]	@ tmp127, pxTopOfStack
 119 003c 1A60     		str	r2, [r3]	@ pvParameters.1, *pxTopOfStack_7
 139:FreeRTOS/portable/GCC/ARM_CM3/port.c **** 	pxTopOfStack -= 8;	/* R11, R10, R9, R8, R7, R6, R5 and R4. */
 120              		.loc 1 139 0
 121 003e FB68     		ldr	r3, [r7, #12]	@ tmp129, pxTopOfStack
 122 0040 203B     		subs	r3, r3, #32	@ tmp128, tmp129,
 123 0042 FB60     		str	r3, [r7, #12]	@ tmp128, pxTopOfStack
 140:FreeRTOS/portable/GCC/ARM_CM3/port.c **** 
 141:FreeRTOS/portable/GCC/ARM_CM3/port.c **** 	return pxTopOfStack;
 124              		.loc 1 141 0
 125 0044 FB68     		ldr	r3, [r7, #12]	@ D.5785, pxTopOfStack
 142:FreeRTOS/portable/GCC/ARM_CM3/port.c **** }
 126              		.loc 1 142 0
 127 0046 1846     		mov	r0, r3	@, <retval>
 128 0048 1437     		adds	r7, r7, #20	@,,
 129 004a BD46     		mov	sp, r7	@,
 130              		@ sp needed	@
 131 004c 5DF8047B 		ldr	r7, [sp], #4	@,
 132 0050 7047     		bx	lr	@
 133              		.cfi_endproc
 134              	.LFE55:
 135              		.size	pxPortInitialiseStack, .-pxPortInitialiseStack
 136 0052 00BF     		.section	.text.SVC_Handler,"ax",%progbits
 137              		.align	2
 138              		.global	SVC_Handler
 139              		.thumb
 140              		.thumb_func
 141              		.type	SVC_Handler, %function
 142              	SVC_Handler:
 143              	.LFB56:
ARM GAS  C:\Users\Adrian\AppData\Local\Temp\ccSb56Ec.s 			page 6


 143:FreeRTOS/portable/GCC/ARM_CM3/port.c **** /*-----------------------------------------------------------*/
 144:FreeRTOS/portable/GCC/ARM_CM3/port.c **** 
 145:FreeRTOS/portable/GCC/ARM_CM3/port.c **** void vPortSVCHandler( void )
 146:FreeRTOS/portable/GCC/ARM_CM3/port.c **** {
 144              		.loc 1 146 0
 145              		.cfi_startproc
 146              		@ Naked Function: prologue and epilogue provided by programmer.
 147              		@ args = 0, pretend = 0, frame = 0
 148              		@ frame_needed = 1, uses_anonymous_args = 0
 147:FreeRTOS/portable/GCC/ARM_CM3/port.c **** 	__asm volatile (
 149              		.loc 1 147 0
 150              	@ 147 "FreeRTOS/portable/GCC/ARM_CM3/port.c" 1
 151 0000 064B     			ldr	r3, pxCurrentTCBConst2		
 152 0002 1968     		ldr r1, [r3]					
 153 0004 0868     		ldr r0, [r1]					
 154 0006 B0E8F00F 		ldmia r0!, {r4-r11}				
 155 000a 80F30988 		msr psp, r0						
 156 000e 4FF00000 		mov r0, #0 						
 157 0012 80F31188 		msr	basepri, r0					
 158 0016 4EF00D0E 		orr r14, #0xd					
 159 001a 7047     		bx r14							
 160              										
 161              		.align 2						
 162 001c 00000000 	pxCurrentTCBConst2: .word pxCurrentTCB				
 163              	
 164              	@ 0 "" 2
 148:FreeRTOS/portable/GCC/ARM_CM3/port.c **** 					"	ldr	r3, pxCurrentTCBConst2		\n" /* Restore the context. */
 149:FreeRTOS/portable/GCC/ARM_CM3/port.c **** 					"	ldr r1, [r3]					\n" /* Use pxCurrentTCBConst to get the pxCurrentTCB address. */
 150:FreeRTOS/portable/GCC/ARM_CM3/port.c **** 					"	ldr r0, [r1]					\n" /* The first item in pxCurrentTCB is the task top of stack. */
 151:FreeRTOS/portable/GCC/ARM_CM3/port.c **** 					"	ldmia r0!, {r4-r11}				\n" /* Pop the registers that are not automatically saved on exceptio
 152:FreeRTOS/portable/GCC/ARM_CM3/port.c **** 					"	msr psp, r0						\n" /* Restore the task stack pointer. */
 153:FreeRTOS/portable/GCC/ARM_CM3/port.c **** 					"	mov r0, #0 						\n"
 154:FreeRTOS/portable/GCC/ARM_CM3/port.c **** 					"	msr	basepri, r0					\n"
 155:FreeRTOS/portable/GCC/ARM_CM3/port.c **** 					"	orr r14, #0xd					\n"
 156:FreeRTOS/portable/GCC/ARM_CM3/port.c **** 					"	bx r14							\n"
 157:FreeRTOS/portable/GCC/ARM_CM3/port.c **** 					"									\n"
 158:FreeRTOS/portable/GCC/ARM_CM3/port.c **** 					"	.align 2						\n"
 159:FreeRTOS/portable/GCC/ARM_CM3/port.c **** 					"pxCurrentTCBConst2: .word pxCurrentTCB				\n"
 160:FreeRTOS/portable/GCC/ARM_CM3/port.c **** 				);
 161:FreeRTOS/portable/GCC/ARM_CM3/port.c **** }
 165              		.loc 1 161 0
 166              		.thumb
 167              		.cfi_endproc
 168              	.LFE56:
 169              		.size	SVC_Handler, .-SVC_Handler
 170              		.section	.text.prvPortStartFirstTask,"ax",%progbits
 171              		.align	2
 172              		.thumb
 173              		.thumb_func
 174              		.type	prvPortStartFirstTask, %function
 175              	prvPortStartFirstTask:
 176              	.LFB57:
 162:FreeRTOS/portable/GCC/ARM_CM3/port.c **** /*-----------------------------------------------------------*/
 163:FreeRTOS/portable/GCC/ARM_CM3/port.c **** 
 164:FreeRTOS/portable/GCC/ARM_CM3/port.c **** static void prvPortStartFirstTask( void )
 165:FreeRTOS/portable/GCC/ARM_CM3/port.c **** {
 177              		.loc 1 165 0
ARM GAS  C:\Users\Adrian\AppData\Local\Temp\ccSb56Ec.s 			page 7


 178              		.cfi_startproc
 179              		@ Naked Function: prologue and epilogue provided by programmer.
 180              		@ args = 0, pretend = 0, frame = 0
 181              		@ frame_needed = 1, uses_anonymous_args = 0
 166:FreeRTOS/portable/GCC/ARM_CM3/port.c **** 	__asm volatile(
 182              		.loc 1 166 0
 183              	@ 166 "FreeRTOS/portable/GCC/ARM_CM3/port.c" 1
 184 0000 0348     		 ldr r0, =0xE000ED08 	
 185 0002 0068     	 ldr r0, [r0] 			
 186 0004 0068     	 ldr r0, [r0] 			
 187 0006 80F30888 	 msr msp, r0			
 188 000a 62B6     	 cpsie i				
 189 000c 00DF     	 svc 0					
 190 000e 00BF     	 nop					
 191              	
 192              	@ 0 "" 2
 167:FreeRTOS/portable/GCC/ARM_CM3/port.c **** 					" ldr r0, =0xE000ED08 	\n" /* Use the NVIC offset register to locate the stack. */
 168:FreeRTOS/portable/GCC/ARM_CM3/port.c **** 					" ldr r0, [r0] 			\n"
 169:FreeRTOS/portable/GCC/ARM_CM3/port.c **** 					" ldr r0, [r0] 			\n"
 170:FreeRTOS/portable/GCC/ARM_CM3/port.c **** 					" msr msp, r0			\n" /* Set the msp back to the start of the stack. */
 171:FreeRTOS/portable/GCC/ARM_CM3/port.c **** 					" cpsie i				\n" /* Globally enable interrupts. */
 172:FreeRTOS/portable/GCC/ARM_CM3/port.c **** 					" svc 0					\n" /* System call to start first task. */
 173:FreeRTOS/portable/GCC/ARM_CM3/port.c **** 					" nop					\n"
 174:FreeRTOS/portable/GCC/ARM_CM3/port.c **** 				);
 175:FreeRTOS/portable/GCC/ARM_CM3/port.c **** }
 193              		.loc 1 175 0
 194              		.thumb
 195              		.cfi_endproc
 196              	.LFE57:
 197              		.size	prvPortStartFirstTask, .-prvPortStartFirstTask
 198              		.section	.text.xPortStartScheduler,"ax",%progbits
 199              		.align	2
 200              		.global	xPortStartScheduler
 201              		.thumb
 202              		.thumb_func
 203              		.type	xPortStartScheduler, %function
 204              	xPortStartScheduler:
 205              	.LFB58:
 176:FreeRTOS/portable/GCC/ARM_CM3/port.c **** /*-----------------------------------------------------------*/
 177:FreeRTOS/portable/GCC/ARM_CM3/port.c **** 
 178:FreeRTOS/portable/GCC/ARM_CM3/port.c **** /*
 179:FreeRTOS/portable/GCC/ARM_CM3/port.c ****  * See header file for description.
 180:FreeRTOS/portable/GCC/ARM_CM3/port.c ****  */
 181:FreeRTOS/portable/GCC/ARM_CM3/port.c **** portBASE_TYPE xPortStartScheduler( void )
 182:FreeRTOS/portable/GCC/ARM_CM3/port.c **** {
 206              		.loc 1 182 0
 207              		.cfi_startproc
 208              		@ args = 0, pretend = 0, frame = 0
 209              		@ frame_needed = 1, uses_anonymous_args = 0
 210 0000 80B5     		push	{r7, lr}	@
 211              		.cfi_def_cfa_offset 8
 212              		.cfi_offset 7, -8
 213              		.cfi_offset 14, -4
 214 0002 00AF     		add	r7, sp, #0	@,,
 215              		.cfi_def_cfa_register 7
 183:FreeRTOS/portable/GCC/ARM_CM3/port.c **** 	/* configMAX_SYSCALL_INTERRUPT_PRIORITY must not be set to 0.  
 184:FreeRTOS/portable/GCC/ARM_CM3/port.c **** 	See http://www.FreeRTOS.org/RTOS-Cortex-M3-M4.html */
ARM GAS  C:\Users\Adrian\AppData\Local\Temp\ccSb56Ec.s 			page 8


 185:FreeRTOS/portable/GCC/ARM_CM3/port.c **** 	configASSERT( configMAX_SYSCALL_INTERRUPT_PRIORITY );
 186:FreeRTOS/portable/GCC/ARM_CM3/port.c **** 
 187:FreeRTOS/portable/GCC/ARM_CM3/port.c **** 	/* Make PendSV, CallSV and SysTick the same priroity as the kernel. */
 188:FreeRTOS/portable/GCC/ARM_CM3/port.c **** 	*(portNVIC_SYSPRI2) |= portNVIC_PENDSV_PRI;
 216              		.loc 1 188 0
 217 0004 0A4B     		ldr	r3, .L7	@ D.5786,
 218 0006 0A4A     		ldr	r2, .L7	@ D.5786,
 219 0008 1268     		ldr	r2, [r2]	@ D.5787, *_2
 220 000a 42F47002 		orr	r2, r2, #15728640	@ D.5787, D.5787,
 221 000e 1A60     		str	r2, [r3]	@ D.5787, *_1
 189:FreeRTOS/portable/GCC/ARM_CM3/port.c **** 	*(portNVIC_SYSPRI2) |= portNVIC_SYSTICK_PRI;
 222              		.loc 1 189 0
 223 0010 074B     		ldr	r3, .L7	@ D.5786,
 224 0012 074A     		ldr	r2, .L7	@ D.5786,
 225 0014 1268     		ldr	r2, [r2]	@ D.5787, *_6
 226 0016 42F07042 		orr	r2, r2, #-268435456	@ D.5787, D.5787,
 227 001a 1A60     		str	r2, [r3]	@ D.5787, *_5
 190:FreeRTOS/portable/GCC/ARM_CM3/port.c **** 
 191:FreeRTOS/portable/GCC/ARM_CM3/port.c **** 	/* Start the timer that generates the tick ISR.  Interrupts are disabled
 192:FreeRTOS/portable/GCC/ARM_CM3/port.c **** 	here already. */
 193:FreeRTOS/portable/GCC/ARM_CM3/port.c **** 	prvSetupTimerInterrupt();
 228              		.loc 1 193 0
 229 001c FFF7FEFF 		bl	prvSetupTimerInterrupt	@
 194:FreeRTOS/portable/GCC/ARM_CM3/port.c **** 
 195:FreeRTOS/portable/GCC/ARM_CM3/port.c **** 	/* Initialise the critical nesting count ready for the first task. */
 196:FreeRTOS/portable/GCC/ARM_CM3/port.c **** 	uxCriticalNesting = 0;
 230              		.loc 1 196 0
 231 0020 044B     		ldr	r3, .L7+4	@ tmp120,
 232 0022 0022     		movs	r2, #0	@ tmp121,
 233 0024 1A60     		str	r2, [r3]	@ tmp121, uxCriticalNesting
 197:FreeRTOS/portable/GCC/ARM_CM3/port.c **** 
 198:FreeRTOS/portable/GCC/ARM_CM3/port.c **** 	/* Start the first task. */
 199:FreeRTOS/portable/GCC/ARM_CM3/port.c **** 	prvPortStartFirstTask();
 234              		.loc 1 199 0
 235 0026 FFF7FEFF 		bl	prvPortStartFirstTask	@
 200:FreeRTOS/portable/GCC/ARM_CM3/port.c **** 
 201:FreeRTOS/portable/GCC/ARM_CM3/port.c **** 	/* Should not get here! */
 202:FreeRTOS/portable/GCC/ARM_CM3/port.c **** 	return 0;
 236              		.loc 1 202 0
 237 002a 0023     		movs	r3, #0	@ D.5788,
 203:FreeRTOS/portable/GCC/ARM_CM3/port.c **** }
 238              		.loc 1 203 0
 239 002c 1846     		mov	r0, r3	@, <retval>
 240 002e 80BD     		pop	{r7, pc}	@
 241              	.L8:
 242              		.align	2
 243              	.L7:
 244 0030 20ED00E0 		.word	-536810208
 245 0034 00000000 		.word	uxCriticalNesting
 246              		.cfi_endproc
 247              	.LFE58:
 248              		.size	xPortStartScheduler, .-xPortStartScheduler
 249              		.section	.text.vPortEndScheduler,"ax",%progbits
 250              		.align	2
 251              		.global	vPortEndScheduler
 252              		.thumb
 253              		.thumb_func
ARM GAS  C:\Users\Adrian\AppData\Local\Temp\ccSb56Ec.s 			page 9


 254              		.type	vPortEndScheduler, %function
 255              	vPortEndScheduler:
 256              	.LFB59:
 204:FreeRTOS/portable/GCC/ARM_CM3/port.c **** /*-----------------------------------------------------------*/
 205:FreeRTOS/portable/GCC/ARM_CM3/port.c **** 
 206:FreeRTOS/portable/GCC/ARM_CM3/port.c **** void vPortEndScheduler( void )
 207:FreeRTOS/portable/GCC/ARM_CM3/port.c **** {
 257              		.loc 1 207 0
 258              		.cfi_startproc
 259              		@ args = 0, pretend = 0, frame = 0
 260              		@ frame_needed = 1, uses_anonymous_args = 0
 261              		@ link register save eliminated.
 262 0000 80B4     		push	{r7}	@
 263              		.cfi_def_cfa_offset 4
 264              		.cfi_offset 7, -4
 265 0002 00AF     		add	r7, sp, #0	@,,
 266              		.cfi_def_cfa_register 7
 208:FreeRTOS/portable/GCC/ARM_CM3/port.c **** 	/* It is unlikely that the CM3 port will require this function as there
 209:FreeRTOS/portable/GCC/ARM_CM3/port.c **** 	is nothing to return to.  */
 210:FreeRTOS/portable/GCC/ARM_CM3/port.c **** }
 267              		.loc 1 210 0
 268 0004 BD46     		mov	sp, r7	@,
 269              		@ sp needed	@
 270 0006 5DF8047B 		ldr	r7, [sp], #4	@,
 271 000a 7047     		bx	lr	@
 272              		.cfi_endproc
 273              	.LFE59:
 274              		.size	vPortEndScheduler, .-vPortEndScheduler
 275              		.section	.text.vPortYieldFromISR,"ax",%progbits
 276              		.align	2
 277              		.global	vPortYieldFromISR
 278              		.thumb
 279              		.thumb_func
 280              		.type	vPortYieldFromISR, %function
 281              	vPortYieldFromISR:
 282              	.LFB60:
 211:FreeRTOS/portable/GCC/ARM_CM3/port.c **** /*-----------------------------------------------------------*/
 212:FreeRTOS/portable/GCC/ARM_CM3/port.c **** 
 213:FreeRTOS/portable/GCC/ARM_CM3/port.c **** void vPortYieldFromISR( void )
 214:FreeRTOS/portable/GCC/ARM_CM3/port.c **** {
 283              		.loc 1 214 0
 284              		.cfi_startproc
 285              		@ args = 0, pretend = 0, frame = 0
 286              		@ frame_needed = 1, uses_anonymous_args = 0
 287              		@ link register save eliminated.
 288 0000 80B4     		push	{r7}	@
 289              		.cfi_def_cfa_offset 4
 290              		.cfi_offset 7, -4
 291 0002 00AF     		add	r7, sp, #0	@,,
 292              		.cfi_def_cfa_register 7
 215:FreeRTOS/portable/GCC/ARM_CM3/port.c **** 	/* Set a PendSV to request a context switch. */
 216:FreeRTOS/portable/GCC/ARM_CM3/port.c **** 	*(portNVIC_INT_CTRL) = portNVIC_PENDSVSET;
 293              		.loc 1 216 0
 294 0004 034B     		ldr	r3, .L11	@ D.5789,
 295 0006 4FF08052 		mov	r2, #268435456	@ tmp111,
 296 000a 1A60     		str	r2, [r3]	@ tmp111, *_1
 217:FreeRTOS/portable/GCC/ARM_CM3/port.c **** }
ARM GAS  C:\Users\Adrian\AppData\Local\Temp\ccSb56Ec.s 			page 10


 297              		.loc 1 217 0
 298 000c BD46     		mov	sp, r7	@,
 299              		@ sp needed	@
 300 000e 5DF8047B 		ldr	r7, [sp], #4	@,
 301 0012 7047     		bx	lr	@
 302              	.L12:
 303              		.align	2
 304              	.L11:
 305 0014 04ED00E0 		.word	-536810236
 306              		.cfi_endproc
 307              	.LFE60:
 308              		.size	vPortYieldFromISR, .-vPortYieldFromISR
 309              		.section	.text.vPortEnterCritical,"ax",%progbits
 310              		.align	2
 311              		.global	vPortEnterCritical
 312              		.thumb
 313              		.thumb_func
 314              		.type	vPortEnterCritical, %function
 315              	vPortEnterCritical:
 316              	.LFB61:
 218:FreeRTOS/portable/GCC/ARM_CM3/port.c **** /*-----------------------------------------------------------*/
 219:FreeRTOS/portable/GCC/ARM_CM3/port.c **** 
 220:FreeRTOS/portable/GCC/ARM_CM3/port.c **** void vPortEnterCritical( void )
 221:FreeRTOS/portable/GCC/ARM_CM3/port.c **** {
 317              		.loc 1 221 0
 318              		.cfi_startproc
 319              		@ args = 0, pretend = 0, frame = 0
 320              		@ frame_needed = 1, uses_anonymous_args = 0
 321              		@ link register save eliminated.
 322 0000 80B4     		push	{r7}	@
 323              		.cfi_def_cfa_offset 4
 324              		.cfi_offset 7, -4
 325 0002 00AF     		add	r7, sp, #0	@,,
 326              		.cfi_def_cfa_register 7
 222:FreeRTOS/portable/GCC/ARM_CM3/port.c **** 	portDISABLE_INTERRUPTS();
 327              		.loc 1 222 0
 328              	@ 222 "FreeRTOS/portable/GCC/ARM_CM3/port.c" 1
 329 0004 4FF05000 			mov r0, #80									@
 330 0008 80F31188 		msr basepri, r0							
 331              	
 332              	@ 0 "" 2
 223:FreeRTOS/portable/GCC/ARM_CM3/port.c **** 	uxCriticalNesting++;
 333              		.loc 1 223 0
 334              		.thumb
 335 000c 044B     		ldr	r3, .L14	@ tmp112,
 336 000e 1B68     		ldr	r3, [r3]	@ uxCriticalNesting.2, uxCriticalNesting
 337 0010 5A1C     		adds	r2, r3, #1	@ uxCriticalNesting.3, uxCriticalNesting.2,
 338 0012 034B     		ldr	r3, .L14	@ tmp113,
 339 0014 1A60     		str	r2, [r3]	@ uxCriticalNesting.3, uxCriticalNesting
 224:FreeRTOS/portable/GCC/ARM_CM3/port.c **** }
 340              		.loc 1 224 0
 341 0016 BD46     		mov	sp, r7	@,
 342              		@ sp needed	@
 343 0018 5DF8047B 		ldr	r7, [sp], #4	@,
 344 001c 7047     		bx	lr	@
 345              	.L15:
 346 001e 00BF     		.align	2
ARM GAS  C:\Users\Adrian\AppData\Local\Temp\ccSb56Ec.s 			page 11


 347              	.L14:
 348 0020 00000000 		.word	uxCriticalNesting
 349              		.cfi_endproc
 350              	.LFE61:
 351              		.size	vPortEnterCritical, .-vPortEnterCritical
 352              		.section	.text.vPortExitCritical,"ax",%progbits
 353              		.align	2
 354              		.global	vPortExitCritical
 355              		.thumb
 356              		.thumb_func
 357              		.type	vPortExitCritical, %function
 358              	vPortExitCritical:
 359              	.LFB62:
 225:FreeRTOS/portable/GCC/ARM_CM3/port.c **** /*-----------------------------------------------------------*/
 226:FreeRTOS/portable/GCC/ARM_CM3/port.c **** 
 227:FreeRTOS/portable/GCC/ARM_CM3/port.c **** void vPortExitCritical( void )
 228:FreeRTOS/portable/GCC/ARM_CM3/port.c **** {
 360              		.loc 1 228 0
 361              		.cfi_startproc
 362              		@ args = 0, pretend = 0, frame = 0
 363              		@ frame_needed = 1, uses_anonymous_args = 0
 364              		@ link register save eliminated.
 365 0000 80B4     		push	{r7}	@
 366              		.cfi_def_cfa_offset 4
 367              		.cfi_offset 7, -4
 368 0002 00AF     		add	r7, sp, #0	@,,
 369              		.cfi_def_cfa_register 7
 229:FreeRTOS/portable/GCC/ARM_CM3/port.c **** 	uxCriticalNesting--;
 370              		.loc 1 229 0
 371 0004 084B     		ldr	r3, .L18	@ tmp113,
 372 0006 1B68     		ldr	r3, [r3]	@ uxCriticalNesting.4, uxCriticalNesting
 373 0008 5A1E     		subs	r2, r3, #1	@ uxCriticalNesting.5, uxCriticalNesting.4,
 374 000a 074B     		ldr	r3, .L18	@ tmp114,
 375 000c 1A60     		str	r2, [r3]	@ uxCriticalNesting.5, uxCriticalNesting
 230:FreeRTOS/portable/GCC/ARM_CM3/port.c **** 	if( uxCriticalNesting == 0 )
 376              		.loc 1 230 0
 377 000e 064B     		ldr	r3, .L18	@ tmp115,
 378 0010 1B68     		ldr	r3, [r3]	@ uxCriticalNesting.6, uxCriticalNesting
 379 0012 002B     		cmp	r3, #0	@ uxCriticalNesting.6,
 380 0014 03D1     		bne	.L16	@,
 231:FreeRTOS/portable/GCC/ARM_CM3/port.c **** 	{
 232:FreeRTOS/portable/GCC/ARM_CM3/port.c **** 		portENABLE_INTERRUPTS();
 381              		.loc 1 232 0
 382              	@ 232 "FreeRTOS/portable/GCC/ARM_CM3/port.c" 1
 383 0016 4FF00000 			mov r0, #0					
 384 001a 80F31188 		msr basepri, r0				
 385              	
 386              	@ 0 "" 2
 387              		.thumb
 388              	.L16:
 233:FreeRTOS/portable/GCC/ARM_CM3/port.c **** 	}
 234:FreeRTOS/portable/GCC/ARM_CM3/port.c **** }
 389              		.loc 1 234 0
 390 001e BD46     		mov	sp, r7	@,
 391              		@ sp needed	@
 392 0020 5DF8047B 		ldr	r7, [sp], #4	@,
 393 0024 7047     		bx	lr	@
ARM GAS  C:\Users\Adrian\AppData\Local\Temp\ccSb56Ec.s 			page 12


 394              	.L19:
 395 0026 00BF     		.align	2
 396              	.L18:
 397 0028 00000000 		.word	uxCriticalNesting
 398              		.cfi_endproc
 399              	.LFE62:
 400              		.size	vPortExitCritical, .-vPortExitCritical
 401              		.section	.text.PendSV_Handler,"ax",%progbits
 402              		.align	2
 403              		.global	PendSV_Handler
 404              		.thumb
 405              		.thumb_func
 406              		.type	PendSV_Handler, %function
 407              	PendSV_Handler:
 408              	.LFB63:
 235:FreeRTOS/portable/GCC/ARM_CM3/port.c **** /*-----------------------------------------------------------*/
 236:FreeRTOS/portable/GCC/ARM_CM3/port.c **** 
 237:FreeRTOS/portable/GCC/ARM_CM3/port.c **** void xPortPendSVHandler( void )
 238:FreeRTOS/portable/GCC/ARM_CM3/port.c **** {
 409              		.loc 1 238 0
 410              		.cfi_startproc
 411              		@ Naked Function: prologue and epilogue provided by programmer.
 412              		@ args = 0, pretend = 0, frame = 0
 413              		@ frame_needed = 1, uses_anonymous_args = 0
 239:FreeRTOS/portable/GCC/ARM_CM3/port.c **** 	/* This is a naked function. */
 240:FreeRTOS/portable/GCC/ARM_CM3/port.c **** 
 241:FreeRTOS/portable/GCC/ARM_CM3/port.c **** 	__asm volatile
 414              		.loc 1 241 0
 415              	@ 241 "FreeRTOS/portable/GCC/ARM_CM3/port.c" 1
 416 0000 EFF30980 			mrs r0, psp							
 417              											
 418 0004 0C4B     		ldr	r3, pxCurrentTCBConst			
 419 0006 1A68     		ldr	r2, [r3]						
 420              											
 421 0008 20E9F00F 		stmdb r0!, {r4-r11}					
 422 000c 1060     		str r0, [r2]						
 423              											
 424 000e 2DE90840 		stmdb sp!, {r3, r14}				
 425 0012 4FF05000 		mov r0, #80								@
 426 0016 80F31188 		msr basepri, r0						
 427 001a FFF7FEFF 		bl vTaskSwitchContext				
 428 001e 4FF00000 		mov r0, #0							
 429 0022 80F31188 		msr basepri, r0						
 430 0026 BDE80840 		ldmia sp!, {r3, r14}				
 431              											
 432 002a 1968     		ldr r1, [r3]						
 433 002c 0868     		ldr r0, [r1]						
 434 002e B0E8F00F 		ldmia r0!, {r4-r11}					
 435 0032 80F30988 		msr psp, r0							
 436 0036 7047     		bx r14								
 437              											
 438              		.align 2							
 439 0038 00000000 	pxCurrentTCBConst: .word pxCurrentTCB	
 440              	
 441              	@ 0 "" 2
 242:FreeRTOS/portable/GCC/ARM_CM3/port.c **** 	(
 243:FreeRTOS/portable/GCC/ARM_CM3/port.c **** 	"	mrs r0, psp							\n"
ARM GAS  C:\Users\Adrian\AppData\Local\Temp\ccSb56Ec.s 			page 13


 244:FreeRTOS/portable/GCC/ARM_CM3/port.c **** 	"										\n"
 245:FreeRTOS/portable/GCC/ARM_CM3/port.c **** 	"	ldr	r3, pxCurrentTCBConst			\n" /* Get the location of the current TCB. */
 246:FreeRTOS/portable/GCC/ARM_CM3/port.c **** 	"	ldr	r2, [r3]						\n"
 247:FreeRTOS/portable/GCC/ARM_CM3/port.c **** 	"										\n"
 248:FreeRTOS/portable/GCC/ARM_CM3/port.c **** 	"	stmdb r0!, {r4-r11}					\n" /* Save the remaining registers. */
 249:FreeRTOS/portable/GCC/ARM_CM3/port.c **** 	"	str r0, [r2]						\n" /* Save the new top of stack into the first member of the TCB. */
 250:FreeRTOS/portable/GCC/ARM_CM3/port.c **** 	"										\n"
 251:FreeRTOS/portable/GCC/ARM_CM3/port.c **** 	"	stmdb sp!, {r3, r14}				\n"
 252:FreeRTOS/portable/GCC/ARM_CM3/port.c **** 	"	mov r0, %0							\n"
 253:FreeRTOS/portable/GCC/ARM_CM3/port.c **** 	"	msr basepri, r0						\n"
 254:FreeRTOS/portable/GCC/ARM_CM3/port.c **** 	"	bl vTaskSwitchContext				\n"
 255:FreeRTOS/portable/GCC/ARM_CM3/port.c **** 	"	mov r0, #0							\n"
 256:FreeRTOS/portable/GCC/ARM_CM3/port.c **** 	"	msr basepri, r0						\n"
 257:FreeRTOS/portable/GCC/ARM_CM3/port.c **** 	"	ldmia sp!, {r3, r14}				\n"
 258:FreeRTOS/portable/GCC/ARM_CM3/port.c **** 	"										\n"	/* Restore the context, including the critical nesting count. */
 259:FreeRTOS/portable/GCC/ARM_CM3/port.c **** 	"	ldr r1, [r3]						\n"
 260:FreeRTOS/portable/GCC/ARM_CM3/port.c **** 	"	ldr r0, [r1]						\n" /* The first item in pxCurrentTCB is the task top of stack. */
 261:FreeRTOS/portable/GCC/ARM_CM3/port.c **** 	"	ldmia r0!, {r4-r11}					\n" /* Pop the registers. */
 262:FreeRTOS/portable/GCC/ARM_CM3/port.c **** 	"	msr psp, r0							\n"
 263:FreeRTOS/portable/GCC/ARM_CM3/port.c **** 	"	bx r14								\n"
 264:FreeRTOS/portable/GCC/ARM_CM3/port.c **** 	"										\n"
 265:FreeRTOS/portable/GCC/ARM_CM3/port.c **** 	"	.align 2							\n"
 266:FreeRTOS/portable/GCC/ARM_CM3/port.c **** 	"pxCurrentTCBConst: .word pxCurrentTCB	\n"
 267:FreeRTOS/portable/GCC/ARM_CM3/port.c **** 	::"i"(configMAX_SYSCALL_INTERRUPT_PRIORITY)
 268:FreeRTOS/portable/GCC/ARM_CM3/port.c **** 	);
 269:FreeRTOS/portable/GCC/ARM_CM3/port.c **** }
 442              		.loc 1 269 0
 443              		.thumb
 444              		.cfi_endproc
 445              	.LFE63:
 446              		.size	PendSV_Handler, .-PendSV_Handler
 447              		.section	.text.SysTick_Handler,"ax",%progbits
 448              		.align	2
 449              		.global	SysTick_Handler
 450              		.thumb
 451              		.thumb_func
 452              		.type	SysTick_Handler, %function
 453              	SysTick_Handler:
 454              	.LFB64:
 270:FreeRTOS/portable/GCC/ARM_CM3/port.c **** /*-----------------------------------------------------------*/
 271:FreeRTOS/portable/GCC/ARM_CM3/port.c **** 
 272:FreeRTOS/portable/GCC/ARM_CM3/port.c **** void xPortSysTickHandler( void )
 273:FreeRTOS/portable/GCC/ARM_CM3/port.c **** {
 455              		.loc 1 273 0
 456              		.cfi_startproc
 457              		@ args = 0, pretend = 0, frame = 8
 458              		@ frame_needed = 1, uses_anonymous_args = 0
 459 0000 80B5     		push	{r7, lr}	@
 460              		.cfi_def_cfa_offset 8
 461              		.cfi_offset 7, -8
 462              		.cfi_offset 14, -4
 463 0002 82B0     		sub	sp, sp, #8	@,,
 464              		.cfi_def_cfa_offset 16
 465 0004 00AF     		add	r7, sp, #0	@,,
 466              		.cfi_def_cfa_register 7
 274:FreeRTOS/portable/GCC/ARM_CM3/port.c **** unsigned long ulDummy;
 275:FreeRTOS/portable/GCC/ARM_CM3/port.c **** 
ARM GAS  C:\Users\Adrian\AppData\Local\Temp\ccSb56Ec.s 			page 14


 276:FreeRTOS/portable/GCC/ARM_CM3/port.c **** 	/* If using preemption, also force a context switch. */
 277:FreeRTOS/portable/GCC/ARM_CM3/port.c **** 	#if configUSE_PREEMPTION == 1
 278:FreeRTOS/portable/GCC/ARM_CM3/port.c **** 		*(portNVIC_INT_CTRL) = portNVIC_PENDSVSET;
 467              		.loc 1 278 0
 468 0006 094B     		ldr	r3, .L22	@ D.5790,
 469 0008 4FF08052 		mov	r2, #268435456	@ tmp111,
 470 000c 1A60     		str	r2, [r3]	@ tmp111, *_1
 279:FreeRTOS/portable/GCC/ARM_CM3/port.c **** 	#endif
 280:FreeRTOS/portable/GCC/ARM_CM3/port.c **** 
 281:FreeRTOS/portable/GCC/ARM_CM3/port.c **** 	ulDummy = portSET_INTERRUPT_MASK_FROM_ISR();
 471              		.loc 1 281 0
 472 000e 0023     		movs	r3, #0	@ tmp112,
 473 0010 7B60     		str	r3, [r7, #4]	@ tmp112, ulDummy
 474              	@ 281 "FreeRTOS/portable/GCC/ARM_CM3/port.c" 1
 475 0012 4FF05000 			mov r0, #80									@
 476 0016 80F31188 		msr basepri, r0							
 477              	
 478              	@ 0 "" 2
 282:FreeRTOS/portable/GCC/ARM_CM3/port.c **** 	{
 283:FreeRTOS/portable/GCC/ARM_CM3/port.c **** 		vTaskIncrementTick();
 479              		.loc 1 283 0
 480              		.thumb
 481 001a FFF7FEFF 		bl	vTaskIncrementTick	@
 284:FreeRTOS/portable/GCC/ARM_CM3/port.c **** 	}
 285:FreeRTOS/portable/GCC/ARM_CM3/port.c **** 	portCLEAR_INTERRUPT_MASK_FROM_ISR( ulDummy );
 482              		.loc 1 285 0
 483              	@ 285 "FreeRTOS/portable/GCC/ARM_CM3/port.c" 1
 484 001e 4FF00000 			mov r0, #0					
 485 0022 80F31188 		msr basepri, r0				
 486              	
 487              	@ 0 "" 2
 286:FreeRTOS/portable/GCC/ARM_CM3/port.c **** }
 488              		.loc 1 286 0
 489              		.thumb
 490 0026 0837     		adds	r7, r7, #8	@,,
 491 0028 BD46     		mov	sp, r7	@,
 492              		@ sp needed	@
 493 002a 80BD     		pop	{r7, pc}	@
 494              	.L23:
 495              		.align	2
 496              	.L22:
 497 002c 04ED00E0 		.word	-536810236
 498              		.cfi_endproc
 499              	.LFE64:
 500              		.size	SysTick_Handler, .-SysTick_Handler
 501              		.section	.text.prvSetupTimerInterrupt,"ax",%progbits
 502              		.align	2
 503              		.thumb
 504              		.thumb_func
 505              		.type	prvSetupTimerInterrupt, %function
 506              	prvSetupTimerInterrupt:
 507              	.LFB65:
 287:FreeRTOS/portable/GCC/ARM_CM3/port.c **** /*-----------------------------------------------------------*/
 288:FreeRTOS/portable/GCC/ARM_CM3/port.c **** 
 289:FreeRTOS/portable/GCC/ARM_CM3/port.c **** /*
 290:FreeRTOS/portable/GCC/ARM_CM3/port.c ****  * Setup the systick timer to generate the tick interrupts at the required
 291:FreeRTOS/portable/GCC/ARM_CM3/port.c ****  * frequency.
ARM GAS  C:\Users\Adrian\AppData\Local\Temp\ccSb56Ec.s 			page 15


 292:FreeRTOS/portable/GCC/ARM_CM3/port.c ****  */
 293:FreeRTOS/portable/GCC/ARM_CM3/port.c **** void prvSetupTimerInterrupt( void )
 294:FreeRTOS/portable/GCC/ARM_CM3/port.c **** {
 508              		.loc 1 294 0
 509              		.cfi_startproc
 510              		@ args = 0, pretend = 0, frame = 0
 511              		@ frame_needed = 1, uses_anonymous_args = 0
 512 0000 98B5     		push	{r3, r4, r7, lr}	@
 513              		.cfi_def_cfa_offset 16
 514              		.cfi_offset 3, -16
 515              		.cfi_offset 4, -12
 516              		.cfi_offset 7, -8
 517              		.cfi_offset 14, -4
 518 0002 00AF     		add	r7, sp, #0	@,,
 519              		.cfi_def_cfa_register 7
 295:FreeRTOS/portable/GCC/ARM_CM3/port.c **** 	/* Configure SysTick to interrupt at the requested rate. */
 296:FreeRTOS/portable/GCC/ARM_CM3/port.c **** 	*(portNVIC_SYSTICK_LOAD) = ( configCPU_CLOCK_HZ / configTICK_RATE_HZ ) - 1UL;
 520              		.loc 1 296 0
 521 0004 064C     		ldr	r4, .L25	@ D.5791,
 522 0006 FFF7FEFF 		bl	rccGetCoreFrequency	@
 523 000a 0246     		mov	r2, r0	@ D.5792,
 524 000c 054B     		ldr	r3, .L25+4	@ tmp116,
 525 000e A3FB0213 		umull	r1, r3, r3, r2	@, tmp115, tmp116, D.5792
 526 0012 9B09     		lsrs	r3, r3, #6	@ D.5792, tmp115,
 527 0014 013B     		subs	r3, r3, #1	@ D.5792, D.5792,
 528 0016 2360     		str	r3, [r4]	@ D.5792, *_1
 297:FreeRTOS/portable/GCC/ARM_CM3/port.c **** 	*(portNVIC_SYSTICK_CTRL) = portNVIC_SYSTICK_CLK | portNVIC_SYSTICK_INT | portNVIC_SYSTICK_ENABLE;
 529              		.loc 1 297 0
 530 0018 034B     		ldr	r3, .L25+8	@ D.5791,
 531 001a 0722     		movs	r2, #7	@ tmp117,
 532 001c 1A60     		str	r2, [r3]	@ tmp117, *_5
 298:FreeRTOS/portable/GCC/ARM_CM3/port.c **** }
 533              		.loc 1 298 0
 534 001e 98BD     		pop	{r3, r4, r7, pc}	@
 535              	.L26:
 536              		.align	2
 537              	.L25:
 538 0020 14E000E0 		.word	-536813548
 539 0024 D34D6210 		.word	274877907
 540 0028 10E000E0 		.word	-536813552
 541              		.cfi_endproc
 542              	.LFE65:
 543              		.size	prvSetupTimerInterrupt, .-prvSetupTimerInterrupt
 544              		.text
 545              	.Letext0:
 546              		.file 2 "FreeRTOS/include/projdefs.h"
 547              		.file 3 "d:\\programy\\gnu tools arm embedded\\4.8 2014q2\\arm-none-eabi\\include\\machine\\_defau
 548              		.file 4 "d:\\programy\\gnu tools arm embedded\\4.8 2014q2\\arm-none-eabi\\include\\stdint.h"
 549              		.file 5 "FreeRTOS/portable/GCC/ARM_CM3/portmacro.h"
 550              		.file 6 "inc/core_cm3.h"