ARM GAS  C:\Users\Adrian\AppData\Local\Temp\cczkgeIH.s 			page 1


   1              		.syntax unified
   2              		.cpu cortex-m3
   3              		.fpu softvfp
   4              		.eabi_attribute 20, 1	@ Tag_ABI_FP_denormal
   5              		.eabi_attribute 21, 1	@ Tag_ABI_FP_exceptions
   6              		.eabi_attribute 23, 3	@ Tag_ABI_FP_number_model
   7              		.eabi_attribute 24, 1	@ Tag_ABI_align8_needed
   8              		.eabi_attribute 25, 1	@ Tag_ABI_align8_preserved
   9              		.eabi_attribute 26, 1	@ Tag_ABI_enum_size
  10              		.eabi_attribute 30, 6	@ Tag_ABI_optimization_goals
  11              		.eabi_attribute 34, 1	@ Tag_CPU_unaligned_access
  12              		.eabi_attribute 18, 4	@ Tag_ABI_PCS_wchar_t
  13              		.file	"printf-stdarg.c"
  14              	@ GNU C (GNU Tools for ARM Embedded Processors) version 4.8.4 20140526 (release) [ARM/embedded-4_8-
  15              	@	compiled by GNU C version 4.6.4, GMP version 4.3.2, MPFR version 2.4.2, MPC version 0.8.1
  16              	@ GGC heuristics: --param ggc-min-expand=100 --param ggc-min-heapsize=131072
  17              	@ options passed:  -I . -I inc -I FreeRTOS/include
  18              	@ -I FreeRTOS/portable/GCC/ARM_CM3 -I FatFS -I peripherals -I configuration
  19              	@ -I drivers -I application -imultilib armv7-m
  20              	@ -iprefix d:\programy\gnu tools arm embedded\4.8 2014q2\bin\../lib/gcc/arm-none-eabi/4.8.4/
  21              	@ -isysroot d:\programy\gnu tools arm embedded\4.8 2014q2\bin\../arm-none-eabi
  22              	@ -MD out/printf-stdarg.d -MF out/printf-stdarg.d -MP
  23              	@ -MQ out/printf-stdarg.o -D__USES_INITFINI__ -D STM32L1XX_MD
  24              	@ configuration/printf-stdarg.c -mcpu=cortex-m3 -mthumb
  25              	@ -auxbase-strip out/printf-stdarg.o -g -ggdb3 -O0 -Wall
  26              	@ -Wstrict-prototypes -Wextra -std=c11 -ffunction-sections -fdata-sections
  27              	@ -fverbose-asm
  28              	@ options enabled:  -faggressive-loop-optimizations -fauto-inc-dec
  29              	@ -fbranch-count-reg -fcommon -fdata-sections -fdelete-null-pointer-checks
  30              	@ -fdwarf2-cfi-asm -fearly-inlining -feliminate-unused-debug-types
  31              	@ -ffunction-cse -ffunction-sections -fgcse-lm -fgnu-runtime -fident
  32              	@ -finline-atomics -fira-hoist-pressure -fira-share-save-slots
  33              	@ -fira-share-spill-slots -fivopts -fkeep-static-consts
  34              	@ -fleading-underscore -fmath-errno -fmerge-debug-strings
  35              	@ -fmove-loop-invariants -fpeephole -fprefetch-loop-arrays
  36              	@ -freg-struct-return -fsched-critical-path-heuristic
  37              	@ -fsched-dep-count-heuristic -fsched-group-heuristic -fsched-interblock
  38              	@ -fsched-last-insn-heuristic -fsched-rank-heuristic -fsched-spec
  39              	@ -fsched-spec-insn-heuristic -fsched-stalled-insns-dep -fshow-column
  40              	@ -fsigned-zeros -fsplit-ivs-in-unroller -fstrict-volatile-bitfields
  41              	@ -fsync-libcalls -ftrapping-math -ftree-coalesce-vars -ftree-cselim
  42              	@ -ftree-forwprop -ftree-loop-if-convert -ftree-loop-im -ftree-loop-ivcanon
  43              	@ -ftree-loop-optimize -ftree-parallelize-loops= -ftree-phiprop -ftree-pta
  44              	@ -ftree-reassoc -ftree-scev-cprop -ftree-slp-vectorize
  45              	@ -ftree-vect-loop-version -funit-at-a-time -fverbose-asm
  46              	@ -fzero-initialized-in-bss -mfix-cortex-m3-ldrd -mlittle-endian
  47              	@ -mpic-data-is-text-relative -msched-prolog -mthumb -munaligned-access
  48              	@ -mvectorize-with-neon-quad
  49              	
  50              		.text
  51              	.Ltext0:
  52              		.cfi_sections	.debug_frame
  53              		.section	.text.printchar,"ax",%progbits
  54              		.align	2
  55              		.thumb
  56              		.thumb_func
  57              		.type	printchar, %function
ARM GAS  C:\Users\Adrian\AppData\Local\Temp\cczkgeIH.s 			page 2


  58              	printchar:
  59              	.LFB0:
  60              		.file 1 "configuration/printf-stdarg.c"
   1:configuration/printf-stdarg.c **** /*
   2:configuration/printf-stdarg.c **** 	Copyright 2001, 2002 Georges Menie (www.menie.org)
   3:configuration/printf-stdarg.c **** 	stdarg version contributed by Christian Ettinger
   4:configuration/printf-stdarg.c **** 
   5:configuration/printf-stdarg.c ****     This program is free software; you can redistribute it and/or modify
   6:configuration/printf-stdarg.c ****     it under the terms of the GNU Lesser General Public License as published by
   7:configuration/printf-stdarg.c ****     the Free Software Foundation; either version 2 of the License, or
   8:configuration/printf-stdarg.c ****     (at your option) any later version.
   9:configuration/printf-stdarg.c **** 
  10:configuration/printf-stdarg.c ****     This program is distributed in the hope that it will be useful,
  11:configuration/printf-stdarg.c ****     but WITHOUT ANY WARRANTY; without even the implied warranty of
  12:configuration/printf-stdarg.c ****     MERCHANTABILITY or FITNESS FOR A PARTICULAR PURPOSE.  See the
  13:configuration/printf-stdarg.c ****     GNU Lesser General Public License for more details.
  14:configuration/printf-stdarg.c **** 
  15:configuration/printf-stdarg.c ****     You should have received a copy of the GNU Lesser General Public License
  16:configuration/printf-stdarg.c ****     along with this program; if not, write to the Free Software
  17:configuration/printf-stdarg.c ****     Foundation, Inc., 59 Temple Place, Suite 330, Boston, MA  02111-1307  USA
  18:configuration/printf-stdarg.c **** */
  19:configuration/printf-stdarg.c **** 
  20:configuration/printf-stdarg.c **** /*
  21:configuration/printf-stdarg.c **** 	putchar is the only external dependency for this file,
  22:configuration/printf-stdarg.c **** 	if you have a working putchar, leave it commented out.
  23:configuration/printf-stdarg.c **** 	If not, uncomment the define below and
  24:configuration/printf-stdarg.c **** 	replace outbyte(c) by your own function call.
  25:configuration/printf-stdarg.c **** 
  26:configuration/printf-stdarg.c **** #define putchar(c) outbyte(c)
  27:configuration/printf-stdarg.c **** */
  28:configuration/printf-stdarg.c **** 
  29:configuration/printf-stdarg.c **** #include <stdarg.h>
  30:configuration/printf-stdarg.c **** 
  31:configuration/printf-stdarg.c **** #define putchar(c)							usartSendCharacter(c)
  32:configuration/printf-stdarg.c **** 
  33:configuration/printf-stdarg.c **** static void printchar(char **str, int c)
  34:configuration/printf-stdarg.c **** {
  61              		.loc 1 34 0
  62              		.cfi_startproc
  63              		@ args = 0, pretend = 0, frame = 8
  64              		@ frame_needed = 1, uses_anonymous_args = 0
  65 0000 80B5     		push	{r7, lr}	@
  66              		.cfi_def_cfa_offset 8
  67              		.cfi_offset 7, -8
  68              		.cfi_offset 14, -4
  69 0002 82B0     		sub	sp, sp, #8	@,,
  70              		.cfi_def_cfa_offset 16
  71 0004 00AF     		add	r7, sp, #0	@,,
  72              		.cfi_def_cfa_register 7
  73 0006 7860     		str	r0, [r7, #4]	@ str, str
  74 0008 3960     		str	r1, [r7]	@ c, c
  35:configuration/printf-stdarg.c **** 	extern int putchar(int c);
  36:configuration/printf-stdarg.c **** 	
  37:configuration/printf-stdarg.c **** 	if (str) {
  75              		.loc 1 37 0
  76 000a 7B68     		ldr	r3, [r7, #4]	@ tmp114, str
  77 000c 002B     		cmp	r3, #0	@ tmp114,
ARM GAS  C:\Users\Adrian\AppData\Local\Temp\cczkgeIH.s 			page 3


  78 000e 0AD0     		beq	.L2	@,
  38:configuration/printf-stdarg.c **** 		**str = c;
  79              		.loc 1 38 0
  80 0010 7B68     		ldr	r3, [r7, #4]	@ tmp115, str
  81 0012 1B68     		ldr	r3, [r3]	@ D.4165, *str_1(D)
  82 0014 3A68     		ldr	r2, [r7]	@ tmp116, c
  83 0016 D2B2     		uxtb	r2, r2	@ D.4166, tmp116
  84 0018 1A70     		strb	r2, [r3]	@ tmp117, *_2
  39:configuration/printf-stdarg.c **** 		++(*str);
  85              		.loc 1 39 0
  86 001a 7B68     		ldr	r3, [r7, #4]	@ tmp118, str
  87 001c 1B68     		ldr	r3, [r3]	@ D.4165, *str_1(D)
  88 001e 5A1C     		adds	r2, r3, #1	@ D.4165, D.4165,
  89 0020 7B68     		ldr	r3, [r7, #4]	@ tmp119, str
  90 0022 1A60     		str	r2, [r3]	@ D.4165, *str_1(D)
  91 0024 02E0     		b	.L1	@
  92              	.L2:
  40:configuration/printf-stdarg.c **** 	}
  41:configuration/printf-stdarg.c **** 	else (void)putchar(c);
  93              		.loc 1 41 0
  94 0026 3868     		ldr	r0, [r7]	@, c
  95 0028 FFF7FEFF 		bl	usartSendCharacter	@
  96              	.L1:
  42:configuration/printf-stdarg.c **** }
  97              		.loc 1 42 0
  98 002c 0837     		adds	r7, r7, #8	@,,
  99 002e BD46     		mov	sp, r7	@,
 100              		@ sp needed	@
 101 0030 80BD     		pop	{r7, pc}	@
 102              		.cfi_endproc
 103              	.LFE0:
 104              		.size	printchar, .-printchar
 105 0032 00BF     		.section	.text.prints,"ax",%progbits
 106              		.align	2
 107              		.thumb
 108              		.thumb_func
 109              		.type	prints, %function
 110              	prints:
 111              	.LFB1:
  43:configuration/printf-stdarg.c **** 
  44:configuration/printf-stdarg.c **** #define PAD_RIGHT 1
  45:configuration/printf-stdarg.c **** #define PAD_ZERO 2
  46:configuration/printf-stdarg.c **** 
  47:configuration/printf-stdarg.c **** static int prints(char **out, const char *string, int width, int pad)
  48:configuration/printf-stdarg.c **** {
 112              		.loc 1 48 0
 113              		.cfi_startproc
 114              		@ args = 0, pretend = 0, frame = 16
 115              		@ frame_needed = 1, uses_anonymous_args = 0
 116 0000 2DE9F041 		push	{r4, r5, r6, r7, r8, lr}	@
 117              		.cfi_def_cfa_offset 24
 118              		.cfi_offset 4, -24
 119              		.cfi_offset 5, -20
 120              		.cfi_offset 6, -16
 121              		.cfi_offset 7, -12
 122              		.cfi_offset 8, -8
 123              		.cfi_offset 14, -4
ARM GAS  C:\Users\Adrian\AppData\Local\Temp\cczkgeIH.s 			page 4


 124 0004 84B0     		sub	sp, sp, #16	@,,
 125              		.cfi_def_cfa_offset 40
 126 0006 00AF     		add	r7, sp, #0	@,,
 127              		.cfi_def_cfa_register 7
 128 0008 F860     		str	r0, [r7, #12]	@ out, out
 129 000a B960     		str	r1, [r7, #8]	@ string, string
 130 000c 7A60     		str	r2, [r7, #4]	@ width, width
 131 000e 3B60     		str	r3, [r7]	@ pad, pad
  49:configuration/printf-stdarg.c **** 	register int pc = 0, padchar = ' ';
 132              		.loc 1 49 0
 133 0010 0024     		movs	r4, #0	@ pc,
 134 0012 2026     		movs	r6, #32	@ padchar,
  50:configuration/printf-stdarg.c **** 
  51:configuration/printf-stdarg.c **** 	if (width > 0) {
 135              		.loc 1 51 0
 136 0014 7B68     		ldr	r3, [r7, #4]	@ tmp122, width
 137 0016 002B     		cmp	r3, #0	@ tmp122,
 138 0018 19DD     		ble	.L5	@,
 139              	.LBB2:
  52:configuration/printf-stdarg.c **** 		register int len = 0;
 140              		.loc 1 52 0
 141 001a 0025     		movs	r5, #0	@ len,
  53:configuration/printf-stdarg.c **** 		register const char *ptr;
  54:configuration/printf-stdarg.c **** 		for (ptr = string; *ptr; ++ptr) ++len;
 142              		.loc 1 54 0
 143 001c D7F80880 		ldr	r8, [r7, #8]	@ ptr, string
 144 0020 02E0     		b	.L6	@
 145              	.L7:
 146              		.loc 1 54 0 is_stmt 0 discriminator 2
 147 0022 0135     		adds	r5, r5, #1	@ len, len,
 148 0024 08F10108 		add	r8, r8, #1	@ ptr, ptr,
 149              	.L6:
 150              		.loc 1 54 0 discriminator 1
 151 0028 98F80030 		ldrb	r3, [r8]	@ zero_extendqisi2	@ D.4167, *ptr_13
 152 002c 002B     		cmp	r3, #0	@ D.4167,
 153 002e F8D1     		bne	.L7	@,
  55:configuration/printf-stdarg.c **** 		if (len >= width) width = 0;
 154              		.loc 1 55 0 is_stmt 1
 155 0030 7B68     		ldr	r3, [r7, #4]	@ tmp123, width
 156 0032 9D42     		cmp	r5, r3	@ len, tmp123
 157 0034 02DB     		blt	.L8	@,
 158              		.loc 1 55 0 is_stmt 0 discriminator 1
 159 0036 0023     		movs	r3, #0	@ tmp124,
 160 0038 7B60     		str	r3, [r7, #4]	@ tmp124, width
 161 003a 02E0     		b	.L9	@
 162              	.L8:
  56:configuration/printf-stdarg.c **** 		else width -= len;
 163              		.loc 1 56 0 is_stmt 1
 164 003c 7B68     		ldr	r3, [r7, #4]	@ tmp126, width
 165 003e 5B1B     		subs	r3, r3, r5	@ tmp125, tmp126, len
 166 0040 7B60     		str	r3, [r7, #4]	@ tmp125, width
 167              	.L9:
  57:configuration/printf-stdarg.c **** 		if (pad & PAD_ZERO) padchar = '0';
 168              		.loc 1 57 0
 169 0042 3B68     		ldr	r3, [r7]	@ tmp127, pad
 170 0044 03F00203 		and	r3, r3, #2	@ D.4168, tmp127,
 171 0048 002B     		cmp	r3, #0	@ D.4168,
ARM GAS  C:\Users\Adrian\AppData\Local\Temp\cczkgeIH.s 			page 5


 172 004a 00D0     		beq	.L5	@,
 173              		.loc 1 57 0 is_stmt 0 discriminator 1
 174 004c 3026     		movs	r6, #48	@ padchar,
 175              	.L5:
 176              	.LBE2:
  58:configuration/printf-stdarg.c **** 	}
  59:configuration/printf-stdarg.c **** 	if (!(pad & PAD_RIGHT)) {
 177              		.loc 1 59 0 is_stmt 1
 178 004e 3B68     		ldr	r3, [r7]	@ tmp128, pad
 179 0050 03F00103 		and	r3, r3, #1	@ D.4168, tmp128,
 180 0054 002B     		cmp	r3, #0	@ D.4168,
 181 0056 0BD1     		bne	.L10	@,
  60:configuration/printf-stdarg.c **** 		for ( ; width > 0; --width) {
 182              		.loc 1 60 0
 183 0058 07E0     		b	.L11	@
 184              	.L12:
  61:configuration/printf-stdarg.c **** 			printchar (out, padchar);
 185              		.loc 1 61 0 discriminator 2
 186 005a F868     		ldr	r0, [r7, #12]	@, out
 187 005c 3146     		mov	r1, r6	@, padchar
 188 005e FFF7FEFF 		bl	printchar	@
  62:configuration/printf-stdarg.c **** 			++pc;
 189              		.loc 1 62 0 discriminator 2
 190 0062 0134     		adds	r4, r4, #1	@ pc, pc,
  60:configuration/printf-stdarg.c **** 		for ( ; width > 0; --width) {
 191              		.loc 1 60 0 discriminator 2
 192 0064 7B68     		ldr	r3, [r7, #4]	@ tmp130, width
 193 0066 013B     		subs	r3, r3, #1	@ tmp129, tmp130,
 194 0068 7B60     		str	r3, [r7, #4]	@ tmp129, width
 195              	.L11:
  60:configuration/printf-stdarg.c **** 		for ( ; width > 0; --width) {
 196              		.loc 1 60 0 is_stmt 0 discriminator 1
 197 006a 7B68     		ldr	r3, [r7, #4]	@ tmp131, width
 198 006c 002B     		cmp	r3, #0	@ tmp131,
 199 006e F4DC     		bgt	.L12	@,
 200              	.L10:
  63:configuration/printf-stdarg.c **** 		}
  64:configuration/printf-stdarg.c **** 	}
  65:configuration/printf-stdarg.c **** 	for ( ; *string ; ++string) {
 201              		.loc 1 65 0 is_stmt 1
 202 0070 09E0     		b	.L13	@
 203              	.L14:
  66:configuration/printf-stdarg.c **** 		printchar (out, *string);
 204              		.loc 1 66 0 discriminator 2
 205 0072 BB68     		ldr	r3, [r7, #8]	@ tmp132, string
 206 0074 1B78     		ldrb	r3, [r3]	@ zero_extendqisi2	@ D.4167, *string_1
 207 0076 F868     		ldr	r0, [r7, #12]	@, out
 208 0078 1946     		mov	r1, r3	@, D.4168
 209 007a FFF7FEFF 		bl	printchar	@
  67:configuration/printf-stdarg.c **** 		++pc;
 210              		.loc 1 67 0 discriminator 2
 211 007e 0134     		adds	r4, r4, #1	@ pc, pc,
  65:configuration/printf-stdarg.c **** 	for ( ; *string ; ++string) {
 212              		.loc 1 65 0 discriminator 2
 213 0080 BB68     		ldr	r3, [r7, #8]	@ tmp134, string
 214 0082 0133     		adds	r3, r3, #1	@ tmp133, tmp134,
 215 0084 BB60     		str	r3, [r7, #8]	@ tmp133, string
ARM GAS  C:\Users\Adrian\AppData\Local\Temp\cczkgeIH.s 			page 6


 216              	.L13:
  65:configuration/printf-stdarg.c **** 	for ( ; *string ; ++string) {
 217              		.loc 1 65 0 is_stmt 0 discriminator 1
 218 0086 BB68     		ldr	r3, [r7, #8]	@ tmp135, string
 219 0088 1B78     		ldrb	r3, [r3]	@ zero_extendqisi2	@ D.4167, *string_1
 220 008a 002B     		cmp	r3, #0	@ D.4167,
 221 008c F1D1     		bne	.L14	@,
  68:configuration/printf-stdarg.c **** 	}
  69:configuration/printf-stdarg.c **** 	for ( ; width > 0; --width) {
 222              		.loc 1 69 0 is_stmt 1
 223 008e 07E0     		b	.L15	@
 224              	.L16:
  70:configuration/printf-stdarg.c **** 		printchar (out, padchar);
 225              		.loc 1 70 0 discriminator 2
 226 0090 F868     		ldr	r0, [r7, #12]	@, out
 227 0092 3146     		mov	r1, r6	@, padchar
 228 0094 FFF7FEFF 		bl	printchar	@
  71:configuration/printf-stdarg.c **** 		++pc;
 229              		.loc 1 71 0 discriminator 2
 230 0098 0134     		adds	r4, r4, #1	@ pc, pc,
  69:configuration/printf-stdarg.c **** 	for ( ; width > 0; --width) {
 231              		.loc 1 69 0 discriminator 2
 232 009a 7B68     		ldr	r3, [r7, #4]	@ tmp137, width
 233 009c 013B     		subs	r3, r3, #1	@ tmp136, tmp137,
 234 009e 7B60     		str	r3, [r7, #4]	@ tmp136, width
 235              	.L15:
  69:configuration/printf-stdarg.c **** 	for ( ; width > 0; --width) {
 236              		.loc 1 69 0 is_stmt 0 discriminator 1
 237 00a0 7B68     		ldr	r3, [r7, #4]	@ tmp138, width
 238 00a2 002B     		cmp	r3, #0	@ tmp138,
 239 00a4 F4DC     		bgt	.L16	@,
  72:configuration/printf-stdarg.c **** 	}
  73:configuration/printf-stdarg.c **** 
  74:configuration/printf-stdarg.c **** 	return pc;
 240              		.loc 1 74 0 is_stmt 1
 241 00a6 2346     		mov	r3, r4	@ D.4168, pc
  75:configuration/printf-stdarg.c **** }
 242              		.loc 1 75 0
 243 00a8 1846     		mov	r0, r3	@, <retval>
 244 00aa 1037     		adds	r7, r7, #16	@,,
 245 00ac BD46     		mov	sp, r7	@,
 246              		@ sp needed	@
 247 00ae BDE8F081 		pop	{r4, r5, r6, r7, r8, pc}	@
 248              		.cfi_endproc
 249              	.LFE1:
 250              		.size	prints, .-prints
 251 00b2 00BF     		.section	.text.printi,"ax",%progbits
 252              		.align	2
 253              		.thumb
 254              		.thumb_func
 255              		.type	printi, %function
 256              	printi:
 257              	.LFB2:
  76:configuration/printf-stdarg.c **** 
  77:configuration/printf-stdarg.c **** /* the following should be enough for 32 bit int */
  78:configuration/printf-stdarg.c **** #define PRINT_BUF_LEN 12
  79:configuration/printf-stdarg.c **** 
ARM GAS  C:\Users\Adrian\AppData\Local\Temp\cczkgeIH.s 			page 7


  80:configuration/printf-stdarg.c **** static int printi(char **out, int i, int b, int sg, int width, int pad, int letbase)
  81:configuration/printf-stdarg.c **** {
 258              		.loc 1 81 0
 259              		.cfi_startproc
 260              		@ args = 12, pretend = 0, frame = 32
 261              		@ frame_needed = 1, uses_anonymous_args = 0
 262 0000 2DE9F043 		push	{r4, r5, r6, r7, r8, r9, lr}	@
 263              		.cfi_def_cfa_offset 28
 264              		.cfi_offset 4, -28
 265              		.cfi_offset 5, -24
 266              		.cfi_offset 6, -20
 267              		.cfi_offset 7, -16
 268              		.cfi_offset 8, -12
 269              		.cfi_offset 9, -8
 270              		.cfi_offset 14, -4
 271 0004 89B0     		sub	sp, sp, #36	@,,
 272              		.cfi_def_cfa_offset 64
 273 0006 00AF     		add	r7, sp, #0	@,,
 274              		.cfi_def_cfa_register 7
 275 0008 F860     		str	r0, [r7, #12]	@ out, out
 276 000a B960     		str	r1, [r7, #8]	@ i, i
 277 000c 7A60     		str	r2, [r7, #4]	@ b, b
 278 000e 3B60     		str	r3, [r7]	@ sg, sg
  82:configuration/printf-stdarg.c **** 	char print_buf[PRINT_BUF_LEN];
  83:configuration/printf-stdarg.c **** 	register char *s;
  84:configuration/printf-stdarg.c **** 	register int t, neg = 0, pc = 0;
 279              		.loc 1 84 0
 280 0010 4FF00009 		mov	r9, #0	@ neg,
 281 0014 4FF00008 		mov	r8, #0	@ pc,
  85:configuration/printf-stdarg.c **** 	register unsigned int u = i;
 282              		.loc 1 85 0
 283 0018 BD68     		ldr	r5, [r7, #8]	@ u, i
  86:configuration/printf-stdarg.c **** 
  87:configuration/printf-stdarg.c **** 	if (i == 0) {
 284              		.loc 1 87 0
 285 001a BB68     		ldr	r3, [r7, #8]	@ tmp126, i
 286 001c 002B     		cmp	r3, #0	@ tmp126,
 287 001e 0DD1     		bne	.L19	@,
  88:configuration/printf-stdarg.c **** 		print_buf[0] = '0';
 288              		.loc 1 88 0
 289 0020 3023     		movs	r3, #48	@ tmp127,
 290 0022 3B75     		strb	r3, [r7, #20]	@ tmp128, print_buf
  89:configuration/printf-stdarg.c **** 		print_buf[1] = '\0';
 291              		.loc 1 89 0
 292 0024 0023     		movs	r3, #0	@ tmp129,
 293 0026 7B75     		strb	r3, [r7, #21]	@ tmp130, print_buf
  90:configuration/printf-stdarg.c **** 		return prints (out, print_buf, width, pad);
 294              		.loc 1 90 0
 295 0028 07F11403 		add	r3, r7, #20	@ tmp131,,
 296 002c F868     		ldr	r0, [r7, #12]	@, out
 297 002e 1946     		mov	r1, r3	@, tmp131
 298 0030 3A6C     		ldr	r2, [r7, #64]	@, width
 299 0032 7B6C     		ldr	r3, [r7, #68]	@, pad
 300 0034 FFF7FEFF 		bl	prints	@
 301 0038 0346     		mov	r3, r0	@ D.4169,
 302 003a 49E0     		b	.L27	@
 303              	.L19:
ARM GAS  C:\Users\Adrian\AppData\Local\Temp\cczkgeIH.s 			page 8


  91:configuration/printf-stdarg.c **** 	}
  92:configuration/printf-stdarg.c **** 
  93:configuration/printf-stdarg.c **** 	if (sg && b == 10 && i < 0) {
 304              		.loc 1 93 0
 305 003c 3B68     		ldr	r3, [r7]	@ tmp132, sg
 306 003e 002B     		cmp	r3, #0	@ tmp132,
 307 0040 0AD0     		beq	.L21	@,
 308              		.loc 1 93 0 is_stmt 0 discriminator 1
 309 0042 7B68     		ldr	r3, [r7, #4]	@ tmp133, b
 310 0044 0A2B     		cmp	r3, #10	@ tmp133,
 311 0046 07D1     		bne	.L21	@,
 312 0048 BB68     		ldr	r3, [r7, #8]	@ tmp134, i
 313 004a 002B     		cmp	r3, #0	@ tmp134,
 314 004c 04DA     		bge	.L21	@,
  94:configuration/printf-stdarg.c **** 		neg = 1;
 315              		.loc 1 94 0 is_stmt 1
 316 004e 4FF00109 		mov	r9, #1	@ neg,
  95:configuration/printf-stdarg.c **** 		u = -i;
 317              		.loc 1 95 0
 318 0052 BB68     		ldr	r3, [r7, #8]	@ tmp135, i
 319 0054 5B42     		negs	r3, r3	@ D.4169, tmp135
 320 0056 1D46     		mov	r5, r3	@ u, D.4169
 321              	.L21:
  96:configuration/printf-stdarg.c **** 	}
  97:configuration/printf-stdarg.c **** 
  98:configuration/printf-stdarg.c **** 	s = print_buf + PRINT_BUF_LEN-1;
 322              		.loc 1 98 0
 323 0058 07F11404 		add	r4, r7, #20	@ s,,
 324 005c 0B34     		adds	r4, r4, #11	@ s, s,
  99:configuration/printf-stdarg.c **** 	*s = '\0';
 325              		.loc 1 99 0
 326 005e 0023     		movs	r3, #0	@ tmp136,
 327 0060 2370     		strb	r3, [r4]	@ tmp137, *s_23
 100:configuration/printf-stdarg.c **** 
 101:configuration/printf-stdarg.c **** 	while (u) {
 328              		.loc 1 101 0
 329 0062 13E0     		b	.L22	@
 330              	.L24:
 102:configuration/printf-stdarg.c **** 		t = u % b;
 331              		.loc 1 102 0
 332 0064 7B68     		ldr	r3, [r7, #4]	@ b.0, b
 333 0066 B5FBF3F2 		udiv	r2, r5, r3	@ tmp140, u, b.0
 334 006a 03FB02F3 		mul	r3, r3, r2	@ tmp141, b.0, tmp140
 335 006e EB1A     		subs	r3, r5, r3	@ D.4170, u, tmp141
 336 0070 1E46     		mov	r6, r3	@ t, D.4170
 103:configuration/printf-stdarg.c **** 		if( t >= 10 )
 337              		.loc 1 103 0
 338 0072 092E     		cmp	r6, #9	@ t,
 339 0074 02DD     		ble	.L23	@,
 104:configuration/printf-stdarg.c **** 			t += letbase - '0' - 10;
 340              		.loc 1 104 0
 341 0076 BB6C     		ldr	r3, [r7, #72]	@ tmp142, letbase
 342 0078 3A3B     		subs	r3, r3, #58	@ D.4169, tmp142,
 343 007a 1E44     		add	r6, r6, r3	@ t, D.4169
 344              	.L23:
 105:configuration/printf-stdarg.c **** 		*--s = t + '0';
 345              		.loc 1 105 0
ARM GAS  C:\Users\Adrian\AppData\Local\Temp\cczkgeIH.s 			page 9


 346 007c 013C     		subs	r4, r4, #1	@ s, s,
 347 007e F3B2     		uxtb	r3, r6	@ D.4171, t
 348 0080 3033     		adds	r3, r3, #48	@ tmp143, D.4171,
 349 0082 DBB2     		uxtb	r3, r3	@ D.4171, tmp143
 350 0084 2370     		strb	r3, [r4]	@ tmp144, *s_30
 106:configuration/printf-stdarg.c **** 		u /= b;
 351              		.loc 1 106 0
 352 0086 7B68     		ldr	r3, [r7, #4]	@ b.1, b
 353 0088 B5FBF3F5 		udiv	r5, r5, r3	@ u, u, b.1
 354              	.L22:
 101:configuration/printf-stdarg.c **** 	while (u) {
 355              		.loc 1 101 0 discriminator 1
 356 008c 002D     		cmp	r5, #0	@ u,
 357 008e E9D1     		bne	.L24	@,
 107:configuration/printf-stdarg.c **** 	}
 108:configuration/printf-stdarg.c **** 
 109:configuration/printf-stdarg.c **** 	if (neg) {
 358              		.loc 1 109 0
 359 0090 B9F1000F 		cmp	r9, #0	@ neg,
 360 0094 14D0     		beq	.L25	@,
 110:configuration/printf-stdarg.c **** 		if( width && (pad & PAD_ZERO) ) {
 361              		.loc 1 110 0
 362 0096 3B6C     		ldr	r3, [r7, #64]	@ tmp145, width
 363 0098 002B     		cmp	r3, #0	@ tmp145,
 364 009a 0ED0     		beq	.L26	@,
 365              		.loc 1 110 0 is_stmt 0 discriminator 1
 366 009c 7B6C     		ldr	r3, [r7, #68]	@ tmp146, pad
 367 009e 03F00203 		and	r3, r3, #2	@ D.4169, tmp146,
 368 00a2 002B     		cmp	r3, #0	@ D.4169,
 369 00a4 09D0     		beq	.L26	@,
 111:configuration/printf-stdarg.c **** 			printchar (out, '-');
 370              		.loc 1 111 0 is_stmt 1
 371 00a6 F868     		ldr	r0, [r7, #12]	@, out
 372 00a8 2D21     		movs	r1, #45	@,
 373 00aa FFF7FEFF 		bl	printchar	@
 112:configuration/printf-stdarg.c **** 			++pc;
 374              		.loc 1 112 0
 375 00ae 08F10108 		add	r8, r8, #1	@ pc, pc,
 113:configuration/printf-stdarg.c **** 			--width;
 376              		.loc 1 113 0
 377 00b2 3B6C     		ldr	r3, [r7, #64]	@ tmp148, width
 378 00b4 013B     		subs	r3, r3, #1	@ tmp147, tmp148,
 379 00b6 3B64     		str	r3, [r7, #64]	@ tmp147, width
 380 00b8 02E0     		b	.L25	@
 381              	.L26:
 114:configuration/printf-stdarg.c **** 		}
 115:configuration/printf-stdarg.c **** 		else {
 116:configuration/printf-stdarg.c **** 			*--s = '-';
 382              		.loc 1 116 0
 383 00ba 013C     		subs	r4, r4, #1	@ s, s,
 384 00bc 2D23     		movs	r3, #45	@ tmp149,
 385 00be 2370     		strb	r3, [r4]	@ tmp150, *s_38
 386              	.L25:
 117:configuration/printf-stdarg.c **** 		}
 118:configuration/printf-stdarg.c **** 	}
 119:configuration/printf-stdarg.c **** 
 120:configuration/printf-stdarg.c **** 	return pc + prints (out, s, width, pad);
ARM GAS  C:\Users\Adrian\AppData\Local\Temp\cczkgeIH.s 			page 10


 387              		.loc 1 120 0
 388 00c0 F868     		ldr	r0, [r7, #12]	@, out
 389 00c2 2146     		mov	r1, r4	@, s
 390 00c4 3A6C     		ldr	r2, [r7, #64]	@, width
 391 00c6 7B6C     		ldr	r3, [r7, #68]	@, pad
 392 00c8 FFF7FEFF 		bl	prints	@
 393 00cc 0346     		mov	r3, r0	@ D.4169,
 394 00ce 4344     		add	r3, r3, r8	@ D.4169, pc
 395              	.L27:
 121:configuration/printf-stdarg.c **** }
 396              		.loc 1 121 0
 397 00d0 1846     		mov	r0, r3	@, <retval>
 398 00d2 2437     		adds	r7, r7, #36	@,,
 399 00d4 BD46     		mov	sp, r7	@,
 400              		@ sp needed	@
 401 00d6 BDE8F083 		pop	{r4, r5, r6, r7, r8, r9, pc}	@
 402              		.cfi_endproc
 403              	.LFE2:
 404              		.size	printi, .-printi
 405 00da 00BF     		.section	.rodata
 406              		.align	2
 407              	.LC0:
 408 0000 286E756C 		.ascii	"(null)\000"
 408      6C2900
 409 0007 00       		.section	.text.print,"ax",%progbits
 410              		.align	2
 411              		.thumb
 412              		.thumb_func
 413              		.type	print, %function
 414              	print:
 415              	.LFB3:
 122:configuration/printf-stdarg.c **** 
 123:configuration/printf-stdarg.c **** static int print(char **out, const char *format, va_list args )
 124:configuration/printf-stdarg.c **** {
 416              		.loc 1 124 0
 417              		.cfi_startproc
 418              		@ args = 0, pretend = 0, frame = 24
 419              		@ frame_needed = 1, uses_anonymous_args = 0
 420 0000 2DE9F041 		push	{r4, r5, r6, r7, r8, lr}	@
 421              		.cfi_def_cfa_offset 24
 422              		.cfi_offset 4, -24
 423              		.cfi_offset 5, -20
 424              		.cfi_offset 6, -16
 425              		.cfi_offset 7, -12
 426              		.cfi_offset 8, -8
 427              		.cfi_offset 14, -4
 428 0004 8AB0     		sub	sp, sp, #40	@,,
 429              		.cfi_def_cfa_offset 64
 430 0006 04AF     		add	r7, sp, #16	@,,
 431              		.cfi_def_cfa 7, 48
 432 0008 F860     		str	r0, [r7, #12]	@ out, out
 433 000a B960     		str	r1, [r7, #8]	@ format, format
 434 000c 7A60     		str	r2, [r7, #4]	@ args, args
 125:configuration/printf-stdarg.c **** 	register int width, pad;
 126:configuration/printf-stdarg.c **** 	register int pc = 0;
 435              		.loc 1 126 0
 436 000e 0024     		movs	r4, #0	@ pc,
ARM GAS  C:\Users\Adrian\AppData\Local\Temp\cczkgeIH.s 			page 11


 127:configuration/printf-stdarg.c **** 	char scr[2];
 128:configuration/printf-stdarg.c **** 
 129:configuration/printf-stdarg.c **** 	for (; *format != 0; ++format) {
 437              		.loc 1 129 0
 438 0010 D3E0     		b	.L29	@
 439              	.L49:
 130:configuration/printf-stdarg.c **** 		if (*format == '%') {
 440              		.loc 1 130 0
 441 0012 BB68     		ldr	r3, [r7, #8]	@ tmp165, format
 442 0014 1B78     		ldrb	r3, [r3]	@ zero_extendqisi2	@ D.4172, *format_7
 443 0016 252B     		cmp	r3, #37	@ D.4172,
 444 0018 40F0C580 		bne	.L30	@,
 131:configuration/printf-stdarg.c **** 			++format;
 445              		.loc 1 131 0
 446 001c BB68     		ldr	r3, [r7, #8]	@ tmp167, format
 447 001e 0133     		adds	r3, r3, #1	@ tmp166, tmp167,
 448 0020 BB60     		str	r3, [r7, #8]	@ tmp166, format
 132:configuration/printf-stdarg.c **** 			width = pad = 0;
 449              		.loc 1 132 0
 450 0022 0026     		movs	r6, #0	@ pad,
 451 0024 3546     		mov	r5, r6	@ width, pad
 133:configuration/printf-stdarg.c **** 			if (*format == '\0') break;
 452              		.loc 1 133 0
 453 0026 BB68     		ldr	r3, [r7, #8]	@ tmp168, format
 454 0028 1B78     		ldrb	r3, [r3]	@ zero_extendqisi2	@ D.4172, *format_19
 455 002a 002B     		cmp	r3, #0	@ D.4172,
 456 002c 00D1     		bne	.L31	@,
 457              		.loc 1 133 0 is_stmt 0 discriminator 1
 458 002e C9E0     		b	.L32	@
 459              	.L31:
 134:configuration/printf-stdarg.c **** 			if (*format == '%') goto out;
 460              		.loc 1 134 0 is_stmt 1
 461 0030 BB68     		ldr	r3, [r7, #8]	@ tmp169, format
 462 0032 1B78     		ldrb	r3, [r3]	@ zero_extendqisi2	@ D.4172, *format_19
 463 0034 252B     		cmp	r3, #37	@ D.4172,
 464 0036 00D1     		bne	.L33	@,
 465              		.loc 1 134 0 is_stmt 0 discriminator 1
 466 0038 B5E0     		b	.L30	@
 467              	.L33:
 135:configuration/printf-stdarg.c **** 			if (*format == '-') {
 468              		.loc 1 135 0 is_stmt 1
 469 003a BB68     		ldr	r3, [r7, #8]	@ tmp170, format
 470 003c 1B78     		ldrb	r3, [r3]	@ zero_extendqisi2	@ D.4172, *format_19
 471 003e 2D2B     		cmp	r3, #45	@ D.4172,
 472 0040 04D1     		bne	.L34	@,
 136:configuration/printf-stdarg.c **** 				++format;
 473              		.loc 1 136 0
 474 0042 BB68     		ldr	r3, [r7, #8]	@ tmp172, format
 475 0044 0133     		adds	r3, r3, #1	@ tmp171, tmp172,
 476 0046 BB60     		str	r3, [r7, #8]	@ tmp171, format
 137:configuration/printf-stdarg.c **** 				pad = PAD_RIGHT;
 477              		.loc 1 137 0
 478 0048 0126     		movs	r6, #1	@ pad,
 138:configuration/printf-stdarg.c **** 			}
 139:configuration/printf-stdarg.c **** 			while (*format == '0') {
 479              		.loc 1 139 0
 480 004a 05E0     		b	.L35	@
ARM GAS  C:\Users\Adrian\AppData\Local\Temp\cczkgeIH.s 			page 12


 481              	.L34:
 482 004c 04E0     		b	.L35	@
 483              	.L36:
 140:configuration/printf-stdarg.c **** 				++format;
 484              		.loc 1 140 0
 485 004e BB68     		ldr	r3, [r7, #8]	@ tmp174, format
 486 0050 0133     		adds	r3, r3, #1	@ tmp173, tmp174,
 487 0052 BB60     		str	r3, [r7, #8]	@ tmp173, format
 141:configuration/printf-stdarg.c **** 				pad |= PAD_ZERO;
 488              		.loc 1 141 0
 489 0054 46F00206 		orr	r6, r6, #2	@ pad, pad,
 490              	.L35:
 139:configuration/printf-stdarg.c **** 			while (*format == '0') {
 491              		.loc 1 139 0 discriminator 1
 492 0058 BB68     		ldr	r3, [r7, #8]	@ tmp175, format
 493 005a 1B78     		ldrb	r3, [r3]	@ zero_extendqisi2	@ D.4172, *format_2
 494 005c 302B     		cmp	r3, #48	@ D.4172,
 495 005e F6D0     		beq	.L36	@,
 142:configuration/printf-stdarg.c **** 			}
 143:configuration/printf-stdarg.c **** 			for ( ; *format >= '0' && *format <= '9'; ++format) {
 496              		.loc 1 143 0
 497 0060 0BE0     		b	.L37	@
 498              	.L39:
 144:configuration/printf-stdarg.c **** 				width *= 10;
 499              		.loc 1 144 0 discriminator 1
 500 0062 2B46     		mov	r3, r5	@ tmp176, width
 501 0064 9B00     		lsls	r3, r3, #2	@ tmp176, tmp176,
 502 0066 2B44     		add	r3, r3, r5	@ tmp176, width
 503 0068 5B00     		lsls	r3, r3, #1	@ tmp177, tmp176,
 504 006a 1D46     		mov	r5, r3	@ width, tmp176
 145:configuration/printf-stdarg.c **** 				width += *format - '0';
 505              		.loc 1 145 0 discriminator 1
 506 006c BB68     		ldr	r3, [r7, #8]	@ tmp178, format
 507 006e 1B78     		ldrb	r3, [r3]	@ zero_extendqisi2	@ D.4172, *format_3
 508 0070 303B     		subs	r3, r3, #48	@ D.4173, D.4173,
 509 0072 1D44     		add	r5, r5, r3	@ width, D.4173
 143:configuration/printf-stdarg.c **** 			for ( ; *format >= '0' && *format <= '9'; ++format) {
 510              		.loc 1 143 0 discriminator 1
 511 0074 BB68     		ldr	r3, [r7, #8]	@ tmp180, format
 512 0076 0133     		adds	r3, r3, #1	@ tmp179, tmp180,
 513 0078 BB60     		str	r3, [r7, #8]	@ tmp179, format
 514              	.L37:
 515 007a BB68     		ldr	r3, [r7, #8]	@ tmp181, format
 516 007c 1B78     		ldrb	r3, [r3]	@ zero_extendqisi2	@ D.4172, *format_3
 517 007e 2F2B     		cmp	r3, #47	@ D.4172,
 518 0080 03D9     		bls	.L38	@,
 143:configuration/printf-stdarg.c **** 			for ( ; *format >= '0' && *format <= '9'; ++format) {
 519              		.loc 1 143 0 is_stmt 0 discriminator 2
 520 0082 BB68     		ldr	r3, [r7, #8]	@ tmp182, format
 521 0084 1B78     		ldrb	r3, [r3]	@ zero_extendqisi2	@ D.4172, *format_3
 522 0086 392B     		cmp	r3, #57	@ D.4172,
 523 0088 EBD9     		bls	.L39	@,
 524              	.L38:
 146:configuration/printf-stdarg.c **** 			}
 147:configuration/printf-stdarg.c **** 			if (*format == '*') {
 525              		.loc 1 147 0 is_stmt 1
 526 008a BB68     		ldr	r3, [r7, #8]	@ tmp183, format
ARM GAS  C:\Users\Adrian\AppData\Local\Temp\cczkgeIH.s 			page 13


 527 008c 1B78     		ldrb	r3, [r3]	@ zero_extendqisi2	@ D.4172, *format_3
 528 008e 2A2B     		cmp	r3, #42	@ D.4172,
 529 0090 06D1     		bne	.L40	@,
 148:configuration/printf-stdarg.c **** 				++format;
 530              		.loc 1 148 0
 531 0092 BB68     		ldr	r3, [r7, #8]	@ tmp185, format
 532 0094 0133     		adds	r3, r3, #1	@ tmp184, tmp185,
 533 0096 BB60     		str	r3, [r7, #8]	@ tmp184, format
 149:configuration/printf-stdarg.c **** 				width = va_arg( args, int );
 534              		.loc 1 149 0
 535 0098 7B68     		ldr	r3, [r7, #4]	@ D.4174, args.__ap
 536 009a 1A1D     		adds	r2, r3, #4	@ D.4174, D.4174,
 537 009c 7A60     		str	r2, [r7, #4]	@ D.4174, args.__ap
 538 009e 1D68     		ldr	r5, [r3]	@ width, MEM[(int *)_40]
 539              	.L40:
 150:configuration/printf-stdarg.c **** 			}
 151:configuration/printf-stdarg.c **** 			if( *format == 's' ) {
 540              		.loc 1 151 0
 541 00a0 BB68     		ldr	r3, [r7, #8]	@ tmp186, format
 542 00a2 1B78     		ldrb	r3, [r3]	@ zero_extendqisi2	@ D.4172, *format_4
 543 00a4 732B     		cmp	r3, #115	@ D.4172,
 544 00a6 13D1     		bne	.L41	@,
 545              	.LBB3:
 152:configuration/printf-stdarg.c **** 				register char *s = (char *)va_arg( args, int );
 546              		.loc 1 152 0
 547 00a8 7B68     		ldr	r3, [r7, #4]	@ D.4174, args.__ap
 548 00aa 1A1D     		adds	r2, r3, #4	@ D.4174, D.4174,
 549 00ac 7A60     		str	r2, [r7, #4]	@ D.4174, args.__ap
 550 00ae 1B68     		ldr	r3, [r3]	@ D.4173, MEM[(int *)_44]
 551 00b0 9846     		mov	r8, r3	@ s, D.4173
 153:configuration/printf-stdarg.c **** 				pc += prints (out, s?s:"(null)", width, pad);
 552              		.loc 1 153 0
 553 00b2 B8F1000F 		cmp	r8, #0	@ s,
 554 00b6 01D0     		beq	.L42	@,
 555              		.loc 1 153 0 is_stmt 0 discriminator 1
 556 00b8 4346     		mov	r3, r8	@ iftmp.2, s
 557 00ba 00E0     		b	.L43	@
 558              	.L42:
 559              		.loc 1 153 0 discriminator 2
 560 00bc 484B     		ldr	r3, .L52	@ iftmp.2,
 561              	.L43:
 562              		.loc 1 153 0 discriminator 3
 563 00be F868     		ldr	r0, [r7, #12]	@, out
 564 00c0 1946     		mov	r1, r3	@, iftmp.2
 565 00c2 2A46     		mov	r2, r5	@, width
 566 00c4 3346     		mov	r3, r6	@, pad
 567 00c6 FFF7FEFF 		bl	prints	@
 568 00ca 0346     		mov	r3, r0	@ D.4173,
 569 00cc 1C44     		add	r4, r4, r3	@ pc, D.4173
 154:configuration/printf-stdarg.c **** 				continue;
 570              		.loc 1 154 0 is_stmt 1 discriminator 3
 571 00ce 71E0     		b	.L44	@
 572              	.L41:
 573              	.LBE3:
 155:configuration/printf-stdarg.c **** 			}
 156:configuration/printf-stdarg.c **** 			if( *format == 'd' ) {
 574              		.loc 1 156 0
ARM GAS  C:\Users\Adrian\AppData\Local\Temp\cczkgeIH.s 			page 14


 575 00d0 BB68     		ldr	r3, [r7, #8]	@ tmp187, format
 576 00d2 1B78     		ldrb	r3, [r3]	@ zero_extendqisi2	@ D.4172, *format_4
 577 00d4 642B     		cmp	r3, #100	@ D.4172,
 578 00d6 10D1     		bne	.L45	@,
 157:configuration/printf-stdarg.c **** 				pc += printi (out, va_arg( args, int ), 10, 1, width, pad, 'a');
 579              		.loc 1 157 0
 580 00d8 7B68     		ldr	r3, [r7, #4]	@ D.4174, args.__ap
 581 00da 1A1D     		adds	r2, r3, #4	@ D.4174, D.4174,
 582 00dc 7A60     		str	r2, [r7, #4]	@ D.4174, args.__ap
 583 00de 1B68     		ldr	r3, [r3]	@ D.4173, MEM[(int *)_54]
 584 00e0 0095     		str	r5, [sp]	@ width,
 585 00e2 0196     		str	r6, [sp, #4]	@ pad,
 586 00e4 6122     		movs	r2, #97	@ tmp188,
 587 00e6 0292     		str	r2, [sp, #8]	@ tmp188,
 588 00e8 F868     		ldr	r0, [r7, #12]	@, out
 589 00ea 1946     		mov	r1, r3	@, D.4173
 590 00ec 0A22     		movs	r2, #10	@,
 591 00ee 0123     		movs	r3, #1	@,
 592 00f0 FFF7FEFF 		bl	printi	@
 593 00f4 0346     		mov	r3, r0	@ D.4173,
 594 00f6 1C44     		add	r4, r4, r3	@ pc, D.4173
 158:configuration/printf-stdarg.c **** 				continue;
 595              		.loc 1 158 0
 596 00f8 5CE0     		b	.L44	@
 597              	.L45:
 159:configuration/printf-stdarg.c **** 			}
 160:configuration/printf-stdarg.c **** 			if( *format == 'x' ) {
 598              		.loc 1 160 0
 599 00fa BB68     		ldr	r3, [r7, #8]	@ tmp189, format
 600 00fc 1B78     		ldrb	r3, [r3]	@ zero_extendqisi2	@ D.4172, *format_4
 601 00fe 782B     		cmp	r3, #120	@ D.4172,
 602 0100 10D1     		bne	.L46	@,
 161:configuration/printf-stdarg.c **** 				pc += printi (out, va_arg( args, int ), 16, 0, width, pad, 'a');
 603              		.loc 1 161 0
 604 0102 7B68     		ldr	r3, [r7, #4]	@ D.4174, args.__ap
 605 0104 1A1D     		adds	r2, r3, #4	@ D.4174, D.4174,
 606 0106 7A60     		str	r2, [r7, #4]	@ D.4174, args.__ap
 607 0108 1B68     		ldr	r3, [r3]	@ D.4173, MEM[(int *)_60]
 608 010a 0095     		str	r5, [sp]	@ width,
 609 010c 0196     		str	r6, [sp, #4]	@ pad,
 610 010e 6122     		movs	r2, #97	@ tmp190,
 611 0110 0292     		str	r2, [sp, #8]	@ tmp190,
 612 0112 F868     		ldr	r0, [r7, #12]	@, out
 613 0114 1946     		mov	r1, r3	@, D.4173
 614 0116 1022     		movs	r2, #16	@,
 615 0118 0023     		movs	r3, #0	@,
 616 011a FFF7FEFF 		bl	printi	@
 617 011e 0346     		mov	r3, r0	@ D.4173,
 618 0120 1C44     		add	r4, r4, r3	@ pc, D.4173
 162:configuration/printf-stdarg.c **** 				continue;
 619              		.loc 1 162 0
 620 0122 47E0     		b	.L44	@
 621              	.L46:
 163:configuration/printf-stdarg.c **** 			}
 164:configuration/printf-stdarg.c **** 			if( *format == 'X' ) {
 622              		.loc 1 164 0
 623 0124 BB68     		ldr	r3, [r7, #8]	@ tmp191, format
ARM GAS  C:\Users\Adrian\AppData\Local\Temp\cczkgeIH.s 			page 15


 624 0126 1B78     		ldrb	r3, [r3]	@ zero_extendqisi2	@ D.4172, *format_4
 625 0128 582B     		cmp	r3, #88	@ D.4172,
 626 012a 10D1     		bne	.L47	@,
 165:configuration/printf-stdarg.c **** 				pc += printi (out, va_arg( args, int ), 16, 0, width, pad, 'A');
 627              		.loc 1 165 0
 628 012c 7B68     		ldr	r3, [r7, #4]	@ D.4174, args.__ap
 629 012e 1A1D     		adds	r2, r3, #4	@ D.4174, D.4174,
 630 0130 7A60     		str	r2, [r7, #4]	@ D.4174, args.__ap
 631 0132 1B68     		ldr	r3, [r3]	@ D.4173, MEM[(int *)_66]
 632 0134 0095     		str	r5, [sp]	@ width,
 633 0136 0196     		str	r6, [sp, #4]	@ pad,
 634 0138 4122     		movs	r2, #65	@ tmp192,
 635 013a 0292     		str	r2, [sp, #8]	@ tmp192,
 636 013c F868     		ldr	r0, [r7, #12]	@, out
 637 013e 1946     		mov	r1, r3	@, D.4173
 638 0140 1022     		movs	r2, #16	@,
 639 0142 0023     		movs	r3, #0	@,
 640 0144 FFF7FEFF 		bl	printi	@
 641 0148 0346     		mov	r3, r0	@ D.4173,
 642 014a 1C44     		add	r4, r4, r3	@ pc, D.4173
 166:configuration/printf-stdarg.c **** 				continue;
 643              		.loc 1 166 0
 644 014c 32E0     		b	.L44	@
 645              	.L47:
 167:configuration/printf-stdarg.c **** 			}
 168:configuration/printf-stdarg.c **** 			if( *format == 'u' ) {
 646              		.loc 1 168 0
 647 014e BB68     		ldr	r3, [r7, #8]	@ tmp193, format
 648 0150 1B78     		ldrb	r3, [r3]	@ zero_extendqisi2	@ D.4172, *format_4
 649 0152 752B     		cmp	r3, #117	@ D.4172,
 650 0154 10D1     		bne	.L48	@,
 169:configuration/printf-stdarg.c **** 				pc += printi (out, va_arg( args, int ), 10, 0, width, pad, 'a');
 651              		.loc 1 169 0
 652 0156 7B68     		ldr	r3, [r7, #4]	@ D.4174, args.__ap
 653 0158 1A1D     		adds	r2, r3, #4	@ D.4174, D.4174,
 654 015a 7A60     		str	r2, [r7, #4]	@ D.4174, args.__ap
 655 015c 1B68     		ldr	r3, [r3]	@ D.4173, MEM[(int *)_72]
 656 015e 0095     		str	r5, [sp]	@ width,
 657 0160 0196     		str	r6, [sp, #4]	@ pad,
 658 0162 6122     		movs	r2, #97	@ tmp194,
 659 0164 0292     		str	r2, [sp, #8]	@ tmp194,
 660 0166 F868     		ldr	r0, [r7, #12]	@, out
 661 0168 1946     		mov	r1, r3	@, D.4173
 662 016a 0A22     		movs	r2, #10	@,
 663 016c 0023     		movs	r3, #0	@,
 664 016e FFF7FEFF 		bl	printi	@
 665 0172 0346     		mov	r3, r0	@ D.4173,
 666 0174 1C44     		add	r4, r4, r3	@ pc, D.4173
 170:configuration/printf-stdarg.c **** 				continue;
 667              		.loc 1 170 0
 668 0176 1DE0     		b	.L44	@
 669              	.L48:
 171:configuration/printf-stdarg.c **** 			}
 172:configuration/printf-stdarg.c **** 			if( *format == 'c' ) {
 670              		.loc 1 172 0
 671 0178 BB68     		ldr	r3, [r7, #8]	@ tmp195, format
 672 017a 1B78     		ldrb	r3, [r3]	@ zero_extendqisi2	@ D.4172, *format_4
ARM GAS  C:\Users\Adrian\AppData\Local\Temp\cczkgeIH.s 			page 16


 673 017c 632B     		cmp	r3, #99	@ D.4172,
 674 017e 19D1     		bne	.L44	@,
 173:configuration/printf-stdarg.c **** 				/* char are converted to int then pushed on the stack */
 174:configuration/printf-stdarg.c **** 				scr[0] = (char)va_arg( args, int );
 675              		.loc 1 174 0
 676 0180 7B68     		ldr	r3, [r7, #4]	@ D.4174, args.__ap
 677 0182 1A1D     		adds	r2, r3, #4	@ D.4174, D.4174,
 678 0184 7A60     		str	r2, [r7, #4]	@ D.4174, args.__ap
 679 0186 1B68     		ldr	r3, [r3]	@ D.4173, MEM[(int *)_78]
 680 0188 DBB2     		uxtb	r3, r3	@ D.4172, D.4173
 681 018a 3B75     		strb	r3, [r7, #20]	@ tmp196, scr
 175:configuration/printf-stdarg.c **** 				scr[1] = '\0';
 682              		.loc 1 175 0
 683 018c 0023     		movs	r3, #0	@ tmp197,
 684 018e 7B75     		strb	r3, [r7, #21]	@ tmp198, scr
 176:configuration/printf-stdarg.c **** 				pc += prints (out, scr, width, pad);
 685              		.loc 1 176 0
 686 0190 07F11403 		add	r3, r7, #20	@ tmp199,,
 687 0194 F868     		ldr	r0, [r7, #12]	@, out
 688 0196 1946     		mov	r1, r3	@, tmp199
 689 0198 2A46     		mov	r2, r5	@, width
 690 019a 3346     		mov	r3, r6	@, pad
 691 019c FFF7FEFF 		bl	prints	@
 692 01a0 0346     		mov	r3, r0	@ D.4173,
 693 01a2 1C44     		add	r4, r4, r3	@ pc, D.4173
 177:configuration/printf-stdarg.c **** 				continue;
 694              		.loc 1 177 0
 695 01a4 06E0     		b	.L44	@
 696              	.L30:
 178:configuration/printf-stdarg.c **** 			}
 179:configuration/printf-stdarg.c **** 		}
 180:configuration/printf-stdarg.c **** 		else {
 181:configuration/printf-stdarg.c **** 		out:
 182:configuration/printf-stdarg.c **** 			printchar (out, *format);
 697              		.loc 1 182 0
 698 01a6 BB68     		ldr	r3, [r7, #8]	@ tmp200, format
 699 01a8 1B78     		ldrb	r3, [r3]	@ zero_extendqisi2	@ D.4172, *format_5
 700 01aa F868     		ldr	r0, [r7, #12]	@, out
 701 01ac 1946     		mov	r1, r3	@, D.4173
 702 01ae FFF7FEFF 		bl	printchar	@
 183:configuration/printf-stdarg.c **** 			++pc;
 703              		.loc 1 183 0
 704 01b2 0134     		adds	r4, r4, #1	@ pc, pc,
 705              	.L44:
 129:configuration/printf-stdarg.c **** 	for (; *format != 0; ++format) {
 706              		.loc 1 129 0
 707 01b4 BB68     		ldr	r3, [r7, #8]	@ tmp202, format
 708 01b6 0133     		adds	r3, r3, #1	@ tmp201, tmp202,
 709 01b8 BB60     		str	r3, [r7, #8]	@ tmp201, format
 710              	.L29:
 129:configuration/printf-stdarg.c **** 	for (; *format != 0; ++format) {
 711              		.loc 1 129 0 is_stmt 0 discriminator 1
 712 01ba BB68     		ldr	r3, [r7, #8]	@ tmp203, format
 713 01bc 1B78     		ldrb	r3, [r3]	@ zero_extendqisi2	@ D.4172, *format_7
 714 01be 002B     		cmp	r3, #0	@ D.4172,
 715 01c0 7FF427AF 		bne	.L49	@,
 716              	.L32:
ARM GAS  C:\Users\Adrian\AppData\Local\Temp\cczkgeIH.s 			page 17


 184:configuration/printf-stdarg.c **** 		}
 185:configuration/printf-stdarg.c **** 	}
 186:configuration/printf-stdarg.c **** 	if (out) **out = '\0';
 717              		.loc 1 186 0 is_stmt 1
 718 01c4 FB68     		ldr	r3, [r7, #12]	@ tmp204, out
 719 01c6 002B     		cmp	r3, #0	@ tmp204,
 720 01c8 03D0     		beq	.L50	@,
 721              		.loc 1 186 0 is_stmt 0 discriminator 1
 722 01ca FB68     		ldr	r3, [r7, #12]	@ tmp205, out
 723 01cc 1B68     		ldr	r3, [r3]	@ D.4175, *out_50(D)
 724 01ce 0022     		movs	r2, #0	@ tmp206,
 725 01d0 1A70     		strb	r2, [r3]	@ tmp207, *_88
 726              	.L50:
 187:configuration/printf-stdarg.c **** 	va_end( args );
 188:configuration/printf-stdarg.c **** 	return pc;
 727              		.loc 1 188 0 is_stmt 1
 728 01d2 2346     		mov	r3, r4	@ D.4173, pc
 189:configuration/printf-stdarg.c **** }
 729              		.loc 1 189 0
 730 01d4 1846     		mov	r0, r3	@, <retval>
 731 01d6 1837     		adds	r7, r7, #24	@,,
 732 01d8 BD46     		mov	sp, r7	@,
 733              		@ sp needed	@
 734 01da BDE8F081 		pop	{r4, r5, r6, r7, r8, pc}	@
 735              	.L53:
 736 01de 00BF     		.align	2
 737              	.L52:
 738 01e0 00000000 		.word	.LC0
 739              		.cfi_endproc
 740              	.LFE3:
 741              		.size	print, .-print
 742              		.section	.text.printf,"ax",%progbits
 743              		.align	2
 744              		.global	printf
 745              		.thumb
 746              		.thumb_func
 747              		.type	printf, %function
 748              	printf:
 749              	.LFB4:
 190:configuration/printf-stdarg.c **** 
 191:configuration/printf-stdarg.c **** int printf(const char *format, ...)
 192:configuration/printf-stdarg.c **** {
 750              		.loc 1 192 0
 751              		.cfi_startproc
 752              		@ args = 4, pretend = 16, frame = 8
 753              		@ frame_needed = 1, uses_anonymous_args = 1
 754 0000 0FB4     		push	{r0, r1, r2, r3}	@
 755              		.cfi_def_cfa_offset 16
 756              		.cfi_offset 0, -16
 757              		.cfi_offset 1, -12
 758              		.cfi_offset 2, -8
 759              		.cfi_offset 3, -4
 760 0002 80B5     		push	{r7, lr}	@
 761              		.cfi_def_cfa_offset 24
 762              		.cfi_offset 7, -24
 763              		.cfi_offset 14, -20
 764 0004 82B0     		sub	sp, sp, #8	@,,
ARM GAS  C:\Users\Adrian\AppData\Local\Temp\cczkgeIH.s 			page 18


 765              		.cfi_def_cfa_offset 32
 766 0006 00AF     		add	r7, sp, #0	@,,
 767              		.cfi_def_cfa_register 7
 193:configuration/printf-stdarg.c ****         va_list args;
 194:configuration/printf-stdarg.c ****         
 195:configuration/printf-stdarg.c ****         va_start( args, format );
 768              		.loc 1 195 0
 769 0008 07F11403 		add	r3, r7, #20	@ tmp112,,
 770 000c 7B60     		str	r3, [r7, #4]	@ tmp112, MEM[(struct  *)&args].__ap
 196:configuration/printf-stdarg.c ****         return print( 0, format, args );
 771              		.loc 1 196 0
 772 000e 0020     		movs	r0, #0	@,
 773 0010 3969     		ldr	r1, [r7, #16]	@, format
 774 0012 7A68     		ldr	r2, [r7, #4]	@, args
 775 0014 FFF7FEFF 		bl	print	@
 776 0018 0346     		mov	r3, r0	@ D.4177,
 197:configuration/printf-stdarg.c **** }
 777              		.loc 1 197 0
 778 001a 1846     		mov	r0, r3	@, <retval>
 779 001c 0837     		adds	r7, r7, #8	@,,
 780 001e BD46     		mov	sp, r7	@,
 781              		@ sp needed	@
 782 0020 BDE88040 		pop	{r7, lr}	@
 783 0024 04B0     		add	sp, sp, #16	@,,
 784 0026 7047     		bx	lr	@
 785              		.cfi_endproc
 786              	.LFE4:
 787              		.size	printf, .-printf
 788              		.section	.text.sprintf,"ax",%progbits
 789              		.align	2
 790              		.global	sprintf
 791              		.thumb
 792              		.thumb_func
 793              		.type	sprintf, %function
 794              	sprintf:
 795              	.LFB5:
 198:configuration/printf-stdarg.c **** 
 199:configuration/printf-stdarg.c **** int sprintf(char *out, const char *format, ...)
 200:configuration/printf-stdarg.c **** {
 796              		.loc 1 200 0
 797              		.cfi_startproc
 798              		@ args = 4, pretend = 12, frame = 16
 799              		@ frame_needed = 1, uses_anonymous_args = 1
 800 0000 0EB4     		push	{r1, r2, r3}	@
 801              		.cfi_def_cfa_offset 12
 802              		.cfi_offset 1, -12
 803              		.cfi_offset 2, -8
 804              		.cfi_offset 3, -4
 805 0002 80B5     		push	{r7, lr}	@
 806              		.cfi_def_cfa_offset 20
 807              		.cfi_offset 7, -20
 808              		.cfi_offset 14, -16
 809 0004 85B0     		sub	sp, sp, #20	@,,
 810              		.cfi_def_cfa_offset 40
 811 0006 00AF     		add	r7, sp, #0	@,,
 812              		.cfi_def_cfa_register 7
 813 0008 7860     		str	r0, [r7, #4]	@ out, out
ARM GAS  C:\Users\Adrian\AppData\Local\Temp\cczkgeIH.s 			page 19


 201:configuration/printf-stdarg.c ****         va_list args;
 202:configuration/printf-stdarg.c ****         
 203:configuration/printf-stdarg.c ****         va_start( args, format );
 814              		.loc 1 203 0
 815 000a 07F12003 		add	r3, r7, #32	@ tmp112,,
 816 000e FB60     		str	r3, [r7, #12]	@ tmp112, MEM[(struct  *)&args].__ap
 204:configuration/printf-stdarg.c ****         return print( &out, format, args );
 817              		.loc 1 204 0
 818 0010 3B1D     		adds	r3, r7, #4	@ tmp113,,
 819 0012 1846     		mov	r0, r3	@, tmp113
 820 0014 F969     		ldr	r1, [r7, #28]	@, format
 821 0016 FA68     		ldr	r2, [r7, #12]	@, args
 822 0018 FFF7FEFF 		bl	print	@
 823 001c 0346     		mov	r3, r0	@ D.4178,
 205:configuration/printf-stdarg.c **** }
 824              		.loc 1 205 0
 825 001e 1846     		mov	r0, r3	@, <retval>
 826 0020 1437     		adds	r7, r7, #20	@,,
 827 0022 BD46     		mov	sp, r7	@,
 828              		@ sp needed	@
 829 0024 BDE88040 		pop	{r7, lr}	@
 830 0028 03B0     		add	sp, sp, #12	@,,
 831 002a 7047     		bx	lr	@
 832              		.cfi_endproc
 833              	.LFE5:
 834              		.size	sprintf, .-sprintf
 835              		.section	.text.vsprintf,"ax",%progbits
 836              		.align	2
 837              		.global	vsprintf
 838              		.thumb
 839              		.thumb_func
 840              		.type	vsprintf, %function
 841              	vsprintf:
 842              	.LFB6:
 206:configuration/printf-stdarg.c **** 
 207:configuration/printf-stdarg.c **** int vsprintf(char *out, const char *format, va_list args)
 208:configuration/printf-stdarg.c **** {
 843              		.loc 1 208 0
 844              		.cfi_startproc
 845              		@ args = 0, pretend = 0, frame = 16
 846              		@ frame_needed = 1, uses_anonymous_args = 0
 847 0000 80B5     		push	{r7, lr}	@
 848              		.cfi_def_cfa_offset 8
 849              		.cfi_offset 7, -8
 850              		.cfi_offset 14, -4
 851 0002 84B0     		sub	sp, sp, #16	@,,
 852              		.cfi_def_cfa_offset 24
 853 0004 00AF     		add	r7, sp, #0	@,,
 854              		.cfi_def_cfa_register 7
 855 0006 F860     		str	r0, [r7, #12]	@ out, out
 856 0008 B960     		str	r1, [r7, #8]	@ format, format
 857 000a 7A60     		str	r2, [r7, #4]	@ args, args
 209:configuration/printf-stdarg.c **** 		return print(&out, format, args);
 858              		.loc 1 209 0
 859 000c 07F10C03 		add	r3, r7, #12	@ tmp112,,
 860 0010 1846     		mov	r0, r3	@, tmp112
 861 0012 B968     		ldr	r1, [r7, #8]	@, format
ARM GAS  C:\Users\Adrian\AppData\Local\Temp\cczkgeIH.s 			page 20


 862 0014 7A68     		ldr	r2, [r7, #4]	@, args
 863 0016 FFF7FEFF 		bl	print	@
 864 001a 0346     		mov	r3, r0	@ D.4179,
 210:configuration/printf-stdarg.c **** }
 865              		.loc 1 210 0
 866 001c 1846     		mov	r0, r3	@, <retval>
 867 001e 1037     		adds	r7, r7, #16	@,,
 868 0020 BD46     		mov	sp, r7	@,
 869              		@ sp needed	@
 870 0022 80BD     		pop	{r7, pc}	@
 871              		.cfi_endproc
 872              	.LFE6:
 873              		.size	vsprintf, .-vsprintf
 874              		.text
 875              	.Letext0:
 876              		.file 2 "d:\\programy\\gnu tools arm embedded\\4.8 2014q2\\lib\\gcc\\arm-none-eabi\\4.8.4\\include
 877              		.file 3 "<built-in>"