ARM GAS  /tmp/cc2xjAK0.s 			page 1


   1              		.syntax unified
   2              		.cpu cortex-m3
   3              		.fpu softvfp
   4              		.eabi_attribute 20, 1	@ Tag_ABI_FP_denormal
   5              		.eabi_attribute 21, 1	@ Tag_ABI_FP_exceptions
   6              		.eabi_attribute 23, 3	@ Tag_ABI_FP_number_model
   7              		.eabi_attribute 24, 1	@ Tag_ABI_align8_needed
   8              		.eabi_attribute 25, 1	@ Tag_ABI_align8_preserved
   9              		.eabi_attribute 26, 1	@ Tag_ABI_enum_size
  10              		.eabi_attribute 30, 6	@ Tag_ABI_optimization_goals
  11              		.eabi_attribute 34, 1	@ Tag_CPU_unaligned_access
  12              		.eabi_attribute 18, 4	@ Tag_ABI_PCS_wchar_t
  13              		.file	"printf-stdarg.cpp"
  14              	@ GNU C++ (GNU Tools for ARM Embedded Processors) version 4.7.3 20130312 (release) [ARM/embedded-4_
  15              	@	compiled by GNU C version 4.3.6, GMP version 4.3.2, MPFR version 2.4.2, MPC version 0.8.1
  16              	@ GGC heuristics: --param ggc-min-expand=100 --param ggc-min-heapsize=131072
  17              	@ options passed:  -I . -I Src -I hdr -I Inc -I Middlewares
  18              	@ -I Middlewares/ST -I Middlewares/ST/STM32_USB_Device_Library/Class/CDC
  19              	@ -I Middlewares/ST/STM32_USB_Device_Library/Core -I Drivers
  20              	@ -I Drivers/CMSIS -I Drivers/CMSIS/Device/ST/STM32L1xx
  21              	@ -I Drivers/CMSIS/Include -I Drivers/STM32L1xx_HAL_Driver
  22              	@ -imultilib armv7-m
  23              	@ -iprefix /home/maciek/gcc-arm-none-eabi/gcc-arm-none-eabi-4_7-2013q1/bin/../lib/gcc/arm-none-eabi
  24              	@ -isysroot /home/maciek/gcc-arm-none-eabi/gcc-arm-none-eabi-4_7-2013q1/bin/../arm-none-eabi
  25              	@ -MD out/printf-stdarg.d -MF out/printf-stdarg.d -MP
  26              	@ -MQ out/printf-stdarg.o -D__USES_INITFINI__ -D STM32L1XX_MD
  27              	@ Src/printf-stdarg.cpp -mcpu=cortex-m3 -mthumb
  28              	@ -auxbase-strip out/printf-stdarg.o -g -ggdb3 -O0 -Wall -Wextra
  29              	@ -std=gnu++11 -ffunction-sections -fdata-sections -fno-rtti
  30              	@ -fno-exceptions -fverbose-asm
  31              	@ options enabled:  -fauto-inc-dec -fbranch-count-reg -fcommon
  32              	@ -fdata-sections -fdebug-types-section -fdelete-null-pointer-checks
  33              	@ -fdwarf2-cfi-asm -fearly-inlining -feliminate-unused-debug-types
  34              	@ -ffunction-cse -ffunction-sections -fgcse-lm -fgnu-runtime -fident
  35              	@ -finline-atomics -fira-share-save-slots -fira-share-spill-slots -fivopts
  36              	@ -fkeep-static-consts -fleading-underscore -fmath-errno
  37              	@ -fmerge-debug-strings -fmove-loop-invariants -fpeephole
  38              	@ -fprefetch-loop-arrays -freg-struct-return
  39              	@ -fsched-critical-path-heuristic -fsched-dep-count-heuristic
  40              	@ -fsched-group-heuristic -fsched-interblock -fsched-last-insn-heuristic
  41              	@ -fsched-rank-heuristic -fsched-spec -fsched-spec-insn-heuristic
  42              	@ -fsched-stalled-insns-dep -fshow-column -fsigned-zeros
  43              	@ -fsplit-ivs-in-unroller -fstrict-volatile-bitfields -ftrapping-math
  44              	@ -ftree-cselim -ftree-forwprop -ftree-loop-if-convert -ftree-loop-im
  45              	@ -ftree-loop-ivcanon -ftree-loop-optimize -ftree-parallelize-loops=
  46              	@ -ftree-phiprop -ftree-pta -ftree-reassoc -ftree-scev-cprop
  47              	@ -ftree-slp-vectorize -ftree-vect-loop-version -funit-at-a-time
  48              	@ -fverbose-asm -fzero-initialized-in-bss -mfix-cortex-m3-ldrd
  49              	@ -mlittle-endian -msched-prolog -mthumb -munaligned-access
  50              	@ -mvectorize-with-neon-quad
  51              	
  52              		.text
  53              	.Ltext0:
  54              		.cfi_sections	.debug_frame
  55              		.section	.text._ZL9printcharPPci,"ax",%progbits
  56              		.align	2
  57              		.thumb
ARM GAS  /tmp/cc2xjAK0.s 			page 2


  58              		.thumb_func
  59              		.type	_ZL9printcharPPci, %function
  60              	_ZL9printcharPPci:
  61              	.LFB0:
  62              		.file 1 "Src/printf-stdarg.cpp"
   1:Src/printf-stdarg.cpp **** /*
   2:Src/printf-stdarg.cpp **** 	Copyright 2001, 2002 Georges Menie (www.menie.org)
   3:Src/printf-stdarg.cpp **** 	stdarg version contributed by Christian Ettinger
   4:Src/printf-stdarg.cpp **** 
   5:Src/printf-stdarg.cpp ****     This program is free software; you can redistribute it and/or modify
   6:Src/printf-stdarg.cpp ****     it under the terms of the GNU Lesser General Public License as published by
   7:Src/printf-stdarg.cpp ****     the Free Software Foundation; either version 2 of the License, or
   8:Src/printf-stdarg.cpp ****     (at your option) any later version.
   9:Src/printf-stdarg.cpp **** 
  10:Src/printf-stdarg.cpp ****     This program is distributed in the hope that it will be useful,
  11:Src/printf-stdarg.cpp ****     but WITHOUT ANY WARRANTY; without even the implied warranty of
  12:Src/printf-stdarg.cpp ****     MERCHANTABILITY or FITNESS FOR A PARTICULAR PURPOSE.  See the
  13:Src/printf-stdarg.cpp ****     GNU Lesser General Public License for more details.
  14:Src/printf-stdarg.cpp **** 
  15:Src/printf-stdarg.cpp ****     You should have received a copy of the GNU Lesser General Public License
  16:Src/printf-stdarg.cpp ****     along with this program; if not, write to the Free Software
  17:Src/printf-stdarg.cpp ****     Foundation, Inc., 59 Temple Place, Suite 330, Boston, MA  02111-1307  USA
  18:Src/printf-stdarg.cpp **** */
  19:Src/printf-stdarg.cpp **** 
  20:Src/printf-stdarg.cpp **** /*
  21:Src/printf-stdarg.cpp **** 	putchar is the only external dependency for this file,
  22:Src/printf-stdarg.cpp **** 	if you have a working putchar, leave it commented out.
  23:Src/printf-stdarg.cpp **** 	If not, uncomment the define below and
  24:Src/printf-stdarg.cpp **** 	replace outbyte(c) by your own function call.
  25:Src/printf-stdarg.cpp **** 
  26:Src/printf-stdarg.cpp **** #define putchar(c) outbyte(c)
  27:Src/printf-stdarg.cpp **** */
  28:Src/printf-stdarg.cpp **** 
  29:Src/printf-stdarg.cpp **** #include <stdarg.h>
  30:Src/printf-stdarg.cpp **** 
  31:Src/printf-stdarg.cpp **** #define putchar(c)							usartSendCharacter(c)
  32:Src/printf-stdarg.cpp **** 
  33:Src/printf-stdarg.cpp **** static void printchar(char **str, int c)
  34:Src/printf-stdarg.cpp **** {
  63              		.loc 1 34 0
  64              		.cfi_startproc
  65              		@ args = 0, pretend = 0, frame = 8
  66              		@ frame_needed = 1, uses_anonymous_args = 0
  67 0000 80B5     		push	{r7, lr}	@
  68              	.LCFI0:
  69              		.cfi_def_cfa_offset 8
  70              		.cfi_offset 7, -8
  71              		.cfi_offset 14, -4
  72 0002 82B0     		sub	sp, sp, #8	@,,
  73              	.LCFI1:
  74              		.cfi_def_cfa_offset 16
  75 0004 00AF     		add	r7, sp, #0	@,,
  76              	.LCFI2:
  77              		.cfi_def_cfa_register 7
  78 0006 7860     		str	r0, [r7, #4]	@ str, str
  79 0008 3960     		str	r1, [r7, #0]	@ c, c
  80              	.LBB2:
ARM GAS  /tmp/cc2xjAK0.s 			page 3


  35:Src/printf-stdarg.cpp **** 	extern int putchar(int c);
  36:Src/printf-stdarg.cpp **** 	
  37:Src/printf-stdarg.cpp **** 	if (str) {
  81              		.loc 1 37 0
  82 000a 7B68     		ldr	r3, [r7, #4]	@ tmp138, str
  83 000c 002B     		cmp	r3, #0	@ tmp138,
  84 000e 0BD0     		beq	.L2	@,
  38:Src/printf-stdarg.cpp **** 		**str = c;
  85              		.loc 1 38 0
  86 0010 7B68     		ldr	r3, [r7, #4]	@ tmp139, str
  87 0012 1B68     		ldr	r3, [r3, #0]	@ D.4782, *str_1(D)
  88 0014 3A68     		ldr	r2, [r7, #0]	@ tmp140, c
  89 0016 D2B2     		uxtb	r2, r2	@ D.4783, tmp140
  90 0018 1A70     		strb	r2, [r3, #0]	@ tmp141, *D.4782_2
  39:Src/printf-stdarg.cpp **** 		++(*str);
  91              		.loc 1 39 0
  92 001a 7B68     		ldr	r3, [r7, #4]	@ tmp142, str
  93 001c 1B68     		ldr	r3, [r3, #0]	@ D.4784, *str_1(D)
  94 001e 03F10102 		add	r2, r3, #1	@ D.4785, D.4784,
  95 0022 7B68     		ldr	r3, [r7, #4]	@ tmp143, str
  96 0024 1A60     		str	r2, [r3, #0]	@ D.4785, *str_1(D)
  97 0026 02E0     		b	.L1	@
  98              	.L2:
  40:Src/printf-stdarg.cpp **** 	}
  41:Src/printf-stdarg.cpp **** 	else (void)putchar(c);
  99              		.loc 1 41 0
 100 0028 3868     		ldr	r0, [r7, #0]	@, c
 101 002a FFF7FEFF 		bl	_Z18usartSendCharacteri	@
 102              	.L1:
 103              	.LBE2:
  42:Src/printf-stdarg.cpp **** }
 104              		.loc 1 42 0
 105 002e 07F10807 		add	r7, r7, #8	@,,
 106 0032 BD46     		mov	sp, r7
 107 0034 80BD     		pop	{r7, pc}
 108              		.cfi_endproc
 109              	.LFE0:
 110              		.size	_ZL9printcharPPci, .-_ZL9printcharPPci
 111 0036 00BF     		.section	.text._ZL6printsPPcPKcii,"ax",%progbits
 112              		.align	2
 113              		.thumb
 114              		.thumb_func
 115              		.type	_ZL6printsPPcPKcii, %function
 116              	_ZL6printsPPcPKcii:
 117              	.LFB1:
  43:Src/printf-stdarg.cpp **** 
  44:Src/printf-stdarg.cpp **** #define PAD_RIGHT 1
  45:Src/printf-stdarg.cpp **** #define PAD_ZERO 2
  46:Src/printf-stdarg.cpp **** 
  47:Src/printf-stdarg.cpp **** static int prints(char **out, const char *string, int width, int pad)
  48:Src/printf-stdarg.cpp **** {
 118              		.loc 1 48 0
 119              		.cfi_startproc
 120              		@ args = 0, pretend = 0, frame = 16
 121              		@ frame_needed = 1, uses_anonymous_args = 0
 122 0000 2DE9F041 		push	{r4, r5, r6, r7, r8, lr}	@
 123              	.LCFI3:
ARM GAS  /tmp/cc2xjAK0.s 			page 4


 124              		.cfi_def_cfa_offset 24
 125              		.cfi_offset 4, -24
 126              		.cfi_offset 5, -20
 127              		.cfi_offset 6, -16
 128              		.cfi_offset 7, -12
 129              		.cfi_offset 8, -8
 130              		.cfi_offset 14, -4
 131 0004 84B0     		sub	sp, sp, #16	@,,
 132              	.LCFI4:
 133              		.cfi_def_cfa_offset 40
 134 0006 00AF     		add	r7, sp, #0	@,,
 135              	.LCFI5:
 136              		.cfi_def_cfa_register 7
 137 0008 F860     		str	r0, [r7, #12]	@ out, out
 138 000a B960     		str	r1, [r7, #8]	@ string, string
 139 000c 7A60     		str	r2, [r7, #4]	@ width, width
 140 000e 3B60     		str	r3, [r7, #0]	@ pad, pad
 141              	.LBB3:
  49:Src/printf-stdarg.cpp **** 	register int pc = 0, padchar = ' ';
 142              		.loc 1 49 0
 143 0010 4FF00004 		mov	r4, #0	@ pc,
 144 0014 4FF02006 		mov	r6, #32	@ padchar,
 145              	.LBB4:
  50:Src/printf-stdarg.cpp **** 
  51:Src/printf-stdarg.cpp **** 	if (width > 0) {
 146              		.loc 1 51 0
 147 0018 7B68     		ldr	r3, [r7, #4]	@ tmp150, width
 148 001a 002B     		cmp	r3, #0	@ tmp150,
 149 001c 22DD     		ble	.L5	@,
 150              	.LBB5:
  52:Src/printf-stdarg.cpp **** 		register int len = 0;
 151              		.loc 1 52 0
 152 001e 4FF00005 		mov	r5, #0	@ len,
  53:Src/printf-stdarg.cpp **** 		register const char *ptr;
  54:Src/printf-stdarg.cpp **** 		for (ptr = string; *ptr; ++ptr) ++len;
 153              		.loc 1 54 0
 154 0022 D7F80880 		ldr	r8, [r7, #8]	@ ptr, string
 155 0026 03E0     		b	.L6	@
 156              	.L7:
 157              		.loc 1 54 0 is_stmt 0 discriminator 2
 158 0028 05F10105 		add	r5, r5, #1	@ len, len,
 159 002c 08F10108 		add	r8, r8, #1	@ ptr, ptr,
 160              	.L6:
 161              		.loc 1 54 0 discriminator 1
 162 0030 98F80030 		ldrb	r3, [r8, #0]	@ zero_extendqisi2	@ D.4745, *ptr_13
 163 0034 002B     		cmp	r3, #0	@ D.4745,
 164 0036 0CBF     		ite	eq	@
 165 0038 0023     		moveq	r3, #0	@, tmp152
 166 003a 0123     		movne	r3, #1	@, tmp152
 167 003c DBB2     		uxtb	r3, r3	@ D.4746, tmp151
 168 003e 002B     		cmp	r3, #0	@ D.4746,
 169 0040 F2D1     		bne	.L7	@,
  55:Src/printf-stdarg.cpp **** 		if (len >= width) width = 0;
 170              		.loc 1 55 0 is_stmt 1
 171 0042 7B68     		ldr	r3, [r7, #4]	@ tmp153, width
 172 0044 9D42     		cmp	r5, r3	@ len, tmp153
 173 0046 03DB     		blt	.L8	@,
ARM GAS  /tmp/cc2xjAK0.s 			page 5


 174              		.loc 1 55 0 is_stmt 0 discriminator 1
 175 0048 4FF00003 		mov	r3, #0	@ tmp154,
 176 004c 7B60     		str	r3, [r7, #4]	@ tmp154, width
 177 004e 02E0     		b	.L9	@
 178              	.L8:
  56:Src/printf-stdarg.cpp **** 		else width -= len;
 179              		.loc 1 56 0 is_stmt 1
 180 0050 7B68     		ldr	r3, [r7, #4]	@ tmp156, width
 181 0052 5B1B     		subs	r3, r3, r5	@ tmp155, tmp156, len
 182 0054 7B60     		str	r3, [r7, #4]	@ tmp155, width
 183              	.L9:
  57:Src/printf-stdarg.cpp **** 		if (pad & PAD_ZERO) padchar = '0';
 184              		.loc 1 57 0
 185 0056 3B68     		ldr	r3, [r7, #0]	@ tmp157, pad
 186 0058 03F00203 		and	r3, r3, #2	@ D.4751, tmp157,
 187 005c 002B     		cmp	r3, #0	@ D.4751,
 188 005e 01D0     		beq	.L5	@,
 189              		.loc 1 57 0 is_stmt 0 discriminator 1
 190 0060 4FF03006 		mov	r6, #48	@ padchar,
 191              	.L5:
 192              	.LBE5:
 193              	.LBE4:
  58:Src/printf-stdarg.cpp **** 	}
  59:Src/printf-stdarg.cpp **** 	if (!(pad & PAD_RIGHT)) {
 194              		.loc 1 59 0 is_stmt 1
 195 0064 3B68     		ldr	r3, [r7, #0]	@ tmp158, pad
 196 0066 03F00103 		and	r3, r3, #1	@ D.4756, tmp158,
 197 006a 002B     		cmp	r3, #0	@ D.4756,
 198 006c 1FD1     		bne	.L13	@,
  60:Src/printf-stdarg.cpp **** 		for ( ; width > 0; --width) {
 199              		.loc 1 60 0
 200 006e 09E0     		b	.L11	@
 201              	.L12:
  61:Src/printf-stdarg.cpp **** 			printchar (out, padchar);
 202              		.loc 1 61 0 discriminator 2
 203 0070 F868     		ldr	r0, [r7, #12]	@, out
 204 0072 3146     		mov	r1, r6	@, padchar
 205 0074 FFF7FEFF 		bl	_ZL9printcharPPci	@
  62:Src/printf-stdarg.cpp **** 			++pc;
 206              		.loc 1 62 0 discriminator 2
 207 0078 04F10104 		add	r4, r4, #1	@ pc, pc,
  60:Src/printf-stdarg.cpp **** 		for ( ; width > 0; --width) {
 208              		.loc 1 60 0 discriminator 2
 209 007c 7B68     		ldr	r3, [r7, #4]	@ tmp160, width
 210 007e 03F1FF33 		add	r3, r3, #-1	@ tmp159, tmp160,
 211 0082 7B60     		str	r3, [r7, #4]	@ tmp159, width
 212              	.L11:
  60:Src/printf-stdarg.cpp **** 		for ( ; width > 0; --width) {
 213              		.loc 1 60 0 is_stmt 0 discriminator 1
 214 0084 7B68     		ldr	r3, [r7, #4]	@ tmp162, width
 215 0086 002B     		cmp	r3, #0	@ tmp162,
 216 0088 D4BF     		ite	le	@
 217 008a 0023     		movle	r3, #0	@, tmp163
 218 008c 0123     		movgt	r3, #1	@, tmp163
 219 008e DBB2     		uxtb	r3, r3	@ D.4762, tmp161
 220 0090 002B     		cmp	r3, #0	@ D.4762,
 221 0092 EDD1     		bne	.L12	@,
ARM GAS  /tmp/cc2xjAK0.s 			page 6


  63:Src/printf-stdarg.cpp **** 		}
  64:Src/printf-stdarg.cpp **** 	}
  65:Src/printf-stdarg.cpp **** 	for ( ; *string ; ++string) {
 222              		.loc 1 65 0 is_stmt 1
 223 0094 0BE0     		b	.L13	@
 224              	.L14:
  66:Src/printf-stdarg.cpp **** 		printchar (out, *string);
 225              		.loc 1 66 0 discriminator 2
 226 0096 BB68     		ldr	r3, [r7, #8]	@ tmp164, string
 227 0098 1B78     		ldrb	r3, [r3, #0]	@ zero_extendqisi2	@ D.4771, *string_1
 228 009a F868     		ldr	r0, [r7, #12]	@, out
 229 009c 1946     		mov	r1, r3	@, D.4772
 230 009e FFF7FEFF 		bl	_ZL9printcharPPci	@
  67:Src/printf-stdarg.cpp **** 		++pc;
 231              		.loc 1 67 0 discriminator 2
 232 00a2 04F10104 		add	r4, r4, #1	@ pc, pc,
  65:Src/printf-stdarg.cpp **** 	for ( ; *string ; ++string) {
 233              		.loc 1 65 0 discriminator 2
 234 00a6 BB68     		ldr	r3, [r7, #8]	@ tmp166, string
 235 00a8 03F10103 		add	r3, r3, #1	@ tmp165, tmp166,
 236 00ac BB60     		str	r3, [r7, #8]	@ tmp165, string
 237              	.L13:
  65:Src/printf-stdarg.cpp **** 	for ( ; *string ; ++string) {
 238              		.loc 1 65 0 is_stmt 0 discriminator 1
 239 00ae BB68     		ldr	r3, [r7, #8]	@ tmp167, string
 240 00b0 1B78     		ldrb	r3, [r3, #0]	@ zero_extendqisi2	@ D.4768, *string_1
 241 00b2 002B     		cmp	r3, #0	@ D.4768,
 242 00b4 0CBF     		ite	eq	@
 243 00b6 0023     		moveq	r3, #0	@, tmp169
 244 00b8 0123     		movne	r3, #1	@, tmp169
 245 00ba DBB2     		uxtb	r3, r3	@ D.4769, tmp168
 246 00bc 002B     		cmp	r3, #0	@ D.4769,
 247 00be EAD1     		bne	.L14	@,
  68:Src/printf-stdarg.cpp **** 	}
  69:Src/printf-stdarg.cpp **** 	for ( ; width > 0; --width) {
 248              		.loc 1 69 0 is_stmt 1
 249 00c0 09E0     		b	.L15	@
 250              	.L16:
  70:Src/printf-stdarg.cpp **** 		printchar (out, padchar);
 251              		.loc 1 70 0 discriminator 2
 252 00c2 F868     		ldr	r0, [r7, #12]	@, out
 253 00c4 3146     		mov	r1, r6	@, padchar
 254 00c6 FFF7FEFF 		bl	_ZL9printcharPPci	@
  71:Src/printf-stdarg.cpp **** 		++pc;
 255              		.loc 1 71 0 discriminator 2
 256 00ca 04F10104 		add	r4, r4, #1	@ pc, pc,
  69:Src/printf-stdarg.cpp **** 	for ( ; width > 0; --width) {
 257              		.loc 1 69 0 discriminator 2
 258 00ce 7B68     		ldr	r3, [r7, #4]	@ tmp171, width
 259 00d0 03F1FF33 		add	r3, r3, #-1	@ tmp170, tmp171,
 260 00d4 7B60     		str	r3, [r7, #4]	@ tmp170, width
 261              	.L15:
  69:Src/printf-stdarg.cpp **** 	for ( ; width > 0; --width) {
 262              		.loc 1 69 0 is_stmt 0 discriminator 1
 263 00d6 7B68     		ldr	r3, [r7, #4]	@ tmp173, width
 264 00d8 002B     		cmp	r3, #0	@ tmp173,
 265 00da D4BF     		ite	le	@
ARM GAS  /tmp/cc2xjAK0.s 			page 7


 266 00dc 0023     		movle	r3, #0	@, tmp174
 267 00de 0123     		movgt	r3, #1	@, tmp174
 268 00e0 DBB2     		uxtb	r3, r3	@ D.4776, tmp172
 269 00e2 002B     		cmp	r3, #0	@ D.4776,
 270 00e4 EDD1     		bne	.L16	@,
  72:Src/printf-stdarg.cpp **** 	}
  73:Src/printf-stdarg.cpp **** 
  74:Src/printf-stdarg.cpp **** 	return pc;
 271              		.loc 1 74 0 is_stmt 1
 272 00e6 2346     		mov	r3, r4	@ D.4778, pc
 273              	.LBE3:
  75:Src/printf-stdarg.cpp **** }
 274              		.loc 1 75 0
 275 00e8 1846     		mov	r0, r3	@, <retval>
 276 00ea 07F11007 		add	r7, r7, #16	@,,
 277 00ee BD46     		mov	sp, r7
 278 00f0 BDE8F081 		pop	{r4, r5, r6, r7, r8, pc}
 279              		.cfi_endproc
 280              	.LFE1:
 281              		.size	_ZL6printsPPcPKcii, .-_ZL6printsPPcPKcii
 282              		.section	.text._ZL6printiPPciiiiii,"ax",%progbits
 283              		.align	2
 284              		.thumb
 285              		.thumb_func
 286              		.type	_ZL6printiPPciiiiii, %function
 287              	_ZL6printiPPciiiiii:
 288              	.LFB2:
  76:Src/printf-stdarg.cpp **** 
  77:Src/printf-stdarg.cpp **** /* the following should be enough for 32 bit int */
  78:Src/printf-stdarg.cpp **** #define PRINT_BUF_LEN 12
  79:Src/printf-stdarg.cpp **** 
  80:Src/printf-stdarg.cpp **** static int printi(char **out, int i, int b, int sg, int width, int pad, int letbase)
  81:Src/printf-stdarg.cpp **** {
 289              		.loc 1 81 0
 290              		.cfi_startproc
 291              		@ args = 12, pretend = 0, frame = 32
 292              		@ frame_needed = 1, uses_anonymous_args = 0
 293 0000 2DE9F043 		push	{r4, r5, r6, r7, r8, r9, lr}	@
 294              	.LCFI6:
 295              		.cfi_def_cfa_offset 28
 296              		.cfi_offset 4, -28
 297              		.cfi_offset 5, -24
 298              		.cfi_offset 6, -20
 299              		.cfi_offset 7, -16
 300              		.cfi_offset 8, -12
 301              		.cfi_offset 9, -8
 302              		.cfi_offset 14, -4
 303 0004 89B0     		sub	sp, sp, #36	@,,
 304              	.LCFI7:
 305              		.cfi_def_cfa_offset 64
 306 0006 00AF     		add	r7, sp, #0	@,,
 307              	.LCFI8:
 308              		.cfi_def_cfa_register 7
 309 0008 F860     		str	r0, [r7, #12]	@ out, out
 310 000a B960     		str	r1, [r7, #8]	@ i, i
 311 000c 7A60     		str	r2, [r7, #4]	@ b, b
 312 000e 3B60     		str	r3, [r7, #0]	@ sg, sg
ARM GAS  /tmp/cc2xjAK0.s 			page 8


 313              	.LBB6:
  82:Src/printf-stdarg.cpp **** 	char print_buf[PRINT_BUF_LEN];
  83:Src/printf-stdarg.cpp **** 	register char *s;
  84:Src/printf-stdarg.cpp **** 	register int t, neg = 0, pc = 0;
 314              		.loc 1 84 0
 315 0010 4FF00009 		mov	r9, #0	@ neg,
 316 0014 4FF00008 		mov	r8, #0	@ pc,
  85:Src/printf-stdarg.cpp **** 	register unsigned int u = i;
 317              		.loc 1 85 0
 318 0018 BD68     		ldr	r5, [r7, #8]	@ u, i
  86:Src/printf-stdarg.cpp **** 
  87:Src/printf-stdarg.cpp **** 	if (i == 0) {
 319              		.loc 1 87 0
 320 001a BB68     		ldr	r3, [r7, #8]	@ tmp151, i
 321 001c 002B     		cmp	r3, #0	@ tmp151,
 322 001e 0FD1     		bne	.L19	@,
  88:Src/printf-stdarg.cpp **** 		print_buf[0] = '0';
 323              		.loc 1 88 0
 324 0020 4FF03003 		mov	r3, #48	@ tmp152,
 325 0024 3B75     		strb	r3, [r7, #20]	@ tmp153, print_buf
  89:Src/printf-stdarg.cpp **** 		print_buf[1] = '\0';
 326              		.loc 1 89 0
 327 0026 4FF00003 		mov	r3, #0	@ tmp154,
 328 002a 7B75     		strb	r3, [r7, #21]	@ tmp155, print_buf
  90:Src/printf-stdarg.cpp **** 		return prints (out, print_buf, width, pad);
 329              		.loc 1 90 0
 330 002c 07F11403 		add	r3, r7, #20	@ tmp156,,
 331 0030 F868     		ldr	r0, [r7, #12]	@, out
 332 0032 1946     		mov	r1, r3	@, tmp156
 333 0034 3A6C     		ldr	r2, [r7, #64]	@, width
 334 0036 7B6C     		ldr	r3, [r7, #68]	@, pad
 335 0038 FFF7FEFF 		bl	_ZL6printsPPcPKcii	@
 336 003c 0346     		mov	r3, r0	@ D.4707,
 337 003e 58E0     		b	.L28	@
 338              	.L19:
  91:Src/printf-stdarg.cpp **** 	}
  92:Src/printf-stdarg.cpp **** 
  93:Src/printf-stdarg.cpp **** 	if (sg && b == 10 && i < 0) {
 339              		.loc 1 93 0
 340 0040 3B68     		ldr	r3, [r7, #0]	@ tmp157, sg
 341 0042 002B     		cmp	r3, #0	@ tmp157,
 342 0044 0BD0     		beq	.L21	@,
 343              		.loc 1 93 0 is_stmt 0 discriminator 1
 344 0046 7B68     		ldr	r3, [r7, #4]	@ tmp158, b
 345 0048 0A2B     		cmp	r3, #10	@ tmp158,
 346 004a 08D1     		bne	.L21	@,
 347              		.loc 1 93 0 discriminator 2
 348 004c BB68     		ldr	r3, [r7, #8]	@ tmp159, i
 349 004e 002B     		cmp	r3, #0	@ tmp159,
 350 0050 05DA     		bge	.L21	@,
  94:Src/printf-stdarg.cpp **** 		neg = 1;
 351              		.loc 1 94 0 is_stmt 1
 352 0052 4FF00109 		mov	r9, #1	@ neg,
  95:Src/printf-stdarg.cpp **** 		u = -i;
 353              		.loc 1 95 0
 354 0056 BB68     		ldr	r3, [r7, #8]	@ tmp160, i
 355 0058 C3F10003 		rsb	r3, r3, #0	@ D.4714, tmp160
ARM GAS  /tmp/cc2xjAK0.s 			page 9


 356 005c 1D46     		mov	r5, r3	@ u, D.4714
 357              	.L21:
  96:Src/printf-stdarg.cpp **** 	}
  97:Src/printf-stdarg.cpp **** 
  98:Src/printf-stdarg.cpp **** 	s = print_buf + PRINT_BUF_LEN-1;
 358              		.loc 1 98 0
 359 005e 07F11404 		add	r4, r7, #20	@ s,,
 360 0062 04F10B04 		add	r4, r4, #11	@ s, s,
  99:Src/printf-stdarg.cpp **** 	*s = '\0';
 361              		.loc 1 99 0
 362 0066 4FF00003 		mov	r3, #0	@ tmp161,
 363 006a 2370     		strb	r3, [r4, #0]	@ tmp162, *s_26
 100:Src/printf-stdarg.cpp **** 
 101:Src/printf-stdarg.cpp **** 	while (u) {
 364              		.loc 1 101 0
 365 006c 16E0     		b	.L22	@
 366              	.L24:
 102:Src/printf-stdarg.cpp **** 		t = u % b;
 367              		.loc 1 102 0
 368 006e 7B68     		ldr	r3, [r7, #4]	@ b.2, b
 369 0070 B5FBF3F2 		udiv	r2, r5, r3	@ tmp165, u, b.2
 370 0074 03FB02F3 		mul	r3, r3, r2	@ tmp166, b.2, tmp165
 371 0078 EB1A     		subs	r3, r5, r3	@ D.4721, u, tmp166
 372 007a 1E46     		mov	r6, r3	@ t, D.4721
 103:Src/printf-stdarg.cpp **** 		if( t >= 10 )
 373              		.loc 1 103 0
 374 007c 092E     		cmp	r6, #9	@ t,
 375 007e 03DD     		ble	.L23	@,
 104:Src/printf-stdarg.cpp **** 			t += letbase - '0' - 10;
 376              		.loc 1 104 0
 377 0080 BB6C     		ldr	r3, [r7, #72]	@ tmp167, letbase
 378 0082 A3F13A03 		sub	r3, r3, #58	@ D.4724, tmp167,
 379 0086 F618     		adds	r6, r6, r3	@ t, t, D.4724
 380              	.L23:
 105:Src/printf-stdarg.cpp **** 		*--s = t + '0';
 381              		.loc 1 105 0
 382 0088 04F1FF34 		add	r4, r4, #-1	@ s, s,
 383 008c F3B2     		uxtb	r3, r6	@ D.4726, t
 384 008e 03F13003 		add	r3, r3, #48	@ tmp168, D.4726,
 385 0092 DBB2     		uxtb	r3, r3	@ D.4727, tmp168
 386 0094 2370     		strb	r3, [r4, #0]	@ tmp169, *s_34
 106:Src/printf-stdarg.cpp **** 		u /= b;
 387              		.loc 1 106 0
 388 0096 7B68     		ldr	r3, [r7, #4]	@ b.3, b
 389 0098 B5FBF3F5 		udiv	r5, r5, r3	@ u, u, b.3
 390              	.L22:
 101:Src/printf-stdarg.cpp **** 	while (u) {
 391              		.loc 1 101 0 discriminator 1
 392 009c 002D     		cmp	r5, #0	@ u,
 393 009e 0CBF     		ite	eq	@
 394 00a0 0023     		moveq	r3, #0	@, tmp171
 395 00a2 0123     		movne	r3, #1	@, tmp171
 396 00a4 DBB2     		uxtb	r3, r3	@ D.4719, tmp170
 397 00a6 002B     		cmp	r3, #0	@ D.4719,
 398 00a8 E1D1     		bne	.L24	@,
 107:Src/printf-stdarg.cpp **** 	}
 108:Src/printf-stdarg.cpp **** 
ARM GAS  /tmp/cc2xjAK0.s 			page 10


 109:Src/printf-stdarg.cpp **** 	if (neg) {
 399              		.loc 1 109 0
 400 00aa B9F1000F 		cmp	r9, #0	@ neg,
 401 00ae 18D0     		beq	.L25	@,
 110:Src/printf-stdarg.cpp **** 		if( width && (pad & PAD_ZERO) ) {
 402              		.loc 1 110 0
 403 00b0 3B6C     		ldr	r3, [r7, #64]	@ tmp172, width
 404 00b2 002B     		cmp	r3, #0	@ tmp172,
 405 00b4 10D0     		beq	.L26	@,
 406              		.loc 1 110 0 is_stmt 0 discriminator 1
 407 00b6 7B6C     		ldr	r3, [r7, #68]	@ tmp173, pad
 408 00b8 03F00203 		and	r3, r3, #2	@ D.4734, tmp173,
 409 00bc 002B     		cmp	r3, #0	@ D.4734,
 410 00be 0BD0     		beq	.L26	@,
 111:Src/printf-stdarg.cpp **** 			printchar (out, '-');
 411              		.loc 1 111 0 is_stmt 1
 412 00c0 F868     		ldr	r0, [r7, #12]	@, out
 413 00c2 4FF02D01 		mov	r1, #45	@,
 414 00c6 FFF7FEFF 		bl	_ZL9printcharPPci	@
 112:Src/printf-stdarg.cpp **** 			++pc;
 415              		.loc 1 112 0
 416 00ca 08F10108 		add	r8, r8, #1	@ pc, pc,
 113:Src/printf-stdarg.cpp **** 			--width;
 417              		.loc 1 113 0
 418 00ce 3B6C     		ldr	r3, [r7, #64]	@ tmp175, width
 419 00d0 03F1FF33 		add	r3, r3, #-1	@ tmp174, tmp175,
 420 00d4 3B64     		str	r3, [r7, #64]	@ tmp174, width
 421 00d6 04E0     		b	.L25	@
 422              	.L26:
 114:Src/printf-stdarg.cpp **** 		}
 115:Src/printf-stdarg.cpp **** 		else {
 116:Src/printf-stdarg.cpp **** 			*--s = '-';
 423              		.loc 1 116 0
 424 00d8 04F1FF34 		add	r4, r4, #-1	@ s, s,
 425 00dc 4FF02D03 		mov	r3, #45	@ tmp176,
 426 00e0 2370     		strb	r3, [r4, #0]	@ tmp177, *s_42
 427              	.L25:
 117:Src/printf-stdarg.cpp **** 		}
 118:Src/printf-stdarg.cpp **** 	}
 119:Src/printf-stdarg.cpp **** 
 120:Src/printf-stdarg.cpp **** 	return pc + prints (out, s, width, pad);
 428              		.loc 1 120 0
 429 00e2 F868     		ldr	r0, [r7, #12]	@, out
 430 00e4 2146     		mov	r1, r4	@, s
 431 00e6 3A6C     		ldr	r2, [r7, #64]	@, width
 432 00e8 7B6C     		ldr	r3, [r7, #68]	@, pad
 433 00ea FFF7FEFF 		bl	_ZL6printsPPcPKcii	@
 434 00ee 0346     		mov	r3, r0	@ D.4737,
 435 00f0 4344     		add	r3, r3, r8	@ D.4707, D.4737, pc
 436              	.L28:
 437              	.LBE6:
 121:Src/printf-stdarg.cpp **** }
 438              		.loc 1 121 0
 439 00f2 1846     		mov	r0, r3	@, <retval>
 440 00f4 07F12407 		add	r7, r7, #36	@,,
 441 00f8 BD46     		mov	sp, r7
 442 00fa BDE8F083 		pop	{r4, r5, r6, r7, r8, r9, pc}
ARM GAS  /tmp/cc2xjAK0.s 			page 11


 443              		.cfi_endproc
 444              	.LFE2:
 445              		.size	_ZL6printiPPciiiiii, .-_ZL6printiPPciiiiii
 446 00fe 00BF     		.section	.rodata
 447              		.align	2
 448              	.LC0:
 449 0000 286E756C 		.ascii	"(null)\000"
 449      6C2900
 450 0007 00       		.section	.text._ZL5printPPcPKcSt9__va_list,"ax",%progbits
 451              		.align	2
 452              		.thumb
 453              		.thumb_func
 454              		.type	_ZL5printPPcPKcSt9__va_list, %function
 455              	_ZL5printPPcPKcSt9__va_list:
 456              	.LFB3:
 122:Src/printf-stdarg.cpp **** 
 123:Src/printf-stdarg.cpp **** static int print(char **out, const char *format, va_list args )
 124:Src/printf-stdarg.cpp **** {
 457              		.loc 1 124 0
 458              		.cfi_startproc
 459              		@ args = 0, pretend = 0, frame = 24
 460              		@ frame_needed = 1, uses_anonymous_args = 0
 461 0000 2DE9F041 		push	{r4, r5, r6, r7, r8, lr}	@
 462              	.LCFI9:
 463              		.cfi_def_cfa_offset 24
 464              		.cfi_offset 4, -24
 465              		.cfi_offset 5, -20
 466              		.cfi_offset 6, -16
 467              		.cfi_offset 7, -12
 468              		.cfi_offset 8, -8
 469              		.cfi_offset 14, -4
 470 0004 8AB0     		sub	sp, sp, #40	@,,
 471              	.LCFI10:
 472              		.cfi_def_cfa_offset 64
 473 0006 04AF     		add	r7, sp, #16	@,,
 474              	.LCFI11:
 475              		.cfi_def_cfa 7, 48
 476 0008 F860     		str	r0, [r7, #12]	@ out, out
 477 000a B960     		str	r1, [r7, #8]	@ format, format
 478 000c 7A60     		str	r2, [r7, #4]	@ args, args
 479              	.LBB7:
 125:Src/printf-stdarg.cpp **** 	register int width, pad;
 126:Src/printf-stdarg.cpp **** 	register int pc = 0;
 480              		.loc 1 126 0
 481 000e 4FF00004 		mov	r4, #0	@ pc,
 482              	.LBB8:
 127:Src/printf-stdarg.cpp **** 	char scr[2];
 128:Src/printf-stdarg.cpp **** 
 129:Src/printf-stdarg.cpp **** 	for (; *format != 0; ++format) {
 483              		.loc 1 129 0
 484 0012 02E1     		b	.L30	@
 485              	.L51:
 486              	.LBB9:
 487              	.LBB10:
 130:Src/printf-stdarg.cpp **** 		if (*format == '%') {
 488              		.loc 1 130 0
 489 0014 BB68     		ldr	r3, [r7, #8]	@ tmp192, format
ARM GAS  /tmp/cc2xjAK0.s 			page 12


 490 0016 1B78     		ldrb	r3, [r3, #0]	@ zero_extendqisi2	@ D.4616, *format_7
 491 0018 252B     		cmp	r3, #37	@ D.4616,
 492 001a 40F0F280 		bne	.L31	@,
 493              	.LBB11:
 131:Src/printf-stdarg.cpp **** 			++format;
 494              		.loc 1 131 0
 495 001e BB68     		ldr	r3, [r7, #8]	@ tmp194, format
 496 0020 03F10103 		add	r3, r3, #1	@ tmp193, tmp194,
 497 0024 BB60     		str	r3, [r7, #8]	@ tmp193, format
 132:Src/printf-stdarg.cpp **** 			width = pad = 0;
 498              		.loc 1 132 0
 499 0026 4FF00006 		mov	r6, #0	@ pad,
 500 002a 3546     		mov	r5, r6	@ width, pad
 133:Src/printf-stdarg.cpp **** 			if (*format == '\0') break;
 501              		.loc 1 133 0
 502 002c BB68     		ldr	r3, [r7, #8]	@ tmp195, format
 503 002e 1B78     		ldrb	r3, [r3, #0]	@ zero_extendqisi2	@ D.4619, *format_21
 504 0030 002B     		cmp	r3, #0	@ D.4619,
 505 0032 00F0FD80 		beq	.L54	@,
 506              	.L32:
 134:Src/printf-stdarg.cpp **** 			if (*format == '%') goto out;
 507              		.loc 1 134 0
 508 0036 BB68     		ldr	r3, [r7, #8]	@ tmp196, format
 509 0038 1B78     		ldrb	r3, [r3, #0]	@ zero_extendqisi2	@ D.4622, *format_21
 510 003a 252B     		cmp	r3, #37	@ D.4622,
 511 003c 00F0E080 		beq	.L55	@,
 512              	.L34:
 135:Src/printf-stdarg.cpp **** 			if (*format == '-') {
 513              		.loc 1 135 0
 514 0040 BB68     		ldr	r3, [r7, #8]	@ tmp197, format
 515 0042 1B78     		ldrb	r3, [r3, #0]	@ zero_extendqisi2	@ D.4625, *format_21
 516 0044 2D2B     		cmp	r3, #45	@ D.4625,
 517 0046 0CD1     		bne	.L36	@,
 136:Src/printf-stdarg.cpp **** 				++format;
 518              		.loc 1 136 0
 519 0048 BB68     		ldr	r3, [r7, #8]	@ tmp199, format
 520 004a 03F10103 		add	r3, r3, #1	@ tmp198, tmp199,
 521 004e BB60     		str	r3, [r7, #8]	@ tmp198, format
 137:Src/printf-stdarg.cpp **** 				pad = PAD_RIGHT;
 522              		.loc 1 137 0
 523 0050 4FF00106 		mov	r6, #1	@ pad,
 138:Src/printf-stdarg.cpp **** 			}
 139:Src/printf-stdarg.cpp **** 			while (*format == '0') {
 524              		.loc 1 139 0
 525 0054 05E0     		b	.L36	@
 526              	.L37:
 140:Src/printf-stdarg.cpp **** 				++format;
 527              		.loc 1 140 0
 528 0056 BB68     		ldr	r3, [r7, #8]	@ tmp201, format
 529 0058 03F10103 		add	r3, r3, #1	@ tmp200, tmp201,
 530 005c BB60     		str	r3, [r7, #8]	@ tmp200, format
 141:Src/printf-stdarg.cpp **** 				pad |= PAD_ZERO;
 531              		.loc 1 141 0
 532 005e 46F00206 		orr	r6, r6, #2	@ pad, pad,
 533              	.L36:
 139:Src/printf-stdarg.cpp **** 			while (*format == '0') {
 534              		.loc 1 139 0 discriminator 1
ARM GAS  /tmp/cc2xjAK0.s 			page 13


 535 0062 BB68     		ldr	r3, [r7, #8]	@ tmp202, format
 536 0064 1B78     		ldrb	r3, [r3, #0]	@ zero_extendqisi2	@ D.4632, *format_2
 537 0066 302B     		cmp	r3, #48	@ D.4632,
 538 0068 14BF     		ite	ne	@
 539 006a 0023     		movne	r3, #0	@, tmp204
 540 006c 0123     		moveq	r3, #1	@, tmp204
 541 006e DBB2     		uxtb	r3, r3	@ D.4633, tmp203
 542 0070 002B     		cmp	r3, #0	@ D.4633,
 543 0072 F0D1     		bne	.L37	@,
 142:Src/printf-stdarg.cpp **** 			}
 143:Src/printf-stdarg.cpp **** 			for ( ; *format >= '0' && *format <= '9'; ++format) {
 544              		.loc 1 143 0
 545 0074 0FE0     		b	.L38	@
 546              	.L41:
 144:Src/printf-stdarg.cpp **** 				width *= 10;
 547              		.loc 1 144 0 discriminator 6
 548 0076 2B46     		mov	r3, r5	@ tmp205, width
 549 0078 4FEA8303 		lsl	r3, r3, #2	@ tmp205, tmp205,
 550 007c 5B19     		adds	r3, r3, r5	@ tmp205, tmp205, width
 551 007e 4FEA4303 		lsl	r3, r3, #1	@ tmp206, tmp205,
 552 0082 1D46     		mov	r5, r3	@ width, tmp205
 145:Src/printf-stdarg.cpp **** 				width += *format - '0';
 553              		.loc 1 145 0 discriminator 6
 554 0084 BB68     		ldr	r3, [r7, #8]	@ tmp207, format
 555 0086 1B78     		ldrb	r3, [r3, #0]	@ zero_extendqisi2	@ D.4645, *format_3
 556 0088 A3F13003 		sub	r3, r3, #48	@ D.4647, D.4646,
 557 008c ED18     		adds	r5, r5, r3	@ width, width, D.4647
 143:Src/printf-stdarg.cpp **** 			for ( ; *format >= '0' && *format <= '9'; ++format) {
 558              		.loc 1 143 0 discriminator 6
 559 008e BB68     		ldr	r3, [r7, #8]	@ tmp209, format
 560 0090 03F10103 		add	r3, r3, #1	@ tmp208, tmp209,
 561 0094 BB60     		str	r3, [r7, #8]	@ tmp208, format
 562              	.L38:
 143:Src/printf-stdarg.cpp **** 			for ( ; *format >= '0' && *format <= '9'; ++format) {
 563              		.loc 1 143 0 is_stmt 0 discriminator 1
 564 0096 BB68     		ldr	r3, [r7, #8]	@ tmp210, format
 565 0098 1B78     		ldrb	r3, [r3, #0]	@ zero_extendqisi2	@ D.4640, *format_3
 566 009a 2F2B     		cmp	r3, #47	@ D.4640,
 567 009c 06D9     		bls	.L39	@,
 143:Src/printf-stdarg.cpp **** 			for ( ; *format >= '0' && *format <= '9'; ++format) {
 568              		.loc 1 143 0 discriminator 2
 569 009e BB68     		ldr	r3, [r7, #8]	@ tmp211, format
 570 00a0 1B78     		ldrb	r3, [r3, #0]	@ zero_extendqisi2	@ D.4642, *format_3
 571 00a2 392B     		cmp	r3, #57	@ D.4642,
 572 00a4 02D8     		bhi	.L39	@,
 143:Src/printf-stdarg.cpp **** 			for ( ; *format >= '0' && *format <= '9'; ++format) {
 573              		.loc 1 143 0 discriminator 4
 574 00a6 4FF00103 		mov	r3, #1	@ iftmp.0,
 575 00aa 01E0     		b	.L40	@
 576              	.L39:
 143:Src/printf-stdarg.cpp **** 			for ( ; *format >= '0' && *format <= '9'; ++format) {
 577              		.loc 1 143 0 discriminator 3
 578 00ac 4FF00003 		mov	r3, #0	@ iftmp.0,
 579              	.L40:
 143:Src/printf-stdarg.cpp **** 			for ( ; *format >= '0' && *format <= '9'; ++format) {
 580              		.loc 1 143 0 discriminator 5
 581 00b0 002B     		cmp	r3, #0	@ iftmp.0,
ARM GAS  /tmp/cc2xjAK0.s 			page 14


 582 00b2 E0D1     		bne	.L41	@,
 146:Src/printf-stdarg.cpp **** 			}
 147:Src/printf-stdarg.cpp **** 			if (*format == '*') {
 583              		.loc 1 147 0 is_stmt 1
 584 00b4 BB68     		ldr	r3, [r7, #8]	@ tmp212, format
 585 00b6 1B78     		ldrb	r3, [r3, #0]	@ zero_extendqisi2	@ D.4648, *format_3
 586 00b8 2A2B     		cmp	r3, #42	@ D.4648,
 587 00ba 08D1     		bne	.L42	@,
 148:Src/printf-stdarg.cpp **** 				++format;
 588              		.loc 1 148 0
 589 00bc BB68     		ldr	r3, [r7, #8]	@ tmp214, format
 590 00be 03F10103 		add	r3, r3, #1	@ tmp213, tmp214,
 591 00c2 BB60     		str	r3, [r7, #8]	@ tmp213, format
 149:Src/printf-stdarg.cpp **** 				width = va_arg( args, int );
 592              		.loc 1 149 0
 593 00c4 7B68     		ldr	r3, [r7, #4]	@ D.4651, args.__ap
 594 00c6 03F10402 		add	r2, r3, #4	@ D.4652, D.4651,
 595 00ca 7A60     		str	r2, [r7, #4]	@ D.4652, args.__ap
 596 00cc 1D68     		ldr	r5, [r3, #0]	@ width, MEM[(int *)D.4651_45]
 597              	.L42:
 598              	.LBB12:
 150:Src/printf-stdarg.cpp **** 			}
 151:Src/printf-stdarg.cpp **** 			if( *format == 's' ) {
 599              		.loc 1 151 0
 600 00ce BB68     		ldr	r3, [r7, #8]	@ tmp215, format
 601 00d0 1B78     		ldrb	r3, [r3, #0]	@ zero_extendqisi2	@ D.4654, *format_4
 602 00d2 732B     		cmp	r3, #115	@ D.4654,
 603 00d4 17D1     		bne	.L43	@,
 604              	.LBB13:
 152:Src/printf-stdarg.cpp **** 				register char *s = (char *)va_arg( args, int );
 605              		.loc 1 152 0
 606 00d6 7B68     		ldr	r3, [r7, #4]	@ D.4657, args.__ap
 607 00d8 03F10402 		add	r2, r3, #4	@ D.4658, D.4657,
 608 00dc 7A60     		str	r2, [r7, #4]	@ D.4658, args.__ap
 609 00de 1B68     		ldr	r3, [r3, #0]	@ D.4659, MEM[(int *)D.4657_49]
 610 00e0 9846     		mov	r8, r3	@ s, D.4659
 153:Src/printf-stdarg.cpp **** 				pc += prints (out, s?s:"(null)", width, pad);
 611              		.loc 1 153 0
 612 00e2 B8F1000F 		cmp	r8, #0	@ s,
 613 00e6 01D0     		beq	.L44	@,
 614              		.loc 1 153 0 is_stmt 0 discriminator 1
 615 00e8 4346     		mov	r3, r8	@ iftmp.1, s
 616 00ea 03E0     		b	.L45	@
 617              	.L44:
 618              		.loc 1 153 0 discriminator 2
 619 00ec 40F20003 		movw	r3, #:lower16:.LC0	@ iftmp.1,
 620 00f0 C0F20003 		movt	r3, #:upper16:.LC0	@ iftmp.1,
 621              	.L45:
 622              		.loc 1 153 0 discriminator 3
 623 00f4 F868     		ldr	r0, [r7, #12]	@, out
 624 00f6 1946     		mov	r1, r3	@, iftmp.1
 625 00f8 2A46     		mov	r2, r5	@, width
 626 00fa 3346     		mov	r3, r6	@, pad
 627 00fc FFF7FEFF 		bl	_ZL6printsPPcPKcii	@
 628 0100 0346     		mov	r3, r0	@ D.4579,
 629 0102 E418     		adds	r4, r4, r3	@ pc, pc, D.4579
 154:Src/printf-stdarg.cpp **** 				continue;
ARM GAS  /tmp/cc2xjAK0.s 			page 15


 630              		.loc 1 154 0 is_stmt 1 discriminator 3
 631 0104 85E0     		b	.L46	@
 632              	.L43:
 633              	.LBE13:
 634              	.LBE12:
 155:Src/printf-stdarg.cpp **** 			}
 156:Src/printf-stdarg.cpp **** 			if( *format == 'd' ) {
 635              		.loc 1 156 0
 636 0106 BB68     		ldr	r3, [r7, #8]	@ tmp216, format
 637 0108 1B78     		ldrb	r3, [r3, #0]	@ zero_extendqisi2	@ D.4664, *format_4
 638 010a 642B     		cmp	r3, #100	@ D.4664,
 639 010c 14D1     		bne	.L47	@,
 157:Src/printf-stdarg.cpp **** 				pc += printi (out, va_arg( args, int ), 10, 1, width, pad, 'a');
 640              		.loc 1 157 0
 641 010e 7B68     		ldr	r3, [r7, #4]	@ D.4667, args.__ap
 642 0110 03F10402 		add	r2, r3, #4	@ D.4668, D.4667,
 643 0114 7A60     		str	r2, [r7, #4]	@ D.4668, args.__ap
 644 0116 1B68     		ldr	r3, [r3, #0]	@ D.4669, MEM[(int *)D.4667_59]
 645 0118 0095     		str	r5, [sp, #0]	@ width,
 646 011a 0196     		str	r6, [sp, #4]	@ pad,
 647 011c 4FF06102 		mov	r2, #97	@ tmp217,
 648 0120 0292     		str	r2, [sp, #8]	@ tmp217,
 649 0122 F868     		ldr	r0, [r7, #12]	@, out
 650 0124 1946     		mov	r1, r3	@, D.4669
 651 0126 4FF00A02 		mov	r2, #10	@,
 652 012a 4FF00103 		mov	r3, #1	@,
 653 012e FFF7FEFF 		bl	_ZL6printiPPciiiiii	@
 654 0132 0346     		mov	r3, r0	@ D.4580,
 655 0134 E418     		adds	r4, r4, r3	@ pc, pc, D.4580
 158:Src/printf-stdarg.cpp **** 				continue;
 656              		.loc 1 158 0
 657 0136 6CE0     		b	.L46	@
 658              	.L47:
 159:Src/printf-stdarg.cpp **** 			}
 160:Src/printf-stdarg.cpp **** 			if( *format == 'x' ) {
 659              		.loc 1 160 0
 660 0138 BB68     		ldr	r3, [r7, #8]	@ tmp218, format
 661 013a 1B78     		ldrb	r3, [r3, #0]	@ zero_extendqisi2	@ D.4670, *format_4
 662 013c 782B     		cmp	r3, #120	@ D.4670,
 663 013e 14D1     		bne	.L48	@,
 161:Src/printf-stdarg.cpp **** 				pc += printi (out, va_arg( args, int ), 16, 0, width, pad, 'a');
 664              		.loc 1 161 0
 665 0140 7B68     		ldr	r3, [r7, #4]	@ D.4673, args.__ap
 666 0142 03F10402 		add	r2, r3, #4	@ D.4674, D.4673,
 667 0146 7A60     		str	r2, [r7, #4]	@ D.4674, args.__ap
 668 0148 1B68     		ldr	r3, [r3, #0]	@ D.4675, MEM[(int *)D.4673_65]
 669 014a 0095     		str	r5, [sp, #0]	@ width,
 670 014c 0196     		str	r6, [sp, #4]	@ pad,
 671 014e 4FF06102 		mov	r2, #97	@ tmp219,
 672 0152 0292     		str	r2, [sp, #8]	@ tmp219,
 673 0154 F868     		ldr	r0, [r7, #12]	@, out
 674 0156 1946     		mov	r1, r3	@, D.4675
 675 0158 4FF01002 		mov	r2, #16	@,
 676 015c 4FF00003 		mov	r3, #0	@,
 677 0160 FFF7FEFF 		bl	_ZL6printiPPciiiiii	@
 678 0164 0346     		mov	r3, r0	@ D.4581,
 679 0166 E418     		adds	r4, r4, r3	@ pc, pc, D.4581
ARM GAS  /tmp/cc2xjAK0.s 			page 16


 162:Src/printf-stdarg.cpp **** 				continue;
 680              		.loc 1 162 0
 681 0168 53E0     		b	.L46	@
 682              	.L48:
 163:Src/printf-stdarg.cpp **** 			}
 164:Src/printf-stdarg.cpp **** 			if( *format == 'X' ) {
 683              		.loc 1 164 0
 684 016a BB68     		ldr	r3, [r7, #8]	@ tmp220, format
 685 016c 1B78     		ldrb	r3, [r3, #0]	@ zero_extendqisi2	@ D.4676, *format_4
 686 016e 582B     		cmp	r3, #88	@ D.4676,
 687 0170 14D1     		bne	.L49	@,
 165:Src/printf-stdarg.cpp **** 				pc += printi (out, va_arg( args, int ), 16, 0, width, pad, 'A');
 688              		.loc 1 165 0
 689 0172 7B68     		ldr	r3, [r7, #4]	@ D.4679, args.__ap
 690 0174 03F10402 		add	r2, r3, #4	@ D.4680, D.4679,
 691 0178 7A60     		str	r2, [r7, #4]	@ D.4680, args.__ap
 692 017a 1B68     		ldr	r3, [r3, #0]	@ D.4681, MEM[(int *)D.4679_71]
 693 017c 0095     		str	r5, [sp, #0]	@ width,
 694 017e 0196     		str	r6, [sp, #4]	@ pad,
 695 0180 4FF04102 		mov	r2, #65	@ tmp221,
 696 0184 0292     		str	r2, [sp, #8]	@ tmp221,
 697 0186 F868     		ldr	r0, [r7, #12]	@, out
 698 0188 1946     		mov	r1, r3	@, D.4681
 699 018a 4FF01002 		mov	r2, #16	@,
 700 018e 4FF00003 		mov	r3, #0	@,
 701 0192 FFF7FEFF 		bl	_ZL6printiPPciiiiii	@
 702 0196 0346     		mov	r3, r0	@ D.4582,
 703 0198 E418     		adds	r4, r4, r3	@ pc, pc, D.4582
 166:Src/printf-stdarg.cpp **** 				continue;
 704              		.loc 1 166 0
 705 019a 3AE0     		b	.L46	@
 706              	.L49:
 167:Src/printf-stdarg.cpp **** 			}
 168:Src/printf-stdarg.cpp **** 			if( *format == 'u' ) {
 707              		.loc 1 168 0
 708 019c BB68     		ldr	r3, [r7, #8]	@ tmp222, format
 709 019e 1B78     		ldrb	r3, [r3, #0]	@ zero_extendqisi2	@ D.4682, *format_4
 710 01a0 752B     		cmp	r3, #117	@ D.4682,
 711 01a2 14D1     		bne	.L50	@,
 169:Src/printf-stdarg.cpp **** 				pc += printi (out, va_arg( args, int ), 10, 0, width, pad, 'a');
 712              		.loc 1 169 0
 713 01a4 7B68     		ldr	r3, [r7, #4]	@ D.4685, args.__ap
 714 01a6 03F10402 		add	r2, r3, #4	@ D.4686, D.4685,
 715 01aa 7A60     		str	r2, [r7, #4]	@ D.4686, args.__ap
 716 01ac 1B68     		ldr	r3, [r3, #0]	@ D.4687, MEM[(int *)D.4685_77]
 717 01ae 0095     		str	r5, [sp, #0]	@ width,
 718 01b0 0196     		str	r6, [sp, #4]	@ pad,
 719 01b2 4FF06102 		mov	r2, #97	@ tmp223,
 720 01b6 0292     		str	r2, [sp, #8]	@ tmp223,
 721 01b8 F868     		ldr	r0, [r7, #12]	@, out
 722 01ba 1946     		mov	r1, r3	@, D.4687
 723 01bc 4FF00A02 		mov	r2, #10	@,
 724 01c0 4FF00003 		mov	r3, #0	@,
 725 01c4 FFF7FEFF 		bl	_ZL6printiPPciiiiii	@
 726 01c8 0346     		mov	r3, r0	@ D.4583,
 727 01ca E418     		adds	r4, r4, r3	@ pc, pc, D.4583
 170:Src/printf-stdarg.cpp **** 				continue;
ARM GAS  /tmp/cc2xjAK0.s 			page 17


 728              		.loc 1 170 0
 729 01cc 21E0     		b	.L46	@
 730              	.L50:
 171:Src/printf-stdarg.cpp **** 			}
 172:Src/printf-stdarg.cpp **** 			if( *format == 'c' ) {
 731              		.loc 1 172 0
 732 01ce BB68     		ldr	r3, [r7, #8]	@ tmp224, format
 733 01d0 1B78     		ldrb	r3, [r3, #0]	@ zero_extendqisi2	@ D.4688, *format_4
 734 01d2 632B     		cmp	r3, #99	@ D.4688,
 735 01d4 1DD1     		bne	.L46	@,
 173:Src/printf-stdarg.cpp **** 				/* char are converted to int then pushed on the stack */
 174:Src/printf-stdarg.cpp **** 				scr[0] = (char)va_arg( args, int );
 736              		.loc 1 174 0
 737 01d6 7B68     		ldr	r3, [r7, #4]	@ D.4691, args.__ap
 738 01d8 03F10402 		add	r2, r3, #4	@ D.4692, D.4691,
 739 01dc 7A60     		str	r2, [r7, #4]	@ D.4692, args.__ap
 740 01de 1B68     		ldr	r3, [r3, #0]	@ D.4693, MEM[(int *)D.4691_83]
 741 01e0 DBB2     		uxtb	r3, r3	@ D.4694, D.4693
 742 01e2 3B75     		strb	r3, [r7, #20]	@ tmp225, scr
 175:Src/printf-stdarg.cpp **** 				scr[1] = '\0';
 743              		.loc 1 175 0
 744 01e4 4FF00003 		mov	r3, #0	@ tmp226,
 745 01e8 7B75     		strb	r3, [r7, #21]	@ tmp227, scr
 176:Src/printf-stdarg.cpp **** 				pc += prints (out, scr, width, pad);
 746              		.loc 1 176 0
 747 01ea 07F11403 		add	r3, r7, #20	@ tmp228,,
 748 01ee F868     		ldr	r0, [r7, #12]	@, out
 749 01f0 1946     		mov	r1, r3	@, tmp228
 750 01f2 2A46     		mov	r2, r5	@, width
 751 01f4 3346     		mov	r3, r6	@, pad
 752 01f6 FFF7FEFF 		bl	_ZL6printsPPcPKcii	@
 753 01fa 0346     		mov	r3, r0	@ D.4584,
 754 01fc E418     		adds	r4, r4, r3	@ pc, pc, D.4584
 177:Src/printf-stdarg.cpp **** 				continue;
 755              		.loc 1 177 0
 756 01fe 08E0     		b	.L46	@
 757              	.L55:
 134:Src/printf-stdarg.cpp **** 			if (*format == '%') goto out;
 758              		.loc 1 134 0
 759 0200 00BF     		nop
 760              	.L31:
 761              	.LBE11:
 178:Src/printf-stdarg.cpp **** 			}
 179:Src/printf-stdarg.cpp **** 		}
 180:Src/printf-stdarg.cpp **** 		else {
 181:Src/printf-stdarg.cpp **** 		out:
 182:Src/printf-stdarg.cpp **** 			printchar (out, *format);
 762              		.loc 1 182 0
 763 0202 BB68     		ldr	r3, [r7, #8]	@ tmp229, format
 764 0204 1B78     		ldrb	r3, [r3, #0]	@ zero_extendqisi2	@ D.4696, *format_5
 765 0206 F868     		ldr	r0, [r7, #12]	@, out
 766 0208 1946     		mov	r1, r3	@, D.4697
 767 020a FFF7FEFF 		bl	_ZL9printcharPPci	@
 183:Src/printf-stdarg.cpp **** 			++pc;
 768              		.loc 1 183 0
 769 020e 04F10104 		add	r4, r4, #1	@ pc, pc,
 770              	.L46:
ARM GAS  /tmp/cc2xjAK0.s 			page 18


 771              	.LBE10:
 772              	.LBE9:
 129:Src/printf-stdarg.cpp **** 	for (; *format != 0; ++format) {
 773              		.loc 1 129 0
 774 0212 BB68     		ldr	r3, [r7, #8]	@ tmp231, format
 775 0214 03F10103 		add	r3, r3, #1	@ tmp230, tmp231,
 776 0218 BB60     		str	r3, [r7, #8]	@ tmp230, format
 777              	.L30:
 129:Src/printf-stdarg.cpp **** 	for (; *format != 0; ++format) {
 778              		.loc 1 129 0 is_stmt 0 discriminator 1
 779 021a BB68     		ldr	r3, [r7, #8]	@ tmp232, format
 780 021c 1B78     		ldrb	r3, [r3, #0]	@ zero_extendqisi2	@ D.4613, *format_7
 781 021e 002B     		cmp	r3, #0	@ D.4613,
 782 0220 0CBF     		ite	eq	@
 783 0222 0023     		moveq	r3, #0	@, tmp234
 784 0224 0123     		movne	r3, #1	@, tmp234
 785 0226 DBB2     		uxtb	r3, r3	@ D.4614, tmp233
 786 0228 002B     		cmp	r3, #0	@ D.4614,
 787 022a 7FF4F3AE 		bne	.L51	@,
 788 022e 00E0     		b	.L33	@
 789              	.L54:
 790              	.LBB16:
 791              	.LBB15:
 792              	.LBB14:
 133:Src/printf-stdarg.cpp **** 			if (*format == '\0') break;
 793              		.loc 1 133 0 is_stmt 1
 794 0230 00BF     		nop
 795              	.L33:
 796              	.LBE14:
 797              	.LBE15:
 798              	.LBE16:
 799              	.LBE8:
 184:Src/printf-stdarg.cpp **** 		}
 185:Src/printf-stdarg.cpp **** 	}
 186:Src/printf-stdarg.cpp **** 	if (out) **out = '\0';
 800              		.loc 1 186 0
 801 0232 FB68     		ldr	r3, [r7, #12]	@ tmp235, out
 802 0234 002B     		cmp	r3, #0	@ tmp235,
 803 0236 04D0     		beq	.L52	@,
 804              		.loc 1 186 0 is_stmt 0 discriminator 1
 805 0238 FB68     		ldr	r3, [r7, #12]	@ tmp236, out
 806 023a 1B68     		ldr	r3, [r3, #0]	@ D.4700, *out_55(D)
 807 023c 4FF00002 		mov	r2, #0	@ tmp237,
 808 0240 1A70     		strb	r2, [r3, #0]	@ tmp238, *D.4700_93
 809              	.L52:
 187:Src/printf-stdarg.cpp **** 	va_end( args );
 188:Src/printf-stdarg.cpp **** 	return pc;
 810              		.loc 1 188 0 is_stmt 1
 811 0242 2346     		mov	r3, r4	@ D.4702, pc
 812              	.LBE7:
 189:Src/printf-stdarg.cpp **** }
 813              		.loc 1 189 0
 814 0244 1846     		mov	r0, r3	@, <retval>
 815 0246 07F11807 		add	r7, r7, #24	@,,
 816 024a BD46     		mov	sp, r7
 817 024c BDE8F081 		pop	{r4, r5, r6, r7, r8, pc}
 818              		.cfi_endproc
ARM GAS  /tmp/cc2xjAK0.s 			page 19


 819              	.LFE3:
 820              		.size	_ZL5printPPcPKcSt9__va_list, .-_ZL5printPPcPKcSt9__va_list
 821              		.section	.text.printf,"ax",%progbits
 822              		.align	2
 823              		.global	printf
 824              		.thumb
 825              		.thumb_func
 826              		.type	printf, %function
 827              	printf:
 828              	.LFB4:
 190:Src/printf-stdarg.cpp **** 
 191:Src/printf-stdarg.cpp **** int printf(const char *format, ...)
 192:Src/printf-stdarg.cpp **** {
 829              		.loc 1 192 0
 830              		.cfi_startproc
 831              		@ args = 4, pretend = 16, frame = 8
 832              		@ frame_needed = 1, uses_anonymous_args = 1
 833 0000 0FB4     		push	{r0, r1, r2, r3}	@
 834              	.LCFI12:
 835              		.cfi_def_cfa_offset 16
 836              		.cfi_offset 0, -16
 837              		.cfi_offset 1, -12
 838              		.cfi_offset 2, -8
 839              		.cfi_offset 3, -4
 840 0002 80B5     		push	{r7, lr}	@
 841              	.LCFI13:
 842              		.cfi_def_cfa_offset 24
 843              		.cfi_offset 7, -24
 844              		.cfi_offset 14, -20
 845 0004 82B0     		sub	sp, sp, #8	@,,
 846              	.LCFI14:
 847              		.cfi_def_cfa_offset 32
 848 0006 00AF     		add	r7, sp, #0	@,,
 849              	.LCFI15:
 850              		.cfi_def_cfa_register 7
 851              	.LBB17:
 193:Src/printf-stdarg.cpp ****         va_list args;
 194:Src/printf-stdarg.cpp ****         
 195:Src/printf-stdarg.cpp ****         va_start( args, format );
 852              		.loc 1 195 0
 853 0008 07F11403 		add	r3, r7, #20	@ tmp136,,
 854 000c 7B60     		str	r3, [r7, #4]	@ tmp136, MEM[(struct  *)&args].__ap
 196:Src/printf-stdarg.cpp ****         return print( 0, format, args );
 855              		.loc 1 196 0
 856 000e 4FF00000 		mov	r0, #0	@,
 857 0012 3969     		ldr	r1, [r7, #16]	@, format
 858 0014 7A68     		ldr	r2, [r7, #4]	@, args
 859 0016 FFF7FEFF 		bl	_ZL5printPPcPKcSt9__va_list	@
 860 001a 0346     		mov	r3, r0	@ D.4607,
 861              	.LBE17:
 197:Src/printf-stdarg.cpp **** }
 862              		.loc 1 197 0
 863 001c 1846     		mov	r0, r3	@, <retval>
 864 001e 07F10807 		add	r7, r7, #8	@,,
 865 0022 BD46     		mov	sp, r7
 866 0024 BDE88040 		pop	{r7, lr}
 867 0028 04B0     		add	sp, sp, #16	@,,
ARM GAS  /tmp/cc2xjAK0.s 			page 20


 868 002a 7047     		bx	lr
 869              		.cfi_endproc
 870              	.LFE4:
 871              		.size	printf, .-printf
 872              		.section	.text.sprintf,"ax",%progbits
 873              		.align	2
 874              		.global	sprintf
 875              		.thumb
 876              		.thumb_func
 877              		.type	sprintf, %function
 878              	sprintf:
 879              	.LFB5:
 198:Src/printf-stdarg.cpp **** 
 199:Src/printf-stdarg.cpp **** int sprintf(char *out, const char *format, ...)
 200:Src/printf-stdarg.cpp **** {
 880              		.loc 1 200 0
 881              		.cfi_startproc
 882              		@ args = 4, pretend = 12, frame = 16
 883              		@ frame_needed = 1, uses_anonymous_args = 1
 884 0000 0EB4     		push	{r1, r2, r3}	@
 885              	.LCFI16:
 886              		.cfi_def_cfa_offset 12
 887              		.cfi_offset 1, -12
 888              		.cfi_offset 2, -8
 889              		.cfi_offset 3, -4
 890 0002 80B5     		push	{r7, lr}	@
 891              	.LCFI17:
 892              		.cfi_def_cfa_offset 20
 893              		.cfi_offset 7, -20
 894              		.cfi_offset 14, -16
 895 0004 85B0     		sub	sp, sp, #20	@,,
 896              	.LCFI18:
 897              		.cfi_def_cfa_offset 40
 898 0006 00AF     		add	r7, sp, #0	@,,
 899              	.LCFI19:
 900              		.cfi_def_cfa_register 7
 901 0008 7860     		str	r0, [r7, #4]	@ out, out
 902              	.LBB18:
 201:Src/printf-stdarg.cpp ****         va_list args;
 202:Src/printf-stdarg.cpp ****         
 203:Src/printf-stdarg.cpp ****         va_start( args, format );
 903              		.loc 1 203 0
 904 000a 07F12003 		add	r3, r7, #32	@ tmp136,,
 905 000e FB60     		str	r3, [r7, #12]	@ tmp136, MEM[(struct  *)&args].__ap
 204:Src/printf-stdarg.cpp ****         return print( &out, format, args );
 906              		.loc 1 204 0
 907 0010 07F10403 		add	r3, r7, #4	@ tmp137,,
 908 0014 1846     		mov	r0, r3	@, tmp137
 909 0016 F969     		ldr	r1, [r7, #28]	@, format
 910 0018 FA68     		ldr	r2, [r7, #12]	@, args
 911 001a FFF7FEFF 		bl	_ZL5printPPcPKcSt9__va_list	@
 912 001e 0346     		mov	r3, r0	@ D.4604,
 913              	.LBE18:
 205:Src/printf-stdarg.cpp **** }
 914              		.loc 1 205 0
 915 0020 1846     		mov	r0, r3	@, <retval>
 916 0022 07F11407 		add	r7, r7, #20	@,,
ARM GAS  /tmp/cc2xjAK0.s 			page 21


 917 0026 BD46     		mov	sp, r7
 918 0028 BDE88040 		pop	{r7, lr}
 919 002c 03B0     		add	sp, sp, #12	@,,
 920 002e 7047     		bx	lr
 921              		.cfi_endproc
 922              	.LFE5:
 923              		.size	sprintf, .-sprintf
 924              		.section	.text.vsprintf,"ax",%progbits
 925              		.align	2
 926              		.global	vsprintf
 927              		.thumb
 928              		.thumb_func
 929              		.type	vsprintf, %function
 930              	vsprintf:
 931              	.LFB6:
 206:Src/printf-stdarg.cpp **** 
 207:Src/printf-stdarg.cpp **** int vsprintf(char *out, const char *format, va_list args)
 208:Src/printf-stdarg.cpp **** {
 932              		.loc 1 208 0
 933              		.cfi_startproc
 934              		@ args = 0, pretend = 0, frame = 16
 935              		@ frame_needed = 1, uses_anonymous_args = 0
 936 0000 80B5     		push	{r7, lr}	@
 937              	.LCFI20:
 938              		.cfi_def_cfa_offset 8
 939              		.cfi_offset 7, -8
 940              		.cfi_offset 14, -4
 941 0002 84B0     		sub	sp, sp, #16	@,,
 942              	.LCFI21:
 943              		.cfi_def_cfa_offset 24
 944 0004 00AF     		add	r7, sp, #0	@,,
 945              	.LCFI22:
 946              		.cfi_def_cfa_register 7
 947 0006 F860     		str	r0, [r7, #12]	@ out, out
 948 0008 B960     		str	r1, [r7, #8]	@ format, format
 949 000a 7A60     		str	r2, [r7, #4]	@ args, args
 209:Src/printf-stdarg.cpp **** 		return print(&out, format, args);
 950              		.loc 1 209 0
 951 000c 07F10C03 		add	r3, r7, #12	@ tmp136,,
 952 0010 1846     		mov	r0, r3	@, tmp136
 953 0012 B968     		ldr	r1, [r7, #8]	@, format
 954 0014 7A68     		ldr	r2, [r7, #4]	@, args
 955 0016 FFF7FEFF 		bl	_ZL5printPPcPKcSt9__va_list	@
 956 001a 0346     		mov	r3, r0	@ D.4602,
 210:Src/printf-stdarg.cpp **** }
 957              		.loc 1 210 0
 958 001c 1846     		mov	r0, r3	@, <retval>
 959 001e 07F11007 		add	r7, r7, #16	@,,
 960 0022 BD46     		mov	sp, r7
 961 0024 80BD     		pop	{r7, pc}
 962              		.cfi_endproc
 963              	.LFE6:
 964              		.size	vsprintf, .-vsprintf
 965 0026 00BF     		.text
 966              	.Letext0:
 967              		.file 2 "/home/maciek/gcc-arm-none-eabi/gcc-arm-none-eabi-4_7-2013q1/bin/../lib/gcc/arm-none-eabi/
 968              		.file 3 "<built-in>"
ARM GAS  /tmp/cc2xjAK0.s 			page 22


 969              		.section	.debug_info,"",%progbits
 970              	.Ldebug_info0:
 971 0000 EC030000 		.4byte	0x3ec
 972 0004 0200     		.2byte	0x2
 973 0006 00000000 		.4byte	.Ldebug_abbrev0
 974 000a 04       		.byte	0x4
 975 000b 01       		.uleb128 0x1
 976 000c FB1B0000 		.4byte	.LASF17
 977 0010 04       		.byte	0x4
 978 0011 DE0C0000 		.4byte	.LASF18
 979 0015 BE140000 		.4byte	.LASF19
 980 0019 00000000 		.4byte	.Ldebug_ranges0+0
 981 001d 00000000 		.4byte	0
 982 0021 00000000 		.4byte	0
 983 0025 00000000 		.4byte	.Ldebug_line0
 984 0029 00000000 		.4byte	.Ldebug_macro0
 985 002d 02       		.uleb128 0x2
 986 002e AB0A0000 		.4byte	.LASF0
 987 0032 02       		.byte	0x2
 988 0033 28       		.byte	0x28
 989 0034 38000000 		.4byte	0x38
 990 0038 03       		.uleb128 0x3
 991 0039 311E0000 		.4byte	.LASF20
 992 003d 04       		.byte	0x4
 993 003e 03       		.byte	0x3
 994 003f 00       		.byte	0
 995 0040 52000000 		.4byte	0x52
 996 0044 04       		.uleb128 0x4
 997 0045 66210000 		.4byte	.LASF21
 998 0049 52000000 		.4byte	0x52
 999 004d 02       		.byte	0x2
 1000 004e 23       		.byte	0x23
 1001 004f 00       		.uleb128 0
 1002 0050 01       		.byte	0x1
 1003 0051 00       		.byte	0
 1004 0052 05       		.uleb128 0x5
 1005 0053 04       		.byte	0x4
 1006 0054 02       		.uleb128 0x2
 1007 0055 59110000 		.4byte	.LASF1
 1008 0059 02       		.byte	0x2
 1009 005a 66       		.byte	0x66
 1010 005b 2D000000 		.4byte	0x2d
 1011 005f 06       		.uleb128 0x6
 1012 0060 27040000 		.4byte	.LASF22
 1013 0064 01       		.byte	0x1
 1014 0065 21       		.byte	0x21
 1015 0066 00000000 		.4byte	.LFB0
 1016 006a 36000000 		.4byte	.LFE0
 1017 006e 00000000 		.4byte	.LLST0
 1018 0072 01       		.byte	0x1
 1019 0073 B3000000 		.4byte	0xb3
 1020 0077 07       		.uleb128 0x7
 1021 0078 73747200 		.ascii	"str\000"
 1022 007c 01       		.byte	0x1
 1023 007d 21       		.byte	0x21
 1024 007e B3000000 		.4byte	0xb3
 1025 0082 02       		.byte	0x2
ARM GAS  /tmp/cc2xjAK0.s 			page 23


 1026 0083 91       		.byte	0x91
 1027 0084 74       		.sleb128 -12
 1028 0085 07       		.uleb128 0x7
 1029 0086 6300     		.ascii	"c\000"
 1030 0088 01       		.byte	0x1
 1031 0089 21       		.byte	0x21
 1032 008a C6000000 		.4byte	0xc6
 1033 008e 02       		.byte	0x2
 1034 008f 91       		.byte	0x91
 1035 0090 70       		.sleb128 -16
 1036 0091 08       		.uleb128 0x8
 1037 0092 0A000000 		.4byte	.LBB2
 1038 0096 2E000000 		.4byte	.LBE2
 1039 009a 09       		.uleb128 0x9
 1040 009b 01       		.byte	0x1
 1041 009c 7A0B0000 		.4byte	.LASF23
 1042 00a0 01       		.byte	0x1
 1043 00a1 23       		.byte	0x23
 1044 00a2 A4110000 		.4byte	.LASF24
 1045 00a6 C6000000 		.4byte	0xc6
 1046 00aa 01       		.byte	0x1
 1047 00ab 0A       		.uleb128 0xa
 1048 00ac C6000000 		.4byte	0xc6
 1049 00b0 00       		.byte	0
 1050 00b1 00       		.byte	0
 1051 00b2 00       		.byte	0
 1052 00b3 0B       		.uleb128 0xb
 1053 00b4 04       		.byte	0x4
 1054 00b5 B9000000 		.4byte	0xb9
 1055 00b9 0B       		.uleb128 0xb
 1056 00ba 04       		.byte	0x4
 1057 00bb BF000000 		.4byte	0xbf
 1058 00bf 0C       		.uleb128 0xc
 1059 00c0 01       		.byte	0x1
 1060 00c1 08       		.byte	0x8
 1061 00c2 8B180000 		.4byte	.LASF2
 1062 00c6 0D       		.uleb128 0xd
 1063 00c7 04       		.byte	0x4
 1064 00c8 05       		.byte	0x5
 1065 00c9 696E7400 		.ascii	"int\000"
 1066 00cd 0E       		.uleb128 0xe
 1067 00ce 65120000 		.4byte	.LASF6
 1068 00d2 01       		.byte	0x1
 1069 00d3 2F       		.byte	0x2f
 1070 00d4 C6000000 		.4byte	0xc6
 1071 00d8 00000000 		.4byte	.LFB1
 1072 00dc F4000000 		.4byte	.LFE1
 1073 00e0 38000000 		.4byte	.LLST1
 1074 00e4 01       		.byte	0x1
 1075 00e5 69010000 		.4byte	0x169
 1076 00e9 07       		.uleb128 0x7
 1077 00ea 6F757400 		.ascii	"out\000"
 1078 00ee 01       		.byte	0x1
 1079 00ef 2F       		.byte	0x2f
 1080 00f0 B3000000 		.4byte	0xb3
 1081 00f4 02       		.byte	0x2
 1082 00f5 91       		.byte	0x91
ARM GAS  /tmp/cc2xjAK0.s 			page 24


 1083 00f6 64       		.sleb128 -28
 1084 00f7 0F       		.uleb128 0xf
 1085 00f8 D50E0000 		.4byte	.LASF3
 1086 00fc 01       		.byte	0x1
 1087 00fd 2F       		.byte	0x2f
 1088 00fe 69010000 		.4byte	0x169
 1089 0102 02       		.byte	0x2
 1090 0103 91       		.byte	0x91
 1091 0104 60       		.sleb128 -32
 1092 0105 0F       		.uleb128 0xf
 1093 0106 410B0000 		.4byte	.LASF4
 1094 010a 01       		.byte	0x1
 1095 010b 2F       		.byte	0x2f
 1096 010c C6000000 		.4byte	0xc6
 1097 0110 02       		.byte	0x2
 1098 0111 91       		.byte	0x91
 1099 0112 5C       		.sleb128 -36
 1100 0113 07       		.uleb128 0x7
 1101 0114 70616400 		.ascii	"pad\000"
 1102 0118 01       		.byte	0x1
 1103 0119 2F       		.byte	0x2f
 1104 011a C6000000 		.4byte	0xc6
 1105 011e 02       		.byte	0x2
 1106 011f 91       		.byte	0x91
 1107 0120 58       		.sleb128 -40
 1108 0121 08       		.uleb128 0x8
 1109 0122 10000000 		.4byte	.LBB3
 1110 0126 E8000000 		.4byte	.LBE3
 1111 012a 10       		.uleb128 0x10
 1112 012b 706300   		.ascii	"pc\000"
 1113 012e 01       		.byte	0x1
 1114 012f 31       		.byte	0x31
 1115 0130 C6000000 		.4byte	0xc6
 1116 0134 01       		.byte	0x1
 1117 0135 54       		.byte	0x54
 1118 0136 11       		.uleb128 0x11
 1119 0137 C8220000 		.4byte	.LASF5
 1120 013b 01       		.byte	0x1
 1121 013c 31       		.byte	0x31
 1122 013d C6000000 		.4byte	0xc6
 1123 0141 01       		.byte	0x1
 1124 0142 56       		.byte	0x56
 1125 0143 08       		.uleb128 0x8
 1126 0144 1E000000 		.4byte	.LBB5
 1127 0148 64000000 		.4byte	.LBE5
 1128 014c 10       		.uleb128 0x10
 1129 014d 6C656E00 		.ascii	"len\000"
 1130 0151 01       		.byte	0x1
 1131 0152 34       		.byte	0x34
 1132 0153 C6000000 		.4byte	0xc6
 1133 0157 01       		.byte	0x1
 1134 0158 55       		.byte	0x55
 1135 0159 10       		.uleb128 0x10
 1136 015a 70747200 		.ascii	"ptr\000"
 1137 015e 01       		.byte	0x1
 1138 015f 35       		.byte	0x35
 1139 0160 69010000 		.4byte	0x169
ARM GAS  /tmp/cc2xjAK0.s 			page 25


 1140 0164 01       		.byte	0x1
 1141 0165 58       		.byte	0x58
 1142 0166 00       		.byte	0
 1143 0167 00       		.byte	0
 1144 0168 00       		.byte	0
 1145 0169 0B       		.uleb128 0xb
 1146 016a 04       		.byte	0x4
 1147 016b 6F010000 		.4byte	0x16f
 1148 016f 12       		.uleb128 0x12
 1149 0170 BF000000 		.4byte	0xbf
 1150 0174 0E       		.uleb128 0xe
 1151 0175 07120000 		.4byte	.LASF7
 1152 0179 01       		.byte	0x1
 1153 017a 50       		.byte	0x50
 1154 017b C6000000 		.4byte	0xc6
 1155 017f 00000000 		.4byte	.LFB2
 1156 0183 FE000000 		.4byte	.LFE2
 1157 0187 70000000 		.4byte	.LLST2
 1158 018b 01       		.byte	0x1
 1159 018c 40020000 		.4byte	0x240
 1160 0190 07       		.uleb128 0x7
 1161 0191 6F757400 		.ascii	"out\000"
 1162 0195 01       		.byte	0x1
 1163 0196 50       		.byte	0x50
 1164 0197 B3000000 		.4byte	0xb3
 1165 019b 02       		.byte	0x2
 1166 019c 91       		.byte	0x91
 1167 019d 4C       		.sleb128 -52
 1168 019e 07       		.uleb128 0x7
 1169 019f 6900     		.ascii	"i\000"
 1170 01a1 01       		.byte	0x1
 1171 01a2 50       		.byte	0x50
 1172 01a3 C6000000 		.4byte	0xc6
 1173 01a7 02       		.byte	0x2
 1174 01a8 91       		.byte	0x91
 1175 01a9 48       		.sleb128 -56
 1176 01aa 07       		.uleb128 0x7
 1177 01ab 6200     		.ascii	"b\000"
 1178 01ad 01       		.byte	0x1
 1179 01ae 50       		.byte	0x50
 1180 01af C6000000 		.4byte	0xc6
 1181 01b3 02       		.byte	0x2
 1182 01b4 91       		.byte	0x91
 1183 01b5 44       		.sleb128 -60
 1184 01b6 07       		.uleb128 0x7
 1185 01b7 736700   		.ascii	"sg\000"
 1186 01ba 01       		.byte	0x1
 1187 01bb 50       		.byte	0x50
 1188 01bc C6000000 		.4byte	0xc6
 1189 01c0 02       		.byte	0x2
 1190 01c1 91       		.byte	0x91
 1191 01c2 40       		.sleb128 -64
 1192 01c3 0F       		.uleb128 0xf
 1193 01c4 410B0000 		.4byte	.LASF4
 1194 01c8 01       		.byte	0x1
 1195 01c9 50       		.byte	0x50
 1196 01ca C6000000 		.4byte	0xc6
ARM GAS  /tmp/cc2xjAK0.s 			page 26


 1197 01ce 02       		.byte	0x2
 1198 01cf 91       		.byte	0x91
 1199 01d0 00       		.sleb128 0
 1200 01d1 07       		.uleb128 0x7
 1201 01d2 70616400 		.ascii	"pad\000"
 1202 01d6 01       		.byte	0x1
 1203 01d7 50       		.byte	0x50
 1204 01d8 C6000000 		.4byte	0xc6
 1205 01dc 02       		.byte	0x2
 1206 01dd 91       		.byte	0x91
 1207 01de 04       		.sleb128 4
 1208 01df 0F       		.uleb128 0xf
 1209 01e0 E8030000 		.4byte	.LASF8
 1210 01e4 01       		.byte	0x1
 1211 01e5 50       		.byte	0x50
 1212 01e6 C6000000 		.4byte	0xc6
 1213 01ea 02       		.byte	0x2
 1214 01eb 91       		.byte	0x91
 1215 01ec 08       		.sleb128 8
 1216 01ed 08       		.uleb128 0x8
 1217 01ee 10000000 		.4byte	.LBB6
 1218 01f2 F2000000 		.4byte	.LBE6
 1219 01f6 11       		.uleb128 0x11
 1220 01f7 F11B0000 		.4byte	.LASF9
 1221 01fb 01       		.byte	0x1
 1222 01fc 52       		.byte	0x52
 1223 01fd 40020000 		.4byte	0x240
 1224 0201 02       		.byte	0x2
 1225 0202 91       		.byte	0x91
 1226 0203 54       		.sleb128 -44
 1227 0204 10       		.uleb128 0x10
 1228 0205 7300     		.ascii	"s\000"
 1229 0207 01       		.byte	0x1
 1230 0208 53       		.byte	0x53
 1231 0209 B9000000 		.4byte	0xb9
 1232 020d 01       		.byte	0x1
 1233 020e 54       		.byte	0x54
 1234 020f 10       		.uleb128 0x10
 1235 0210 7400     		.ascii	"t\000"
 1236 0212 01       		.byte	0x1
 1237 0213 54       		.byte	0x54
 1238 0214 C6000000 		.4byte	0xc6
 1239 0218 01       		.byte	0x1
 1240 0219 56       		.byte	0x56
 1241 021a 10       		.uleb128 0x10
 1242 021b 6E656700 		.ascii	"neg\000"
 1243 021f 01       		.byte	0x1
 1244 0220 54       		.byte	0x54
 1245 0221 C6000000 		.4byte	0xc6
 1246 0225 01       		.byte	0x1
 1247 0226 59       		.byte	0x59
 1248 0227 10       		.uleb128 0x10
 1249 0228 706300   		.ascii	"pc\000"
 1250 022b 01       		.byte	0x1
 1251 022c 54       		.byte	0x54
 1252 022d C6000000 		.4byte	0xc6
 1253 0231 01       		.byte	0x1
ARM GAS  /tmp/cc2xjAK0.s 			page 27


 1254 0232 58       		.byte	0x58
 1255 0233 10       		.uleb128 0x10
 1256 0234 7500     		.ascii	"u\000"
 1257 0236 01       		.byte	0x1
 1258 0237 55       		.byte	0x55
 1259 0238 57020000 		.4byte	0x257
 1260 023c 01       		.byte	0x1
 1261 023d 55       		.byte	0x55
 1262 023e 00       		.byte	0
 1263 023f 00       		.byte	0
 1264 0240 13       		.uleb128 0x13
 1265 0241 BF000000 		.4byte	0xbf
 1266 0245 50020000 		.4byte	0x250
 1267 0249 14       		.uleb128 0x14
 1268 024a 50020000 		.4byte	0x250
 1269 024e 0B       		.byte	0xb
 1270 024f 00       		.byte	0
 1271 0250 0C       		.uleb128 0xc
 1272 0251 04       		.byte	0x4
 1273 0252 07       		.byte	0x7
 1274 0253 571E0000 		.4byte	.LASF10
 1275 0257 0C       		.uleb128 0xc
 1276 0258 04       		.byte	0x4
 1277 0259 07       		.byte	0x7
 1278 025a 20020000 		.4byte	.LASF11
 1279 025e 0E       		.uleb128 0xe
 1280 025f C1180000 		.4byte	.LASF12
 1281 0263 01       		.byte	0x1
 1282 0264 7B       		.byte	0x7b
 1283 0265 C6000000 		.4byte	0xc6
 1284 0269 00000000 		.4byte	.LFB3
 1285 026d 50020000 		.4byte	.LFE3
 1286 0271 AA000000 		.4byte	.LLST3
 1287 0275 01       		.byte	0x1
 1288 0276 03030000 		.4byte	0x303
 1289 027a 07       		.uleb128 0x7
 1290 027b 6F757400 		.ascii	"out\000"
 1291 027f 01       		.byte	0x1
 1292 0280 7B       		.byte	0x7b
 1293 0281 B3000000 		.4byte	0xb3
 1294 0285 02       		.byte	0x2
 1295 0286 91       		.byte	0x91
 1296 0287 5C       		.sleb128 -36
 1297 0288 0F       		.uleb128 0xf
 1298 0289 210A0000 		.4byte	.LASF13
 1299 028d 01       		.byte	0x1
 1300 028e 7B       		.byte	0x7b
 1301 028f 69010000 		.4byte	0x169
 1302 0293 02       		.byte	0x2
 1303 0294 91       		.byte	0x91
 1304 0295 58       		.sleb128 -40
 1305 0296 0F       		.uleb128 0xf
 1306 0297 67040000 		.4byte	.LASF14
 1307 029b 01       		.byte	0x1
 1308 029c 7B       		.byte	0x7b
 1309 029d 54000000 		.4byte	0x54
 1310 02a1 02       		.byte	0x2
ARM GAS  /tmp/cc2xjAK0.s 			page 28


 1311 02a2 91       		.byte	0x91
 1312 02a3 54       		.sleb128 -44
 1313 02a4 15       		.uleb128 0x15
 1314 02a5 6F757400 		.ascii	"out\000"
 1315 02a9 01       		.byte	0x1
 1316 02aa B5       		.byte	0xb5
 1317 02ab 02020000 		.4byte	.L31
 1318 02af 08       		.uleb128 0x8
 1319 02b0 0E000000 		.4byte	.LBB7
 1320 02b4 44020000 		.4byte	.LBE7
 1321 02b8 11       		.uleb128 0x11
 1322 02b9 410B0000 		.4byte	.LASF4
 1323 02bd 01       		.byte	0x1
 1324 02be 7D       		.byte	0x7d
 1325 02bf C6000000 		.4byte	0xc6
 1326 02c3 01       		.byte	0x1
 1327 02c4 55       		.byte	0x55
 1328 02c5 10       		.uleb128 0x10
 1329 02c6 70616400 		.ascii	"pad\000"
 1330 02ca 01       		.byte	0x1
 1331 02cb 7D       		.byte	0x7d
 1332 02cc C6000000 		.4byte	0xc6
 1333 02d0 01       		.byte	0x1
 1334 02d1 56       		.byte	0x56
 1335 02d2 10       		.uleb128 0x10
 1336 02d3 706300   		.ascii	"pc\000"
 1337 02d6 01       		.byte	0x1
 1338 02d7 7E       		.byte	0x7e
 1339 02d8 C6000000 		.4byte	0xc6
 1340 02dc 01       		.byte	0x1
 1341 02dd 54       		.byte	0x54
 1342 02de 10       		.uleb128 0x10
 1343 02df 73637200 		.ascii	"scr\000"
 1344 02e3 01       		.byte	0x1
 1345 02e4 7F       		.byte	0x7f
 1346 02e5 03030000 		.4byte	0x303
 1347 02e9 02       		.byte	0x2
 1348 02ea 91       		.byte	0x91
 1349 02eb 64       		.sleb128 -28
 1350 02ec 08       		.uleb128 0x8
 1351 02ed D6000000 		.4byte	.LBB13
 1352 02f1 06010000 		.4byte	.LBE13
 1353 02f5 10       		.uleb128 0x10
 1354 02f6 7300     		.ascii	"s\000"
 1355 02f8 01       		.byte	0x1
 1356 02f9 98       		.byte	0x98
 1357 02fa B9000000 		.4byte	0xb9
 1358 02fe 01       		.byte	0x1
 1359 02ff 58       		.byte	0x58
 1360 0300 00       		.byte	0
 1361 0301 00       		.byte	0
 1362 0302 00       		.byte	0
 1363 0303 13       		.uleb128 0x13
 1364 0304 BF000000 		.4byte	0xbf
 1365 0308 13030000 		.4byte	0x313
 1366 030c 14       		.uleb128 0x14
 1367 030d 50020000 		.4byte	0x250
ARM GAS  /tmp/cc2xjAK0.s 			page 29


 1368 0311 01       		.byte	0x1
 1369 0312 00       		.byte	0
 1370 0313 16       		.uleb128 0x16
 1371 0314 01       		.byte	0x1
 1372 0315 BC110000 		.4byte	.LASF15
 1373 0319 01       		.byte	0x1
 1374 031a BF       		.byte	0xbf
 1375 031b C6000000 		.4byte	0xc6
 1376 031f 00000000 		.4byte	.LFB4
 1377 0323 2C000000 		.4byte	.LFE4
 1378 0327 E3000000 		.4byte	.LLST4
 1379 032b 01       		.byte	0x1
 1380 032c 58030000 		.4byte	0x358
 1381 0330 0F       		.uleb128 0xf
 1382 0331 210A0000 		.4byte	.LASF13
 1383 0335 01       		.byte	0x1
 1384 0336 BF       		.byte	0xbf
 1385 0337 69010000 		.4byte	0x169
 1386 033b 02       		.byte	0x2
 1387 033c 91       		.byte	0x91
 1388 033d 70       		.sleb128 -16
 1389 033e 17       		.uleb128 0x17
 1390 033f 08       		.uleb128 0x8
 1391 0340 08000000 		.4byte	.LBB17
 1392 0344 1C000000 		.4byte	.LBE17
 1393 0348 11       		.uleb128 0x11
 1394 0349 67040000 		.4byte	.LASF14
 1395 034d 01       		.byte	0x1
 1396 034e C1       		.byte	0xc1
 1397 034f 54000000 		.4byte	0x54
 1398 0353 02       		.byte	0x2
 1399 0354 91       		.byte	0x91
 1400 0355 64       		.sleb128 -28
 1401 0356 00       		.byte	0
 1402 0357 00       		.byte	0
 1403 0358 16       		.uleb128 0x16
 1404 0359 01       		.byte	0x1
 1405 035a D2170000 		.4byte	.LASF16
 1406 035e 01       		.byte	0x1
 1407 035f C7       		.byte	0xc7
 1408 0360 C6000000 		.4byte	0xc6
 1409 0364 00000000 		.4byte	.LFB5
 1410 0368 30000000 		.4byte	.LFE5
 1411 036c 27010000 		.4byte	.LLST5
 1412 0370 01       		.byte	0x1
 1413 0371 AB030000 		.4byte	0x3ab
 1414 0375 07       		.uleb128 0x7
 1415 0376 6F757400 		.ascii	"out\000"
 1416 037a 01       		.byte	0x1
 1417 037b C7       		.byte	0xc7
 1418 037c B9000000 		.4byte	0xb9
 1419 0380 02       		.byte	0x2
 1420 0381 91       		.byte	0x91
 1421 0382 5C       		.sleb128 -36
 1422 0383 0F       		.uleb128 0xf
 1423 0384 210A0000 		.4byte	.LASF13
 1424 0388 01       		.byte	0x1
ARM GAS  /tmp/cc2xjAK0.s 			page 30


 1425 0389 C7       		.byte	0xc7
 1426 038a 69010000 		.4byte	0x169
 1427 038e 02       		.byte	0x2
 1428 038f 91       		.byte	0x91
 1429 0390 74       		.sleb128 -12
 1430 0391 17       		.uleb128 0x17
 1431 0392 08       		.uleb128 0x8
 1432 0393 0A000000 		.4byte	.LBB18
 1433 0397 20000000 		.4byte	.LBE18
 1434 039b 11       		.uleb128 0x11
 1435 039c 67040000 		.4byte	.LASF14
 1436 03a0 01       		.byte	0x1
 1437 03a1 C9       		.byte	0xc9
 1438 03a2 54000000 		.4byte	0x54
 1439 03a6 02       		.byte	0x2
 1440 03a7 91       		.byte	0x91
 1441 03a8 64       		.sleb128 -28
 1442 03a9 00       		.byte	0
 1443 03aa 00       		.byte	0
 1444 03ab 18       		.uleb128 0x18
 1445 03ac 01       		.byte	0x1
 1446 03ad EC040000 		.4byte	.LASF25
 1447 03b1 01       		.byte	0x1
 1448 03b2 CF       		.byte	0xcf
 1449 03b3 C6000000 		.4byte	0xc6
 1450 03b7 00000000 		.4byte	.LFB6
 1451 03bb 26000000 		.4byte	.LFE6
 1452 03bf 6B010000 		.4byte	.LLST6
 1453 03c3 01       		.byte	0x1
 1454 03c4 07       		.uleb128 0x7
 1455 03c5 6F757400 		.ascii	"out\000"
 1456 03c9 01       		.byte	0x1
 1457 03ca CF       		.byte	0xcf
 1458 03cb B9000000 		.4byte	0xb9
 1459 03cf 02       		.byte	0x2
 1460 03d0 91       		.byte	0x91
 1461 03d1 74       		.sleb128 -12
 1462 03d2 0F       		.uleb128 0xf
 1463 03d3 210A0000 		.4byte	.LASF13
 1464 03d7 01       		.byte	0x1
 1465 03d8 CF       		.byte	0xcf
 1466 03d9 69010000 		.4byte	0x169
 1467 03dd 02       		.byte	0x2
 1468 03de 91       		.byte	0x91
 1469 03df 70       		.sleb128 -16
 1470 03e0 0F       		.uleb128 0xf
 1471 03e1 67040000 		.4byte	.LASF14
 1472 03e5 01       		.byte	0x1
 1473 03e6 CF       		.byte	0xcf
 1474 03e7 54000000 		.4byte	0x54
 1475 03eb 02       		.byte	0x2
 1476 03ec 91       		.byte	0x91
 1477 03ed 6C       		.sleb128 -20
 1478 03ee 00       		.byte	0
 1479 03ef 00       		.byte	0
 1480              		.section	.debug_abbrev,"",%progbits
 1481              	.Ldebug_abbrev0:
ARM GAS  /tmp/cc2xjAK0.s 			page 31


 1482 0000 01       		.uleb128 0x1
 1483 0001 11       		.uleb128 0x11
 1484 0002 01       		.byte	0x1
 1485 0003 25       		.uleb128 0x25
 1486 0004 0E       		.uleb128 0xe
 1487 0005 13       		.uleb128 0x13
 1488 0006 0B       		.uleb128 0xb
 1489 0007 03       		.uleb128 0x3
 1490 0008 0E       		.uleb128 0xe
 1491 0009 1B       		.uleb128 0x1b
 1492 000a 0E       		.uleb128 0xe
 1493 000b 55       		.uleb128 0x55
 1494 000c 06       		.uleb128 0x6
 1495 000d 11       		.uleb128 0x11
 1496 000e 01       		.uleb128 0x1
 1497 000f 52       		.uleb128 0x52
 1498 0010 01       		.uleb128 0x1
 1499 0011 10       		.uleb128 0x10
 1500 0012 06       		.uleb128 0x6
 1501 0013 9942     		.uleb128 0x2119
 1502 0015 06       		.uleb128 0x6
 1503 0016 00       		.byte	0
 1504 0017 00       		.byte	0
 1505 0018 02       		.uleb128 0x2
 1506 0019 16       		.uleb128 0x16
 1507 001a 00       		.byte	0
 1508 001b 03       		.uleb128 0x3
 1509 001c 0E       		.uleb128 0xe
 1510 001d 3A       		.uleb128 0x3a
 1511 001e 0B       		.uleb128 0xb
 1512 001f 3B       		.uleb128 0x3b
 1513 0020 0B       		.uleb128 0xb
 1514 0021 49       		.uleb128 0x49
 1515 0022 13       		.uleb128 0x13
 1516 0023 00       		.byte	0
 1517 0024 00       		.byte	0
 1518 0025 03       		.uleb128 0x3
 1519 0026 13       		.uleb128 0x13
 1520 0027 01       		.byte	0x1
 1521 0028 03       		.uleb128 0x3
 1522 0029 0E       		.uleb128 0xe
 1523 002a 0B       		.uleb128 0xb
 1524 002b 0B       		.uleb128 0xb
 1525 002c 3A       		.uleb128 0x3a
 1526 002d 0B       		.uleb128 0xb
 1527 002e 3B       		.uleb128 0x3b
 1528 002f 0B       		.uleb128 0xb
 1529 0030 01       		.uleb128 0x1
 1530 0031 13       		.uleb128 0x13
 1531 0032 00       		.byte	0
 1532 0033 00       		.byte	0
 1533 0034 04       		.uleb128 0x4
 1534 0035 0D       		.uleb128 0xd
 1535 0036 00       		.byte	0
 1536 0037 03       		.uleb128 0x3
 1537 0038 0E       		.uleb128 0xe
 1538 0039 49       		.uleb128 0x49
ARM GAS  /tmp/cc2xjAK0.s 			page 32


 1539 003a 13       		.uleb128 0x13
 1540 003b 38       		.uleb128 0x38
 1541 003c 0A       		.uleb128 0xa
 1542 003d 34       		.uleb128 0x34
 1543 003e 0C       		.uleb128 0xc
 1544 003f 00       		.byte	0
 1545 0040 00       		.byte	0
 1546 0041 05       		.uleb128 0x5
 1547 0042 0F       		.uleb128 0xf
 1548 0043 00       		.byte	0
 1549 0044 0B       		.uleb128 0xb
 1550 0045 0B       		.uleb128 0xb
 1551 0046 00       		.byte	0
 1552 0047 00       		.byte	0
 1553 0048 06       		.uleb128 0x6
 1554 0049 2E       		.uleb128 0x2e
 1555 004a 01       		.byte	0x1
 1556 004b 03       		.uleb128 0x3
 1557 004c 0E       		.uleb128 0xe
 1558 004d 3A       		.uleb128 0x3a
 1559 004e 0B       		.uleb128 0xb
 1560 004f 3B       		.uleb128 0x3b
 1561 0050 0B       		.uleb128 0xb
 1562 0051 11       		.uleb128 0x11
 1563 0052 01       		.uleb128 0x1
 1564 0053 12       		.uleb128 0x12
 1565 0054 01       		.uleb128 0x1
 1566 0055 40       		.uleb128 0x40
 1567 0056 06       		.uleb128 0x6
 1568 0057 9642     		.uleb128 0x2116
 1569 0059 0C       		.uleb128 0xc
 1570 005a 01       		.uleb128 0x1
 1571 005b 13       		.uleb128 0x13
 1572 005c 00       		.byte	0
 1573 005d 00       		.byte	0
 1574 005e 07       		.uleb128 0x7
 1575 005f 05       		.uleb128 0x5
 1576 0060 00       		.byte	0
 1577 0061 03       		.uleb128 0x3
 1578 0062 08       		.uleb128 0x8
 1579 0063 3A       		.uleb128 0x3a
 1580 0064 0B       		.uleb128 0xb
 1581 0065 3B       		.uleb128 0x3b
 1582 0066 0B       		.uleb128 0xb
 1583 0067 49       		.uleb128 0x49
 1584 0068 13       		.uleb128 0x13
 1585 0069 02       		.uleb128 0x2
 1586 006a 0A       		.uleb128 0xa
 1587 006b 00       		.byte	0
 1588 006c 00       		.byte	0
 1589 006d 08       		.uleb128 0x8
 1590 006e 0B       		.uleb128 0xb
 1591 006f 01       		.byte	0x1
 1592 0070 11       		.uleb128 0x11
 1593 0071 01       		.uleb128 0x1
 1594 0072 12       		.uleb128 0x12
 1595 0073 01       		.uleb128 0x1
ARM GAS  /tmp/cc2xjAK0.s 			page 33


 1596 0074 00       		.byte	0
 1597 0075 00       		.byte	0
 1598 0076 09       		.uleb128 0x9
 1599 0077 2E       		.uleb128 0x2e
 1600 0078 01       		.byte	0x1
 1601 0079 3F       		.uleb128 0x3f
 1602 007a 0C       		.uleb128 0xc
 1603 007b 03       		.uleb128 0x3
 1604 007c 0E       		.uleb128 0xe
 1605 007d 3A       		.uleb128 0x3a
 1606 007e 0B       		.uleb128 0xb
 1607 007f 3B       		.uleb128 0x3b
 1608 0080 0B       		.uleb128 0xb
 1609 0081 8740     		.uleb128 0x2007
 1610 0083 0E       		.uleb128 0xe
 1611 0084 49       		.uleb128 0x49
 1612 0085 13       		.uleb128 0x13
 1613 0086 3C       		.uleb128 0x3c
 1614 0087 0C       		.uleb128 0xc
 1615 0088 00       		.byte	0
 1616 0089 00       		.byte	0
 1617 008a 0A       		.uleb128 0xa
 1618 008b 05       		.uleb128 0x5
 1619 008c 00       		.byte	0
 1620 008d 49       		.uleb128 0x49
 1621 008e 13       		.uleb128 0x13
 1622 008f 00       		.byte	0
 1623 0090 00       		.byte	0
 1624 0091 0B       		.uleb128 0xb
 1625 0092 0F       		.uleb128 0xf
 1626 0093 00       		.byte	0
 1627 0094 0B       		.uleb128 0xb
 1628 0095 0B       		.uleb128 0xb
 1629 0096 49       		.uleb128 0x49
 1630 0097 13       		.uleb128 0x13
 1631 0098 00       		.byte	0
 1632 0099 00       		.byte	0
 1633 009a 0C       		.uleb128 0xc
 1634 009b 24       		.uleb128 0x24
 1635 009c 00       		.byte	0
 1636 009d 0B       		.uleb128 0xb
 1637 009e 0B       		.uleb128 0xb
 1638 009f 3E       		.uleb128 0x3e
 1639 00a0 0B       		.uleb128 0xb
 1640 00a1 03       		.uleb128 0x3
 1641 00a2 0E       		.uleb128 0xe
 1642 00a3 00       		.byte	0
 1643 00a4 00       		.byte	0
 1644 00a5 0D       		.uleb128 0xd
 1645 00a6 24       		.uleb128 0x24
 1646 00a7 00       		.byte	0
 1647 00a8 0B       		.uleb128 0xb
 1648 00a9 0B       		.uleb128 0xb
 1649 00aa 3E       		.uleb128 0x3e
 1650 00ab 0B       		.uleb128 0xb
 1651 00ac 03       		.uleb128 0x3
 1652 00ad 08       		.uleb128 0x8
ARM GAS  /tmp/cc2xjAK0.s 			page 34


 1653 00ae 00       		.byte	0
 1654 00af 00       		.byte	0
 1655 00b0 0E       		.uleb128 0xe
 1656 00b1 2E       		.uleb128 0x2e
 1657 00b2 01       		.byte	0x1
 1658 00b3 03       		.uleb128 0x3
 1659 00b4 0E       		.uleb128 0xe
 1660 00b5 3A       		.uleb128 0x3a
 1661 00b6 0B       		.uleb128 0xb
 1662 00b7 3B       		.uleb128 0x3b
 1663 00b8 0B       		.uleb128 0xb
 1664 00b9 49       		.uleb128 0x49
 1665 00ba 13       		.uleb128 0x13
 1666 00bb 11       		.uleb128 0x11
 1667 00bc 01       		.uleb128 0x1
 1668 00bd 12       		.uleb128 0x12
 1669 00be 01       		.uleb128 0x1
 1670 00bf 40       		.uleb128 0x40
 1671 00c0 06       		.uleb128 0x6
 1672 00c1 9642     		.uleb128 0x2116
 1673 00c3 0C       		.uleb128 0xc
 1674 00c4 01       		.uleb128 0x1
 1675 00c5 13       		.uleb128 0x13
 1676 00c6 00       		.byte	0
 1677 00c7 00       		.byte	0
 1678 00c8 0F       		.uleb128 0xf
 1679 00c9 05       		.uleb128 0x5
 1680 00ca 00       		.byte	0
 1681 00cb 03       		.uleb128 0x3
 1682 00cc 0E       		.uleb128 0xe
 1683 00cd 3A       		.uleb128 0x3a
 1684 00ce 0B       		.uleb128 0xb
 1685 00cf 3B       		.uleb128 0x3b
 1686 00d0 0B       		.uleb128 0xb
 1687 00d1 49       		.uleb128 0x49
 1688 00d2 13       		.uleb128 0x13
 1689 00d3 02       		.uleb128 0x2
 1690 00d4 0A       		.uleb128 0xa
 1691 00d5 00       		.byte	0
 1692 00d6 00       		.byte	0
 1693 00d7 10       		.uleb128 0x10
 1694 00d8 34       		.uleb128 0x34
 1695 00d9 00       		.byte	0
 1696 00da 03       		.uleb128 0x3
 1697 00db 08       		.uleb128 0x8
 1698 00dc 3A       		.uleb128 0x3a
 1699 00dd 0B       		.uleb128 0xb
 1700 00de 3B       		.uleb128 0x3b
 1701 00df 0B       		.uleb128 0xb
 1702 00e0 49       		.uleb128 0x49
 1703 00e1 13       		.uleb128 0x13
 1704 00e2 02       		.uleb128 0x2
 1705 00e3 0A       		.uleb128 0xa
 1706 00e4 00       		.byte	0
 1707 00e5 00       		.byte	0
 1708 00e6 11       		.uleb128 0x11
 1709 00e7 34       		.uleb128 0x34
ARM GAS  /tmp/cc2xjAK0.s 			page 35


 1710 00e8 00       		.byte	0
 1711 00e9 03       		.uleb128 0x3
 1712 00ea 0E       		.uleb128 0xe
 1713 00eb 3A       		.uleb128 0x3a
 1714 00ec 0B       		.uleb128 0xb
 1715 00ed 3B       		.uleb128 0x3b
 1716 00ee 0B       		.uleb128 0xb
 1717 00ef 49       		.uleb128 0x49
 1718 00f0 13       		.uleb128 0x13
 1719 00f1 02       		.uleb128 0x2
 1720 00f2 0A       		.uleb128 0xa
 1721 00f3 00       		.byte	0
 1722 00f4 00       		.byte	0
 1723 00f5 12       		.uleb128 0x12
 1724 00f6 26       		.uleb128 0x26
 1725 00f7 00       		.byte	0
 1726 00f8 49       		.uleb128 0x49
 1727 00f9 13       		.uleb128 0x13
 1728 00fa 00       		.byte	0
 1729 00fb 00       		.byte	0
 1730 00fc 13       		.uleb128 0x13
 1731 00fd 01       		.uleb128 0x1
 1732 00fe 01       		.byte	0x1
 1733 00ff 49       		.uleb128 0x49
 1734 0100 13       		.uleb128 0x13
 1735 0101 01       		.uleb128 0x1
 1736 0102 13       		.uleb128 0x13
 1737 0103 00       		.byte	0
 1738 0104 00       		.byte	0
 1739 0105 14       		.uleb128 0x14
 1740 0106 21       		.uleb128 0x21
 1741 0107 00       		.byte	0
 1742 0108 49       		.uleb128 0x49
 1743 0109 13       		.uleb128 0x13
 1744 010a 2F       		.uleb128 0x2f
 1745 010b 0B       		.uleb128 0xb
 1746 010c 00       		.byte	0
 1747 010d 00       		.byte	0
 1748 010e 15       		.uleb128 0x15
 1749 010f 0A       		.uleb128 0xa
 1750 0110 00       		.byte	0
 1751 0111 03       		.uleb128 0x3
 1752 0112 08       		.uleb128 0x8
 1753 0113 3A       		.uleb128 0x3a
 1754 0114 0B       		.uleb128 0xb
 1755 0115 3B       		.uleb128 0x3b
 1756 0116 0B       		.uleb128 0xb
 1757 0117 11       		.uleb128 0x11
 1758 0118 01       		.uleb128 0x1
 1759 0119 00       		.byte	0
 1760 011a 00       		.byte	0
 1761 011b 16       		.uleb128 0x16
 1762 011c 2E       		.uleb128 0x2e
 1763 011d 01       		.byte	0x1
 1764 011e 3F       		.uleb128 0x3f
 1765 011f 0C       		.uleb128 0xc
 1766 0120 03       		.uleb128 0x3
ARM GAS  /tmp/cc2xjAK0.s 			page 36


 1767 0121 0E       		.uleb128 0xe
 1768 0122 3A       		.uleb128 0x3a
 1769 0123 0B       		.uleb128 0xb
 1770 0124 3B       		.uleb128 0x3b
 1771 0125 0B       		.uleb128 0xb
 1772 0126 49       		.uleb128 0x49
 1773 0127 13       		.uleb128 0x13
 1774 0128 11       		.uleb128 0x11
 1775 0129 01       		.uleb128 0x1
 1776 012a 12       		.uleb128 0x12
 1777 012b 01       		.uleb128 0x1
 1778 012c 40       		.uleb128 0x40
 1779 012d 06       		.uleb128 0x6
 1780 012e 9642     		.uleb128 0x2116
 1781 0130 0C       		.uleb128 0xc
 1782 0131 01       		.uleb128 0x1
 1783 0132 13       		.uleb128 0x13
 1784 0133 00       		.byte	0
 1785 0134 00       		.byte	0
 1786 0135 17       		.uleb128 0x17
 1787 0136 18       		.uleb128 0x18
 1788 0137 00       		.byte	0
 1789 0138 00       		.byte	0
 1790 0139 00       		.byte	0
 1791 013a 18       		.uleb128 0x18
 1792 013b 2E       		.uleb128 0x2e
 1793 013c 01       		.byte	0x1
 1794 013d 3F       		.uleb128 0x3f
 1795 013e 0C       		.uleb128 0xc
 1796 013f 03       		.uleb128 0x3
 1797 0140 0E       		.uleb128 0xe
 1798 0141 3A       		.uleb128 0x3a
 1799 0142 0B       		.uleb128 0xb
 1800 0143 3B       		.uleb128 0x3b
 1801 0144 0B       		.uleb128 0xb
 1802 0145 49       		.uleb128 0x49
 1803 0146 13       		.uleb128 0x13
 1804 0147 11       		.uleb128 0x11
 1805 0148 01       		.uleb128 0x1
 1806 0149 12       		.uleb128 0x12
 1807 014a 01       		.uleb128 0x1
 1808 014b 40       		.uleb128 0x40
 1809 014c 06       		.uleb128 0x6
 1810 014d 9642     		.uleb128 0x2116
 1811 014f 0C       		.uleb128 0xc
 1812 0150 00       		.byte	0
 1813 0151 00       		.byte	0
 1814 0152 00       		.byte	0
 1815              		.section	.debug_loc,"",%progbits
 1816              	.Ldebug_loc0:
 1817              	.LLST0:
 1818 0000 00000000 		.4byte	.LFB0
 1819 0004 02000000 		.4byte	.LCFI0
 1820 0008 0200     		.2byte	0x2
 1821 000a 7D       		.byte	0x7d
 1822 000b 00       		.sleb128 0
 1823 000c 02000000 		.4byte	.LCFI0
ARM GAS  /tmp/cc2xjAK0.s 			page 37


 1824 0010 04000000 		.4byte	.LCFI1
 1825 0014 0200     		.2byte	0x2
 1826 0016 7D       		.byte	0x7d
 1827 0017 08       		.sleb128 8
 1828 0018 04000000 		.4byte	.LCFI1
 1829 001c 06000000 		.4byte	.LCFI2
 1830 0020 0200     		.2byte	0x2
 1831 0022 7D       		.byte	0x7d
 1832 0023 10       		.sleb128 16
 1833 0024 06000000 		.4byte	.LCFI2
 1834 0028 36000000 		.4byte	.LFE0
 1835 002c 0200     		.2byte	0x2
 1836 002e 77       		.byte	0x77
 1837 002f 10       		.sleb128 16
 1838 0030 00000000 		.4byte	0
 1839 0034 00000000 		.4byte	0
 1840              	.LLST1:
 1841 0038 00000000 		.4byte	.LFB1
 1842 003c 04000000 		.4byte	.LCFI3
 1843 0040 0200     		.2byte	0x2
 1844 0042 7D       		.byte	0x7d
 1845 0043 00       		.sleb128 0
 1846 0044 04000000 		.4byte	.LCFI3
 1847 0048 06000000 		.4byte	.LCFI4
 1848 004c 0200     		.2byte	0x2
 1849 004e 7D       		.byte	0x7d
 1850 004f 18       		.sleb128 24
 1851 0050 06000000 		.4byte	.LCFI4
 1852 0054 08000000 		.4byte	.LCFI5
 1853 0058 0200     		.2byte	0x2
 1854 005a 7D       		.byte	0x7d
 1855 005b 28       		.sleb128 40
 1856 005c 08000000 		.4byte	.LCFI5
 1857 0060 F4000000 		.4byte	.LFE1
 1858 0064 0200     		.2byte	0x2
 1859 0066 77       		.byte	0x77
 1860 0067 28       		.sleb128 40
 1861 0068 00000000 		.4byte	0
 1862 006c 00000000 		.4byte	0
 1863              	.LLST2:
 1864 0070 00000000 		.4byte	.LFB2
 1865 0074 04000000 		.4byte	.LCFI6
 1866 0078 0200     		.2byte	0x2
 1867 007a 7D       		.byte	0x7d
 1868 007b 00       		.sleb128 0
 1869 007c 04000000 		.4byte	.LCFI6
 1870 0080 06000000 		.4byte	.LCFI7
 1871 0084 0200     		.2byte	0x2
 1872 0086 7D       		.byte	0x7d
 1873 0087 1C       		.sleb128 28
 1874 0088 06000000 		.4byte	.LCFI7
 1875 008c 08000000 		.4byte	.LCFI8
 1876 0090 0300     		.2byte	0x3
 1877 0092 7D       		.byte	0x7d
 1878 0093 C000     		.sleb128 64
 1879 0095 08000000 		.4byte	.LCFI8
 1880 0099 FE000000 		.4byte	.LFE2
ARM GAS  /tmp/cc2xjAK0.s 			page 38


 1881 009d 0300     		.2byte	0x3
 1882 009f 77       		.byte	0x77
 1883 00a0 C000     		.sleb128 64
 1884 00a2 00000000 		.4byte	0
 1885 00a6 00000000 		.4byte	0
 1886              	.LLST3:
 1887 00aa 00000000 		.4byte	.LFB3
 1888 00ae 04000000 		.4byte	.LCFI9
 1889 00b2 0200     		.2byte	0x2
 1890 00b4 7D       		.byte	0x7d
 1891 00b5 00       		.sleb128 0
 1892 00b6 04000000 		.4byte	.LCFI9
 1893 00ba 06000000 		.4byte	.LCFI10
 1894 00be 0200     		.2byte	0x2
 1895 00c0 7D       		.byte	0x7d
 1896 00c1 18       		.sleb128 24
 1897 00c2 06000000 		.4byte	.LCFI10
 1898 00c6 08000000 		.4byte	.LCFI11
 1899 00ca 0300     		.2byte	0x3
 1900 00cc 7D       		.byte	0x7d
 1901 00cd C000     		.sleb128 64
 1902 00cf 08000000 		.4byte	.LCFI11
 1903 00d3 50020000 		.4byte	.LFE3
 1904 00d7 0200     		.2byte	0x2
 1905 00d9 77       		.byte	0x77
 1906 00da 30       		.sleb128 48
 1907 00db 00000000 		.4byte	0
 1908 00df 00000000 		.4byte	0
 1909              	.LLST4:
 1910 00e3 00000000 		.4byte	.LFB4
 1911 00e7 02000000 		.4byte	.LCFI12
 1912 00eb 0200     		.2byte	0x2
 1913 00ed 7D       		.byte	0x7d
 1914 00ee 00       		.sleb128 0
 1915 00ef 02000000 		.4byte	.LCFI12
 1916 00f3 04000000 		.4byte	.LCFI13
 1917 00f7 0200     		.2byte	0x2
 1918 00f9 7D       		.byte	0x7d
 1919 00fa 10       		.sleb128 16
 1920 00fb 04000000 		.4byte	.LCFI13
 1921 00ff 06000000 		.4byte	.LCFI14
 1922 0103 0200     		.2byte	0x2
 1923 0105 7D       		.byte	0x7d
 1924 0106 18       		.sleb128 24
 1925 0107 06000000 		.4byte	.LCFI14
 1926 010b 08000000 		.4byte	.LCFI15
 1927 010f 0200     		.2byte	0x2
 1928 0111 7D       		.byte	0x7d
 1929 0112 20       		.sleb128 32
 1930 0113 08000000 		.4byte	.LCFI15
 1931 0117 2C000000 		.4byte	.LFE4
 1932 011b 0200     		.2byte	0x2
 1933 011d 77       		.byte	0x77
 1934 011e 20       		.sleb128 32
 1935 011f 00000000 		.4byte	0
 1936 0123 00000000 		.4byte	0
 1937              	.LLST5:
ARM GAS  /tmp/cc2xjAK0.s 			page 39


 1938 0127 00000000 		.4byte	.LFB5
 1939 012b 02000000 		.4byte	.LCFI16
 1940 012f 0200     		.2byte	0x2
 1941 0131 7D       		.byte	0x7d
 1942 0132 00       		.sleb128 0
 1943 0133 02000000 		.4byte	.LCFI16
 1944 0137 04000000 		.4byte	.LCFI17
 1945 013b 0200     		.2byte	0x2
 1946 013d 7D       		.byte	0x7d
 1947 013e 0C       		.sleb128 12
 1948 013f 04000000 		.4byte	.LCFI17
 1949 0143 06000000 		.4byte	.LCFI18
 1950 0147 0200     		.2byte	0x2
 1951 0149 7D       		.byte	0x7d
 1952 014a 14       		.sleb128 20
 1953 014b 06000000 		.4byte	.LCFI18
 1954 014f 08000000 		.4byte	.LCFI19
 1955 0153 0200     		.2byte	0x2
 1956 0155 7D       		.byte	0x7d
 1957 0156 28       		.sleb128 40
 1958 0157 08000000 		.4byte	.LCFI19
 1959 015b 30000000 		.4byte	.LFE5
 1960 015f 0200     		.2byte	0x2
 1961 0161 77       		.byte	0x77
 1962 0162 28       		.sleb128 40
 1963 0163 00000000 		.4byte	0
 1964 0167 00000000 		.4byte	0
 1965              	.LLST6:
 1966 016b 00000000 		.4byte	.LFB6
 1967 016f 02000000 		.4byte	.LCFI20
 1968 0173 0200     		.2byte	0x2
 1969 0175 7D       		.byte	0x7d
 1970 0176 00       		.sleb128 0
 1971 0177 02000000 		.4byte	.LCFI20
 1972 017b 04000000 		.4byte	.LCFI21
 1973 017f 0200     		.2byte	0x2
 1974 0181 7D       		.byte	0x7d
 1975 0182 08       		.sleb128 8
 1976 0183 04000000 		.4byte	.LCFI21
 1977 0187 06000000 		.4byte	.LCFI22
 1978 018b 0200     		.2byte	0x2
 1979 018d 7D       		.byte	0x7d
 1980 018e 18       		.sleb128 24
 1981 018f 06000000 		.4byte	.LCFI22
 1982 0193 26000000 		.4byte	.LFE6
 1983 0197 0200     		.2byte	0x2
 1984 0199 77       		.byte	0x77
 1985 019a 18       		.sleb128 24
 1986 019b 00000000 		.4byte	0
 1987 019f 00000000 		.4byte	0
 1988              		.section	.debug_aranges,"",%progbits
 1989 0000 4C000000 		.4byte	0x4c
 1990 0004 0200     		.2byte	0x2
 1991 0006 00000000 		.4byte	.Ldebug_info0
 1992 000a 04       		.byte	0x4
 1993 000b 00       		.byte	0
 1994 000c 0000     		.2byte	0
ARM GAS  /tmp/cc2xjAK0.s 			page 40


 1995 000e 0000     		.2byte	0
 1996 0010 00000000 		.4byte	.LFB0
 1997 0014 36000000 		.4byte	.LFE0-.LFB0
 1998 0018 00000000 		.4byte	.LFB1
 1999 001c F4000000 		.4byte	.LFE1-.LFB1
 2000 0020 00000000 		.4byte	.LFB2
 2001 0024 FE000000 		.4byte	.LFE2-.LFB2
 2002 0028 00000000 		.4byte	.LFB3
 2003 002c 50020000 		.4byte	.LFE3-.LFB3
 2004 0030 00000000 		.4byte	.LFB4
 2005 0034 2C000000 		.4byte	.LFE4-.LFB4
 2006 0038 00000000 		.4byte	.LFB5
 2007 003c 30000000 		.4byte	.LFE5-.LFB5
 2008 0040 00000000 		.4byte	.LFB6
 2009 0044 26000000 		.4byte	.LFE6-.LFB6
 2010 0048 00000000 		.4byte	0
 2011 004c 00000000 		.4byte	0
 2012              		.section	.debug_ranges,"",%progbits
 2013              	.Ldebug_ranges0:
 2014 0000 00000000 		.4byte	.LFB0
 2015 0004 36000000 		.4byte	.LFE0
 2016 0008 00000000 		.4byte	.LFB1
 2017 000c F4000000 		.4byte	.LFE1
 2018 0010 00000000 		.4byte	.LFB2
 2019 0014 FE000000 		.4byte	.LFE2
 2020 0018 00000000 		.4byte	.LFB3
 2021 001c 50020000 		.4byte	.LFE3
 2022 0020 00000000 		.4byte	.LFB4
 2023 0024 2C000000 		.4byte	.LFE4
 2024 0028 00000000 		.4byte	.LFB5
 2025 002c 30000000 		.4byte	.LFE5
 2026 0030 00000000 		.4byte	.LFB6
 2027 0034 26000000 		.4byte	.LFE6
 2028 0038 00000000 		.4byte	0
 2029 003c 00000000 		.4byte	0
 2030              		.section	.debug_macro,"",%progbits
 2031              	.Ldebug_macro0:
 2032 0000 0400     		.2byte	0x4
 2033 0002 02       		.byte	0x2
 2034 0003 00000000 		.4byte	.Ldebug_line0
 2035 0007 07       		.byte	0x7
 2036 0008 00000000 		.4byte	.Ldebug_macro1
 2037 000c 03       		.byte	0x3
 2038 000d 00       		.uleb128 0
 2039 000e 01       		.uleb128 0x1
 2040 000f 03       		.byte	0x3
 2041 0010 1D       		.uleb128 0x1d
 2042 0011 02       		.uleb128 0x2
 2043 0012 07       		.byte	0x7
 2044 0013 00000000 		.4byte	.Ldebug_macro2
 2045 0017 04       		.byte	0x4
 2046 0018 05       		.byte	0x5
 2047 0019 1F       		.uleb128 0x1f
 2048 001a A80F0000 		.4byte	.LASF26
 2049 001e 05       		.byte	0x5
 2050 001f 2C       		.uleb128 0x2c
 2051 0020 08160000 		.4byte	.LASF27
ARM GAS  /tmp/cc2xjAK0.s 			page 41


 2052 0024 05       		.byte	0x5
 2053 0025 2D       		.uleb128 0x2d
 2054 0026 FB200000 		.4byte	.LASF28
 2055 002a 05       		.byte	0x5
 2056 002b 4E       		.uleb128 0x4e
 2057 002c 4D1B0000 		.4byte	.LASF29
 2058 0030 04       		.byte	0x4
 2059 0031 00       		.byte	0
 2060              		.section	.debug_macro,"G",%progbits,wm4.1.0f96879df78db10a50dc9b309382ad80,comdat
 2061              	.Ldebug_macro1:
 2062 0000 0400     		.2byte	0x4
 2063 0002 00       		.byte	0
 2064 0003 05       		.byte	0x5
 2065 0004 01       		.uleb128 0x1
 2066 0005 5B130000 		.4byte	.LASF30
 2067 0009 05       		.byte	0x5
 2068 000a 01       		.uleb128 0x1
 2069 000b 590D0000 		.4byte	.LASF31
 2070 000f 05       		.byte	0x5
 2071 0010 01       		.uleb128 0x1
 2072 0011 3C1F0000 		.4byte	.LASF32
 2073 0015 05       		.byte	0x5
 2074 0016 01       		.uleb128 0x1
 2075 0017 8D020000 		.4byte	.LASF33
 2076 001b 05       		.byte	0x5
 2077 001c 01       		.uleb128 0x1
 2078 001d 0F020000 		.4byte	.LASF34
 2079 0021 05       		.byte	0x5
 2080 0022 01       		.uleb128 0x1
 2081 0023 E0140000 		.4byte	.LASF35
 2082 0027 05       		.byte	0x5
 2083 0028 01       		.uleb128 0x1
 2084 0029 C31C0000 		.4byte	.LASF36
 2085 002d 05       		.byte	0x5
 2086 002e 01       		.uleb128 0x1
 2087 002f 37050000 		.4byte	.LASF37
 2088 0033 05       		.byte	0x5
 2089 0034 01       		.uleb128 0x1
 2090 0035 680E0000 		.4byte	.LASF38
 2091 0039 05       		.byte	0x5
 2092 003a 01       		.uleb128 0x1
 2093 003b 680F0000 		.4byte	.LASF39
 2094 003f 05       		.byte	0x5
 2095 0040 01       		.uleb128 0x1
 2096 0041 48030000 		.4byte	.LASF40
 2097 0045 05       		.byte	0x5
 2098 0046 01       		.uleb128 0x1
 2099 0047 D31F0000 		.4byte	.LASF41
 2100 004b 05       		.byte	0x5
 2101 004c 01       		.uleb128 0x1
 2102 004d 8D130000 		.4byte	.LASF42
 2103 0051 05       		.byte	0x5
 2104 0052 01       		.uleb128 0x1
 2105 0053 D5040000 		.4byte	.LASF43
 2106 0057 05       		.byte	0x5
 2107 0058 01       		.uleb128 0x1
 2108 0059 EB210000 		.4byte	.LASF44
ARM GAS  /tmp/cc2xjAK0.s 			page 42


 2109 005d 05       		.byte	0x5
 2110 005e 01       		.uleb128 0x1
 2111 005f 66130000 		.4byte	.LASF45
 2112 0063 05       		.byte	0x5
 2113 0064 01       		.uleb128 0x1
 2114 0065 AE1B0000 		.4byte	.LASF46
 2115 0069 05       		.byte	0x5
 2116 006a 01       		.uleb128 0x1
 2117 006b FF030000 		.4byte	.LASF47
 2118 006f 05       		.byte	0x5
 2119 0070 01       		.uleb128 0x1
 2120 0071 C50A0000 		.4byte	.LASF48
 2121 0075 05       		.byte	0x5
 2122 0076 01       		.uleb128 0x1
 2123 0077 AA140000 		.4byte	.LASF49
 2124 007b 05       		.byte	0x5
 2125 007c 01       		.uleb128 0x1
 2126 007d 74020000 		.4byte	.LASF50
 2127 0081 05       		.byte	0x5
 2128 0082 01       		.uleb128 0x1
 2129 0083 3D020000 		.4byte	.LASF51
 2130 0087 05       		.byte	0x5
 2131 0088 01       		.uleb128 0x1
 2132 0089 95110000 		.4byte	.LASF52
 2133 008d 05       		.byte	0x5
 2134 008e 01       		.uleb128 0x1
 2135 008f 321A0000 		.4byte	.LASF53
 2136 0093 05       		.byte	0x5
 2137 0094 01       		.uleb128 0x1
 2138 0095 D50B0000 		.4byte	.LASF54
 2139 0099 05       		.byte	0x5
 2140 009a 01       		.uleb128 0x1
 2141 009b 98020000 		.4byte	.LASF55
 2142 009f 05       		.byte	0x5
 2143 00a0 01       		.uleb128 0x1
 2144 00a1 63200000 		.4byte	.LASF56
 2145 00a5 05       		.byte	0x5
 2146 00a6 01       		.uleb128 0x1
 2147 00a7 B41D0000 		.4byte	.LASF57
 2148 00ab 05       		.byte	0x5
 2149 00ac 01       		.uleb128 0x1
 2150 00ad 84160000 		.4byte	.LASF58
 2151 00b1 05       		.byte	0x5
 2152 00b2 01       		.uleb128 0x1
 2153 00b3 511D0000 		.4byte	.LASF59
 2154 00b7 05       		.byte	0x5
 2155 00b8 01       		.uleb128 0x1
 2156 00b9 271A0000 		.4byte	.LASF60
 2157 00bd 05       		.byte	0x5
 2158 00be 01       		.uleb128 0x1
 2159 00bf CB200000 		.4byte	.LASF61
 2160 00c3 05       		.byte	0x5
 2161 00c4 01       		.uleb128 0x1
 2162 00c5 69030000 		.4byte	.LASF62
 2163 00c9 05       		.byte	0x5
 2164 00ca 01       		.uleb128 0x1
 2165 00cb 47140000 		.4byte	.LASF63
ARM GAS  /tmp/cc2xjAK0.s 			page 43


 2166 00cf 05       		.byte	0x5
 2167 00d0 01       		.uleb128 0x1
 2168 00d1 C2130000 		.4byte	.LASF64
 2169 00d5 05       		.byte	0x5
 2170 00d6 01       		.uleb128 0x1
 2171 00d7 FC210000 		.4byte	.LASF65
 2172 00db 05       		.byte	0x5
 2173 00dc 01       		.uleb128 0x1
 2174 00dd FE1F0000 		.4byte	.LASF66
 2175 00e1 05       		.byte	0x5
 2176 00e2 01       		.uleb128 0x1
 2177 00e3 51020000 		.4byte	.LASF67
 2178 00e7 05       		.byte	0x5
 2179 00e8 01       		.uleb128 0x1
 2180 00e9 96170000 		.4byte	.LASF68
 2181 00ed 05       		.byte	0x5
 2182 00ee 01       		.uleb128 0x1
 2183 00ef 3F240000 		.4byte	.LASF69
 2184 00f3 05       		.byte	0x5
 2185 00f4 01       		.uleb128 0x1
 2186 00f5 6F1A0000 		.4byte	.LASF70
 2187 00f9 05       		.byte	0x5
 2188 00fa 01       		.uleb128 0x1
 2189 00fb 92030000 		.4byte	.LASF71
 2190 00ff 05       		.byte	0x5
 2191 0100 01       		.uleb128 0x1
 2192 0101 84190000 		.4byte	.LASF72
 2193 0105 05       		.byte	0x5
 2194 0106 01       		.uleb128 0x1
 2195 0107 260D0000 		.4byte	.LASF73
 2196 010b 05       		.byte	0x5
 2197 010c 01       		.uleb128 0x1
 2198 010d D41B0000 		.4byte	.LASF74
 2199 0111 05       		.byte	0x5
 2200 0112 01       		.uleb128 0x1
 2201 0113 730C0000 		.4byte	.LASF75
 2202 0117 05       		.byte	0x5
 2203 0118 01       		.uleb128 0x1
 2204 0119 141D0000 		.4byte	.LASF76
 2205 011d 05       		.byte	0x5
 2206 011e 01       		.uleb128 0x1
 2207 011f 6D220000 		.4byte	.LASF77
 2208 0123 05       		.byte	0x5
 2209 0124 01       		.uleb128 0x1
 2210 0125 F40C0000 		.4byte	.LASF78
 2211 0129 05       		.byte	0x5
 2212 012a 01       		.uleb128 0x1
 2213 012b 28100000 		.4byte	.LASF79
 2214 012f 05       		.byte	0x5
 2215 0130 01       		.uleb128 0x1
 2216 0131 30080000 		.4byte	.LASF80
 2217 0135 05       		.byte	0x5
 2218 0136 01       		.uleb128 0x1
 2219 0137 A01C0000 		.4byte	.LASF81
 2220 013b 05       		.byte	0x5
 2221 013c 01       		.uleb128 0x1
 2222 013d F5040000 		.4byte	.LASF82
ARM GAS  /tmp/cc2xjAK0.s 			page 44


 2223 0141 05       		.byte	0x5
 2224 0142 01       		.uleb128 0x1
 2225 0143 D0220000 		.4byte	.LASF83
 2226 0147 05       		.byte	0x5
 2227 0148 01       		.uleb128 0x1
 2228 0149 E9170000 		.4byte	.LASF84
 2229 014d 05       		.byte	0x5
 2230 014e 01       		.uleb128 0x1
 2231 014f 1B030000 		.4byte	.LASF85
 2232 0153 05       		.byte	0x5
 2233 0154 01       		.uleb128 0x1
 2234 0155 1C090000 		.4byte	.LASF86
 2235 0159 05       		.byte	0x5
 2236 015a 01       		.uleb128 0x1
 2237 015b 5B0C0000 		.4byte	.LASF87
 2238 015f 05       		.byte	0x5
 2239 0160 01       		.uleb128 0x1
 2240 0161 A9210000 		.4byte	.LASF88
 2241 0165 05       		.byte	0x5
 2242 0166 01       		.uleb128 0x1
 2243 0167 13060000 		.4byte	.LASF89
 2244 016b 05       		.byte	0x5
 2245 016c 01       		.uleb128 0x1
 2246 016d DC0E0000 		.4byte	.LASF90
 2247 0171 05       		.byte	0x5
 2248 0172 01       		.uleb128 0x1
 2249 0173 33090000 		.4byte	.LASF91
 2250 0177 05       		.byte	0x5
 2251 0178 01       		.uleb128 0x1
 2252 0179 9C190000 		.4byte	.LASF92
 2253 017d 05       		.byte	0x5
 2254 017e 01       		.uleb128 0x1
 2255 017f DC150000 		.4byte	.LASF93
 2256 0183 05       		.byte	0x5
 2257 0184 01       		.uleb128 0x1
 2258 0185 4F200000 		.4byte	.LASF94
 2259 0189 05       		.byte	0x5
 2260 018a 01       		.uleb128 0x1
 2261 018b 82060000 		.4byte	.LASF95
 2262 018f 05       		.byte	0x5
 2263 0190 01       		.uleb128 0x1
 2264 0191 5C0B0000 		.4byte	.LASF96
 2265 0195 05       		.byte	0x5
 2266 0196 01       		.uleb128 0x1
 2267 0197 61110000 		.4byte	.LASF97
 2268 019b 05       		.byte	0x5
 2269 019c 01       		.uleb128 0x1
 2270 019d F6140000 		.4byte	.LASF98
 2271 01a1 05       		.byte	0x5
 2272 01a2 01       		.uleb128 0x1
 2273 01a3 190C0000 		.4byte	.LASF99
 2274 01a7 05       		.byte	0x5
 2275 01a8 01       		.uleb128 0x1
 2276 01a9 EF180000 		.4byte	.LASF100
 2277 01ad 05       		.byte	0x5
 2278 01ae 01       		.uleb128 0x1
 2279 01af 6C120000 		.4byte	.LASF101
ARM GAS  /tmp/cc2xjAK0.s 			page 45


 2280 01b3 05       		.byte	0x5
 2281 01b4 01       		.uleb128 0x1
 2282 01b5 28240000 		.4byte	.LASF102
 2283 01b9 05       		.byte	0x5
 2284 01ba 01       		.uleb128 0x1
 2285 01bb 06210000 		.4byte	.LASF103
 2286 01bf 05       		.byte	0x5
 2287 01c0 01       		.uleb128 0x1
 2288 01c1 1B000000 		.4byte	.LASF104
 2289 01c5 05       		.byte	0x5
 2290 01c6 01       		.uleb128 0x1
 2291 01c7 74000000 		.4byte	.LASF105
 2292 01cb 05       		.byte	0x5
 2293 01cc 01       		.uleb128 0x1
 2294 01cd 6B210000 		.4byte	.LASF106
 2295 01d1 05       		.byte	0x5
 2296 01d2 01       		.uleb128 0x1
 2297 01d3 C7180000 		.4byte	.LASF107
 2298 01d7 05       		.byte	0x5
 2299 01d8 01       		.uleb128 0x1
 2300 01d9 2D150000 		.4byte	.LASF108
 2301 01dd 05       		.byte	0x5
 2302 01de 01       		.uleb128 0x1
 2303 01df 960C0000 		.4byte	.LASF109
 2304 01e3 05       		.byte	0x5
 2305 01e4 01       		.uleb128 0x1
 2306 01e5 50060000 		.4byte	.LASF110
 2307 01e9 05       		.byte	0x5
 2308 01ea 01       		.uleb128 0x1
 2309 01eb B01A0000 		.4byte	.LASF111
 2310 01ef 05       		.byte	0x5
 2311 01f0 01       		.uleb128 0x1
 2312 01f1 E31E0000 		.4byte	.LASF112
 2313 01f5 05       		.byte	0x5
 2314 01f6 01       		.uleb128 0x1
 2315 01f7 F91E0000 		.4byte	.LASF113
 2316 01fb 05       		.byte	0x5
 2317 01fc 01       		.uleb128 0x1
 2318 01fd 31040000 		.4byte	.LASF114
 2319 0201 05       		.byte	0x5
 2320 0202 01       		.uleb128 0x1
 2321 0203 DB1D0000 		.4byte	.LASF115
 2322 0207 05       		.byte	0x5
 2323 0208 01       		.uleb128 0x1
 2324 0209 0F170000 		.4byte	.LASF116
 2325 020d 05       		.byte	0x5
 2326 020e 01       		.uleb128 0x1
 2327 020f D6000000 		.4byte	.LASF117
 2328 0213 05       		.byte	0x5
 2329 0214 01       		.uleb128 0x1
 2330 0215 81110000 		.4byte	.LASF118
 2331 0219 05       		.byte	0x5
 2332 021a 01       		.uleb128 0x1
 2333 021b 1B010000 		.4byte	.LASF119
 2334 021f 05       		.byte	0x5
 2335 0220 01       		.uleb128 0x1
 2336 0221 161B0000 		.4byte	.LASF120
ARM GAS  /tmp/cc2xjAK0.s 			page 46


 2337 0225 05       		.byte	0x5
 2338 0226 01       		.uleb128 0x1
 2339 0227 5D180000 		.4byte	.LASF121
 2340 022b 05       		.byte	0x5
 2341 022c 01       		.uleb128 0x1
 2342 022d CE1E0000 		.4byte	.LASF122
 2343 0231 05       		.byte	0x5
 2344 0232 01       		.uleb128 0x1
 2345 0233 7B0E0000 		.4byte	.LASF123
 2346 0237 05       		.byte	0x5
 2347 0238 01       		.uleb128 0x1
 2348 0239 EC050000 		.4byte	.LASF124
 2349 023d 05       		.byte	0x5
 2350 023e 01       		.uleb128 0x1
 2351 023f BF000000 		.4byte	.LASF125
 2352 0243 05       		.byte	0x5
 2353 0244 01       		.uleb128 0x1
 2354 0245 35060000 		.4byte	.LASF126
 2355 0249 05       		.byte	0x5
 2356 024a 01       		.uleb128 0x1
 2357 024b A00B0000 		.4byte	.LASF127
 2358 024f 05       		.byte	0x5
 2359 0250 01       		.uleb128 0x1
 2360 0251 F0030000 		.4byte	.LASF128
 2361 0255 05       		.byte	0x5
 2362 0256 01       		.uleb128 0x1
 2363 0257 C90F0000 		.4byte	.LASF129
 2364 025b 05       		.byte	0x5
 2365 025c 01       		.uleb128 0x1
 2366 025d 5D230000 		.4byte	.LASF130
 2367 0261 05       		.byte	0x5
 2368 0262 01       		.uleb128 0x1
 2369 0263 98010000 		.4byte	.LASF131
 2370 0267 05       		.byte	0x5
 2371 0268 01       		.uleb128 0x1
 2372 0269 641C0000 		.4byte	.LASF132
 2373 026d 05       		.byte	0x5
 2374 026e 01       		.uleb128 0x1
 2375 026f F7130000 		.4byte	.LASF133
 2376 0273 05       		.byte	0x5
 2377 0274 01       		.uleb128 0x1
 2378 0275 DA170000 		.4byte	.LASF134
 2379 0279 05       		.byte	0x5
 2380 027a 01       		.uleb128 0x1
 2381 027b 2E110000 		.4byte	.LASF135
 2382 027f 05       		.byte	0x5
 2383 0280 01       		.uleb128 0x1
 2384 0281 2D020000 		.4byte	.LASF136
 2385 0285 05       		.byte	0x5
 2386 0286 01       		.uleb128 0x1
 2387 0287 7F120000 		.4byte	.LASF137
 2388 028b 05       		.byte	0x5
 2389 028c 01       		.uleb128 0x1
 2390 028d F50A0000 		.4byte	.LASF138
 2391 0291 05       		.byte	0x5
 2392 0292 01       		.uleb128 0x1
 2393 0293 47100000 		.4byte	.LASF139
ARM GAS  /tmp/cc2xjAK0.s 			page 47


 2394 0297 05       		.byte	0x5
 2395 0298 01       		.uleb128 0x1
 2396 0299 1A1E0000 		.4byte	.LASF140
 2397 029d 05       		.byte	0x5
 2398 029e 01       		.uleb128 0x1
 2399 029f AE200000 		.4byte	.LASF141
 2400 02a3 05       		.byte	0x5
 2401 02a4 01       		.uleb128 0x1
 2402 02a5 49040000 		.4byte	.LASF142
 2403 02a9 05       		.byte	0x5
 2404 02aa 01       		.uleb128 0x1
 2405 02ab 4E080000 		.4byte	.LASF143
 2406 02af 05       		.byte	0x5
 2407 02b0 01       		.uleb128 0x1
 2408 02b1 771F0000 		.4byte	.LASF144
 2409 02b5 05       		.byte	0x5
 2410 02b6 01       		.uleb128 0x1
 2411 02b7 BD050000 		.4byte	.LASF145
 2412 02bb 05       		.byte	0x5
 2413 02bc 01       		.uleb128 0x1
 2414 02bd 6D1B0000 		.4byte	.LASF146
 2415 02c1 05       		.byte	0x5
 2416 02c2 01       		.uleb128 0x1
 2417 02c3 01190000 		.4byte	.LASF147
 2418 02c7 05       		.byte	0x5
 2419 02c8 01       		.uleb128 0x1
 2420 02c9 D51A0000 		.4byte	.LASF148
 2421 02cd 05       		.byte	0x5
 2422 02ce 01       		.uleb128 0x1
 2423 02cf DD130000 		.4byte	.LASF149
 2424 02d3 05       		.byte	0x5
 2425 02d4 01       		.uleb128 0x1
 2426 02d5 7E1E0000 		.4byte	.LASF150
 2427 02d9 05       		.byte	0x5
 2428 02da 01       		.uleb128 0x1
 2429 02db BF0E0000 		.4byte	.LASF151
 2430 02df 05       		.byte	0x5
 2431 02e0 01       		.uleb128 0x1
 2432 02e1 380E0000 		.4byte	.LASF152
 2433 02e5 05       		.byte	0x5
 2434 02e6 01       		.uleb128 0x1
 2435 02e7 9E200000 		.4byte	.LASF153
 2436 02eb 05       		.byte	0x5
 2437 02ec 01       		.uleb128 0x1
 2438 02ed DD0D0000 		.4byte	.LASF154
 2439 02f1 05       		.byte	0x5
 2440 02f2 01       		.uleb128 0x1
 2441 02f3 FE060000 		.4byte	.LASF155
 2442 02f7 05       		.byte	0x5
 2443 02f8 01       		.uleb128 0x1
 2444 02f9 F9220000 		.4byte	.LASF156
 2445 02fd 05       		.byte	0x5
 2446 02fe 01       		.uleb128 0x1
 2447 02ff 4D210000 		.4byte	.LASF157
 2448 0303 05       		.byte	0x5
 2449 0304 01       		.uleb128 0x1
 2450 0305 BF1F0000 		.4byte	.LASF158
ARM GAS  /tmp/cc2xjAK0.s 			page 48


 2451 0309 05       		.byte	0x5
 2452 030a 01       		.uleb128 0x1
 2453 030b 430D0000 		.4byte	.LASF159
 2454 030f 05       		.byte	0x5
 2455 0310 01       		.uleb128 0x1
 2456 0311 90180000 		.4byte	.LASF160
 2457 0315 05       		.byte	0x5
 2458 0316 01       		.uleb128 0x1
 2459 0317 5C010000 		.4byte	.LASF161
 2460 031b 05       		.byte	0x5
 2461 031c 01       		.uleb128 0x1
 2462 031d EC100000 		.4byte	.LASF162
 2463 0321 05       		.byte	0x5
 2464 0322 01       		.uleb128 0x1
 2465 0323 791C0000 		.4byte	.LASF163
 2466 0327 05       		.byte	0x5
 2467 0328 01       		.uleb128 0x1
 2468 0329 8E080000 		.4byte	.LASF164
 2469 032d 05       		.byte	0x5
 2470 032e 01       		.uleb128 0x1
 2471 032f E3240000 		.4byte	.LASF165
 2472 0333 05       		.byte	0x5
 2473 0334 01       		.uleb128 0x1
 2474 0335 44130000 		.4byte	.LASF166
 2475 0339 05       		.byte	0x5
 2476 033a 01       		.uleb128 0x1
 2477 033b D3210000 		.4byte	.LASF167
 2478 033f 05       		.byte	0x5
 2479 0340 01       		.uleb128 0x1
 2480 0341 07030000 		.4byte	.LASF168
 2481 0345 05       		.byte	0x5
 2482 0346 01       		.uleb128 0x1
 2483 0347 8B100000 		.4byte	.LASF169
 2484 034b 05       		.byte	0x5
 2485 034c 01       		.uleb128 0x1
 2486 034d 80010000 		.4byte	.LASF170
 2487 0351 05       		.byte	0x5
 2488 0352 01       		.uleb128 0x1
 2489 0353 4E0E0000 		.4byte	.LASF171
 2490 0357 05       		.byte	0x5
 2491 0358 01       		.uleb128 0x1
 2492 0359 78130000 		.4byte	.LASF172
 2493 035d 05       		.byte	0x5
 2494 035e 01       		.uleb128 0x1
 2495 035f 94220000 		.4byte	.LASF173
 2496 0363 05       		.byte	0x5
 2497 0364 01       		.uleb128 0x1
 2498 0365 8E000000 		.4byte	.LASF174
 2499 0369 05       		.byte	0x5
 2500 036a 01       		.uleb128 0x1
 2501 036b 7B0F0000 		.4byte	.LASF175
 2502 036f 05       		.byte	0x5
 2503 0370 01       		.uleb128 0x1
 2504 0371 14160000 		.4byte	.LASF176
 2505 0375 05       		.byte	0x5
 2506 0376 01       		.uleb128 0x1
 2507 0377 6C040000 		.4byte	.LASF177
ARM GAS  /tmp/cc2xjAK0.s 			page 49


 2508 037b 05       		.byte	0x5
 2509 037c 01       		.uleb128 0x1
 2510 037d E7000000 		.4byte	.LASF178
 2511 0381 05       		.byte	0x5
 2512 0382 01       		.uleb128 0x1
 2513 0383 71230000 		.4byte	.LASF179
 2514 0387 05       		.byte	0x5
 2515 0388 01       		.uleb128 0x1
 2516 0389 7C210000 		.4byte	.LASF180
 2517 038d 05       		.byte	0x5
 2518 038e 01       		.uleb128 0x1
 2519 038f D2080000 		.4byte	.LASF181
 2520 0393 05       		.byte	0x5
 2521 0394 01       		.uleb128 0x1
 2522 0395 33120000 		.4byte	.LASF182
 2523 0399 05       		.byte	0x5
 2524 039a 01       		.uleb128 0x1
 2525 039b C4030000 		.4byte	.LASF183
 2526 039f 05       		.byte	0x5
 2527 03a0 01       		.uleb128 0x1
 2528 03a1 41160000 		.4byte	.LASF184
 2529 03a5 05       		.byte	0x5
 2530 03a6 01       		.uleb128 0x1
 2531 03a7 361D0000 		.4byte	.LASF185
 2532 03ab 05       		.byte	0x5
 2533 03ac 01       		.uleb128 0x1
 2534 03ad BE190000 		.4byte	.LASF186
 2535 03b1 05       		.byte	0x5
 2536 03b2 01       		.uleb128 0x1
 2537 03b3 6C170000 		.4byte	.LASF187
 2538 03b7 05       		.byte	0x5
 2539 03b8 01       		.uleb128 0x1
 2540 03b9 4A230000 		.4byte	.LASF188
 2541 03bd 05       		.byte	0x5
 2542 03be 01       		.uleb128 0x1
 2543 03bf E1110000 		.4byte	.LASF189
 2544 03c3 05       		.byte	0x5
 2545 03c4 01       		.uleb128 0x1
 2546 03c5 8F150000 		.4byte	.LASF190
 2547 03c9 05       		.byte	0x5
 2548 03ca 01       		.uleb128 0x1
 2549 03cb 26200000 		.4byte	.LASF191
 2550 03cf 05       		.byte	0x5
 2551 03d0 01       		.uleb128 0x1
 2552 03d1 F4090000 		.4byte	.LASF192
 2553 03d5 05       		.byte	0x5
 2554 03d6 01       		.uleb128 0x1
 2555 03d7 99240000 		.4byte	.LASF193
 2556 03db 05       		.byte	0x5
 2557 03dc 01       		.uleb128 0x1
 2558 03dd C4150000 		.4byte	.LASF194
 2559 03e1 05       		.byte	0x5
 2560 03e2 01       		.uleb128 0x1
 2561 03e3 561A0000 		.4byte	.LASF195
 2562 03e7 05       		.byte	0x5
 2563 03e8 01       		.uleb128 0x1
 2564 03e9 E1160000 		.4byte	.LASF196
ARM GAS  /tmp/cc2xjAK0.s 			page 50


 2565 03ed 05       		.byte	0x5
 2566 03ee 01       		.uleb128 0x1
 2567 03ef E61F0000 		.4byte	.LASF197
 2568 03f3 05       		.byte	0x5
 2569 03f4 01       		.uleb128 0x1
 2570 03f5 0B0B0000 		.4byte	.LASF198
 2571 03f9 05       		.byte	0x5
 2572 03fa 01       		.uleb128 0x1
 2573 03fb 54070000 		.4byte	.LASF199
 2574 03ff 05       		.byte	0x5
 2575 0400 01       		.uleb128 0x1
 2576 0401 E90F0000 		.4byte	.LASF200
 2577 0405 05       		.byte	0x5
 2578 0406 01       		.uleb128 0x1
 2579 0407 AB030000 		.4byte	.LASF201
 2580 040b 05       		.byte	0x5
 2581 040c 01       		.uleb128 0x1
 2582 040d 9C040000 		.4byte	.LASF202
 2583 0411 05       		.byte	0x5
 2584 0412 01       		.uleb128 0x1
 2585 0413 93210000 		.4byte	.LASF203
 2586 0417 05       		.byte	0x5
 2587 0418 01       		.uleb128 0x1
 2588 0419 F6160000 		.4byte	.LASF204
 2589 041d 05       		.byte	0x5
 2590 041e 01       		.uleb128 0x1
 2591 041f 5E190000 		.4byte	.LASF205
 2592 0423 05       		.byte	0x5
 2593 0424 01       		.uleb128 0x1
 2594 0425 11240000 		.4byte	.LASF206
 2595 0429 05       		.byte	0x5
 2596 042a 01       		.uleb128 0x1
 2597 042b 67090000 		.4byte	.LASF207
 2598 042f 05       		.byte	0x5
 2599 0430 01       		.uleb128 0x1
 2600 0431 A5000000 		.4byte	.LASF208
 2601 0435 05       		.byte	0x5
 2602 0436 01       		.uleb128 0x1
 2603 0437 43000000 		.4byte	.LASF209
 2604 043b 05       		.byte	0x5
 2605 043c 01       		.uleb128 0x1
 2606 043d 620A0000 		.4byte	.LASF210
 2607 0441 05       		.byte	0x5
 2608 0442 01       		.uleb128 0x1
 2609 0443 F6070000 		.4byte	.LASF211
 2610 0447 05       		.byte	0x5
 2611 0448 01       		.uleb128 0x1
 2612 0449 66150000 		.4byte	.LASF212
 2613 044d 05       		.byte	0x5
 2614 044e 01       		.uleb128 0x1
 2615 044f DE020000 		.4byte	.LASF213
 2616 0453 05       		.byte	0x5
 2617 0454 01       		.uleb128 0x1
 2618 0455 10230000 		.4byte	.LASF214
 2619 0459 05       		.byte	0x5
 2620 045a 01       		.uleb128 0x1
 2621 045b A6180000 		.4byte	.LASF215
ARM GAS  /tmp/cc2xjAK0.s 			page 51


 2622 045f 05       		.byte	0x5
 2623 0460 01       		.uleb128 0x1
 2624 0461 1A220000 		.4byte	.LASF216
 2625 0465 05       		.byte	0x5
 2626 0466 01       		.uleb128 0x1
 2627 0467 84170000 		.4byte	.LASF217
 2628 046b 05       		.byte	0x5
 2629 046c 01       		.uleb128 0x1
 2630 046d 9C1B0000 		.4byte	.LASF218
 2631 0471 05       		.byte	0x5
 2632 0472 01       		.uleb128 0x1
 2633 0473 20180000 		.4byte	.LASF219
 2634 0477 05       		.byte	0x5
 2635 0478 01       		.uleb128 0x1
 2636 0479 CE070000 		.4byte	.LASF220
 2637 047d 05       		.byte	0x5
 2638 047e 01       		.uleb128 0x1
 2639 047f 3B1E0000 		.4byte	.LASF221
 2640 0483 05       		.byte	0x5
 2641 0484 01       		.uleb128 0x1
 2642 0485 3A1B0000 		.4byte	.LASF222
 2643 0489 05       		.byte	0x5
 2644 048a 01       		.uleb128 0x1
 2645 048b 7D200000 		.4byte	.LASF223
 2646 048f 05       		.byte	0x5
 2647 0490 01       		.uleb128 0x1
 2648 0491 F8010000 		.4byte	.LASF224
 2649 0495 05       		.byte	0x5
 2650 0496 01       		.uleb128 0x1
 2651 0497 BA0B0000 		.4byte	.LASF225
 2652 049b 05       		.byte	0x5
 2653 049c 01       		.uleb128 0x1
 2654 049d 26130000 		.4byte	.LASF226
 2655 04a1 05       		.byte	0x5
 2656 04a2 01       		.uleb128 0x1
 2657 04a3 AD0E0000 		.4byte	.LASF227
 2658 04a7 05       		.byte	0x5
 2659 04a8 01       		.uleb128 0x1
 2660 04a9 7E150000 		.4byte	.LASF228
 2661 04ad 05       		.byte	0x5
 2662 04ae 01       		.uleb128 0x1
 2663 04af 8D090000 		.4byte	.LASF229
 2664 04b3 05       		.byte	0x5
 2665 04b4 01       		.uleb128 0x1
 2666 04b5 13150000 		.4byte	.LASF230
 2667 04b9 05       		.byte	0x5
 2668 04ba 01       		.uleb128 0x1
 2669 04bb 211F0000 		.4byte	.LASF231
 2670 04bf 05       		.byte	0x5
 2671 04c0 01       		.uleb128 0x1
 2672 04c1 EB120000 		.4byte	.LASF232
 2673 04c5 05       		.byte	0x5
 2674 04c6 01       		.uleb128 0x1
 2675 04c7 CF160000 		.4byte	.LASF233
 2676 04cb 05       		.byte	0x5
 2677 04cc 01       		.uleb128 0x1
 2678 04cd 51150000 		.4byte	.LASF234
ARM GAS  /tmp/cc2xjAK0.s 			page 52


 2679 04d1 05       		.byte	0x5
 2680 04d2 01       		.uleb128 0x1
 2681 04d3 B2070000 		.4byte	.LASF235
 2682 04d7 05       		.byte	0x5
 2683 04d8 01       		.uleb128 0x1
 2684 04d9 CF100000 		.4byte	.LASF236
 2685 04dd 05       		.byte	0x5
 2686 04de 01       		.uleb128 0x1
 2687 04df 05100000 		.4byte	.LASF237
 2688 04e3 05       		.byte	0x5
 2689 04e4 01       		.uleb128 0x1
 2690 04e5 C3040000 		.4byte	.LASF238
 2691 04e9 05       		.byte	0x5
 2692 04ea 01       		.uleb128 0x1
 2693 04eb 091A0000 		.4byte	.LASF239
 2694 04ef 05       		.byte	0x5
 2695 04f0 01       		.uleb128 0x1
 2696 04f1 A3230000 		.4byte	.LASF240
 2697 04f5 05       		.byte	0x5
 2698 04f6 01       		.uleb128 0x1
 2699 04f7 FF080000 		.4byte	.LASF241
 2700 04fb 05       		.byte	0x5
 2701 04fc 01       		.uleb128 0x1
 2702 04fd 33140000 		.4byte	.LASF242
 2703 0501 05       		.byte	0x5
 2704 0502 01       		.uleb128 0x1
 2705 0503 6C080000 		.4byte	.LASF243
 2706 0507 05       		.byte	0x5
 2707 0508 01       		.uleb128 0x1
 2708 0509 C60D0000 		.4byte	.LASF244
 2709 050d 05       		.byte	0x5
 2710 050e 01       		.uleb128 0x1
 2711 050f 841D0000 		.4byte	.LASF245
 2712 0513 05       		.byte	0x5
 2713 0514 01       		.uleb128 0x1
 2714 0515 11080000 		.4byte	.LASF246
 2715 0519 05       		.byte	0x5
 2716 051a 01       		.uleb128 0x1
 2717 051b 440F0000 		.4byte	.LASF247
 2718 051f 05       		.byte	0x5
 2719 0520 01       		.uleb128 0x1
 2720 0521 4F0A0000 		.4byte	.LASF248
 2721 0525 05       		.byte	0x5
 2722 0526 01       		.uleb128 0x1
 2723 0527 57240000 		.4byte	.LASF249
 2724 052b 05       		.byte	0x5
 2725 052c 01       		.uleb128 0x1
 2726 052d D4060000 		.4byte	.LASF250
 2727 0531 05       		.byte	0x5
 2728 0532 01       		.uleb128 0x1
 2729 0533 3C170000 		.4byte	.LASF251
 2730 0537 05       		.byte	0x5
 2731 0538 01       		.uleb128 0x1
 2732 0539 5A160000 		.4byte	.LASF252
 2733 053d 05       		.byte	0x5
 2734 053e 01       		.uleb128 0x1
 2735 053f 23050000 		.4byte	.LASF253
ARM GAS  /tmp/cc2xjAK0.s 			page 53


 2736 0543 05       		.byte	0x5
 2737 0544 01       		.uleb128 0x1
 2738 0545 B9080000 		.4byte	.LASF254
 2739 0549 05       		.byte	0x5
 2740 054a 01       		.uleb128 0x1
 2741 054b B2020000 		.4byte	.LASF255
 2742 054f 05       		.byte	0x5
 2743 0550 01       		.uleb128 0x1
 2744 0551 78240000 		.4byte	.LASF256
 2745 0555 05       		.byte	0x5
 2746 0556 01       		.uleb128 0x1
 2747 0557 55090000 		.4byte	.LASF257
 2748 055b 05       		.byte	0x5
 2749 055c 01       		.uleb128 0x1
 2750 055d C1210000 		.4byte	.LASF258
 2751 0561 05       		.byte	0x5
 2752 0562 01       		.uleb128 0x1
 2753 0563 C2010000 		.4byte	.LASF259
 2754 0567 05       		.byte	0x5
 2755 0568 01       		.uleb128 0x1
 2756 0569 0E120000 		.4byte	.LASF260
 2757 056d 05       		.byte	0x5
 2758 056e 01       		.uleb128 0x1
 2759 056f 3F0C0000 		.4byte	.LASF261
 2760 0573 05       		.byte	0x5
 2761 0574 01       		.uleb128 0x1
 2762 0575 D0240000 		.4byte	.LASF262
 2763 0579 05       		.byte	0x5
 2764 057a 01       		.uleb128 0x1
 2765 057b B30D0000 		.4byte	.LASF263
 2766 057f 05       		.byte	0x5
 2767 0580 01       		.uleb128 0x1
 2768 0581 8C0D0000 		.4byte	.LASF264
 2769 0585 05       		.byte	0x5
 2770 0586 01       		.uleb128 0x1
 2771 0587 D80A0000 		.4byte	.LASF265
 2772 058b 05       		.byte	0x5
 2773 058c 01       		.uleb128 0x1
 2774 058d 6A070000 		.4byte	.LASF266
 2775 0591 05       		.byte	0x5
 2776 0592 01       		.uleb128 0x1
 2777 0593 FD0E0000 		.4byte	.LASF267
 2778 0597 05       		.byte	0x5
 2779 0598 01       		.uleb128 0x1
 2780 0599 E2090000 		.4byte	.LASF268
 2781 059d 05       		.byte	0x5
 2782 059e 01       		.uleb128 0x1
 2783 059f 89140000 		.4byte	.LASF269
 2784 05a3 05       		.byte	0x5
 2785 05a4 01       		.uleb128 0x1
 2786 05a5 B1160000 		.4byte	.LASF270
 2787 05a9 05       		.byte	0x5
 2788 05aa 01       		.uleb128 0x1
 2789 05ab 00000000 		.4byte	.LASF271
 2790 05af 05       		.byte	0x5
 2791 05b0 01       		.uleb128 0x1
 2792 05b1 F8240000 		.4byte	.LASF272
ARM GAS  /tmp/cc2xjAK0.s 			page 54


 2793 05b5 05       		.byte	0x5
 2794 05b6 01       		.uleb128 0x1
 2795 05b7 250E0000 		.4byte	.LASF273
 2796 05bb 05       		.byte	0x5
 2797 05bc 01       		.uleb128 0x1
 2798 05bd EA080000 		.4byte	.LASF274
 2799 05c1 05       		.byte	0x5
 2800 05c2 01       		.uleb128 0x1
 2801 05c3 21190000 		.4byte	.LASF275
 2802 05c7 05       		.byte	0x5
 2803 05c8 01       		.uleb128 0x1
 2804 05c9 C5090000 		.4byte	.LASF276
 2805 05cd 05       		.byte	0x5
 2806 05ce 01       		.uleb128 0x1
 2807 05cf BC100000 		.4byte	.LASF277
 2808 05d3 05       		.byte	0x5
 2809 05d4 01       		.uleb128 0x1
 2810 05d5 8D0B0000 		.4byte	.LASF278
 2811 05d9 05       		.byte	0x5
 2812 05da 01       		.uleb128 0x1
 2813 05db 4A050000 		.4byte	.LASF279
 2814 05df 05       		.byte	0x5
 2815 05e0 01       		.uleb128 0x1
 2816 05e1 FE120000 		.4byte	.LASF280
 2817 05e5 05       		.byte	0x5
 2818 05e6 01       		.uleb128 0x1
 2819 05e7 41190000 		.4byte	.LASF281
 2820 05eb 05       		.byte	0x5
 2821 05ec 01       		.uleb128 0x1
 2822 05ed 3D150000 		.4byte	.LASF282
 2823 05f1 05       		.byte	0x5
 2824 05f2 01       		.uleb128 0x1
 2825 05f3 300F0000 		.4byte	.LASF283
 2826 05f7 05       		.byte	0x5
 2827 05f8 01       		.uleb128 0x1
 2828 05f9 9A050000 		.4byte	.LASF284
 2829 05fd 05       		.byte	0x5
 2830 05fe 01       		.uleb128 0x1
 2831 05ff 88070000 		.4byte	.LASF285
 2832 0603 05       		.byte	0x5
 2833 0604 01       		.uleb128 0x1
 2834 0605 3E180000 		.4byte	.LASF286
 2835 0609 05       		.byte	0x5
 2836 060a 01       		.uleb128 0x1
 2837 060b FD230000 		.4byte	.LASF287
 2838 060f 05       		.byte	0x5
 2839 0610 01       		.uleb128 0x1
 2840 0611 D4030000 		.4byte	.LASF288
 2841 0615 05       		.byte	0x5
 2842 0616 01       		.uleb128 0x1
 2843 0617 F20B0000 		.4byte	.LASF289
 2844 061b 05       		.byte	0x5
 2845 061c 01       		.uleb128 0x1
 2846 061d D3230000 		.4byte	.LASF290
 2847 0621 05       		.byte	0x5
 2848 0622 01       		.uleb128 0x1
 2849 0623 6D0D0000 		.4byte	.LASF291
ARM GAS  /tmp/cc2xjAK0.s 			page 55


 2850 0627 05       		.byte	0x5
 2851 0628 01       		.uleb128 0x1
 2852 0629 E6200000 		.4byte	.LASF292
 2853 062d 05       		.byte	0x5
 2854 062e 01       		.uleb128 0x1
 2855 062f 011B0000 		.4byte	.LASF293
 2856 0633 05       		.byte	0x5
 2857 0634 01       		.uleb128 0x1
 2858 0635 69060000 		.4byte	.LASF294
 2859 0639 05       		.byte	0x5
 2860 063a 01       		.uleb128 0x1
 2861 063b 6E050000 		.4byte	.LASF295
 2862 063f 05       		.byte	0x5
 2863 0640 01       		.uleb128 0x1
 2864 0641 AF240000 		.4byte	.LASF296
 2865 0645 05       		.byte	0x5
 2866 0646 01       		.uleb128 0x1
 2867 0647 BA220000 		.4byte	.LASF297
 2868 064b 05       		.byte	0x5
 2869 064c 01       		.uleb128 0x1
 2870 064d 35010000 		.4byte	.LASF298
 2871 0651 05       		.byte	0x5
 2872 0652 01       		.uleb128 0x1
 2873 0653 5E1B0000 		.4byte	.LASF299
 2874 0657 05       		.byte	0x5
 2875 0658 01       		.uleb128 0x1
 2876 0659 C4170000 		.4byte	.LASF300
 2877 065d 05       		.byte	0x5
 2878 065e 01       		.uleb128 0x1
 2879 065f D4190000 		.4byte	.LASF301
 2880 0663 05       		.byte	0x5
 2881 0664 01       		.uleb128 0x1
 2882 0665 7D180000 		.4byte	.LASF302
 2883 0669 05       		.byte	0x5
 2884 066a 01       		.uleb128 0x1
 2885 066b 11180000 		.4byte	.LASF303
 2886 066f 05       		.byte	0x5
 2887 0670 01       		.uleb128 0x1
 2888 0671 90200000 		.4byte	.LASF304
 2889 0675 05       		.byte	0x5
 2890 0676 01       		.uleb128 0x1
 2891 0677 A01A0000 		.4byte	.LASF305
 2892 067b 05       		.byte	0x5
 2893 067c 01       		.uleb128 0x1
 2894 067d 48120000 		.4byte	.LASF306
 2895 0681 05       		.byte	0x5
 2896 0682 01       		.uleb128 0x1
 2897 0683 E0180000 		.4byte	.LASF307
 2898 0687 05       		.byte	0x5
 2899 0688 01       		.uleb128 0x1
 2900 0689 C51B0000 		.4byte	.LASF308
 2901 068d 05       		.byte	0x5
 2902 068e 01       		.uleb128 0x1
 2903 068f 74190000 		.4byte	.LASF309
 2904 0693 05       		.byte	0x5
 2905 0694 01       		.uleb128 0x1
 2906 0695 CF0C0000 		.4byte	.LASF310
ARM GAS  /tmp/cc2xjAK0.s 			page 56


 2907 0699 05       		.byte	0x5
 2908 069a 01       		.uleb128 0x1
 2909 069b 601E0000 		.4byte	.LASF311
 2910 069f 05       		.byte	0x5
 2911 06a0 01       		.uleb128 0x1
 2912 06a1 F10D0000 		.4byte	.LASF312
 2913 06a5 05       		.byte	0x5
 2914 06a6 01       		.uleb128 0x1
 2915 06a7 49110000 		.4byte	.LASF313
 2916 06ab 05       		.byte	0x5
 2917 06ac 01       		.uleb128 0x1
 2918 06ad 43010000 		.4byte	.LASF314
 2919 06b1 05       		.byte	0x5
 2920 06b2 01       		.uleb128 0x1
 2921 06b3 70110000 		.4byte	.LASF315
 2922 06b7 05       		.byte	0x5
 2923 06b8 01       		.uleb128 0x1
 2924 06b9 7F080000 		.4byte	.LASF316
 2925 06bd 05       		.byte	0x5
 2926 06be 01       		.uleb128 0x1
 2927 06bf A61D0000 		.4byte	.LASF317
 2928 06c3 05       		.byte	0x5
 2929 06c4 01       		.uleb128 0x1
 2930 06c5 701E0000 		.4byte	.LASF318
 2931 06c9 05       		.byte	0x5
 2932 06ca 01       		.uleb128 0x1
 2933 06cb 300C0000 		.4byte	.LASF319
 2934 06cf 05       		.byte	0x5
 2935 06d0 01       		.uleb128 0x1
 2936 06d1 C5060000 		.4byte	.LASF320
 2937 06d5 05       		.byte	0x5
 2938 06d6 01       		.uleb128 0x1
 2939 06d7 31070000 		.4byte	.LASF321
 2940 06db 05       		.byte	0x5
 2941 06dc 01       		.uleb128 0x1
 2942 06dd 6B0B0000 		.4byte	.LASF322
 2943 06e1 05       		.byte	0x5
 2944 06e2 01       		.uleb128 0x1
 2945 06e3 B5150000 		.4byte	.LASF323
 2946 06e7 05       		.byte	0x5
 2947 06e8 01       		.uleb128 0x1
 2948 06e9 AB220000 		.4byte	.LASF324
 2949 06ed 05       		.byte	0x5
 2950 06ee 01       		.uleb128 0x1
 2951 06ef 56120000 		.4byte	.LASF325
 2952 06f3 05       		.byte	0x5
 2953 06f4 01       		.uleb128 0x1
 2954 06f5 8D1B0000 		.4byte	.LASF326
 2955 06f9 05       		.byte	0x5
 2956 06fa 01       		.uleb128 0x1
 2957 06fb 580F0000 		.4byte	.LASF327
 2958 06ff 05       		.byte	0x5
 2959 0700 01       		.uleb128 0x1
 2960 0701 3F0A0000 		.4byte	.LASF328
 2961 0705 05       		.byte	0x5
 2962 0706 01       		.uleb128 0x1
 2963 0707 C3230000 		.4byte	.LASF329
ARM GAS  /tmp/cc2xjAK0.s 			page 57


 2964 070b 05       		.byte	0x5
 2965 070c 01       		.uleb128 0x1
 2966 070d DC050000 		.4byte	.LASF330
 2967 0711 05       		.byte	0x5
 2968 0712 01       		.uleb128 0x1
 2969 0713 F7020000 		.4byte	.LASF331
 2970 0717 05       		.byte	0x5
 2971 0718 01       		.uleb128 0x1
 2972 0719 93230000 		.4byte	.LASF332
 2973 071d 05       		.byte	0x5
 2974 071e 01       		.uleb128 0x1
 2975 071f 12040000 		.4byte	.LASF333
 2976 0723 05       		.byte	0x5
 2977 0724 01       		.uleb128 0x1
 2978 0725 891A0000 		.4byte	.LASF334
 2979 0729 05       		.byte	0x5
 2980 072a 01       		.uleb128 0x1
 2981 072b 74100000 		.4byte	.LASF335
 2982 072f 05       		.byte	0x5
 2983 0730 01       		.uleb128 0x1
 2984 0731 A30D0000 		.4byte	.LASF336
 2985 0735 05       		.byte	0x5
 2986 0736 01       		.uleb128 0x1
 2987 0737 7E030000 		.4byte	.LASF337
 2988 073b 05       		.byte	0x5
 2989 073c 01       		.uleb128 0x1
 2990 073d 470B0000 		.4byte	.LASF338
 2991 0741 05       		.byte	0x5
 2992 0742 01       		.uleb128 0x1
 2993 0743 A0060000 		.4byte	.LASF339
 2994 0747 05       		.byte	0x5
 2995 0748 01       		.uleb128 0x1
 2996 0749 0C070000 		.4byte	.LASF340
 2997 074d 05       		.byte	0x5
 2998 074e 01       		.uleb128 0x1
 2999 074f 000E0000 		.4byte	.LASF341
 3000 0753 05       		.byte	0x5
 3001 0754 01       		.uleb128 0x1
 3002 0755 C3110000 		.4byte	.LASF342
 3003 0759 05       		.byte	0x5
 3004 075a 01       		.uleb128 0x1
 3005 075b B10C0000 		.4byte	.LASF343
 3006 075f 05       		.byte	0x5
 3007 0760 01       		.uleb128 0x1
 3008 0761 9A100000 		.4byte	.LASF344
 3009 0765 05       		.byte	0x5
 3010 0766 01       		.uleb128 0x1
 3011 0767 9A1E0000 		.4byte	.LASF345
 3012 076b 05       		.byte	0x5
 3013 076c 01       		.uleb128 0x1
 3014 076d 0F0F0000 		.4byte	.LASF346
 3015 0771 05       		.byte	0x5
 3016 0772 01       		.uleb128 0x1
 3017 0773 1F210000 		.4byte	.LASF347
 3018 0777 05       		.byte	0x5
 3019 0778 01       		.uleb128 0x1
 3020 0779 A8090000 		.4byte	.LASF348
ARM GAS  /tmp/cc2xjAK0.s 			page 58


 3021 077d 05       		.byte	0x5
 3022 077e 01       		.uleb128 0x1
 3023 077f 10110000 		.4byte	.LASF349
 3024 0783 05       		.byte	0x5
 3025 0784 01       		.uleb128 0x1
 3026 0785 A01F0000 		.4byte	.LASF350
 3027 0789 05       		.byte	0x5
 3028 078a 01       		.uleb128 0x1
 3029 078b AB120000 		.4byte	.LASF351
 3030 078f 05       		.byte	0x5
 3031 0790 01       		.uleb128 0x1
 3032 0791 F91D0000 		.4byte	.LASF352
 3033 0795 05       		.byte	0x5
 3034 0796 01       		.uleb128 0x1
 3035 0797 CF120000 		.4byte	.LASF353
 3036 079b 05       		.byte	0x5
 3037 079c 01       		.uleb128 0x1
 3038 079d 4E1F0000 		.4byte	.LASF354
 3039 07a1 05       		.byte	0x5
 3040 07a2 01       		.uleb128 0x1
 3041 07a3 6F160000 		.4byte	.LASF355
 3042 07a7 05       		.byte	0x5
 3043 07a8 01       		.uleb128 0x1
 3044 07a9 E4010000 		.4byte	.LASF356
 3045 07ad 05       		.byte	0x5
 3046 07ae 01       		.uleb128 0x1
 3047 07af 280A0000 		.4byte	.LASF357
 3048 07b3 05       		.byte	0x5
 3049 07b4 01       		.uleb128 0x1
 3050 07b5 910A0000 		.4byte	.LASF358
 3051 07b9 05       		.byte	0x5
 3052 07ba 01       		.uleb128 0x1
 3053 07bb 29120000 		.4byte	.LASF359
 3054 07bf 05       		.byte	0x5
 3055 07c0 01       		.uleb128 0x1
 3056 07c1 5F220000 		.4byte	.LASF360
 3057 07c5 05       		.byte	0x5
 3058 07c6 01       		.uleb128 0x1
 3059 07c7 4A1A0000 		.4byte	.LASF361
 3060 07cb 05       		.byte	0x5
 3061 07cc 01       		.uleb128 0x1
 3062 07cd 43060000 		.4byte	.LASF362
 3063 07d1 05       		.byte	0x5
 3064 07d2 01       		.uleb128 0x1
 3065 07d3 B1050000 		.4byte	.LASF363
 3066 07d7 05       		.byte	0x5
 3067 07d8 01       		.uleb128 0x1
 3068 07d9 6F180000 		.4byte	.LASF364
 3069 07dd 05       		.byte	0x5
 3070 07de 01       		.uleb128 0x1
 3071 07df 6A1F0000 		.4byte	.LASF365
 3072 07e3 05       		.byte	0x5
 3073 07e4 01       		.uleb128 0x1
 3074 07e5 771D0000 		.4byte	.LASF366
 3075 07e9 05       		.byte	0x5
 3076 07ea 01       		.uleb128 0x1
 3077 07eb 970E0000 		.4byte	.LASF367
ARM GAS  /tmp/cc2xjAK0.s 			page 59


 3078 07ef 05       		.byte	0x5
 3079 07f0 01       		.uleb128 0x1
 3080 07f1 BC1E0000 		.4byte	.LASF368
 3081 07f5 05       		.byte	0x5
 3082 07f6 01       		.uleb128 0x1
 3083 07f7 B8170000 		.4byte	.LASF369
 3084 07fb 05       		.byte	0x5
 3085 07fc 01       		.uleb128 0x1
 3086 07fd E7070000 		.4byte	.LASF370
 3087 0801 05       		.byte	0x5
 3088 0802 01       		.uleb128 0x1
 3089 0803 790A0000 		.4byte	.LASF371
 3090 0807 05       		.byte	0x5
 3091 0808 01       		.uleb128 0x1
 3092 0809 200B0000 		.4byte	.LASF372
 3093 080d 05       		.byte	0x5
 3094 080e 01       		.uleb128 0x1
 3095 080f A1120000 		.4byte	.LASF373
 3096 0813 05       		.byte	0x5
 3097 0814 00       		.uleb128 0
 3098 0815 40070000 		.4byte	.LASF374
 3099 0819 05       		.byte	0x5
 3100 081a 00       		.uleb128 0
 3101 081b 3E210000 		.4byte	.LASF375
 3102 081f 00       		.byte	0
 3103              		.section	.debug_macro,"G",%progbits,wm4.stdarg.h.31.b70f21342353634f7b44d85f85f13832,comdat
 3104              	.Ldebug_macro2:
 3105 0000 0400     		.2byte	0x4
 3106 0002 00       		.byte	0
 3107 0003 05       		.byte	0x5
 3108 0004 1F       		.uleb128 0x1f
 3109 0005 BA0A0000 		.4byte	.LASF376
 3110 0009 05       		.byte	0x5
 3111 000a 20       		.uleb128 0x20
 3112 000b 661D0000 		.4byte	.LASF377
 3113 000f 06       		.byte	0x6
 3114 0010 22       		.uleb128 0x22
 3115 0011 5B170000 		.4byte	.LASF378
 3116 0015 05       		.byte	0x5
 3117 0016 27       		.uleb128 0x27
 3118 0017 18100000 		.4byte	.LASF379
 3119 001b 05       		.byte	0x5
 3120 001c 2F       		.uleb128 0x2f
 3121 001d E3190000 		.4byte	.LASF380
 3122 0021 05       		.byte	0x5
 3123 0022 30       		.uleb128 0x30
 3124 0023 461C0000 		.4byte	.LASF381
 3125 0027 05       		.byte	0x5
 3126 0028 31       		.uleb128 0x31
 3127 0029 A0130000 		.4byte	.LASF382
 3128 002d 05       		.byte	0x5
 3129 002e 33       		.uleb128 0x33
 3130 002f 0F140000 		.4byte	.LASF383
 3131 0033 05       		.byte	0x5
 3132 0034 35       		.uleb128 0x35
 3133 0035 63140000 		.4byte	.LASF384
 3134 0039 05       		.byte	0x5
ARM GAS  /tmp/cc2xjAK0.s 			page 60


 3135 003a 6C       		.uleb128 0x6c
 3136 003b 18050000 		.4byte	.LASF385
 3137 003f 05       		.byte	0x5
 3138 0040 6F       		.uleb128 0x6f
 3139 0041 52010000 		.4byte	.LASF386
 3140 0045 05       		.byte	0x5
 3141 0046 72       		.uleb128 0x72
 3142 0047 140D0000 		.4byte	.LASF387
 3143 004b 05       		.byte	0x5
 3144 004c 75       		.uleb128 0x75
 3145 004d 5B030000 		.4byte	.LASF388
 3146 0051 05       		.byte	0x5
 3147 0052 78       		.uleb128 0x78
 3148 0053 86230000 		.4byte	.LASF389
 3149 0057 00       		.byte	0
 3150              		.section	.debug_line,"",%progbits
 3151              	.Ldebug_line0:
 3152 0000 54020000 		.section	.debug_str,"MS",%progbits,1
 3152      0200AD00 
 3152      00000201 
 3152      FB0E0D00 
 3152      01010101 
 3153              	.LASF271:
 3154 0000 5F5F4143 		.ascii	"__ACCUM_EPSILON__ 0x1P-15K\000"
 3154      43554D5F 
 3154      45505349 
 3154      4C4F4E5F 
 3154      5F203078 
 3155              	.LASF104:
 3156 001b 5F5F4C4F 		.ascii	"__LONG_LONG_MAX__ 9223372036854775807LL\000"
 3156      4E475F4C 
 3156      4F4E475F 
 3156      4D41585F 
 3156      5F203932 
 3157              	.LASF209:
 3158 0043 5F5F4445 		.ascii	"__DEC64_SUBNORMAL_MIN__ 0.000000000000001E-383DD\000"
 3158      4336345F 
 3158      5355424E 
 3158      4F524D41 
 3158      4C5F4D49 
 3159              	.LASF105:
 3160 0074 5F5F5743 		.ascii	"__WCHAR_MAX__ 4294967295U\000"
 3160      4841525F 
 3160      4D41585F 
 3160      5F203432 
 3160      39343936 
 3161              	.LASF174:
 3162 008e 5F5F4442 		.ascii	"__DBL_DECIMAL_DIG__ 17\000"
 3162      4C5F4445 
 3162      43494D41 
 3162      4C5F4449 
 3162      475F5F20 
 3163              	.LASF208:
 3164 00a5 5F5F4445 		.ascii	"__DEC64_EPSILON__ 1E-15DD\000"
 3164      4336345F 
 3164      45505349 
 3164      4C4F4E5F 
ARM GAS  /tmp/cc2xjAK0.s 			page 61


 3164      5F203145 
 3165              	.LASF125:
 3166 00bf 5F5F494E 		.ascii	"__INT_LEAST8_MAX__ 127\000"
 3166      545F4C45 
 3166      41535438 
 3166      5F4D4158 
 3166      5F5F2031 
 3167              	.LASF117:
 3168 00d6 5F5F494E 		.ascii	"__INT8_MAX__ 127\000"
 3168      54385F4D 
 3168      41585F5F 
 3168      20313237 
 3168      00
 3169              	.LASF178:
 3170 00e7 5F5F4442 		.ascii	"__DBL_DENORM_MIN__ double(4.9406564584124654e-324L)"
 3170      4C5F4445 
 3170      4E4F524D 
 3170      5F4D494E 
 3170      5F5F2064 
 3171 011a 00       		.ascii	"\000"
 3172              	.LASF119:
 3173 011b 5F5F494E 		.ascii	"__INT32_MAX__ 2147483647L\000"
 3173      5433325F 
 3173      4D41585F 
 3173      5F203231 
 3173      34373438 
 3174              	.LASF298:
 3175 0135 5F5F5151 		.ascii	"__QQ_IBIT__ 0\000"
 3175      5F494249 
 3175      545F5F20 
 3175      3000
 3176              	.LASF314:
 3177 0143 5F5F5544 		.ascii	"__UDQ_IBIT__ 0\000"
 3177      515F4942 
 3177      49545F5F 
 3177      203000
 3178              	.LASF386:
 3179 0152 5F56415F 		.ascii	"_VA_LIST \000"
 3179      4C495354 
 3179      2000
 3180              	.LASF161:
 3181 015c 5F5F464C 		.ascii	"__FLT_MAX__ 3.4028234663852886e+38F\000"
 3181      545F4D41 
 3181      585F5F20 
 3181      332E3430 
 3181      32383233 
 3182              	.LASF170:
 3183 0180 5F5F4442 		.ascii	"__DBL_MIN_EXP__ (-1021)\000"
 3183      4C5F4D49 
 3183      4E5F4558 
 3183      505F5F20 
 3183      282D3130 
 3184              	.LASF131:
 3185 0198 5F5F494E 		.ascii	"__INT_LEAST64_MAX__ 9223372036854775807LL\000"
 3185      545F4C45 
 3185      41535436 
 3185      345F4D41 
ARM GAS  /tmp/cc2xjAK0.s 			page 62


 3185      585F5F20 
 3186              	.LASF259:
 3187 01c2 5F5F5341 		.ascii	"__SACCUM_MIN__ (-0X1P7HK-0X1P7HK)\000"
 3187      4343554D 
 3187      5F4D494E 
 3187      5F5F2028 
 3187      2D305831 
 3188              	.LASF356:
 3189 01e4 5F5F5349 		.ascii	"__SIZEOF_WINT_T__ 4\000"
 3189      5A454F46 
 3189      5F57494E 
 3189      545F545F 
 3189      5F203400 
 3190              	.LASF224:
 3191 01f8 5F5F5553 		.ascii	"__USFRACT_MIN__ 0.0UHR\000"
 3191      46524143 
 3191      545F4D49 
 3191      4E5F5F20 
 3191      302E3055 
 3192              	.LASF34:
 3193 020f 5F5F474E 		.ascii	"__GNUC_MINOR__ 7\000"
 3193      55435F4D 
 3193      494E4F52 
 3193      5F5F2037 
 3193      00
 3194              	.LASF11:
 3195 0220 756E7369 		.ascii	"unsigned int\000"
 3195      676E6564 
 3195      20696E74 
 3195      00
 3196              	.LASF136:
 3197 022d 5F5F5549 		.ascii	"__UINT16_C(c) c\000"
 3197      4E543136 
 3197      5F432863 
 3197      29206300 
 3198              	.LASF51:
 3199 023d 5F5F5349 		.ascii	"__SIZEOF_SIZE_T__ 4\000"
 3199      5A454F46 
 3199      5F53495A 
 3199      455F545F 
 3199      5F203400 
 3200              	.LASF67:
 3201 0251 5F5F4348 		.ascii	"__CHAR16_TYPE__ short unsigned int\000"
 3201      41523136 
 3201      5F545950 
 3201      455F5F20 
 3201      73686F72 
 3202              	.LASF50:
 3203 0274 5F5F5349 		.ascii	"__SIZEOF_LONG_DOUBLE__ 8\000"
 3203      5A454F46 
 3203      5F4C4F4E 
 3203      475F444F 
 3203      55424C45 
 3204              	.LASF33:
 3205 028d 5F5F474E 		.ascii	"__GNUC__ 4\000"
 3205      55435F5F 
 3205      203400
ARM GAS  /tmp/cc2xjAK0.s 			page 63


 3206              	.LASF55:
 3207 0298 5F5F4F52 		.ascii	"__ORDER_BIG_ENDIAN__ 4321\000"
 3207      4445525F 
 3207      4249475F 
 3207      454E4449 
 3207      414E5F5F 
 3208              	.LASF255:
 3209 02b2 5F5F554C 		.ascii	"__ULLFRACT_MAX__ 0XFFFFFFFFFFFFFFFFP-64ULLR\000"
 3209      4C465241 
 3209      43545F4D 
 3209      41585F5F 
 3209      20305846 
 3210              	.LASF213:
 3211 02de 5F5F4445 		.ascii	"__DEC128_MIN__ 1E-6143DL\000"
 3211      43313238 
 3211      5F4D494E 
 3211      5F5F2031 
 3211      452D3631 
 3212              	.LASF331:
 3213 02f7 5F5F5554 		.ascii	"__UTA_FBIT__ 64\000"
 3213      415F4642 
 3213      49545F5F 
 3213      20363400 
 3214              	.LASF168:
 3215 0307 5F5F4442 		.ascii	"__DBL_MANT_DIG__ 53\000"
 3215      4C5F4D41 
 3215      4E545F44 
 3215      49475F5F 
 3215      20353300 
 3216              	.LASF85:
 3217 031b 5F5F5549 		.ascii	"__UINT_LEAST64_TYPE__ long long unsigned int\000"
 3217      4E545F4C 
 3217      45415354 
 3217      36345F54 
 3217      5950455F 
 3218              	.LASF40:
 3219 0348 5F5F4154 		.ascii	"__ATOMIC_RELEASE 3\000"
 3219      4F4D4943 
 3219      5F52454C 
 3219      45415345 
 3219      203300
 3220              	.LASF388:
 3221 035b 5F56415F 		.ascii	"_VA_LIST_T_H \000"
 3221      4C495354 
 3221      5F545F48 
 3221      2000
 3222              	.LASF62:
 3223 0369 5F5F5054 		.ascii	"__PTRDIFF_TYPE__ int\000"
 3223      52444946 
 3223      465F5459 
 3223      50455F5F 
 3223      20696E74 
 3224              	.LASF337:
 3225 037e 5F5F4348 		.ascii	"__CHAR_UNSIGNED__ 1\000"
 3225      41525F55 
 3225      4E534947 
 3225      4E45445F 
ARM GAS  /tmp/cc2xjAK0.s 			page 64


 3225      5F203100 
 3226              	.LASF71:
 3227 0392 5F5F494E 		.ascii	"__INT16_TYPE__ short int\000"
 3227      5431365F 
 3227      54595045 
 3227      5F5F2073 
 3227      686F7274 
 3228              	.LASF201:
 3229 03ab 5F5F4445 		.ascii	"__DEC32_EPSILON__ 1E-6DF\000"
 3229      4333325F 
 3229      45505349 
 3229      4C4F4E5F 
 3229      5F203145 
 3230              	.LASF183:
 3231 03c4 5F5F4C44 		.ascii	"__LDBL_DIG__ 15\000"
 3231      424C5F44 
 3231      49475F5F 
 3231      20313500 
 3232              	.LASF288:
 3233 03d4 5F5F4C4C 		.ascii	"__LLACCUM_IBIT__ 32\000"
 3233      41434355 
 3233      4D5F4942 
 3233      49545F5F 
 3233      20333200 
 3234              	.LASF8:
 3235 03e8 6C657462 		.ascii	"letbase\000"
 3235      61736500 
 3236              	.LASF128:
 3237 03f0 5F5F494E 		.ascii	"__INT16_C(c) c\000"
 3237      5431365F 
 3237      43286329 
 3237      206300
 3238              	.LASF47:
 3239 03ff 5F5F5349 		.ascii	"__SIZEOF_SHORT__ 2\000"
 3239      5A454F46 
 3239      5F53484F 
 3239      52545F5F 
 3239      203200
 3240              	.LASF333:
 3241 0412 5F5F5245 		.ascii	"__REGISTER_PREFIX__ \000"
 3241      47495354 
 3241      45525F50 
 3241      52454649 
 3241      585F5F20 
 3242              	.LASF22:
 3243 0427 7072696E 		.ascii	"printchar\000"
 3243      74636861 
 3243      7200
 3244              	.LASF114:
 3245 0431 5F5F5549 		.ascii	"__UINTMAX_C(c) c ## ULL\000"
 3245      4E544D41 
 3245      585F4328 
 3245      63292063 
 3245      20232320 
 3246              	.LASF142:
 3247 0449 5F5F494E 		.ascii	"__INT_FAST16_MAX__ 2147483647\000"
 3247      545F4641 
ARM GAS  /tmp/cc2xjAK0.s 			page 65


 3247      53543136 
 3247      5F4D4158 
 3247      5F5F2032 
 3248              	.LASF14:
 3249 0467 61726773 		.ascii	"args\000"
 3249      00
 3250              	.LASF177:
 3251 046c 5F5F4442 		.ascii	"__DBL_EPSILON__ double(2.2204460492503131e-16L)\000"
 3251      4C5F4550 
 3251      53494C4F 
 3251      4E5F5F20 
 3251      646F7562 
 3252              	.LASF202:
 3253 049c 5F5F4445 		.ascii	"__DEC32_SUBNORMAL_MIN__ 0.000001E-95DF\000"
 3253      4333325F 
 3253      5355424E 
 3253      4F524D41 
 3253      4C5F4D49 
 3254              	.LASF238:
 3255 04c3 5F5F4C46 		.ascii	"__LFRACT_IBIT__ 0\000"
 3255      52414354 
 3255      5F494249 
 3255      545F5F20 
 3255      3000
 3256              	.LASF43:
 3257 04d5 5F5F4649 		.ascii	"__FINITE_MATH_ONLY__ 0\000"
 3257      4E495445 
 3257      5F4D4154 
 3257      485F4F4E 
 3257      4C595F5F 
 3258              	.LASF25:
 3259 04ec 76737072 		.ascii	"vsprintf\000"
 3259      696E7466 
 3259      00
 3260              	.LASF82:
 3261 04f5 5F5F5549 		.ascii	"__UINT_LEAST8_TYPE__ unsigned char\000"
 3261      4E545F4C 
 3261      45415354 
 3261      385F5459 
 3261      50455F5F 
 3262              	.LASF385:
 3263 0518 5F56415F 		.ascii	"_VA_LIST_ \000"
 3263      4C495354 
 3263      5F2000
 3264              	.LASF253:
 3265 0523 5F5F554C 		.ascii	"__ULLFRACT_IBIT__ 0\000"
 3265      4C465241 
 3265      43545F49 
 3265      4249545F 
 3265      5F203000 
 3266              	.LASF37:
 3267 0537 5F5F4154 		.ascii	"__ATOMIC_RELAXED 0\000"
 3267      4F4D4943 
 3267      5F52454C 
 3267      41584544 
 3267      203000
 3268              	.LASF279:
ARM GAS  /tmp/cc2xjAK0.s 			page 66


 3269 054a 5F5F4C41 		.ascii	"__LACCUM_MIN__ (-0X1P31LK-0X1P31LK)\000"
 3269      4343554D 
 3269      5F4D494E 
 3269      5F5F2028 
 3269      2D305831 
 3270              	.LASF295:
 3271 056e 5F5F554C 		.ascii	"__ULLACCUM_MAX__ 0XFFFFFFFFFFFFFFFFP-32ULLK\000"
 3271      4C414343 
 3271      554D5F4D 
 3271      41585F5F 
 3271      20305846 
 3272              	.LASF284:
 3273 059a 5F5F554C 		.ascii	"__ULACCUM_MIN__ 0.0ULK\000"
 3273      41434355 
 3273      4D5F4D49 
 3273      4E5F5F20 
 3273      302E3055 
 3274              	.LASF363:
 3275 05b1 5F5F4152 		.ascii	"__ARMEL__ 1\000"
 3275      4D454C5F 
 3275      5F203100 
 3276              	.LASF145:
 3277 05bd 5F5F5549 		.ascii	"__UINT_FAST8_MAX__ 4294967295U\000"
 3277      4E545F46 
 3277      41535438 
 3277      5F4D4158 
 3277      5F5F2034 
 3278              	.LASF330:
 3279 05dc 5F5F5544 		.ascii	"__UDA_IBIT__ 32\000"
 3279      415F4942 
 3279      49545F5F 
 3279      20333200 
 3280              	.LASF124:
 3281 05ec 5F5F5549 		.ascii	"__UINT64_MAX__ 18446744073709551615ULL\000"
 3281      4E543634 
 3281      5F4D4158 
 3281      5F5F2031 
 3281      38343436 
 3282              	.LASF89:
 3283 0613 5F5F494E 		.ascii	"__INT_FAST64_TYPE__ long long int\000"
 3283      545F4641 
 3283      53543634 
 3283      5F545950 
 3283      455F5F20 
 3284              	.LASF126:
 3285 0635 5F5F494E 		.ascii	"__INT8_C(c) c\000"
 3285      54385F43 
 3285      28632920 
 3285      6300
 3286              	.LASF362:
 3287 0643 5F5F7468 		.ascii	"__thumb2__ 1\000"
 3287      756D6232 
 3287      5F5F2031 
 3287      00
 3288              	.LASF110:
 3289 0650 5F5F5349 		.ascii	"__SIZE_MAX__ 4294967295U\000"
 3289      5A455F4D 
ARM GAS  /tmp/cc2xjAK0.s 			page 67


 3289      41585F5F 
 3289      20343239 
 3289      34393637 
 3290              	.LASF294:
 3291 0669 5F5F554C 		.ascii	"__ULLACCUM_MIN__ 0.0ULLK\000"
 3291      4C414343 
 3291      554D5F4D 
 3291      494E5F5F 
 3291      20302E30 
 3292              	.LASF95:
 3293 0682 5F5F5549 		.ascii	"__UINTPTR_TYPE__ unsigned int\000"
 3293      4E545054 
 3293      525F5459 
 3293      50455F5F 
 3293      20756E73 
 3294              	.LASF339:
 3295 06a0 5F5F4743 		.ascii	"__GCC_HAVE_SYNC_COMPARE_AND_SWAP_1 1\000"
 3295      435F4841 
 3295      56455F53 
 3295      594E435F 
 3295      434F4D50 
 3296              	.LASF320:
 3297 06c5 5F5F5341 		.ascii	"__SA_IBIT__ 16\000"
 3297      5F494249 
 3297      545F5F20 
 3297      313600
 3298              	.LASF250:
 3299 06d4 5F5F4C4C 		.ascii	"__LLFRACT_MAX__ 0X7FFFFFFFFFFFFFFFP-63LLR\000"
 3299      46524143 
 3299      545F4D41 
 3299      585F5F20 
 3299      30583746 
 3300              	.LASF155:
 3301 06fe 5F5F464C 		.ascii	"__FLT_DIG__ 6\000"
 3301      545F4449 
 3301      475F5F20 
 3301      3600
 3302              	.LASF340:
 3303 070c 5F5F4743 		.ascii	"__GCC_HAVE_SYNC_COMPARE_AND_SWAP_2 1\000"
 3303      435F4841 
 3303      56455F53 
 3303      594E435F 
 3303      434F4D50 
 3304              	.LASF321:
 3305 0731 5F5F4441 		.ascii	"__DA_FBIT__ 31\000"
 3305      5F464249 
 3305      545F5F20 
 3305      333100
 3306              	.LASF374:
 3307 0740 5F5F5553 		.ascii	"__USES_INITFINI__ 1\000"
 3307      45535F49 
 3307      4E495446 
 3307      494E495F 
 3307      5F203100 
 3308              	.LASF199:
 3309 0754 5F5F4445 		.ascii	"__DEC32_MIN__ 1E-95DF\000"
 3309      4333325F 
ARM GAS  /tmp/cc2xjAK0.s 			page 68


 3309      4D494E5F 
 3309      5F203145 
 3309      2D393544 
 3310              	.LASF266:
 3311 076a 5F5F5553 		.ascii	"__USACCUM_EPSILON__ 0x1P-8UHK\000"
 3311      41434355 
 3311      4D5F4550 
 3311      53494C4F 
 3311      4E5F5F20 
 3312              	.LASF285:
 3313 0788 5F5F554C 		.ascii	"__ULACCUM_MAX__ 0XFFFFFFFFFFFFFFFFP-32ULK\000"
 3313      41434355 
 3313      4D5F4D41 
 3313      585F5F20 
 3313      30584646 
 3314              	.LASF235:
 3315 07b2 5F5F5546 		.ascii	"__UFRACT_MAX__ 0XFFFFP-16UR\000"
 3315      52414354 
 3315      5F4D4158 
 3315      5F5F2030 
 3315      58464646 
 3316              	.LASF220:
 3317 07ce 5F5F5346 		.ascii	"__SFRACT_MAX__ 0X7FP-7HR\000"
 3317      52414354 
 3317      5F4D4158 
 3317      5F5F2030 
 3317      58374650 
 3318              	.LASF370:
 3319 07e7 5F5F4152 		.ascii	"__ARM_EABI__ 1\000"
 3319      4D5F4541 
 3319      42495F5F 
 3319      203100
 3320              	.LASF211:
 3321 07f6 5F5F4445 		.ascii	"__DEC128_MIN_EXP__ (-6142)\000"
 3321      43313238 
 3321      5F4D494E 
 3321      5F455850 
 3321      5F5F2028 
 3322              	.LASF246:
 3323 0811 5F5F554C 		.ascii	"__ULFRACT_EPSILON__ 0x1P-32ULR\000"
 3323      46524143 
 3323      545F4550 
 3323      53494C4F 
 3323      4E5F5F20 
 3324              	.LASF80:
 3325 0830 5F5F494E 		.ascii	"__INT_LEAST32_TYPE__ long int\000"
 3325      545F4C45 
 3325      41535433 
 3325      325F5459 
 3325      50455F5F 
 3326              	.LASF143:
 3327 084e 5F5F494E 		.ascii	"__INT_FAST32_MAX__ 2147483647\000"
 3327      545F4641 
 3327      53543332 
 3327      5F4D4158 
 3327      5F5F2032 
 3328              	.LASF243:
ARM GAS  /tmp/cc2xjAK0.s 			page 69


 3329 086c 5F5F554C 		.ascii	"__ULFRACT_IBIT__ 0\000"
 3329      46524143 
 3329      545F4942 
 3329      49545F5F 
 3329      203000
 3330              	.LASF316:
 3331 087f 5F5F5554 		.ascii	"__UTQ_IBIT__ 0\000"
 3331      515F4942 
 3331      49545F5F 
 3331      203000
 3332              	.LASF164:
 3333 088e 5F5F464C 		.ascii	"__FLT_DENORM_MIN__ 1.4012984643248171e-45F\000"
 3333      545F4445 
 3333      4E4F524D 
 3333      5F4D494E 
 3333      5F5F2031 
 3334              	.LASF254:
 3335 08b9 5F5F554C 		.ascii	"__ULLFRACT_MIN__ 0.0ULLR\000"
 3335      4C465241 
 3335      43545F4D 
 3335      494E5F5F 
 3335      20302E30 
 3336              	.LASF181:
 3337 08d2 5F5F4442 		.ascii	"__DBL_HAS_QUIET_NAN__ 1\000"
 3337      4C5F4841 
 3337      535F5155 
 3337      4945545F 
 3337      4E414E5F 
 3338              	.LASF274:
 3339 08ea 5F5F5541 		.ascii	"__UACCUM_MIN__ 0.0UK\000"
 3339      4343554D 
 3339      5F4D494E 
 3339      5F5F2030 
 3339      2E30554B 
 3340              	.LASF241:
 3341 08ff 5F5F4C46 		.ascii	"__LFRACT_EPSILON__ 0x1P-31LR\000"
 3341      52414354 
 3341      5F455053 
 3341      494C4F4E 
 3341      5F5F2030 
 3342              	.LASF86:
 3343 091c 5F5F494E 		.ascii	"__INT_FAST8_TYPE__ int\000"
 3343      545F4641 
 3343      5354385F 
 3343      54595045 
 3343      5F5F2069 
 3344              	.LASF91:
 3345 0933 5F5F5549 		.ascii	"__UINT_FAST16_TYPE__ unsigned int\000"
 3345      4E545F46 
 3345      41535431 
 3345      365F5459 
 3345      50455F5F 
 3346              	.LASF257:
 3347 0955 5F5F5341 		.ascii	"__SACCUM_FBIT__ 7\000"
 3347      4343554D 
 3347      5F464249 
 3347      545F5F20 
ARM GAS  /tmp/cc2xjAK0.s 			page 70


 3347      3700
 3348              	.LASF207:
 3349 0967 5F5F4445 		.ascii	"__DEC64_MAX__ 9.999999999999999E384DD\000"
 3349      4336345F 
 3349      4D41585F 
 3349      5F20392E 
 3349      39393939 
 3350              	.LASF229:
 3351 098d 5F5F4652 		.ascii	"__FRACT_MIN__ (-0.5R-0.5R)\000"
 3351      4143545F 
 3351      4D494E5F 
 3351      5F20282D 
 3351      302E3552 
 3352              	.LASF348:
 3353 09a8 5F5F4743 		.ascii	"__GCC_ATOMIC_INT_LOCK_FREE 2\000"
 3353      435F4154 
 3353      4F4D4943 
 3353      5F494E54 
 3353      5F4C4F43 
 3354              	.LASF276:
 3355 09c5 5F5F5541 		.ascii	"__UACCUM_EPSILON__ 0x1P-16UK\000"
 3355      4343554D 
 3355      5F455053 
 3355      494C4F4E 
 3355      5F5F2030 
 3356              	.LASF268:
 3357 09e2 5F5F4143 		.ascii	"__ACCUM_IBIT__ 16\000"
 3357      43554D5F 
 3357      49424954 
 3357      5F5F2031 
 3357      3600
 3358              	.LASF192:
 3359 09f4 5F5F4C44 		.ascii	"__LDBL_DENORM_MIN__ 4.9406564584124654e-324L\000"
 3359      424C5F44 
 3359      454E4F52 
 3359      4D5F4D49 
 3359      4E5F5F20 
 3360              	.LASF13:
 3361 0a21 666F726D 		.ascii	"format\000"
 3361      617400
 3362              	.LASF357:
 3363 0a28 5F5F5349 		.ascii	"__SIZEOF_PTRDIFF_T__ 4\000"
 3363      5A454F46 
 3363      5F505452 
 3363      44494646 
 3363      5F545F5F 
 3364              	.LASF328:
 3365 0a3f 5F5F5553 		.ascii	"__USA_IBIT__ 16\000"
 3365      415F4942 
 3365      49545F5F 
 3365      20313600 
 3366              	.LASF248:
 3367 0a4f 5F5F4C4C 		.ascii	"__LLFRACT_IBIT__ 0\000"
 3367      46524143 
 3367      545F4942 
 3367      49545F5F 
 3367      203000
ARM GAS  /tmp/cc2xjAK0.s 			page 71


 3368              	.LASF210:
 3369 0a62 5F5F4445 		.ascii	"__DEC128_MANT_DIG__ 34\000"
 3369      43313238 
 3369      5F4D414E 
 3369      545F4449 
 3369      475F5F20 
 3370              	.LASF371:
 3371 0a79 5F5F4152 		.ascii	"__ARM_ARCH_EXT_IDIV__ 1\000"
 3371      4D5F4152 
 3371      43485F45 
 3371      58545F49 
 3371      4449565F 
 3372              	.LASF358:
 3373 0a91 5F5F4152 		.ascii	"__ARM_FEATURE_UNALIGNED 1\000"
 3373      4D5F4645 
 3373      41545552 
 3373      455F554E 
 3373      414C4947 
 3374              	.LASF0:
 3375 0aab 5F5F676E 		.ascii	"__gnuc_va_list\000"
 3375      75635F76 
 3375      615F6C69 
 3375      737400
 3376              	.LASF376:
 3377 0aba 5F535444 		.ascii	"_STDARG_H \000"
 3377      4152475F 
 3377      482000
 3378              	.LASF48:
 3379 0ac5 5F5F5349 		.ascii	"__SIZEOF_FLOAT__ 4\000"
 3379      5A454F46 
 3379      5F464C4F 
 3379      41545F5F 
 3379      203400
 3380              	.LASF265:
 3381 0ad8 5F5F5553 		.ascii	"__USACCUM_MAX__ 0XFFFFP-8UHK\000"
 3381      41434355 
 3381      4D5F4D41 
 3381      585F5F20 
 3381      30584646 
 3382              	.LASF138:
 3383 0af5 5F5F5549 		.ascii	"__UINT32_C(c) c ## UL\000"
 3383      4E543332 
 3383      5F432863 
 3383      29206320 
 3383      23232055 
 3384              	.LASF198:
 3385 0b0b 5F5F4445 		.ascii	"__DEC32_MAX_EXP__ 97\000"
 3385      4333325F 
 3385      4D41585F 
 3385      4558505F 
 3385      5F203937 
 3386              	.LASF372:
 3387 0b20 5F5F4758 		.ascii	"__GXX_TYPEINFO_EQUALITY_INLINE 0\000"
 3387      585F5459 
 3387      5045494E 
 3387      464F5F45 
 3387      5155414C 
ARM GAS  /tmp/cc2xjAK0.s 			page 72


 3388              	.LASF4:
 3389 0b41 77696474 		.ascii	"width\000"
 3389      6800
 3390              	.LASF338:
 3391 0b47 5F5F5743 		.ascii	"__WCHAR_UNSIGNED__ 1\000"
 3391      4841525F 
 3391      554E5349 
 3391      474E4544 
 3391      5F5F2031 
 3392              	.LASF96:
 3393 0b5c 5F5F4758 		.ascii	"__GXX_WEAK__ 1\000"
 3393      585F5745 
 3393      414B5F5F 
 3393      203100
 3394              	.LASF322:
 3395 0b6b 5F5F4441 		.ascii	"__DA_IBIT__ 32\000"
 3395      5F494249 
 3395      545F5F20 
 3395      333200
 3396              	.LASF23:
 3397 0b7a 75736172 		.ascii	"usartSendCharacter\000"
 3397      7453656E 
 3397      64436861 
 3397      72616374 
 3397      657200
 3398              	.LASF278:
 3399 0b8d 5F5F4C41 		.ascii	"__LACCUM_IBIT__ 32\000"
 3399      4343554D 
 3399      5F494249 
 3399      545F5F20 
 3399      333200
 3400              	.LASF127:
 3401 0ba0 5F5F494E 		.ascii	"__INT_LEAST16_MAX__ 32767\000"
 3401      545F4C45 
 3401      41535431 
 3401      365F4D41 
 3401      585F5F20 
 3402              	.LASF225:
 3403 0bba 5F5F5553 		.ascii	"__USFRACT_MAX__ 0XFFP-8UHR\000"
 3403      46524143 
 3403      545F4D41 
 3403      585F5F20 
 3403      30584646 
 3404              	.LASF54:
 3405 0bd5 5F5F4F52 		.ascii	"__ORDER_LITTLE_ENDIAN__ 1234\000"
 3405      4445525F 
 3405      4C495454 
 3405      4C455F45 
 3405      4E444941 
 3406              	.LASF289:
 3407 0bf2 5F5F4C4C 		.ascii	"__LLACCUM_MIN__ (-0X1P31LLK-0X1P31LLK)\000"
 3407      41434355 
 3407      4D5F4D49 
 3407      4E5F5F20 
 3407      282D3058 
 3408              	.LASF99:
 3409 0c19 5F5F4758 		.ascii	"__GXX_ABI_VERSION 1002\000"
ARM GAS  /tmp/cc2xjAK0.s 			page 73


 3409      585F4142 
 3409      495F5645 
 3409      5253494F 
 3409      4E203130 
 3410              	.LASF319:
 3411 0c30 5F5F5341 		.ascii	"__SA_FBIT__ 15\000"
 3411      5F464249 
 3411      545F5F20 
 3411      313500
 3412              	.LASF261:
 3413 0c3f 5F5F5341 		.ascii	"__SACCUM_EPSILON__ 0x1P-7HK\000"
 3413      4343554D 
 3413      5F455053 
 3413      494C4F4E 
 3413      5F5F2030 
 3414              	.LASF87:
 3415 0c5b 5F5F494E 		.ascii	"__INT_FAST16_TYPE__ int\000"
 3415      545F4641 
 3415      53543136 
 3415      5F545950 
 3415      455F5F20 
 3416              	.LASF75:
 3417 0c73 5F5F5549 		.ascii	"__UINT16_TYPE__ short unsigned int\000"
 3417      4E543136 
 3417      5F545950 
 3417      455F5F20 
 3417      73686F72 
 3418              	.LASF109:
 3419 0c96 5F5F5054 		.ascii	"__PTRDIFF_MAX__ 2147483647\000"
 3419      52444946 
 3419      465F4D41 
 3419      585F5F20 
 3419      32313437 
 3420              	.LASF343:
 3421 0cb1 5F5F4743 		.ascii	"__GCC_ATOMIC_CHAR_LOCK_FREE 2\000"
 3421      435F4154 
 3421      4F4D4943 
 3421      5F434841 
 3421      525F4C4F 
 3422              	.LASF310:
 3423 0ccf 5F5F5548 		.ascii	"__UHQ_IBIT__ 0\000"
 3423      515F4942 
 3423      49545F5F 
 3423      203000
 3424              	.LASF18:
 3425 0cde 5372632F 		.ascii	"Src/printf-stdarg.cpp\000"
 3425      7072696E 
 3425      74662D73 
 3425      74646172 
 3425      672E6370 
 3426              	.LASF78:
 3427 0cf4 5F5F494E 		.ascii	"__INT_LEAST8_TYPE__ signed char\000"
 3427      545F4C45 
 3427      41535438 
 3427      5F545950 
 3427      455F5F20 
 3428              	.LASF387:
ARM GAS  /tmp/cc2xjAK0.s 			page 74


 3429 0d14 5F56415F 		.ascii	"_VA_LIST_DEFINED \000"
 3429      4C495354 
 3429      5F444546 
 3429      494E4544 
 3429      2000
 3430              	.LASF73:
 3431 0d26 5F5F494E 		.ascii	"__INT64_TYPE__ long long int\000"
 3431      5436345F 
 3431      54595045 
 3431      5F5F206C 
 3431      6F6E6720 
 3432              	.LASF159:
 3433 0d43 5F5F464C 		.ascii	"__FLT_MAX_10_EXP__ 38\000"
 3433      545F4D41 
 3433      585F3130 
 3433      5F455850 
 3433      5F5F2033 
 3434              	.LASF31:
 3435 0d59 5F5F6370 		.ascii	"__cplusplus 201103L\000"
 3435      6C757370 
 3435      6C757320 
 3435      32303131 
 3435      30334C00 
 3436              	.LASF291:
 3437 0d6d 5F5F4C4C 		.ascii	"__LLACCUM_EPSILON__ 0x1P-31LLK\000"
 3437      41434355 
 3437      4D5F4550 
 3437      53494C4F 
 3437      4E5F5F20 
 3438              	.LASF264:
 3439 0d8c 5F5F5553 		.ascii	"__USACCUM_MIN__ 0.0UHK\000"
 3439      41434355 
 3439      4D5F4D49 
 3439      4E5F5F20 
 3439      302E3055 
 3440              	.LASF336:
 3441 0da3 5F5F4E4F 		.ascii	"__NO_INLINE__ 1\000"
 3441      5F494E4C 
 3441      494E455F 
 3441      5F203100 
 3442              	.LASF263:
 3443 0db3 5F5F5553 		.ascii	"__USACCUM_IBIT__ 8\000"
 3443      41434355 
 3443      4D5F4942 
 3443      49545F5F 
 3443      203800
 3444              	.LASF244:
 3445 0dc6 5F5F554C 		.ascii	"__ULFRACT_MIN__ 0.0ULR\000"
 3445      46524143 
 3445      545F4D49 
 3445      4E5F5F20 
 3445      302E3055 
 3446              	.LASF154:
 3447 0ddd 5F5F464C 		.ascii	"__FLT_MANT_DIG__ 24\000"
 3447      545F4D41 
 3447      4E545F44 
 3447      49475F5F 
ARM GAS  /tmp/cc2xjAK0.s 			page 75


 3447      20323400 
 3448              	.LASF312:
 3449 0df1 5F5F5553 		.ascii	"__USQ_IBIT__ 0\000"
 3449      515F4942 
 3449      49545F5F 
 3449      203000
 3450              	.LASF341:
 3451 0e00 5F5F4743 		.ascii	"__GCC_HAVE_SYNC_COMPARE_AND_SWAP_4 1\000"
 3451      435F4841 
 3451      56455F53 
 3451      594E435F 
 3451      434F4D50 
 3452              	.LASF273:
 3453 0e25 5F5F5541 		.ascii	"__UACCUM_IBIT__ 16\000"
 3453      4343554D 
 3453      5F494249 
 3453      545F5F20 
 3453      313600
 3454              	.LASF152:
 3455 0e38 5F5F4445 		.ascii	"__DEC_EVAL_METHOD__ 2\000"
 3455      435F4556 
 3455      414C5F4D 
 3455      4554484F 
 3455      445F5F20 
 3456              	.LASF171:
 3457 0e4e 5F5F4442 		.ascii	"__DBL_MIN_10_EXP__ (-307)\000"
 3457      4C5F4D49 
 3457      4E5F3130 
 3457      5F455850 
 3457      5F5F2028 
 3458              	.LASF38:
 3459 0e68 5F5F4154 		.ascii	"__ATOMIC_SEQ_CST 5\000"
 3459      4F4D4943 
 3459      5F534551 
 3459      5F435354 
 3459      203500
 3460              	.LASF123:
 3461 0e7b 5F5F5549 		.ascii	"__UINT32_MAX__ 4294967295UL\000"
 3461      4E543332 
 3461      5F4D4158 
 3461      5F5F2034 
 3461      32393439 
 3462              	.LASF367:
 3463 0e97 5F5F5448 		.ascii	"__THUMB_INTERWORK__ 1\000"
 3463      554D425F 
 3463      494E5445 
 3463      52574F52 
 3463      4B5F5F20 
 3464              	.LASF227:
 3465 0ead 5F5F4652 		.ascii	"__FRACT_FBIT__ 15\000"
 3465      4143545F 
 3465      46424954 
 3465      5F5F2031 
 3465      3500
 3466              	.LASF151:
 3467 0ebf 5F5F464C 		.ascii	"__FLT_EVAL_METHOD__ 0\000"
 3467      545F4556 
ARM GAS  /tmp/cc2xjAK0.s 			page 76


 3467      414C5F4D 
 3467      4554484F 
 3467      445F5F20 
 3468              	.LASF3:
 3469 0ed5 73747269 		.ascii	"string\000"
 3469      6E6700
 3470              	.LASF90:
 3471 0edc 5F5F5549 		.ascii	"__UINT_FAST8_TYPE__ unsigned int\000"
 3471      4E545F46 
 3471      41535438 
 3471      5F545950 
 3471      455F5F20 
 3472              	.LASF267:
 3473 0efd 5F5F4143 		.ascii	"__ACCUM_FBIT__ 15\000"
 3473      43554D5F 
 3473      46424954 
 3473      5F5F2031 
 3473      3500
 3474              	.LASF346:
 3475 0f0f 5F5F4743 		.ascii	"__GCC_ATOMIC_WCHAR_T_LOCK_FREE 2\000"
 3475      435F4154 
 3475      4F4D4943 
 3475      5F574348 
 3475      41525F54 
 3476              	.LASF283:
 3477 0f30 5F5F554C 		.ascii	"__ULACCUM_IBIT__ 32\000"
 3477      41434355 
 3477      4D5F4942 
 3477      49545F5F 
 3477      20333200 
 3478              	.LASF247:
 3479 0f44 5F5F4C4C 		.ascii	"__LLFRACT_FBIT__ 63\000"
 3479      46524143 
 3479      545F4642 
 3479      49545F5F 
 3479      20363300 
 3480              	.LASF327:
 3481 0f58 5F5F5553 		.ascii	"__USA_FBIT__ 16\000"
 3481      415F4642 
 3481      49545F5F 
 3481      20313600 
 3482              	.LASF39:
 3483 0f68 5F5F4154 		.ascii	"__ATOMIC_ACQUIRE 2\000"
 3483      4F4D4943 
 3483      5F414351 
 3483      55495245 
 3483      203200
 3484              	.LASF175:
 3485 0f7b 5F5F4442 		.ascii	"__DBL_MAX__ double(1.7976931348623157e+308L)\000"
 3485      4C5F4D41 
 3485      585F5F20 
 3485      646F7562 
 3485      6C652831 
 3486              	.LASF26:
 3487 0fa8 70757463 		.ascii	"putchar(c) usartSendCharacter(c)\000"
 3487      68617228 
 3487      63292075 
ARM GAS  /tmp/cc2xjAK0.s 			page 77


 3487      73617274 
 3487      53656E64 
 3488              	.LASF129:
 3489 0fc9 5F5F494E 		.ascii	"__INT_LEAST32_MAX__ 2147483647L\000"
 3489      545F4C45 
 3489      41535433 
 3489      325F4D41 
 3489      585F5F20 
 3490              	.LASF200:
 3491 0fe9 5F5F4445 		.ascii	"__DEC32_MAX__ 9.999999E96DF\000"
 3491      4333325F 
 3491      4D41585F 
 3491      5F20392E 
 3491      39393939 
 3492              	.LASF237:
 3493 1005 5F5F4C46 		.ascii	"__LFRACT_FBIT__ 31\000"
 3493      52414354 
 3493      5F464249 
 3493      545F5F20 
 3493      333100
 3494              	.LASF379:
 3495 1018 5F5F474E 		.ascii	"__GNUC_VA_LIST \000"
 3495      55435F56 
 3495      415F4C49 
 3495      53542000 
 3496              	.LASF79:
 3497 1028 5F5F494E 		.ascii	"__INT_LEAST16_TYPE__ short int\000"
 3497      545F4C45 
 3497      41535431 
 3497      365F5459 
 3497      50455F5F 
 3498              	.LASF139:
 3499 1047 5F5F5549 		.ascii	"__UINT_LEAST64_MAX__ 18446744073709551615ULL\000"
 3499      4E545F4C 
 3499      45415354 
 3499      36345F4D 
 3499      41585F5F 
 3500              	.LASF335:
 3501 1074 5F5F474E 		.ascii	"__GNUC_STDC_INLINE__ 1\000"
 3501      55435F53 
 3501      5444435F 
 3501      494E4C49 
 3501      4E455F5F 
 3502              	.LASF169:
 3503 108b 5F5F4442 		.ascii	"__DBL_DIG__ 15\000"
 3503      4C5F4449 
 3503      475F5F20 
 3503      313500
 3504              	.LASF344:
 3505 109a 5F5F4743 		.ascii	"__GCC_ATOMIC_CHAR16_T_LOCK_FREE 2\000"
 3505      435F4154 
 3505      4F4D4943 
 3505      5F434841 
 3505      5231365F 
 3506              	.LASF277:
 3507 10bc 5F5F4C41 		.ascii	"__LACCUM_FBIT__ 31\000"
 3507      4343554D 
ARM GAS  /tmp/cc2xjAK0.s 			page 78


 3507      5F464249 
 3507      545F5F20 
 3507      333100
 3508              	.LASF236:
 3509 10cf 5F5F5546 		.ascii	"__UFRACT_EPSILON__ 0x1P-16UR\000"
 3509      52414354 
 3509      5F455053 
 3509      494C4F4E 
 3509      5F5F2030 
 3510              	.LASF162:
 3511 10ec 5F5F464C 		.ascii	"__FLT_MIN__ 1.1754943508222875e-38F\000"
 3511      545F4D49 
 3511      4E5F5F20 
 3511      312E3137 
 3511      35343934 
 3512              	.LASF349:
 3513 1110 5F5F4743 		.ascii	"__GCC_ATOMIC_LONG_LOCK_FREE 2\000"
 3513      435F4154 
 3513      4F4D4943 
 3513      5F4C4F4E 
 3513      475F4C4F 
 3514              	.LASF135:
 3515 112e 5F5F5549 		.ascii	"__UINT_LEAST16_MAX__ 65535\000"
 3515      4E545F4C 
 3515      45415354 
 3515      31365F4D 
 3515      41585F5F 
 3516              	.LASF313:
 3517 1149 5F5F5544 		.ascii	"__UDQ_FBIT__ 64\000"
 3517      515F4642 
 3517      49545F5F 
 3517      20363400 
 3518              	.LASF1:
 3519 1159 76615F6C 		.ascii	"va_list\000"
 3519      69737400 
 3520              	.LASF97:
 3521 1161 5F5F4445 		.ascii	"__DEPRECATED 1\000"
 3521      50524543 
 3521      41544544 
 3521      203100
 3522              	.LASF315:
 3523 1170 5F5F5554 		.ascii	"__UTQ_FBIT__ 128\000"
 3523      515F4642 
 3523      49545F5F 
 3523      20313238 
 3523      00
 3524              	.LASF118:
 3525 1181 5F5F494E 		.ascii	"__INT16_MAX__ 32767\000"
 3525      5431365F 
 3525      4D41585F 
 3525      5F203332 
 3525      37363700 
 3526              	.LASF52:
 3527 1195 5F5F4348 		.ascii	"__CHAR_BIT__ 8\000"
 3527      41525F42 
 3527      49545F5F 
 3527      203800
ARM GAS  /tmp/cc2xjAK0.s 			page 79


 3528              	.LASF24:
 3529 11a4 5F5A3138 		.ascii	"_Z18usartSendCharacteri\000"
 3529      75736172 
 3529      7453656E 
 3529      64436861 
 3529      72616374 
 3530              	.LASF15:
 3531 11bc 7072696E 		.ascii	"printf\000"
 3531      746600
 3532              	.LASF342:
 3533 11c3 5F5F4743 		.ascii	"__GCC_ATOMIC_BOOL_LOCK_FREE 2\000"
 3533      435F4154 
 3533      4F4D4943 
 3533      5F424F4F 
 3533      4C5F4C4F 
 3534              	.LASF189:
 3535 11e1 5F5F4C44 		.ascii	"__LDBL_MAX__ 1.7976931348623157e+308L\000"
 3535      424C5F4D 
 3535      41585F5F 
 3535      20312E37 
 3535      39373639 
 3536              	.LASF7:
 3537 1207 7072696E 		.ascii	"printi\000"
 3537      746900
 3538              	.LASF260:
 3539 120e 5F5F5341 		.ascii	"__SACCUM_MAX__ 0X7FFFP-7HK\000"
 3539      4343554D 
 3539      5F4D4158 
 3539      5F5F2030 
 3539      58374646 
 3540              	.LASF359:
 3541 1229 5F5F6172 		.ascii	"__arm__ 1\000"
 3541      6D5F5F20 
 3541      3100
 3542              	.LASF182:
 3543 1233 5F5F4C44 		.ascii	"__LDBL_MANT_DIG__ 53\000"
 3543      424C5F4D 
 3543      414E545F 
 3543      4449475F 
 3543      5F203533 
 3544              	.LASF306:
 3545 1248 5F5F5451 		.ascii	"__TQ_IBIT__ 0\000"
 3545      5F494249 
 3545      545F5F20 
 3545      3000
 3546              	.LASF325:
 3547 1256 5F5F5548 		.ascii	"__UHA_FBIT__ 8\000"
 3547      415F4642 
 3547      49545F5F 
 3547      203800
 3548              	.LASF6:
 3549 1265 7072696E 		.ascii	"prints\000"
 3549      747300
 3550              	.LASF101:
 3551 126c 5F5F5348 		.ascii	"__SHRT_MAX__ 32767\000"
 3551      52545F4D 
 3551      41585F5F 
ARM GAS  /tmp/cc2xjAK0.s 			page 80


 3551      20333237 
 3551      363700
 3552              	.LASF137:
 3553 127f 5F5F5549 		.ascii	"__UINT_LEAST32_MAX__ 4294967295UL\000"
 3553      4E545F4C 
 3553      45415354 
 3553      33325F4D 
 3553      41585F5F 
 3554              	.LASF373:
 3555 12a1 5F5F454C 		.ascii	"__ELF__ 1\000"
 3555      465F5F20 
 3555      3100
 3556              	.LASF351:
 3557 12ab 5F5F4743 		.ascii	"__GCC_ATOMIC_TEST_AND_SET_TRUEVAL 1\000"
 3557      435F4154 
 3557      4F4D4943 
 3557      5F544553 
 3557      545F414E 
 3558              	.LASF353:
 3559 12cf 5F5F4743 		.ascii	"__GCC_HAVE_DWARF2_CFI_ASM 1\000"
 3559      435F4841 
 3559      56455F44 
 3559      57415246 
 3559      325F4346 
 3560              	.LASF232:
 3561 12eb 5F5F5546 		.ascii	"__UFRACT_FBIT__ 16\000"
 3561      52414354 
 3561      5F464249 
 3561      545F5F20 
 3561      313600
 3562              	.LASF280:
 3563 12fe 5F5F4C41 		.ascii	"__LACCUM_MAX__ 0X7FFFFFFFFFFFFFFFP-31LK\000"
 3563      4343554D 
 3563      5F4D4158 
 3563      5F5F2030 
 3563      58374646 
 3564              	.LASF226:
 3565 1326 5F5F5553 		.ascii	"__USFRACT_EPSILON__ 0x1P-8UHR\000"
 3565      46524143 
 3565      545F4550 
 3565      53494C4F 
 3565      4E5F5F20 
 3566              	.LASF166:
 3567 1344 5F5F464C 		.ascii	"__FLT_HAS_INFINITY__ 1\000"
 3567      545F4841 
 3567      535F494E 
 3567      46494E49 
 3567      54595F5F 
 3568              	.LASF30:
 3569 135b 5F5F5354 		.ascii	"__STDC__ 1\000"
 3569      44435F5F 
 3569      203100
 3570              	.LASF45:
 3571 1366 5F5F5349 		.ascii	"__SIZEOF_LONG__ 4\000"
 3571      5A454F46 
 3571      5F4C4F4E 
 3571      475F5F20 
ARM GAS  /tmp/cc2xjAK0.s 			page 81


 3571      3400
 3572              	.LASF172:
 3573 1378 5F5F4442 		.ascii	"__DBL_MAX_EXP__ 1024\000"
 3573      4C5F4D41 
 3573      585F4558 
 3573      505F5F20 
 3573      31303234 
 3574              	.LASF42:
 3575 138d 5F5F4154 		.ascii	"__ATOMIC_CONSUME 1\000"
 3575      4F4D4943 
 3575      5F434F4E 
 3575      53554D45 
 3575      203100
 3576              	.LASF382:
 3577 13a0 76615F61 		.ascii	"va_arg(v,l) __builtin_va_arg(v,l)\000"
 3577      72672876 
 3577      2C6C2920 
 3577      5F5F6275 
 3577      696C7469 
 3578              	.LASF64:
 3579 13c2 5F5F5749 		.ascii	"__WINT_TYPE__ unsigned int\000"
 3579      4E545F54 
 3579      5950455F 
 3579      5F20756E 
 3579      7369676E 
 3580              	.LASF149:
 3581 13dd 5F5F494E 		.ascii	"__INTPTR_MAX__ 2147483647\000"
 3581      54505452 
 3581      5F4D4158 
 3581      5F5F2032 
 3581      31343734 
 3582              	.LASF133:
 3583 13f7 5F5F5549 		.ascii	"__UINT_LEAST8_MAX__ 255\000"
 3583      4E545F4C 
 3583      45415354 
 3583      385F4D41 
 3583      585F5F20 
 3584              	.LASF383:
 3585 140f 76615F63 		.ascii	"va_copy(d,s) __builtin_va_copy(d,s)\000"
 3585      6F707928 
 3585      642C7329 
 3585      205F5F62 
 3585      75696C74 
 3586              	.LASF242:
 3587 1433 5F5F554C 		.ascii	"__ULFRACT_FBIT__ 32\000"
 3587      46524143 
 3587      545F4642 
 3587      49545F5F 
 3587      20333200 
 3588              	.LASF63:
 3589 1447 5F5F5743 		.ascii	"__WCHAR_TYPE__ unsigned int\000"
 3589      4841525F 
 3589      54595045 
 3589      5F5F2075 
 3589      6E736967 
 3590              	.LASF384:
 3591 1463 5F5F7661 		.ascii	"__va_copy(d,s) __builtin_va_copy(d,s)\000"
ARM GAS  /tmp/cc2xjAK0.s 			page 82


 3591      5F636F70 
 3591      7928642C 
 3591      7329205F 
 3591      5F627569 
 3592              	.LASF269:
 3593 1489 5F5F4143 		.ascii	"__ACCUM_MIN__ (-0X1P15K-0X1P15K)\000"
 3593      43554D5F 
 3593      4D494E5F 
 3593      5F20282D 
 3593      30583150 
 3594              	.LASF49:
 3595 14aa 5F5F5349 		.ascii	"__SIZEOF_DOUBLE__ 8\000"
 3595      5A454F46 
 3595      5F444F55 
 3595      424C455F 
 3595      5F203800 
 3596              	.LASF19:
 3597 14be 2F686F6D 		.ascii	"/home/maciek/git/lowPowerFreeRtos\000"
 3597      652F6D61 
 3597      6369656B 
 3597      2F676974 
 3597      2F6C6F77 
 3598              	.LASF35:
 3599 14e0 5F5F474E 		.ascii	"__GNUC_PATCHLEVEL__ 3\000"
 3599      55435F50 
 3599      41544348 
 3599      4C455645 
 3599      4C5F5F20 
 3600              	.LASF98:
 3601 14f6 5F5F4758 		.ascii	"__GXX_EXPERIMENTAL_CXX0X__ 1\000"
 3601      585F4558 
 3601      50455249 
 3601      4D454E54 
 3601      414C5F43 
 3602              	.LASF230:
 3603 1513 5F5F4652 		.ascii	"__FRACT_MAX__ 0X7FFFP-15R\000"
 3603      4143545F 
 3603      4D41585F 
 3603      5F203058 
 3603      37464646 
 3604              	.LASF108:
 3605 152d 5F5F5749 		.ascii	"__WINT_MIN__ 0U\000"
 3605      4E545F4D 
 3605      494E5F5F 
 3605      20305500 
 3606              	.LASF282:
 3607 153d 5F5F554C 		.ascii	"__ULACCUM_FBIT__ 32\000"
 3607      41434355 
 3607      4D5F4642 
 3607      49545F5F 
 3607      20333200 
 3608              	.LASF234:
 3609 1551 5F5F5546 		.ascii	"__UFRACT_MIN__ 0.0UR\000"
 3609      52414354 
 3609      5F4D494E 
 3609      5F5F2030 
 3609      2E305552 
ARM GAS  /tmp/cc2xjAK0.s 			page 83


 3610              	.LASF212:
 3611 1566 5F5F4445 		.ascii	"__DEC128_MAX_EXP__ 6145\000"
 3611      43313238 
 3611      5F4D4158 
 3611      5F455850 
 3611      5F5F2036 
 3612              	.LASF228:
 3613 157e 5F5F4652 		.ascii	"__FRACT_IBIT__ 0\000"
 3613      4143545F 
 3613      49424954 
 3613      5F5F2030 
 3613      00
 3614              	.LASF190:
 3615 158f 5F5F4C44 		.ascii	"__LDBL_MIN__ 2.2250738585072014e-308L\000"
 3615      424C5F4D 
 3615      494E5F5F 
 3615      20322E32 
 3615      32353037 
 3616              	.LASF323:
 3617 15b5 5F5F5441 		.ascii	"__TA_FBIT__ 63\000"
 3617      5F464249 
 3617      545F5F20 
 3617      363300
 3618              	.LASF194:
 3619 15c4 5F5F4C44 		.ascii	"__LDBL_HAS_INFINITY__ 1\000"
 3619      424C5F48 
 3619      41535F49 
 3619      4E46494E 
 3619      4954595F 
 3620              	.LASF93:
 3621 15dc 5F5F5549 		.ascii	"__UINT_FAST64_TYPE__ long long unsigned int\000"
 3621      4E545F46 
 3621      41535436 
 3621      345F5459 
 3621      50455F5F 
 3622              	.LASF27:
 3623 1608 5041445F 		.ascii	"PAD_RIGHT 1\000"
 3623      52494748 
 3623      54203100 
 3624              	.LASF176:
 3625 1614 5F5F4442 		.ascii	"__DBL_MIN__ double(2.2250738585072014e-308L)\000"
 3625      4C5F4D49 
 3625      4E5F5F20 
 3625      646F7562 
 3625      6C652832 
 3626              	.LASF184:
 3627 1641 5F5F4C44 		.ascii	"__LDBL_MIN_EXP__ (-1021)\000"
 3627      424C5F4D 
 3627      494E5F45 
 3627      58505F5F 
 3627      20282D31 
 3628              	.LASF252:
 3629 165a 5F5F554C 		.ascii	"__ULLFRACT_FBIT__ 64\000"
 3629      4C465241 
 3629      43545F46 
 3629      4249545F 
 3629      5F203634 
ARM GAS  /tmp/cc2xjAK0.s 			page 84


 3630              	.LASF355:
 3631 166f 5F5F5349 		.ascii	"__SIZEOF_WCHAR_T__ 4\000"
 3631      5A454F46 
 3631      5F574348 
 3631      41525F54 
 3631      5F5F2034 
 3632              	.LASF58:
 3633 1684 5F5F464C 		.ascii	"__FLOAT_WORD_ORDER__ __ORDER_LITTLE_ENDIAN__\000"
 3633      4F41545F 
 3633      574F5244 
 3633      5F4F5244 
 3633      45525F5F 
 3634              	.LASF270:
 3635 16b1 5F5F4143 		.ascii	"__ACCUM_MAX__ 0X7FFFFFFFP-15K\000"
 3635      43554D5F 
 3635      4D41585F 
 3635      5F203058 
 3635      37464646 
 3636              	.LASF233:
 3637 16cf 5F5F5546 		.ascii	"__UFRACT_IBIT__ 0\000"
 3637      52414354 
 3637      5F494249 
 3637      545F5F20 
 3637      3000
 3638              	.LASF196:
 3639 16e1 5F5F4445 		.ascii	"__DEC32_MANT_DIG__ 7\000"
 3639      4333325F 
 3639      4D414E54 
 3639      5F444947 
 3639      5F5F2037 
 3640              	.LASF204:
 3641 16f6 5F5F4445 		.ascii	"__DEC64_MIN_EXP__ (-382)\000"
 3641      4336345F 
 3641      4D494E5F 
 3641      4558505F 
 3641      5F20282D 
 3642              	.LASF116:
 3643 170f 5F5F5349 		.ascii	"__SIG_ATOMIC_MIN__ (-__SIG_ATOMIC_MAX__ - 1)\000"
 3643      475F4154 
 3643      4F4D4943 
 3643      5F4D494E 
 3643      5F5F2028 
 3644              	.LASF251:
 3645 173c 5F5F4C4C 		.ascii	"__LLFRACT_EPSILON__ 0x1P-63LLR\000"
 3645      46524143 
 3645      545F4550 
 3645      53494C4F 
 3645      4E5F5F20 
 3646              	.LASF378:
 3647 175b 5F5F6E65 		.ascii	"__need___va_list\000"
 3647      65645F5F 
 3647      5F76615F 
 3647      6C697374 
 3647      00
 3648              	.LASF187:
 3649 176c 5F5F4C44 		.ascii	"__LDBL_MAX_10_EXP__ 308\000"
 3649      424C5F4D 
ARM GAS  /tmp/cc2xjAK0.s 			page 85


 3649      41585F31 
 3649      305F4558 
 3649      505F5F20 
 3650              	.LASF217:
 3651 1784 5F5F5346 		.ascii	"__SFRACT_FBIT__ 7\000"
 3651      52414354 
 3651      5F464249 
 3651      545F5F20 
 3651      3700
 3652              	.LASF68:
 3653 1796 5F5F4348 		.ascii	"__CHAR32_TYPE__ long unsigned int\000"
 3653      41523332 
 3653      5F545950 
 3653      455F5F20 
 3653      6C6F6E67 
 3654              	.LASF369:
 3655 17b8 5F5F4152 		.ascii	"__ARM_PCS 1\000"
 3655      4D5F5043 
 3655      53203100 
 3656              	.LASF300:
 3657 17c4 5F5F4851 		.ascii	"__HQ_IBIT__ 0\000"
 3657      5F494249 
 3657      545F5F20 
 3657      3000
 3658              	.LASF16:
 3659 17d2 73707269 		.ascii	"sprintf\000"
 3659      6E746600 
 3660              	.LASF134:
 3661 17da 5F5F5549 		.ascii	"__UINT8_C(c) c\000"
 3661      4E54385F 
 3661      43286329 
 3661      206300
 3662              	.LASF84:
 3663 17e9 5F5F5549 		.ascii	"__UINT_LEAST32_TYPE__ long unsigned int\000"
 3663      4E545F4C 
 3663      45415354 
 3663      33325F54 
 3663      5950455F 
 3664              	.LASF303:
 3665 1811 5F5F4451 		.ascii	"__DQ_FBIT__ 63\000"
 3665      5F464249 
 3665      545F5F20 
 3665      363300
 3666              	.LASF219:
 3667 1820 5F5F5346 		.ascii	"__SFRACT_MIN__ (-0.5HR-0.5HR)\000"
 3667      52414354 
 3667      5F4D494E 
 3667      5F5F2028 
 3667      2D302E35 
 3668              	.LASF286:
 3669 183e 5F5F554C 		.ascii	"__ULACCUM_EPSILON__ 0x1P-32ULK\000"
 3669      41434355 
 3669      4D5F4550 
 3669      53494C4F 
 3669      4E5F5F20 
 3670              	.LASF121:
 3671 185d 5F5F5549 		.ascii	"__UINT8_MAX__ 255\000"
ARM GAS  /tmp/cc2xjAK0.s 			page 86


 3671      4E54385F 
 3671      4D41585F 
 3671      5F203235 
 3671      3500
 3672              	.LASF364:
 3673 186f 5F5F5448 		.ascii	"__THUMBEL__ 1\000"
 3673      554D4245 
 3673      4C5F5F20 
 3673      3100
 3674              	.LASF302:
 3675 187d 5F5F5351 		.ascii	"__SQ_IBIT__ 0\000"
 3675      5F494249 
 3675      545F5F20 
 3675      3000
 3676              	.LASF2:
 3677 188b 63686172 		.ascii	"char\000"
 3677      00
 3678              	.LASF160:
 3679 1890 5F5F464C 		.ascii	"__FLT_DECIMAL_DIG__ 9\000"
 3679      545F4445 
 3679      43494D41 
 3679      4C5F4449 
 3679      475F5F20 
 3680              	.LASF215:
 3681 18a6 5F5F4445 		.ascii	"__DEC128_EPSILON__ 1E-33DL\000"
 3681      43313238 
 3681      5F455053 
 3681      494C4F4E 
 3681      5F5F2031 
 3682              	.LASF12:
 3683 18c1 7072696E 		.ascii	"print\000"
 3683      7400
 3684              	.LASF107:
 3685 18c7 5F5F5749 		.ascii	"__WINT_MAX__ 4294967295U\000"
 3685      4E545F4D 
 3685      41585F5F 
 3685      20343239 
 3685      34393637 
 3686              	.LASF307:
 3687 18e0 5F5F5551 		.ascii	"__UQQ_FBIT__ 8\000"
 3687      515F4642 
 3687      49545F5F 
 3687      203800
 3688              	.LASF100:
 3689 18ef 5F5F5343 		.ascii	"__SCHAR_MAX__ 127\000"
 3689      4841525F 
 3689      4D41585F 
 3689      5F203132 
 3689      3700
 3690              	.LASF147:
 3691 1901 5F5F5549 		.ascii	"__UINT_FAST32_MAX__ 4294967295U\000"
 3691      4E545F46 
 3691      41535433 
 3691      325F4D41 
 3691      585F5F20 
 3692              	.LASF275:
 3693 1921 5F5F5541 		.ascii	"__UACCUM_MAX__ 0XFFFFFFFFP-16UK\000"
ARM GAS  /tmp/cc2xjAK0.s 			page 87


 3693      4343554D 
 3693      5F4D4158 
 3693      5F5F2030 
 3693      58464646 
 3694              	.LASF281:
 3695 1941 5F5F4C41 		.ascii	"__LACCUM_EPSILON__ 0x1P-31LK\000"
 3695      4343554D 
 3695      5F455053 
 3695      494C4F4E 
 3695      5F5F2030 
 3696              	.LASF205:
 3697 195e 5F5F4445 		.ascii	"__DEC64_MAX_EXP__ 385\000"
 3697      4336345F 
 3697      4D41585F 
 3697      4558505F 
 3697      5F203338 
 3698              	.LASF309:
 3699 1974 5F5F5548 		.ascii	"__UHQ_FBIT__ 16\000"
 3699      515F4642 
 3699      49545F5F 
 3699      20313600 
 3700              	.LASF72:
 3701 1984 5F5F494E 		.ascii	"__INT32_TYPE__ long int\000"
 3701      5433325F 
 3701      54595045 
 3701      5F5F206C 
 3701      6F6E6720 
 3702              	.LASF92:
 3703 199c 5F5F5549 		.ascii	"__UINT_FAST32_TYPE__ unsigned int\000"
 3703      4E545F46 
 3703      41535433 
 3703      325F5459 
 3703      50455F5F 
 3704              	.LASF186:
 3705 19be 5F5F4C44 		.ascii	"__LDBL_MAX_EXP__ 1024\000"
 3705      424C5F4D 
 3705      41585F45 
 3705      58505F5F 
 3705      20313032 
 3706              	.LASF301:
 3707 19d4 5F5F5351 		.ascii	"__SQ_FBIT__ 31\000"
 3707      5F464249 
 3707      545F5F20 
 3707      333100
 3708              	.LASF380:
 3709 19e3 76615F73 		.ascii	"va_start(v,l) __builtin_va_start(v,l)\000"
 3709      74617274 
 3709      28762C6C 
 3709      29205F5F 
 3709      6275696C 
 3710              	.LASF239:
 3711 1a09 5F5F4C46 		.ascii	"__LFRACT_MIN__ (-0.5LR-0.5LR)\000"
 3711      52414354 
 3711      5F4D494E 
 3711      5F5F2028 
 3711      2D302E35 
 3712              	.LASF60:
ARM GAS  /tmp/cc2xjAK0.s 			page 88


 3713 1a27 5F5F474E 		.ascii	"__GNUG__ 4\000"
 3713      55475F5F 
 3713      203400
 3714              	.LASF53:
 3715 1a32 5F5F4249 		.ascii	"__BIGGEST_ALIGNMENT__ 8\000"
 3715      47474553 
 3715      545F414C 
 3715      49474E4D 
 3715      454E545F 
 3716              	.LASF361:
 3717 1a4a 5F5F7468 		.ascii	"__thumb__ 1\000"
 3717      756D625F 
 3717      5F203100 
 3718              	.LASF195:
 3719 1a56 5F5F4C44 		.ascii	"__LDBL_HAS_QUIET_NAN__ 1\000"
 3719      424C5F48 
 3719      41535F51 
 3719      55494554 
 3719      5F4E414E 
 3720              	.LASF70:
 3721 1a6f 5F5F494E 		.ascii	"__INT8_TYPE__ signed char\000"
 3721      54385F54 
 3721      5950455F 
 3721      5F207369 
 3721      676E6564 
 3722              	.LASF334:
 3723 1a89 5F5F5553 		.ascii	"__USER_LABEL_PREFIX__ \000"
 3723      45525F4C 
 3723      4142454C 
 3723      5F505245 
 3723      4649585F 
 3724              	.LASF305:
 3725 1aa0 5F5F5451 		.ascii	"__TQ_FBIT__ 127\000"
 3725      5F464249 
 3725      545F5F20 
 3725      31323700 
 3726              	.LASF111:
 3727 1ab0 5F5F494E 		.ascii	"__INTMAX_MAX__ 9223372036854775807LL\000"
 3727      544D4158 
 3727      5F4D4158 
 3727      5F5F2039 
 3727      32323333 
 3728              	.LASF148:
 3729 1ad5 5F5F5549 		.ascii	"__UINT_FAST64_MAX__ 18446744073709551615ULL\000"
 3729      4E545F46 
 3729      41535436 
 3729      345F4D41 
 3729      585F5F20 
 3730              	.LASF293:
 3731 1b01 5F5F554C 		.ascii	"__ULLACCUM_IBIT__ 32\000"
 3731      4C414343 
 3731      554D5F49 
 3731      4249545F 
 3731      5F203332 
 3732              	.LASF120:
 3733 1b16 5F5F494E 		.ascii	"__INT64_MAX__ 9223372036854775807LL\000"
 3733      5436345F 
ARM GAS  /tmp/cc2xjAK0.s 			page 89


 3733      4D41585F 
 3733      5F203932 
 3733      32333337 
 3734              	.LASF222:
 3735 1b3a 5F5F5553 		.ascii	"__USFRACT_FBIT__ 8\000"
 3735      46524143 
 3735      545F4642 
 3735      49545F5F 
 3735      203800
 3736              	.LASF29:
 3737 1b4d 5052494E 		.ascii	"PRINT_BUF_LEN 12\000"
 3737      545F4255 
 3737      465F4C45 
 3737      4E203132 
 3737      00
 3738              	.LASF299:
 3739 1b5e 5F5F4851 		.ascii	"__HQ_FBIT__ 15\000"
 3739      5F464249 
 3739      545F5F20 
 3739      313500
 3740              	.LASF146:
 3741 1b6d 5F5F5549 		.ascii	"__UINT_FAST16_MAX__ 4294967295U\000"
 3741      4E545F46 
 3741      41535431 
 3741      365F4D41 
 3741      585F5F20 
 3742              	.LASF326:
 3743 1b8d 5F5F5548 		.ascii	"__UHA_IBIT__ 8\000"
 3743      415F4942 
 3743      49545F5F 
 3743      203800
 3744              	.LASF218:
 3745 1b9c 5F5F5346 		.ascii	"__SFRACT_IBIT__ 0\000"
 3745      52414354 
 3745      5F494249 
 3745      545F5F20 
 3745      3000
 3746              	.LASF46:
 3747 1bae 5F5F5349 		.ascii	"__SIZEOF_LONG_LONG__ 8\000"
 3747      5A454F46 
 3747      5F4C4F4E 
 3747      475F4C4F 
 3747      4E475F5F 
 3748              	.LASF308:
 3749 1bc5 5F5F5551 		.ascii	"__UQQ_IBIT__ 0\000"
 3749      515F4942 
 3749      49545F5F 
 3749      203000
 3750              	.LASF74:
 3751 1bd4 5F5F5549 		.ascii	"__UINT8_TYPE__ unsigned char\000"
 3751      4E54385F 
 3751      54595045 
 3751      5F5F2075 
 3751      6E736967 
 3752              	.LASF9:
 3753 1bf1 7072696E 		.ascii	"print_buf\000"
 3753      745F6275 
ARM GAS  /tmp/cc2xjAK0.s 			page 90


 3753      6600
 3754              	.LASF17:
 3755 1bfb 474E5520 		.ascii	"GNU C++ 4.7.3 20130312 (release) [ARM/embedded-4_7-"
 3755      432B2B20 
 3755      342E372E 
 3755      33203230 
 3755      31333033 
 3756 1c2e 6272616E 		.ascii	"branch revision 196615]\000"
 3756      63682072 
 3756      65766973 
 3756      696F6E20 
 3756      31393636 
 3757              	.LASF381:
 3758 1c46 76615F65 		.ascii	"va_end(v) __builtin_va_end(v)\000"
 3758      6E642876 
 3758      29205F5F 
 3758      6275696C 
 3758      74696E5F 
 3759              	.LASF132:
 3760 1c64 5F5F494E 		.ascii	"__INT64_C(c) c ## LL\000"
 3760      5436345F 
 3760      43286329 
 3760      20632023 
 3760      23204C4C 
 3761              	.LASF163:
 3762 1c79 5F5F464C 		.ascii	"__FLT_EPSILON__ 1.1920928955078125e-7F\000"
 3762      545F4550 
 3762      53494C4F 
 3762      4E5F5F20 
 3762      312E3139 
 3763              	.LASF81:
 3764 1ca0 5F5F494E 		.ascii	"__INT_LEAST64_TYPE__ long long int\000"
 3764      545F4C45 
 3764      41535436 
 3764      345F5459 
 3764      50455F5F 
 3765              	.LASF36:
 3766 1cc3 5F5F5645 		.ascii	"__VERSION__ \"4.7.3 20130312 (release) [ARM/embedde"
 3766      5253494F 
 3766      4E5F5F20 
 3766      22342E37 
 3766      2E332032 
 3767 1cf5 642D345F 		.ascii	"d-4_7-branch revision 196615]\"\000"
 3767      372D6272 
 3767      616E6368 
 3767      20726576 
 3767      6973696F 
 3768              	.LASF76:
 3769 1d14 5F5F5549 		.ascii	"__UINT32_TYPE__ long unsigned int\000"
 3769      4E543332 
 3769      5F545950 
 3769      455F5F20 
 3769      6C6F6E67 
 3770              	.LASF185:
 3771 1d36 5F5F4C44 		.ascii	"__LDBL_MIN_10_EXP__ (-307)\000"
 3771      424C5F4D 
 3771      494E5F31 
ARM GAS  /tmp/cc2xjAK0.s 			page 91


 3771      305F4558 
 3771      505F5F20 
 3772              	.LASF59:
 3773 1d51 5F5F5349 		.ascii	"__SIZEOF_POINTER__ 4\000"
 3773      5A454F46 
 3773      5F504F49 
 3773      4E544552 
 3773      5F5F2034 
 3774              	.LASF377:
 3775 1d66 5F414E53 		.ascii	"_ANSI_STDARG_H_ \000"
 3775      495F5354 
 3775      44415247 
 3775      5F485F20 
 3775      00
 3776              	.LASF366:
 3777 1d77 5F5F5646 		.ascii	"__VFP_FP__ 1\000"
 3777      505F4650 
 3777      5F5F2031 
 3777      00
 3778              	.LASF245:
 3779 1d84 5F5F554C 		.ascii	"__ULFRACT_MAX__ 0XFFFFFFFFP-32ULR\000"
 3779      46524143 
 3779      545F4D41 
 3779      585F5F20 
 3779      30584646 
 3780              	.LASF317:
 3781 1da6 5F5F4841 		.ascii	"__HA_FBIT__ 7\000"
 3781      5F464249 
 3781      545F5F20 
 3781      3700
 3782              	.LASF57:
 3783 1db4 5F5F4259 		.ascii	"__BYTE_ORDER__ __ORDER_LITTLE_ENDIAN__\000"
 3783      54455F4F 
 3783      52444552 
 3783      5F5F205F 
 3783      5F4F5244 
 3784              	.LASF115:
 3785 1ddb 5F5F5349 		.ascii	"__SIG_ATOMIC_MAX__ 2147483647\000"
 3785      475F4154 
 3785      4F4D4943 
 3785      5F4D4158 
 3785      5F5F2032 
 3786              	.LASF352:
 3787 1df9 5F5F4743 		.ascii	"__GCC_ATOMIC_POINTER_LOCK_FREE 2\000"
 3787      435F4154 
 3787      4F4D4943 
 3787      5F504F49 
 3787      4E544552 
 3788              	.LASF140:
 3789 1e1a 5F5F5549 		.ascii	"__UINT64_C(c) c ## ULL\000"
 3789      4E543634 
 3789      5F432863 
 3789      29206320 
 3789      23232055 
 3790              	.LASF20:
 3791 1e31 5F5F7661 		.ascii	"__va_list\000"
 3791      5F6C6973 
ARM GAS  /tmp/cc2xjAK0.s 			page 92


 3791      7400
 3792              	.LASF221:
 3793 1e3b 5F5F5346 		.ascii	"__SFRACT_EPSILON__ 0x1P-7HR\000"
 3793      52414354 
 3793      5F455053 
 3793      494C4F4E 
 3793      5F5F2030 
 3794              	.LASF10:
 3795 1e57 73697A65 		.ascii	"sizetype\000"
 3795      74797065 
 3795      00
 3796              	.LASF311:
 3797 1e60 5F5F5553 		.ascii	"__USQ_FBIT__ 32\000"
 3797      515F4642 
 3797      49545F5F 
 3797      20333200 
 3798              	.LASF318:
 3799 1e70 5F5F4841 		.ascii	"__HA_IBIT__ 8\000"
 3799      5F494249 
 3799      545F5F20 
 3799      3800
 3800              	.LASF150:
 3801 1e7e 5F5F5549 		.ascii	"__UINTPTR_MAX__ 4294967295U\000"
 3801      4E545054 
 3801      525F4D41 
 3801      585F5F20 
 3801      34323934 
 3802              	.LASF345:
 3803 1e9a 5F5F4743 		.ascii	"__GCC_ATOMIC_CHAR32_T_LOCK_FREE 2\000"
 3803      435F4154 
 3803      4F4D4943 
 3803      5F434841 
 3803      5233325F 
 3804              	.LASF368:
 3805 1ebc 5F5F4152 		.ascii	"__ARM_ARCH_7M__ 1\000"
 3805      4D5F4152 
 3805      43485F37 
 3805      4D5F5F20 
 3805      3100
 3806              	.LASF122:
 3807 1ece 5F5F5549 		.ascii	"__UINT16_MAX__ 65535\000"
 3807      4E543136 
 3807      5F4D4158 
 3807      5F5F2036 
 3807      35353335 
 3808              	.LASF112:
 3809 1ee3 5F5F494E 		.ascii	"__INTMAX_C(c) c ## LL\000"
 3809      544D4158 
 3809      5F432863 
 3809      29206320 
 3809      2323204C 
 3810              	.LASF113:
 3811 1ef9 5F5F5549 		.ascii	"__UINTMAX_MAX__ 18446744073709551615ULL\000"
 3811      4E544D41 
 3811      585F4D41 
 3811      585F5F20 
 3811      31383434 
ARM GAS  /tmp/cc2xjAK0.s 			page 93


 3812              	.LASF231:
 3813 1f21 5F5F4652 		.ascii	"__FRACT_EPSILON__ 0x1P-15R\000"
 3813      4143545F 
 3813      45505349 
 3813      4C4F4E5F 
 3813      5F203078 
 3814              	.LASF32:
 3815 1f3c 5F5F5354 		.ascii	"__STDC_HOSTED__ 1\000"
 3815      44435F48 
 3815      4F535445 
 3815      445F5F20 
 3815      3100
 3816              	.LASF354:
 3817 1f4e 5F5F5052 		.ascii	"__PRAGMA_REDEFINE_EXTNAME 1\000"
 3817      41474D41 
 3817      5F524544 
 3817      4546494E 
 3817      455F4558 
 3818              	.LASF365:
 3819 1f6a 5F5F534F 		.ascii	"__SOFTFP__ 1\000"
 3819      46544650 
 3819      5F5F2031 
 3819      00
 3820              	.LASF144:
 3821 1f77 5F5F494E 		.ascii	"__INT_FAST64_MAX__ 9223372036854775807LL\000"
 3821      545F4641 
 3821      53543634 
 3821      5F4D4158 
 3821      5F5F2039 
 3822              	.LASF350:
 3823 1fa0 5F5F4743 		.ascii	"__GCC_ATOMIC_LLONG_LOCK_FREE 1\000"
 3823      435F4154 
 3823      4F4D4943 
 3823      5F4C4C4F 
 3823      4E475F4C 
 3824              	.LASF158:
 3825 1fbf 5F5F464C 		.ascii	"__FLT_MAX_EXP__ 128\000"
 3825      545F4D41 
 3825      585F4558 
 3825      505F5F20 
 3825      31323800 
 3826              	.LASF41:
 3827 1fd3 5F5F4154 		.ascii	"__ATOMIC_ACQ_REL 4\000"
 3827      4F4D4943 
 3827      5F414351 
 3827      5F52454C 
 3827      203400
 3828              	.LASF197:
 3829 1fe6 5F5F4445 		.ascii	"__DEC32_MIN_EXP__ (-94)\000"
 3829      4333325F 
 3829      4D494E5F 
 3829      4558505F 
 3829      5F20282D 
 3830              	.LASF66:
 3831 1ffe 5F5F5549 		.ascii	"__UINTMAX_TYPE__ long long unsigned int\000"
 3831      4E544D41 
 3831      585F5459 
ARM GAS  /tmp/cc2xjAK0.s 			page 94


 3831      50455F5F 
 3831      206C6F6E 
 3832              	.LASF191:
 3833 2026 5F5F4C44 		.ascii	"__LDBL_EPSILON__ 2.2204460492503131e-16L\000"
 3833      424C5F45 
 3833      5053494C 
 3833      4F4E5F5F 
 3833      20322E32 
 3834              	.LASF94:
 3835 204f 5F5F494E 		.ascii	"__INTPTR_TYPE__ int\000"
 3835      54505452 
 3835      5F545950 
 3835      455F5F20 
 3835      696E7400 
 3836              	.LASF56:
 3837 2063 5F5F4F52 		.ascii	"__ORDER_PDP_ENDIAN__ 3412\000"
 3837      4445525F 
 3837      5044505F 
 3837      454E4449 
 3837      414E5F5F 
 3838              	.LASF223:
 3839 207d 5F5F5553 		.ascii	"__USFRACT_IBIT__ 0\000"
 3839      46524143 
 3839      545F4942 
 3839      49545F5F 
 3839      203000
 3840              	.LASF304:
 3841 2090 5F5F4451 		.ascii	"__DQ_IBIT__ 0\000"
 3841      5F494249 
 3841      545F5F20 
 3841      3000
 3842              	.LASF153:
 3843 209e 5F5F464C 		.ascii	"__FLT_RADIX__ 2\000"
 3843      545F5241 
 3843      4449585F 
 3843      5F203200 
 3844              	.LASF141:
 3845 20ae 5F5F494E 		.ascii	"__INT_FAST8_MAX__ 2147483647\000"
 3845      545F4641 
 3845      5354385F 
 3845      4D41585F 
 3845      5F203231 
 3846              	.LASF61:
 3847 20cb 5F5F5349 		.ascii	"__SIZE_TYPE__ unsigned int\000"
 3847      5A455F54 
 3847      5950455F 
 3847      5F20756E 
 3847      7369676E 
 3848              	.LASF292:
 3849 20e6 5F5F554C 		.ascii	"__ULLACCUM_FBIT__ 32\000"
 3849      4C414343 
 3849      554D5F46 
 3849      4249545F 
 3849      5F203332 
 3850              	.LASF28:
 3851 20fb 5041445F 		.ascii	"PAD_ZERO 2\000"
 3851      5A45524F 
ARM GAS  /tmp/cc2xjAK0.s 			page 95


 3851      203200
 3852              	.LASF103:
 3853 2106 5F5F4C4F 		.ascii	"__LONG_MAX__ 2147483647L\000"
 3853      4E475F4D 
 3853      41585F5F 
 3853      20323134 
 3853      37343833 
 3854              	.LASF347:
 3855 211f 5F5F4743 		.ascii	"__GCC_ATOMIC_SHORT_LOCK_FREE 2\000"
 3855      435F4154 
 3855      4F4D4943 
 3855      5F53484F 
 3855      52545F4C 
 3856              	.LASF375:
 3857 213e 53544D33 		.ascii	"STM32L1XX_MD 1\000"
 3857      324C3158 
 3857      585F4D44 
 3857      203100
 3858              	.LASF157:
 3859 214d 5F5F464C 		.ascii	"__FLT_MIN_10_EXP__ (-37)\000"
 3859      545F4D49 
 3859      4E5F3130 
 3859      5F455850 
 3859      5F5F2028 
 3860              	.LASF21:
 3861 2166 5F5F6170 		.ascii	"__ap\000"
 3861      00
 3862              	.LASF106:
 3863 216b 5F5F5743 		.ascii	"__WCHAR_MIN__ 0U\000"
 3863      4841525F 
 3863      4D494E5F 
 3863      5F203055 
 3863      00
 3864              	.LASF180:
 3865 217c 5F5F4442 		.ascii	"__DBL_HAS_INFINITY__ 1\000"
 3865      4C5F4841 
 3865      535F494E 
 3865      46494E49 
 3865      54595F5F 
 3866              	.LASF203:
 3867 2193 5F5F4445 		.ascii	"__DEC64_MANT_DIG__ 16\000"
 3867      4336345F 
 3867      4D414E54 
 3867      5F444947 
 3867      5F5F2031 
 3868              	.LASF88:
 3869 21a9 5F5F494E 		.ascii	"__INT_FAST32_TYPE__ int\000"
 3869      545F4641 
 3869      53543332 
 3869      5F545950 
 3869      455F5F20 
 3870              	.LASF258:
 3871 21c1 5F5F5341 		.ascii	"__SACCUM_IBIT__ 8\000"
 3871      4343554D 
 3871      5F494249 
 3871      545F5F20 
 3871      3800
ARM GAS  /tmp/cc2xjAK0.s 			page 96


 3872              	.LASF167:
 3873 21d3 5F5F464C 		.ascii	"__FLT_HAS_QUIET_NAN__ 1\000"
 3873      545F4841 
 3873      535F5155 
 3873      4945545F 
 3873      4E414E5F 
 3874              	.LASF44:
 3875 21eb 5F5F5349 		.ascii	"__SIZEOF_INT__ 4\000"
 3875      5A454F46 
 3875      5F494E54 
 3875      5F5F2034 
 3875      00
 3876              	.LASF65:
 3877 21fc 5F5F494E 		.ascii	"__INTMAX_TYPE__ long long int\000"
 3877      544D4158 
 3877      5F545950 
 3877      455F5F20 
 3877      6C6F6E67 
 3878              	.LASF216:
 3879 221a 5F5F4445 		.ascii	"__DEC128_SUBNORMAL_MIN__ 0.000000000000000000000000"
 3879      43313238 
 3879      5F535542 
 3879      4E4F524D 
 3879      414C5F4D 
 3880 224d 30303030 		.ascii	"000000001E-6143DL\000"
 3880      30303030 
 3880      31452D36 
 3880      31343344 
 3880      4C00
 3881              	.LASF360:
 3882 225f 5F5F4150 		.ascii	"__APCS_32__ 1\000"
 3882      43535F33 
 3882      325F5F20 
 3882      3100
 3883              	.LASF77:
 3884 226d 5F5F5549 		.ascii	"__UINT64_TYPE__ long long unsigned int\000"
 3884      4E543634 
 3884      5F545950 
 3884      455F5F20 
 3884      6C6F6E67 
 3885              	.LASF173:
 3886 2294 5F5F4442 		.ascii	"__DBL_MAX_10_EXP__ 308\000"
 3886      4C5F4D41 
 3886      585F3130 
 3886      5F455850 
 3886      5F5F2033 
 3887              	.LASF324:
 3888 22ab 5F5F5441 		.ascii	"__TA_IBIT__ 64\000"
 3888      5F494249 
 3888      545F5F20 
 3888      363400
 3889              	.LASF297:
 3890 22ba 5F5F5151 		.ascii	"__QQ_FBIT__ 7\000"
 3890      5F464249 
 3890      545F5F20 
 3890      3700
 3891              	.LASF5:
ARM GAS  /tmp/cc2xjAK0.s 			page 97


 3892 22c8 70616463 		.ascii	"padchar\000"
 3892      68617200 
 3893              	.LASF83:
 3894 22d0 5F5F5549 		.ascii	"__UINT_LEAST16_TYPE__ short unsigned int\000"
 3894      4E545F4C 
 3894      45415354 
 3894      31365F54 
 3894      5950455F 
 3895              	.LASF156:
 3896 22f9 5F5F464C 		.ascii	"__FLT_MIN_EXP__ (-125)\000"
 3896      545F4D49 
 3896      4E5F4558 
 3896      505F5F20 
 3896      282D3132 
 3897              	.LASF214:
 3898 2310 5F5F4445 		.ascii	"__DEC128_MAX__ 9.999999999999999999999999999999999E"
 3898      43313238 
 3898      5F4D4158 
 3898      5F5F2039 
 3898      2E393939 
 3899 2343 36313434 		.ascii	"6144DL\000"
 3899      444C00
 3900              	.LASF188:
 3901 234a 5F5F4445 		.ascii	"__DECIMAL_DIG__ 17\000"
 3901      43494D41 
 3901      4C5F4449 
 3901      475F5F20 
 3901      313700
 3902              	.LASF130:
 3903 235d 5F5F494E 		.ascii	"__INT32_C(c) c ## L\000"
 3903      5433325F 
 3903      43286329 
 3903      20632023 
 3903      23204C00 
 3904              	.LASF179:
 3905 2371 5F5F4442 		.ascii	"__DBL_HAS_DENORM__ 1\000"
 3905      4C5F4841 
 3905      535F4445 
 3905      4E4F524D 
 3905      5F5F2031 
 3906              	.LASF389:
 3907 2386 5F5F7661 		.ascii	"__va_list__ \000"
 3907      5F6C6973 
 3907      745F5F20 
 3907      00
 3908              	.LASF332:
 3909 2393 5F5F5554 		.ascii	"__UTA_IBIT__ 64\000"
 3909      415F4942 
 3909      49545F5F 
 3909      20363400 
 3910              	.LASF240:
 3911 23a3 5F5F4C46 		.ascii	"__LFRACT_MAX__ 0X7FFFFFFFP-31LR\000"
 3911      52414354 
 3911      5F4D4158 
 3911      5F5F2030 
 3911      58374646 
 3912              	.LASF329:
ARM GAS  /tmp/cc2xjAK0.s 			page 98


 3913 23c3 5F5F5544 		.ascii	"__UDA_FBIT__ 32\000"
 3913      415F4642 
 3913      49545F5F 
 3913      20333200 
 3914              	.LASF290:
 3915 23d3 5F5F4C4C 		.ascii	"__LLACCUM_MAX__ 0X7FFFFFFFFFFFFFFFP-31LLK\000"
 3915      41434355 
 3915      4D5F4D41 
 3915      585F5F20 
 3915      30583746 
 3916              	.LASF287:
 3917 23fd 5F5F4C4C 		.ascii	"__LLACCUM_FBIT__ 31\000"
 3917      41434355 
 3917      4D5F4642 
 3917      49545F5F 
 3917      20333100 
 3918              	.LASF206:
 3919 2411 5F5F4445 		.ascii	"__DEC64_MIN__ 1E-383DD\000"
 3919      4336345F 
 3919      4D494E5F 
 3919      5F203145 
 3919      2D333833 
 3920              	.LASF102:
 3921 2428 5F5F494E 		.ascii	"__INT_MAX__ 2147483647\000"
 3921      545F4D41 
 3921      585F5F20 
 3921      32313437 
 3921      34383336 
 3922              	.LASF69:
 3923 243f 5F5F5349 		.ascii	"__SIG_ATOMIC_TYPE__ int\000"
 3923      475F4154 
 3923      4F4D4943 
 3923      5F545950 
 3923      455F5F20 
 3924              	.LASF249:
 3925 2457 5F5F4C4C 		.ascii	"__LLFRACT_MIN__ (-0.5LLR-0.5LLR)\000"
 3925      46524143 
 3925      545F4D49 
 3925      4E5F5F20 
 3925      282D302E 
 3926              	.LASF256:
 3927 2478 5F5F554C 		.ascii	"__ULLFRACT_EPSILON__ 0x1P-64ULLR\000"
 3927      4C465241 
 3927      43545F45 
 3927      5053494C 
 3927      4F4E5F5F 
 3928              	.LASF193:
 3929 2499 5F5F4C44 		.ascii	"__LDBL_HAS_DENORM__ 1\000"
 3929      424C5F48 
 3929      41535F44 
 3929      454E4F52 
 3929      4D5F5F20 
 3930              	.LASF296:
 3931 24af 5F5F554C 		.ascii	"__ULLACCUM_EPSILON__ 0x1P-32ULLK\000"
 3931      4C414343 
 3931      554D5F45 
 3931      5053494C 
ARM GAS  /tmp/cc2xjAK0.s 			page 99


 3931      4F4E5F5F 
 3932              	.LASF262:
 3933 24d0 5F5F5553 		.ascii	"__USACCUM_FBIT__ 8\000"
 3933      41434355 
 3933      4D5F4642 
 3933      49545F5F 
 3933      203800
 3934              	.LASF165:
 3935 24e3 5F5F464C 		.ascii	"__FLT_HAS_DENORM__ 1\000"
 3935      545F4841 
 3935      535F4445 
 3935      4E4F524D 
 3935      5F5F2031 
 3936              	.LASF272:
 3937 24f8 5F5F5541 		.ascii	"__UACCUM_FBIT__ 16\000"
 3937      4343554D 
 3937      5F464249 
 3937      545F5F20 
 3937      313600
 3938              		.ident	"GCC: (GNU Tools for ARM Embedded Processors) 4.7.3 20130312 (release) [ARM/embedded-4_7-br
ARM GAS  /tmp/cc2xjAK0.s 			page 100


DEFINED SYMBOLS
                            *ABS*:00000000 printf-stdarg.cpp
     /tmp/cc2xjAK0.s:56     .text._ZL9printcharPPci:00000000 $t
     /tmp/cc2xjAK0.s:60     .text._ZL9printcharPPci:00000000 _ZL9printcharPPci
     /tmp/cc2xjAK0.s:112    .text._ZL6printsPPcPKcii:00000000 $t
     /tmp/cc2xjAK0.s:116    .text._ZL6printsPPcPKcii:00000000 _ZL6printsPPcPKcii
     /tmp/cc2xjAK0.s:283    .text._ZL6printiPPciiiiii:00000000 $t
     /tmp/cc2xjAK0.s:287    .text._ZL6printiPPciiiiii:00000000 _ZL6printiPPciiiiii
     /tmp/cc2xjAK0.s:447    .rodata:00000000 $d
     /tmp/cc2xjAK0.s:448    .rodata:00000000 .LC0
     /tmp/cc2xjAK0.s:451    .text._ZL5printPPcPKcSt9__va_list:00000000 $t
     /tmp/cc2xjAK0.s:455    .text._ZL5printPPcPKcSt9__va_list:00000000 _ZL5printPPcPKcSt9__va_list
     /tmp/cc2xjAK0.s:822    .text.printf:00000000 $t
     /tmp/cc2xjAK0.s:827    .text.printf:00000000 printf
     /tmp/cc2xjAK0.s:873    .text.sprintf:00000000 $t
     /tmp/cc2xjAK0.s:878    .text.sprintf:00000000 sprintf
     /tmp/cc2xjAK0.s:925    .text.vsprintf:00000000 $t
     /tmp/cc2xjAK0.s:930    .text.vsprintf:00000000 vsprintf
                     .debug_frame:00000010 $d
                           .group:00000000 wm4.1.0f96879df78db10a50dc9b309382ad80
                           .group:00000000 wm4.stdarg.h.31.b70f21342353634f7b44d85f85f13832

UNDEFINED SYMBOLS
_Z18usartSendCharacteri
