ARM GAS  /tmp/cchZ2RfF.s 			page 1


   1              		.syntax unified
   2              		.cpu cortex-m3
   3              		.fpu softvfp
   4              		.eabi_attribute 20, 1	@ Tag_ABI_FP_denormal
   5              		.eabi_attribute 21, 1	@ Tag_ABI_FP_exceptions
   6              		.eabi_attribute 23, 3	@ Tag_ABI_FP_number_model
   7              		.eabi_attribute 24, 1	@ Tag_ABI_align8_needed
   8              		.eabi_attribute 25, 1	@ Tag_ABI_align8_preserved
   9              		.eabi_attribute 26, 1	@ Tag_ABI_enum_size
  10              		.eabi_attribute 30, 4	@ Tag_ABI_optimization_goals
  11              		.eabi_attribute 34, 1	@ Tag_CPU_unaligned_access
  12              		.eabi_attribute 18, 4	@ Tag_ABI_PCS_wchar_t
  13              		.file	"queue.c"
  14              	@ GNU C (GNU Tools for ARM Embedded Processors) version 4.7.3 20130312 (release) [ARM/embedded-4_7-
  15              	@	compiled by GNU C version 4.3.6, GMP version 4.3.2, MPFR version 2.4.2, MPC version 0.8.1
  16              	@ GGC heuristics: --param ggc-min-expand=100 --param ggc-min-heapsize=131072
  17              	@ options passed:  -I . -I inc -I FreeRTOS/include
  18              	@ -I FreeRTOS/portable/GCC/ARM_CM3 -I FatFS -I peripherals
  19              	@ -imultilib armv7-m
  20              	@ -iprefix /home/maciek/gcc-arm-none-eabi/gcc-arm-none-eabi-4_7-2013q1/bin/../lib/gcc/arm-none-eabi
  21              	@ -isysroot /home/maciek/gcc-arm-none-eabi/gcc-arm-none-eabi-4_7-2013q1/bin/../arm-none-eabi
  22              	@ -MD out/queue.d -MF out/queue.d -MP -MQ out/queue.o -D__USES_INITFINI__
  23              	@ -D STM32L1XX_MD FreeRTOS/queue.c -mcpu=cortex-m3 -mthumb
  24              	@ -auxbase-strip out/queue.o -g -ggdb3 -Os -Wall -Wstrict-prototypes
  25              	@ -Wextra -std=gnu90 -ffunction-sections -fdata-sections -fverbose-asm
  26              	@ options enabled:  -fauto-inc-dec -fbranch-count-reg -fcaller-saves
  27              	@ -fcombine-stack-adjustments -fcommon -fcompare-elim -fcprop-registers
  28              	@ -fcrossjumping -fcse-follow-jumps -fdata-sections -fdebug-types-section
  29              	@ -fdefer-pop -fdelete-null-pointer-checks -fdevirtualize -fdwarf2-cfi-asm
  30              	@ -fearly-inlining -feliminate-unused-debug-types -fexpensive-optimizations
  31              	@ -fforward-propagate -ffunction-cse -ffunction-sections -fgcse -fgcse-lm
  32              	@ -fgnu-runtime -fguess-branch-probability -fident -fif-conversion
  33              	@ -fif-conversion2 -findirect-inlining -finline -finline-atomics
  34              	@ -finline-functions -finline-functions-called-once
  35              	@ -finline-small-functions -fipa-cp -fipa-profile -fipa-pure-const
  36              	@ -fipa-reference -fipa-sra -fira-share-save-slots -fira-share-spill-slots
  37              	@ -fivopts -fkeep-static-consts -fleading-underscore -fmath-errno
  38              	@ -fmerge-constants -fmerge-debug-strings -fomit-frame-pointer
  39              	@ -foptimize-register-move -foptimize-sibling-calls -fpartial-inlining
  40              	@ -fpeephole -fpeephole2 -fprefetch-loop-arrays -freg-struct-return
  41              	@ -fregmove -frename-registers -freorder-blocks -freorder-functions
  42              	@ -frerun-cse-after-loop -fsched-critical-path-heuristic
  43              	@ -fsched-dep-count-heuristic -fsched-group-heuristic -fsched-interblock
  44              	@ -fsched-last-insn-heuristic -fsched-rank-heuristic -fsched-spec
  45              	@ -fsched-spec-insn-heuristic -fsched-stalled-insns-dep -fschedule-insns2
  46              	@ -fsection-anchors -fshow-column -fshrink-wrap -fsigned-zeros
  47              	@ -fsplit-ivs-in-unroller -fsplit-wide-types -fstrict-aliasing
  48              	@ -fstrict-overflow -fstrict-volatile-bitfields -fthread-jumps
  49              	@ -ftoplevel-reorder -ftrapping-math -ftree-bit-ccp -ftree-builtin-call-dce
  50              	@ -ftree-ccp -ftree-ch -ftree-copy-prop -ftree-copyrename -ftree-cselim
  51              	@ -ftree-dce -ftree-dominator-opts -ftree-dse -ftree-forwprop -ftree-fre
  52              	@ -ftree-loop-if-convert -ftree-loop-im -ftree-loop-ivcanon
  53              	@ -ftree-loop-optimize -ftree-parallelize-loops= -ftree-phiprop -ftree-pre
  54              	@ -ftree-pta -ftree-reassoc -ftree-scev-cprop -ftree-sink
  55              	@ -ftree-slp-vectorize -ftree-sra -ftree-switch-conversion
  56              	@ -ftree-tail-merge -ftree-ter -ftree-vect-loop-version -ftree-vrp
  57              	@ -funit-at-a-time -funroll-loops -fvar-tracking -fvar-tracking-assignments
ARM GAS  /tmp/cchZ2RfF.s 			page 2


  58              	@ -fverbose-asm -fweb -fzero-initialized-in-bss -mfix-cortex-m3-ldrd
  59              	@ -mlittle-endian -msched-prolog -mthumb -munaligned-access
  60              	@ -mvectorize-with-neon-quad
  61              	
  62              		.text
  63              	.Ltext0:
  64              		.cfi_sections	.debug_frame
  65              		.section	.text.prvCopyDataFromQueue,"ax",%progbits
  66              		.align	1
  67              		.thumb
  68              		.thumb_func
  69              		.type	prvCopyDataFromQueue, %function
  70              	prvCopyDataFromQueue:
  71              	.LFB69:
  72              		.file 1 "FreeRTOS/queue.c"
   1:FreeRTOS/queue.c **** /*
   2:FreeRTOS/queue.c ****     FreeRTOS V7.2.0 - Copyright (C) 2012 Real Time Engineers Ltd.
   3:FreeRTOS/queue.c **** 
   4:FreeRTOS/queue.c **** 
   5:FreeRTOS/queue.c ****     ***************************************************************************
   6:FreeRTOS/queue.c ****      *                                                                       *
   7:FreeRTOS/queue.c ****      *    FreeRTOS tutorial books are available in pdf and paperback.        *
   8:FreeRTOS/queue.c ****      *    Complete, revised, and edited pdf reference manuals are also       *
   9:FreeRTOS/queue.c ****      *    available.                                                         *
  10:FreeRTOS/queue.c ****      *                                                                       *
  11:FreeRTOS/queue.c ****      *    Purchasing FreeRTOS documentation will not only help you, by       *
  12:FreeRTOS/queue.c ****      *    ensuring you get running as quickly as possible and with an        *
  13:FreeRTOS/queue.c ****      *    in-depth knowledge of how to use FreeRTOS, it will also help       *
  14:FreeRTOS/queue.c ****      *    the FreeRTOS project to continue with its mission of providing     *
  15:FreeRTOS/queue.c ****      *    professional grade, cross platform, de facto standard solutions    *
  16:FreeRTOS/queue.c ****      *    for microcontrollers - completely free of charge!                  *
  17:FreeRTOS/queue.c ****      *                                                                       *
  18:FreeRTOS/queue.c ****      *    >>> See http://www.FreeRTOS.org/Documentation for details. <<<     *
  19:FreeRTOS/queue.c ****      *                                                                       *
  20:FreeRTOS/queue.c ****      *    Thank you for using FreeRTOS, and thank you for your support!      *
  21:FreeRTOS/queue.c ****      *                                                                       *
  22:FreeRTOS/queue.c ****     ***************************************************************************
  23:FreeRTOS/queue.c **** 
  24:FreeRTOS/queue.c **** 
  25:FreeRTOS/queue.c ****     This file is part of the FreeRTOS distribution.
  26:FreeRTOS/queue.c **** 
  27:FreeRTOS/queue.c ****     FreeRTOS is free software; you can redistribute it and/or modify it under
  28:FreeRTOS/queue.c ****     the terms of the GNU General Public License (version 2) as published by the
  29:FreeRTOS/queue.c ****     Free Software Foundation AND MODIFIED BY the FreeRTOS exception.
  30:FreeRTOS/queue.c ****     >>>NOTE<<< The modification to the GPL is included to allow you to
  31:FreeRTOS/queue.c ****     distribute a combined work that includes FreeRTOS without being obliged to
  32:FreeRTOS/queue.c ****     provide the source code for proprietary components outside of the FreeRTOS
  33:FreeRTOS/queue.c ****     kernel.  FreeRTOS is distributed in the hope that it will be useful, but
  34:FreeRTOS/queue.c ****     WITHOUT ANY WARRANTY; without even the implied warranty of MERCHANTABILITY
  35:FreeRTOS/queue.c ****     or FITNESS FOR A PARTICULAR PURPOSE.  See the GNU General Public License for
  36:FreeRTOS/queue.c ****     more details. You should have received a copy of the GNU General Public
  37:FreeRTOS/queue.c ****     License and the FreeRTOS license exception along with FreeRTOS; if not it
  38:FreeRTOS/queue.c ****     can be viewed here: http://www.freertos.org/a00114.html and also obtained
  39:FreeRTOS/queue.c ****     by writing to Richard Barry, contact details for whom are available on the
  40:FreeRTOS/queue.c ****     FreeRTOS WEB site.
  41:FreeRTOS/queue.c **** 
  42:FreeRTOS/queue.c ****     1 tab == 4 spaces!
ARM GAS  /tmp/cchZ2RfF.s 			page 3


  43:FreeRTOS/queue.c ****     
  44:FreeRTOS/queue.c ****     ***************************************************************************
  45:FreeRTOS/queue.c ****      *                                                                       *
  46:FreeRTOS/queue.c ****      *    Having a problem?  Start by reading the FAQ "My application does   *
  47:FreeRTOS/queue.c ****      *    not run, what could be wrong?                                      *
  48:FreeRTOS/queue.c ****      *                                                                       *
  49:FreeRTOS/queue.c ****      *    http://www.FreeRTOS.org/FAQHelp.html                               *
  50:FreeRTOS/queue.c ****      *                                                                       *
  51:FreeRTOS/queue.c ****     ***************************************************************************
  52:FreeRTOS/queue.c **** 
  53:FreeRTOS/queue.c ****     
  54:FreeRTOS/queue.c ****     http://www.FreeRTOS.org - Documentation, training, latest information, 
  55:FreeRTOS/queue.c ****     license and contact details.
  56:FreeRTOS/queue.c ****     
  57:FreeRTOS/queue.c ****     http://www.FreeRTOS.org/plus - A selection of FreeRTOS ecosystem products,
  58:FreeRTOS/queue.c ****     including FreeRTOS+Trace - an indispensable productivity tool.
  59:FreeRTOS/queue.c **** 
  60:FreeRTOS/queue.c ****     Real Time Engineers ltd license FreeRTOS to High Integrity Systems, who sell 
  61:FreeRTOS/queue.c ****     the code with commercial support, indemnification, and middleware, under 
  62:FreeRTOS/queue.c ****     the OpenRTOS brand: http://www.OpenRTOS.com.  High Integrity Systems also
  63:FreeRTOS/queue.c ****     provide a safety engineered and independently SIL3 certified version under 
  64:FreeRTOS/queue.c ****     the SafeRTOS brand: http://www.SafeRTOS.com.
  65:FreeRTOS/queue.c **** */
  66:FreeRTOS/queue.c **** 
  67:FreeRTOS/queue.c **** #include <stdlib.h>
  68:FreeRTOS/queue.c **** #include <string.h>
  69:FreeRTOS/queue.c **** 
  70:FreeRTOS/queue.c **** /* Defining MPU_WRAPPERS_INCLUDED_FROM_API_FILE prevents task.h from redefining
  71:FreeRTOS/queue.c **** all the API functions to use the MPU wrappers.  That should only be done when
  72:FreeRTOS/queue.c **** task.h is included from an application file. */
  73:FreeRTOS/queue.c **** #define MPU_WRAPPERS_INCLUDED_FROM_API_FILE
  74:FreeRTOS/queue.c **** 
  75:FreeRTOS/queue.c **** #include "FreeRTOS.h"
  76:FreeRTOS/queue.c **** #include "task.h"
  77:FreeRTOS/queue.c **** 
  78:FreeRTOS/queue.c **** #if ( configUSE_CO_ROUTINES == 1 )
  79:FreeRTOS/queue.c **** 	#include "croutine.h"
  80:FreeRTOS/queue.c **** #endif
  81:FreeRTOS/queue.c **** 
  82:FreeRTOS/queue.c **** #undef MPU_WRAPPERS_INCLUDED_FROM_API_FILE
  83:FreeRTOS/queue.c **** 
  84:FreeRTOS/queue.c **** /*-----------------------------------------------------------
  85:FreeRTOS/queue.c ****  * PUBLIC LIST API documented in list.h
  86:FreeRTOS/queue.c ****  *----------------------------------------------------------*/
  87:FreeRTOS/queue.c **** 
  88:FreeRTOS/queue.c **** /* Constants used with the cRxLock and xTxLock structure members. */
  89:FreeRTOS/queue.c **** #define queueUNLOCKED					( ( signed portBASE_TYPE ) -1 )
  90:FreeRTOS/queue.c **** #define queueLOCKED_UNMODIFIED			( ( signed portBASE_TYPE ) 0 )
  91:FreeRTOS/queue.c **** 
  92:FreeRTOS/queue.c **** #define queueERRONEOUS_UNBLOCK			( -1 )
  93:FreeRTOS/queue.c **** 
  94:FreeRTOS/queue.c **** /* For internal use only. */
  95:FreeRTOS/queue.c **** #define	queueSEND_TO_BACK				( 0 )
  96:FreeRTOS/queue.c **** #define	queueSEND_TO_FRONT				( 1 )
  97:FreeRTOS/queue.c **** 
  98:FreeRTOS/queue.c **** /* Effectively make a union out of the xQUEUE structure. */
  99:FreeRTOS/queue.c **** #define pxMutexHolder					pcTail
ARM GAS  /tmp/cchZ2RfF.s 			page 4


 100:FreeRTOS/queue.c **** #define uxQueueType						pcHead
 101:FreeRTOS/queue.c **** #define uxRecursiveCallCount			pcReadFrom
 102:FreeRTOS/queue.c **** #define queueQUEUE_IS_MUTEX				NULL
 103:FreeRTOS/queue.c **** 
 104:FreeRTOS/queue.c **** /* Semaphores do not actually store or copy data, so have an items size of
 105:FreeRTOS/queue.c **** zero. */
 106:FreeRTOS/queue.c **** #define queueSEMAPHORE_QUEUE_ITEM_LENGTH ( ( unsigned portBASE_TYPE ) 0 )
 107:FreeRTOS/queue.c **** #define queueDONT_BLOCK					 ( ( portTickType ) 0U )
 108:FreeRTOS/queue.c **** #define queueMUTEX_GIVE_BLOCK_TIME		 ( ( portTickType ) 0U )
 109:FreeRTOS/queue.c **** 
 110:FreeRTOS/queue.c **** /* These definitions *must* match those in queue.h. */
 111:FreeRTOS/queue.c **** #define queueQUEUE_TYPE_BASE				( 0U )
 112:FreeRTOS/queue.c **** #define queueQUEUE_TYPE_MUTEX 				( 1U )
 113:FreeRTOS/queue.c **** #define queueQUEUE_TYPE_COUNTING_SEMAPHORE	( 2U )
 114:FreeRTOS/queue.c **** #define queueQUEUE_TYPE_BINARY_SEMAPHORE	( 3U )
 115:FreeRTOS/queue.c **** #define queueQUEUE_TYPE_RECURSIVE_MUTEX		( 4U )
 116:FreeRTOS/queue.c **** 
 117:FreeRTOS/queue.c **** /*
 118:FreeRTOS/queue.c ****  * Definition of the queue used by the scheduler.
 119:FreeRTOS/queue.c ****  * Items are queued by copy, not reference.
 120:FreeRTOS/queue.c ****  */
 121:FreeRTOS/queue.c **** typedef struct QueueDefinition
 122:FreeRTOS/queue.c **** {
 123:FreeRTOS/queue.c **** 	signed char *pcHead;				/*< Points to the beginning of the queue storage area. */
 124:FreeRTOS/queue.c **** 	signed char *pcTail;				/*< Points to the byte at the end of the queue storage area.  Once more by
 125:FreeRTOS/queue.c **** 
 126:FreeRTOS/queue.c **** 	signed char *pcWriteTo;				/*< Points to the free next place in the storage area. */
 127:FreeRTOS/queue.c **** 	signed char *pcReadFrom;			/*< Points to the last place that a queued item was read from. */
 128:FreeRTOS/queue.c **** 
 129:FreeRTOS/queue.c **** 	xList xTasksWaitingToSend;				/*< List of tasks that are blocked waiting to post onto this queue. 
 130:FreeRTOS/queue.c **** 	xList xTasksWaitingToReceive;			/*< List of tasks that are blocked waiting to read from this queue
 131:FreeRTOS/queue.c **** 
 132:FreeRTOS/queue.c **** 	volatile unsigned portBASE_TYPE uxMessagesWaiting;/*< The number of items currently in the queue. 
 133:FreeRTOS/queue.c **** 	unsigned portBASE_TYPE uxLength;		/*< The length of the queue defined as the number of items it wi
 134:FreeRTOS/queue.c **** 	unsigned portBASE_TYPE uxItemSize;		/*< The size of each items that the queue will hold. */
 135:FreeRTOS/queue.c **** 
 136:FreeRTOS/queue.c **** 	volatile signed portBASE_TYPE xRxLock;	/*< Stores the number of items received from the queue (rem
 137:FreeRTOS/queue.c **** 	volatile signed portBASE_TYPE xTxLock;	/*< Stores the number of items transmitted to the queue (ad
 138:FreeRTOS/queue.c **** 	
 139:FreeRTOS/queue.c **** 	#if ( configUSE_TRACE_FACILITY == 1 )
 140:FreeRTOS/queue.c **** 		unsigned char ucQueueNumber;
 141:FreeRTOS/queue.c **** 		unsigned char ucQueueType;
 142:FreeRTOS/queue.c **** 	#endif
 143:FreeRTOS/queue.c **** 
 144:FreeRTOS/queue.c **** } xQUEUE;
 145:FreeRTOS/queue.c **** /*-----------------------------------------------------------*/
 146:FreeRTOS/queue.c **** 
 147:FreeRTOS/queue.c **** /*
 148:FreeRTOS/queue.c ****  * Inside this file xQueueHandle is a pointer to a xQUEUE structure.
 149:FreeRTOS/queue.c ****  * To keep the definition private the API header file defines it as a
 150:FreeRTOS/queue.c ****  * pointer to void.
 151:FreeRTOS/queue.c ****  */
 152:FreeRTOS/queue.c **** typedef xQUEUE * xQueueHandle;
 153:FreeRTOS/queue.c **** 
 154:FreeRTOS/queue.c **** /*
 155:FreeRTOS/queue.c ****  * Prototypes for public functions are included here so we don't have to
 156:FreeRTOS/queue.c ****  * include the API header file (as it defines xQueueHandle differently).  These
ARM GAS  /tmp/cchZ2RfF.s 			page 5


 157:FreeRTOS/queue.c ****  * functions are documented in the API header file.
 158:FreeRTOS/queue.c ****  */
 159:FreeRTOS/queue.c **** xQueueHandle xQueueGenericCreate( unsigned portBASE_TYPE uxQueueLength, unsigned portBASE_TYPE uxIt
 160:FreeRTOS/queue.c **** signed portBASE_TYPE xQueueGenericSend( xQueueHandle pxQueue, const void * const pvItemToQueue, por
 161:FreeRTOS/queue.c **** unsigned portBASE_TYPE uxQueueMessagesWaiting( const xQueueHandle pxQueue ) PRIVILEGED_FUNCTION;
 162:FreeRTOS/queue.c **** void vQueueDelete( xQueueHandle xQueue ) PRIVILEGED_FUNCTION;
 163:FreeRTOS/queue.c **** signed portBASE_TYPE xQueueGenericSendFromISR( xQueueHandle pxQueue, const void * const pvItemToQue
 164:FreeRTOS/queue.c **** signed portBASE_TYPE xQueueGenericReceive( xQueueHandle pxQueue, void * const pvBuffer, portTickTyp
 165:FreeRTOS/queue.c **** signed portBASE_TYPE xQueueReceiveFromISR( xQueueHandle pxQueue, void * const pvBuffer, signed port
 166:FreeRTOS/queue.c **** xQueueHandle xQueueCreateMutex( unsigned char ucQueueType ) PRIVILEGED_FUNCTION;
 167:FreeRTOS/queue.c **** xQueueHandle xQueueCreateCountingSemaphore( unsigned portBASE_TYPE uxCountValue, unsigned portBASE_
 168:FreeRTOS/queue.c **** portBASE_TYPE xQueueTakeMutexRecursive( xQueueHandle xMutex, portTickType xBlockTime ) PRIVILEGED_F
 169:FreeRTOS/queue.c **** portBASE_TYPE xQueueGiveMutexRecursive( xQueueHandle xMutex ) PRIVILEGED_FUNCTION;
 170:FreeRTOS/queue.c **** signed portBASE_TYPE xQueueAltGenericSend( xQueueHandle pxQueue, const void * const pvItemToQueue, 
 171:FreeRTOS/queue.c **** signed portBASE_TYPE xQueueAltGenericReceive( xQueueHandle pxQueue, void * const pvBuffer, portTick
 172:FreeRTOS/queue.c **** signed portBASE_TYPE xQueueIsQueueEmptyFromISR( const xQueueHandle pxQueue ) PRIVILEGED_FUNCTION;
 173:FreeRTOS/queue.c **** signed portBASE_TYPE xQueueIsQueueFullFromISR( const xQueueHandle pxQueue ) PRIVILEGED_FUNCTION;
 174:FreeRTOS/queue.c **** unsigned portBASE_TYPE uxQueueMessagesWaitingFromISR( const xQueueHandle pxQueue ) PRIVILEGED_FUNCT
 175:FreeRTOS/queue.c **** void vQueueWaitForMessageRestricted( xQueueHandle pxQueue, portTickType xTicksToWait ) PRIVILEGED_F
 176:FreeRTOS/queue.c **** unsigned char ucQueueGetQueueNumber( xQueueHandle pxQueue ) PRIVILEGED_FUNCTION;
 177:FreeRTOS/queue.c **** void vQueueSetQueueNumber( xQueueHandle pxQueue, unsigned char ucQueueNumber ) PRIVILEGED_FUNCTION;
 178:FreeRTOS/queue.c **** unsigned char ucQueueGetQueueType( xQueueHandle pxQueue ) PRIVILEGED_FUNCTION;
 179:FreeRTOS/queue.c **** portBASE_TYPE xQueueGenericReset( xQueueHandle pxQueue, portBASE_TYPE xNewQueue ) PRIVILEGED_FUNCTI
 180:FreeRTOS/queue.c **** xTaskHandle xQueueGetMutexHolder( xQueueHandle xSemaphore ) PRIVILEGED_FUNCTION;
 181:FreeRTOS/queue.c **** 
 182:FreeRTOS/queue.c **** /*
 183:FreeRTOS/queue.c ****  * Co-routine queue functions differ from task queue functions.  Co-routines are
 184:FreeRTOS/queue.c ****  * an optional component.
 185:FreeRTOS/queue.c ****  */
 186:FreeRTOS/queue.c **** #if configUSE_CO_ROUTINES == 1
 187:FreeRTOS/queue.c **** 	signed portBASE_TYPE xQueueCRSendFromISR( xQueueHandle pxQueue, const void *pvItemToQueue, signed 
 188:FreeRTOS/queue.c **** 	signed portBASE_TYPE xQueueCRReceiveFromISR( xQueueHandle pxQueue, void *pvBuffer, signed portBASE
 189:FreeRTOS/queue.c **** 	signed portBASE_TYPE xQueueCRSend( xQueueHandle pxQueue, const void *pvItemToQueue, portTickType x
 190:FreeRTOS/queue.c **** 	signed portBASE_TYPE xQueueCRReceive( xQueueHandle pxQueue, void *pvBuffer, portTickType xTicksToW
 191:FreeRTOS/queue.c **** #endif
 192:FreeRTOS/queue.c **** 
 193:FreeRTOS/queue.c **** /*
 194:FreeRTOS/queue.c ****  * The queue registry is just a means for kernel aware debuggers to locate
 195:FreeRTOS/queue.c ****  * queue structures.  It has no other purpose so is an optional component.
 196:FreeRTOS/queue.c ****  */
 197:FreeRTOS/queue.c **** #if configQUEUE_REGISTRY_SIZE > 0
 198:FreeRTOS/queue.c **** 
 199:FreeRTOS/queue.c **** 	/* The type stored within the queue registry array.  This allows a name
 200:FreeRTOS/queue.c **** 	to be assigned to each queue making kernel aware debugging a little
 201:FreeRTOS/queue.c **** 	more user friendly. */
 202:FreeRTOS/queue.c **** 	typedef struct QUEUE_REGISTRY_ITEM
 203:FreeRTOS/queue.c **** 	{
 204:FreeRTOS/queue.c **** 		signed char *pcQueueName;
 205:FreeRTOS/queue.c **** 		xQueueHandle xHandle;
 206:FreeRTOS/queue.c **** 	} xQueueRegistryItem;
 207:FreeRTOS/queue.c **** 
 208:FreeRTOS/queue.c **** 	/* The queue registry is simply an array of xQueueRegistryItem structures.
 209:FreeRTOS/queue.c **** 	The pcQueueName member of a structure being NULL is indicative of the
 210:FreeRTOS/queue.c **** 	array position being vacant. */
 211:FreeRTOS/queue.c **** 	xQueueRegistryItem xQueueRegistry[ configQUEUE_REGISTRY_SIZE ];
 212:FreeRTOS/queue.c **** 
 213:FreeRTOS/queue.c **** 	/* Removes a queue from the registry by simply setting the pcQueueName
ARM GAS  /tmp/cchZ2RfF.s 			page 6


 214:FreeRTOS/queue.c **** 	member to NULL. */
 215:FreeRTOS/queue.c **** 	static void vQueueUnregisterQueue( xQueueHandle xQueue ) PRIVILEGED_FUNCTION;
 216:FreeRTOS/queue.c **** 	void vQueueAddToRegistry( xQueueHandle xQueue, signed char *pcQueueName ) PRIVILEGED_FUNCTION;
 217:FreeRTOS/queue.c **** #endif
 218:FreeRTOS/queue.c **** 
 219:FreeRTOS/queue.c **** /*
 220:FreeRTOS/queue.c ****  * Unlocks a queue locked by a call to prvLockQueue.  Locking a queue does not
 221:FreeRTOS/queue.c ****  * prevent an ISR from adding or removing items to the queue, but does prevent
 222:FreeRTOS/queue.c ****  * an ISR from removing tasks from the queue event lists.  If an ISR finds a
 223:FreeRTOS/queue.c ****  * queue is locked it will instead increment the appropriate queue lock count
 224:FreeRTOS/queue.c ****  * to indicate that a task may require unblocking.  When the queue in unlocked
 225:FreeRTOS/queue.c ****  * these lock counts are inspected, and the appropriate action taken.
 226:FreeRTOS/queue.c ****  */
 227:FreeRTOS/queue.c **** static void prvUnlockQueue( xQueueHandle pxQueue ) PRIVILEGED_FUNCTION;
 228:FreeRTOS/queue.c **** 
 229:FreeRTOS/queue.c **** /*
 230:FreeRTOS/queue.c ****  * Uses a critical section to determine if there is any data in a queue.
 231:FreeRTOS/queue.c ****  *
 232:FreeRTOS/queue.c ****  * @return pdTRUE if the queue contains no items, otherwise pdFALSE.
 233:FreeRTOS/queue.c ****  */
 234:FreeRTOS/queue.c **** static signed portBASE_TYPE prvIsQueueEmpty( const xQueueHandle pxQueue ) PRIVILEGED_FUNCTION;
 235:FreeRTOS/queue.c **** 
 236:FreeRTOS/queue.c **** /*
 237:FreeRTOS/queue.c ****  * Uses a critical section to determine if there is any space in a queue.
 238:FreeRTOS/queue.c ****  *
 239:FreeRTOS/queue.c ****  * @return pdTRUE if there is no space, otherwise pdFALSE;
 240:FreeRTOS/queue.c ****  */
 241:FreeRTOS/queue.c **** static signed portBASE_TYPE prvIsQueueFull( const xQueueHandle pxQueue ) PRIVILEGED_FUNCTION;
 242:FreeRTOS/queue.c **** 
 243:FreeRTOS/queue.c **** /*
 244:FreeRTOS/queue.c ****  * Copies an item into the queue, either at the front of the queue or the
 245:FreeRTOS/queue.c ****  * back of the queue.
 246:FreeRTOS/queue.c ****  */
 247:FreeRTOS/queue.c **** static void prvCopyDataToQueue( xQUEUE *pxQueue, const void *pvItemToQueue, portBASE_TYPE xPosition
 248:FreeRTOS/queue.c **** 
 249:FreeRTOS/queue.c **** /*
 250:FreeRTOS/queue.c ****  * Copies an item out of a queue.
 251:FreeRTOS/queue.c ****  */
 252:FreeRTOS/queue.c **** static void prvCopyDataFromQueue( xQUEUE * const pxQueue, const void *pvBuffer ) PRIVILEGED_FUNCTIO
 253:FreeRTOS/queue.c **** /*-----------------------------------------------------------*/
 254:FreeRTOS/queue.c **** 
 255:FreeRTOS/queue.c **** /*
 256:FreeRTOS/queue.c ****  * Macro to mark a queue as locked.  Locking a queue prevents an ISR from
 257:FreeRTOS/queue.c ****  * accessing the queue event lists.
 258:FreeRTOS/queue.c ****  */
 259:FreeRTOS/queue.c **** #define prvLockQueue( pxQueue )								\
 260:FreeRTOS/queue.c **** 	taskENTER_CRITICAL();									\
 261:FreeRTOS/queue.c **** 	{														\
 262:FreeRTOS/queue.c **** 		if( ( pxQueue )->xRxLock == queueUNLOCKED )			\
 263:FreeRTOS/queue.c **** 		{													\
 264:FreeRTOS/queue.c **** 			( pxQueue )->xRxLock = queueLOCKED_UNMODIFIED;	\
 265:FreeRTOS/queue.c **** 		}													\
 266:FreeRTOS/queue.c **** 		if( ( pxQueue )->xTxLock == queueUNLOCKED )			\
 267:FreeRTOS/queue.c **** 		{													\
 268:FreeRTOS/queue.c **** 			( pxQueue )->xTxLock = queueLOCKED_UNMODIFIED;	\
 269:FreeRTOS/queue.c **** 		}													\
 270:FreeRTOS/queue.c **** 	}														\
ARM GAS  /tmp/cchZ2RfF.s 			page 7


 271:FreeRTOS/queue.c **** 	taskEXIT_CRITICAL()
 272:FreeRTOS/queue.c **** /*-----------------------------------------------------------*/
 273:FreeRTOS/queue.c **** 
 274:FreeRTOS/queue.c **** 
 275:FreeRTOS/queue.c **** /*-----------------------------------------------------------
 276:FreeRTOS/queue.c ****  * PUBLIC QUEUE MANAGEMENT API documented in queue.h
 277:FreeRTOS/queue.c ****  *----------------------------------------------------------*/
 278:FreeRTOS/queue.c **** 
 279:FreeRTOS/queue.c **** portBASE_TYPE xQueueGenericReset( xQueueHandle pxQueue, portBASE_TYPE xNewQueue )
 280:FreeRTOS/queue.c **** {
 281:FreeRTOS/queue.c **** 	configASSERT( pxQueue );
 282:FreeRTOS/queue.c **** 
 283:FreeRTOS/queue.c **** 	taskENTER_CRITICAL();
 284:FreeRTOS/queue.c **** 	{
 285:FreeRTOS/queue.c **** 		pxQueue->pcTail = pxQueue->pcHead + ( pxQueue->uxLength * pxQueue->uxItemSize );
 286:FreeRTOS/queue.c **** 		pxQueue->uxMessagesWaiting = ( unsigned portBASE_TYPE ) 0U;
 287:FreeRTOS/queue.c **** 		pxQueue->pcWriteTo = pxQueue->pcHead;
 288:FreeRTOS/queue.c **** 		pxQueue->pcReadFrom = pxQueue->pcHead + ( ( pxQueue->uxLength - ( unsigned portBASE_TYPE ) 1U ) *
 289:FreeRTOS/queue.c **** 		pxQueue->xRxLock = queueUNLOCKED;
 290:FreeRTOS/queue.c **** 		pxQueue->xTxLock = queueUNLOCKED;
 291:FreeRTOS/queue.c **** 
 292:FreeRTOS/queue.c **** 		if( xNewQueue == pdFALSE )
 293:FreeRTOS/queue.c **** 		{
 294:FreeRTOS/queue.c **** 			/* If there are tasks blocked waiting to read from the queue, then 
 295:FreeRTOS/queue.c **** 			the tasks will remain blocked as after this function exits the queue 
 296:FreeRTOS/queue.c **** 			will still be empty.  If there are tasks blocked waiting to	write to 
 297:FreeRTOS/queue.c **** 			the queue, then one should be unblocked as after this function exits 
 298:FreeRTOS/queue.c **** 			it will be possible to write to it. */
 299:FreeRTOS/queue.c **** 			if( listLIST_IS_EMPTY( &( pxQueue->xTasksWaitingToSend ) ) == pdFALSE )
 300:FreeRTOS/queue.c **** 			{
 301:FreeRTOS/queue.c **** 				if( xTaskRemoveFromEventList( &( pxQueue->xTasksWaitingToSend ) ) == pdTRUE )
 302:FreeRTOS/queue.c **** 				{
 303:FreeRTOS/queue.c **** 					portYIELD_WITHIN_API();
 304:FreeRTOS/queue.c **** 				}
 305:FreeRTOS/queue.c **** 			}
 306:FreeRTOS/queue.c **** 		}
 307:FreeRTOS/queue.c **** 		else
 308:FreeRTOS/queue.c **** 		{
 309:FreeRTOS/queue.c **** 			/* Ensure the event queues start in the correct state. */
 310:FreeRTOS/queue.c **** 			vListInitialise( &( pxQueue->xTasksWaitingToSend ) );
 311:FreeRTOS/queue.c **** 			vListInitialise( &( pxQueue->xTasksWaitingToReceive ) );		
 312:FreeRTOS/queue.c **** 		}
 313:FreeRTOS/queue.c **** 	}
 314:FreeRTOS/queue.c **** 	taskEXIT_CRITICAL();
 315:FreeRTOS/queue.c **** 
 316:FreeRTOS/queue.c **** 	/* A value is returned for calling semantic consistency with previous
 317:FreeRTOS/queue.c **** 	versions. */
 318:FreeRTOS/queue.c **** 	return pdPASS;
 319:FreeRTOS/queue.c **** }
 320:FreeRTOS/queue.c **** /*-----------------------------------------------------------*/
 321:FreeRTOS/queue.c **** 
 322:FreeRTOS/queue.c **** xQueueHandle xQueueGenericCreate( unsigned portBASE_TYPE uxQueueLength, unsigned portBASE_TYPE uxIt
 323:FreeRTOS/queue.c **** {
 324:FreeRTOS/queue.c **** xQUEUE *pxNewQueue;
 325:FreeRTOS/queue.c **** size_t xQueueSizeInBytes;
 326:FreeRTOS/queue.c **** xQueueHandle xReturn = NULL;
 327:FreeRTOS/queue.c **** 
ARM GAS  /tmp/cchZ2RfF.s 			page 8


 328:FreeRTOS/queue.c **** 	/* Remove compiler warnings about unused parameters should
 329:FreeRTOS/queue.c **** 	configUSE_TRACE_FACILITY not be set to 1. */
 330:FreeRTOS/queue.c **** 	( void ) ucQueueType;
 331:FreeRTOS/queue.c **** 
 332:FreeRTOS/queue.c **** 	/* Allocate the new queue structure. */
 333:FreeRTOS/queue.c **** 	if( uxQueueLength > ( unsigned portBASE_TYPE ) 0 )
 334:FreeRTOS/queue.c **** 	{
 335:FreeRTOS/queue.c **** 		pxNewQueue = ( xQUEUE * ) pvPortMalloc( sizeof( xQUEUE ) );
 336:FreeRTOS/queue.c **** 		if( pxNewQueue != NULL )
 337:FreeRTOS/queue.c **** 		{
 338:FreeRTOS/queue.c **** 			/* Create the list of pointers to queue items.  The queue is one byte
 339:FreeRTOS/queue.c **** 			longer than asked for to make wrap checking easier/faster. */
 340:FreeRTOS/queue.c **** 			xQueueSizeInBytes = ( size_t ) ( uxQueueLength * uxItemSize ) + ( size_t ) 1;
 341:FreeRTOS/queue.c **** 
 342:FreeRTOS/queue.c **** 			pxNewQueue->pcHead = ( signed char * ) pvPortMalloc( xQueueSizeInBytes );
 343:FreeRTOS/queue.c **** 			if( pxNewQueue->pcHead != NULL )
 344:FreeRTOS/queue.c **** 			{
 345:FreeRTOS/queue.c **** 				/* Initialise the queue members as described above where the
 346:FreeRTOS/queue.c **** 				queue type is defined. */
 347:FreeRTOS/queue.c **** 				pxNewQueue->uxLength = uxQueueLength;
 348:FreeRTOS/queue.c **** 				pxNewQueue->uxItemSize = uxItemSize;
 349:FreeRTOS/queue.c **** 				xQueueGenericReset( pxNewQueue, pdTRUE );
 350:FreeRTOS/queue.c **** 				#if ( configUSE_TRACE_FACILITY == 1 )
 351:FreeRTOS/queue.c **** 				{
 352:FreeRTOS/queue.c **** 					pxNewQueue->ucQueueType = ucQueueType;
 353:FreeRTOS/queue.c **** 				}
 354:FreeRTOS/queue.c **** 				#endif /* configUSE_TRACE_FACILITY */
 355:FreeRTOS/queue.c **** 
 356:FreeRTOS/queue.c **** 				traceQUEUE_CREATE( pxNewQueue );
 357:FreeRTOS/queue.c **** 				xReturn = pxNewQueue;
 358:FreeRTOS/queue.c **** 			}
 359:FreeRTOS/queue.c **** 			else
 360:FreeRTOS/queue.c **** 			{
 361:FreeRTOS/queue.c **** 				traceQUEUE_CREATE_FAILED( ucQueueType );
 362:FreeRTOS/queue.c **** 				vPortFree( pxNewQueue );
 363:FreeRTOS/queue.c **** 			}
 364:FreeRTOS/queue.c **** 		}
 365:FreeRTOS/queue.c **** 	}
 366:FreeRTOS/queue.c **** 
 367:FreeRTOS/queue.c **** 	configASSERT( xReturn );
 368:FreeRTOS/queue.c **** 
 369:FreeRTOS/queue.c **** 	return xReturn;
 370:FreeRTOS/queue.c **** }
 371:FreeRTOS/queue.c **** /*-----------------------------------------------------------*/
 372:FreeRTOS/queue.c **** 
 373:FreeRTOS/queue.c **** #if ( configUSE_MUTEXES == 1 )
 374:FreeRTOS/queue.c **** 
 375:FreeRTOS/queue.c **** 	xQueueHandle xQueueCreateMutex( unsigned char ucQueueType )
 376:FreeRTOS/queue.c **** 	{
 377:FreeRTOS/queue.c **** 	xQUEUE *pxNewQueue;
 378:FreeRTOS/queue.c **** 
 379:FreeRTOS/queue.c **** 		/* Prevent compiler warnings about unused parameters if
 380:FreeRTOS/queue.c **** 		configUSE_TRACE_FACILITY does not equal 1. */
 381:FreeRTOS/queue.c **** 		( void ) ucQueueType;
 382:FreeRTOS/queue.c **** 
 383:FreeRTOS/queue.c **** 		/* Allocate the new queue structure. */
 384:FreeRTOS/queue.c **** 		pxNewQueue = ( xQUEUE * ) pvPortMalloc( sizeof( xQUEUE ) );
ARM GAS  /tmp/cchZ2RfF.s 			page 9


 385:FreeRTOS/queue.c **** 		if( pxNewQueue != NULL )
 386:FreeRTOS/queue.c **** 		{
 387:FreeRTOS/queue.c **** 			/* Information required for priority inheritance. */
 388:FreeRTOS/queue.c **** 			pxNewQueue->pxMutexHolder = NULL;
 389:FreeRTOS/queue.c **** 			pxNewQueue->uxQueueType = queueQUEUE_IS_MUTEX;
 390:FreeRTOS/queue.c **** 
 391:FreeRTOS/queue.c **** 			/* Queues used as a mutex no data is actually copied into or out
 392:FreeRTOS/queue.c **** 			of the queue. */
 393:FreeRTOS/queue.c **** 			pxNewQueue->pcWriteTo = NULL;
 394:FreeRTOS/queue.c **** 			pxNewQueue->pcReadFrom = NULL;
 395:FreeRTOS/queue.c **** 
 396:FreeRTOS/queue.c **** 			/* Each mutex has a length of 1 (like a binary semaphore) and
 397:FreeRTOS/queue.c **** 			an item size of 0 as nothing is actually copied into or out
 398:FreeRTOS/queue.c **** 			of the mutex. */
 399:FreeRTOS/queue.c **** 			pxNewQueue->uxMessagesWaiting = ( unsigned portBASE_TYPE ) 0U;
 400:FreeRTOS/queue.c **** 			pxNewQueue->uxLength = ( unsigned portBASE_TYPE ) 1U;
 401:FreeRTOS/queue.c **** 			pxNewQueue->uxItemSize = ( unsigned portBASE_TYPE ) 0U;
 402:FreeRTOS/queue.c **** 			pxNewQueue->xRxLock = queueUNLOCKED;
 403:FreeRTOS/queue.c **** 			pxNewQueue->xTxLock = queueUNLOCKED;
 404:FreeRTOS/queue.c **** 
 405:FreeRTOS/queue.c **** 			#if ( configUSE_TRACE_FACILITY == 1 )
 406:FreeRTOS/queue.c **** 			{
 407:FreeRTOS/queue.c **** 				pxNewQueue->ucQueueType = ucQueueType;
 408:FreeRTOS/queue.c **** 			}
 409:FreeRTOS/queue.c **** 			#endif
 410:FreeRTOS/queue.c **** 
 411:FreeRTOS/queue.c **** 			/* Ensure the event queues start with the correct state. */
 412:FreeRTOS/queue.c **** 			vListInitialise( &( pxNewQueue->xTasksWaitingToSend ) );
 413:FreeRTOS/queue.c **** 			vListInitialise( &( pxNewQueue->xTasksWaitingToReceive ) );
 414:FreeRTOS/queue.c **** 
 415:FreeRTOS/queue.c **** 			traceCREATE_MUTEX( pxNewQueue );
 416:FreeRTOS/queue.c **** 
 417:FreeRTOS/queue.c **** 			/* Start with the semaphore in the expected state. */
 418:FreeRTOS/queue.c **** 			xQueueGenericSend( pxNewQueue, NULL, ( portTickType ) 0U, queueSEND_TO_BACK );
 419:FreeRTOS/queue.c **** 		}
 420:FreeRTOS/queue.c **** 		else
 421:FreeRTOS/queue.c **** 		{
 422:FreeRTOS/queue.c **** 			traceCREATE_MUTEX_FAILED();
 423:FreeRTOS/queue.c **** 		}
 424:FreeRTOS/queue.c **** 
 425:FreeRTOS/queue.c **** 		configASSERT( pxNewQueue );
 426:FreeRTOS/queue.c **** 		return pxNewQueue;
 427:FreeRTOS/queue.c **** 	}
 428:FreeRTOS/queue.c **** 
 429:FreeRTOS/queue.c **** #endif /* configUSE_MUTEXES */
 430:FreeRTOS/queue.c **** /*-----------------------------------------------------------*/
 431:FreeRTOS/queue.c **** 
 432:FreeRTOS/queue.c **** #if ( ( configUSE_MUTEXES == 1 ) && ( INCLUDE_xQueueGetMutexHolder == 1 ) )
 433:FreeRTOS/queue.c **** 
 434:FreeRTOS/queue.c **** 	void* xQueueGetMutexHolder( xQueueHandle xSemaphore )
 435:FreeRTOS/queue.c **** 	{
 436:FreeRTOS/queue.c **** 	void *pxReturn;
 437:FreeRTOS/queue.c **** 
 438:FreeRTOS/queue.c **** 		/* This function is called by xSemaphoreGetMutexHolder(), and should not
 439:FreeRTOS/queue.c **** 		be called directly.  Note:  This is is a good way of determining if the
 440:FreeRTOS/queue.c **** 		calling task is the mutex holder, but not a good way of determining the
 441:FreeRTOS/queue.c **** 		identity of the mutex holder, as the holder may change between the 
ARM GAS  /tmp/cchZ2RfF.s 			page 10


 442:FreeRTOS/queue.c **** 		following critical section exiting and the function returning. */
 443:FreeRTOS/queue.c **** 		taskENTER_CRITICAL();
 444:FreeRTOS/queue.c **** 		{
 445:FreeRTOS/queue.c **** 			if( xSemaphore->uxQueueType == queueQUEUE_IS_MUTEX )
 446:FreeRTOS/queue.c **** 			{
 447:FreeRTOS/queue.c **** 				pxReturn = ( void * ) xSemaphore->pxMutexHolder;
 448:FreeRTOS/queue.c **** 			}
 449:FreeRTOS/queue.c **** 			else
 450:FreeRTOS/queue.c **** 			{
 451:FreeRTOS/queue.c **** 				pxReturn = NULL;
 452:FreeRTOS/queue.c **** 			}
 453:FreeRTOS/queue.c **** 		}
 454:FreeRTOS/queue.c **** 		taskEXIT_CRITICAL();
 455:FreeRTOS/queue.c **** 		
 456:FreeRTOS/queue.c **** 		return pxReturn;
 457:FreeRTOS/queue.c **** 	}
 458:FreeRTOS/queue.c **** 
 459:FreeRTOS/queue.c **** #endif
 460:FreeRTOS/queue.c **** /*-----------------------------------------------------------*/
 461:FreeRTOS/queue.c **** 
 462:FreeRTOS/queue.c **** #if ( configUSE_RECURSIVE_MUTEXES == 1 )
 463:FreeRTOS/queue.c **** 
 464:FreeRTOS/queue.c **** 	portBASE_TYPE xQueueGiveMutexRecursive( xQueueHandle pxMutex )
 465:FreeRTOS/queue.c **** 	{
 466:FreeRTOS/queue.c **** 	portBASE_TYPE xReturn;
 467:FreeRTOS/queue.c **** 
 468:FreeRTOS/queue.c **** 		configASSERT( pxMutex );
 469:FreeRTOS/queue.c **** 
 470:FreeRTOS/queue.c **** 		/* If this is the task that holds the mutex then pxMutexHolder will not
 471:FreeRTOS/queue.c **** 		change outside of this task.  If this task does not hold the mutex then
 472:FreeRTOS/queue.c **** 		pxMutexHolder can never coincidentally equal the tasks handle, and as
 473:FreeRTOS/queue.c **** 		this is the only condition we are interested in it does not matter if
 474:FreeRTOS/queue.c **** 		pxMutexHolder is accessed simultaneously by another task.  Therefore no
 475:FreeRTOS/queue.c **** 		mutual exclusion is required to test the pxMutexHolder variable. */
 476:FreeRTOS/queue.c **** 		if( pxMutex->pxMutexHolder == xTaskGetCurrentTaskHandle() )
 477:FreeRTOS/queue.c **** 		{
 478:FreeRTOS/queue.c **** 			traceGIVE_MUTEX_RECURSIVE( pxMutex );
 479:FreeRTOS/queue.c **** 
 480:FreeRTOS/queue.c **** 			/* uxRecursiveCallCount cannot be zero if pxMutexHolder is equal to
 481:FreeRTOS/queue.c **** 			the task handle, therefore no underflow check is required.  Also,
 482:FreeRTOS/queue.c **** 			uxRecursiveCallCount is only modified by the mutex holder, and as
 483:FreeRTOS/queue.c **** 			there can only be one, no mutual exclusion is required to modify the
 484:FreeRTOS/queue.c **** 			uxRecursiveCallCount member. */
 485:FreeRTOS/queue.c **** 			( pxMutex->uxRecursiveCallCount )--;
 486:FreeRTOS/queue.c **** 
 487:FreeRTOS/queue.c **** 			/* Have we unwound the call count? */
 488:FreeRTOS/queue.c **** 			if( pxMutex->uxRecursiveCallCount == 0 )
 489:FreeRTOS/queue.c **** 			{
 490:FreeRTOS/queue.c **** 				/* Return the mutex.  This will automatically unblock any other
 491:FreeRTOS/queue.c **** 				task that might be waiting to access the mutex. */
 492:FreeRTOS/queue.c **** 				xQueueGenericSend( pxMutex, NULL, queueMUTEX_GIVE_BLOCK_TIME, queueSEND_TO_BACK );
 493:FreeRTOS/queue.c **** 			}
 494:FreeRTOS/queue.c **** 
 495:FreeRTOS/queue.c **** 			xReturn = pdPASS;
 496:FreeRTOS/queue.c **** 		}
 497:FreeRTOS/queue.c **** 		else
 498:FreeRTOS/queue.c **** 		{
ARM GAS  /tmp/cchZ2RfF.s 			page 11


 499:FreeRTOS/queue.c **** 			/* We cannot give the mutex because we are not the holder. */
 500:FreeRTOS/queue.c **** 			xReturn = pdFAIL;
 501:FreeRTOS/queue.c **** 
 502:FreeRTOS/queue.c **** 			traceGIVE_MUTEX_RECURSIVE_FAILED( pxMutex );
 503:FreeRTOS/queue.c **** 		}
 504:FreeRTOS/queue.c **** 
 505:FreeRTOS/queue.c **** 		return xReturn;
 506:FreeRTOS/queue.c **** 	}
 507:FreeRTOS/queue.c **** 
 508:FreeRTOS/queue.c **** #endif /* configUSE_RECURSIVE_MUTEXES */
 509:FreeRTOS/queue.c **** /*-----------------------------------------------------------*/
 510:FreeRTOS/queue.c **** 
 511:FreeRTOS/queue.c **** #if configUSE_RECURSIVE_MUTEXES == 1
 512:FreeRTOS/queue.c **** 
 513:FreeRTOS/queue.c **** 	portBASE_TYPE xQueueTakeMutexRecursive( xQueueHandle pxMutex, portTickType xBlockTime )
 514:FreeRTOS/queue.c **** 	{
 515:FreeRTOS/queue.c **** 	portBASE_TYPE xReturn;
 516:FreeRTOS/queue.c **** 
 517:FreeRTOS/queue.c **** 		configASSERT( pxMutex );
 518:FreeRTOS/queue.c **** 
 519:FreeRTOS/queue.c **** 		/* Comments regarding mutual exclusion as per those within
 520:FreeRTOS/queue.c **** 		xQueueGiveMutexRecursive(). */
 521:FreeRTOS/queue.c **** 
 522:FreeRTOS/queue.c **** 		traceTAKE_MUTEX_RECURSIVE( pxMutex );
 523:FreeRTOS/queue.c **** 
 524:FreeRTOS/queue.c **** 		if( pxMutex->pxMutexHolder == xTaskGetCurrentTaskHandle() )
 525:FreeRTOS/queue.c **** 		{
 526:FreeRTOS/queue.c **** 			( pxMutex->uxRecursiveCallCount )++;
 527:FreeRTOS/queue.c **** 			xReturn = pdPASS;
 528:FreeRTOS/queue.c **** 		}
 529:FreeRTOS/queue.c **** 		else
 530:FreeRTOS/queue.c **** 		{
 531:FreeRTOS/queue.c **** 			xReturn = xQueueGenericReceive( pxMutex, NULL, xBlockTime, pdFALSE );
 532:FreeRTOS/queue.c **** 
 533:FreeRTOS/queue.c **** 			/* pdPASS will only be returned if we successfully obtained the mutex,
 534:FreeRTOS/queue.c **** 			we may have blocked to reach here. */
 535:FreeRTOS/queue.c **** 			if( xReturn == pdPASS )
 536:FreeRTOS/queue.c **** 			{
 537:FreeRTOS/queue.c **** 				( pxMutex->uxRecursiveCallCount )++;
 538:FreeRTOS/queue.c **** 			}
 539:FreeRTOS/queue.c **** 			else
 540:FreeRTOS/queue.c **** 			{
 541:FreeRTOS/queue.c **** 				traceTAKE_MUTEX_RECURSIVE_FAILED( pxMutex );
 542:FreeRTOS/queue.c **** 			}
 543:FreeRTOS/queue.c **** 		}
 544:FreeRTOS/queue.c **** 
 545:FreeRTOS/queue.c **** 		return xReturn;
 546:FreeRTOS/queue.c **** 	}
 547:FreeRTOS/queue.c **** 
 548:FreeRTOS/queue.c **** #endif /* configUSE_RECURSIVE_MUTEXES */
 549:FreeRTOS/queue.c **** /*-----------------------------------------------------------*/
 550:FreeRTOS/queue.c **** 
 551:FreeRTOS/queue.c **** #if configUSE_COUNTING_SEMAPHORES == 1
 552:FreeRTOS/queue.c **** 
 553:FreeRTOS/queue.c **** 	xQueueHandle xQueueCreateCountingSemaphore( unsigned portBASE_TYPE uxCountValue, unsigned portBASE
 554:FreeRTOS/queue.c **** 	{
 555:FreeRTOS/queue.c **** 	xQueueHandle pxHandle;
ARM GAS  /tmp/cchZ2RfF.s 			page 12


 556:FreeRTOS/queue.c **** 
 557:FreeRTOS/queue.c **** 		pxHandle = xQueueGenericCreate( ( unsigned portBASE_TYPE ) uxCountValue, queueSEMAPHORE_QUEUE_ITE
 558:FreeRTOS/queue.c **** 
 559:FreeRTOS/queue.c **** 		if( pxHandle != NULL )
 560:FreeRTOS/queue.c **** 		{
 561:FreeRTOS/queue.c **** 			pxHandle->uxMessagesWaiting = uxInitialCount;
 562:FreeRTOS/queue.c **** 
 563:FreeRTOS/queue.c **** 			traceCREATE_COUNTING_SEMAPHORE();
 564:FreeRTOS/queue.c **** 		}
 565:FreeRTOS/queue.c **** 		else
 566:FreeRTOS/queue.c **** 		{
 567:FreeRTOS/queue.c **** 			traceCREATE_COUNTING_SEMAPHORE_FAILED();
 568:FreeRTOS/queue.c **** 		}
 569:FreeRTOS/queue.c **** 
 570:FreeRTOS/queue.c **** 		configASSERT( pxHandle );
 571:FreeRTOS/queue.c **** 		return pxHandle;
 572:FreeRTOS/queue.c **** 	}
 573:FreeRTOS/queue.c **** 
 574:FreeRTOS/queue.c **** #endif /* configUSE_COUNTING_SEMAPHORES */
 575:FreeRTOS/queue.c **** /*-----------------------------------------------------------*/
 576:FreeRTOS/queue.c **** 
 577:FreeRTOS/queue.c **** signed portBASE_TYPE xQueueGenericSend( xQueueHandle pxQueue, const void * const pvItemToQueue, por
 578:FreeRTOS/queue.c **** {
 579:FreeRTOS/queue.c **** signed portBASE_TYPE xEntryTimeSet = pdFALSE;
 580:FreeRTOS/queue.c **** xTimeOutType xTimeOut;
 581:FreeRTOS/queue.c **** 
 582:FreeRTOS/queue.c **** 	configASSERT( pxQueue );
 583:FreeRTOS/queue.c **** 	configASSERT( !( ( pvItemToQueue == NULL ) && ( pxQueue->uxItemSize != ( unsigned portBASE_TYPE ) 
 584:FreeRTOS/queue.c **** 
 585:FreeRTOS/queue.c **** 	/* This function relaxes the coding standard somewhat to allow return
 586:FreeRTOS/queue.c **** 	statements within the function itself.  This is done in the interest
 587:FreeRTOS/queue.c **** 	of execution time efficiency. */
 588:FreeRTOS/queue.c **** 	for( ;; )
 589:FreeRTOS/queue.c **** 	{
 590:FreeRTOS/queue.c **** 		taskENTER_CRITICAL();
 591:FreeRTOS/queue.c **** 		{
 592:FreeRTOS/queue.c **** 			/* Is there room on the queue now?  To be running we must be
 593:FreeRTOS/queue.c **** 			the highest priority task wanting to access the queue. */
 594:FreeRTOS/queue.c **** 			if( pxQueue->uxMessagesWaiting < pxQueue->uxLength )
 595:FreeRTOS/queue.c **** 			{
 596:FreeRTOS/queue.c **** 				traceQUEUE_SEND( pxQueue );
 597:FreeRTOS/queue.c **** 				prvCopyDataToQueue( pxQueue, pvItemToQueue, xCopyPosition );
 598:FreeRTOS/queue.c **** 
 599:FreeRTOS/queue.c **** 				/* If there was a task waiting for data to arrive on the
 600:FreeRTOS/queue.c **** 				queue then unblock it now. */
 601:FreeRTOS/queue.c **** 				if( listLIST_IS_EMPTY( &( pxQueue->xTasksWaitingToReceive ) ) == pdFALSE )
 602:FreeRTOS/queue.c **** 				{
 603:FreeRTOS/queue.c **** 					if( xTaskRemoveFromEventList( &( pxQueue->xTasksWaitingToReceive ) ) == pdTRUE )
 604:FreeRTOS/queue.c **** 					{
 605:FreeRTOS/queue.c **** 						/* The unblocked task has a priority higher than
 606:FreeRTOS/queue.c **** 						our own so yield immediately.  Yes it is ok to do
 607:FreeRTOS/queue.c **** 						this from within the critical section - the kernel
 608:FreeRTOS/queue.c **** 						takes care of that. */
 609:FreeRTOS/queue.c **** 						portYIELD_WITHIN_API();
 610:FreeRTOS/queue.c **** 					}
 611:FreeRTOS/queue.c **** 				}
 612:FreeRTOS/queue.c **** 
ARM GAS  /tmp/cchZ2RfF.s 			page 13


 613:FreeRTOS/queue.c **** 				taskEXIT_CRITICAL();
 614:FreeRTOS/queue.c **** 
 615:FreeRTOS/queue.c **** 				/* Return to the original privilege level before exiting the
 616:FreeRTOS/queue.c **** 				function. */
 617:FreeRTOS/queue.c **** 				return pdPASS;
 618:FreeRTOS/queue.c **** 			}
 619:FreeRTOS/queue.c **** 			else
 620:FreeRTOS/queue.c **** 			{
 621:FreeRTOS/queue.c **** 				if( xTicksToWait == ( portTickType ) 0 )
 622:FreeRTOS/queue.c **** 				{
 623:FreeRTOS/queue.c **** 					/* The queue was full and no block time is specified (or
 624:FreeRTOS/queue.c **** 					the block time has expired) so leave now. */
 625:FreeRTOS/queue.c **** 					taskEXIT_CRITICAL();
 626:FreeRTOS/queue.c **** 
 627:FreeRTOS/queue.c **** 					/* Return to the original privilege level before exiting
 628:FreeRTOS/queue.c **** 					the function. */
 629:FreeRTOS/queue.c **** 					traceQUEUE_SEND_FAILED( pxQueue );
 630:FreeRTOS/queue.c **** 					return errQUEUE_FULL;
 631:FreeRTOS/queue.c **** 				}
 632:FreeRTOS/queue.c **** 				else if( xEntryTimeSet == pdFALSE )
 633:FreeRTOS/queue.c **** 				{
 634:FreeRTOS/queue.c **** 					/* The queue was full and a block time was specified so
 635:FreeRTOS/queue.c **** 					configure the timeout structure. */
 636:FreeRTOS/queue.c **** 					vTaskSetTimeOutState( &xTimeOut );
 637:FreeRTOS/queue.c **** 					xEntryTimeSet = pdTRUE;
 638:FreeRTOS/queue.c **** 				}
 639:FreeRTOS/queue.c **** 			}
 640:FreeRTOS/queue.c **** 		}
 641:FreeRTOS/queue.c **** 		taskEXIT_CRITICAL();
 642:FreeRTOS/queue.c **** 
 643:FreeRTOS/queue.c **** 		/* Interrupts and other tasks can send to and receive from the queue
 644:FreeRTOS/queue.c **** 		now the critical section has been exited. */
 645:FreeRTOS/queue.c **** 
 646:FreeRTOS/queue.c **** 		vTaskSuspendAll();
 647:FreeRTOS/queue.c **** 		prvLockQueue( pxQueue );
 648:FreeRTOS/queue.c **** 
 649:FreeRTOS/queue.c **** 		/* Update the timeout state to see if it has expired yet. */
 650:FreeRTOS/queue.c **** 		if( xTaskCheckForTimeOut( &xTimeOut, &xTicksToWait ) == pdFALSE )
 651:FreeRTOS/queue.c **** 		{
 652:FreeRTOS/queue.c **** 			if( prvIsQueueFull( pxQueue ) != pdFALSE )
 653:FreeRTOS/queue.c **** 			{
 654:FreeRTOS/queue.c **** 				traceBLOCKING_ON_QUEUE_SEND( pxQueue );
 655:FreeRTOS/queue.c **** 				vTaskPlaceOnEventList( &( pxQueue->xTasksWaitingToSend ), xTicksToWait );
 656:FreeRTOS/queue.c **** 
 657:FreeRTOS/queue.c **** 				/* Unlocking the queue means queue events can effect the
 658:FreeRTOS/queue.c **** 				event list.  It is possible	that interrupts occurring now
 659:FreeRTOS/queue.c **** 				remove this task from the event	list again - but as the
 660:FreeRTOS/queue.c **** 				scheduler is suspended the task will go onto the pending
 661:FreeRTOS/queue.c **** 				ready last instead of the actual ready list. */
 662:FreeRTOS/queue.c **** 				prvUnlockQueue( pxQueue );
 663:FreeRTOS/queue.c **** 
 664:FreeRTOS/queue.c **** 				/* Resuming the scheduler will move tasks from the pending
 665:FreeRTOS/queue.c **** 				ready list into the ready list - so it is feasible that this
 666:FreeRTOS/queue.c **** 				task is already in a ready list before it yields - in which
 667:FreeRTOS/queue.c **** 				case the yield will not cause a context switch unless there
 668:FreeRTOS/queue.c **** 				is also a higher priority task in the pending ready list. */
 669:FreeRTOS/queue.c **** 				if( xTaskResumeAll() == pdFALSE )
ARM GAS  /tmp/cchZ2RfF.s 			page 14


 670:FreeRTOS/queue.c **** 				{
 671:FreeRTOS/queue.c **** 					portYIELD_WITHIN_API();
 672:FreeRTOS/queue.c **** 				}
 673:FreeRTOS/queue.c **** 			}
 674:FreeRTOS/queue.c **** 			else
 675:FreeRTOS/queue.c **** 			{
 676:FreeRTOS/queue.c **** 				/* Try again. */
 677:FreeRTOS/queue.c **** 				prvUnlockQueue( pxQueue );
 678:FreeRTOS/queue.c **** 				( void ) xTaskResumeAll();
 679:FreeRTOS/queue.c **** 			}
 680:FreeRTOS/queue.c **** 		}
 681:FreeRTOS/queue.c **** 		else
 682:FreeRTOS/queue.c **** 		{
 683:FreeRTOS/queue.c **** 			/* The timeout has expired. */
 684:FreeRTOS/queue.c **** 			prvUnlockQueue( pxQueue );
 685:FreeRTOS/queue.c **** 			( void ) xTaskResumeAll();
 686:FreeRTOS/queue.c **** 
 687:FreeRTOS/queue.c **** 			/* Return to the original privilege level before exiting the
 688:FreeRTOS/queue.c **** 			function. */
 689:FreeRTOS/queue.c **** 			traceQUEUE_SEND_FAILED( pxQueue );
 690:FreeRTOS/queue.c **** 			return errQUEUE_FULL;
 691:FreeRTOS/queue.c **** 		}
 692:FreeRTOS/queue.c **** 	}
 693:FreeRTOS/queue.c **** }
 694:FreeRTOS/queue.c **** /*-----------------------------------------------------------*/
 695:FreeRTOS/queue.c **** 
 696:FreeRTOS/queue.c **** #if configUSE_ALTERNATIVE_API == 1
 697:FreeRTOS/queue.c **** 
 698:FreeRTOS/queue.c **** 	signed portBASE_TYPE xQueueAltGenericSend( xQueueHandle pxQueue, const void * const pvItemToQueue,
 699:FreeRTOS/queue.c **** 	{
 700:FreeRTOS/queue.c **** 	signed portBASE_TYPE xEntryTimeSet = pdFALSE;
 701:FreeRTOS/queue.c **** 	xTimeOutType xTimeOut;
 702:FreeRTOS/queue.c **** 
 703:FreeRTOS/queue.c **** 		configASSERT( pxQueue );
 704:FreeRTOS/queue.c **** 		configASSERT( !( ( pvItemToQueue == NULL ) && ( pxQueue->uxItemSize != ( unsigned portBASE_TYPE )
 705:FreeRTOS/queue.c **** 
 706:FreeRTOS/queue.c **** 		for( ;; )
 707:FreeRTOS/queue.c **** 		{
 708:FreeRTOS/queue.c **** 			taskENTER_CRITICAL();
 709:FreeRTOS/queue.c **** 			{
 710:FreeRTOS/queue.c **** 				/* Is there room on the queue now?  To be running we must be
 711:FreeRTOS/queue.c **** 				the highest priority task wanting to access the queue. */
 712:FreeRTOS/queue.c **** 				if( pxQueue->uxMessagesWaiting < pxQueue->uxLength )
 713:FreeRTOS/queue.c **** 				{
 714:FreeRTOS/queue.c **** 					traceQUEUE_SEND( pxQueue );
 715:FreeRTOS/queue.c **** 					prvCopyDataToQueue( pxQueue, pvItemToQueue, xCopyPosition );
 716:FreeRTOS/queue.c **** 
 717:FreeRTOS/queue.c **** 					/* If there was a task waiting for data to arrive on the
 718:FreeRTOS/queue.c **** 					queue then unblock it now. */
 719:FreeRTOS/queue.c **** 					if( listLIST_IS_EMPTY( &( pxQueue->xTasksWaitingToReceive ) ) == pdFALSE )
 720:FreeRTOS/queue.c **** 					{
 721:FreeRTOS/queue.c **** 						if( xTaskRemoveFromEventList( &( pxQueue->xTasksWaitingToReceive ) ) == pdTRUE )
 722:FreeRTOS/queue.c **** 						{
 723:FreeRTOS/queue.c **** 							/* The unblocked task has a priority higher than
 724:FreeRTOS/queue.c **** 							our own so yield immediately. */
 725:FreeRTOS/queue.c **** 							portYIELD_WITHIN_API();
 726:FreeRTOS/queue.c **** 						}
ARM GAS  /tmp/cchZ2RfF.s 			page 15


 727:FreeRTOS/queue.c **** 					}
 728:FreeRTOS/queue.c **** 
 729:FreeRTOS/queue.c **** 					taskEXIT_CRITICAL();
 730:FreeRTOS/queue.c **** 					return pdPASS;
 731:FreeRTOS/queue.c **** 				}
 732:FreeRTOS/queue.c **** 				else
 733:FreeRTOS/queue.c **** 				{
 734:FreeRTOS/queue.c **** 					if( xTicksToWait == ( portTickType ) 0 )
 735:FreeRTOS/queue.c **** 					{
 736:FreeRTOS/queue.c **** 						taskEXIT_CRITICAL();
 737:FreeRTOS/queue.c **** 						return errQUEUE_FULL;
 738:FreeRTOS/queue.c **** 					}
 739:FreeRTOS/queue.c **** 					else if( xEntryTimeSet == pdFALSE )
 740:FreeRTOS/queue.c **** 					{
 741:FreeRTOS/queue.c **** 						vTaskSetTimeOutState( &xTimeOut );
 742:FreeRTOS/queue.c **** 						xEntryTimeSet = pdTRUE;
 743:FreeRTOS/queue.c **** 					}
 744:FreeRTOS/queue.c **** 				}
 745:FreeRTOS/queue.c **** 			}
 746:FreeRTOS/queue.c **** 			taskEXIT_CRITICAL();
 747:FreeRTOS/queue.c **** 
 748:FreeRTOS/queue.c **** 			taskENTER_CRITICAL();
 749:FreeRTOS/queue.c **** 			{
 750:FreeRTOS/queue.c **** 				if( xTaskCheckForTimeOut( &xTimeOut, &xTicksToWait ) == pdFALSE )
 751:FreeRTOS/queue.c **** 				{
 752:FreeRTOS/queue.c **** 					if( prvIsQueueFull( pxQueue ) != pdFALSE )
 753:FreeRTOS/queue.c **** 					{
 754:FreeRTOS/queue.c **** 						traceBLOCKING_ON_QUEUE_SEND( pxQueue );
 755:FreeRTOS/queue.c **** 						vTaskPlaceOnEventList( &( pxQueue->xTasksWaitingToSend ), xTicksToWait );
 756:FreeRTOS/queue.c **** 						portYIELD_WITHIN_API();
 757:FreeRTOS/queue.c **** 					}
 758:FreeRTOS/queue.c **** 				}
 759:FreeRTOS/queue.c **** 				else
 760:FreeRTOS/queue.c **** 				{
 761:FreeRTOS/queue.c **** 					taskEXIT_CRITICAL();
 762:FreeRTOS/queue.c **** 					traceQUEUE_SEND_FAILED( pxQueue );
 763:FreeRTOS/queue.c **** 					return errQUEUE_FULL;
 764:FreeRTOS/queue.c **** 				}
 765:FreeRTOS/queue.c **** 			}
 766:FreeRTOS/queue.c **** 			taskEXIT_CRITICAL();
 767:FreeRTOS/queue.c **** 		}
 768:FreeRTOS/queue.c **** 	}
 769:FreeRTOS/queue.c **** 
 770:FreeRTOS/queue.c **** #endif /* configUSE_ALTERNATIVE_API */
 771:FreeRTOS/queue.c **** /*-----------------------------------------------------------*/
 772:FreeRTOS/queue.c **** 
 773:FreeRTOS/queue.c **** #if configUSE_ALTERNATIVE_API == 1
 774:FreeRTOS/queue.c **** 
 775:FreeRTOS/queue.c **** 	signed portBASE_TYPE xQueueAltGenericReceive( xQueueHandle pxQueue, void * const pvBuffer, portTic
 776:FreeRTOS/queue.c **** 	{
 777:FreeRTOS/queue.c **** 	signed portBASE_TYPE xEntryTimeSet = pdFALSE;
 778:FreeRTOS/queue.c **** 	xTimeOutType xTimeOut;
 779:FreeRTOS/queue.c **** 	signed char *pcOriginalReadPosition;
 780:FreeRTOS/queue.c **** 
 781:FreeRTOS/queue.c **** 		configASSERT( pxQueue );
 782:FreeRTOS/queue.c **** 		configASSERT( !( ( pvBuffer == NULL ) && ( pxQueue->uxItemSize != ( unsigned portBASE_TYPE ) 0U )
 783:FreeRTOS/queue.c **** 
ARM GAS  /tmp/cchZ2RfF.s 			page 16


 784:FreeRTOS/queue.c **** 		for( ;; )
 785:FreeRTOS/queue.c **** 		{
 786:FreeRTOS/queue.c **** 			taskENTER_CRITICAL();
 787:FreeRTOS/queue.c **** 			{
 788:FreeRTOS/queue.c **** 				if( pxQueue->uxMessagesWaiting > ( unsigned portBASE_TYPE ) 0 )
 789:FreeRTOS/queue.c **** 				{
 790:FreeRTOS/queue.c **** 					/* Remember our read position in case we are just peeking. */
 791:FreeRTOS/queue.c **** 					pcOriginalReadPosition = pxQueue->pcReadFrom;
 792:FreeRTOS/queue.c **** 
 793:FreeRTOS/queue.c **** 					prvCopyDataFromQueue( pxQueue, pvBuffer );
 794:FreeRTOS/queue.c **** 
 795:FreeRTOS/queue.c **** 					if( xJustPeeking == pdFALSE )
 796:FreeRTOS/queue.c **** 					{
 797:FreeRTOS/queue.c **** 						traceQUEUE_RECEIVE( pxQueue );
 798:FreeRTOS/queue.c **** 
 799:FreeRTOS/queue.c **** 						/* We are actually removing data. */
 800:FreeRTOS/queue.c **** 						--( pxQueue->uxMessagesWaiting );
 801:FreeRTOS/queue.c **** 
 802:FreeRTOS/queue.c **** 						#if ( configUSE_MUTEXES == 1 )
 803:FreeRTOS/queue.c **** 						{
 804:FreeRTOS/queue.c **** 							if( pxQueue->uxQueueType == queueQUEUE_IS_MUTEX )
 805:FreeRTOS/queue.c **** 							{
 806:FreeRTOS/queue.c **** 								/* Record the information required to implement
 807:FreeRTOS/queue.c **** 								priority inheritance should it become necessary. */
 808:FreeRTOS/queue.c **** 								pxQueue->pxMutexHolder = xTaskGetCurrentTaskHandle();
 809:FreeRTOS/queue.c **** 							}
 810:FreeRTOS/queue.c **** 						}
 811:FreeRTOS/queue.c **** 						#endif
 812:FreeRTOS/queue.c **** 
 813:FreeRTOS/queue.c **** 						if( listLIST_IS_EMPTY( &( pxQueue->xTasksWaitingToSend ) ) == pdFALSE )
 814:FreeRTOS/queue.c **** 						{
 815:FreeRTOS/queue.c **** 							if( xTaskRemoveFromEventList( &( pxQueue->xTasksWaitingToSend ) ) == pdTRUE )
 816:FreeRTOS/queue.c **** 							{
 817:FreeRTOS/queue.c **** 								portYIELD_WITHIN_API();
 818:FreeRTOS/queue.c **** 							}
 819:FreeRTOS/queue.c **** 						}
 820:FreeRTOS/queue.c **** 					}
 821:FreeRTOS/queue.c **** 					else
 822:FreeRTOS/queue.c **** 					{
 823:FreeRTOS/queue.c **** 						traceQUEUE_PEEK( pxQueue );
 824:FreeRTOS/queue.c **** 
 825:FreeRTOS/queue.c **** 						/* We are not removing the data, so reset our read
 826:FreeRTOS/queue.c **** 						pointer. */
 827:FreeRTOS/queue.c **** 						pxQueue->pcReadFrom = pcOriginalReadPosition;
 828:FreeRTOS/queue.c **** 
 829:FreeRTOS/queue.c **** 						/* The data is being left in the queue, so see if there are
 830:FreeRTOS/queue.c **** 						any other tasks waiting for the data. */
 831:FreeRTOS/queue.c **** 						if( listLIST_IS_EMPTY( &( pxQueue->xTasksWaitingToReceive ) ) == pdFALSE )
 832:FreeRTOS/queue.c **** 						{
 833:FreeRTOS/queue.c **** 							/* Tasks that are removed from the event list will get added to
 834:FreeRTOS/queue.c **** 							the pending ready list as the scheduler is still suspended. */
 835:FreeRTOS/queue.c **** 							if( xTaskRemoveFromEventList( &( pxQueue->xTasksWaitingToReceive ) ) != pdFALSE )
 836:FreeRTOS/queue.c **** 							{
 837:FreeRTOS/queue.c **** 								/* The task waiting has a higher priority than this task. */
 838:FreeRTOS/queue.c **** 								portYIELD_WITHIN_API();
 839:FreeRTOS/queue.c **** 							}
 840:FreeRTOS/queue.c **** 						}
ARM GAS  /tmp/cchZ2RfF.s 			page 17


 841:FreeRTOS/queue.c **** 
 842:FreeRTOS/queue.c **** 					}
 843:FreeRTOS/queue.c **** 
 844:FreeRTOS/queue.c **** 					taskEXIT_CRITICAL();
 845:FreeRTOS/queue.c **** 					return pdPASS;
 846:FreeRTOS/queue.c **** 				}
 847:FreeRTOS/queue.c **** 				else
 848:FreeRTOS/queue.c **** 				{
 849:FreeRTOS/queue.c **** 					if( xTicksToWait == ( portTickType ) 0 )
 850:FreeRTOS/queue.c **** 					{
 851:FreeRTOS/queue.c **** 						taskEXIT_CRITICAL();
 852:FreeRTOS/queue.c **** 						traceQUEUE_RECEIVE_FAILED( pxQueue );
 853:FreeRTOS/queue.c **** 						return errQUEUE_EMPTY;
 854:FreeRTOS/queue.c **** 					}
 855:FreeRTOS/queue.c **** 					else if( xEntryTimeSet == pdFALSE )
 856:FreeRTOS/queue.c **** 					{
 857:FreeRTOS/queue.c **** 						vTaskSetTimeOutState( &xTimeOut );
 858:FreeRTOS/queue.c **** 						xEntryTimeSet = pdTRUE;
 859:FreeRTOS/queue.c **** 					}
 860:FreeRTOS/queue.c **** 				}
 861:FreeRTOS/queue.c **** 			}
 862:FreeRTOS/queue.c **** 			taskEXIT_CRITICAL();
 863:FreeRTOS/queue.c **** 
 864:FreeRTOS/queue.c **** 			taskENTER_CRITICAL();
 865:FreeRTOS/queue.c **** 			{
 866:FreeRTOS/queue.c **** 				if( xTaskCheckForTimeOut( &xTimeOut, &xTicksToWait ) == pdFALSE )
 867:FreeRTOS/queue.c **** 				{
 868:FreeRTOS/queue.c **** 					if( prvIsQueueEmpty( pxQueue ) != pdFALSE )
 869:FreeRTOS/queue.c **** 					{
 870:FreeRTOS/queue.c **** 						traceBLOCKING_ON_QUEUE_RECEIVE( pxQueue );
 871:FreeRTOS/queue.c **** 
 872:FreeRTOS/queue.c **** 						#if ( configUSE_MUTEXES == 1 )
 873:FreeRTOS/queue.c **** 						{
 874:FreeRTOS/queue.c **** 							if( pxQueue->uxQueueType == queueQUEUE_IS_MUTEX )
 875:FreeRTOS/queue.c **** 							{
 876:FreeRTOS/queue.c **** 								portENTER_CRITICAL();
 877:FreeRTOS/queue.c **** 									vTaskPriorityInherit( ( void * ) pxQueue->pxMutexHolder );
 878:FreeRTOS/queue.c **** 								portEXIT_CRITICAL();
 879:FreeRTOS/queue.c **** 							}
 880:FreeRTOS/queue.c **** 						}
 881:FreeRTOS/queue.c **** 						#endif
 882:FreeRTOS/queue.c **** 
 883:FreeRTOS/queue.c **** 						vTaskPlaceOnEventList( &( pxQueue->xTasksWaitingToReceive ), xTicksToWait );
 884:FreeRTOS/queue.c **** 						portYIELD_WITHIN_API();
 885:FreeRTOS/queue.c **** 					}
 886:FreeRTOS/queue.c **** 				}
 887:FreeRTOS/queue.c **** 				else
 888:FreeRTOS/queue.c **** 				{
 889:FreeRTOS/queue.c **** 					taskEXIT_CRITICAL();
 890:FreeRTOS/queue.c **** 					traceQUEUE_RECEIVE_FAILED( pxQueue );
 891:FreeRTOS/queue.c **** 					return errQUEUE_EMPTY;
 892:FreeRTOS/queue.c **** 				}
 893:FreeRTOS/queue.c **** 			}
 894:FreeRTOS/queue.c **** 			taskEXIT_CRITICAL();
 895:FreeRTOS/queue.c **** 		}
 896:FreeRTOS/queue.c **** 	}
 897:FreeRTOS/queue.c **** 
ARM GAS  /tmp/cchZ2RfF.s 			page 18


 898:FreeRTOS/queue.c **** 
 899:FreeRTOS/queue.c **** #endif /* configUSE_ALTERNATIVE_API */
 900:FreeRTOS/queue.c **** /*-----------------------------------------------------------*/
 901:FreeRTOS/queue.c **** 
 902:FreeRTOS/queue.c **** signed portBASE_TYPE xQueueGenericSendFromISR( xQueueHandle pxQueue, const void * const pvItemToQue
 903:FreeRTOS/queue.c **** {
 904:FreeRTOS/queue.c **** signed portBASE_TYPE xReturn;
 905:FreeRTOS/queue.c **** unsigned portBASE_TYPE uxSavedInterruptStatus;
 906:FreeRTOS/queue.c **** 
 907:FreeRTOS/queue.c **** 	configASSERT( pxQueue );
 908:FreeRTOS/queue.c **** 	configASSERT( !( ( pvItemToQueue == NULL ) && ( pxQueue->uxItemSize != ( unsigned portBASE_TYPE ) 
 909:FreeRTOS/queue.c **** 
 910:FreeRTOS/queue.c **** 	/* Similar to xQueueGenericSend, except we don't block if there is no room
 911:FreeRTOS/queue.c **** 	in the queue.  Also we don't directly wake a task that was blocked on a
 912:FreeRTOS/queue.c **** 	queue read, instead we return a flag to say whether a context switch is
 913:FreeRTOS/queue.c **** 	required or not (i.e. has a task with a higher priority than us been woken
 914:FreeRTOS/queue.c **** 	by this	post). */
 915:FreeRTOS/queue.c **** 	uxSavedInterruptStatus = portSET_INTERRUPT_MASK_FROM_ISR();
 916:FreeRTOS/queue.c **** 	{
 917:FreeRTOS/queue.c **** 		if( pxQueue->uxMessagesWaiting < pxQueue->uxLength )
 918:FreeRTOS/queue.c **** 		{
 919:FreeRTOS/queue.c **** 			traceQUEUE_SEND_FROM_ISR( pxQueue );
 920:FreeRTOS/queue.c **** 
 921:FreeRTOS/queue.c **** 			prvCopyDataToQueue( pxQueue, pvItemToQueue, xCopyPosition );
 922:FreeRTOS/queue.c **** 
 923:FreeRTOS/queue.c **** 			/* If the queue is locked we do not alter the event list.  This will
 924:FreeRTOS/queue.c **** 			be done when the queue is unlocked later. */
 925:FreeRTOS/queue.c **** 			if( pxQueue->xTxLock == queueUNLOCKED )
 926:FreeRTOS/queue.c **** 			{
 927:FreeRTOS/queue.c **** 				if( listLIST_IS_EMPTY( &( pxQueue->xTasksWaitingToReceive ) ) == pdFALSE )
 928:FreeRTOS/queue.c **** 				{
 929:FreeRTOS/queue.c **** 					if( xTaskRemoveFromEventList( &( pxQueue->xTasksWaitingToReceive ) ) != pdFALSE )
 930:FreeRTOS/queue.c **** 					{
 931:FreeRTOS/queue.c **** 						/* The task waiting has a higher priority so record that a
 932:FreeRTOS/queue.c **** 						context	switch is required. */
 933:FreeRTOS/queue.c **** 						if( pxHigherPriorityTaskWoken != NULL )
 934:FreeRTOS/queue.c **** 						{
 935:FreeRTOS/queue.c **** 							*pxHigherPriorityTaskWoken = pdTRUE;
 936:FreeRTOS/queue.c **** 						}
 937:FreeRTOS/queue.c **** 					}
 938:FreeRTOS/queue.c **** 				}
 939:FreeRTOS/queue.c **** 			}
 940:FreeRTOS/queue.c **** 			else
 941:FreeRTOS/queue.c **** 			{
 942:FreeRTOS/queue.c **** 				/* Increment the lock count so the task that unlocks the queue
 943:FreeRTOS/queue.c **** 				knows that data was posted while it was locked. */
 944:FreeRTOS/queue.c **** 				++( pxQueue->xTxLock );
 945:FreeRTOS/queue.c **** 			}
 946:FreeRTOS/queue.c **** 
 947:FreeRTOS/queue.c **** 			xReturn = pdPASS;
 948:FreeRTOS/queue.c **** 		}
 949:FreeRTOS/queue.c **** 		else
 950:FreeRTOS/queue.c **** 		{
 951:FreeRTOS/queue.c **** 			traceQUEUE_SEND_FROM_ISR_FAILED( pxQueue );
 952:FreeRTOS/queue.c **** 			xReturn = errQUEUE_FULL;
 953:FreeRTOS/queue.c **** 		}
 954:FreeRTOS/queue.c **** 	}
ARM GAS  /tmp/cchZ2RfF.s 			page 19


 955:FreeRTOS/queue.c **** 	portCLEAR_INTERRUPT_MASK_FROM_ISR( uxSavedInterruptStatus );
 956:FreeRTOS/queue.c **** 
 957:FreeRTOS/queue.c **** 	return xReturn;
 958:FreeRTOS/queue.c **** }
 959:FreeRTOS/queue.c **** /*-----------------------------------------------------------*/
 960:FreeRTOS/queue.c **** 
 961:FreeRTOS/queue.c **** signed portBASE_TYPE xQueueGenericReceive( xQueueHandle pxQueue, void * const pvBuffer, portTickTyp
 962:FreeRTOS/queue.c **** {
 963:FreeRTOS/queue.c **** signed portBASE_TYPE xEntryTimeSet = pdFALSE;
 964:FreeRTOS/queue.c **** xTimeOutType xTimeOut;
 965:FreeRTOS/queue.c **** signed char *pcOriginalReadPosition;
 966:FreeRTOS/queue.c **** 
 967:FreeRTOS/queue.c **** 	configASSERT( pxQueue );
 968:FreeRTOS/queue.c **** 	configASSERT( !( ( pvBuffer == NULL ) && ( pxQueue->uxItemSize != ( unsigned portBASE_TYPE ) 0U ) 
 969:FreeRTOS/queue.c **** 
 970:FreeRTOS/queue.c **** 	/* This function relaxes the coding standard somewhat to allow return
 971:FreeRTOS/queue.c **** 	statements within the function itself.  This is done in the interest
 972:FreeRTOS/queue.c **** 	of execution time efficiency. */
 973:FreeRTOS/queue.c **** 
 974:FreeRTOS/queue.c **** 	for( ;; )
 975:FreeRTOS/queue.c **** 	{
 976:FreeRTOS/queue.c **** 		taskENTER_CRITICAL();
 977:FreeRTOS/queue.c **** 		{
 978:FreeRTOS/queue.c **** 			/* Is there data in the queue now?  To be running we must be
 979:FreeRTOS/queue.c **** 			the highest priority task wanting to access the queue. */
 980:FreeRTOS/queue.c **** 			if( pxQueue->uxMessagesWaiting > ( unsigned portBASE_TYPE ) 0 )
 981:FreeRTOS/queue.c **** 			{
 982:FreeRTOS/queue.c **** 				/* Remember our read position in case we are just peeking. */
 983:FreeRTOS/queue.c **** 				pcOriginalReadPosition = pxQueue->pcReadFrom;
 984:FreeRTOS/queue.c **** 
 985:FreeRTOS/queue.c **** 				prvCopyDataFromQueue( pxQueue, pvBuffer );
 986:FreeRTOS/queue.c **** 
 987:FreeRTOS/queue.c **** 				if( xJustPeeking == pdFALSE )
 988:FreeRTOS/queue.c **** 				{
 989:FreeRTOS/queue.c **** 					traceQUEUE_RECEIVE( pxQueue );
 990:FreeRTOS/queue.c **** 
 991:FreeRTOS/queue.c **** 					/* We are actually removing data. */
 992:FreeRTOS/queue.c **** 					--( pxQueue->uxMessagesWaiting );
 993:FreeRTOS/queue.c **** 
 994:FreeRTOS/queue.c **** 					#if ( configUSE_MUTEXES == 1 )
 995:FreeRTOS/queue.c **** 					{
 996:FreeRTOS/queue.c **** 						if( pxQueue->uxQueueType == queueQUEUE_IS_MUTEX )
 997:FreeRTOS/queue.c **** 						{
 998:FreeRTOS/queue.c **** 							/* Record the information required to implement
 999:FreeRTOS/queue.c **** 							priority inheritance should it become necessary. */
1000:FreeRTOS/queue.c **** 							pxQueue->pxMutexHolder = xTaskGetCurrentTaskHandle();
1001:FreeRTOS/queue.c **** 						}
1002:FreeRTOS/queue.c **** 					}
1003:FreeRTOS/queue.c **** 					#endif
1004:FreeRTOS/queue.c **** 
1005:FreeRTOS/queue.c **** 					if( listLIST_IS_EMPTY( &( pxQueue->xTasksWaitingToSend ) ) == pdFALSE )
1006:FreeRTOS/queue.c **** 					{
1007:FreeRTOS/queue.c **** 						if( xTaskRemoveFromEventList( &( pxQueue->xTasksWaitingToSend ) ) == pdTRUE )
1008:FreeRTOS/queue.c **** 						{
1009:FreeRTOS/queue.c **** 							portYIELD_WITHIN_API();
1010:FreeRTOS/queue.c **** 						}
1011:FreeRTOS/queue.c **** 					}
ARM GAS  /tmp/cchZ2RfF.s 			page 20


1012:FreeRTOS/queue.c **** 				}
1013:FreeRTOS/queue.c **** 				else
1014:FreeRTOS/queue.c **** 				{
1015:FreeRTOS/queue.c **** 					traceQUEUE_PEEK( pxQueue );
1016:FreeRTOS/queue.c **** 
1017:FreeRTOS/queue.c **** 					/* We are not removing the data, so reset our read
1018:FreeRTOS/queue.c **** 					pointer. */
1019:FreeRTOS/queue.c **** 					pxQueue->pcReadFrom = pcOriginalReadPosition;
1020:FreeRTOS/queue.c **** 
1021:FreeRTOS/queue.c **** 					/* The data is being left in the queue, so see if there are
1022:FreeRTOS/queue.c **** 					any other tasks waiting for the data. */
1023:FreeRTOS/queue.c **** 					if( listLIST_IS_EMPTY( &( pxQueue->xTasksWaitingToReceive ) ) == pdFALSE )
1024:FreeRTOS/queue.c **** 					{
1025:FreeRTOS/queue.c **** 						/* Tasks that are removed from the event list will get added to
1026:FreeRTOS/queue.c **** 						the pending ready list as the scheduler is still suspended. */
1027:FreeRTOS/queue.c **** 						if( xTaskRemoveFromEventList( &( pxQueue->xTasksWaitingToReceive ) ) != pdFALSE )
1028:FreeRTOS/queue.c **** 						{
1029:FreeRTOS/queue.c **** 							/* The task waiting has a higher priority than this task. */
1030:FreeRTOS/queue.c **** 							portYIELD_WITHIN_API();
1031:FreeRTOS/queue.c **** 						}
1032:FreeRTOS/queue.c **** 					}
1033:FreeRTOS/queue.c **** 				}
1034:FreeRTOS/queue.c **** 
1035:FreeRTOS/queue.c **** 				taskEXIT_CRITICAL();
1036:FreeRTOS/queue.c **** 				return pdPASS;
1037:FreeRTOS/queue.c **** 			}
1038:FreeRTOS/queue.c **** 			else
1039:FreeRTOS/queue.c **** 			{
1040:FreeRTOS/queue.c **** 				if( xTicksToWait == ( portTickType ) 0 )
1041:FreeRTOS/queue.c **** 				{
1042:FreeRTOS/queue.c **** 					/* The queue was empty and no block time is specified (or
1043:FreeRTOS/queue.c **** 					the block time has expired) so leave now. */
1044:FreeRTOS/queue.c **** 					taskEXIT_CRITICAL();
1045:FreeRTOS/queue.c **** 					traceQUEUE_RECEIVE_FAILED( pxQueue );
1046:FreeRTOS/queue.c **** 					return errQUEUE_EMPTY;
1047:FreeRTOS/queue.c **** 				}
1048:FreeRTOS/queue.c **** 				else if( xEntryTimeSet == pdFALSE )
1049:FreeRTOS/queue.c **** 				{
1050:FreeRTOS/queue.c **** 					/* The queue was empty and a block time was specified so
1051:FreeRTOS/queue.c **** 					configure the timeout structure. */
1052:FreeRTOS/queue.c **** 					vTaskSetTimeOutState( &xTimeOut );
1053:FreeRTOS/queue.c **** 					xEntryTimeSet = pdTRUE;
1054:FreeRTOS/queue.c **** 				}
1055:FreeRTOS/queue.c **** 			}
1056:FreeRTOS/queue.c **** 		}
1057:FreeRTOS/queue.c **** 		taskEXIT_CRITICAL();
1058:FreeRTOS/queue.c **** 
1059:FreeRTOS/queue.c **** 		/* Interrupts and other tasks can send to and receive from the queue
1060:FreeRTOS/queue.c **** 		now the critical section has been exited. */
1061:FreeRTOS/queue.c **** 
1062:FreeRTOS/queue.c **** 		vTaskSuspendAll();
1063:FreeRTOS/queue.c **** 		prvLockQueue( pxQueue );
1064:FreeRTOS/queue.c **** 
1065:FreeRTOS/queue.c **** 		/* Update the timeout state to see if it has expired yet. */
1066:FreeRTOS/queue.c **** 		if( xTaskCheckForTimeOut( &xTimeOut, &xTicksToWait ) == pdFALSE )
1067:FreeRTOS/queue.c **** 		{
1068:FreeRTOS/queue.c **** 			if( prvIsQueueEmpty( pxQueue ) != pdFALSE )
ARM GAS  /tmp/cchZ2RfF.s 			page 21


1069:FreeRTOS/queue.c **** 			{
1070:FreeRTOS/queue.c **** 				traceBLOCKING_ON_QUEUE_RECEIVE( pxQueue );
1071:FreeRTOS/queue.c **** 
1072:FreeRTOS/queue.c **** 				#if ( configUSE_MUTEXES == 1 )
1073:FreeRTOS/queue.c **** 				{
1074:FreeRTOS/queue.c **** 					if( pxQueue->uxQueueType == queueQUEUE_IS_MUTEX )
1075:FreeRTOS/queue.c **** 					{
1076:FreeRTOS/queue.c **** 						portENTER_CRITICAL();
1077:FreeRTOS/queue.c **** 						{
1078:FreeRTOS/queue.c **** 							vTaskPriorityInherit( ( void * ) pxQueue->pxMutexHolder );
1079:FreeRTOS/queue.c **** 						}
1080:FreeRTOS/queue.c **** 						portEXIT_CRITICAL();
1081:FreeRTOS/queue.c **** 					}
1082:FreeRTOS/queue.c **** 				}
1083:FreeRTOS/queue.c **** 				#endif
1084:FreeRTOS/queue.c **** 
1085:FreeRTOS/queue.c **** 				vTaskPlaceOnEventList( &( pxQueue->xTasksWaitingToReceive ), xTicksToWait );
1086:FreeRTOS/queue.c **** 				prvUnlockQueue( pxQueue );
1087:FreeRTOS/queue.c **** 				if( xTaskResumeAll() == pdFALSE )
1088:FreeRTOS/queue.c **** 				{
1089:FreeRTOS/queue.c **** 					portYIELD_WITHIN_API();
1090:FreeRTOS/queue.c **** 				}
1091:FreeRTOS/queue.c **** 			}
1092:FreeRTOS/queue.c **** 			else
1093:FreeRTOS/queue.c **** 			{
1094:FreeRTOS/queue.c **** 				/* Try again. */
1095:FreeRTOS/queue.c **** 				prvUnlockQueue( pxQueue );
1096:FreeRTOS/queue.c **** 				( void ) xTaskResumeAll();
1097:FreeRTOS/queue.c **** 			}
1098:FreeRTOS/queue.c **** 		}
1099:FreeRTOS/queue.c **** 		else
1100:FreeRTOS/queue.c **** 		{
1101:FreeRTOS/queue.c **** 			prvUnlockQueue( pxQueue );
1102:FreeRTOS/queue.c **** 			( void ) xTaskResumeAll();
1103:FreeRTOS/queue.c **** 			traceQUEUE_RECEIVE_FAILED( pxQueue );
1104:FreeRTOS/queue.c **** 			return errQUEUE_EMPTY;
1105:FreeRTOS/queue.c **** 		}
1106:FreeRTOS/queue.c **** 	}
1107:FreeRTOS/queue.c **** }
1108:FreeRTOS/queue.c **** /*-----------------------------------------------------------*/
1109:FreeRTOS/queue.c **** 
1110:FreeRTOS/queue.c **** signed portBASE_TYPE xQueueReceiveFromISR( xQueueHandle pxQueue, void * const pvBuffer, signed port
1111:FreeRTOS/queue.c **** {
1112:FreeRTOS/queue.c **** signed portBASE_TYPE xReturn;
1113:FreeRTOS/queue.c **** unsigned portBASE_TYPE uxSavedInterruptStatus;
1114:FreeRTOS/queue.c **** 
1115:FreeRTOS/queue.c **** 	configASSERT( pxQueue );
1116:FreeRTOS/queue.c **** 	configASSERT( !( ( pvBuffer == NULL ) && ( pxQueue->uxItemSize != ( unsigned portBASE_TYPE ) 0U ) 
1117:FreeRTOS/queue.c **** 
1118:FreeRTOS/queue.c **** 	uxSavedInterruptStatus = portSET_INTERRUPT_MASK_FROM_ISR();
1119:FreeRTOS/queue.c **** 	{
1120:FreeRTOS/queue.c **** 		/* We cannot block from an ISR, so check there is data available. */
1121:FreeRTOS/queue.c **** 		if( pxQueue->uxMessagesWaiting > ( unsigned portBASE_TYPE ) 0 )
1122:FreeRTOS/queue.c **** 		{
1123:FreeRTOS/queue.c **** 			traceQUEUE_RECEIVE_FROM_ISR( pxQueue );
1124:FreeRTOS/queue.c **** 
1125:FreeRTOS/queue.c **** 			prvCopyDataFromQueue( pxQueue, pvBuffer );
ARM GAS  /tmp/cchZ2RfF.s 			page 22


1126:FreeRTOS/queue.c **** 			--( pxQueue->uxMessagesWaiting );
1127:FreeRTOS/queue.c **** 
1128:FreeRTOS/queue.c **** 			/* If the queue is locked we will not modify the event list.  Instead
1129:FreeRTOS/queue.c **** 			we update the lock count so the task that unlocks the queue will know
1130:FreeRTOS/queue.c **** 			that an ISR has removed data while the queue was locked. */
1131:FreeRTOS/queue.c **** 			if( pxQueue->xRxLock == queueUNLOCKED )
1132:FreeRTOS/queue.c **** 			{
1133:FreeRTOS/queue.c **** 				if( listLIST_IS_EMPTY( &( pxQueue->xTasksWaitingToSend ) ) == pdFALSE )
1134:FreeRTOS/queue.c **** 				{
1135:FreeRTOS/queue.c **** 					if( xTaskRemoveFromEventList( &( pxQueue->xTasksWaitingToSend ) ) != pdFALSE )
1136:FreeRTOS/queue.c **** 					{
1137:FreeRTOS/queue.c **** 						/* The task waiting has a higher priority than us so
1138:FreeRTOS/queue.c **** 						force a context switch. */
1139:FreeRTOS/queue.c **** 						if( pxHigherPriorityTaskWoken != NULL )
1140:FreeRTOS/queue.c **** 						{
1141:FreeRTOS/queue.c **** 							*pxHigherPriorityTaskWoken = pdTRUE;
1142:FreeRTOS/queue.c **** 						}
1143:FreeRTOS/queue.c **** 					}
1144:FreeRTOS/queue.c **** 				}
1145:FreeRTOS/queue.c **** 			}
1146:FreeRTOS/queue.c **** 			else
1147:FreeRTOS/queue.c **** 			{
1148:FreeRTOS/queue.c **** 				/* Increment the lock count so the task that unlocks the queue
1149:FreeRTOS/queue.c **** 				knows that data was removed while it was locked. */
1150:FreeRTOS/queue.c **** 				++( pxQueue->xRxLock );
1151:FreeRTOS/queue.c **** 			}
1152:FreeRTOS/queue.c **** 
1153:FreeRTOS/queue.c **** 			xReturn = pdPASS;
1154:FreeRTOS/queue.c **** 		}
1155:FreeRTOS/queue.c **** 		else
1156:FreeRTOS/queue.c **** 		{
1157:FreeRTOS/queue.c **** 			xReturn = pdFAIL;
1158:FreeRTOS/queue.c **** 			traceQUEUE_RECEIVE_FROM_ISR_FAILED( pxQueue );
1159:FreeRTOS/queue.c **** 		}
1160:FreeRTOS/queue.c **** 	}
1161:FreeRTOS/queue.c **** 	portCLEAR_INTERRUPT_MASK_FROM_ISR( uxSavedInterruptStatus );
1162:FreeRTOS/queue.c **** 
1163:FreeRTOS/queue.c **** 	return xReturn;
1164:FreeRTOS/queue.c **** }
1165:FreeRTOS/queue.c **** /*-----------------------------------------------------------*/
1166:FreeRTOS/queue.c **** 
1167:FreeRTOS/queue.c **** unsigned portBASE_TYPE uxQueueMessagesWaiting( const xQueueHandle pxQueue )
1168:FreeRTOS/queue.c **** {
1169:FreeRTOS/queue.c **** unsigned portBASE_TYPE uxReturn;
1170:FreeRTOS/queue.c **** 
1171:FreeRTOS/queue.c **** 	configASSERT( pxQueue );
1172:FreeRTOS/queue.c **** 
1173:FreeRTOS/queue.c **** 	taskENTER_CRITICAL();
1174:FreeRTOS/queue.c **** 		uxReturn = pxQueue->uxMessagesWaiting;
1175:FreeRTOS/queue.c **** 	taskEXIT_CRITICAL();
1176:FreeRTOS/queue.c **** 
1177:FreeRTOS/queue.c **** 	return uxReturn;
1178:FreeRTOS/queue.c **** }
1179:FreeRTOS/queue.c **** /*-----------------------------------------------------------*/
1180:FreeRTOS/queue.c **** 
1181:FreeRTOS/queue.c **** unsigned portBASE_TYPE uxQueueMessagesWaitingFromISR( const xQueueHandle pxQueue )
1182:FreeRTOS/queue.c **** {
ARM GAS  /tmp/cchZ2RfF.s 			page 23


1183:FreeRTOS/queue.c **** unsigned portBASE_TYPE uxReturn;
1184:FreeRTOS/queue.c **** 
1185:FreeRTOS/queue.c **** 	configASSERT( pxQueue );
1186:FreeRTOS/queue.c **** 
1187:FreeRTOS/queue.c **** 	uxReturn = pxQueue->uxMessagesWaiting;
1188:FreeRTOS/queue.c **** 
1189:FreeRTOS/queue.c **** 	return uxReturn;
1190:FreeRTOS/queue.c **** }
1191:FreeRTOS/queue.c **** /*-----------------------------------------------------------*/
1192:FreeRTOS/queue.c **** 
1193:FreeRTOS/queue.c **** void vQueueDelete( xQueueHandle pxQueue )
1194:FreeRTOS/queue.c **** {
1195:FreeRTOS/queue.c **** 	configASSERT( pxQueue );
1196:FreeRTOS/queue.c **** 
1197:FreeRTOS/queue.c **** 	traceQUEUE_DELETE( pxQueue );
1198:FreeRTOS/queue.c **** 	vQueueUnregisterQueue( pxQueue );
1199:FreeRTOS/queue.c **** 	vPortFree( pxQueue->pcHead );
1200:FreeRTOS/queue.c **** 	vPortFree( pxQueue );
1201:FreeRTOS/queue.c **** }
1202:FreeRTOS/queue.c **** /*-----------------------------------------------------------*/
1203:FreeRTOS/queue.c **** 
1204:FreeRTOS/queue.c **** #if ( configUSE_TRACE_FACILITY == 1 )
1205:FreeRTOS/queue.c **** 
1206:FreeRTOS/queue.c **** 	unsigned char ucQueueGetQueueNumber( xQueueHandle pxQueue )
1207:FreeRTOS/queue.c **** 	{
1208:FreeRTOS/queue.c **** 		return pxQueue->ucQueueNumber;
1209:FreeRTOS/queue.c **** 	}
1210:FreeRTOS/queue.c **** 
1211:FreeRTOS/queue.c **** #endif
1212:FreeRTOS/queue.c **** /*-----------------------------------------------------------*/
1213:FreeRTOS/queue.c **** 
1214:FreeRTOS/queue.c **** #if ( configUSE_TRACE_FACILITY == 1 )
1215:FreeRTOS/queue.c **** 
1216:FreeRTOS/queue.c **** 	void vQueueSetQueueNumber( xQueueHandle pxQueue, unsigned char ucQueueNumber )
1217:FreeRTOS/queue.c **** 	{
1218:FreeRTOS/queue.c **** 		pxQueue->ucQueueNumber = ucQueueNumber;
1219:FreeRTOS/queue.c **** 	}
1220:FreeRTOS/queue.c **** 
1221:FreeRTOS/queue.c **** #endif
1222:FreeRTOS/queue.c **** /*-----------------------------------------------------------*/
1223:FreeRTOS/queue.c **** 
1224:FreeRTOS/queue.c **** #if ( configUSE_TRACE_FACILITY == 1 )
1225:FreeRTOS/queue.c **** 
1226:FreeRTOS/queue.c **** 	unsigned char ucQueueGetQueueType( xQueueHandle pxQueue )
1227:FreeRTOS/queue.c **** 	{
1228:FreeRTOS/queue.c **** 		return pxQueue->ucQueueType;
1229:FreeRTOS/queue.c **** 	}
1230:FreeRTOS/queue.c **** 
1231:FreeRTOS/queue.c **** #endif
1232:FreeRTOS/queue.c **** /*-----------------------------------------------------------*/
1233:FreeRTOS/queue.c **** 
1234:FreeRTOS/queue.c **** static void prvCopyDataToQueue( xQUEUE *pxQueue, const void *pvItemToQueue, portBASE_TYPE xPosition
1235:FreeRTOS/queue.c **** {
1236:FreeRTOS/queue.c **** 	if( pxQueue->uxItemSize == ( unsigned portBASE_TYPE ) 0 )
1237:FreeRTOS/queue.c **** 	{
1238:FreeRTOS/queue.c **** 		#if ( configUSE_MUTEXES == 1 )
1239:FreeRTOS/queue.c **** 		{
ARM GAS  /tmp/cchZ2RfF.s 			page 24


1240:FreeRTOS/queue.c **** 			if( pxQueue->uxQueueType == queueQUEUE_IS_MUTEX )
1241:FreeRTOS/queue.c **** 			{
1242:FreeRTOS/queue.c **** 				/* The mutex is no longer being held. */
1243:FreeRTOS/queue.c **** 				vTaskPriorityDisinherit( ( void * ) pxQueue->pxMutexHolder );
1244:FreeRTOS/queue.c **** 				pxQueue->pxMutexHolder = NULL;
1245:FreeRTOS/queue.c **** 			}
1246:FreeRTOS/queue.c **** 		}
1247:FreeRTOS/queue.c **** 		#endif
1248:FreeRTOS/queue.c **** 	}
1249:FreeRTOS/queue.c **** 	else if( xPosition == queueSEND_TO_BACK )
1250:FreeRTOS/queue.c **** 	{
1251:FreeRTOS/queue.c **** 		memcpy( ( void * ) pxQueue->pcWriteTo, pvItemToQueue, ( unsigned ) pxQueue->uxItemSize );
1252:FreeRTOS/queue.c **** 		pxQueue->pcWriteTo += pxQueue->uxItemSize;
1253:FreeRTOS/queue.c **** 		if( pxQueue->pcWriteTo >= pxQueue->pcTail )
1254:FreeRTOS/queue.c **** 		{
1255:FreeRTOS/queue.c **** 			pxQueue->pcWriteTo = pxQueue->pcHead;
1256:FreeRTOS/queue.c **** 		}
1257:FreeRTOS/queue.c **** 	}
1258:FreeRTOS/queue.c **** 	else
1259:FreeRTOS/queue.c **** 	{
1260:FreeRTOS/queue.c **** 		memcpy( ( void * ) pxQueue->pcReadFrom, pvItemToQueue, ( unsigned ) pxQueue->uxItemSize );
1261:FreeRTOS/queue.c **** 		pxQueue->pcReadFrom -= pxQueue->uxItemSize;
1262:FreeRTOS/queue.c **** 		if( pxQueue->pcReadFrom < pxQueue->pcHead )
1263:FreeRTOS/queue.c **** 		{
1264:FreeRTOS/queue.c **** 			pxQueue->pcReadFrom = ( pxQueue->pcTail - pxQueue->uxItemSize );
1265:FreeRTOS/queue.c **** 		}
1266:FreeRTOS/queue.c **** 	}
1267:FreeRTOS/queue.c **** 
1268:FreeRTOS/queue.c **** 	++( pxQueue->uxMessagesWaiting );
1269:FreeRTOS/queue.c **** }
1270:FreeRTOS/queue.c **** /*-----------------------------------------------------------*/
1271:FreeRTOS/queue.c **** 
1272:FreeRTOS/queue.c **** static void prvCopyDataFromQueue( xQUEUE * const pxQueue, const void *pvBuffer )
1273:FreeRTOS/queue.c **** {
  73              		.loc 1 1273 0
  74              		.cfi_startproc
  75              		@ args = 0, pretend = 0, frame = 0
  76              		@ frame_needed = 0, uses_anonymous_args = 0
  77              	.LVL0:
  78 0000 70B5     		push	{r4, r5, r6, lr}	@
  79              	.LCFI0:
  80              		.cfi_def_cfa_offset 16
  81              		.cfi_offset 4, -16
  82              		.cfi_offset 5, -12
  83              		.cfi_offset 6, -8
  84              		.cfi_offset 14, -4
1274:FreeRTOS/queue.c **** 	if( pxQueue->uxQueueType != queueQUEUE_IS_MUTEX )
  85              		.loc 1 1274 0
  86 0002 0468     		ldr	r4, [r0, #0]	@ D.6769, pxQueue_1(D)->pcHead
1273:FreeRTOS/queue.c **** {
  87              		.loc 1 1273 0
  88 0004 0346     		mov	r3, r0	@ pxQueue, pxQueue
  89              		.loc 1 1274 0
  90 0006 6CB1     		cbz	r4, .L1	@ D.6769,
1275:FreeRTOS/queue.c **** 	{
1276:FreeRTOS/queue.c **** 		pxQueue->pcReadFrom += pxQueue->uxItemSize;
  91              		.loc 1 1276 0
ARM GAS  /tmp/cchZ2RfF.s 			page 25


  92 0008 C568     		ldr	r5, [r0, #12]	@ pxQueue_1(D)->pcReadFrom, pxQueue_1(D)->pcReadFrom
  93 000a 026C     		ldr	r2, [r0, #64]	@ D.6773, pxQueue_1(D)->uxItemSize
1277:FreeRTOS/queue.c **** 		if( pxQueue->pcReadFrom >= pxQueue->pcTail )
  94              		.loc 1 1277 0
  95 000c 4668     		ldr	r6, [r0, #4]	@ pxQueue_1(D)->pcTail, pxQueue_1(D)->pcTail
1276:FreeRTOS/queue.c **** 		pxQueue->pcReadFrom += pxQueue->uxItemSize;
  96              		.loc 1 1276 0
  97 000e AD18     		adds	r5, r5, r2	@ D.6774, pxQueue_1(D)->pcReadFrom, D.6773
  98              		.loc 1 1277 0
  99 0010 B542     		cmp	r5, r6	@ D.6774, pxQueue_1(D)->pcTail
1276:FreeRTOS/queue.c **** 		pxQueue->pcReadFrom += pxQueue->uxItemSize;
 100              		.loc 1 1276 0
 101 0012 C560     		str	r5, [r0, #12]	@ D.6774, pxQueue_1(D)->pcReadFrom
1278:FreeRTOS/queue.c **** 		{
1279:FreeRTOS/queue.c **** 			pxQueue->pcReadFrom = pxQueue->pcHead;
 102              		.loc 1 1279 0
 103 0014 28BF     		it	cs
 104 0016 C460     		strcs	r4, [r0, #12]	@ D.6769, pxQueue_1(D)->pcReadFrom
1280:FreeRTOS/queue.c **** 		}
1281:FreeRTOS/queue.c **** 		memcpy( ( void * ) pvBuffer, ( void * ) pxQueue->pcReadFrom, ( unsigned ) pxQueue->uxItemSize );
 105              		.loc 1 1281 0
 106 0018 0846     		mov	r0, r1	@, pvBuffer
 107              	.LVL1:
 108 001a D968     		ldr	r1, [r3, #12]	@, pxQueue_1(D)->pcReadFrom
 109              	.LVL2:
1282:FreeRTOS/queue.c **** 	}
1283:FreeRTOS/queue.c **** }
 110              		.loc 1 1283 0
 111 001c BDE87040 		pop	{r4, r5, r6, lr}	@
1281:FreeRTOS/queue.c **** 		memcpy( ( void * ) pvBuffer, ( void * ) pxQueue->pcReadFrom, ( unsigned ) pxQueue->uxItemSize );
 112              		.loc 1 1281 0
 113 0020 FFF7FEBF 		b	memcpy	@
 114              	.LVL3:
 115              	.L1:
 116 0024 70BD     		pop	{r4, r5, r6, pc}	@
 117              		.cfi_endproc
 118              	.LFE69:
 119              		.size	prvCopyDataFromQueue, .-prvCopyDataFromQueue
 120              		.section	.text.prvUnlockQueue,"ax",%progbits
 121              		.align	1
 122              		.thumb
 123              		.thumb_func
 124              		.type	prvUnlockQueue, %function
 125              	prvUnlockQueue:
 126              	.LFB70:
1284:FreeRTOS/queue.c **** /*-----------------------------------------------------------*/
1285:FreeRTOS/queue.c **** 
1286:FreeRTOS/queue.c **** static void prvUnlockQueue( xQueueHandle pxQueue )
1287:FreeRTOS/queue.c **** {
 127              		.loc 1 1287 0
 128              		.cfi_startproc
 129              		@ args = 0, pretend = 0, frame = 0
 130              		@ frame_needed = 0, uses_anonymous_args = 0
 131              	.LVL4:
 132 0000 10B5     		push	{r4, lr}	@
 133              	.LCFI1:
 134              		.cfi_def_cfa_offset 8
ARM GAS  /tmp/cchZ2RfF.s 			page 26


 135              		.cfi_offset 4, -8
 136              		.cfi_offset 14, -4
 137              		.loc 1 1287 0
 138 0002 0446     		mov	r4, r0	@ pxQueue, pxQueue
1288:FreeRTOS/queue.c **** 	/* THIS FUNCTION MUST BE CALLED WITH THE SCHEDULER SUSPENDED. */
1289:FreeRTOS/queue.c **** 
1290:FreeRTOS/queue.c **** 	/* The lock counts contains the number of extra data items placed or
1291:FreeRTOS/queue.c **** 	removed from the queue while the queue was locked.  When a queue is
1292:FreeRTOS/queue.c **** 	locked items can be added or removed, but the event lists cannot be
1293:FreeRTOS/queue.c **** 	updated. */
1294:FreeRTOS/queue.c **** 	taskENTER_CRITICAL();
 139              		.loc 1 1294 0
 140 0004 FFF7FEFF 		bl	vPortEnterCritical	@
 141              	.LVL5:
 142              	.L6:
1295:FreeRTOS/queue.c **** 	{
1296:FreeRTOS/queue.c **** 		/* See if data was added to the queue while it was locked. */
1297:FreeRTOS/queue.c **** 		while( pxQueue->xTxLock > queueLOCKED_UNMODIFIED )
 143              		.loc 1 1297 0 discriminator 1
 144 0008 A36C     		ldr	r3, [r4, #72]	@ D.6844, pxQueue_1(D)->xTxLock
 145 000a 002B     		cmp	r3, #0	@ D.6844,
 146 000c 0CDD     		ble	.L7	@,
 147              	.L9:
1298:FreeRTOS/queue.c **** 		{
1299:FreeRTOS/queue.c **** 			/* Data was posted while the queue was locked.  Are any tasks
1300:FreeRTOS/queue.c **** 			blocked waiting for data to become available? */
1301:FreeRTOS/queue.c **** 			if( listLIST_IS_EMPTY( &( pxQueue->xTasksWaitingToReceive ) ) == pdFALSE )
 148              		.loc 1 1301 0
 149 000e 606A     		ldr	r0, [r4, #36]	@ D.6836, pxQueue_1(D)->xTasksWaitingToReceive.uxNumberOfItems
 150 0010 50B1     		cbz	r0, .L7	@ D.6836,
1302:FreeRTOS/queue.c **** 			{
1303:FreeRTOS/queue.c **** 				/* Tasks that are removed from the event list will get added to
1304:FreeRTOS/queue.c **** 				the pending ready list as the scheduler is still suspended. */
1305:FreeRTOS/queue.c **** 				if( xTaskRemoveFromEventList( &( pxQueue->xTasksWaitingToReceive ) ) != pdFALSE )
 151              		.loc 1 1305 0
 152 0012 04F12400 		add	r0, r4, #36	@, pxQueue,
 153 0016 FFF7FEFF 		bl	xTaskRemoveFromEventList	@
 154              	.LVL6:
 155 001a 08B1     		cbz	r0, .L8	@,
1306:FreeRTOS/queue.c **** 				{
1307:FreeRTOS/queue.c **** 					/* The task waiting has a higher priority so record that a
1308:FreeRTOS/queue.c **** 					context	switch is required. */
1309:FreeRTOS/queue.c **** 					vTaskMissedYield();
 156              		.loc 1 1309 0
 157 001c FFF7FEFF 		bl	vTaskMissedYield	@
 158              	.LVL7:
 159              	.L8:
1310:FreeRTOS/queue.c **** 				}
1311:FreeRTOS/queue.c **** 
1312:FreeRTOS/queue.c **** 				--( pxQueue->xTxLock );
 160              		.loc 1 1312 0
 161 0020 A36C     		ldr	r3, [r4, #72]	@ D.6842, pxQueue_1(D)->xTxLock
 162 0022 581E     		subs	r0, r3, #1	@ D.6843, D.6842,
 163 0024 A064     		str	r0, [r4, #72]	@ D.6843, pxQueue_1(D)->xTxLock
 164 0026 EFE7     		b	.L6	@
 165              	.L7:
1313:FreeRTOS/queue.c **** 			}
ARM GAS  /tmp/cchZ2RfF.s 			page 27


1314:FreeRTOS/queue.c **** 			else
1315:FreeRTOS/queue.c **** 			{
1316:FreeRTOS/queue.c **** 				break;
1317:FreeRTOS/queue.c **** 			}
1318:FreeRTOS/queue.c **** 		}
1319:FreeRTOS/queue.c **** 
1320:FreeRTOS/queue.c **** 		pxQueue->xTxLock = queueUNLOCKED;
 166              		.loc 1 1320 0
 167 0028 4FF0FF31 		mov	r1, #-1	@ tmp148,
 168 002c A164     		str	r1, [r4, #72]	@ tmp148, pxQueue_1(D)->xTxLock
1321:FreeRTOS/queue.c **** 	}
1322:FreeRTOS/queue.c **** 	taskEXIT_CRITICAL();
 169              		.loc 1 1322 0
 170 002e FFF7FEFF 		bl	vPortExitCritical	@
 171              	.LVL8:
1323:FreeRTOS/queue.c **** 
1324:FreeRTOS/queue.c **** 	/* Do the same for the Rx lock. */
1325:FreeRTOS/queue.c **** 	taskENTER_CRITICAL();
 172              		.loc 1 1325 0
 173 0032 FFF7FEFF 		bl	vPortEnterCritical	@
 174              	.LVL9:
 175              	.L10:
1326:FreeRTOS/queue.c **** 	{
1327:FreeRTOS/queue.c **** 		while( pxQueue->xRxLock > queueLOCKED_UNMODIFIED )
 176              		.loc 1 1327 0 discriminator 1
 177 0036 626C     		ldr	r2, [r4, #68]	@ D.6853, pxQueue_1(D)->xRxLock
 178 0038 002A     		cmp	r2, #0	@ D.6853,
 179 003a 0CDD     		ble	.L11	@,
 180              	.L13:
1328:FreeRTOS/queue.c **** 		{
1329:FreeRTOS/queue.c **** 			if( listLIST_IS_EMPTY( &( pxQueue->xTasksWaitingToSend ) ) == pdFALSE )
 181              		.loc 1 1329 0
 182 003c 2369     		ldr	r3, [r4, #16]	@ D.6845, pxQueue_1(D)->xTasksWaitingToSend.uxNumberOfItems
 183 003e 53B1     		cbz	r3, .L11	@ D.6845,
1330:FreeRTOS/queue.c **** 			{
1331:FreeRTOS/queue.c **** 				if( xTaskRemoveFromEventList( &( pxQueue->xTasksWaitingToSend ) ) != pdFALSE )
 184              		.loc 1 1331 0
 185 0040 04F11000 		add	r0, r4, #16	@, pxQueue,
 186 0044 FFF7FEFF 		bl	xTaskRemoveFromEventList	@
 187              	.LVL10:
 188 0048 08B1     		cbz	r0, .L12	@,
1332:FreeRTOS/queue.c **** 				{
1333:FreeRTOS/queue.c **** 					vTaskMissedYield();
 189              		.loc 1 1333 0
 190 004a FFF7FEFF 		bl	vTaskMissedYield	@
 191              	.LVL11:
 192              	.L12:
1334:FreeRTOS/queue.c **** 				}
1335:FreeRTOS/queue.c **** 
1336:FreeRTOS/queue.c **** 				--( pxQueue->xRxLock );
 193              		.loc 1 1336 0
 194 004e 616C     		ldr	r1, [r4, #68]	@ D.6851, pxQueue_1(D)->xRxLock
 195 0050 4A1E     		subs	r2, r1, #1	@ D.6852, D.6851,
 196 0052 6264     		str	r2, [r4, #68]	@ D.6852, pxQueue_1(D)->xRxLock
 197 0054 EFE7     		b	.L10	@
 198              	.L11:
1337:FreeRTOS/queue.c **** 			}
ARM GAS  /tmp/cchZ2RfF.s 			page 28


1338:FreeRTOS/queue.c **** 			else
1339:FreeRTOS/queue.c **** 			{
1340:FreeRTOS/queue.c **** 				break;
1341:FreeRTOS/queue.c **** 			}
1342:FreeRTOS/queue.c **** 		}
1343:FreeRTOS/queue.c **** 
1344:FreeRTOS/queue.c **** 		pxQueue->xRxLock = queueUNLOCKED;
 199              		.loc 1 1344 0
 200 0056 4FF0FF30 		mov	r0, #-1	@ tmp150,
 201 005a 6064     		str	r0, [r4, #68]	@ tmp150, pxQueue_1(D)->xRxLock
1345:FreeRTOS/queue.c **** 	}
1346:FreeRTOS/queue.c **** 	taskEXIT_CRITICAL();
1347:FreeRTOS/queue.c **** }
 202              		.loc 1 1347 0
 203 005c BDE81040 		pop	{r4, lr}	@
1346:FreeRTOS/queue.c **** 	taskEXIT_CRITICAL();
 204              		.loc 1 1346 0
 205 0060 FFF7FEBF 		b	vPortExitCritical	@
 206              	.LVL12:
 207              		.cfi_endproc
 208              	.LFE70:
 209              		.size	prvUnlockQueue, .-prvUnlockQueue
 210              		.section	.text.prvCopyDataToQueue,"ax",%progbits
 211              		.align	1
 212              		.thumb
 213              		.thumb_func
 214              		.type	prvCopyDataToQueue, %function
 215              	prvCopyDataToQueue:
 216              	.LFB68:
1235:FreeRTOS/queue.c **** {
 217              		.loc 1 1235 0
 218              		.cfi_startproc
 219              		@ args = 0, pretend = 0, frame = 0
 220              		@ frame_needed = 0, uses_anonymous_args = 0
 221              	.LVL13:
 222 0000 38B5     		push	{r3, r4, r5, lr}	@
 223              	.LCFI2:
 224              		.cfi_def_cfa_offset 16
 225              		.cfi_offset 3, -16
 226              		.cfi_offset 4, -12
 227              		.cfi_offset 5, -8
 228              		.cfi_offset 14, -4
1235:FreeRTOS/queue.c **** {
 229              		.loc 1 1235 0
 230 0002 1346     		mov	r3, r2	@ xPosition, xPosition
1236:FreeRTOS/queue.c **** 	if( pxQueue->uxItemSize == ( unsigned portBASE_TYPE ) 0 )
 231              		.loc 1 1236 0
 232 0004 026C     		ldr	r2, [r0, #64]	@ D.6876, pxQueue_1(D)->uxItemSize
 233              	.LVL14:
1235:FreeRTOS/queue.c **** {
 234              		.loc 1 1235 0
 235 0006 0446     		mov	r4, r0	@ pxQueue, pxQueue
1236:FreeRTOS/queue.c **** 	if( pxQueue->uxItemSize == ( unsigned portBASE_TYPE ) 0 )
 236              		.loc 1 1236 0
 237 0008 32B9     		cbnz	r2, .L27	@ D.6876,
1240:FreeRTOS/queue.c **** 			if( pxQueue->uxQueueType == queueQUEUE_IS_MUTEX )
 238              		.loc 1 1240 0
ARM GAS  /tmp/cchZ2RfF.s 			page 29


 239 000a 0568     		ldr	r5, [r0, #0]	@ pxQueue_1(D)->pcHead, pxQueue_1(D)->pcHead
 240 000c 05BB     		cbnz	r5, .L29	@ pxQueue_1(D)->pcHead,
1243:FreeRTOS/queue.c **** 				vTaskPriorityDisinherit( ( void * ) pxQueue->pxMutexHolder );
 241              		.loc 1 1243 0
 242 000e 4068     		ldr	r0, [r0, #4]	@, pxQueue_1(D)->pcTail
 243              	.LVL15:
 244 0010 FFF7FEFF 		bl	vTaskPriorityDisinherit	@
 245              	.LVL16:
1244:FreeRTOS/queue.c **** 				pxQueue->pxMutexHolder = NULL;
 246              		.loc 1 1244 0
 247 0014 6560     		str	r5, [r4, #4]	@ pxQueue_1(D)->pcHead, pxQueue_1(D)->pcTail
 248 0016 1BE0     		b	.L29	@
 249              	.LVL17:
 250              	.L27:
1249:FreeRTOS/queue.c **** 	else if( xPosition == queueSEND_TO_BACK )
 251              		.loc 1 1249 0
 252 0018 63B9     		cbnz	r3, .L30	@ xPosition,
1251:FreeRTOS/queue.c **** 		memcpy( ( void * ) pxQueue->pcWriteTo, pvItemToQueue, ( unsigned ) pxQueue->uxItemSize );
 253              		.loc 1 1251 0
 254 001a 8068     		ldr	r0, [r0, #8]	@, pxQueue_1(D)->pcWriteTo
 255              	.LVL18:
 256 001c FFF7FEFF 		bl	memcpy	@
 257              	.LVL19:
1252:FreeRTOS/queue.c **** 		pxQueue->pcWriteTo += pxQueue->uxItemSize;
 258              		.loc 1 1252 0
 259 0020 A068     		ldr	r0, [r4, #8]	@ pxQueue_1(D)->pcWriteTo, pxQueue_1(D)->pcWriteTo
 260 0022 216C     		ldr	r1, [r4, #64]	@ pxQueue_1(D)->uxItemSize, pxQueue_1(D)->uxItemSize
1253:FreeRTOS/queue.c **** 		if( pxQueue->pcWriteTo >= pxQueue->pcTail )
 261              		.loc 1 1253 0
 262 0024 6268     		ldr	r2, [r4, #4]	@ pxQueue_1(D)->pcTail, pxQueue_1(D)->pcTail
1252:FreeRTOS/queue.c **** 		pxQueue->pcWriteTo += pxQueue->uxItemSize;
 263              		.loc 1 1252 0
 264 0026 4318     		adds	r3, r0, r1	@ D.6887, pxQueue_1(D)->pcWriteTo, pxQueue_1(D)->uxItemSize
1253:FreeRTOS/queue.c **** 		if( pxQueue->pcWriteTo >= pxQueue->pcTail )
 265              		.loc 1 1253 0
 266 0028 9342     		cmp	r3, r2	@ D.6887, pxQueue_1(D)->pcTail
1252:FreeRTOS/queue.c **** 		pxQueue->pcWriteTo += pxQueue->uxItemSize;
 267              		.loc 1 1252 0
 268 002a A360     		str	r3, [r4, #8]	@ D.6887, pxQueue_1(D)->pcWriteTo
1253:FreeRTOS/queue.c **** 		if( pxQueue->pcWriteTo >= pxQueue->pcTail )
 269              		.loc 1 1253 0
 270 002c 10D3     		bcc	.L29	@,
1255:FreeRTOS/queue.c **** 			pxQueue->pcWriteTo = pxQueue->pcHead;
 271              		.loc 1 1255 0
 272 002e 2068     		ldr	r0, [r4, #0]	@ pxQueue_1(D)->pcHead, pxQueue_1(D)->pcHead
 273 0030 A060     		str	r0, [r4, #8]	@ pxQueue_1(D)->pcHead, pxQueue_1(D)->pcWriteTo
 274 0032 0DE0     		b	.L29	@
 275              	.LVL20:
 276              	.L30:
1260:FreeRTOS/queue.c **** 		memcpy( ( void * ) pxQueue->pcReadFrom, pvItemToQueue, ( unsigned ) pxQueue->uxItemSize );
 277              		.loc 1 1260 0
 278 0034 C068     		ldr	r0, [r0, #12]	@, pxQueue_1(D)->pcReadFrom
 279              	.LVL21:
 280 0036 FFF7FEFF 		bl	memcpy	@
 281              	.LVL22:
1261:FreeRTOS/queue.c **** 		pxQueue->pcReadFrom -= pxQueue->uxItemSize;
 282              		.loc 1 1261 0
ARM GAS  /tmp/cchZ2RfF.s 			page 30


 283 003a 206C     		ldr	r0, [r4, #64]	@ pxQueue_1(D)->uxItemSize, pxQueue_1(D)->uxItemSize
 284 003c E268     		ldr	r2, [r4, #12]	@ pxQueue_1(D)->pcReadFrom, pxQueue_1(D)->pcReadFrom
 285 003e 4342     		negs	r3, r0	@ D.6892, pxQueue_1(D)->uxItemSize
1262:FreeRTOS/queue.c **** 		if( pxQueue->pcReadFrom < pxQueue->pcHead )
 286              		.loc 1 1262 0
 287 0040 2168     		ldr	r1, [r4, #0]	@ pxQueue_1(D)->pcHead, pxQueue_1(D)->pcHead
1261:FreeRTOS/queue.c **** 		pxQueue->pcReadFrom -= pxQueue->uxItemSize;
 288              		.loc 1 1261 0
 289 0042 D018     		adds	r0, r2, r3	@ D.6893, pxQueue_1(D)->pcReadFrom, D.6892
1262:FreeRTOS/queue.c **** 		if( pxQueue->pcReadFrom < pxQueue->pcHead )
 290              		.loc 1 1262 0
 291 0044 8842     		cmp	r0, r1	@ D.6893, pxQueue_1(D)->pcHead
1261:FreeRTOS/queue.c **** 		pxQueue->pcReadFrom -= pxQueue->uxItemSize;
 292              		.loc 1 1261 0
 293 0046 E060     		str	r0, [r4, #12]	@ D.6893, pxQueue_1(D)->pcReadFrom
1262:FreeRTOS/queue.c **** 		if( pxQueue->pcReadFrom < pxQueue->pcHead )
 294              		.loc 1 1262 0
 295 0048 02D2     		bcs	.L29	@,
1264:FreeRTOS/queue.c **** 			pxQueue->pcReadFrom = ( pxQueue->pcTail - pxQueue->uxItemSize );
 296              		.loc 1 1264 0
 297 004a 6268     		ldr	r2, [r4, #4]	@ pxQueue_1(D)->pcTail, pxQueue_1(D)->pcTail
 298 004c D318     		adds	r3, r2, r3	@ tmp175, pxQueue_1(D)->pcTail, D.6892
 299 004e E360     		str	r3, [r4, #12]	@ tmp175, pxQueue_1(D)->pcReadFrom
 300              	.L29:
1268:FreeRTOS/queue.c **** 	++( pxQueue->uxMessagesWaiting );
 301              		.loc 1 1268 0
 302 0050 A16B     		ldr	r1, [r4, #56]	@ D.6897, pxQueue_1(D)->uxMessagesWaiting
 303 0052 4B1C     		adds	r3, r1, #1	@ D.6898, D.6897,
 304 0054 A363     		str	r3, [r4, #56]	@ D.6898, pxQueue_1(D)->uxMessagesWaiting
 305 0056 38BD     		pop	{r3, r4, r5, pc}	@
 306              		.cfi_endproc
 307              	.LFE68:
 308              		.size	prvCopyDataToQueue, .-prvCopyDataToQueue
 309              		.section	.text.xQueueGenericReset,"ax",%progbits
 310              		.align	1
 311              		.global	xQueueGenericReset
 312              		.thumb
 313              		.thumb_func
 314              		.type	xQueueGenericReset, %function
 315              	xQueueGenericReset:
 316              	.LFB55:
 280:FreeRTOS/queue.c **** {
 317              		.loc 1 280 0
 318              		.cfi_startproc
 319              		@ args = 0, pretend = 0, frame = 0
 320              		@ frame_needed = 0, uses_anonymous_args = 0
 321              	.LVL23:
 322 0000 38B5     		push	{r3, r4, r5, lr}	@
 323              	.LCFI3:
 324              		.cfi_def_cfa_offset 16
 325              		.cfi_offset 3, -16
 326              		.cfi_offset 4, -12
 327              		.cfi_offset 5, -8
 328              		.cfi_offset 14, -4
 280:FreeRTOS/queue.c **** {
 329              		.loc 1 280 0
 330 0002 0446     		mov	r4, r0	@ pxQueue, pxQueue
ARM GAS  /tmp/cchZ2RfF.s 			page 31


 331 0004 0D46     		mov	r5, r1	@ xNewQueue, xNewQueue
 283:FreeRTOS/queue.c **** 	taskENTER_CRITICAL();
 332              		.loc 1 283 0
 333 0006 FFF7FEFF 		bl	vPortEnterCritical	@
 334              	.LVL24:
 285:FreeRTOS/queue.c **** 		pxQueue->pcTail = pxQueue->pcHead + ( pxQueue->uxLength * pxQueue->uxItemSize );
 335              		.loc 1 285 0
 336 000a 2368     		ldr	r3, [r4, #0]	@ D.6960, pxQueue_1(D)->pcHead
 337 000c 226C     		ldr	r2, [r4, #64]	@ D.6962, pxQueue_1(D)->uxItemSize
 338 000e E06B     		ldr	r0, [r4, #60]	@ D.6961, pxQueue_1(D)->uxLength
 287:FreeRTOS/queue.c **** 		pxQueue->pcWriteTo = pxQueue->pcHead;
 339              		.loc 1 287 0
 340 0010 A360     		str	r3, [r4, #8]	@ D.6960, pxQueue_1(D)->pcWriteTo
 285:FreeRTOS/queue.c **** 		pxQueue->pcTail = pxQueue->pcHead + ( pxQueue->uxLength * pxQueue->uxItemSize );
 341              		.loc 1 285 0
 342 0012 00FB0231 		mla	r1, r0, r2, r3	@ tmp151, D.6961, D.6962, D.6960
 288:FreeRTOS/queue.c **** 		pxQueue->pcReadFrom = pxQueue->pcHead + ( ( pxQueue->uxLength - ( unsigned portBASE_TYPE ) 1U ) *
 343              		.loc 1 288 0
 344 0016 0138     		subs	r0, r0, #1	@ tmp153, D.6961,
 345 0018 02FB0033 		mla	r3, r2, r0, r3	@ tmp155, D.6962, tmp153, D.6960
 285:FreeRTOS/queue.c **** 		pxQueue->pcTail = pxQueue->pcHead + ( pxQueue->uxLength * pxQueue->uxItemSize );
 346              		.loc 1 285 0
 347 001c 6160     		str	r1, [r4, #4]	@ tmp151, pxQueue_1(D)->pcTail
 289:FreeRTOS/queue.c **** 		pxQueue->xRxLock = queueUNLOCKED;
 348              		.loc 1 289 0
 349 001e 4FF0FF32 		mov	r2, #-1	@ tmp156,
 286:FreeRTOS/queue.c **** 		pxQueue->uxMessagesWaiting = ( unsigned portBASE_TYPE ) 0U;
 350              		.loc 1 286 0
 351 0022 0021     		movs	r1, #0	@ tmp152,
 352 0024 A163     		str	r1, [r4, #56]	@ tmp152, pxQueue_1(D)->uxMessagesWaiting
 288:FreeRTOS/queue.c **** 		pxQueue->pcReadFrom = pxQueue->pcHead + ( ( pxQueue->uxLength - ( unsigned portBASE_TYPE ) 1U ) *
 353              		.loc 1 288 0
 354 0026 E360     		str	r3, [r4, #12]	@ tmp155, pxQueue_1(D)->pcReadFrom
 289:FreeRTOS/queue.c **** 		pxQueue->xRxLock = queueUNLOCKED;
 355              		.loc 1 289 0
 356 0028 6264     		str	r2, [r4, #68]	@ tmp156, pxQueue_1(D)->xRxLock
 290:FreeRTOS/queue.c **** 		pxQueue->xTxLock = queueUNLOCKED;
 357              		.loc 1 290 0
 358 002a A264     		str	r2, [r4, #72]	@ tmp156, pxQueue_1(D)->xTxLock
 292:FreeRTOS/queue.c **** 		if( xNewQueue == pdFALSE )
 359              		.loc 1 292 0
 360 002c 55B9     		cbnz	r5, .L33	@ xNewQueue,
 299:FreeRTOS/queue.c **** 			if( listLIST_IS_EMPTY( &( pxQueue->xTasksWaitingToSend ) ) == pdFALSE )
 361              		.loc 1 299 0
 362 002e 2169     		ldr	r1, [r4, #16]	@ D.6970, pxQueue_1(D)->xTasksWaitingToSend.uxNumberOfItems
 363 0030 81B1     		cbz	r1, .L35	@ D.6970,
 301:FreeRTOS/queue.c **** 				if( xTaskRemoveFromEventList( &( pxQueue->xTasksWaitingToSend ) ) == pdTRUE )
 364              		.loc 1 301 0
 365 0032 04F11000 		add	r0, r4, #16	@, pxQueue,
 366 0036 FFF7FEFF 		bl	xTaskRemoveFromEventList	@
 367              	.LVL25:
 368 003a 0128     		cmp	r0, #1	@,
 369 003c 0AD1     		bne	.L35	@,
 303:FreeRTOS/queue.c **** 					portYIELD_WITHIN_API();
 370              		.loc 1 303 0
 371 003e FFF7FEFF 		bl	vPortYieldFromISR	@
 372              	.LVL26:
ARM GAS  /tmp/cchZ2RfF.s 			page 32


 373 0042 07E0     		b	.L35	@
 374              	.L33:
 310:FreeRTOS/queue.c **** 			vListInitialise( &( pxQueue->xTasksWaitingToSend ) );
 375              		.loc 1 310 0
 376 0044 04F11000 		add	r0, r4, #16	@, pxQueue,
 377 0048 FFF7FEFF 		bl	vListInitialise	@
 378              	.LVL27:
 311:FreeRTOS/queue.c **** 			vListInitialise( &( pxQueue->xTasksWaitingToReceive ) );		
 379              		.loc 1 311 0
 380 004c 04F12400 		add	r0, r4, #36	@, pxQueue,
 381 0050 FFF7FEFF 		bl	vListInitialise	@
 382              	.LVL28:
 383              	.L35:
 314:FreeRTOS/queue.c **** 	taskEXIT_CRITICAL();
 384              		.loc 1 314 0
 385 0054 FFF7FEFF 		bl	vPortExitCritical	@
 386              	.LVL29:
 319:FreeRTOS/queue.c **** }
 387              		.loc 1 319 0
 388 0058 0120     		movs	r0, #1	@,
 389 005a 38BD     		pop	{r3, r4, r5, pc}	@
 390              		.cfi_endproc
 391              	.LFE55:
 392              		.size	xQueueGenericReset, .-xQueueGenericReset
 393              		.section	.text.xQueueGenericCreate,"ax",%progbits
 394              		.align	1
 395              		.global	xQueueGenericCreate
 396              		.thumb
 397              		.thumb_func
 398              		.type	xQueueGenericCreate, %function
 399              	xQueueGenericCreate:
 400              	.LFB56:
 323:FreeRTOS/queue.c **** {
 401              		.loc 1 323 0
 402              		.cfi_startproc
 403              		@ args = 0, pretend = 0, frame = 0
 404              		@ frame_needed = 0, uses_anonymous_args = 0
 405              	.LVL30:
 406 0000 2DE9F041 		push	{r4, r5, r6, r7, r8, lr}	@
 407              	.LCFI4:
 408              		.cfi_def_cfa_offset 24
 409              		.cfi_offset 4, -24
 410              		.cfi_offset 5, -20
 411              		.cfi_offset 6, -16
 412              		.cfi_offset 7, -12
 413              		.cfi_offset 8, -8
 414              		.cfi_offset 14, -4
 323:FreeRTOS/queue.c **** {
 415              		.loc 1 323 0
 416 0004 0F46     		mov	r7, r1	@ uxItemSize, uxItemSize
 417 0006 9046     		mov	r8, r2	@ ucQueueType, ucQueueType
 333:FreeRTOS/queue.c **** 	if( uxQueueLength > ( unsigned portBASE_TYPE ) 0 )
 418              		.loc 1 333 0
 419 0008 0546     		mov	r5, r0	@ uxQueueLength, uxQueueLength
 420 000a 10B9     		cbnz	r0, .L38	@ uxQueueLength,
 421              	.LVL31:
 422              	.L40:
ARM GAS  /tmp/cchZ2RfF.s 			page 33


 326:FreeRTOS/queue.c **** xQueueHandle xReturn = NULL;
 423              		.loc 1 326 0
 424 000c 0020     		movs	r0, #0	@ xReturn,
 425 000e BDE8F081 		pop	{r4, r5, r6, r7, r8, pc}	@
 426              	.LVL32:
 427              	.L38:
 335:FreeRTOS/queue.c **** 		pxNewQueue = ( xQUEUE * ) pvPortMalloc( sizeof( xQUEUE ) );
 428              		.loc 1 335 0
 429 0012 5020     		movs	r0, #80	@,
 430              	.LVL33:
 431 0014 FFF7FEFF 		bl	pvPortMalloc	@
 432              	.LVL34:
 336:FreeRTOS/queue.c **** 		if( pxNewQueue != NULL )
 433              		.loc 1 336 0
 434 0018 0446     		mov	r4, r0	@ pxNewQueue,
 435 001a 0028     		cmp	r0, #0	@ pxNewQueue
 436 001c F6D0     		beq	.L40	@
 437              	.LVL35:
 340:FreeRTOS/queue.c **** 			xQueueSizeInBytes = ( size_t ) ( uxQueueLength * uxItemSize ) + ( size_t ) 1;
 438              		.loc 1 340 0
 439 001e 05FB07F0 		mul	r0, r5, r7	@ tmp143, uxQueueLength, uxItemSize
 440              	.LVL36:
 342:FreeRTOS/queue.c **** 			pxNewQueue->pcHead = ( signed char * ) pvPortMalloc( xQueueSizeInBytes );
 441              		.loc 1 342 0
 442 0022 0130     		adds	r0, r0, #1	@, tmp143,
 443              	.LVL37:
 444 0024 FFF7FEFF 		bl	pvPortMalloc	@
 445              	.LVL38:
 446 0028 0646     		mov	r6, r0	@ D.6953,
 447 002a 2060     		str	r0, [r4, #0]	@ D.6953, pxNewQueue_4->pcHead
 343:FreeRTOS/queue.c **** 			if( pxNewQueue->pcHead != NULL )
 448              		.loc 1 343 0
 449 002c 50B1     		cbz	r0, .L41	@ D.6953,
 347:FreeRTOS/queue.c **** 				pxNewQueue->uxLength = uxQueueLength;
 450              		.loc 1 347 0
 451 002e E563     		str	r5, [r4, #60]	@ uxQueueLength, pxNewQueue_4->uxLength
 348:FreeRTOS/queue.c **** 				pxNewQueue->uxItemSize = uxItemSize;
 452              		.loc 1 348 0
 453 0030 2764     		str	r7, [r4, #64]	@ uxItemSize, pxNewQueue_4->uxItemSize
 349:FreeRTOS/queue.c **** 				xQueueGenericReset( pxNewQueue, pdTRUE );
 454              		.loc 1 349 0
 455 0032 2046     		mov	r0, r4	@, pxNewQueue
 456 0034 0121     		movs	r1, #1	@,
 457 0036 FFF7FEFF 		bl	xQueueGenericReset	@
 458              	.LVL39:
 352:FreeRTOS/queue.c **** 					pxNewQueue->ucQueueType = ucQueueType;
 459              		.loc 1 352 0
 460 003a 84F84D80 		strb	r8, [r4, #77]	@ ucQueueType, pxNewQueue_4->ucQueueType
 461              	.LVL40:
 462 003e 2046     		mov	r0, r4	@ xReturn, pxNewQueue
 463 0040 BDE8F081 		pop	{r4, r5, r6, r7, r8, pc}	@
 464              	.LVL41:
 465              	.L41:
 362:FreeRTOS/queue.c **** 				vPortFree( pxNewQueue );
 466              		.loc 1 362 0
 467 0044 2046     		mov	r0, r4	@, pxNewQueue
 468 0046 FFF7FEFF 		bl	vPortFree	@
ARM GAS  /tmp/cchZ2RfF.s 			page 34


 469              	.LVL42:
 470 004a DFE7     		b	.L40	@
 471              		.cfi_endproc
 472              	.LFE56:
 473              		.size	xQueueGenericCreate, .-xQueueGenericCreate
 474              		.section	.text.xQueueGenericSend,"ax",%progbits
 475              		.align	1
 476              		.global	xQueueGenericSend
 477              		.thumb
 478              		.thumb_func
 479              		.type	xQueueGenericSend, %function
 480              	xQueueGenericSend:
 481              	.LFB58:
 578:FreeRTOS/queue.c **** {
 482              		.loc 1 578 0
 483              		.cfi_startproc
 484              		@ args = 0, pretend = 0, frame = 16
 485              		@ frame_needed = 0, uses_anonymous_args = 0
 486              	.LVL43:
 487 0000 2DE9FF41 		push	{r0, r1, r2, r3, r4, r5, r6, r7, r8, lr}	@
 488              	.LCFI5:
 489              		.cfi_def_cfa_offset 40
 490              		.cfi_offset 0, -40
 491              		.cfi_offset 1, -36
 492              		.cfi_offset 2, -32
 493              		.cfi_offset 3, -28
 494              		.cfi_offset 4, -24
 495              		.cfi_offset 5, -20
 496              		.cfi_offset 6, -16
 497              		.cfi_offset 7, -12
 498              		.cfi_offset 8, -8
 499              		.cfi_offset 14, -4
 500              	.LVL44:
 578:FreeRTOS/queue.c **** {
 501              		.loc 1 578 0
 502 0004 0446     		mov	r4, r0	@ pxQueue, pxQueue
 503 0006 0F46     		mov	r7, r1	@ pvItemToQueue, pvItemToQueue
 504              	.LVL45:
 505 0008 0192     		str	r2, [sp, #4]	@ xTicksToWait, xTicksToWait
 506 000a 9846     		mov	r8, r3	@ xCopyPosition, xCopyPosition
 579:FreeRTOS/queue.c **** signed portBASE_TYPE xEntryTimeSet = pdFALSE;
 507              		.loc 1 579 0
 508 000c 0025     		movs	r5, #0	@ xEntryTimeSet,
 509              	.LVL46:
 510              	.L46:
 590:FreeRTOS/queue.c **** 		taskENTER_CRITICAL();
 511              		.loc 1 590 0
 512 000e FFF7FEFF 		bl	vPortEnterCritical	@
 513              	.LVL47:
 594:FreeRTOS/queue.c **** 			if( pxQueue->uxMessagesWaiting < pxQueue->uxLength )
 514              		.loc 1 594 0
 515 0012 A26B     		ldr	r2, [r4, #56]	@ D.6899, pxQueue_5(D)->uxMessagesWaiting
 516 0014 E36B     		ldr	r3, [r4, #60]	@ pxQueue_5(D)->uxLength, pxQueue_5(D)->uxLength
 517 0016 9A42     		cmp	r2, r3	@ D.6899, pxQueue_5(D)->uxLength
 518 0018 12D2     		bcs	.L47	@,
 597:FreeRTOS/queue.c **** 				prvCopyDataToQueue( pxQueue, pvItemToQueue, xCopyPosition );
 519              		.loc 1 597 0
ARM GAS  /tmp/cchZ2RfF.s 			page 35


 520 001a 2046     		mov	r0, r4	@, pxQueue
 521 001c 3946     		mov	r1, r7	@, pvItemToQueue
 522 001e 4246     		mov	r2, r8	@, xCopyPosition
 523 0020 FFF7FEFF 		bl	prvCopyDataToQueue	@
 524              	.LVL48:
 601:FreeRTOS/queue.c **** 				if( listLIST_IS_EMPTY( &( pxQueue->xTasksWaitingToReceive ) ) == pdFALSE )
 525              		.loc 1 601 0
 526 0024 606A     		ldr	r0, [r4, #36]	@ D.6903, pxQueue_5(D)->xTasksWaitingToReceive.uxNumberOfItems
 527 0026 38B1     		cbz	r0, .L49	@ D.6903,
 603:FreeRTOS/queue.c **** 					if( xTaskRemoveFromEventList( &( pxQueue->xTasksWaitingToReceive ) ) == pdTRUE )
 528              		.loc 1 603 0
 529 0028 04F12400 		add	r0, r4, #36	@, pxQueue,
 530 002c FFF7FEFF 		bl	xTaskRemoveFromEventList	@
 531              	.LVL49:
 532 0030 0128     		cmp	r0, #1	@,
 533 0032 01D1     		bne	.L49	@,
 609:FreeRTOS/queue.c **** 						portYIELD_WITHIN_API();
 534              		.loc 1 609 0
 535 0034 FFF7FEFF 		bl	vPortYieldFromISR	@
 536              	.LVL50:
 537              	.L49:
 613:FreeRTOS/queue.c **** 				taskEXIT_CRITICAL();
 538              		.loc 1 613 0
 539 0038 FFF7FEFF 		bl	vPortExitCritical	@
 540              	.LVL51:
 617:FreeRTOS/queue.c **** 				return pdPASS;
 541              		.loc 1 617 0
 542 003c 0120     		movs	r0, #1	@ D.6910,
 543 003e 43E0     		b	.L51	@
 544              	.L47:
 621:FreeRTOS/queue.c **** 				if( xTicksToWait == ( portTickType ) 0 )
 545              		.loc 1 621 0
 546 0040 019E     		ldr	r6, [sp, #4]	@ xTicksToWait, xTicksToWait
 547              	.LVL52:
 548 0042 16B9     		cbnz	r6, .L52	@ xTicksToWait,
 625:FreeRTOS/queue.c **** 					taskEXIT_CRITICAL();
 549              		.loc 1 625 0
 550 0044 FFF7FEFF 		bl	vPortExitCritical	@
 551              	.LVL53:
 552 0048 3DE0     		b	.L59	@
 553              	.L52:
 632:FreeRTOS/queue.c **** 				else if( xEntryTimeSet == pdFALSE )
 554              		.loc 1 632 0
 555 004a 15B9     		cbnz	r5, .L53	@ xEntryTimeSet,
 636:FreeRTOS/queue.c **** 					vTaskSetTimeOutState( &xTimeOut );
 556              		.loc 1 636 0
 557 004c 02A8     		add	r0, sp, #8	@,,
 558 004e FFF7FEFF 		bl	vTaskSetTimeOutState	@
 559              	.LVL54:
 560              	.L53:
 641:FreeRTOS/queue.c **** 		taskEXIT_CRITICAL();
 561              		.loc 1 641 0
 562 0052 FFF7FEFF 		bl	vPortExitCritical	@
 563              	.LVL55:
 646:FreeRTOS/queue.c **** 		vTaskSuspendAll();
 564              		.loc 1 646 0
 565 0056 FFF7FEFF 		bl	vTaskSuspendAll	@
ARM GAS  /tmp/cchZ2RfF.s 			page 36


 566              	.LVL56:
 647:FreeRTOS/queue.c **** 		prvLockQueue( pxQueue );
 567              		.loc 1 647 0
 568 005a FFF7FEFF 		bl	vPortEnterCritical	@
 569              	.LVL57:
 570 005e 606C     		ldr	r0, [r4, #68]	@ D.6916, pxQueue_5(D)->xRxLock
 571 0060 431C     		adds	r3, r0, #1	@ D.6916, D.6916,
 572 0062 01D1     		bne	.L54	@,
 647:FreeRTOS/queue.c **** 		prvLockQueue( pxQueue );
 573              		.loc 1 647 0 is_stmt 0 discriminator 1
 574 0064 0021     		movs	r1, #0	@ tmp158,
 575 0066 6164     		str	r1, [r4, #68]	@ tmp158, pxQueue_5(D)->xRxLock
 576              	.L54:
 647:FreeRTOS/queue.c **** 		prvLockQueue( pxQueue );
 577              		.loc 1 647 0 discriminator 2
 578 0068 A26C     		ldr	r2, [r4, #72]	@ D.6919, pxQueue_5(D)->xTxLock
 579 006a 531C     		adds	r3, r2, #1	@ D.6919, D.6919,
 580 006c 01D1     		bne	.L55	@,
 647:FreeRTOS/queue.c **** 		prvLockQueue( pxQueue );
 581              		.loc 1 647 0 discriminator 3
 582 006e 0023     		movs	r3, #0	@ tmp159,
 583 0070 A364     		str	r3, [r4, #72]	@ tmp159, pxQueue_5(D)->xTxLock
 584              	.L55:
 647:FreeRTOS/queue.c **** 		prvLockQueue( pxQueue );
 585              		.loc 1 647 0 discriminator 4
 586 0072 FFF7FEFF 		bl	vPortExitCritical	@
 587              	.LVL58:
 650:FreeRTOS/queue.c **** 		if( xTaskCheckForTimeOut( &xTimeOut, &xTicksToWait ) == pdFALSE )
 588              		.loc 1 650 0 is_stmt 1 discriminator 4
 589 0076 02A8     		add	r0, sp, #8	@,,
 590 0078 01A9     		add	r1, sp, #4	@,,
 591 007a FFF7FEFF 		bl	xTaskCheckForTimeOut	@
 592              	.LVL59:
 593 007e E8B9     		cbnz	r0, .L56	@,
 594              	.LVL60:
 595              	.LBB4:
 596              	.LBB5:
1348:FreeRTOS/queue.c **** /*-----------------------------------------------------------*/
1349:FreeRTOS/queue.c **** 
1350:FreeRTOS/queue.c **** static signed portBASE_TYPE prvIsQueueEmpty( const xQueueHandle pxQueue )
1351:FreeRTOS/queue.c **** {
1352:FreeRTOS/queue.c **** signed portBASE_TYPE xReturn;
1353:FreeRTOS/queue.c **** 
1354:FreeRTOS/queue.c **** 	taskENTER_CRITICAL();
1355:FreeRTOS/queue.c **** 		xReturn = ( pxQueue->uxMessagesWaiting == ( unsigned portBASE_TYPE ) 0 );
1356:FreeRTOS/queue.c **** 	taskEXIT_CRITICAL();
1357:FreeRTOS/queue.c **** 
1358:FreeRTOS/queue.c **** 	return xReturn;
1359:FreeRTOS/queue.c **** }
1360:FreeRTOS/queue.c **** /*-----------------------------------------------------------*/
1361:FreeRTOS/queue.c **** 
1362:FreeRTOS/queue.c **** signed portBASE_TYPE xQueueIsQueueEmptyFromISR( const xQueueHandle pxQueue )
1363:FreeRTOS/queue.c **** {
1364:FreeRTOS/queue.c **** signed portBASE_TYPE xReturn;
1365:FreeRTOS/queue.c **** 
1366:FreeRTOS/queue.c **** 	configASSERT( pxQueue );
1367:FreeRTOS/queue.c **** 	xReturn = ( pxQueue->uxMessagesWaiting == ( unsigned portBASE_TYPE ) 0 );
ARM GAS  /tmp/cchZ2RfF.s 			page 37


1368:FreeRTOS/queue.c **** 
1369:FreeRTOS/queue.c **** 	return xReturn;
1370:FreeRTOS/queue.c **** }
1371:FreeRTOS/queue.c **** /*-----------------------------------------------------------*/
1372:FreeRTOS/queue.c **** 
1373:FreeRTOS/queue.c **** static signed portBASE_TYPE prvIsQueueFull( const xQueueHandle pxQueue )
1374:FreeRTOS/queue.c **** {
1375:FreeRTOS/queue.c **** signed portBASE_TYPE xReturn;
1376:FreeRTOS/queue.c **** 
1377:FreeRTOS/queue.c **** 	taskENTER_CRITICAL();
 597              		.loc 1 1377 0
 598 0080 FFF7FEFF 		bl	vPortEnterCritical	@
 599              	.LVL61:
1378:FreeRTOS/queue.c **** 		xReturn = ( pxQueue->uxMessagesWaiting == pxQueue->uxLength );
 600              		.loc 1 1378 0
 601 0084 A66B     		ldr	r6, [r4, #56]	@ D.7050, pxQueue_5(D)->uxMessagesWaiting
 602 0086 E56B     		ldr	r5, [r4, #60]	@ D.7049, pxQueue_5(D)->uxLength
 603              	.LVL62:
1379:FreeRTOS/queue.c **** 	taskEXIT_CRITICAL();
 604              		.loc 1 1379 0
 605 0088 FFF7FEFF 		bl	vPortExitCritical	@
 606              	.LVL63:
 607              	.LBE5:
 608              	.LBE4:
 652:FreeRTOS/queue.c **** 			if( prvIsQueueFull( pxQueue ) != pdFALSE )
 609              		.loc 1 652 0
 610 008c AE42     		cmp	r6, r5	@ D.7050, D.7049
 611 008e 0FD1     		bne	.L57	@,
 655:FreeRTOS/queue.c **** 				vTaskPlaceOnEventList( &( pxQueue->xTasksWaitingToSend ), xTicksToWait );
 612              		.loc 1 655 0
 613 0090 04F11000 		add	r0, r4, #16	@, pxQueue,
 614 0094 0199     		ldr	r1, [sp, #4]	@, xTicksToWait
 615 0096 FFF7FEFF 		bl	vTaskPlaceOnEventList	@
 616              	.LVL64:
 662:FreeRTOS/queue.c **** 				prvUnlockQueue( pxQueue );
 617              		.loc 1 662 0
 618 009a 2046     		mov	r0, r4	@, pxQueue
 619 009c FFF7FEFF 		bl	prvUnlockQueue	@
 620              	.LVL65:
 669:FreeRTOS/queue.c **** 				if( xTaskResumeAll() == pdFALSE )
 621              		.loc 1 669 0
 622 00a0 FFF7FEFF 		bl	xTaskResumeAll	@
 623              	.LVL66:
 624 00a4 08B1     		cbz	r0, .L60	@,
 625              	.L58:
 626 00a6 0125     		movs	r5, #1	@ xEntryTimeSet,
 627              	.LVL67:
 628 00a8 B1E7     		b	.L46	@
 629              	.LVL68:
 630              	.L60:
 671:FreeRTOS/queue.c **** 					portYIELD_WITHIN_API();
 631              		.loc 1 671 0
 632 00aa FFF7FEFF 		bl	vPortYieldFromISR	@
 633              	.LVL69:
 634 00ae FAE7     		b	.L58	@
 635              	.L57:
 677:FreeRTOS/queue.c **** 				prvUnlockQueue( pxQueue );
ARM GAS  /tmp/cchZ2RfF.s 			page 38


 636              		.loc 1 677 0
 637 00b0 2046     		mov	r0, r4	@, pxQueue
 638 00b2 FFF7FEFF 		bl	prvUnlockQueue	@
 639              	.LVL70:
 678:FreeRTOS/queue.c **** 				( void ) xTaskResumeAll();
 640              		.loc 1 678 0
 641 00b6 FFF7FEFF 		bl	xTaskResumeAll	@
 642              	.LVL71:
 643 00ba F4E7     		b	.L58	@
 644              	.LVL72:
 645              	.L56:
 684:FreeRTOS/queue.c **** 			prvUnlockQueue( pxQueue );
 646              		.loc 1 684 0
 647 00bc 2046     		mov	r0, r4	@, pxQueue
 648 00be FFF7FEFF 		bl	prvUnlockQueue	@
 649              	.LVL73:
 685:FreeRTOS/queue.c **** 			( void ) xTaskResumeAll();
 650              		.loc 1 685 0
 651 00c2 FFF7FEFF 		bl	xTaskResumeAll	@
 652              	.LVL74:
 653              	.L59:
 690:FreeRTOS/queue.c **** 			return errQUEUE_FULL;
 654              		.loc 1 690 0
 655 00c6 0020     		movs	r0, #0	@ D.6910,
 656              	.L51:
 693:FreeRTOS/queue.c **** }
 657              		.loc 1 693 0
 658 00c8 04B0     		add	sp, sp, #16	@,,
 659 00ca BDE8F081 		pop	{r4, r5, r6, r7, r8, pc}
 660              		.cfi_endproc
 661              	.LFE58:
 662              		.size	xQueueGenericSend, .-xQueueGenericSend
 663              		.section	.text.xQueueCreateMutex,"ax",%progbits
 664              		.align	1
 665              		.global	xQueueCreateMutex
 666              		.thumb
 667              		.thumb_func
 668              		.type	xQueueCreateMutex, %function
 669              	xQueueCreateMutex:
 670              	.LFB57:
 376:FreeRTOS/queue.c **** 	{
 671              		.loc 1 376 0
 672              		.cfi_startproc
 673              		@ args = 0, pretend = 0, frame = 0
 674              		@ frame_needed = 0, uses_anonymous_args = 0
 675              	.LVL75:
 676 0000 70B5     		push	{r4, r5, r6, lr}	@
 677              	.LCFI6:
 678              		.cfi_def_cfa_offset 16
 679              		.cfi_offset 4, -16
 680              		.cfi_offset 5, -12
 681              		.cfi_offset 6, -8
 682              		.cfi_offset 14, -4
 376:FreeRTOS/queue.c **** 	{
 683              		.loc 1 376 0
 684 0002 0646     		mov	r6, r0	@ ucQueueType, ucQueueType
 384:FreeRTOS/queue.c **** 		pxNewQueue = ( xQUEUE * ) pvPortMalloc( sizeof( xQUEUE ) );
ARM GAS  /tmp/cchZ2RfF.s 			page 39


 685              		.loc 1 384 0
 686 0004 5020     		movs	r0, #80	@,
 687              	.LVL76:
 688 0006 FFF7FEFF 		bl	pvPortMalloc	@
 689              	.LVL77:
 385:FreeRTOS/queue.c **** 		if( pxNewQueue != NULL )
 690              		.loc 1 385 0
 691 000a 0446     		mov	r4, r0	@ pxNewQueue,
 692 000c E0B1     		cbz	r0, .L62	@ pxNewQueue,
 388:FreeRTOS/queue.c **** 			pxNewQueue->pxMutexHolder = NULL;
 693              		.loc 1 388 0
 694 000e 0025     		movs	r5, #0	@ tmp139,
 400:FreeRTOS/queue.c **** 			pxNewQueue->uxLength = ( unsigned portBASE_TYPE ) 1U;
 695              		.loc 1 400 0
 696 0010 0123     		movs	r3, #1	@ tmp144,
 399:FreeRTOS/queue.c **** 			pxNewQueue->uxMessagesWaiting = ( unsigned portBASE_TYPE ) 0U;
 697              		.loc 1 399 0
 698 0012 8563     		str	r5, [r0, #56]	@ tmp139, pxNewQueue_1->uxMessagesWaiting
 400:FreeRTOS/queue.c **** 			pxNewQueue->uxLength = ( unsigned portBASE_TYPE ) 1U;
 699              		.loc 1 400 0
 700 0014 C363     		str	r3, [r0, #60]	@ tmp144, pxNewQueue_1->uxLength
 388:FreeRTOS/queue.c **** 			pxNewQueue->pxMutexHolder = NULL;
 701              		.loc 1 388 0
 702 0016 4560     		str	r5, [r0, #4]	@ tmp139, pxNewQueue_1->pcTail
 389:FreeRTOS/queue.c **** 			pxNewQueue->uxQueueType = queueQUEUE_IS_MUTEX;
 703              		.loc 1 389 0
 704 0018 0560     		str	r5, [r0, #0]	@ tmp139, pxNewQueue_1->pcHead
 393:FreeRTOS/queue.c **** 			pxNewQueue->pcWriteTo = NULL;
 705              		.loc 1 393 0
 706 001a 8560     		str	r5, [r0, #8]	@ tmp139, pxNewQueue_1->pcWriteTo
 394:FreeRTOS/queue.c **** 			pxNewQueue->pcReadFrom = NULL;
 707              		.loc 1 394 0
 708 001c C560     		str	r5, [r0, #12]	@ tmp139, pxNewQueue_1->pcReadFrom
 401:FreeRTOS/queue.c **** 			pxNewQueue->uxItemSize = ( unsigned portBASE_TYPE ) 0U;
 709              		.loc 1 401 0
 710 001e 0564     		str	r5, [r0, #64]	@ tmp139, pxNewQueue_1->uxItemSize
 402:FreeRTOS/queue.c **** 			pxNewQueue->xRxLock = queueUNLOCKED;
 711              		.loc 1 402 0
 712 0020 4FF0FF30 		mov	r0, #-1	@ tmp146,
 713              	.LVL78:
 714 0024 6064     		str	r0, [r4, #68]	@ tmp146, pxNewQueue_1->xRxLock
 407:FreeRTOS/queue.c **** 				pxNewQueue->ucQueueType = ucQueueType;
 715              		.loc 1 407 0
 716 0026 84F84D60 		strb	r6, [r4, #77]	@ ucQueueType, pxNewQueue_1->ucQueueType
 403:FreeRTOS/queue.c **** 			pxNewQueue->xTxLock = queueUNLOCKED;
 717              		.loc 1 403 0
 718 002a A064     		str	r0, [r4, #72]	@ tmp146, pxNewQueue_1->xTxLock
 412:FreeRTOS/queue.c **** 			vListInitialise( &( pxNewQueue->xTasksWaitingToSend ) );
 719              		.loc 1 412 0
 720 002c 04F11000 		add	r0, r4, #16	@, pxNewQueue,
 721 0030 FFF7FEFF 		bl	vListInitialise	@
 722              	.LVL79:
 413:FreeRTOS/queue.c **** 			vListInitialise( &( pxNewQueue->xTasksWaitingToReceive ) );
 723              		.loc 1 413 0
 724 0034 04F12400 		add	r0, r4, #36	@, pxNewQueue,
 725 0038 FFF7FEFF 		bl	vListInitialise	@
 726              	.LVL80:
ARM GAS  /tmp/cchZ2RfF.s 			page 40


 418:FreeRTOS/queue.c **** 			xQueueGenericSend( pxNewQueue, NULL, ( portTickType ) 0U, queueSEND_TO_BACK );
 727              		.loc 1 418 0
 728 003c 2046     		mov	r0, r4	@, pxNewQueue
 729 003e 2946     		mov	r1, r5	@, tmp139
 730 0040 2A46     		mov	r2, r5	@, tmp1
 731 0042 2B46     		mov	r3, r5	@, tmp1
 732 0044 FFF7FEFF 		bl	xQueueGenericSend	@
 733              	.LVL81:
 734              	.L62:
 427:FreeRTOS/queue.c **** 	}
 735              		.loc 1 427 0
 736 0048 2046     		mov	r0, r4	@, pxNewQueue
 737 004a 70BD     		pop	{r4, r5, r6, pc}	@
 738              		.cfi_endproc
 739              	.LFE57:
 740              		.size	xQueueCreateMutex, .-xQueueCreateMutex
 741              		.section	.text.xQueueGenericSendFromISR,"ax",%progbits
 742              		.align	1
 743              		.global	xQueueGenericSendFromISR
 744              		.thumb
 745              		.thumb_func
 746              		.type	xQueueGenericSendFromISR, %function
 747              	xQueueGenericSendFromISR:
 748              	.LFB59:
 903:FreeRTOS/queue.c **** {
 749              		.loc 1 903 0
 750              		.cfi_startproc
 751              		@ args = 0, pretend = 0, frame = 0
 752              		@ frame_needed = 0, uses_anonymous_args = 0
 753              	.LVL82:
 754 0000 38B5     		push	{r3, r4, r5, lr}	@
 755              	.LCFI7:
 756              		.cfi_def_cfa_offset 16
 757              		.cfi_offset 3, -16
 758              		.cfi_offset 4, -12
 759              		.cfi_offset 5, -8
 760              		.cfi_offset 14, -4
 903:FreeRTOS/queue.c **** {
 761              		.loc 1 903 0
 762 0002 0446     		mov	r4, r0	@ pxQueue, pxQueue
 763 0004 1546     		mov	r5, r2	@ pxHigherPriorityTaskWoken, pxHigherPriorityTaskWoken
 915:FreeRTOS/queue.c **** 	uxSavedInterruptStatus = portSET_INTERRUPT_MASK_FROM_ISR();
 764              		.loc 1 915 0
 765              	@ 915 "FreeRTOS/queue.c" 1
 766 0006 4FF05000 			mov r0, #80									@
 767 000a 80F31188 		msr basepri, r0							
 768              	
 769              	@ 0 "" 2
 770              	.LVL83:
 917:FreeRTOS/queue.c **** 		if( pxQueue->uxMessagesWaiting < pxQueue->uxLength )
 771              		.loc 1 917 0
 772              		.thumb
 773 000e A26B     		ldr	r2, [r4, #56]	@ D.6854, pxQueue_3(D)->uxMessagesWaiting
 774              	.LVL84:
 775 0010 E06B     		ldr	r0, [r4, #60]	@ pxQueue_3(D)->uxLength, pxQueue_3(D)->uxLength
 776 0012 8242     		cmp	r2, r0	@ D.6854, pxQueue_3(D)->uxLength
 777 0014 16D2     		bcs	.L71	@,
ARM GAS  /tmp/cchZ2RfF.s 			page 41


 921:FreeRTOS/queue.c **** 			prvCopyDataToQueue( pxQueue, pvItemToQueue, xCopyPosition );
 778              		.loc 1 921 0
 779 0016 1A46     		mov	r2, r3	@, xCopyPosition
 780 0018 2046     		mov	r0, r4	@, pxQueue
 781 001a FFF7FEFF 		bl	prvCopyDataToQueue	@
 782              	.LVL85:
 925:FreeRTOS/queue.c **** 			if( pxQueue->xTxLock == queueUNLOCKED )
 783              		.loc 1 925 0
 784 001e A16C     		ldr	r1, [r4, #72]	@ D.6858, pxQueue_3(D)->xTxLock
 785 0020 4B1C     		adds	r3, r1, #1	@ D.6858, D.6858,
 786 0022 0AD1     		bne	.L68	@,
 927:FreeRTOS/queue.c **** 				if( listLIST_IS_EMPTY( &( pxQueue->xTasksWaitingToReceive ) ) == pdFALSE )
 787              		.loc 1 927 0
 788 0024 636A     		ldr	r3, [r4, #36]	@ D.6861, pxQueue_3(D)->xTasksWaitingToReceive.uxNumberOfItems
 789 0026 5BB1     		cbz	r3, .L78	@ D.6861,
 790              	.L69:
 929:FreeRTOS/queue.c **** 					if( xTaskRemoveFromEventList( &( pxQueue->xTasksWaitingToReceive ) ) != pdFALSE )
 791              		.loc 1 929 0
 792 0028 04F12400 		add	r0, r4, #36	@, pxQueue,
 793 002c FFF7FEFF 		bl	xTaskRemoveFromEventList	@
 794              	.LVL86:
 795 0030 30B1     		cbz	r0, .L78	@,
 933:FreeRTOS/queue.c **** 						if( pxHigherPriorityTaskWoken != NULL )
 796              		.loc 1 933 0
 797 0032 2DB1     		cbz	r5, .L78	@ pxHigherPriorityTaskWoken,
 935:FreeRTOS/queue.c **** 							*pxHigherPriorityTaskWoken = pdTRUE;
 798              		.loc 1 935 0
 799 0034 0123     		movs	r3, #1	@ tmp150,
 800 0036 2B60     		str	r3, [r5, #0]	@ tmp150, *pxHigherPriorityTaskWoken_12(D)
 801 0038 05E0     		b	.L67	@
 802              	.L68:
 944:FreeRTOS/queue.c **** 				++( pxQueue->xTxLock );
 803              		.loc 1 944 0
 804 003a A26C     		ldr	r2, [r4, #72]	@ D.6871, pxQueue_3(D)->xTxLock
 805 003c 501C     		adds	r0, r2, #1	@ D.6872, D.6871,
 806 003e A064     		str	r0, [r4, #72]	@ D.6872, pxQueue_3(D)->xTxLock
 807              	.L78:
 947:FreeRTOS/queue.c **** 			xReturn = pdPASS;
 808              		.loc 1 947 0
 809 0040 0123     		movs	r3, #1	@ xReturn,
 810 0042 00E0     		b	.L67	@
 811              	.LVL87:
 812              	.L71:
 952:FreeRTOS/queue.c **** 			xReturn = errQUEUE_FULL;
 813              		.loc 1 952 0
 814 0044 0023     		movs	r3, #0	@ xReturn,
 815              	.LVL88:
 816              	.L67:
 955:FreeRTOS/queue.c **** 	portCLEAR_INTERRUPT_MASK_FROM_ISR( uxSavedInterruptStatus );
 817              		.loc 1 955 0
 818              	@ 955 "FreeRTOS/queue.c" 1
 819 0046 4FF00000 			mov r0, #0					
 820 004a 80F31188 		msr basepri, r0				
 821              	
 822              	@ 0 "" 2
 958:FreeRTOS/queue.c **** }
 823              		.loc 1 958 0
ARM GAS  /tmp/cchZ2RfF.s 			page 42


 824              		.thumb
 825 004e 1846     		mov	r0, r3	@, xReturn
 826 0050 38BD     		pop	{r3, r4, r5, pc}	@
 827              		.cfi_endproc
 828              	.LFE59:
 829              		.size	xQueueGenericSendFromISR, .-xQueueGenericSendFromISR
 830              		.section	.text.xQueueGenericReceive,"ax",%progbits
 831              		.align	1
 832              		.global	xQueueGenericReceive
 833              		.thumb
 834              		.thumb_func
 835              		.type	xQueueGenericReceive, %function
 836              	xQueueGenericReceive:
 837              	.LFB60:
 962:FreeRTOS/queue.c **** {
 838              		.loc 1 962 0
 839              		.cfi_startproc
 840              		@ args = 0, pretend = 0, frame = 16
 841              		@ frame_needed = 0, uses_anonymous_args = 0
 842              	.LVL89:
 843 0000 2DE9FF41 		push	{r0, r1, r2, r3, r4, r5, r6, r7, r8, lr}	@
 844              	.LCFI8:
 845              		.cfi_def_cfa_offset 40
 846              		.cfi_offset 0, -40
 847              		.cfi_offset 1, -36
 848              		.cfi_offset 2, -32
 849              		.cfi_offset 3, -28
 850              		.cfi_offset 4, -24
 851              		.cfi_offset 5, -20
 852              		.cfi_offset 6, -16
 853              		.cfi_offset 7, -12
 854              		.cfi_offset 8, -8
 855              		.cfi_offset 14, -4
 856              	.LVL90:
 962:FreeRTOS/queue.c **** {
 857              		.loc 1 962 0
 858 0004 0446     		mov	r4, r0	@ pxQueue, pxQueue
 859 0006 0F46     		mov	r7, r1	@ pvBuffer, pvBuffer
 860              	.LVL91:
 861 0008 0192     		str	r2, [sp, #4]	@ xTicksToWait, xTicksToWait
 862 000a 9846     		mov	r8, r3	@ xJustPeeking, xJustPeeking
 963:FreeRTOS/queue.c **** signed portBASE_TYPE xEntryTimeSet = pdFALSE;
 863              		.loc 1 963 0
 864 000c 0025     		movs	r5, #0	@ xEntryTimeSet,
 865              	.LVL92:
 866              	.L80:
 976:FreeRTOS/queue.c **** 		taskENTER_CRITICAL();
 867              		.loc 1 976 0
 868 000e FFF7FEFF 		bl	vPortEnterCritical	@
 869              	.LVL93:
 980:FreeRTOS/queue.c **** 			if( pxQueue->uxMessagesWaiting > ( unsigned portBASE_TYPE ) 0 )
 870              		.loc 1 980 0
 871 0012 A36B     		ldr	r3, [r4, #56]	@ D.6778, pxQueue_5(D)->uxMessagesWaiting
 872 0014 3BB3     		cbz	r3, .L81	@ D.6778,
 985:FreeRTOS/queue.c **** 				prvCopyDataFromQueue( pxQueue, pvBuffer );
 873              		.loc 1 985 0
 874 0016 2046     		mov	r0, r4	@, pxQueue
ARM GAS  /tmp/cchZ2RfF.s 			page 43


 875 0018 3946     		mov	r1, r7	@, pvBuffer
 983:FreeRTOS/queue.c **** 				pcOriginalReadPosition = pxQueue->pcReadFrom;
 876              		.loc 1 983 0
 877 001a E568     		ldr	r5, [r4, #12]	@ pcOriginalReadPosition, pxQueue_5(D)->pcReadFrom
 878              	.LVL94:
 985:FreeRTOS/queue.c **** 				prvCopyDataFromQueue( pxQueue, pvBuffer );
 879              		.loc 1 985 0
 880 001c FFF7FEFF 		bl	prvCopyDataFromQueue	@
 881              	.LVL95:
 987:FreeRTOS/queue.c **** 				if( xJustPeeking == pdFALSE )
 882              		.loc 1 987 0
 883 0020 B8F1000F 		cmp	r8, #0	@ xJustPeeking
 884 0024 12D1     		bne	.L82	@
 992:FreeRTOS/queue.c **** 					--( pxQueue->uxMessagesWaiting );
 885              		.loc 1 992 0
 886 0026 A26B     		ldr	r2, [r4, #56]	@ D.6783, pxQueue_5(D)->uxMessagesWaiting
 996:FreeRTOS/queue.c **** 						if( pxQueue->uxQueueType == queueQUEUE_IS_MUTEX )
 887              		.loc 1 996 0
 888 0028 2068     		ldr	r0, [r4, #0]	@ pxQueue_5(D)->pcHead, pxQueue_5(D)->pcHead
 992:FreeRTOS/queue.c **** 					--( pxQueue->uxMessagesWaiting );
 889              		.loc 1 992 0
 890 002a 531E     		subs	r3, r2, #1	@ D.6784, D.6783,
 891 002c A363     		str	r3, [r4, #56]	@ D.6784, pxQueue_5(D)->uxMessagesWaiting
 996:FreeRTOS/queue.c **** 						if( pxQueue->uxQueueType == queueQUEUE_IS_MUTEX )
 892              		.loc 1 996 0
 893 002e 10B9     		cbnz	r0, .L83	@ pxQueue_5(D)->pcHead,
1000:FreeRTOS/queue.c **** 							pxQueue->pxMutexHolder = xTaskGetCurrentTaskHandle();
 894              		.loc 1 1000 0
 895 0030 FFF7FEFF 		bl	xTaskGetCurrentTaskHandle	@
 896              	.LVL96:
 897 0034 6060     		str	r0, [r4, #4]	@, pxQueue_5(D)->pcTail
 898              	.L83:
1005:FreeRTOS/queue.c **** 					if( listLIST_IS_EMPTY( &( pxQueue->xTasksWaitingToSend ) ) == pdFALSE )
 899              		.loc 1 1005 0
 900 0036 2169     		ldr	r1, [r4, #16]	@ D.6789, pxQueue_5(D)->xTasksWaitingToSend.uxNumberOfItems
 901 0038 89B1     		cbz	r1, .L85	@ D.6789,
1007:FreeRTOS/queue.c **** 						if( xTaskRemoveFromEventList( &( pxQueue->xTasksWaitingToSend ) ) == pdTRUE )
 902              		.loc 1 1007 0
 903 003a 04F11000 		add	r0, r4, #16	@, pxQueue,
 904 003e FFF7FEFF 		bl	xTaskRemoveFromEventList	@
 905              	.LVL97:
 906 0042 0128     		cmp	r0, #1	@,
 907 0044 0BD1     		bne	.L85	@,
 908              	.L87:
1009:FreeRTOS/queue.c **** 							portYIELD_WITHIN_API();
 909              		.loc 1 1009 0
 910 0046 FFF7FEFF 		bl	vPortYieldFromISR	@
 911              	.LVL98:
 912 004a 08E0     		b	.L85	@
 913              	.L82:
1023:FreeRTOS/queue.c **** 					if( listLIST_IS_EMPTY( &( pxQueue->xTasksWaitingToReceive ) ) == pdFALSE )
 914              		.loc 1 1023 0
 915 004c 616A     		ldr	r1, [r4, #36]	@ D.6797, pxQueue_5(D)->xTasksWaitingToReceive.uxNumberOfItems
1019:FreeRTOS/queue.c **** 					pxQueue->pcReadFrom = pcOriginalReadPosition;
 916              		.loc 1 1019 0
 917 004e E560     		str	r5, [r4, #12]	@ pcOriginalReadPosition, pxQueue_5(D)->pcReadFrom
1023:FreeRTOS/queue.c **** 					if( listLIST_IS_EMPTY( &( pxQueue->xTasksWaitingToReceive ) ) == pdFALSE )
ARM GAS  /tmp/cchZ2RfF.s 			page 44


 918              		.loc 1 1023 0
 919 0050 29B1     		cbz	r1, .L85	@ D.6797,
1027:FreeRTOS/queue.c **** 						if( xTaskRemoveFromEventList( &( pxQueue->xTasksWaitingToReceive ) ) != pdFALSE )
 920              		.loc 1 1027 0
 921 0052 04F12400 		add	r0, r4, #36	@, pxQueue,
 922 0056 FFF7FEFF 		bl	xTaskRemoveFromEventList	@
 923              	.LVL99:
 924 005a 0028     		cmp	r0, #0	@
 925 005c F3D1     		bne	.L87	@
 926              	.L85:
1035:FreeRTOS/queue.c **** 				taskEXIT_CRITICAL();
 927              		.loc 1 1035 0
 928 005e FFF7FEFF 		bl	vPortExitCritical	@
 929              	.LVL100:
1036:FreeRTOS/queue.c **** 				return pdPASS;
 930              		.loc 1 1036 0
 931 0062 0120     		movs	r0, #1	@ D.6804,
 932 0064 4AE0     		b	.L88	@
 933              	.LVL101:
 934              	.L81:
1040:FreeRTOS/queue.c **** 				if( xTicksToWait == ( portTickType ) 0 )
 935              		.loc 1 1040 0
 936 0066 019E     		ldr	r6, [sp, #4]	@ xTicksToWait, xTicksToWait
 937 0068 16B9     		cbnz	r6, .L89	@ xTicksToWait,
1044:FreeRTOS/queue.c **** 					taskEXIT_CRITICAL();
 938              		.loc 1 1044 0
 939 006a FFF7FEFF 		bl	vPortExitCritical	@
 940              	.LVL102:
 941 006e 44E0     		b	.L100	@
 942              	.L89:
1048:FreeRTOS/queue.c **** 				else if( xEntryTimeSet == pdFALSE )
 943              		.loc 1 1048 0
 944 0070 15B9     		cbnz	r5, .L90	@ xEntryTimeSet,
1052:FreeRTOS/queue.c **** 					vTaskSetTimeOutState( &xTimeOut );
 945              		.loc 1 1052 0
 946 0072 02A8     		add	r0, sp, #8	@,,
 947 0074 FFF7FEFF 		bl	vTaskSetTimeOutState	@
 948              	.LVL103:
 949              	.L90:
1057:FreeRTOS/queue.c **** 		taskEXIT_CRITICAL();
 950              		.loc 1 1057 0
 951 0078 FFF7FEFF 		bl	vPortExitCritical	@
 952              	.LVL104:
1062:FreeRTOS/queue.c **** 		vTaskSuspendAll();
 953              		.loc 1 1062 0
 954 007c FFF7FEFF 		bl	vTaskSuspendAll	@
 955              	.LVL105:
1063:FreeRTOS/queue.c **** 		prvLockQueue( pxQueue );
 956              		.loc 1 1063 0
 957 0080 FFF7FEFF 		bl	vPortEnterCritical	@
 958              	.LVL106:
 959 0084 606C     		ldr	r0, [r4, #68]	@ D.6810, pxQueue_5(D)->xRxLock
 960 0086 431C     		adds	r3, r0, #1	@ D.6810, D.6810,
 961 0088 01D1     		bne	.L91	@,
1063:FreeRTOS/queue.c **** 		prvLockQueue( pxQueue );
 962              		.loc 1 1063 0 is_stmt 0 discriminator 1
 963 008a 0021     		movs	r1, #0	@ tmp167,
ARM GAS  /tmp/cchZ2RfF.s 			page 45


 964 008c 6164     		str	r1, [r4, #68]	@ tmp167, pxQueue_5(D)->xRxLock
 965              	.L91:
1063:FreeRTOS/queue.c **** 		prvLockQueue( pxQueue );
 966              		.loc 1 1063 0 discriminator 2
 967 008e A26C     		ldr	r2, [r4, #72]	@ D.6813, pxQueue_5(D)->xTxLock
 968 0090 531C     		adds	r3, r2, #1	@ D.6813, D.6813,
 969 0092 01D1     		bne	.L92	@,
1063:FreeRTOS/queue.c **** 		prvLockQueue( pxQueue );
 970              		.loc 1 1063 0 discriminator 3
 971 0094 0023     		movs	r3, #0	@ tmp168,
 972 0096 A364     		str	r3, [r4, #72]	@ tmp168, pxQueue_5(D)->xTxLock
 973              	.L92:
1063:FreeRTOS/queue.c **** 		prvLockQueue( pxQueue );
 974              		.loc 1 1063 0 discriminator 4
 975 0098 FFF7FEFF 		bl	vPortExitCritical	@
 976              	.LVL107:
1066:FreeRTOS/queue.c **** 		if( xTaskCheckForTimeOut( &xTimeOut, &xTicksToWait ) == pdFALSE )
 977              		.loc 1 1066 0 is_stmt 1 discriminator 4
 978 009c 02A8     		add	r0, sp, #8	@,,
 979 009e 01A9     		add	r1, sp, #4	@,,
 980 00a0 FFF7FEFF 		bl	xTaskCheckForTimeOut	@
 981              	.LVL108:
 982 00a4 20BB     		cbnz	r0, .L93	@,
 983              	.LVL109:
 984              	.LBB8:
 985              	.LBB9:
1354:FreeRTOS/queue.c **** 	taskENTER_CRITICAL();
 986              		.loc 1 1354 0
 987 00a6 FFF7FEFF 		bl	vPortEnterCritical	@
 988              	.LVL110:
1355:FreeRTOS/queue.c **** 		xReturn = ( pxQueue->uxMessagesWaiting == ( unsigned portBASE_TYPE ) 0 );
 989              		.loc 1 1355 0
 990 00aa A56B     		ldr	r5, [r4, #56]	@ D.7061, pxQueue_5(D)->uxMessagesWaiting
 991              	.LVL111:
1356:FreeRTOS/queue.c **** 	taskEXIT_CRITICAL();
 992              		.loc 1 1356 0
 993 00ac FFF7FEFF 		bl	vPortExitCritical	@
 994              	.LVL112:
 995              	.LBE9:
 996              	.LBE8:
1068:FreeRTOS/queue.c **** 			if( prvIsQueueEmpty( pxQueue ) != pdFALSE )
 997              		.loc 1 1068 0
 998 00b0 C5B9     		cbnz	r5, .L94	@ D.7061,
1074:FreeRTOS/queue.c **** 					if( pxQueue->uxQueueType == queueQUEUE_IS_MUTEX )
 999              		.loc 1 1074 0
 1000 00b2 2068     		ldr	r0, [r4, #0]	@ pxQueue_5(D)->pcHead, pxQueue_5(D)->pcHead
 1001 00b4 30B9     		cbnz	r0, .L95	@ pxQueue_5(D)->pcHead,
1076:FreeRTOS/queue.c **** 						portENTER_CRITICAL();
 1002              		.loc 1 1076 0
 1003 00b6 FFF7FEFF 		bl	vPortEnterCritical	@
 1004              	.LVL113:
1078:FreeRTOS/queue.c **** 							vTaskPriorityInherit( ( void * ) pxQueue->pxMutexHolder );
 1005              		.loc 1 1078 0
 1006 00ba 6068     		ldr	r0, [r4, #4]	@, pxQueue_5(D)->pcTail
 1007 00bc FFF7FEFF 		bl	vTaskPriorityInherit	@
 1008              	.LVL114:
1080:FreeRTOS/queue.c **** 						portEXIT_CRITICAL();
ARM GAS  /tmp/cchZ2RfF.s 			page 46


 1009              		.loc 1 1080 0
 1010 00c0 FFF7FEFF 		bl	vPortExitCritical	@
 1011              	.LVL115:
 1012              	.L95:
1085:FreeRTOS/queue.c **** 				vTaskPlaceOnEventList( &( pxQueue->xTasksWaitingToReceive ), xTicksToWait );
 1013              		.loc 1 1085 0
 1014 00c4 04F12400 		add	r0, r4, #36	@, pxQueue,
 1015 00c8 0199     		ldr	r1, [sp, #4]	@, xTicksToWait
 1016 00ca FFF7FEFF 		bl	vTaskPlaceOnEventList	@
 1017              	.LVL116:
1086:FreeRTOS/queue.c **** 				prvUnlockQueue( pxQueue );
 1018              		.loc 1 1086 0
 1019 00ce 2046     		mov	r0, r4	@, pxQueue
 1020 00d0 FFF7FEFF 		bl	prvUnlockQueue	@
 1021              	.LVL117:
1087:FreeRTOS/queue.c **** 				if( xTaskResumeAll() == pdFALSE )
 1022              		.loc 1 1087 0
 1023 00d4 FFF7FEFF 		bl	xTaskResumeAll	@
 1024              	.LVL118:
 1025 00d8 08B1     		cbz	r0, .L101	@,
 1026              	.L96:
 1027 00da 0125     		movs	r5, #1	@ xEntryTimeSet,
 1028              	.LVL119:
 1029 00dc 97E7     		b	.L80	@
 1030              	.LVL120:
 1031              	.L101:
1089:FreeRTOS/queue.c **** 					portYIELD_WITHIN_API();
 1032              		.loc 1 1089 0
 1033 00de FFF7FEFF 		bl	vPortYieldFromISR	@
 1034              	.LVL121:
 1035 00e2 FAE7     		b	.L96	@
 1036              	.L94:
1095:FreeRTOS/queue.c **** 				prvUnlockQueue( pxQueue );
 1037              		.loc 1 1095 0
 1038 00e4 2046     		mov	r0, r4	@, pxQueue
 1039 00e6 FFF7FEFF 		bl	prvUnlockQueue	@
 1040              	.LVL122:
1096:FreeRTOS/queue.c **** 				( void ) xTaskResumeAll();
 1041              		.loc 1 1096 0
 1042 00ea FFF7FEFF 		bl	xTaskResumeAll	@
 1043              	.LVL123:
 1044 00ee F4E7     		b	.L96	@
 1045              	.LVL124:
 1046              	.L93:
1101:FreeRTOS/queue.c **** 			prvUnlockQueue( pxQueue );
 1047              		.loc 1 1101 0
 1048 00f0 2046     		mov	r0, r4	@, pxQueue
 1049 00f2 FFF7FEFF 		bl	prvUnlockQueue	@
 1050              	.LVL125:
1102:FreeRTOS/queue.c **** 			( void ) xTaskResumeAll();
 1051              		.loc 1 1102 0
 1052 00f6 FFF7FEFF 		bl	xTaskResumeAll	@
 1053              	.LVL126:
 1054              	.L100:
1104:FreeRTOS/queue.c **** 			return errQUEUE_EMPTY;
 1055              		.loc 1 1104 0
 1056 00fa 0020     		movs	r0, #0	@ D.6804,
ARM GAS  /tmp/cchZ2RfF.s 			page 47


 1057              	.L88:
1107:FreeRTOS/queue.c **** }
 1058              		.loc 1 1107 0
 1059 00fc 04B0     		add	sp, sp, #16	@,,
 1060 00fe BDE8F081 		pop	{r4, r5, r6, r7, r8, pc}
 1061              		.cfi_endproc
 1062              	.LFE60:
 1063              		.size	xQueueGenericReceive, .-xQueueGenericReceive
 1064              		.section	.text.xQueueReceiveFromISR,"ax",%progbits
 1065              		.align	1
 1066              		.global	xQueueReceiveFromISR
 1067              		.thumb
 1068              		.thumb_func
 1069              		.type	xQueueReceiveFromISR, %function
 1070              	xQueueReceiveFromISR:
 1071              	.LFB61:
1111:FreeRTOS/queue.c **** {
 1072              		.loc 1 1111 0
 1073              		.cfi_startproc
 1074              		@ args = 0, pretend = 0, frame = 0
 1075              		@ frame_needed = 0, uses_anonymous_args = 0
 1076              	.LVL127:
 1077 0000 38B5     		push	{r3, r4, r5, lr}	@
 1078              	.LCFI9:
 1079              		.cfi_def_cfa_offset 16
 1080              		.cfi_offset 3, -16
 1081              		.cfi_offset 4, -12
 1082              		.cfi_offset 5, -8
 1083              		.cfi_offset 14, -4
1111:FreeRTOS/queue.c **** {
 1084              		.loc 1 1111 0
 1085 0002 0446     		mov	r4, r0	@ pxQueue, pxQueue
 1086 0004 1546     		mov	r5, r2	@ pxHigherPriorityTaskWoken, pxHigherPriorityTaskWoken
1118:FreeRTOS/queue.c **** 	uxSavedInterruptStatus = portSET_INTERRUPT_MASK_FROM_ISR();
 1087              		.loc 1 1118 0
 1088              	@ 1118 "FreeRTOS/queue.c" 1
 1089 0006 4FF05000 			mov r0, #80									@
 1090 000a 80F31188 		msr basepri, r0							
 1091              	
 1092              	@ 0 "" 2
 1093              	.LVL128:
1121:FreeRTOS/queue.c **** 		if( pxQueue->uxMessagesWaiting > ( unsigned portBASE_TYPE ) 0 )
 1094              		.loc 1 1121 0
 1095              		.thumb
 1096 000e A26B     		ldr	r2, [r4, #56]	@ D.6746, pxQueue_3(D)->uxMessagesWaiting
 1097              	.LVL129:
 1098 0010 BAB1     		cbz	r2, .L103	@ D.6746,
1125:FreeRTOS/queue.c **** 			prvCopyDataFromQueue( pxQueue, pvBuffer );
 1099              		.loc 1 1125 0
 1100 0012 2046     		mov	r0, r4	@, pxQueue
 1101 0014 FFF7FEFF 		bl	prvCopyDataFromQueue	@
 1102              	.LVL130:
1126:FreeRTOS/queue.c **** 			--( pxQueue->uxMessagesWaiting );
 1103              		.loc 1 1126 0
 1104 0018 A36B     		ldr	r3, [r4, #56]	@ D.6749, pxQueue_3(D)->uxMessagesWaiting
 1105 001a 581E     		subs	r0, r3, #1	@ D.6750, D.6749,
 1106 001c A063     		str	r0, [r4, #56]	@ D.6750, pxQueue_3(D)->uxMessagesWaiting
ARM GAS  /tmp/cchZ2RfF.s 			page 48


1131:FreeRTOS/queue.c **** 			if( pxQueue->xRxLock == queueUNLOCKED )
 1107              		.loc 1 1131 0
 1108 001e 616C     		ldr	r1, [r4, #68]	@ D.6751, pxQueue_3(D)->xRxLock
 1109 0020 4B1C     		adds	r3, r1, #1	@ D.6751, D.6751,
 1110 0022 0AD1     		bne	.L104	@,
1133:FreeRTOS/queue.c **** 				if( listLIST_IS_EMPTY( &( pxQueue->xTasksWaitingToSend ) ) == pdFALSE )
 1111              		.loc 1 1133 0
 1112 0024 2069     		ldr	r0, [r4, #16]	@ D.6754, pxQueue_3(D)->xTasksWaitingToSend.uxNumberOfItems
 1113 0026 58B1     		cbz	r0, .L114	@ D.6754,
 1114              	.L105:
1135:FreeRTOS/queue.c **** 					if( xTaskRemoveFromEventList( &( pxQueue->xTasksWaitingToSend ) ) != pdFALSE )
 1115              		.loc 1 1135 0
 1116 0028 04F11000 		add	r0, r4, #16	@, pxQueue,
 1117 002c FFF7FEFF 		bl	xTaskRemoveFromEventList	@
 1118              	.LVL131:
 1119 0030 30B1     		cbz	r0, .L114	@,
1139:FreeRTOS/queue.c **** 						if( pxHigherPriorityTaskWoken != NULL )
 1120              		.loc 1 1139 0
 1121 0032 2DB1     		cbz	r5, .L114	@ pxHigherPriorityTaskWoken,
1141:FreeRTOS/queue.c **** 							*pxHigherPriorityTaskWoken = pdTRUE;
 1122              		.loc 1 1141 0
 1123 0034 0122     		movs	r2, #1	@ tmp149,
 1124 0036 2A60     		str	r2, [r5, #0]	@ tmp149, *pxHigherPriorityTaskWoken_12(D)
 1125 0038 03E0     		b	.L103	@
 1126              	.L104:
1150:FreeRTOS/queue.c **** 				++( pxQueue->xRxLock );
 1127              		.loc 1 1150 0
 1128 003a 626C     		ldr	r2, [r4, #68]	@ D.6764, pxQueue_3(D)->xRxLock
 1129 003c 531C     		adds	r3, r2, #1	@ D.6765, D.6764,
 1130 003e 6364     		str	r3, [r4, #68]	@ D.6765, pxQueue_3(D)->xRxLock
 1131              	.L114:
1153:FreeRTOS/queue.c **** 			xReturn = pdPASS;
 1132              		.loc 1 1153 0
 1133 0040 0122     		movs	r2, #1	@ xReturn,
 1134              	.L103:
 1135              	.LVL132:
1161:FreeRTOS/queue.c **** 	portCLEAR_INTERRUPT_MASK_FROM_ISR( uxSavedInterruptStatus );
 1136              		.loc 1 1161 0
 1137              	@ 1161 "FreeRTOS/queue.c" 1
 1138 0042 4FF00000 			mov r0, #0					
 1139 0046 80F31188 		msr basepri, r0				
 1140              	
 1141              	@ 0 "" 2
1164:FreeRTOS/queue.c **** }
 1142              		.loc 1 1164 0
 1143              		.thumb
 1144 004a 1046     		mov	r0, r2	@, xReturn
 1145 004c 38BD     		pop	{r3, r4, r5, pc}	@
 1146              		.cfi_endproc
 1147              	.LFE61:
 1148              		.size	xQueueReceiveFromISR, .-xQueueReceiveFromISR
 1149              		.section	.text.uxQueueMessagesWaiting,"ax",%progbits
 1150              		.align	1
 1151              		.global	uxQueueMessagesWaiting
 1152              		.thumb
 1153              		.thumb_func
 1154              		.type	uxQueueMessagesWaiting, %function
ARM GAS  /tmp/cchZ2RfF.s 			page 49


 1155              	uxQueueMessagesWaiting:
 1156              	.LFB62:
1168:FreeRTOS/queue.c **** {
 1157              		.loc 1 1168 0
 1158              		.cfi_startproc
 1159              		@ args = 0, pretend = 0, frame = 0
 1160              		@ frame_needed = 0, uses_anonymous_args = 0
 1161              	.LVL133:
 1162 0000 10B5     		push	{r4, lr}	@
 1163              	.LCFI10:
 1164              		.cfi_def_cfa_offset 8
 1165              		.cfi_offset 4, -8
 1166              		.cfi_offset 14, -4
1168:FreeRTOS/queue.c **** {
 1167              		.loc 1 1168 0
 1168 0002 0446     		mov	r4, r0	@ pxQueue, pxQueue
1173:FreeRTOS/queue.c **** 	taskENTER_CRITICAL();
 1169              		.loc 1 1173 0
 1170 0004 FFF7FEFF 		bl	vPortEnterCritical	@
 1171              	.LVL134:
1174:FreeRTOS/queue.c **** 		uxReturn = pxQueue->uxMessagesWaiting;
 1172              		.loc 1 1174 0
 1173 0008 A46B     		ldr	r4, [r4, #56]	@ uxReturn, pxQueue_1(D)->uxMessagesWaiting
 1174              	.LVL135:
1175:FreeRTOS/queue.c **** 	taskEXIT_CRITICAL();
 1175              		.loc 1 1175 0
 1176 000a FFF7FEFF 		bl	vPortExitCritical	@
 1177              	.LVL136:
1178:FreeRTOS/queue.c **** }
 1178              		.loc 1 1178 0
 1179 000e 2046     		mov	r0, r4	@, uxReturn
 1180 0010 10BD     		pop	{r4, pc}	@
 1181              		.cfi_endproc
 1182              	.LFE62:
 1183              		.size	uxQueueMessagesWaiting, .-uxQueueMessagesWaiting
 1184              		.section	.text.uxQueueMessagesWaitingFromISR,"ax",%progbits
 1185              		.align	1
 1186              		.global	uxQueueMessagesWaitingFromISR
 1187              		.thumb
 1188              		.thumb_func
 1189              		.type	uxQueueMessagesWaitingFromISR, %function
 1190              	uxQueueMessagesWaitingFromISR:
 1191              	.LFB63:
1182:FreeRTOS/queue.c **** {
 1192              		.loc 1 1182 0
 1193              		.cfi_startproc
 1194              		@ args = 0, pretend = 0, frame = 0
 1195              		@ frame_needed = 0, uses_anonymous_args = 0
 1196              		@ link register save eliminated.
 1197              	.LVL137:
1187:FreeRTOS/queue.c **** 	uxReturn = pxQueue->uxMessagesWaiting;
 1198              		.loc 1 1187 0
 1199 0000 806B     		ldr	r0, [r0, #56]	@ uxReturn, pxQueue_1(D)->uxMessagesWaiting
 1200              	.LVL138:
1190:FreeRTOS/queue.c **** }
 1201              		.loc 1 1190 0
 1202 0002 7047     		bx	lr	@
ARM GAS  /tmp/cchZ2RfF.s 			page 50


 1203              		.cfi_endproc
 1204              	.LFE63:
 1205              		.size	uxQueueMessagesWaitingFromISR, .-uxQueueMessagesWaitingFromISR
 1206              		.section	.text.vQueueDelete,"ax",%progbits
 1207              		.align	1
 1208              		.global	vQueueDelete
 1209              		.thumb
 1210              		.thumb_func
 1211              		.type	vQueueDelete, %function
 1212              	vQueueDelete:
 1213              	.LFB64:
1194:FreeRTOS/queue.c **** {
 1214              		.loc 1 1194 0
 1215              		.cfi_startproc
 1216              		@ args = 0, pretend = 0, frame = 0
 1217              		@ frame_needed = 0, uses_anonymous_args = 0
 1218              	.LVL139:
 1219 0000 10B5     		push	{r4, lr}	@
 1220              	.LCFI11:
 1221              		.cfi_def_cfa_offset 8
 1222              		.cfi_offset 4, -8
 1223              		.cfi_offset 14, -4
1380:FreeRTOS/queue.c **** 
1381:FreeRTOS/queue.c **** 	return xReturn;
1382:FreeRTOS/queue.c **** }
1383:FreeRTOS/queue.c **** /*-----------------------------------------------------------*/
1384:FreeRTOS/queue.c **** 
1385:FreeRTOS/queue.c **** signed portBASE_TYPE xQueueIsQueueFullFromISR( const xQueueHandle pxQueue )
1386:FreeRTOS/queue.c **** {
1387:FreeRTOS/queue.c **** signed portBASE_TYPE xReturn;
1388:FreeRTOS/queue.c **** 
1389:FreeRTOS/queue.c **** 	configASSERT( pxQueue );
1390:FreeRTOS/queue.c **** 	xReturn = ( pxQueue->uxMessagesWaiting == pxQueue->uxLength );
1391:FreeRTOS/queue.c **** 
1392:FreeRTOS/queue.c **** 	return xReturn;
1393:FreeRTOS/queue.c **** }
1394:FreeRTOS/queue.c **** /*-----------------------------------------------------------*/
1395:FreeRTOS/queue.c **** 
1396:FreeRTOS/queue.c **** #if configUSE_CO_ROUTINES == 1
1397:FreeRTOS/queue.c **** signed portBASE_TYPE xQueueCRSend( xQueueHandle pxQueue, const void *pvItemToQueue, portTickType xT
1398:FreeRTOS/queue.c **** {
1399:FreeRTOS/queue.c **** signed portBASE_TYPE xReturn;
1400:FreeRTOS/queue.c **** 
1401:FreeRTOS/queue.c **** 	/* If the queue is already full we may have to block.  A critical section
1402:FreeRTOS/queue.c **** 	is required to prevent an interrupt removing something from the queue
1403:FreeRTOS/queue.c **** 	between the check to see if the queue is full and blocking on the queue. */
1404:FreeRTOS/queue.c **** 	portDISABLE_INTERRUPTS();
1405:FreeRTOS/queue.c **** 	{
1406:FreeRTOS/queue.c **** 		if( prvIsQueueFull( pxQueue ) != pdFALSE )
1407:FreeRTOS/queue.c **** 		{
1408:FreeRTOS/queue.c **** 			/* The queue is full - do we want to block or just leave without
1409:FreeRTOS/queue.c **** 			posting? */
1410:FreeRTOS/queue.c **** 			if( xTicksToWait > ( portTickType ) 0 )
1411:FreeRTOS/queue.c **** 			{
1412:FreeRTOS/queue.c **** 				/* As this is called from a coroutine we cannot block directly, but
1413:FreeRTOS/queue.c **** 				return indicating that we need to block. */
1414:FreeRTOS/queue.c **** 				vCoRoutineAddToDelayedList( xTicksToWait, &( pxQueue->xTasksWaitingToSend ) );
ARM GAS  /tmp/cchZ2RfF.s 			page 51


1415:FreeRTOS/queue.c **** 				portENABLE_INTERRUPTS();
1416:FreeRTOS/queue.c **** 				return errQUEUE_BLOCKED;
1417:FreeRTOS/queue.c **** 			}
1418:FreeRTOS/queue.c **** 			else
1419:FreeRTOS/queue.c **** 			{
1420:FreeRTOS/queue.c **** 				portENABLE_INTERRUPTS();
1421:FreeRTOS/queue.c **** 				return errQUEUE_FULL;
1422:FreeRTOS/queue.c **** 			}
1423:FreeRTOS/queue.c **** 		}
1424:FreeRTOS/queue.c **** 	}
1425:FreeRTOS/queue.c **** 	portENABLE_INTERRUPTS();
1426:FreeRTOS/queue.c **** 
1427:FreeRTOS/queue.c **** 	portNOP();
1428:FreeRTOS/queue.c **** 
1429:FreeRTOS/queue.c **** 	portDISABLE_INTERRUPTS();
1430:FreeRTOS/queue.c **** 	{
1431:FreeRTOS/queue.c **** 		if( pxQueue->uxMessagesWaiting < pxQueue->uxLength )
1432:FreeRTOS/queue.c **** 		{
1433:FreeRTOS/queue.c **** 			/* There is room in the queue, copy the data into the queue. */
1434:FreeRTOS/queue.c **** 			prvCopyDataToQueue( pxQueue, pvItemToQueue, queueSEND_TO_BACK );
1435:FreeRTOS/queue.c **** 			xReturn = pdPASS;
1436:FreeRTOS/queue.c **** 
1437:FreeRTOS/queue.c **** 			/* Were any co-routines waiting for data to become available? */
1438:FreeRTOS/queue.c **** 			if( listLIST_IS_EMPTY( &( pxQueue->xTasksWaitingToReceive ) ) == pdFALSE )
1439:FreeRTOS/queue.c **** 			{
1440:FreeRTOS/queue.c **** 				/* In this instance the co-routine could be placed directly
1441:FreeRTOS/queue.c **** 				into the ready list as we are within a critical section.
1442:FreeRTOS/queue.c **** 				Instead the same pending ready list mechanism is used as if
1443:FreeRTOS/queue.c **** 				the event were caused from within an interrupt. */
1444:FreeRTOS/queue.c **** 				if( xCoRoutineRemoveFromEventList( &( pxQueue->xTasksWaitingToReceive ) ) != pdFALSE )
1445:FreeRTOS/queue.c **** 				{
1446:FreeRTOS/queue.c **** 					/* The co-routine waiting has a higher priority so record
1447:FreeRTOS/queue.c **** 					that a yield might be appropriate. */
1448:FreeRTOS/queue.c **** 					xReturn = errQUEUE_YIELD;
1449:FreeRTOS/queue.c **** 				}
1450:FreeRTOS/queue.c **** 			}
1451:FreeRTOS/queue.c **** 		}
1452:FreeRTOS/queue.c **** 		else
1453:FreeRTOS/queue.c **** 		{
1454:FreeRTOS/queue.c **** 			xReturn = errQUEUE_FULL;
1455:FreeRTOS/queue.c **** 		}
1456:FreeRTOS/queue.c **** 	}
1457:FreeRTOS/queue.c **** 	portENABLE_INTERRUPTS();
1458:FreeRTOS/queue.c **** 
1459:FreeRTOS/queue.c **** 	return xReturn;
1460:FreeRTOS/queue.c **** }
1461:FreeRTOS/queue.c **** #endif
1462:FreeRTOS/queue.c **** /*-----------------------------------------------------------*/
1463:FreeRTOS/queue.c **** 
1464:FreeRTOS/queue.c **** #if configUSE_CO_ROUTINES == 1
1465:FreeRTOS/queue.c **** signed portBASE_TYPE xQueueCRReceive( xQueueHandle pxQueue, void *pvBuffer, portTickType xTicksToWa
1466:FreeRTOS/queue.c **** {
1467:FreeRTOS/queue.c **** signed portBASE_TYPE xReturn;
1468:FreeRTOS/queue.c **** 
1469:FreeRTOS/queue.c **** 	/* If the queue is already empty we may have to block.  A critical section
1470:FreeRTOS/queue.c **** 	is required to prevent an interrupt adding something to the queue
1471:FreeRTOS/queue.c **** 	between the check to see if the queue is empty and blocking on the queue. */
ARM GAS  /tmp/cchZ2RfF.s 			page 52


1472:FreeRTOS/queue.c **** 	portDISABLE_INTERRUPTS();
1473:FreeRTOS/queue.c **** 	{
1474:FreeRTOS/queue.c **** 		if( pxQueue->uxMessagesWaiting == ( unsigned portBASE_TYPE ) 0 )
1475:FreeRTOS/queue.c **** 		{
1476:FreeRTOS/queue.c **** 			/* There are no messages in the queue, do we want to block or just
1477:FreeRTOS/queue.c **** 			leave with nothing? */
1478:FreeRTOS/queue.c **** 			if( xTicksToWait > ( portTickType ) 0 )
1479:FreeRTOS/queue.c **** 			{
1480:FreeRTOS/queue.c **** 				/* As this is a co-routine we cannot block directly, but return
1481:FreeRTOS/queue.c **** 				indicating that we need to block. */
1482:FreeRTOS/queue.c **** 				vCoRoutineAddToDelayedList( xTicksToWait, &( pxQueue->xTasksWaitingToReceive ) );
1483:FreeRTOS/queue.c **** 				portENABLE_INTERRUPTS();
1484:FreeRTOS/queue.c **** 				return errQUEUE_BLOCKED;
1485:FreeRTOS/queue.c **** 			}
1486:FreeRTOS/queue.c **** 			else
1487:FreeRTOS/queue.c **** 			{
1488:FreeRTOS/queue.c **** 				portENABLE_INTERRUPTS();
1489:FreeRTOS/queue.c **** 				return errQUEUE_FULL;
1490:FreeRTOS/queue.c **** 			}
1491:FreeRTOS/queue.c **** 		}
1492:FreeRTOS/queue.c **** 	}
1493:FreeRTOS/queue.c **** 	portENABLE_INTERRUPTS();
1494:FreeRTOS/queue.c **** 
1495:FreeRTOS/queue.c **** 	portNOP();
1496:FreeRTOS/queue.c **** 
1497:FreeRTOS/queue.c **** 	portDISABLE_INTERRUPTS();
1498:FreeRTOS/queue.c **** 	{
1499:FreeRTOS/queue.c **** 		if( pxQueue->uxMessagesWaiting > ( unsigned portBASE_TYPE ) 0 )
1500:FreeRTOS/queue.c **** 		{
1501:FreeRTOS/queue.c **** 			/* Data is available from the queue. */
1502:FreeRTOS/queue.c **** 			pxQueue->pcReadFrom += pxQueue->uxItemSize;
1503:FreeRTOS/queue.c **** 			if( pxQueue->pcReadFrom >= pxQueue->pcTail )
1504:FreeRTOS/queue.c **** 			{
1505:FreeRTOS/queue.c **** 				pxQueue->pcReadFrom = pxQueue->pcHead;
1506:FreeRTOS/queue.c **** 			}
1507:FreeRTOS/queue.c **** 			--( pxQueue->uxMessagesWaiting );
1508:FreeRTOS/queue.c **** 			memcpy( ( void * ) pvBuffer, ( void * ) pxQueue->pcReadFrom, ( unsigned ) pxQueue->uxItemSize );
1509:FreeRTOS/queue.c **** 
1510:FreeRTOS/queue.c **** 			xReturn = pdPASS;
1511:FreeRTOS/queue.c **** 
1512:FreeRTOS/queue.c **** 			/* Were any co-routines waiting for space to become available? */
1513:FreeRTOS/queue.c **** 			if( listLIST_IS_EMPTY( &( pxQueue->xTasksWaitingToSend ) ) == pdFALSE )
1514:FreeRTOS/queue.c **** 			{
1515:FreeRTOS/queue.c **** 				/* In this instance the co-routine could be placed directly
1516:FreeRTOS/queue.c **** 				into the ready list as we are within a critical section.
1517:FreeRTOS/queue.c **** 				Instead the same pending ready list mechanism is used as if
1518:FreeRTOS/queue.c **** 				the event were caused from within an interrupt. */
1519:FreeRTOS/queue.c **** 				if( xCoRoutineRemoveFromEventList( &( pxQueue->xTasksWaitingToSend ) ) != pdFALSE )
1520:FreeRTOS/queue.c **** 				{
1521:FreeRTOS/queue.c **** 					xReturn = errQUEUE_YIELD;
1522:FreeRTOS/queue.c **** 				}
1523:FreeRTOS/queue.c **** 			}
1524:FreeRTOS/queue.c **** 		}
1525:FreeRTOS/queue.c **** 		else
1526:FreeRTOS/queue.c **** 		{
1527:FreeRTOS/queue.c **** 			xReturn = pdFAIL;
1528:FreeRTOS/queue.c **** 		}
ARM GAS  /tmp/cchZ2RfF.s 			page 53


1529:FreeRTOS/queue.c **** 	}
1530:FreeRTOS/queue.c **** 	portENABLE_INTERRUPTS();
1531:FreeRTOS/queue.c **** 
1532:FreeRTOS/queue.c **** 	return xReturn;
1533:FreeRTOS/queue.c **** }
1534:FreeRTOS/queue.c **** #endif
1535:FreeRTOS/queue.c **** /*-----------------------------------------------------------*/
1536:FreeRTOS/queue.c **** 
1537:FreeRTOS/queue.c **** 
1538:FreeRTOS/queue.c **** 
1539:FreeRTOS/queue.c **** #if configUSE_CO_ROUTINES == 1
1540:FreeRTOS/queue.c **** signed portBASE_TYPE xQueueCRSendFromISR( xQueueHandle pxQueue, const void *pvItemToQueue, signed p
1541:FreeRTOS/queue.c **** {
1542:FreeRTOS/queue.c **** 	/* Cannot block within an ISR so if there is no space on the queue then
1543:FreeRTOS/queue.c **** 	exit without doing anything. */
1544:FreeRTOS/queue.c **** 	if( pxQueue->uxMessagesWaiting < pxQueue->uxLength )
1545:FreeRTOS/queue.c **** 	{
1546:FreeRTOS/queue.c **** 		prvCopyDataToQueue( pxQueue, pvItemToQueue, queueSEND_TO_BACK );
1547:FreeRTOS/queue.c **** 
1548:FreeRTOS/queue.c **** 		/* We only want to wake one co-routine per ISR, so check that a
1549:FreeRTOS/queue.c **** 		co-routine has not already been woken. */
1550:FreeRTOS/queue.c **** 		if( xCoRoutinePreviouslyWoken == pdFALSE )
1551:FreeRTOS/queue.c **** 		{
1552:FreeRTOS/queue.c **** 			if( listLIST_IS_EMPTY( &( pxQueue->xTasksWaitingToReceive ) ) == pdFALSE )
1553:FreeRTOS/queue.c **** 			{
1554:FreeRTOS/queue.c **** 				if( xCoRoutineRemoveFromEventList( &( pxQueue->xTasksWaitingToReceive ) ) != pdFALSE )
1555:FreeRTOS/queue.c **** 				{
1556:FreeRTOS/queue.c **** 					return pdTRUE;
1557:FreeRTOS/queue.c **** 				}
1558:FreeRTOS/queue.c **** 			}
1559:FreeRTOS/queue.c **** 		}
1560:FreeRTOS/queue.c **** 	}
1561:FreeRTOS/queue.c **** 
1562:FreeRTOS/queue.c **** 	return xCoRoutinePreviouslyWoken;
1563:FreeRTOS/queue.c **** }
1564:FreeRTOS/queue.c **** #endif
1565:FreeRTOS/queue.c **** /*-----------------------------------------------------------*/
1566:FreeRTOS/queue.c **** 
1567:FreeRTOS/queue.c **** #if configUSE_CO_ROUTINES == 1
1568:FreeRTOS/queue.c **** signed portBASE_TYPE xQueueCRReceiveFromISR( xQueueHandle pxQueue, void *pvBuffer, signed portBASE_
1569:FreeRTOS/queue.c **** {
1570:FreeRTOS/queue.c **** signed portBASE_TYPE xReturn;
1571:FreeRTOS/queue.c **** 
1572:FreeRTOS/queue.c **** 	/* We cannot block from an ISR, so check there is data available. If
1573:FreeRTOS/queue.c **** 	not then just leave without doing anything. */
1574:FreeRTOS/queue.c **** 	if( pxQueue->uxMessagesWaiting > ( unsigned portBASE_TYPE ) 0 )
1575:FreeRTOS/queue.c **** 	{
1576:FreeRTOS/queue.c **** 		/* Copy the data from the queue. */
1577:FreeRTOS/queue.c **** 		pxQueue->pcReadFrom += pxQueue->uxItemSize;
1578:FreeRTOS/queue.c **** 		if( pxQueue->pcReadFrom >= pxQueue->pcTail )
1579:FreeRTOS/queue.c **** 		{
1580:FreeRTOS/queue.c **** 			pxQueue->pcReadFrom = pxQueue->pcHead;
1581:FreeRTOS/queue.c **** 		}
1582:FreeRTOS/queue.c **** 		--( pxQueue->uxMessagesWaiting );
1583:FreeRTOS/queue.c **** 		memcpy( ( void * ) pvBuffer, ( void * ) pxQueue->pcReadFrom, ( unsigned ) pxQueue->uxItemSize );
1584:FreeRTOS/queue.c **** 
1585:FreeRTOS/queue.c **** 		if( ( *pxCoRoutineWoken ) == pdFALSE )
ARM GAS  /tmp/cchZ2RfF.s 			page 54


1586:FreeRTOS/queue.c **** 		{
1587:FreeRTOS/queue.c **** 			if( listLIST_IS_EMPTY( &( pxQueue->xTasksWaitingToSend ) ) == pdFALSE )
1588:FreeRTOS/queue.c **** 			{
1589:FreeRTOS/queue.c **** 				if( xCoRoutineRemoveFromEventList( &( pxQueue->xTasksWaitingToSend ) ) != pdFALSE )
1590:FreeRTOS/queue.c **** 				{
1591:FreeRTOS/queue.c **** 					*pxCoRoutineWoken = pdTRUE;
1592:FreeRTOS/queue.c **** 				}
1593:FreeRTOS/queue.c **** 			}
1594:FreeRTOS/queue.c **** 		}
1595:FreeRTOS/queue.c **** 
1596:FreeRTOS/queue.c **** 		xReturn = pdPASS;
1597:FreeRTOS/queue.c **** 	}
1598:FreeRTOS/queue.c **** 	else
1599:FreeRTOS/queue.c **** 	{
1600:FreeRTOS/queue.c **** 		xReturn = pdFAIL;
1601:FreeRTOS/queue.c **** 	}
1602:FreeRTOS/queue.c **** 
1603:FreeRTOS/queue.c **** 	return xReturn;
1604:FreeRTOS/queue.c **** }
1605:FreeRTOS/queue.c **** #endif
1606:FreeRTOS/queue.c **** /*-----------------------------------------------------------*/
1607:FreeRTOS/queue.c **** 
1608:FreeRTOS/queue.c **** #if configQUEUE_REGISTRY_SIZE > 0
1609:FreeRTOS/queue.c **** 
1610:FreeRTOS/queue.c **** 	void vQueueAddToRegistry( xQueueHandle xQueue, signed char *pcQueueName )
1611:FreeRTOS/queue.c **** 	{
1612:FreeRTOS/queue.c **** 	unsigned portBASE_TYPE ux;
1613:FreeRTOS/queue.c **** 
1614:FreeRTOS/queue.c **** 		/* See if there is an empty space in the registry.  A NULL name denotes
1615:FreeRTOS/queue.c **** 		a free slot. */
1616:FreeRTOS/queue.c **** 		for( ux = ( unsigned portBASE_TYPE ) 0U; ux < ( unsigned portBASE_TYPE ) configQUEUE_REGISTRY_SIZ
1617:FreeRTOS/queue.c **** 		{
1618:FreeRTOS/queue.c **** 			if( xQueueRegistry[ ux ].pcQueueName == NULL )
1619:FreeRTOS/queue.c **** 			{
1620:FreeRTOS/queue.c **** 				/* Store the information on this queue. */
1621:FreeRTOS/queue.c **** 				xQueueRegistry[ ux ].pcQueueName = pcQueueName;
1622:FreeRTOS/queue.c **** 				xQueueRegistry[ ux ].xHandle = xQueue;
1623:FreeRTOS/queue.c **** 				break;
1624:FreeRTOS/queue.c **** 			}
1625:FreeRTOS/queue.c **** 		}
1626:FreeRTOS/queue.c **** 	}
1627:FreeRTOS/queue.c **** 
1628:FreeRTOS/queue.c **** #endif
1629:FreeRTOS/queue.c **** /*-----------------------------------------------------------*/
1630:FreeRTOS/queue.c **** 
1631:FreeRTOS/queue.c **** #if configQUEUE_REGISTRY_SIZE > 0
1632:FreeRTOS/queue.c **** 
1633:FreeRTOS/queue.c **** 	static void vQueueUnregisterQueue( xQueueHandle xQueue )
1634:FreeRTOS/queue.c **** 	{
1635:FreeRTOS/queue.c **** 	unsigned portBASE_TYPE ux;
1636:FreeRTOS/queue.c **** 
1637:FreeRTOS/queue.c **** 		/* See if the handle of the queue being unregistered in actually in the
1638:FreeRTOS/queue.c **** 		registry. */
1639:FreeRTOS/queue.c **** 		for( ux = ( unsigned portBASE_TYPE ) 0U; ux < ( unsigned portBASE_TYPE ) configQUEUE_REGISTRY_SIZ
 1224              		.loc 1 1639 0
 1225 0002 0023     		movs	r3, #0	@ ux,
1194:FreeRTOS/queue.c **** {
ARM GAS  /tmp/cchZ2RfF.s 			page 55


 1226              		.loc 1 1194 0
 1227 0004 0446     		mov	r4, r0	@ pxQueue, pxQueue
 1228              	.LVL140:
 1229              	.L120:
 1230              	.LBB12:
 1231              	.LBB13:
1193:FreeRTOS/queue.c **** void vQueueDelete( xQueueHandle pxQueue )
 1232              		.loc 1 1193 0
 1233 0006 0A4A     		ldr	r2, .L122	@ tmp170,
 1234 0008 02EBC301 		add	r1, r2, r3, lsl #3	@, tmp169, tmp170, ux,
1640:FreeRTOS/queue.c **** 		{
1641:FreeRTOS/queue.c **** 			if( xQueueRegistry[ ux ].xHandle == xQueue )
 1235              		.loc 1 1641 0
 1236 000c 4868     		ldr	r0, [r1, #4]	@ MEM[base: D.7086_16, offset: 4B], MEM[base: D.7086_16, offset: 4B]
 1237 000e A042     		cmp	r0, r4	@ MEM[base: D.7086_16, offset: 4B], pxQueue
 1238 0010 03D1     		bne	.L118	@,
1642:FreeRTOS/queue.c **** 			{
1643:FreeRTOS/queue.c **** 				/* Set the name to NULL to show that this slot if free again. */
1644:FreeRTOS/queue.c **** 				xQueueRegistry[ ux ].pcQueueName = NULL;
 1239              		.loc 1 1644 0
 1240 0012 0021     		movs	r1, #0	@ tmp173,
 1241 0014 42F83310 		str	r1, [r2, r3, lsl #3]	@ tmp173, xQueueRegistry[ux_12].pcQueueName
 1242 0018 02E0     		b	.L119	@
 1243              	.L118:
1639:FreeRTOS/queue.c **** 		for( ux = ( unsigned portBASE_TYPE ) 0U; ux < ( unsigned portBASE_TYPE ) configQUEUE_REGISTRY_SIZ
 1244              		.loc 1 1639 0
 1245 001a 0133     		adds	r3, r3, #1	@ ux, ux,
 1246              	.LVL141:
 1247 001c 052B     		cmp	r3, #5	@ ux,
 1248 001e F2D1     		bne	.L120	@,
 1249              	.LVL142:
 1250              	.L119:
 1251              	.LBE13:
 1252              	.LBE12:
1199:FreeRTOS/queue.c **** 	vPortFree( pxQueue->pcHead );
 1253              		.loc 1 1199 0
 1254 0020 2068     		ldr	r0, [r4, #0]	@, pxQueue_1(D)->pcHead
 1255 0022 FFF7FEFF 		bl	vPortFree	@
 1256              	.LVL143:
1200:FreeRTOS/queue.c **** 	vPortFree( pxQueue );
 1257              		.loc 1 1200 0
 1258 0026 2046     		mov	r0, r4	@, pxQueue
1201:FreeRTOS/queue.c **** }
 1259              		.loc 1 1201 0
 1260 0028 BDE81040 		pop	{r4, lr}	@
1200:FreeRTOS/queue.c **** 	vPortFree( pxQueue );
 1261              		.loc 1 1200 0
 1262 002c FFF7FEBF 		b	vPortFree	@
 1263              	.LVL144:
 1264              	.L123:
 1265              		.align	2
 1266              	.L122:
 1267 0030 00000000 		.word	xQueueRegistry
 1268              		.cfi_endproc
 1269              	.LFE64:
 1270              		.size	vQueueDelete, .-vQueueDelete
 1271              		.section	.text.ucQueueGetQueueNumber,"ax",%progbits
ARM GAS  /tmp/cchZ2RfF.s 			page 56


 1272              		.align	1
 1273              		.global	ucQueueGetQueueNumber
 1274              		.thumb
 1275              		.thumb_func
 1276              		.type	ucQueueGetQueueNumber, %function
 1277              	ucQueueGetQueueNumber:
 1278              	.LFB65:
1207:FreeRTOS/queue.c **** 	{
 1279              		.loc 1 1207 0
 1280              		.cfi_startproc
 1281              		@ args = 0, pretend = 0, frame = 0
 1282              		@ frame_needed = 0, uses_anonymous_args = 0
 1283              		@ link register save eliminated.
 1284              	.LVL145:
1209:FreeRTOS/queue.c **** 	}
 1285              		.loc 1 1209 0
 1286 0000 90F84C00 		ldrb	r0, [r0, #76]	@ zero_extendqisi2	@, pxQueue_1(D)->ucQueueNumber
 1287              	.LVL146:
 1288 0004 7047     		bx	lr	@
 1289              		.cfi_endproc
 1290              	.LFE65:
 1291              		.size	ucQueueGetQueueNumber, .-ucQueueGetQueueNumber
 1292              		.section	.text.vQueueSetQueueNumber,"ax",%progbits
 1293              		.align	1
 1294              		.global	vQueueSetQueueNumber
 1295              		.thumb
 1296              		.thumb_func
 1297              		.type	vQueueSetQueueNumber, %function
 1298              	vQueueSetQueueNumber:
 1299              	.LFB66:
1217:FreeRTOS/queue.c **** 	{
 1300              		.loc 1 1217 0
 1301              		.cfi_startproc
 1302              		@ args = 0, pretend = 0, frame = 0
 1303              		@ frame_needed = 0, uses_anonymous_args = 0
 1304              		@ link register save eliminated.
 1305              	.LVL147:
1218:FreeRTOS/queue.c **** 		pxQueue->ucQueueNumber = ucQueueNumber;
 1306              		.loc 1 1218 0
 1307 0000 80F84C10 		strb	r1, [r0, #76]	@ ucQueueNumber, pxQueue_1(D)->ucQueueNumber
 1308 0004 7047     		bx	lr	@
 1309              		.cfi_endproc
 1310              	.LFE66:
 1311              		.size	vQueueSetQueueNumber, .-vQueueSetQueueNumber
 1312              		.section	.text.ucQueueGetQueueType,"ax",%progbits
 1313              		.align	1
 1314              		.global	ucQueueGetQueueType
 1315              		.thumb
 1316              		.thumb_func
 1317              		.type	ucQueueGetQueueType, %function
 1318              	ucQueueGetQueueType:
 1319              	.LFB67:
1227:FreeRTOS/queue.c **** 	{
 1320              		.loc 1 1227 0
 1321              		.cfi_startproc
 1322              		@ args = 0, pretend = 0, frame = 0
 1323              		@ frame_needed = 0, uses_anonymous_args = 0
ARM GAS  /tmp/cchZ2RfF.s 			page 57


 1324              		@ link register save eliminated.
 1325              	.LVL148:
1229:FreeRTOS/queue.c **** 	}
 1326              		.loc 1 1229 0
 1327 0000 90F84D00 		ldrb	r0, [r0, #77]	@ zero_extendqisi2	@, pxQueue_1(D)->ucQueueType
 1328              	.LVL149:
 1329 0004 7047     		bx	lr	@
 1330              		.cfi_endproc
 1331              	.LFE67:
 1332              		.size	ucQueueGetQueueType, .-ucQueueGetQueueType
 1333              		.section	.text.xQueueIsQueueEmptyFromISR,"ax",%progbits
 1334              		.align	1
 1335              		.global	xQueueIsQueueEmptyFromISR
 1336              		.thumb
 1337              		.thumb_func
 1338              		.type	xQueueIsQueueEmptyFromISR, %function
 1339              	xQueueIsQueueEmptyFromISR:
 1340              	.LFB72:
1363:FreeRTOS/queue.c **** {
 1341              		.loc 1 1363 0
 1342              		.cfi_startproc
 1343              		@ args = 0, pretend = 0, frame = 0
 1344              		@ frame_needed = 0, uses_anonymous_args = 0
 1345              		@ link register save eliminated.
 1346              	.LVL150:
1367:FreeRTOS/queue.c **** 	xReturn = ( pxQueue->uxMessagesWaiting == ( unsigned portBASE_TYPE ) 0 );
 1347              		.loc 1 1367 0
 1348 0000 806B     		ldr	r0, [r0, #56]	@ D.6730, pxQueue_1(D)->uxMessagesWaiting
 1349              	.LVL151:
1370:FreeRTOS/queue.c **** }
 1350              		.loc 1 1370 0
 1351 0002 D0F10100 		rsbs	r0, r0, #1	@, D.6730,
 1352              	.LVL152:
 1353 0006 38BF     		it	cc
 1354 0008 0020     		movcc	r0, #0	@,
 1355 000a 7047     		bx	lr	@
 1356              		.cfi_endproc
 1357              	.LFE72:
 1358              		.size	xQueueIsQueueEmptyFromISR, .-xQueueIsQueueEmptyFromISR
 1359              		.section	.text.xQueueIsQueueFullFromISR,"ax",%progbits
 1360              		.align	1
 1361              		.global	xQueueIsQueueFullFromISR
 1362              		.thumb
 1363              		.thumb_func
 1364              		.type	xQueueIsQueueFullFromISR, %function
 1365              	xQueueIsQueueFullFromISR:
 1366              	.LFB74:
1386:FreeRTOS/queue.c **** {
 1367              		.loc 1 1386 0
 1368              		.cfi_startproc
 1369              		@ args = 0, pretend = 0, frame = 0
 1370              		@ frame_needed = 0, uses_anonymous_args = 0
 1371              		@ link register save eliminated.
 1372              	.LVL153:
1390:FreeRTOS/queue.c **** 	xReturn = ( pxQueue->uxMessagesWaiting == pxQueue->uxLength );
 1373              		.loc 1 1390 0
 1374 0000 826B     		ldr	r2, [r0, #56]	@ D.6725, pxQueue_1(D)->uxMessagesWaiting
ARM GAS  /tmp/cchZ2RfF.s 			page 58


 1375              	.LVL154:
 1376 0002 C06B     		ldr	r0, [r0, #60]	@ pxQueue_1(D)->uxLength, pxQueue_1(D)->uxLength
 1377              	.LVL155:
1393:FreeRTOS/queue.c **** }
 1378              		.loc 1 1393 0
 1379 0004 131A     		subs	r3, r2, r0	@, D.6725, pxQueue_1(D)->uxLength
 1380 0006 5942     		rsbs	r1, r3, #0	@,,
 1381 0008 51EB0300 		adcs	r0, r1, r3	@,,
 1382              	.LVL156:
 1383 000c 7047     		bx	lr	@
 1384              		.cfi_endproc
 1385              	.LFE74:
 1386              		.size	xQueueIsQueueFullFromISR, .-xQueueIsQueueFullFromISR
 1387              		.section	.text.vQueueAddToRegistry,"ax",%progbits
 1388              		.align	1
 1389              		.global	vQueueAddToRegistry
 1390              		.thumb
 1391              		.thumb_func
 1392              		.type	vQueueAddToRegistry, %function
 1393              	vQueueAddToRegistry:
 1394              	.LFB75:
1611:FreeRTOS/queue.c **** 	{
 1395              		.loc 1 1611 0
 1396              		.cfi_startproc
 1397              		@ args = 0, pretend = 0, frame = 0
 1398              		@ frame_needed = 0, uses_anonymous_args = 0
 1399              	.LVL157:
 1400 0000 30B5     		push	{r4, r5, lr}	@
 1401              	.LCFI12:
 1402              		.cfi_def_cfa_offset 12
 1403              		.cfi_offset 4, -12
 1404              		.cfi_offset 5, -8
 1405              		.cfi_offset 14, -4
1616:FreeRTOS/queue.c **** 		for( ux = ( unsigned portBASE_TYPE ) 0U; ux < ( unsigned portBASE_TYPE ) configQUEUE_REGISTRY_SIZ
 1406              		.loc 1 1616 0
 1407 0002 0023     		movs	r3, #0	@ ux,
 1408              	.LVL158:
 1409              	.L132:
1618:FreeRTOS/queue.c **** 			if( xQueueRegistry[ ux ].pcQueueName == NULL )
 1410              		.loc 1 1618 0
 1411 0004 064A     		ldr	r2, .L134	@ tmp141,
 1412 0006 52F83340 		ldr	r4, [r2, r3, lsl #3]	@ MEM[symbol: xQueueRegistry, index: D.7108_14, offset: 0B], MEM[symbol: 
 1413 000a 02EBC305 		add	r5, r2, r3, lsl #3	@, tmp140, tmp141, ux,
 1414 000e 1CB9     		cbnz	r4, .L130	@ MEM[symbol: xQueueRegistry, index: D.7108_14, offset: 0B],
1621:FreeRTOS/queue.c **** 				xQueueRegistry[ ux ].pcQueueName = pcQueueName;
 1415              		.loc 1 1621 0
 1416 0010 42F83310 		str	r1, [r2, r3, lsl #3]	@ pcQueueName, xQueueRegistry[ux_11].pcQueueName
1622:FreeRTOS/queue.c **** 				xQueueRegistry[ ux ].xHandle = xQueue;
 1417              		.loc 1 1622 0
 1418 0014 6860     		str	r0, [r5, #4]	@ xQueue, xQueueRegistry[ux_11].xHandle
1623:FreeRTOS/queue.c **** 				break;
 1419              		.loc 1 1623 0
 1420 0016 30BD     		pop	{r4, r5, pc}	@
 1421              	.L130:
1616:FreeRTOS/queue.c **** 		for( ux = ( unsigned portBASE_TYPE ) 0U; ux < ( unsigned portBASE_TYPE ) configQUEUE_REGISTRY_SIZ
 1422              		.loc 1 1616 0
 1423 0018 0133     		adds	r3, r3, #1	@ ux, ux,
ARM GAS  /tmp/cchZ2RfF.s 			page 59


 1424              	.LVL159:
 1425 001a 052B     		cmp	r3, #5	@ ux,
 1426 001c F2D1     		bne	.L132	@,
 1427 001e 30BD     		pop	{r4, r5, pc}	@
 1428              	.L135:
 1429              		.align	2
 1430              	.L134:
 1431 0020 00000000 		.word	xQueueRegistry
 1432              		.cfi_endproc
 1433              	.LFE75:
 1434              		.size	vQueueAddToRegistry, .-vQueueAddToRegistry
 1435              		.comm	xQueueRegistry,40,4
 1436              		.text
 1437              	.Letext0:
 1438              		.file 2 "/home/maciek/gcc-arm-none-eabi/gcc-arm-none-eabi-4_7-2013q1/bin/../lib/gcc/arm-none-eabi/
 1439              		.file 3 "/home/maciek/gcc-arm-none-eabi/gcc-arm-none-eabi-4_7-2013q1/bin/../lib/gcc/arm-none-eabi/
 1440              		.file 4 "FreeRTOS/portable/GCC/ARM_CM3/portmacro.h"
 1441              		.file 5 "FreeRTOS/include/list.h"
 1442              		.file 6 "FreeRTOS/include/task.h"
 1443              		.file 7 "inc/core_cm3.h"
 1444              		.file 8 "FreeRTOS/include/portable.h"