ARM GAS  /tmp/ccWo43i3.s 			page 1


   1              		.syntax unified
   2              		.cpu cortex-m3
   3              		.fpu softvfp
   4              		.eabi_attribute 20, 1	@ Tag_ABI_FP_denormal
   5              		.eabi_attribute 21, 1	@ Tag_ABI_FP_exceptions
   6              		.eabi_attribute 23, 3	@ Tag_ABI_FP_number_model
   7              		.eabi_attribute 24, 1	@ Tag_ABI_align8_needed
   8              		.eabi_attribute 25, 1	@ Tag_ABI_align8_preserved
   9              		.eabi_attribute 26, 1	@ Tag_ABI_enum_size
  10              		.eabi_attribute 30, 4	@ Tag_ABI_optimization_goals
  11              		.eabi_attribute 34, 1	@ Tag_CPU_unaligned_access
  12              		.eabi_attribute 18, 4	@ Tag_ABI_PCS_wchar_t
  13              		.file	"rcc.cpp"
  14              	@ GNU C++ (GNU Tools for ARM Embedded Processors) version 4.7.3 20130312 (release) [ARM/embedded-4_
  15              	@	compiled by GNU C version 4.3.6, GMP version 4.3.2, MPFR version 2.4.2, MPC version 0.8.1
  16              	@ GGC heuristics: --param ggc-min-expand=100 --param ggc-min-heapsize=131072
  17              	@ options passed:  -I . -I inc -I FreeRTOS/include
  18              	@ -I FreeRTOS/portable/GCC/ARM_CM3 -I FatFS -I peripherals
  19              	@ -imultilib armv7-m
  20              	@ -iprefix /home/maciek/gcc-arm-none-eabi/gcc-arm-none-eabi-4_7-2013q1/bin/../lib/gcc/arm-none-eabi
  21              	@ -isysroot /home/maciek/gcc-arm-none-eabi/gcc-arm-none-eabi-4_7-2013q1/bin/../arm-none-eabi
  22              	@ -MD out/rcc.d -MF out/rcc.d -MP -MQ out/rcc.o -D__USES_INITFINI__
  23              	@ -D STM32L1XX_MD peripherals/rcc.cpp -mcpu=cortex-m3 -mthumb
  24              	@ -auxbase-strip out/rcc.o -g -ggdb3 -Os -Wall -Wextra -std=gnu++11
  25              	@ -ffunction-sections -fdata-sections -fno-rtti -fno-exceptions
  26              	@ -fverbose-asm
  27              	@ options enabled:  -fauto-inc-dec -fbranch-count-reg -fcaller-saves
  28              	@ -fcombine-stack-adjustments -fcommon -fcompare-elim -fcprop-registers
  29              	@ -fcrossjumping -fcse-follow-jumps -fdata-sections -fdebug-types-section
  30              	@ -fdefer-pop -fdelete-null-pointer-checks -fdevirtualize -fdwarf2-cfi-asm
  31              	@ -fearly-inlining -feliminate-unused-debug-types -fexpensive-optimizations
  32              	@ -fforward-propagate -ffunction-cse -ffunction-sections -fgcse -fgcse-lm
  33              	@ -fgnu-runtime -fguess-branch-probability -fident -fif-conversion
  34              	@ -fif-conversion2 -findirect-inlining -finline -finline-atomics
  35              	@ -finline-functions -finline-functions-called-once
  36              	@ -finline-small-functions -fipa-cp -fipa-profile -fipa-pure-const
  37              	@ -fipa-reference -fipa-sra -fira-share-save-slots -fira-share-spill-slots
  38              	@ -fivopts -fkeep-static-consts -fleading-underscore -fmath-errno
  39              	@ -fmerge-constants -fmerge-debug-strings -fomit-frame-pointer
  40              	@ -foptimize-register-move -foptimize-sibling-calls -fpartial-inlining
  41              	@ -fpeephole -fpeephole2 -fprefetch-loop-arrays -freg-struct-return
  42              	@ -fregmove -frename-registers -freorder-blocks -freorder-functions
  43              	@ -frerun-cse-after-loop -fsched-critical-path-heuristic
  44              	@ -fsched-dep-count-heuristic -fsched-group-heuristic -fsched-interblock
  45              	@ -fsched-last-insn-heuristic -fsched-rank-heuristic -fsched-spec
  46              	@ -fsched-spec-insn-heuristic -fsched-stalled-insns-dep -fschedule-insns2
  47              	@ -fsection-anchors -fshow-column -fshrink-wrap -fsigned-zeros
  48              	@ -fsplit-ivs-in-unroller -fsplit-wide-types -fstrict-aliasing
  49              	@ -fstrict-overflow -fstrict-volatile-bitfields -fthread-jumps
  50              	@ -ftoplevel-reorder -ftrapping-math -ftree-bit-ccp -ftree-builtin-call-dce
  51              	@ -ftree-ccp -ftree-ch -ftree-copy-prop -ftree-copyrename -ftree-cselim
  52              	@ -ftree-dce -ftree-dominator-opts -ftree-dse -ftree-forwprop -ftree-fre
  53              	@ -ftree-loop-if-convert -ftree-loop-im -ftree-loop-ivcanon
  54              	@ -ftree-loop-optimize -ftree-parallelize-loops= -ftree-phiprop -ftree-pre
  55              	@ -ftree-pta -ftree-reassoc -ftree-scev-cprop -ftree-sink
  56              	@ -ftree-slp-vectorize -ftree-sra -ftree-switch-conversion
  57              	@ -ftree-tail-merge -ftree-ter -ftree-vect-loop-version -ftree-vrp
ARM GAS  /tmp/ccWo43i3.s 			page 2


  58              	@ -funit-at-a-time -funroll-loops -fvar-tracking -fvar-tracking-assignments
  59              	@ -fverbose-asm -fweb -fzero-initialized-in-bss -mfix-cortex-m3-ldrd
  60              	@ -mlittle-endian -msched-prolog -mthumb -munaligned-access
  61              	@ -mvectorize-with-neon-quad
  62              	
  63              		.text
  64              	.Ltext0:
  65              		.cfi_sections	.debug_frame
  66              		.section	.text.rccGetCoreFrequency,"ax",%progbits
  67              		.align	1
  68              		.global	rccGetCoreFrequency
  69              		.thumb
  70              		.thumb_func
  71              		.type	rccGetCoreFrequency, %function
  72              	rccGetCoreFrequency:
  73              	.LFB55:
  74              		.file 1 "peripherals/rcc.cpp"
   1:peripherals/rcc.cpp **** /**
   2:peripherals/rcc.cpp ****  * \file rcc.cpp
   3:peripherals/rcc.cpp ****  * \brief RCC driver.
   4:peripherals/rcc.cpp ****  *
   5:peripherals/rcc.cpp ****  * RCC default configuration and function for configuring a pin
   6:peripherals/rcc.cpp ****  *
   7:peripherals/rcc.cpp ****  * chip: STM32L1xx; prefix: rcc
   8:peripherals/rcc.cpp ****  *
   9:peripherals/rcc.cpp ****  * \author grochu
  10:peripherals/rcc.cpp ****  * \date 2012-08-30
  11:peripherals/rcc.cpp ****  */
  12:peripherals/rcc.cpp **** 
  13:peripherals/rcc.cpp **** #include <stdint.h>
  14:peripherals/rcc.cpp **** 
  15:peripherals/rcc.cpp **** #include "stm32l1xx.h"
  16:peripherals/rcc.cpp **** 
  17:peripherals/rcc.cpp **** #include "hdr/hdr_rcc.h"
  18:peripherals/rcc.cpp **** #include "hdr/hdr_bitband.h"
  19:peripherals/rcc.cpp **** 
  20:peripherals/rcc.cpp **** #include "config.h"
  21:peripherals/rcc.cpp **** 
  22:peripherals/rcc.cpp **** #include "rcc.h"
  23:peripherals/rcc.cpp **** 
  24:peripherals/rcc.cpp **** /*-------------------------------------------------------------------------------------------------
  25:peripherals/rcc.cpp **** | local functions' declarations
  26:peripherals/rcc.cpp **** +--------------------------------------------------------------------------------------------------
  27:peripherals/rcc.cpp **** 
  28:peripherals/rcc.cpp **** static void _flashLatency(uint32_t frequency);
  29:peripherals/rcc.cpp **** 
  30:peripherals/rcc.cpp **** /*-------------------------------------------------------------------------------------------------
  31:peripherals/rcc.cpp **** | local variables
  32:peripherals/rcc.cpp **** +--------------------------------------------------------------------------------------------------
  33:peripherals/rcc.cpp **** 
  34:peripherals/rcc.cpp **** static uint32_t _coreFrequency = 2097000;	///< frequency of the core
  35:peripherals/rcc.cpp **** 
  36:peripherals/rcc.cpp **** /*-------------------------------------------------------------------------------------------------
  37:peripherals/rcc.cpp **** | global functions
  38:peripherals/rcc.cpp **** +--------------------------------------------------------------------------------------------------
  39:peripherals/rcc.cpp **** 
  40:peripherals/rcc.cpp **** /**
ARM GAS  /tmp/ccWo43i3.s 			page 3


  41:peripherals/rcc.cpp ****  * \brief Returns current core frequency in Hz.
  42:peripherals/rcc.cpp ****  *
  43:peripherals/rcc.cpp ****  * Returns current core frequency in Hz.
  44:peripherals/rcc.cpp ****  *
  45:peripherals/rcc.cpp ****  * \return current core frequency in Hz
  46:peripherals/rcc.cpp ****  */
  47:peripherals/rcc.cpp **** 
  48:peripherals/rcc.cpp **** uint32_t rccGetCoreFrequency(void)
  49:peripherals/rcc.cpp **** {
  75              		.loc 1 49 0
  76              		.cfi_startproc
  77              		@ args = 0, pretend = 0, frame = 0
  78              		@ frame_needed = 0, uses_anonymous_args = 0
  79              		@ link register save eliminated.
  50:peripherals/rcc.cpp **** 	return _coreFrequency;
  51:peripherals/rcc.cpp **** }
  80              		.loc 1 51 0
  81 0000 014B     		ldr	r3, .L2	@ tmp137,
  82 0002 1868     		ldr	r0, [r3, #0]	@, _coreFrequency
  83 0004 7047     		bx	lr	@
  84              	.L3:
  85 0006 00BF     		.align	2
  86              	.L2:
  87 0008 00000000 		.word	.LANCHOR0
  88              		.cfi_endproc
  89              	.LFE55:
  90              		.size	rccGetCoreFrequency, .-rccGetCoreFrequency
  91              		.section	.text._Z11rccStartPll11rccPllInputmm,"ax",%progbits
  92              		.align	1
  93              		.global	_Z11rccStartPll11rccPllInputmm
  94              		.thumb
  95              		.thumb_func
  96              		.type	_Z11rccStartPll11rccPllInputmm, %function
  97              	_Z11rccStartPll11rccPllInputmm:
  98              	.LFB56:
  52:peripherals/rcc.cpp **** 
  53:peripherals/rcc.cpp **** /**
  54:peripherals/rcc.cpp ****  * \brief Starts the PLL
  55:peripherals/rcc.cpp ****  *
  56:peripherals/rcc.cpp ****  * Configures and enables PLL to achieve some frequency with some input frequency. The clock source
  57:peripherals/rcc.cpp ****  * running! Before the speed change Flash latency is configured via _flashLatency(). PLL parameters
  58:peripherals/rcc.cpp ****  * function parameters. The PLL is set up, started and connected. Clock ratios are set to 1:1 for A
  59:peripherals/rcc.cpp ****  *
  60:peripherals/rcc.cpp ****  * \param [in] pll_input selects the source of PLL input clock, allowed values {RCC_PLL_INPUT_HSI, 
  61:peripherals/rcc.cpp ****  * \param [in] input_frequency is the input frequency for the PLL in Hz
  62:peripherals/rcc.cpp ****  * \param [in] otput_frequency is the desired target frequency after enabling the PLL
  63:peripherals/rcc.cpp ****  *
  64:peripherals/rcc.cpp ****  * \return real frequency that was set
  65:peripherals/rcc.cpp ****  */
  66:peripherals/rcc.cpp **** 
  67:peripherals/rcc.cpp **** uint32_t rccStartPll(enum rccPllInput pll_input, uint32_t input_frequency, uint32_t output_frequenc
  68:peripherals/rcc.cpp **** {
  99              		.loc 1 68 0
 100              		.cfi_startproc
 101              		@ args = 0, pretend = 0, frame = 0
 102              		@ frame_needed = 0, uses_anonymous_args = 0
 103              	.LVL0:
ARM GAS  /tmp/ccWo43i3.s 			page 4


 104 0000 2DE9F041 		push	{r4, r5, r6, r7, r8, lr}	@
 105              	.LCFI0:
 106              		.cfi_def_cfa_offset 24
 107              		.cfi_offset 4, -24
 108              		.cfi_offset 5, -20
 109              		.cfi_offset 6, -16
 110              		.cfi_offset 7, -12
 111              		.cfi_offset 8, -8
 112              		.cfi_offset 14, -4
  69:peripherals/rcc.cpp **** #if DEVICE_VCORE_mV == 1800
  70:peripherals/rcc.cpp **** 	static const uint32_t pllvco_max = 96000000;
  71:peripherals/rcc.cpp **** #elif DEVICE_VCORE_mV == 1500
  72:peripherals/rcc.cpp **** 	static const uint32_t pllvco_max = 48000000;
  73:peripherals/rcc.cpp **** #elif DEVICE_VCORE_mV == 1200
  74:peripherals/rcc.cpp **** 	static const uint32_t pllvco_max = 24000000;
  75:peripherals/rcc.cpp **** #else
  76:peripherals/rcc.cpp **** 	#error "Invalid value of DEVICE_VCORE_mV!"
  77:peripherals/rcc.cpp **** #endif
  78:peripherals/rcc.cpp **** 
  79:peripherals/rcc.cpp **** 	static const uint8_t muls[] = {3, 4, 6, 8, 12, 16, 24, 32, 48};	// allowed values of PLL multiplie
  80:peripherals/rcc.cpp **** 	uint32_t mul_i;
  81:peripherals/rcc.cpp **** 	uint32_t best_frequency = 0, best_mul_i = 0, best_div = 0;
 113              		.loc 1 81 0
 114 0004 0024     		movs	r4, #0	@ best_div,
 115 0006 A446     		mov	ip, r4	@ best_mul_i, best_div
 116 0008 2346     		mov	r3, r4	@ best_frequency, best_div
  82:peripherals/rcc.cpp **** 
  83:peripherals/rcc.cpp **** 	for (mul_i = 0; mul_i < sizeof (muls) / sizeof (muls[0]); mul_i++)	// loop through all multipliers
 117              		.loc 1 83 0
 118 000a 2546     		mov	r5, r4	@ mul_i, best_div
 119              	.LVL1:
 120              	.L9:
 121              	.LBB10:
 122              	.LBB11:
 123              	.LBB12:
  84:peripherals/rcc.cpp **** 	{
  85:peripherals/rcc.cpp **** 		uint32_t pllvco = input_frequency * muls[mul_i];
 124              		.loc 1 85 0
 125 000c 264E     		ldr	r6, .L21	@ tmp228,
 126 000e 15F80680 		ldrb	r8, [r5, r6]	@ zero_extendqisi2	@ MEM[symbol: muls, index: mul_i_78, offset: 0B], MEM[symbol:
  86:peripherals/rcc.cpp **** 
  87:peripherals/rcc.cpp **** 		if (pllvco > pllvco_max)			// internal PLL frequency out of valid range?
 127              		.loc 1 87 0
 128 0012 264E     		ldr	r6, .L21+4	@ tmp230,
  85:peripherals/rcc.cpp **** 		uint32_t pllvco = input_frequency * muls[mul_i];
 129              		.loc 1 85 0
 130 0014 01FB08F8 		mul	r8, r1, r8	@ pllvco, input_frequency, MEM[symbol: muls, index: mul_i_78, offset: 0B]
 131              	.LVL2:
 132              		.loc 1 87 0
 133 0018 B045     		cmp	r8, r6	@ pllvco, tmp230
 134 001a 10D8     		bhi	.L5	@,
 135 001c 0226     		movs	r6, #2	@ div,
 136              	.L8:
 137              	.LBB13:
 138              	.LBB14:
  88:peripherals/rcc.cpp **** 			continue;
  89:peripherals/rcc.cpp **** 
ARM GAS  /tmp/ccWo43i3.s 			page 5


  90:peripherals/rcc.cpp **** 		uint32_t div;
  91:peripherals/rcc.cpp **** 
  92:peripherals/rcc.cpp **** 		for (div = 2; div <= 4; div++)		// loop through all dividers
  93:peripherals/rcc.cpp **** 		{
  94:peripherals/rcc.cpp **** 			uint32_t frequency = pllvco / div;
 139              		.loc 1 94 0
 140 001e B8FBF6F7 		udiv	r7, r8, r6	@ frequency, pllvco, div
 141              	.LVL3:
  95:peripherals/rcc.cpp **** 
  96:peripherals/rcc.cpp **** 			if (frequency > output_frequency)	// resulting frequency too high?
 142              		.loc 1 96 0
 143 0022 9742     		cmp	r7, r2	@ frequency, output_frequency
 144 0024 06D8     		bhi	.L6	@,
  97:peripherals/rcc.cpp **** 				continue;
  98:peripherals/rcc.cpp **** 
  99:peripherals/rcc.cpp **** 			if (frequency > best_frequency)	// is this configuration better than previously found?
 145              		.loc 1 99 0
 146 0026 9F42     		cmp	r7, r3	@ frequency, best_frequency
 147 0028 04D9     		bls	.L6	@,
 148              	.LVL4:
 100:peripherals/rcc.cpp **** 			{
 101:peripherals/rcc.cpp **** 				best_frequency = frequency;	// yes - store values
 102:peripherals/rcc.cpp **** 				best_mul_i = mul_i;
 103:peripherals/rcc.cpp **** 				best_div = div;
 104:peripherals/rcc.cpp **** 
 105:peripherals/rcc.cpp **** 				if (best_frequency == output_frequency)	// is this a perfect match?
 149              		.loc 1 105 0
 150 002a 9742     		cmp	r7, r2	@ frequency, output_frequency
 151 002c 3446     		mov	r4, r6	@ best_div, div
 152 002e AC46     		mov	ip, r5	@ best_mul_i, mul_i
 153 0030 09D0     		beq	.L12	@,
 154 0032 3B46     		mov	r3, r7	@ best_frequency, frequency
 155              	.LVL5:
 156              	.L6:
 157              	.LBE14:
  92:peripherals/rcc.cpp **** 		for (div = 2; div <= 4; div++)		// loop through all dividers
 158              		.loc 1 92 0
 159 0034 0136     		adds	r6, r6, #1	@ div, div,
 160              	.LVL6:
 161 0036 052E     		cmp	r6, #5	@ div,
 162 0038 F1D1     		bne	.L8	@,
 163              	.LBE13:
 106:peripherals/rcc.cpp **** 					break;
 107:peripherals/rcc.cpp **** 			}
 108:peripherals/rcc.cpp **** 		}
 109:peripherals/rcc.cpp **** 
 110:peripherals/rcc.cpp **** 		if (best_frequency == output_frequency)	// is this a perfect match?
 164              		.loc 1 110 0
 165 003a 9342     		cmp	r3, r2	@ best_frequency, output_frequency
 166 003c 04D0     		beq	.L7	@,
 167              	.LVL7:
 168              	.L5:
 169              	.LBE12:
  83:peripherals/rcc.cpp **** 	for (mul_i = 0; mul_i < sizeof (muls) / sizeof (muls[0]); mul_i++)	// loop through all multipliers
 170              		.loc 1 83 0
 171 003e 0135     		adds	r5, r5, #1	@ mul_i, mul_i,
 172              	.LVL8:
ARM GAS  /tmp/ccWo43i3.s 			page 6


 173 0040 092D     		cmp	r5, #9	@ mul_i,
 174 0042 E3D1     		bne	.L9	@,
 175 0044 00E0     		b	.L7	@
 176              	.LVL9:
 177              	.L12:
 178              	.LBB17:
 179              	.LBB16:
 180              	.LBB15:
  94:peripherals/rcc.cpp **** 			uint32_t frequency = pllvco / div;
 181              		.loc 1 94 0
 182 0046 1346     		mov	r3, r2	@ best_frequency, output_frequency
 183              	.LVL10:
 184              	.L7:
 185              	.LBE15:
 186              	.LBE16:
 187              	.LBE17:
 188              	.LBE11:
 189              	.LBB18:
 190              	.LBB19:
 111:peripherals/rcc.cpp **** 			break;
 112:peripherals/rcc.cpp **** 	}
 113:peripherals/rcc.cpp **** 
 114:peripherals/rcc.cpp **** 	_flashLatency(best_frequency);			// configure flash latency using found frequency
 115:peripherals/rcc.cpp **** 
 116:peripherals/rcc.cpp **** 	RCC->CFGR = ((best_div - 1) << RCC_CFGR_PLLDIV_bit) | (best_mul_i << RCC_CFGR_PLLMUL_bit) |
 117:peripherals/rcc.cpp **** 			(pll_input << RCC_CFGR_PLLSRC_bit);	// set PLL
 118:peripherals/rcc.cpp **** 
 119:peripherals/rcc.cpp **** 	RCC_CR_PLLON_bb = 1;					// enable PLL and wait for stabilization
 120:peripherals/rcc.cpp **** 	while (RCC_CR_PLLRDY_bb == 0);
 121:peripherals/rcc.cpp **** 
 122:peripherals/rcc.cpp **** 	RCC->CFGR |= RCC_CFGR_SW_PLL;			// change SYSCLK to PLL
 123:peripherals/rcc.cpp **** 	while (((RCC->CFGR) & RCC_CFGR_SWS) != RCC_CFGR_SWS_PLL);	// wait for switch
 124:peripherals/rcc.cpp **** 
 125:peripherals/rcc.cpp **** 	_coreFrequency = best_frequency;
 126:peripherals/rcc.cpp **** 
 127:peripherals/rcc.cpp **** 	return best_frequency;
 128:peripherals/rcc.cpp **** }
 129:peripherals/rcc.cpp **** 
 130:peripherals/rcc.cpp **** /*-------------------------------------------------------------------------------------------------
 131:peripherals/rcc.cpp **** | local functions
 132:peripherals/rcc.cpp **** +--------------------------------------------------------------------------------------------------
 133:peripherals/rcc.cpp **** 
 134:peripherals/rcc.cpp **** /**
 135:peripherals/rcc.cpp ****  * \brief Configures Flash latency.
 136:peripherals/rcc.cpp ****  *
 137:peripherals/rcc.cpp ****  * Configures Flash latency (wait-states) which allows the chip to run at higher speeds.
 138:peripherals/rcc.cpp ****  *
 139:peripherals/rcc.cpp ****  * \param [in] frequency defines the target frequency of the core
 140:peripherals/rcc.cpp ****  */
 141:peripherals/rcc.cpp **** 
 142:peripherals/rcc.cpp **** static void _flashLatency(uint32_t frequency)
 143:peripherals/rcc.cpp **** {
 144:peripherals/rcc.cpp **** #if DEVICE_VCORE_mV == 1800
 145:peripherals/rcc.cpp **** 
 146:peripherals/rcc.cpp **** 	uint32_t wait_states;
 147:peripherals/rcc.cpp **** 
 148:peripherals/rcc.cpp **** 	if (frequency > 16000000)
ARM GAS  /tmp/ccWo43i3.s 			page 7


 149:peripherals/rcc.cpp **** 		wait_states = 1;
 150:peripherals/rcc.cpp **** 	else
 151:peripherals/rcc.cpp **** 		wait_states = 0;
 152:peripherals/rcc.cpp **** 
 153:peripherals/rcc.cpp ****     FLASH->ACR |= FLASH_ACR_ACC64;
 191              		.loc 1 153 0
 192 0048 194A     		ldr	r2, .L21+8	@ tmp231,
 193              	.LVL11:
 194              	.LBE19:
 195              	.LBE18:
 117:peripherals/rcc.cpp **** 			(pll_input << RCC_CFGR_PLLSRC_bit);	// set PLL
 196              		.loc 1 117 0
 197 004a 0004     		lsls	r0, r0, #16	@ tmp241, pll_input,
 198              	.LVL12:
 199              	.LBB24:
 200              	.LBB20:
 201              		.loc 1 153 0
 202 004c 1168     		ldr	r1, [r2, #0]	@ D.5461, MEM[(struct FLASH_TypeDef *)1073888256B].ACR
 203              	.LVL13:
 204              	.LBE20:
 205              	.LBE24:
 117:peripherals/rcc.cpp **** 			(pll_input << RCC_CFGR_PLLSRC_bit);	// set PLL
 206              		.loc 1 117 0
 207 004e 40EA8C4C 		orr	ip, r0, ip, lsl #18	@, tmp242, tmp241, best_mul_i,
 208              	.LVL14:
 209              	.LBB25:
 210              	.LBB21:
 211              		.loc 1 153 0
 212 0052 41F00405 		orr	r5, r1, #4	@ D.5460, D.5461,
 213 0056 1560     		str	r5, [r2, #0]	@ D.5460, MEM[(struct FLASH_TypeDef *)1073888256B].ACR
 154:peripherals/rcc.cpp ****     FLASH->ACR = (FLASH->ACR & (~FLASH_ACR_LATENCY)) | FLASH_ACR_PRFTEN | wait_states;
 214              		.loc 1 154 0
 215 0058 1168     		ldr	r1, [r2, #0]	@ D.5459, MEM[(struct FLASH_TypeDef *)1073888256B].ACR
 216              	.LBE21:
 217              	.LBE25:
 117:peripherals/rcc.cpp **** 			(pll_input << RCC_CFGR_PLLSRC_bit);	// set PLL
 218              		.loc 1 117 0
 219 005a 013C     		subs	r4, r4, #1	@ tmp243, best_div,
 220              	.LVL15:
 221              	.LBB26:
 222              	.LBB22:
 223              		.loc 1 154 0
 224 005c 21F00305 		bic	r5, r1, #3	@ tmp234, D.5459,
 225 0060 45F00201 		orr	r1, r5, #2	@ tmp235, tmp234,
 226 0064 134D     		ldr	r5, .L21+12	@ tmp238,
 227              	.LBE22:
 228              	.LBE26:
 117:peripherals/rcc.cpp **** 			(pll_input << RCC_CFGR_PLLSRC_bit);	// set PLL
 229              		.loc 1 117 0
 230 0066 4CEA8454 		orr	r4, ip, r4, lsl #22	@, D.5416, tmp242, tmp243,
 231              	.LVL16:
 232              	.LBB27:
 233              	.LBB23:
 234              		.loc 1 154 0
 235 006a AB42     		cmp	r3, r5	@ best_frequency, tmp238
 236 006c 88BF     		it	hi	@
 237 006e 41F00101 		orrhi	r1, r1, #1	@,, D.5456, tmp235
ARM GAS  /tmp/ccWo43i3.s 			page 8


 238 0072 1160     		str	r1, [r2, #0]	@ D.5456, MEM[(struct FLASH_TypeDef *)1073888256B].ACR
 239              	.LBE23:
 240              	.LBE27:
 119:peripherals/rcc.cpp **** 	RCC_CR_PLLON_bb = 1;					// enable PLL and wait for stabilization
 241              		.loc 1 119 0
 242 0074 1049     		ldr	r1, .L21+16	@ tmp246,
 117:peripherals/rcc.cpp **** 			(pll_input << RCC_CFGR_PLLSRC_bit);	// set PLL
 243              		.loc 1 117 0
 244 0076 A2F58062 		sub	r2, r2, #1024	@ tmp245, tmp245,
 119:peripherals/rcc.cpp **** 	RCC_CR_PLLON_bb = 1;					// enable PLL and wait for stabilization
 245              		.loc 1 119 0
 246 007a 0120     		movs	r0, #1	@ tmp247,
 117:peripherals/rcc.cpp **** 			(pll_input << RCC_CFGR_PLLSRC_bit);	// set PLL
 247              		.loc 1 117 0
 248 007c 9460     		str	r4, [r2, #8]	@ D.5416, MEM[(struct RCC_TypeDef *)1073887232B].CFGR
 119:peripherals/rcc.cpp **** 	RCC_CR_PLLON_bb = 1;					// enable PLL and wait for stabilization
 249              		.loc 1 119 0
 250 007e 0860     		str	r0, [r1, #0]	@ tmp247, MEM[(volatile long unsigned int *)1111949408B]
 251              	.L10:
 120:peripherals/rcc.cpp **** 	while (RCC_CR_PLLRDY_bb == 0);
 252              		.loc 1 120 0 discriminator 1
 253 0080 0E48     		ldr	r0, .L21+20	@ tmp248,
 254 0082 0168     		ldr	r1, [r0, #0]	@ D.5423, MEM[(volatile long unsigned int *)1111949412B]
 255 0084 0029     		cmp	r1, #0	@ D.5423
 256 0086 FBD0     		beq	.L10	@
 122:peripherals/rcc.cpp **** 	RCC->CFGR |= RCC_CFGR_SW_PLL;			// change SYSCLK to PLL
 257              		.loc 1 122 0
 258 0088 9068     		ldr	r0, [r2, #8]	@ D.5424, MEM[(struct RCC_TypeDef *)1073887232B].CFGR
 259 008a 40F00301 		orr	r1, r0, #3	@ D.5425, D.5424,
 260 008e 9160     		str	r1, [r2, #8]	@ D.5425, MEM[(struct RCC_TypeDef *)1073887232B].CFGR
 261              	.L11:
 123:peripherals/rcc.cpp **** 	while (((RCC->CFGR) & RCC_CFGR_SWS) != RCC_CFGR_SWS_PLL);	// wait for switch
 262              		.loc 1 123 0 discriminator 1
 263 0090 0B4A     		ldr	r2, .L21+24	@ tmp251,
 264 0092 9068     		ldr	r0, [r2, #8]	@ D.5430, MEM[(struct RCC_TypeDef *)1073887232B].CFGR
 265 0094 00F00C01 		and	r1, r0, #12	@ tmp252, D.5430,
 266 0098 0C29     		cmp	r1, #12	@ tmp252,
 267 009a F9D1     		bne	.L11	@,
 125:peripherals/rcc.cpp **** 	_coreFrequency = best_frequency;
 268              		.loc 1 125 0
 269 009c 094A     		ldr	r2, .L21+28	@ tmp253,
 270              	.LBE10:
 128:peripherals/rcc.cpp **** }
 271              		.loc 1 128 0
 272 009e 1846     		mov	r0, r3	@, best_frequency
 273              	.LBB28:
 125:peripherals/rcc.cpp **** 	_coreFrequency = best_frequency;
 274              		.loc 1 125 0
 275 00a0 1360     		str	r3, [r2, #0]	@ best_frequency, _coreFrequency
 276              	.LBE28:
 128:peripherals/rcc.cpp **** }
 277              		.loc 1 128 0
 278 00a2 BDE8F081 		pop	{r4, r5, r6, r7, r8, pc}	@
 279              	.L22:
 280 00a6 00BF     		.align	2
 281              	.L21:
 282 00a8 00000000 		.word	.LANCHOR1
ARM GAS  /tmp/ccWo43i3.s 			page 9


 283 00ac 00D8B805 		.word	96000000
 284 00b0 003C0240 		.word	1073888256
 285 00b4 0024F400 		.word	16000000
 286 00b8 60004742 		.word	1111949408
 287 00bc 64004742 		.word	1111949412
 288 00c0 00380240 		.word	1073887232
 289 00c4 00000000 		.word	.LANCHOR0
 290              		.cfi_endproc
 291              	.LFE56:
 292              		.size	_Z11rccStartPll11rccPllInputmm, .-_Z11rccStartPll11rccPllInputmm
 293              		.section	.data._ZL14_coreFrequency,"aw",%progbits
 294              		.align	2
 295              		.set	.LANCHOR0,. + 0
 296              		.type	_ZL14_coreFrequency, %object
 297              		.size	_ZL14_coreFrequency, 4
 298              	_ZL14_coreFrequency:
 299 0000 68FF1F00 		.word	2097000
 300              		.section	.rodata._ZZ11rccStartPll11rccPllInputmmE4muls,"a",%progbits
 301              		.set	.LANCHOR1,. + 0
 302              		.type	_ZZ11rccStartPll11rccPllInputmmE4muls, %object
 303              		.size	_ZZ11rccStartPll11rccPllInputmmE4muls, 9
 304              	_ZZ11rccStartPll11rccPllInputmmE4muls:
 305 0000 03       		.byte	3
 306 0001 04       		.byte	4
 307 0002 06       		.byte	6
 308 0003 08       		.byte	8
 309 0004 0C       		.byte	12
 310 0005 10       		.byte	16
 311 0006 18       		.byte	24
 312 0007 20       		.byte	32
 313 0008 30       		.byte	48
 314              		.text
 315              	.Letext0:
 316              		.file 2 "/home/maciek/gcc-arm-none-eabi/gcc-arm-none-eabi-4_7-2013q1/bin/../lib/gcc/arm-none-eabi/
 317              		.file 3 "inc/stm32l1xx.h"
 318              		.file 4 "peripherals/rcc.h"
 319              		.file 5 "inc/core_cm3.h"