ARM GAS  /tmp/ccMtgFLs.s 			page 1


   1              		.syntax unified
   2              		.cpu cortex-m3
   3              		.fpu softvfp
   4              		.eabi_attribute 20, 1	@ Tag_ABI_FP_denormal
   5              		.eabi_attribute 21, 1	@ Tag_ABI_FP_exceptions
   6              		.eabi_attribute 23, 3	@ Tag_ABI_FP_number_model
   7              		.eabi_attribute 24, 1	@ Tag_ABI_align8_needed
   8              		.eabi_attribute 25, 1	@ Tag_ABI_align8_preserved
   9              		.eabi_attribute 26, 1	@ Tag_ABI_enum_size
  10              		.eabi_attribute 30, 4	@ Tag_ABI_optimization_goals
  11              		.eabi_attribute 34, 1	@ Tag_CPU_unaligned_access
  12              		.eabi_attribute 18, 4	@ Tag_ABI_PCS_wchar_t
  13              		.file	"serial.cpp"
  14              	@ GNU C++ (GNU Tools for ARM Embedded Processors) version 4.7.3 20130312 (release) [ARM/embedded-4_
  15              	@	compiled by GNU C version 4.3.6, GMP version 4.3.2, MPFR version 2.4.2, MPC version 0.8.1
  16              	@ GGC heuristics: --param ggc-min-expand=100 --param ggc-min-heapsize=131072
  17              	@ options passed:  -I . -I inc -I FreeRTOS/include
  18              	@ -I FreeRTOS/portable/GCC/ARM_CM3 -I FatFS -I peripherals
  19              	@ -imultilib armv7-m
  20              	@ -iprefix /home/maciek/gcc-arm-none-eabi/gcc-arm-none-eabi-4_7-2013q1/bin/../lib/gcc/arm-none-eabi
  21              	@ -isysroot /home/maciek/gcc-arm-none-eabi/gcc-arm-none-eabi-4_7-2013q1/bin/../arm-none-eabi
  22              	@ -MD out/serial.d -MF out/serial.d -MP -MQ out/serial.o
  23              	@ -D__USES_INITFINI__ -D STM32L1XX_MD peripherals/serial.cpp
  24              	@ -mcpu=cortex-m3 -mthumb -auxbase-strip out/serial.o -g -ggdb3 -Os -Wall
  25              	@ -Wextra -std=gnu++11 -ffunction-sections -fdata-sections -fno-rtti
  26              	@ -fno-exceptions -fverbose-asm
  27              	@ options enabled:  -fauto-inc-dec -fbranch-count-reg -fcaller-saves
  28              	@ -fcombine-stack-adjustments -fcommon -fcompare-elim -fcprop-registers
  29              	@ -fcrossjumping -fcse-follow-jumps -fdata-sections -fdebug-types-section
  30              	@ -fdefer-pop -fdelete-null-pointer-checks -fdevirtualize -fdwarf2-cfi-asm
  31              	@ -fearly-inlining -feliminate-unused-debug-types -fexpensive-optimizations
  32              	@ -fforward-propagate -ffunction-cse -ffunction-sections -fgcse -fgcse-lm
  33              	@ -fgnu-runtime -fguess-branch-probability -fident -fif-conversion
  34              	@ -fif-conversion2 -findirect-inlining -finline -finline-atomics
  35              	@ -finline-functions -finline-functions-called-once
  36              	@ -finline-small-functions -fipa-cp -fipa-profile -fipa-pure-const
  37              	@ -fipa-reference -fipa-sra -fira-share-save-slots -fira-share-spill-slots
  38              	@ -fivopts -fkeep-static-consts -fleading-underscore -fmath-errno
  39              	@ -fmerge-constants -fmerge-debug-strings -fomit-frame-pointer
  40              	@ -foptimize-register-move -foptimize-sibling-calls -fpartial-inlining
  41              	@ -fpeephole -fpeephole2 -fprefetch-loop-arrays -freg-struct-return
  42              	@ -fregmove -frename-registers -freorder-blocks -freorder-functions
  43              	@ -frerun-cse-after-loop -fsched-critical-path-heuristic
  44              	@ -fsched-dep-count-heuristic -fsched-group-heuristic -fsched-interblock
  45              	@ -fsched-last-insn-heuristic -fsched-rank-heuristic -fsched-spec
  46              	@ -fsched-spec-insn-heuristic -fsched-stalled-insns-dep -fschedule-insns2
  47              	@ -fsection-anchors -fshow-column -fshrink-wrap -fsigned-zeros
  48              	@ -fsplit-ivs-in-unroller -fsplit-wide-types -fstrict-aliasing
  49              	@ -fstrict-overflow -fstrict-volatile-bitfields -fthread-jumps
  50              	@ -ftoplevel-reorder -ftrapping-math -ftree-bit-ccp -ftree-builtin-call-dce
  51              	@ -ftree-ccp -ftree-ch -ftree-copy-prop -ftree-copyrename -ftree-cselim
  52              	@ -ftree-dce -ftree-dominator-opts -ftree-dse -ftree-forwprop -ftree-fre
  53              	@ -ftree-loop-if-convert -ftree-loop-im -ftree-loop-ivcanon
  54              	@ -ftree-loop-optimize -ftree-parallelize-loops= -ftree-phiprop -ftree-pre
  55              	@ -ftree-pta -ftree-reassoc -ftree-scev-cprop -ftree-sink
  56              	@ -ftree-slp-vectorize -ftree-sra -ftree-switch-conversion
  57              	@ -ftree-tail-merge -ftree-ter -ftree-vect-loop-version -ftree-vrp
ARM GAS  /tmp/ccMtgFLs.s 			page 2


  58              	@ -funit-at-a-time -funroll-loops -fvar-tracking -fvar-tracking-assignments
  59              	@ -fverbose-asm -fweb -fzero-initialized-in-bss -mfix-cortex-m3-ldrd
  60              	@ -mlittle-endian -msched-prolog -mthumb -munaligned-access
  61              	@ -mvectorize-with-neon-quad
  62              	
  63              		.text
  64              	.Ltext0:
  65              		.cfi_sections	.debug_frame
  66              		.section	.text._Z16serialInitializev,"ax",%progbits
  67              		.align	1
  68              		.global	_Z16serialInitializev
  69              		.thumb
  70              		.thumb_func
  71              		.type	_Z16serialInitializev, %function
  72              	_Z16serialInitializev:
  73              	.LFB57:
  74              		.file 1 "peripherals/serial.cpp"
   1:peripherals/serial.cpp **** /**
   2:peripherals/serial.cpp ****  * \file serial.c
   3:peripherals/serial.cpp ****  * \brief Dummy Serial driver for tests
   4:peripherals/serial.cpp ****  *
   5:peripherals/serial.cpp ****  * Functions for Serial-USART control
   6:peripherals/serial.cpp ****  *
   7:peripherals/serial.cpp ****  * chip: STM32L1xx; prefix: usart
   8:peripherals/serial.cpp ****  *
   9:peripherals/serial.cpp ****  * \author Mazeryt Freager
  10:peripherals/serial.cpp ****  * \date 2014-07-08
  11:peripherals/serial.cpp ****  */
  12:peripherals/serial.cpp **** 
  13:peripherals/serial.cpp **** #include <stdint.h>
  14:peripherals/serial.cpp **** #include <string.h>
  15:peripherals/serial.cpp **** #include <stdarg.h>
  16:peripherals/serial.cpp **** #include <stdio.h>
  17:peripherals/serial.cpp **** 
  18:peripherals/serial.cpp **** #include "inc/stm32l1xx.h"
  19:peripherals/serial.cpp **** 
  20:peripherals/serial.cpp **** #include "config.h"
  21:peripherals/serial.cpp **** #include "serial.h"
  22:peripherals/serial.cpp **** 
  23:peripherals/serial.cpp **** #include "hdr/hdr_usart.h"
  24:peripherals/serial.cpp **** #include "hdr/hdr_usart.h"
  25:peripherals/serial.cpp **** #include "hdr/hdr_gpio.h"
  26:peripherals/serial.cpp **** #include "hdr/hdr_rcc.h"
  27:peripherals/serial.cpp **** #include "hdr/hdr_dma.h"
  28:peripherals/serial.cpp **** 
  29:peripherals/serial.cpp **** #include "gpio.h"
  30:peripherals/serial.cpp **** #include "rcc.h"
  31:peripherals/serial.cpp **** #include "usart.h"
  32:peripherals/serial.cpp **** #include "command.h"
  33:peripherals/serial.cpp **** #include "helper.h"
  34:peripherals/serial.cpp **** #include "error.h"
  35:peripherals/serial.cpp **** 
  36:peripherals/serial.cpp **** 
  37:peripherals/serial.cpp **** /**
  38:peripherals/serial.cpp ****  * \brief Initializes USART
  39:peripherals/serial.cpp ****  *
  40:peripherals/serial.cpp ****  * Initializes USART
ARM GAS  /tmp/ccMtgFLs.s 			page 3


  41:peripherals/serial.cpp ****  *
  42:peripherals/serial.cpp ****  * \return ERROR_NONE if the semaphore and queues were successfully created and
  43:peripherals/serial.cpp ****  * tasks were successfully created and added to a ready list, otherwise an error
  44:peripherals/serial.cpp ****  * code defined in the file error.h
  45:peripherals/serial.cpp ****  */
  46:peripherals/serial.cpp **** 
  47:peripherals/serial.cpp **** enum Error serialInitialize(void)
  48:peripherals/serial.cpp **** {
  75              		.loc 1 48 0
  76              		.cfi_startproc
  77              		@ args = 0, pretend = 0, frame = 0
  78              		@ frame_needed = 0, uses_anonymous_args = 0
  79 0000 38B5     		push	{r3, r4, r5, lr}	@
  80              	.LCFI0:
  81              		.cfi_def_cfa_offset 16
  82              		.cfi_offset 3, -16
  83              		.cfi_offset 4, -12
  84              		.cfi_offset 5, -8
  85              		.cfi_offset 14, -4
  49:peripherals/serial.cpp **** 	RCC->APB2ENR |= RCC_APB1ENR_USART2EN;
  86              		.loc 1 49 0
  87 0002 114B     		ldr	r3, .L2	@ tmp141,
  50:peripherals/serial.cpp **** 	gpioConfigurePin(GPIOA, GPIO_PIN_2, GPIO_AF7_PP_40MHz_PULL_UP);
  88              		.loc 1 50 0
  89 0004 114D     		ldr	r5, .L2+4	@ tmp143,
  49:peripherals/serial.cpp **** 	RCC->APB2ENR |= RCC_APB1ENR_USART2EN;
  90              		.loc 1 49 0
  91 0006 1A6A     		ldr	r2, [r3, #32]	@ D.7286, MEM[(struct RCC_TypeDef *)1073887232B].APB2ENR
  92              		.loc 1 50 0
  93 0008 114C     		ldr	r4, .L2+8	@ tmp144,
  49:peripherals/serial.cpp **** 	RCC->APB2ENR |= RCC_APB1ENR_USART2EN;
  94              		.loc 1 49 0
  95 000a 42F40030 		orr	r0, r2, #131072	@ D.7287, D.7286,
  96 000e 1862     		str	r0, [r3, #32]	@ D.7287, MEM[(struct RCC_TypeDef *)1073887232B].APB2ENR
  97              		.loc 1 50 0
  98 0010 0221     		movs	r1, #2	@,
  99 0012 2846     		mov	r0, r5	@, tmp143
 100 0014 2246     		mov	r2, r4	@, tmp144
 101 0016 FFF7FEFF 		bl	_Z16gpioConfigurePinP12GPIO_TypeDef7GpioPin17GpioConfiguration	@
 102              	.LVL0:
  51:peripherals/serial.cpp **** 	gpioConfigurePin(GPIOA, GPIO_PIN_3, GPIO_AF7_PP_40MHz_PULL_UP);
 103              		.loc 1 51 0
 104 001a 2246     		mov	r2, r4	@, tmp144
 105 001c 2846     		mov	r0, r5	@, tmp143
 106 001e 0321     		movs	r1, #3	@,
 107 0020 FFF7FEFF 		bl	_Z16gpioConfigurePinP12GPIO_TypeDef7GpioPin17GpioConfiguration	@
 108              	.LVL1:
  52:peripherals/serial.cpp **** 
  53:peripherals/serial.cpp **** 	RCC_APB1ENR_USART2EN_bb = 1;			// enable USART in RCC
 109              		.loc 1 53 0
 110 0024 0B4B     		ldr	r3, .L2+12	@ tmp147,
 111 0026 0121     		movs	r1, #1	@ tmp148,
 112 0028 1960     		str	r1, [r3, #0]	@ tmp148, MEM[(volatile long unsigned int *)1111950532B]
  54:peripherals/serial.cpp **** 
  55:peripherals/serial.cpp **** 	USART2->BRR = (rccGetCoreFrequency() + SERIALx_BAUDRATE / 2) / SERIALx_BAUDRATE;	// calculate baud
 113              		.loc 1 55 0
 114 002a FFF7FEFF 		bl	rccGetCoreFrequency	@
ARM GAS  /tmp/ccMtgFLs.s 			page 4


 115              	.LVL2:
 116 002e 00F56142 		add	r2, r0, #57600	@ tmp149,,
 117 0032 4FF4E130 		mov	r0, #115200	@ tmp152,
 118 0036 B2FBF0F1 		udiv	r1, r2, r0	@ tmp151, tmp149, tmp152
 119 003a 074B     		ldr	r3, .L2+16	@ tmp153,
  56:peripherals/serial.cpp **** 	// enable peripheral, transmitter and receiver, enable RXNE interrupt
  57:peripherals/serial.cpp **** 	USART2->CR1 = USART_CR1_UE | USART_CR1_TE | USART_CR1_RE;
 120              		.loc 1 57 0
 121 003c 42F20C00 		movw	r0, #8204	@ tmp157,
  55:peripherals/serial.cpp **** 	USART2->BRR = (rccGetCoreFrequency() + SERIALx_BAUDRATE / 2) / SERIALx_BAUDRATE;	// calculate baud
 122              		.loc 1 55 0
 123 0040 8AB2     		uxth	r2, r1	@ D.7293, tmp151
 124 0042 1A81     		strh	r2, [r3, #8]	@ movhi	@ D.7293, MEM[(struct USART_TypeDef *)1073759232B].BRR
 125              		.loc 1 57 0
 126 0044 9881     		strh	r0, [r3, #12]	@ movhi	@ tmp157, MEM[(struct USART_TypeDef *)1073759232B].CR1
  58:peripherals/serial.cpp **** 
  59:peripherals/serial.cpp **** }
 127              		.loc 1 59 0
 128 0046 38BD     		pop	{r3, r4, r5, pc}	@
 129              	.L3:
 130              		.align	2
 131              	.L2:
 132 0048 00380240 		.word	1073887232
 133 004c 00000240 		.word	1073872896
 134 0050 02130700 		.word	463618
 135 0054 C4044742 		.word	1111950532
 136 0058 00440040 		.word	1073759232
 137              		.cfi_endproc
 138              	.LFE57:
 139              		.size	_Z16serialInitializev, .-_Z16serialInitializev
 140              		.section	.text.serialSendCharacter,"ax",%progbits
 141              		.align	1
 142              		.global	serialSendCharacter
 143              		.thumb
 144              		.thumb_func
 145              		.type	serialSendCharacter, %function
 146              	serialSendCharacter:
 147              	.LFB58:
  60:peripherals/serial.cpp **** 
  61:peripherals/serial.cpp **** /**
  62:peripherals/serial.cpp ****  * \brief Low-level character print.
  63:peripherals/serial.cpp ****  *
  64:peripherals/serial.cpp ****  * Low-level character print. Should be used for debugging only.
  65:peripherals/serial.cpp ****  *
  66:peripherals/serial.cpp ****  * \param [in] c is the character that will be printed
  67:peripherals/serial.cpp ****  */
  68:peripherals/serial.cpp **** 
  69:peripherals/serial.cpp **** void serialSendCharacter(char c)
  70:peripherals/serial.cpp **** {
 148              		.loc 1 70 0
 149              		.cfi_startproc
 150              		@ args = 0, pretend = 0, frame = 0
 151              		@ frame_needed = 0, uses_anonymous_args = 0
 152              		@ link register save eliminated.
 153              	.LVL3:
 154              	.L5:
  71:peripherals/serial.cpp **** 	while (!(USARTx_SR_TXE_bb(SERIALx)));
ARM GAS  /tmp/ccMtgFLs.s 			page 5


 155              		.loc 1 71 0 discriminator 1
 156 0000 034B     		ldr	r3, .L11	@ tmp137,
 157 0002 1968     		ldr	r1, [r3, #0]	@ D.7282, MEM[(volatile long unsigned int *)1107853340B]
 158 0004 0029     		cmp	r1, #0	@ D.7282
 159 0006 FBD0     		beq	.L5	@
  72:peripherals/serial.cpp **** 	USART2->DR = c;
 160              		.loc 1 72 0
 161 0008 024A     		ldr	r2, .L11+4	@ tmp138,
 162 000a 9080     		strh	r0, [r2, #4]	@ movhi	@ c, MEM[(struct USART_TypeDef *)1073759232B].DR
 163 000c 7047     		bx	lr	@
 164              	.L12:
 165 000e 00BF     		.align	2
 166              	.L11:
 167 0010 1C800842 		.word	1107853340
 168 0014 00440040 		.word	1073759232
 169              		.cfi_endproc
 170              	.LFE58:
 171              		.size	serialSendCharacter, .-serialSendCharacter
 172              		.text
 173              	.Letext0:
 174              		.file 2 "/home/maciek/gcc-arm-none-eabi/gcc-arm-none-eabi-4_7-2013q1/bin/../lib/gcc/arm-none-eabi/
 175              		.file 3 "./inc/stm32l1xx.h"
 176              		.file 4 "/home/maciek/gcc-arm-none-eabi/gcc-arm-none-eabi-4_7-2013q1/bin/../lib/gcc/arm-none-eabi/
 177              		.file 5 "configuration/error.h"
 178              		.file 6 "peripherals/gpio.h"
 179              		.file 7 "<built-in>"
 180              		.file 8 "./inc/core_cm3.h"
 181              		.file 9 "peripherals/rcc.h"