ARM GAS  /tmp/ccHAB4jl.s 			page 1


   1              		.syntax unified
   2              		.cpu cortex-m3
   3              		.fpu softvfp
   4              		.eabi_attribute 20, 1	@ Tag_ABI_FP_denormal
   5              		.eabi_attribute 21, 1	@ Tag_ABI_FP_exceptions
   6              		.eabi_attribute 23, 3	@ Tag_ABI_FP_number_model
   7              		.eabi_attribute 24, 1	@ Tag_ABI_align8_needed
   8              		.eabi_attribute 25, 1	@ Tag_ABI_align8_preserved
   9              		.eabi_attribute 26, 1	@ Tag_ABI_enum_size
  10              		.eabi_attribute 30, 4	@ Tag_ABI_optimization_goals
  11              		.eabi_attribute 34, 1	@ Tag_CPU_unaligned_access
  12              		.eabi_attribute 18, 4	@ Tag_ABI_PCS_wchar_t
  13              		.file	"spi.cpp"
  14              	@ GNU C++ (GNU Tools for ARM Embedded Processors) version 4.7.3 20130312 (release) [ARM/embedded-4_
  15              	@	compiled by GNU C version 4.3.6, GMP version 4.3.2, MPFR version 2.4.2, MPC version 0.8.1
  16              	@ GGC heuristics: --param ggc-min-expand=100 --param ggc-min-heapsize=131072
  17              	@ options passed:  -I . -I inc -I FreeRTOS/include
  18              	@ -I FreeRTOS/portable/GCC/ARM_CM3 -I FatFS -I peripherals
  19              	@ -imultilib armv7-m
  20              	@ -iprefix /home/maciek/gcc-arm-none-eabi/gcc-arm-none-eabi-4_7-2013q1/bin/../lib/gcc/arm-none-eabi
  21              	@ -isysroot /home/maciek/gcc-arm-none-eabi/gcc-arm-none-eabi-4_7-2013q1/bin/../arm-none-eabi
  22              	@ -MD out/spi.d -MF out/spi.d -MP -MQ out/spi.o -D__USES_INITFINI__
  23              	@ -D STM32L1XX_MD peripherals/spi.cpp -mcpu=cortex-m3 -mthumb
  24              	@ -auxbase-strip out/spi.o -g -ggdb3 -Os -Wall -Wextra -std=gnu++11
  25              	@ -ffunction-sections -fdata-sections -fno-rtti -fno-exceptions
  26              	@ -fverbose-asm
  27              	@ options enabled:  -fauto-inc-dec -fbranch-count-reg -fcaller-saves
  28              	@ -fcombine-stack-adjustments -fcommon -fcompare-elim -fcprop-registers
  29              	@ -fcrossjumping -fcse-follow-jumps -fdata-sections -fdebug-types-section
  30              	@ -fdefer-pop -fdelete-null-pointer-checks -fdevirtualize -fdwarf2-cfi-asm
  31              	@ -fearly-inlining -feliminate-unused-debug-types -fexpensive-optimizations
  32              	@ -fforward-propagate -ffunction-cse -ffunction-sections -fgcse -fgcse-lm
  33              	@ -fgnu-runtime -fguess-branch-probability -fident -fif-conversion
  34              	@ -fif-conversion2 -findirect-inlining -finline -finline-atomics
  35              	@ -finline-functions -finline-functions-called-once
  36              	@ -finline-small-functions -fipa-cp -fipa-profile -fipa-pure-const
  37              	@ -fipa-reference -fipa-sra -fira-share-save-slots -fira-share-spill-slots
  38              	@ -fivopts -fkeep-static-consts -fleading-underscore -fmath-errno
  39              	@ -fmerge-constants -fmerge-debug-strings -fomit-frame-pointer
  40              	@ -foptimize-register-move -foptimize-sibling-calls -fpartial-inlining
  41              	@ -fpeephole -fpeephole2 -fprefetch-loop-arrays -freg-struct-return
  42              	@ -fregmove -frename-registers -freorder-blocks -freorder-functions
  43              	@ -frerun-cse-after-loop -fsched-critical-path-heuristic
  44              	@ -fsched-dep-count-heuristic -fsched-group-heuristic -fsched-interblock
  45              	@ -fsched-last-insn-heuristic -fsched-rank-heuristic -fsched-spec
  46              	@ -fsched-spec-insn-heuristic -fsched-stalled-insns-dep -fschedule-insns2
  47              	@ -fsection-anchors -fshow-column -fshrink-wrap -fsigned-zeros
  48              	@ -fsplit-ivs-in-unroller -fsplit-wide-types -fstrict-aliasing
  49              	@ -fstrict-overflow -fstrict-volatile-bitfields -fthread-jumps
  50              	@ -ftoplevel-reorder -ftrapping-math -ftree-bit-ccp -ftree-builtin-call-dce
  51              	@ -ftree-ccp -ftree-ch -ftree-copy-prop -ftree-copyrename -ftree-cselim
  52              	@ -ftree-dce -ftree-dominator-opts -ftree-dse -ftree-forwprop -ftree-fre
  53              	@ -ftree-loop-if-convert -ftree-loop-im -ftree-loop-ivcanon
  54              	@ -ftree-loop-optimize -ftree-parallelize-loops= -ftree-phiprop -ftree-pre
  55              	@ -ftree-pta -ftree-reassoc -ftree-scev-cprop -ftree-sink
  56              	@ -ftree-slp-vectorize -ftree-sra -ftree-switch-conversion
  57              	@ -ftree-tail-merge -ftree-ter -ftree-vect-loop-version -ftree-vrp
ARM GAS  /tmp/ccHAB4jl.s 			page 2


  58              	@ -funit-at-a-time -funroll-loops -fvar-tracking -fvar-tracking-assignments
  59              	@ -fverbose-asm -fweb -fzero-initialized-in-bss -mfix-cortex-m3-ldrd
  60              	@ -mlittle-endian -msched-prolog -mthumb -munaligned-access
  61              	@ -mvectorize-with-neon-quad
  62              	
  63              		.text
  64              	.Ltext0:
  65              		.cfi_sections	.debug_frame
  66              		.section	.text._Z13spiInitializev,"ax",%progbits
  67              		.align	1
  68              		.global	_Z13spiInitializev
  69              		.thumb
  70              		.thumb_func
  71              		.type	_Z13spiInitializev, %function
  72              	_Z13spiInitializev:
  73              	.LFB55:
  74              		.file 1 "peripherals/spi.cpp"
   1:peripherals/spi.cpp **** /**
   2:peripherals/spi.cpp ****  * \file spi.cpp
   3:peripherals/spi.cpp ****  * \brief SPI driver
   4:peripherals/spi.cpp ****  *
   5:peripherals/spi.cpp ****  * Functions for SPI control
   6:peripherals/spi.cpp ****  *
   7:peripherals/spi.cpp ****  * chip: STM32L1xx; prefix: spi
   8:peripherals/spi.cpp ****  *
   9:peripherals/spi.cpp ****  * \author grochu
  10:peripherals/spi.cpp ****  * \date 2012-08-30
  11:peripherals/spi.cpp ****  */
  12:peripherals/spi.cpp **** 
  13:peripherals/spi.cpp **** #include <cstdint>
  14:peripherals/spi.cpp **** #include <cstddef>
  15:peripherals/spi.cpp **** 
  16:peripherals/spi.cpp **** #include "inc/stm32l1xx.h"
  17:peripherals/spi.cpp **** 
  18:peripherals/spi.cpp **** #include "hdr/hdr_rcc.h"
  19:peripherals/spi.cpp **** #include "hdr/hdr_spi.h"
  20:peripherals/spi.cpp **** 
  21:peripherals/spi.cpp **** #include "config.h"
  22:peripherals/spi.cpp **** 
  23:peripherals/spi.cpp **** #include "gpio.h"
  24:peripherals/spi.cpp **** #include "rcc.h"
  25:peripherals/spi.cpp **** #include "spi.h"
  26:peripherals/spi.cpp **** 
  27:peripherals/spi.cpp **** /*-------------------------------------------------------------------------------------------------
  28:peripherals/spi.cpp **** | global functions
  29:peripherals/spi.cpp **** +--------------------------------------------------------------------------------------------------
  30:peripherals/spi.cpp **** 
  31:peripherals/spi.cpp **** /**
  32:peripherals/spi.cpp ****  * \brief Initializes SPI.
  33:peripherals/spi.cpp ****  *
  34:peripherals/spi.cpp ****  * Initializes SPI. SPI clock is set to max value, it should be changed later with spiSetBaudRate()
  35:peripherals/spi.cpp ****  */
  36:peripherals/spi.cpp **** 
  37:peripherals/spi.cpp **** void spiInitialize(void)
  38:peripherals/spi.cpp **** {
  75              		.loc 1 38 0
  76              		.cfi_startproc
ARM GAS  /tmp/ccHAB4jl.s 			page 3


  77              		@ args = 0, pretend = 0, frame = 0
  78              		@ frame_needed = 0, uses_anonymous_args = 0
  79 0000 38B5     		push	{r3, r4, r5, lr}	@
  80              	.LCFI0:
  81              		.cfi_def_cfa_offset 16
  82              		.cfi_offset 3, -16
  83              		.cfi_offset 4, -12
  84              		.cfi_offset 5, -8
  85              		.cfi_offset 14, -4
  39:peripherals/spi.cpp **** 	gpioConfigurePin(SPIx_MISO_GPIO, SPIx_MISO_PIN, SPIx_MISO_CONFIGURATION);
  86              		.loc 1 39 0
  87 0002 0C4D     		ldr	r5, .L2	@ tmp134,
  88 0004 0C4C     		ldr	r4, .L2+4	@ tmp135,
  89 0006 2846     		mov	r0, r5	@, tmp134
  90 0008 0B21     		movs	r1, #11	@,
  91 000a 2246     		mov	r2, r4	@, tmp135
  92 000c FFF7FEFF 		bl	_Z16gpioConfigurePinP12GPIO_TypeDef7GpioPin17GpioConfiguration	@
  93              	.LVL0:
  40:peripherals/spi.cpp **** 	gpioConfigurePin(SPIx_MOSI_GPIO, SPIx_MOSI_PIN, SPIx_MOSI_CONFIGURATION);
  94              		.loc 1 40 0
  95 0010 2846     		mov	r0, r5	@, tmp134
  96 0012 0C21     		movs	r1, #12	@,
  97 0014 2246     		mov	r2, r4	@, tmp135
  98 0016 FFF7FEFF 		bl	_Z16gpioConfigurePinP12GPIO_TypeDef7GpioPin17GpioConfiguration	@
  99              	.LVL1:
  41:peripherals/spi.cpp **** 	gpioConfigurePin(SPIx_SCK_GPIO, SPIx_SCK_PIN, SPIx_SCK_CONFIGURATION);
 100              		.loc 1 41 0
 101 001a 2846     		mov	r0, r5	@, tmp134
 102 001c 0521     		movs	r1, #5	@,
 103 001e 2246     		mov	r2, r4	@, tmp135
 104 0020 FFF7FEFF 		bl	_Z16gpioConfigurePinP12GPIO_TypeDef7GpioPin17GpioConfiguration	@
 105              	.LVL2:
  42:peripherals/spi.cpp **** 
  43:peripherals/spi.cpp **** 	RCC_APBxENR_SPIxEN_bb = 1;
 106              		.loc 1 43 0
 107 0024 054B     		ldr	r3, .L2+8	@ tmp140,
  44:peripherals/spi.cpp **** 
  45:peripherals/spi.cpp **** 	SPIx->CR1 = SPI_CR1_SSM | SPI_CR1_SSI | SPI_CR1_SPE | SPI_CR1_MSTR;	// software slave management, 
 108              		.loc 1 45 0
 109 0026 0649     		ldr	r1, .L2+12	@ tmp142,
  43:peripherals/spi.cpp **** 	RCC_APBxENR_SPIxEN_bb = 1;
 110              		.loc 1 43 0
 111 0028 0122     		movs	r2, #1	@ tmp141,
 112              		.loc 1 45 0
 113 002a 4FF45170 		mov	r0, #836	@ tmp144,
  43:peripherals/spi.cpp **** 	RCC_APBxENR_SPIxEN_bb = 1;
 114              		.loc 1 43 0
 115 002e 1A60     		str	r2, [r3, #0]	@ tmp141, MEM[(volatile long unsigned int *)1111950384B]
 116              		.loc 1 45 0
 117 0030 0880     		strh	r0, [r1, #0]	@ movhi	@ tmp144, MEM[(struct SPI_TypeDef *)1073819648B].CR1
 118 0032 38BD     		pop	{r3, r4, r5, pc}	@
 119              	.L3:
 120              		.align	2
 121              	.L2:
 122 0034 00000240 		.word	1073872896
 123 0038 02130500 		.word	332546
 124 003c 30044742 		.word	1111950384
ARM GAS  /tmp/ccHAB4jl.s 			page 4


 125 0040 00300140 		.word	1073819648
 126              		.cfi_endproc
 127              	.LFE55:
 128              		.size	_Z13spiInitializev, .-_Z13spiInitializev
 129              		.section	.text._Z14spiSetBaudRatem,"ax",%progbits
 130              		.align	1
 131              		.global	_Z14spiSetBaudRatem
 132              		.thumb
 133              		.thumb_func
 134              		.type	_Z14spiSetBaudRatem, %function
 135              	_Z14spiSetBaudRatem:
 136              	.LFB56:
  46:peripherals/spi.cpp **** }
  47:peripherals/spi.cpp **** 
  48:peripherals/spi.cpp **** /**
  49:peripherals/spi.cpp ****  * \brief Sets SPI baud rate.
  50:peripherals/spi.cpp ****  *
  51:peripherals/spi.cpp ****  * Sets SPI baud rate.
  52:peripherals/spi.cpp ****  *
  53:peripherals/spi.cpp ****  * \param [in] baud_rate is desired baud rate in Hz
  54:peripherals/spi.cpp ****  *
  55:peripherals/spi.cpp ****  * \return real achieved baudrate
  56:peripherals/spi.cpp ****  */
  57:peripherals/spi.cpp **** 
  58:peripherals/spi.cpp **** uint32_t spiSetBaudRate(uint32_t baud_rate)
  59:peripherals/spi.cpp **** {
 137              		.loc 1 59 0
 138              		.cfi_startproc
 139              		@ args = 0, pretend = 0, frame = 0
 140              		@ frame_needed = 0, uses_anonymous_args = 0
 141              	.LVL3:
 142 0000 10B5     		push	{r4, lr}	@
 143              	.LCFI1:
 144              		.cfi_def_cfa_offset 8
 145              		.cfi_offset 4, -8
 146              		.cfi_offset 14, -4
 147              		.loc 1 59 0
 148 0002 0446     		mov	r4, r0	@ baud_rate, baud_rate
 149              	.LBB2:
  60:peripherals/spi.cpp **** 	uint32_t real_baud_rate = rccGetCoreFrequency() / 2;	// max baud rate is f_PCLK / 2
 150              		.loc 1 60 0
 151 0004 FFF7FEFF 		bl	rccGetCoreFrequency	@
 152              	.LVL4:
  61:peripherals/spi.cpp **** 	uint32_t br = 0;
 153              		.loc 1 61 0
 154 0008 0023     		movs	r3, #0	@ br,
  60:peripherals/spi.cpp **** 	uint32_t real_baud_rate = rccGetCoreFrequency() / 2;	// max baud rate is f_PCLK / 2
 155              		.loc 1 60 0
 156 000a 4008     		lsrs	r0, r0, #1	@ real_baud_rate,,
 157              	.LVL5:
 158              	.L7:
  62:peripherals/spi.cpp **** 
  63:peripherals/spi.cpp **** 	while (real_baud_rate > baud_rate && br < 7)	// max br value is 7, so enter the loop only if br is
 159              		.loc 1 63 0 discriminator 1
 160 000c A042     		cmp	r0, r4	@ real_baud_rate, baud_rate
 161 000e 09D8     		bhi	.L5	@,
 162              	.L6:
ARM GAS  /tmp/ccHAB4jl.s 			page 5


  64:peripherals/spi.cpp **** 	{
  65:peripherals/spi.cpp **** 		real_baud_rate /= 2;
  66:peripherals/spi.cpp **** 		br++;
  67:peripherals/spi.cpp **** 	}
  68:peripherals/spi.cpp **** 
  69:peripherals/spi.cpp **** 	SPIx->CR1 = (SPIx->CR1 & ~SPI_CR1_BR) | (br << SPI_CR1_BR_bit);
 163              		.loc 1 69 0
 164 0010 074A     		ldr	r2, .L14	@ tmp147,
 165 0012 1188     		ldrh	r1, [r2, #0]	@, MEM[(struct SPI_TypeDef *)1073819648B].CR1
 166 0014 89B2     		uxth	r1, r1	@ D.5888, MEM[(struct SPI_TypeDef *)1073819648B].CR1
 167 0016 21F03801 		bic	r1, r1, #56	@ tmp151, D.5888,
 168 001a 41EAC303 		orr	r3, r1, r3, lsl #3	@, tmp154, tmp151, br,
 169              	.LVL6:
 170 001e 99B2     		uxth	r1, r3	@ D.5892, tmp154
 171 0020 1180     		strh	r1, [r2, #0]	@ movhi	@ D.5892, MEM[(struct SPI_TypeDef *)1073819648B].CR1
 172 0022 10BD     		pop	{r4, pc}	@
 173              	.LVL7:
 174              	.L5:
  63:peripherals/spi.cpp **** 	while (real_baud_rate > baud_rate && br < 7)	// max br value is 7, so enter the loop only if br is
 175              		.loc 1 63 0 discriminator 2
 176 0024 072B     		cmp	r3, #7	@ br,
 177 0026 F3D0     		beq	.L6	@,
  65:peripherals/spi.cpp **** 		real_baud_rate /= 2;
 178              		.loc 1 65 0
 179 0028 4008     		lsrs	r0, r0, #1	@ real_baud_rate, real_baud_rate,
 180              	.LVL8:
  66:peripherals/spi.cpp **** 		br++;
 181              		.loc 1 66 0
 182 002a 0133     		adds	r3, r3, #1	@ br, br,
 183              	.LVL9:
 184 002c EEE7     		b	.L7	@
 185              	.L15:
 186 002e 00BF     		.align	2
 187              	.L14:
 188 0030 00300140 		.word	1073819648
 189              	.LBE2:
 190              		.cfi_endproc
 191              	.LFE56:
 192              		.size	_Z14spiSetBaudRatem, .-_Z14spiSetBaudRatem
 193              		.section	.text._Z11spiTransferPKhPhj,"ax",%progbits
 194              		.align	1
 195              		.global	_Z11spiTransferPKhPhj
 196              		.thumb
 197              		.thumb_func
 198              		.type	_Z11spiTransferPKhPhj, %function
 199              	_Z11spiTransferPKhPhj:
 200              	.LFB57:
  70:peripherals/spi.cpp **** 
  71:peripherals/spi.cpp **** 	return real_baud_rate;
  72:peripherals/spi.cpp **** }
  73:peripherals/spi.cpp **** 
  74:peripherals/spi.cpp **** /**
  75:peripherals/spi.cpp ****  * \brief Transfers data through SPI.
  76:peripherals/spi.cpp ****  *
  77:peripherals/spi.cpp ****  * Bidirectional transfer of data through SPI (simultaneous tx and rx).
  78:peripherals/spi.cpp ****  *
  79:peripherals/spi.cpp ****  * \param [in] tx is the pointer to transferred data buffer, nullptr if blank bytes should be trans
ARM GAS  /tmp/ccHAB4jl.s 			page 6


  80:peripherals/spi.cpp ****  * \param [out] rx is the pointer to received data buffer, nullptr if received data should be disca
  81:peripherals/spi.cpp ****  * \param [in] length is the length of transfer in bytes
  82:peripherals/spi.cpp ****  *
  83:peripherals/spi.cpp ****  * \return transfer length in bytes, should be equal to parameter length
  84:peripherals/spi.cpp ****  */
  85:peripherals/spi.cpp **** 
  86:peripherals/spi.cpp **** size_t spiTransfer(const uint8_t *tx, uint8_t *rx, size_t length)
  87:peripherals/spi.cpp **** {
 201              		.loc 1 87 0
 202              		.cfi_startproc
 203              		@ args = 0, pretend = 0, frame = 0
 204              		@ frame_needed = 0, uses_anonymous_args = 0
 205              	.LVL10:
 206 0000 70B5     		push	{r4, r5, r6, lr}	@
 207              	.LCFI2:
 208              		.cfi_def_cfa_offset 16
 209              		.cfi_offset 4, -16
 210              		.cfi_offset 5, -12
 211              		.cfi_offset 6, -8
 212              		.cfi_offset 14, -4
 213              		.loc 1 87 0
 214 0002 0346     		mov	r3, r0	@ tx, tx
 215              	.LBB3:
  88:peripherals/spi.cpp **** 	size_t rx_length = 0;
  89:peripherals/spi.cpp **** 	uint8_t tx_byte = 0xFF;
  90:peripherals/spi.cpp **** 
  91:peripherals/spi.cpp **** 	while(length--)
 216              		.loc 1 91 0
 217 0004 1446     		mov	r4, r2	@ length, length
  89:peripherals/spi.cpp **** 	uint8_t tx_byte = 0xFF;
 218              		.loc 1 89 0
 219 0006 FF20     		movs	r0, #255	@ tx_byte,
 220              	.LVL11:
 221              	.L34:
 222              		.loc 1 91 0 discriminator 1
 223 0008 14F1FF34 		adds	r4, r4, #-1	@ length, length,
 224              	.LVL12:
 225 000c 0FD3     		bcc	.L35	@,
 226              	.L21:
 227              	.LBB4:
  92:peripherals/spi.cpp **** 	{
  93:peripherals/spi.cpp **** 		if (tx != nullptr)					// should data be transfered?
 228              		.loc 1 93 0
 229 000e 0BB1     		cbz	r3, .L18	@ tx,
  94:peripherals/spi.cpp **** 			tx_byte = *tx++;				// yes - get another byte
 230              		.loc 1 94 0
 231 0010 13F8010B 		ldrb	r0, [r3], #1	@ zero_extendqisi2	@ tx_byte, *tx_2
 232              	.LVL13:
 233              	.L18:
  95:peripherals/spi.cpp **** 		SPIx->DR = tx_byte;					// send data
 234              		.loc 1 95 0
 235 0014 074D     		ldr	r5, .L36	@ tmp144,
 236 0016 A881     		strh	r0, [r5, #12]	@ movhi	@ tx_byte, MEM[(struct SPI_TypeDef *)1073819648B].DR
 237              	.L19:
  96:peripherals/spi.cpp **** 		while (!SPIx_SR_RXNE_bb(SPIx));		// wait for transfer end
 238              		.loc 1 96 0 discriminator 1
 239 0018 074E     		ldr	r6, .L36+4	@ tmp146,
ARM GAS  /tmp/ccHAB4jl.s 			page 7


 240 001a 3668     		ldr	r6, [r6, #0]	@ D.5871, MEM[(volatile long unsigned int *)1109786880B]
 241 001c 002E     		cmp	r6, #0	@ D.5871
 242 001e FBD0     		beq	.L19	@
  97:peripherals/spi.cpp **** 		uint8_t rx_byte = SPIx->DR;			// receive data
 243              		.loc 1 97 0
 244 0020 AD89     		ldrh	r5, [r5, #12]	@, MEM[(struct SPI_TypeDef *)1073819648B].DR
 245 0022 EDB2     		uxtb	r5, r5	@ rx_byte, MEM[(struct SPI_TypeDef *)1073819648B].DR
 246              	.LVL14:
  98:peripherals/spi.cpp **** 		if (rx != nullptr)					// should data be received?
 247              		.loc 1 98 0
 248 0024 0029     		cmp	r1, #0	@ rx
 249 0026 EFD0     		beq	.L34	@
  99:peripherals/spi.cpp **** 			*rx++ = rx_byte;				// yes - store received byte
 250              		.loc 1 99 0
 251 0028 01F8015B 		strb	r5, [r1], #1	@ rx_byte, *rx_4
 252              	.LVL15:
 253 002c ECE7     		b	.L34	@
 254              	.LVL16:
 255              	.L35:
 256              	.LBE4:
 257              	.LBE3:
 100:peripherals/spi.cpp **** 		rx_length++;						// increment counter
 101:peripherals/spi.cpp **** 	}
 102:peripherals/spi.cpp **** 
 103:peripherals/spi.cpp **** 	return rx_length;
 104:peripherals/spi.cpp **** }
 258              		.loc 1 104 0
 259 002e 1046     		mov	r0, r2	@, length
 260              	.LVL17:
 261 0030 70BD     		pop	{r4, r5, r6, pc}	@
 262              	.L37:
 263 0032 00BF     		.align	2
 264              	.L36:
 265 0034 00300140 		.word	1073819648
 266 0038 00012642 		.word	1109786880
 267              		.cfi_endproc
 268              	.LFE57:
 269              		.size	_Z11spiTransferPKhPhj, .-_Z11spiTransferPKhPhj
 270              		.text
 271              	.Letext0:
 272              		.file 2 "/home/maciek/gcc-arm-none-eabi/gcc-arm-none-eabi-4_7-2013q1/bin/../lib/gcc/arm-none-eabi/
 273              		.file 3 "/home/maciek/gcc-arm-none-eabi/gcc-arm-none-eabi-4_7-2013q1/bin/../lib/gcc/arm-none-eabi/
 274              		.file 4 "/home/maciek/gcc-arm-none-eabi/gcc-arm-none-eabi-4_7-2013q1/bin/../lib/gcc/arm-none-eabi/
 275              		.file 5 "./inc/stm32l1xx.h"
 276              		.file 6 "peripherals/gpio.h"
 277              		.file 7 "<built-in>"
 278              		.file 8 "./inc/core_cm3.h"
 279              		.file 9 "peripherals/rcc.h"