ARM GAS  /tmp/cceaIirZ.s 			page 1


   1              		.syntax unified
   2              		.cpu cortex-m3
   3              		.fpu softvfp
   4              		.eabi_attribute 20, 1	@ Tag_ABI_FP_denormal
   5              		.eabi_attribute 21, 1	@ Tag_ABI_FP_exceptions
   6              		.eabi_attribute 23, 3	@ Tag_ABI_FP_number_model
   7              		.eabi_attribute 24, 1	@ Tag_ABI_align8_needed
   8              		.eabi_attribute 25, 1	@ Tag_ABI_align8_preserved
   9              		.eabi_attribute 26, 1	@ Tag_ABI_enum_size
  10              		.eabi_attribute 30, 6	@ Tag_ABI_optimization_goals
  11              		.eabi_attribute 34, 1	@ Tag_CPU_unaligned_access
  12              		.eabi_attribute 18, 4	@ Tag_ABI_PCS_wchar_t
  13              		.file	"stm32l1xx_hal_rcc_ex.cpp"
  14              	@ GNU C++ (GNU Tools for ARM Embedded Processors) version 4.7.3 20130312 (release) [ARM/embedded-4_
  15              	@	compiled by GNU C version 4.3.6, GMP version 4.3.2, MPFR version 2.4.2, MPC version 0.8.1
  16              	@ GGC heuristics: --param ggc-min-expand=100 --param ggc-min-heapsize=131072
  17              	@ options passed:  -I . -I Src -I hdr -I Inc -I Middlewares
  18              	@ -I Middlewares/ST -I Middlewares/ST/STM32_USB_Device_Library/Class/CDC
  19              	@ -I Middlewares/ST/STM32_USB_Device_Library/Core -I Drivers
  20              	@ -I Drivers/CMSIS -I Drivers/CMSIS/Device/ST/STM32L1xx
  21              	@ -I Drivers/CMSIS/Include -I Drivers/STM32L1xx_HAL_Driver
  22              	@ -imultilib armv7-m
  23              	@ -iprefix /home/maciek/gcc-arm-none-eabi/gcc-arm-none-eabi-4_7-2013q1/bin/../lib/gcc/arm-none-eabi
  24              	@ -isysroot /home/maciek/gcc-arm-none-eabi/gcc-arm-none-eabi-4_7-2013q1/bin/../arm-none-eabi
  25              	@ -MD out/stm32l1xx_hal_rcc_ex.d -MF out/stm32l1xx_hal_rcc_ex.d -MP
  26              	@ -MQ out/stm32l1xx_hal_rcc_ex.o -D__USES_INITFINI__ -D STM32L1XX_MD
  27              	@ Drivers/STM32L1xx_HAL_Driver/stm32l1xx_hal_rcc_ex.cpp -mcpu=cortex-m3
  28              	@ -mthumb -auxbase-strip out/stm32l1xx_hal_rcc_ex.o -g -ggdb3 -O0 -Wall
  29              	@ -Wextra -std=gnu++11 -ffunction-sections -fdata-sections -fno-rtti
  30              	@ -fno-exceptions -fverbose-asm
  31              	@ options enabled:  -fauto-inc-dec -fbranch-count-reg -fcommon
  32              	@ -fdata-sections -fdebug-types-section -fdelete-null-pointer-checks
  33              	@ -fdwarf2-cfi-asm -fearly-inlining -feliminate-unused-debug-types
  34              	@ -ffunction-cse -ffunction-sections -fgcse-lm -fgnu-runtime -fident
  35              	@ -finline-atomics -fira-share-save-slots -fira-share-spill-slots -fivopts
  36              	@ -fkeep-static-consts -fleading-underscore -fmath-errno
  37              	@ -fmerge-debug-strings -fmove-loop-invariants -fpeephole
  38              	@ -fprefetch-loop-arrays -freg-struct-return
  39              	@ -fsched-critical-path-heuristic -fsched-dep-count-heuristic
  40              	@ -fsched-group-heuristic -fsched-interblock -fsched-last-insn-heuristic
  41              	@ -fsched-rank-heuristic -fsched-spec -fsched-spec-insn-heuristic
  42              	@ -fsched-stalled-insns-dep -fshow-column -fsigned-zeros
  43              	@ -fsplit-ivs-in-unroller -fstrict-volatile-bitfields -ftrapping-math
  44              	@ -ftree-cselim -ftree-forwprop -ftree-loop-if-convert -ftree-loop-im
  45              	@ -ftree-loop-ivcanon -ftree-loop-optimize -ftree-parallelize-loops=
  46              	@ -ftree-phiprop -ftree-pta -ftree-reassoc -ftree-scev-cprop
  47              	@ -ftree-slp-vectorize -ftree-vect-loop-version -funit-at-a-time
  48              	@ -fverbose-asm -fzero-initialized-in-bss -mfix-cortex-m3-ldrd
  49              	@ -mlittle-endian -msched-prolog -mthumb -munaligned-access
  50              	@ -mvectorize-with-neon-quad
  51              	
  52              		.text
  53              	.Ltext0:
  54              		.cfi_sections	.debug_frame
  55              		.section	.text.HAL_RCCEx_PeriphCLKConfig,"ax",%progbits
  56              		.align	2
  57              		.global	HAL_RCCEx_PeriphCLKConfig
ARM GAS  /tmp/cceaIirZ.s 			page 2


  58              		.thumb
  59              		.thumb_func
  60              		.type	HAL_RCCEx_PeriphCLKConfig, %function
  61              	HAL_RCCEx_PeriphCLKConfig:
  62              	.LFB56:
  63              		.file 1 "Drivers/STM32L1xx_HAL_Driver/stm32l1xx_hal_rcc_ex.cpp"
   1:Drivers/STM32L1xx_HAL_Driver/stm32l1xx_hal_rcc_ex.cpp **** /**
   2:Drivers/STM32L1xx_HAL_Driver/stm32l1xx_hal_rcc_ex.cpp ****   ******************************************************************************
   3:Drivers/STM32L1xx_HAL_Driver/stm32l1xx_hal_rcc_ex.cpp ****   * @file    stm32l1xx_hal_rcc_ex.c
   4:Drivers/STM32L1xx_HAL_Driver/stm32l1xx_hal_rcc_ex.cpp ****   * @author  MCD Application Team
   5:Drivers/STM32L1xx_HAL_Driver/stm32l1xx_hal_rcc_ex.cpp ****   * @version V1.0.0
   6:Drivers/STM32L1xx_HAL_Driver/stm32l1xx_hal_rcc_ex.cpp ****   * @date    5-September-2014
   7:Drivers/STM32L1xx_HAL_Driver/stm32l1xx_hal_rcc_ex.cpp ****   * @brief   Extended RCC HAL module driver.
   8:Drivers/STM32L1xx_HAL_Driver/stm32l1xx_hal_rcc_ex.cpp ****   *    
   9:Drivers/STM32L1xx_HAL_Driver/stm32l1xx_hal_rcc_ex.cpp ****   *          This file provides firmware functions to manage the following 
  10:Drivers/STM32L1xx_HAL_Driver/stm32l1xx_hal_rcc_ex.cpp ****   *          functionalities RCC extension peripheral:
  11:Drivers/STM32L1xx_HAL_Driver/stm32l1xx_hal_rcc_ex.cpp ****   *           + Extended Peripheral Control functions
  12:Drivers/STM32L1xx_HAL_Driver/stm32l1xx_hal_rcc_ex.cpp ****   *  
  13:Drivers/STM32L1xx_HAL_Driver/stm32l1xx_hal_rcc_ex.cpp ****   ******************************************************************************
  14:Drivers/STM32L1xx_HAL_Driver/stm32l1xx_hal_rcc_ex.cpp ****   * @attention
  15:Drivers/STM32L1xx_HAL_Driver/stm32l1xx_hal_rcc_ex.cpp ****   *
  16:Drivers/STM32L1xx_HAL_Driver/stm32l1xx_hal_rcc_ex.cpp ****   * <h2><center>&copy; COPYRIGHT(c) 2014 STMicroelectronics</center></h2>
  17:Drivers/STM32L1xx_HAL_Driver/stm32l1xx_hal_rcc_ex.cpp ****   *
  18:Drivers/STM32L1xx_HAL_Driver/stm32l1xx_hal_rcc_ex.cpp ****   * Redistribution and use in source and binary forms, with or without modification,
  19:Drivers/STM32L1xx_HAL_Driver/stm32l1xx_hal_rcc_ex.cpp ****   * are permitted provided that the following conditions are met:
  20:Drivers/STM32L1xx_HAL_Driver/stm32l1xx_hal_rcc_ex.cpp ****   *   1. Redistributions of source code must retain the above copyright notice,
  21:Drivers/STM32L1xx_HAL_Driver/stm32l1xx_hal_rcc_ex.cpp ****   *      this list of conditions and the following disclaimer.
  22:Drivers/STM32L1xx_HAL_Driver/stm32l1xx_hal_rcc_ex.cpp ****   *   2. Redistributions in binary form must reproduce the above copyright notice,
  23:Drivers/STM32L1xx_HAL_Driver/stm32l1xx_hal_rcc_ex.cpp ****   *      this list of conditions and the following disclaimer in the documentation
  24:Drivers/STM32L1xx_HAL_Driver/stm32l1xx_hal_rcc_ex.cpp ****   *      and/or other materials provided with the distribution.
  25:Drivers/STM32L1xx_HAL_Driver/stm32l1xx_hal_rcc_ex.cpp ****   *   3. Neither the name of STMicroelectronics nor the names of its contributors
  26:Drivers/STM32L1xx_HAL_Driver/stm32l1xx_hal_rcc_ex.cpp ****   *      may be used to endorse or promote products derived from this software
  27:Drivers/STM32L1xx_HAL_Driver/stm32l1xx_hal_rcc_ex.cpp ****   *      without specific prior written permission.
  28:Drivers/STM32L1xx_HAL_Driver/stm32l1xx_hal_rcc_ex.cpp ****   *
  29:Drivers/STM32L1xx_HAL_Driver/stm32l1xx_hal_rcc_ex.cpp ****   * THIS SOFTWARE IS PROVIDED BY THE COPYRIGHT HOLDERS AND CONTRIBUTORS "AS IS"
  30:Drivers/STM32L1xx_HAL_Driver/stm32l1xx_hal_rcc_ex.cpp ****   * AND ANY EXPRESS OR IMPLIED WARRANTIES, INCLUDING, BUT NOT LIMITED TO, THE
  31:Drivers/STM32L1xx_HAL_Driver/stm32l1xx_hal_rcc_ex.cpp ****   * IMPLIED WARRANTIES OF MERCHANTABILITY AND FITNESS FOR A PARTICULAR PURPOSE ARE
  32:Drivers/STM32L1xx_HAL_Driver/stm32l1xx_hal_rcc_ex.cpp ****   * DISCLAIMED. IN NO EVENT SHALL THE COPYRIGHT HOLDER OR CONTRIBUTORS BE LIABLE
  33:Drivers/STM32L1xx_HAL_Driver/stm32l1xx_hal_rcc_ex.cpp ****   * FOR ANY DIRECT, INDIRECT, INCIDENTAL, SPECIAL, EXEMPLARY, OR CONSEQUENTIAL
  34:Drivers/STM32L1xx_HAL_Driver/stm32l1xx_hal_rcc_ex.cpp ****   * DAMAGES (INCLUDING, BUT NOT LIMITED TO, PROCUREMENT OF SUBSTITUTE GOODS OR
  35:Drivers/STM32L1xx_HAL_Driver/stm32l1xx_hal_rcc_ex.cpp ****   * SERVICES; LOSS OF USE, DATA, OR PROFITS; OR BUSINESS INTERRUPTION) HOWEVER
  36:Drivers/STM32L1xx_HAL_Driver/stm32l1xx_hal_rcc_ex.cpp ****   * CAUSED AND ON ANY THEORY OF LIABILITY, WHETHER IN CONTRACT, STRICT LIABILITY,
  37:Drivers/STM32L1xx_HAL_Driver/stm32l1xx_hal_rcc_ex.cpp ****   * OR TORT (INCLUDING NEGLIGENCE OR OTHERWISE) ARISING IN ANY WAY OUT OF THE USE
  38:Drivers/STM32L1xx_HAL_Driver/stm32l1xx_hal_rcc_ex.cpp ****   * OF THIS SOFTWARE, EVEN IF ADVISED OF THE POSSIBILITY OF SUCH DAMAGE.
  39:Drivers/STM32L1xx_HAL_Driver/stm32l1xx_hal_rcc_ex.cpp ****   *
  40:Drivers/STM32L1xx_HAL_Driver/stm32l1xx_hal_rcc_ex.cpp ****   ******************************************************************************  
  41:Drivers/STM32L1xx_HAL_Driver/stm32l1xx_hal_rcc_ex.cpp ****   */ 
  42:Drivers/STM32L1xx_HAL_Driver/stm32l1xx_hal_rcc_ex.cpp **** 
  43:Drivers/STM32L1xx_HAL_Driver/stm32l1xx_hal_rcc_ex.cpp **** /* Includes ------------------------------------------------------------------*/
  44:Drivers/STM32L1xx_HAL_Driver/stm32l1xx_hal_rcc_ex.cpp **** #include "stm32l1xx_hal.h"
  45:Drivers/STM32L1xx_HAL_Driver/stm32l1xx_hal_rcc_ex.cpp **** 
  46:Drivers/STM32L1xx_HAL_Driver/stm32l1xx_hal_rcc_ex.cpp **** /** @addtogroup STM32L1xx_HAL_Driver
  47:Drivers/STM32L1xx_HAL_Driver/stm32l1xx_hal_rcc_ex.cpp ****   * @{
  48:Drivers/STM32L1xx_HAL_Driver/stm32l1xx_hal_rcc_ex.cpp ****   */
  49:Drivers/STM32L1xx_HAL_Driver/stm32l1xx_hal_rcc_ex.cpp **** 
  50:Drivers/STM32L1xx_HAL_Driver/stm32l1xx_hal_rcc_ex.cpp **** /** @defgroup RCCEx RCCEx
  51:Drivers/STM32L1xx_HAL_Driver/stm32l1xx_hal_rcc_ex.cpp ****   * @brief RCC Extension HAL module driver
ARM GAS  /tmp/cceaIirZ.s 			page 3


  52:Drivers/STM32L1xx_HAL_Driver/stm32l1xx_hal_rcc_ex.cpp ****   * @{
  53:Drivers/STM32L1xx_HAL_Driver/stm32l1xx_hal_rcc_ex.cpp ****   */
  54:Drivers/STM32L1xx_HAL_Driver/stm32l1xx_hal_rcc_ex.cpp **** 
  55:Drivers/STM32L1xx_HAL_Driver/stm32l1xx_hal_rcc_ex.cpp **** #ifdef HAL_RCC_MODULE_ENABLED
  56:Drivers/STM32L1xx_HAL_Driver/stm32l1xx_hal_rcc_ex.cpp **** 
  57:Drivers/STM32L1xx_HAL_Driver/stm32l1xx_hal_rcc_ex.cpp **** /* Private typedef -----------------------------------------------------------*/
  58:Drivers/STM32L1xx_HAL_Driver/stm32l1xx_hal_rcc_ex.cpp **** /* Private define ------------------------------------------------------------*/
  59:Drivers/STM32L1xx_HAL_Driver/stm32l1xx_hal_rcc_ex.cpp **** /* Private macro -------------------------------------------------------------*/
  60:Drivers/STM32L1xx_HAL_Driver/stm32l1xx_hal_rcc_ex.cpp **** /* Private variables ---------------------------------------------------------*/
  61:Drivers/STM32L1xx_HAL_Driver/stm32l1xx_hal_rcc_ex.cpp **** /* Private function prototypes -----------------------------------------------*/
  62:Drivers/STM32L1xx_HAL_Driver/stm32l1xx_hal_rcc_ex.cpp **** /* Private functions ---------------------------------------------------------*/
  63:Drivers/STM32L1xx_HAL_Driver/stm32l1xx_hal_rcc_ex.cpp **** 
  64:Drivers/STM32L1xx_HAL_Driver/stm32l1xx_hal_rcc_ex.cpp **** /** @defgroup RCCEx_Private_Functions RCCEx Exported Functions
  65:Drivers/STM32L1xx_HAL_Driver/stm32l1xx_hal_rcc_ex.cpp ****   * @{
  66:Drivers/STM32L1xx_HAL_Driver/stm32l1xx_hal_rcc_ex.cpp ****   */
  67:Drivers/STM32L1xx_HAL_Driver/stm32l1xx_hal_rcc_ex.cpp **** 
  68:Drivers/STM32L1xx_HAL_Driver/stm32l1xx_hal_rcc_ex.cpp **** /** @defgroup RCCEx_Exported_Functions_Group1 Extended Peripheral Control functions 
  69:Drivers/STM32L1xx_HAL_Driver/stm32l1xx_hal_rcc_ex.cpp ****  *  @brief  Extended Peripheral Control functions  
  70:Drivers/STM32L1xx_HAL_Driver/stm32l1xx_hal_rcc_ex.cpp ****  *
  71:Drivers/STM32L1xx_HAL_Driver/stm32l1xx_hal_rcc_ex.cpp **** @verbatim   
  72:Drivers/STM32L1xx_HAL_Driver/stm32l1xx_hal_rcc_ex.cpp ****  ===============================================================================
  73:Drivers/STM32L1xx_HAL_Driver/stm32l1xx_hal_rcc_ex.cpp ****                 ##### Extended Peripheral Control functions  #####
  74:Drivers/STM32L1xx_HAL_Driver/stm32l1xx_hal_rcc_ex.cpp ****  ===============================================================================  
  75:Drivers/STM32L1xx_HAL_Driver/stm32l1xx_hal_rcc_ex.cpp ****     [..]
  76:Drivers/STM32L1xx_HAL_Driver/stm32l1xx_hal_rcc_ex.cpp ****     This subsection provides a set of functions allowing to control the RCC Clocks 
  77:Drivers/STM32L1xx_HAL_Driver/stm32l1xx_hal_rcc_ex.cpp ****     frequencies.
  78:Drivers/STM32L1xx_HAL_Driver/stm32l1xx_hal_rcc_ex.cpp ****     [..] 
  79:Drivers/STM32L1xx_HAL_Driver/stm32l1xx_hal_rcc_ex.cpp ****     (@) Important note: Care must be taken when HAL_RCCEx_PeriphCLKConfig() is used to
  80:Drivers/STM32L1xx_HAL_Driver/stm32l1xx_hal_rcc_ex.cpp ****         select the RTC clock source; in this case the Backup domain will be reset in  
  81:Drivers/STM32L1xx_HAL_Driver/stm32l1xx_hal_rcc_ex.cpp ****         order to modify the RTC Clock source, as consequence RTC registers (including 
  82:Drivers/STM32L1xx_HAL_Driver/stm32l1xx_hal_rcc_ex.cpp ****         the backup registers) and RCC_BDCR register are set to their reset values.
  83:Drivers/STM32L1xx_HAL_Driver/stm32l1xx_hal_rcc_ex.cpp ****       
  84:Drivers/STM32L1xx_HAL_Driver/stm32l1xx_hal_rcc_ex.cpp **** @endverbatim
  85:Drivers/STM32L1xx_HAL_Driver/stm32l1xx_hal_rcc_ex.cpp ****   * @{
  86:Drivers/STM32L1xx_HAL_Driver/stm32l1xx_hal_rcc_ex.cpp ****   */
  87:Drivers/STM32L1xx_HAL_Driver/stm32l1xx_hal_rcc_ex.cpp **** 
  88:Drivers/STM32L1xx_HAL_Driver/stm32l1xx_hal_rcc_ex.cpp **** /**
  89:Drivers/STM32L1xx_HAL_Driver/stm32l1xx_hal_rcc_ex.cpp ****   * @brief  Initializes the RCC extended peripherals clocks according to the specified parameters i
  90:Drivers/STM32L1xx_HAL_Driver/stm32l1xx_hal_rcc_ex.cpp ****   *         RCC_PeriphCLKInitTypeDef.
  91:Drivers/STM32L1xx_HAL_Driver/stm32l1xx_hal_rcc_ex.cpp ****   * @param  PeriphClkInit: pointer to an RCC_PeriphCLKInitTypeDef structure that
  92:Drivers/STM32L1xx_HAL_Driver/stm32l1xx_hal_rcc_ex.cpp ****   *         contains the configuration information for the Extended Peripherals clocks(RTC/LCD cloc
  93:Drivers/STM32L1xx_HAL_Driver/stm32l1xx_hal_rcc_ex.cpp ****   * @retval HAL status
  94:Drivers/STM32L1xx_HAL_Driver/stm32l1xx_hal_rcc_ex.cpp ****   */
  95:Drivers/STM32L1xx_HAL_Driver/stm32l1xx_hal_rcc_ex.cpp **** HAL_StatusTypeDef HAL_RCCEx_PeriphCLKConfig(RCC_PeriphCLKInitTypeDef  *PeriphClkInit)
  96:Drivers/STM32L1xx_HAL_Driver/stm32l1xx_hal_rcc_ex.cpp **** {
  64              		.loc 1 96 0
  65              		.cfi_startproc
  66              		@ args = 0, pretend = 0, frame = 80
  67              		@ frame_needed = 1, uses_anonymous_args = 0
  68 0000 90B5     		push	{r4, r7, lr}	@
  69              	.LCFI0:
  70              		.cfi_def_cfa_offset 12
  71              		.cfi_offset 4, -12
  72              		.cfi_offset 7, -8
  73              		.cfi_offset 14, -4
  74 0002 95B0     		sub	sp, sp, #84	@,,
  75              	.LCFI1:
ARM GAS  /tmp/cceaIirZ.s 			page 4


  76              		.cfi_def_cfa_offset 96
  77 0004 00AF     		add	r7, sp, #0	@,,
  78              	.LCFI2:
  79              		.cfi_def_cfa_register 7
  80 0006 7860     		str	r0, [r7, #4]	@ PeriphClkInit, PeriphClkInit
  81              	.LBB27:
  97:Drivers/STM32L1xx_HAL_Driver/stm32l1xx_hal_rcc_ex.cpp ****   uint32_t tickstart = 0;   
  82              		.loc 1 97 0
  83 0008 4FF00003 		mov	r3, #0	@ tmp229,
  84 000c FB64     		str	r3, [r7, #76]	@ tmp229, tickstart
  98:Drivers/STM32L1xx_HAL_Driver/stm32l1xx_hal_rcc_ex.cpp ****   uint32_t tmpreg = 0;
  85              		.loc 1 98 0
  86 000e 4FF00003 		mov	r3, #0	@ tmp230,
  87 0012 BB64     		str	r3, [r7, #72]	@ tmp230, tmpreg
  99:Drivers/STM32L1xx_HAL_Driver/stm32l1xx_hal_rcc_ex.cpp **** 
 100:Drivers/STM32L1xx_HAL_Driver/stm32l1xx_hal_rcc_ex.cpp ****   /* Check the parameters */
 101:Drivers/STM32L1xx_HAL_Driver/stm32l1xx_hal_rcc_ex.cpp ****   assert_param(IS_RCC_PERIPHCLOCK(PeriphClkInit->PeriphClockSelection));
 102:Drivers/STM32L1xx_HAL_Driver/stm32l1xx_hal_rcc_ex.cpp ****   
 103:Drivers/STM32L1xx_HAL_Driver/stm32l1xx_hal_rcc_ex.cpp ****   /*------------------------------- RTC/LCD Configuration ------------------------*/ 
 104:Drivers/STM32L1xx_HAL_Driver/stm32l1xx_hal_rcc_ex.cpp ****   if ((((PeriphClkInit->PeriphClockSelection) & RCC_PERIPHCLK_RTC) == RCC_PERIPHCLK_RTC) 
  88              		.loc 1 104 0
  89 0014 7B68     		ldr	r3, [r7, #4]	@ tmp231, PeriphClkInit
  90 0016 1B68     		ldr	r3, [r3, #0]	@ D.5858, PeriphClkInit_5(D)->PeriphClockSelection
  91 0018 03F00103 		and	r3, r3, #1	@ D.5859, D.5858,
  92 001c 002B     		cmp	r3, #0	@ D.5859,
  93 001e 06D1     		bne	.L2	@,
  94              		.loc 1 104 0 is_stmt 0 discriminator 1
  95 0020 7B68     		ldr	r3, [r7, #4]	@ tmp232, PeriphClkInit
  96 0022 1B68     		ldr	r3, [r3, #0]	@ D.5861, PeriphClkInit_5(D)->PeriphClockSelection
  97 0024 03F00203 		and	r3, r3, #2	@ D.5862, D.5861,
  98 0028 002B     		cmp	r3, #0	@ D.5862,
  99 002a 00F01481 		beq	.L3	@,
 100              	.L2:
 105:Drivers/STM32L1xx_HAL_Driver/stm32l1xx_hal_rcc_ex.cpp **** #if defined (STM32L100xB) || defined (STM32L100xBA) || defined (STM32L100xC) ||\
 106:Drivers/STM32L1xx_HAL_Driver/stm32l1xx_hal_rcc_ex.cpp ****     defined(STM32L152xB) || defined(STM32L152xBA) || defined(STM32L152xC) || \
 107:Drivers/STM32L1xx_HAL_Driver/stm32l1xx_hal_rcc_ex.cpp ****     defined(STM32L162xC) || defined(STM32L152xCA) || defined(STM32L152xD) || \
 108:Drivers/STM32L1xx_HAL_Driver/stm32l1xx_hal_rcc_ex.cpp ****     defined(STM32L162xCA) || defined(STM32L162xD) || defined(STM32L152xE) || \
 109:Drivers/STM32L1xx_HAL_Driver/stm32l1xx_hal_rcc_ex.cpp ****     defined(STM32L162xE)
 110:Drivers/STM32L1xx_HAL_Driver/stm32l1xx_hal_rcc_ex.cpp ****     || (((PeriphClkInit->PeriphClockSelection) & RCC_PERIPHCLK_LCD) == RCC_PERIPHCLK_LCD)
 111:Drivers/STM32L1xx_HAL_Driver/stm32l1xx_hal_rcc_ex.cpp **** #endif /* STM32L100xB || STM32L152xBA || ... || STM32L152xE || STM32L162xE */
 112:Drivers/STM32L1xx_HAL_Driver/stm32l1xx_hal_rcc_ex.cpp ****     )
 113:Drivers/STM32L1xx_HAL_Driver/stm32l1xx_hal_rcc_ex.cpp ****     {
 114:Drivers/STM32L1xx_HAL_Driver/stm32l1xx_hal_rcc_ex.cpp ****     /* Enable Power Controller clock */
 115:Drivers/STM32L1xx_HAL_Driver/stm32l1xx_hal_rcc_ex.cpp ****     __PWR_CLK_ENABLE();
 101              		.loc 1 115 0 is_stmt 1
 102 002e 4FF46053 		mov	r3, #14336	@ D.5863,
 103 0032 C4F20203 		movt	r3, 16386	@ D.5863,
 104 0036 4FF46052 		mov	r2, #14336	@ D.5864,
 105 003a C4F20202 		movt	r2, 16386	@ D.5864,
 106 003e 526A     		ldr	r2, [r2, #36]	@ D.5865, D.5864_11->APB1ENR
 107 0040 42F08052 		orr	r2, r2, #268435456	@ D.5866, D.5865,
 108 0044 5A62     		str	r2, [r3, #36]	@ D.5866, D.5863_10->APB1ENR
 116:Drivers/STM32L1xx_HAL_Driver/stm32l1xx_hal_rcc_ex.cpp ****     
 117:Drivers/STM32L1xx_HAL_Driver/stm32l1xx_hal_rcc_ex.cpp ****     /* Enable write access to Backup domain */
 118:Drivers/STM32L1xx_HAL_Driver/stm32l1xx_hal_rcc_ex.cpp ****     SET_BIT(PWR->CR, PWR_CR_DBP);
 109              		.loc 1 118 0
 110 0046 4FF4E043 		mov	r3, #28672	@ D.5867,
ARM GAS  /tmp/cceaIirZ.s 			page 5


 111 004a C4F20003 		movt	r3, 16384	@ D.5867,
 112 004e 4FF4E042 		mov	r2, #28672	@ D.5868,
 113 0052 C4F20002 		movt	r2, 16384	@ D.5868,
 114 0056 1268     		ldr	r2, [r2, #0]	@ D.5869, D.5868_15->CR
 115 0058 42F48072 		orr	r2, r2, #256	@ D.5870, D.5869,
 116 005c 1A60     		str	r2, [r3, #0]	@ D.5870, D.5867_14->CR
 119:Drivers/STM32L1xx_HAL_Driver/stm32l1xx_hal_rcc_ex.cpp **** 
 120:Drivers/STM32L1xx_HAL_Driver/stm32l1xx_hal_rcc_ex.cpp ****     /* Wait for Backup domain Write protection disable */
 121:Drivers/STM32L1xx_HAL_Driver/stm32l1xx_hal_rcc_ex.cpp ****     tickstart = HAL_GetTick();
 117              		.loc 1 121 0
 118 005e FFF7FEFF 		bl	HAL_GetTick	@
 119 0062 F864     		str	r0, [r7, #76]	@, tickstart
 122:Drivers/STM32L1xx_HAL_Driver/stm32l1xx_hal_rcc_ex.cpp ****     
 123:Drivers/STM32L1xx_HAL_Driver/stm32l1xx_hal_rcc_ex.cpp ****     while((PWR->CR & PWR_CR_DBP) == RESET)
 120              		.loc 1 123 0
 121 0064 0EE0     		b	.L4	@
 122              	.L6:
 124:Drivers/STM32L1xx_HAL_Driver/stm32l1xx_hal_rcc_ex.cpp ****     {
 125:Drivers/STM32L1xx_HAL_Driver/stm32l1xx_hal_rcc_ex.cpp ****       if((HAL_GetTick() - tickstart ) > DBP_TIMEOUT_VALUE)
 123              		.loc 1 125 0
 124 0066 FFF7FEFF 		bl	HAL_GetTick	@
 125 006a 0246     		mov	r2, r0	@ D.5879,
 126 006c FB6C     		ldr	r3, [r7, #76]	@ tmp233, tickstart
 127 006e D31A     		subs	r3, r2, r3	@ D.5880, D.5879, tmp233
 128 0070 642B     		cmp	r3, #100	@ D.5880,
 129 0072 94BF     		ite	ls	@
 130 0074 0023     		movls	r3, #0	@, tmp235
 131 0076 0123     		movhi	r3, #1	@, tmp235
 132 0078 DBB2     		uxtb	r3, r3	@ retval.1, tmp234
 133 007a 002B     		cmp	r3, #0	@ retval.1,
 134 007c 02D0     		beq	.L4	@,
 126:Drivers/STM32L1xx_HAL_Driver/stm32l1xx_hal_rcc_ex.cpp ****       {
 127:Drivers/STM32L1xx_HAL_Driver/stm32l1xx_hal_rcc_ex.cpp ****         return HAL_TIMEOUT;
 135              		.loc 1 127 0
 136 007e 4FF00303 		mov	r3, #3	@ D.5883,
 137 0082 EAE0     		b	.L5	@
 138              	.L4:
 123:Drivers/STM32L1xx_HAL_Driver/stm32l1xx_hal_rcc_ex.cpp ****     while((PWR->CR & PWR_CR_DBP) == RESET)
 139              		.loc 1 123 0 discriminator 1
 140 0084 4FF4E043 		mov	r3, #28672	@ D.5875,
 141 0088 C4F20003 		movt	r3, 16384	@ D.5875,
 142 008c 1B68     		ldr	r3, [r3, #0]	@ D.5876, D.5875_19->CR
 143 008e 03F48073 		and	r3, r3, #256	@ D.5877, D.5876,
 144 0092 002B     		cmp	r3, #0	@ D.5877,
 145 0094 14BF     		ite	ne	@
 146 0096 0023     		movne	r3, #0	@, tmp237
 147 0098 0123     		moveq	r3, #1	@, tmp237
 148 009a DBB2     		uxtb	r3, r3	@ retval.0, tmp236
 149 009c 002B     		cmp	r3, #0	@ retval.0,
 150 009e E2D1     		bne	.L6	@,
 128:Drivers/STM32L1xx_HAL_Driver/stm32l1xx_hal_rcc_ex.cpp ****       }      
 129:Drivers/STM32L1xx_HAL_Driver/stm32l1xx_hal_rcc_ex.cpp ****     }
 130:Drivers/STM32L1xx_HAL_Driver/stm32l1xx_hal_rcc_ex.cpp ****     
 131:Drivers/STM32L1xx_HAL_Driver/stm32l1xx_hal_rcc_ex.cpp ****     tmpreg = (RCC->CSR & RCC_CSR_RTCSEL);
 151              		.loc 1 131 0
 152 00a0 4FF46053 		mov	r3, #14336	@ D.5884,
 153 00a4 C4F20203 		movt	r3, 16386	@ D.5884,
ARM GAS  /tmp/cceaIirZ.s 			page 6


 154 00a8 5B6B     		ldr	r3, [r3, #52]	@ D.5885, D.5884_27->CSR
 155 00aa 03F44033 		and	r3, r3, #196608	@ tmp238, D.5885,
 156 00ae BB64     		str	r3, [r7, #72]	@ tmp238, tmpreg
 132:Drivers/STM32L1xx_HAL_Driver/stm32l1xx_hal_rcc_ex.cpp ****     /* Reset the Backup domain only if the RTC Clock source selection is modified */ 
 133:Drivers/STM32L1xx_HAL_Driver/stm32l1xx_hal_rcc_ex.cpp ****     if((tmpreg != (PeriphClkInit->RTCClockSelection & RCC_CSR_RTCSEL))
 157              		.loc 1 133 0
 158 00b0 7B68     		ldr	r3, [r7, #4]	@ tmp239, PeriphClkInit
 159 00b2 5B68     		ldr	r3, [r3, #4]	@ D.5888, PeriphClkInit_5(D)->RTCClockSelection
 160 00b4 03F44032 		and	r2, r3, #196608	@ D.5889, D.5888,
 161 00b8 BB6C     		ldr	r3, [r7, #72]	@ tmp240, tmpreg
 162 00ba 9A42     		cmp	r2, r3	@ D.5889, tmp240
 163 00bc 06D1     		bne	.L7	@,
 164              		.loc 1 133 0 is_stmt 0 discriminator 1
 165 00be 7B68     		ldr	r3, [r7, #4]	@ tmp241, PeriphClkInit
 166 00c0 9B68     		ldr	r3, [r3, #8]	@ D.5891, PeriphClkInit_5(D)->LCDClockSelection
 167 00c2 03F44032 		and	r2, r3, #196608	@ D.5892, D.5891,
 168 00c6 BB6C     		ldr	r3, [r7, #72]	@ tmp242, tmpreg
 169 00c8 9A42     		cmp	r2, r3	@ D.5892, tmp242
 170 00ca 41D0     		beq	.L8	@,
 171              	.L7:
 134:Drivers/STM32L1xx_HAL_Driver/stm32l1xx_hal_rcc_ex.cpp **** #if defined (STM32L100xB) || defined (STM32L100xBA) || defined (STM32L100xC) ||\
 135:Drivers/STM32L1xx_HAL_Driver/stm32l1xx_hal_rcc_ex.cpp ****     defined(STM32L152xB) || defined(STM32L152xBA) || defined(STM32L152xC) || \
 136:Drivers/STM32L1xx_HAL_Driver/stm32l1xx_hal_rcc_ex.cpp ****     defined(STM32L162xC) || defined(STM32L152xCA) || defined(STM32L152xD) || \
 137:Drivers/STM32L1xx_HAL_Driver/stm32l1xx_hal_rcc_ex.cpp ****     defined(STM32L162xCA) || defined(STM32L162xD) || defined(STM32L152xE) || \
 138:Drivers/STM32L1xx_HAL_Driver/stm32l1xx_hal_rcc_ex.cpp ****     defined(STM32L162xE)
 139:Drivers/STM32L1xx_HAL_Driver/stm32l1xx_hal_rcc_ex.cpp ****     || (tmpreg != (PeriphClkInit->LCDClockSelection & RCC_CSR_RTCSEL))
 140:Drivers/STM32L1xx_HAL_Driver/stm32l1xx_hal_rcc_ex.cpp **** #endif /* STM32L100xB || STM32L152xBA || ... || STM32L152xE || STM32L162xE */
 141:Drivers/STM32L1xx_HAL_Driver/stm32l1xx_hal_rcc_ex.cpp ****     )
 142:Drivers/STM32L1xx_HAL_Driver/stm32l1xx_hal_rcc_ex.cpp ****     {
 143:Drivers/STM32L1xx_HAL_Driver/stm32l1xx_hal_rcc_ex.cpp ****       /* Store the content of CSR register before the reset of Backup Domain */
 144:Drivers/STM32L1xx_HAL_Driver/stm32l1xx_hal_rcc_ex.cpp ****       tmpreg = (RCC->CSR & ~(RCC_CSR_RTCSEL));
 172              		.loc 1 144 0 is_stmt 1
 173 00cc 4FF46053 		mov	r3, #14336	@ D.5893,
 174 00d0 C4F20203 		movt	r3, 16386	@ D.5893,
 175 00d4 5B6B     		ldr	r3, [r3, #52]	@ D.5894, D.5893_34->CSR
 176 00d6 23F44033 		bic	r3, r3, #196608	@ tmp243, D.5894,
 177 00da BB64     		str	r3, [r7, #72]	@ tmp243, tmpreg
 178 00dc 4FF40003 		mov	r3, #8388608	@ tmp244,
 179 00e0 7B64     		str	r3, [r7, #68]	@ tmp244, value
 180              	.LBB28:
 181              	.LBB29:
 182              	.LBB30:
 183              		.file 2 "Drivers/CMSIS/Include/core_cmInstr.h"
   1:Drivers/CMSIS/Include/core_cmInstr.h **** /**************************************************************************//**
   2:Drivers/CMSIS/Include/core_cmInstr.h ****  * @file     core_cmInstr.h
   3:Drivers/CMSIS/Include/core_cmInstr.h ****  * @brief    CMSIS Cortex-M Core Instruction Access Header File
   4:Drivers/CMSIS/Include/core_cmInstr.h ****  * @version  V3.20
   5:Drivers/CMSIS/Include/core_cmInstr.h ****  * @date     05. March 2013
   6:Drivers/CMSIS/Include/core_cmInstr.h ****  *
   7:Drivers/CMSIS/Include/core_cmInstr.h ****  * @note
   8:Drivers/CMSIS/Include/core_cmInstr.h ****  *
   9:Drivers/CMSIS/Include/core_cmInstr.h ****  ******************************************************************************/
  10:Drivers/CMSIS/Include/core_cmInstr.h **** /* Copyright (c) 2009 - 2013 ARM LIMITED
  11:Drivers/CMSIS/Include/core_cmInstr.h **** 
  12:Drivers/CMSIS/Include/core_cmInstr.h ****    All rights reserved.
  13:Drivers/CMSIS/Include/core_cmInstr.h ****    Redistribution and use in source and binary forms, with or without
  14:Drivers/CMSIS/Include/core_cmInstr.h ****    modification, are permitted provided that the following conditions are met:
ARM GAS  /tmp/cceaIirZ.s 			page 7


  15:Drivers/CMSIS/Include/core_cmInstr.h ****    - Redistributions of source code must retain the above copyright
  16:Drivers/CMSIS/Include/core_cmInstr.h ****      notice, this list of conditions and the following disclaimer.
  17:Drivers/CMSIS/Include/core_cmInstr.h ****    - Redistributions in binary form must reproduce the above copyright
  18:Drivers/CMSIS/Include/core_cmInstr.h ****      notice, this list of conditions and the following disclaimer in the
  19:Drivers/CMSIS/Include/core_cmInstr.h ****      documentation and/or other materials provided with the distribution.
  20:Drivers/CMSIS/Include/core_cmInstr.h ****    - Neither the name of ARM nor the names of its contributors may be used
  21:Drivers/CMSIS/Include/core_cmInstr.h ****      to endorse or promote products derived from this software without
  22:Drivers/CMSIS/Include/core_cmInstr.h ****      specific prior written permission.
  23:Drivers/CMSIS/Include/core_cmInstr.h ****    *
  24:Drivers/CMSIS/Include/core_cmInstr.h ****    THIS SOFTWARE IS PROVIDED BY THE COPYRIGHT HOLDERS AND CONTRIBUTORS "AS IS"
  25:Drivers/CMSIS/Include/core_cmInstr.h ****    AND ANY EXPRESS OR IMPLIED WARRANTIES, INCLUDING, BUT NOT LIMITED TO, THE
  26:Drivers/CMSIS/Include/core_cmInstr.h ****    IMPLIED WARRANTIES OF MERCHANTABILITY AND FITNESS FOR A PARTICULAR PURPOSE
  27:Drivers/CMSIS/Include/core_cmInstr.h ****    ARE DISCLAIMED. IN NO EVENT SHALL COPYRIGHT HOLDERS AND CONTRIBUTORS BE
  28:Drivers/CMSIS/Include/core_cmInstr.h ****    LIABLE FOR ANY DIRECT, INDIRECT, INCIDENTAL, SPECIAL, EXEMPLARY, OR
  29:Drivers/CMSIS/Include/core_cmInstr.h ****    CONSEQUENTIAL DAMAGES (INCLUDING, BUT NOT LIMITED TO, PROCUREMENT OF
  30:Drivers/CMSIS/Include/core_cmInstr.h ****    SUBSTITUTE GOODS OR SERVICES; LOSS OF USE, DATA, OR PROFITS; OR BUSINESS
  31:Drivers/CMSIS/Include/core_cmInstr.h ****    INTERRUPTION) HOWEVER CAUSED AND ON ANY THEORY OF LIABILITY, WHETHER IN
  32:Drivers/CMSIS/Include/core_cmInstr.h ****    CONTRACT, STRICT LIABILITY, OR TORT (INCLUDING NEGLIGENCE OR OTHERWISE)
  33:Drivers/CMSIS/Include/core_cmInstr.h ****    ARISING IN ANY WAY OUT OF THE USE OF THIS SOFTWARE, EVEN IF ADVISED OF THE
  34:Drivers/CMSIS/Include/core_cmInstr.h ****    POSSIBILITY OF SUCH DAMAGE.
  35:Drivers/CMSIS/Include/core_cmInstr.h ****    ---------------------------------------------------------------------------*/
  36:Drivers/CMSIS/Include/core_cmInstr.h **** 
  37:Drivers/CMSIS/Include/core_cmInstr.h **** 
  38:Drivers/CMSIS/Include/core_cmInstr.h **** #ifndef __CORE_CMINSTR_H
  39:Drivers/CMSIS/Include/core_cmInstr.h **** #define __CORE_CMINSTR_H
  40:Drivers/CMSIS/Include/core_cmInstr.h **** 
  41:Drivers/CMSIS/Include/core_cmInstr.h **** 
  42:Drivers/CMSIS/Include/core_cmInstr.h **** /* ##########################  Core Instruction Access  ######################### */
  43:Drivers/CMSIS/Include/core_cmInstr.h **** /** \defgroup CMSIS_Core_InstructionInterface CMSIS Core Instruction Interface
  44:Drivers/CMSIS/Include/core_cmInstr.h ****   Access to dedicated instructions
  45:Drivers/CMSIS/Include/core_cmInstr.h ****   @{
  46:Drivers/CMSIS/Include/core_cmInstr.h **** */
  47:Drivers/CMSIS/Include/core_cmInstr.h **** 
  48:Drivers/CMSIS/Include/core_cmInstr.h **** #if   defined ( __CC_ARM ) /*------------------RealView Compiler -----------------*/
  49:Drivers/CMSIS/Include/core_cmInstr.h **** /* ARM armcc specific functions */
  50:Drivers/CMSIS/Include/core_cmInstr.h **** 
  51:Drivers/CMSIS/Include/core_cmInstr.h **** #if (__ARMCC_VERSION < 400677)
  52:Drivers/CMSIS/Include/core_cmInstr.h ****   #error "Please use ARM Compiler Toolchain V4.0.677 or later!"
  53:Drivers/CMSIS/Include/core_cmInstr.h **** #endif
  54:Drivers/CMSIS/Include/core_cmInstr.h **** 
  55:Drivers/CMSIS/Include/core_cmInstr.h **** 
  56:Drivers/CMSIS/Include/core_cmInstr.h **** /** \brief  No Operation
  57:Drivers/CMSIS/Include/core_cmInstr.h **** 
  58:Drivers/CMSIS/Include/core_cmInstr.h ****     No Operation does nothing. This instruction can be used for code alignment purposes.
  59:Drivers/CMSIS/Include/core_cmInstr.h ****  */
  60:Drivers/CMSIS/Include/core_cmInstr.h **** #define __NOP                             __nop
  61:Drivers/CMSIS/Include/core_cmInstr.h **** 
  62:Drivers/CMSIS/Include/core_cmInstr.h **** 
  63:Drivers/CMSIS/Include/core_cmInstr.h **** /** \brief  Wait For Interrupt
  64:Drivers/CMSIS/Include/core_cmInstr.h **** 
  65:Drivers/CMSIS/Include/core_cmInstr.h ****     Wait For Interrupt is a hint instruction that suspends execution
  66:Drivers/CMSIS/Include/core_cmInstr.h ****     until one of a number of events occurs.
  67:Drivers/CMSIS/Include/core_cmInstr.h ****  */
  68:Drivers/CMSIS/Include/core_cmInstr.h **** #define __WFI                             __wfi
  69:Drivers/CMSIS/Include/core_cmInstr.h **** 
  70:Drivers/CMSIS/Include/core_cmInstr.h **** 
  71:Drivers/CMSIS/Include/core_cmInstr.h **** /** \brief  Wait For Event
ARM GAS  /tmp/cceaIirZ.s 			page 8


  72:Drivers/CMSIS/Include/core_cmInstr.h **** 
  73:Drivers/CMSIS/Include/core_cmInstr.h ****     Wait For Event is a hint instruction that permits the processor to enter
  74:Drivers/CMSIS/Include/core_cmInstr.h ****     a low-power state until one of a number of events occurs.
  75:Drivers/CMSIS/Include/core_cmInstr.h ****  */
  76:Drivers/CMSIS/Include/core_cmInstr.h **** #define __WFE                             __wfe
  77:Drivers/CMSIS/Include/core_cmInstr.h **** 
  78:Drivers/CMSIS/Include/core_cmInstr.h **** 
  79:Drivers/CMSIS/Include/core_cmInstr.h **** /** \brief  Send Event
  80:Drivers/CMSIS/Include/core_cmInstr.h **** 
  81:Drivers/CMSIS/Include/core_cmInstr.h ****     Send Event is a hint instruction. It causes an event to be signaled to the CPU.
  82:Drivers/CMSIS/Include/core_cmInstr.h ****  */
  83:Drivers/CMSIS/Include/core_cmInstr.h **** #define __SEV                             __sev
  84:Drivers/CMSIS/Include/core_cmInstr.h **** 
  85:Drivers/CMSIS/Include/core_cmInstr.h **** 
  86:Drivers/CMSIS/Include/core_cmInstr.h **** /** \brief  Instruction Synchronization Barrier
  87:Drivers/CMSIS/Include/core_cmInstr.h **** 
  88:Drivers/CMSIS/Include/core_cmInstr.h ****     Instruction Synchronization Barrier flushes the pipeline in the processor,
  89:Drivers/CMSIS/Include/core_cmInstr.h ****     so that all instructions following the ISB are fetched from cache or
  90:Drivers/CMSIS/Include/core_cmInstr.h ****     memory, after the instruction has been completed.
  91:Drivers/CMSIS/Include/core_cmInstr.h ****  */
  92:Drivers/CMSIS/Include/core_cmInstr.h **** #define __ISB()                           __isb(0xF)
  93:Drivers/CMSIS/Include/core_cmInstr.h **** 
  94:Drivers/CMSIS/Include/core_cmInstr.h **** 
  95:Drivers/CMSIS/Include/core_cmInstr.h **** /** \brief  Data Synchronization Barrier
  96:Drivers/CMSIS/Include/core_cmInstr.h **** 
  97:Drivers/CMSIS/Include/core_cmInstr.h ****     This function acts as a special kind of Data Memory Barrier.
  98:Drivers/CMSIS/Include/core_cmInstr.h ****     It completes when all explicit memory accesses before this instruction complete.
  99:Drivers/CMSIS/Include/core_cmInstr.h ****  */
 100:Drivers/CMSIS/Include/core_cmInstr.h **** #define __DSB()                           __dsb(0xF)
 101:Drivers/CMSIS/Include/core_cmInstr.h **** 
 102:Drivers/CMSIS/Include/core_cmInstr.h **** 
 103:Drivers/CMSIS/Include/core_cmInstr.h **** /** \brief  Data Memory Barrier
 104:Drivers/CMSIS/Include/core_cmInstr.h **** 
 105:Drivers/CMSIS/Include/core_cmInstr.h ****     This function ensures the apparent order of the explicit memory operations before
 106:Drivers/CMSIS/Include/core_cmInstr.h ****     and after the instruction, without ensuring their completion.
 107:Drivers/CMSIS/Include/core_cmInstr.h ****  */
 108:Drivers/CMSIS/Include/core_cmInstr.h **** #define __DMB()                           __dmb(0xF)
 109:Drivers/CMSIS/Include/core_cmInstr.h **** 
 110:Drivers/CMSIS/Include/core_cmInstr.h **** 
 111:Drivers/CMSIS/Include/core_cmInstr.h **** /** \brief  Reverse byte order (32 bit)
 112:Drivers/CMSIS/Include/core_cmInstr.h **** 
 113:Drivers/CMSIS/Include/core_cmInstr.h ****     This function reverses the byte order in integer value.
 114:Drivers/CMSIS/Include/core_cmInstr.h **** 
 115:Drivers/CMSIS/Include/core_cmInstr.h ****     \param [in]    value  Value to reverse
 116:Drivers/CMSIS/Include/core_cmInstr.h ****     \return               Reversed value
 117:Drivers/CMSIS/Include/core_cmInstr.h ****  */
 118:Drivers/CMSIS/Include/core_cmInstr.h **** #define __REV                             __rev
 119:Drivers/CMSIS/Include/core_cmInstr.h **** 
 120:Drivers/CMSIS/Include/core_cmInstr.h **** 
 121:Drivers/CMSIS/Include/core_cmInstr.h **** /** \brief  Reverse byte order (16 bit)
 122:Drivers/CMSIS/Include/core_cmInstr.h **** 
 123:Drivers/CMSIS/Include/core_cmInstr.h ****     This function reverses the byte order in two unsigned short values.
 124:Drivers/CMSIS/Include/core_cmInstr.h **** 
 125:Drivers/CMSIS/Include/core_cmInstr.h ****     \param [in]    value  Value to reverse
 126:Drivers/CMSIS/Include/core_cmInstr.h ****     \return               Reversed value
 127:Drivers/CMSIS/Include/core_cmInstr.h ****  */
 128:Drivers/CMSIS/Include/core_cmInstr.h **** #ifndef __NO_EMBEDDED_ASM
ARM GAS  /tmp/cceaIirZ.s 			page 9


 129:Drivers/CMSIS/Include/core_cmInstr.h **** __attribute__((section(".rev16_text"))) __STATIC_INLINE __ASM uint32_t __REV16(uint32_t value)
 130:Drivers/CMSIS/Include/core_cmInstr.h **** {
 131:Drivers/CMSIS/Include/core_cmInstr.h ****   rev16 r0, r0
 132:Drivers/CMSIS/Include/core_cmInstr.h ****   bx lr
 133:Drivers/CMSIS/Include/core_cmInstr.h **** }
 134:Drivers/CMSIS/Include/core_cmInstr.h **** #endif
 135:Drivers/CMSIS/Include/core_cmInstr.h **** 
 136:Drivers/CMSIS/Include/core_cmInstr.h **** /** \brief  Reverse byte order in signed short value
 137:Drivers/CMSIS/Include/core_cmInstr.h **** 
 138:Drivers/CMSIS/Include/core_cmInstr.h ****     This function reverses the byte order in a signed short value with sign extension to integer.
 139:Drivers/CMSIS/Include/core_cmInstr.h **** 
 140:Drivers/CMSIS/Include/core_cmInstr.h ****     \param [in]    value  Value to reverse
 141:Drivers/CMSIS/Include/core_cmInstr.h ****     \return               Reversed value
 142:Drivers/CMSIS/Include/core_cmInstr.h ****  */
 143:Drivers/CMSIS/Include/core_cmInstr.h **** #ifndef __NO_EMBEDDED_ASM
 144:Drivers/CMSIS/Include/core_cmInstr.h **** __attribute__((section(".revsh_text"))) __STATIC_INLINE __ASM int32_t __REVSH(int32_t value)
 145:Drivers/CMSIS/Include/core_cmInstr.h **** {
 146:Drivers/CMSIS/Include/core_cmInstr.h ****   revsh r0, r0
 147:Drivers/CMSIS/Include/core_cmInstr.h ****   bx lr
 148:Drivers/CMSIS/Include/core_cmInstr.h **** }
 149:Drivers/CMSIS/Include/core_cmInstr.h **** #endif
 150:Drivers/CMSIS/Include/core_cmInstr.h **** 
 151:Drivers/CMSIS/Include/core_cmInstr.h **** 
 152:Drivers/CMSIS/Include/core_cmInstr.h **** /** \brief  Rotate Right in unsigned value (32 bit)
 153:Drivers/CMSIS/Include/core_cmInstr.h **** 
 154:Drivers/CMSIS/Include/core_cmInstr.h ****     This function Rotate Right (immediate) provides the value of the contents of a register rotated
 155:Drivers/CMSIS/Include/core_cmInstr.h **** 
 156:Drivers/CMSIS/Include/core_cmInstr.h ****     \param [in]    value  Value to rotate
 157:Drivers/CMSIS/Include/core_cmInstr.h ****     \param [in]    value  Number of Bits to rotate
 158:Drivers/CMSIS/Include/core_cmInstr.h ****     \return               Rotated value
 159:Drivers/CMSIS/Include/core_cmInstr.h ****  */
 160:Drivers/CMSIS/Include/core_cmInstr.h **** #define __ROR                             __ror
 161:Drivers/CMSIS/Include/core_cmInstr.h **** 
 162:Drivers/CMSIS/Include/core_cmInstr.h **** 
 163:Drivers/CMSIS/Include/core_cmInstr.h **** /** \brief  Breakpoint
 164:Drivers/CMSIS/Include/core_cmInstr.h **** 
 165:Drivers/CMSIS/Include/core_cmInstr.h ****     This function causes the processor to enter Debug state.
 166:Drivers/CMSIS/Include/core_cmInstr.h ****     Debug tools can use this to investigate system state when the instruction at a particular addre
 167:Drivers/CMSIS/Include/core_cmInstr.h **** 
 168:Drivers/CMSIS/Include/core_cmInstr.h ****     \param [in]    value  is ignored by the processor.
 169:Drivers/CMSIS/Include/core_cmInstr.h ****                    If required, a debugger can use it to store additional information about the bre
 170:Drivers/CMSIS/Include/core_cmInstr.h ****  */
 171:Drivers/CMSIS/Include/core_cmInstr.h **** #define __BKPT(value)                       __breakpoint(value)
 172:Drivers/CMSIS/Include/core_cmInstr.h **** 
 173:Drivers/CMSIS/Include/core_cmInstr.h **** 
 174:Drivers/CMSIS/Include/core_cmInstr.h **** #if       (__CORTEX_M >= 0x03)
 175:Drivers/CMSIS/Include/core_cmInstr.h **** 
 176:Drivers/CMSIS/Include/core_cmInstr.h **** /** \brief  Reverse bit order of value
 177:Drivers/CMSIS/Include/core_cmInstr.h **** 
 178:Drivers/CMSIS/Include/core_cmInstr.h ****     This function reverses the bit order of the given value.
 179:Drivers/CMSIS/Include/core_cmInstr.h **** 
 180:Drivers/CMSIS/Include/core_cmInstr.h ****     \param [in]    value  Value to reverse
 181:Drivers/CMSIS/Include/core_cmInstr.h ****     \return               Reversed value
 182:Drivers/CMSIS/Include/core_cmInstr.h ****  */
 183:Drivers/CMSIS/Include/core_cmInstr.h **** #define __RBIT                            __rbit
 184:Drivers/CMSIS/Include/core_cmInstr.h **** 
 185:Drivers/CMSIS/Include/core_cmInstr.h **** 
ARM GAS  /tmp/cceaIirZ.s 			page 10


 186:Drivers/CMSIS/Include/core_cmInstr.h **** /** \brief  LDR Exclusive (8 bit)
 187:Drivers/CMSIS/Include/core_cmInstr.h **** 
 188:Drivers/CMSIS/Include/core_cmInstr.h ****     This function performs a exclusive LDR command for 8 bit value.
 189:Drivers/CMSIS/Include/core_cmInstr.h **** 
 190:Drivers/CMSIS/Include/core_cmInstr.h ****     \param [in]    ptr  Pointer to data
 191:Drivers/CMSIS/Include/core_cmInstr.h ****     \return             value of type uint8_t at (*ptr)
 192:Drivers/CMSIS/Include/core_cmInstr.h ****  */
 193:Drivers/CMSIS/Include/core_cmInstr.h **** #define __LDREXB(ptr)                     ((uint8_t ) __ldrex(ptr))
 194:Drivers/CMSIS/Include/core_cmInstr.h **** 
 195:Drivers/CMSIS/Include/core_cmInstr.h **** 
 196:Drivers/CMSIS/Include/core_cmInstr.h **** /** \brief  LDR Exclusive (16 bit)
 197:Drivers/CMSIS/Include/core_cmInstr.h **** 
 198:Drivers/CMSIS/Include/core_cmInstr.h ****     This function performs a exclusive LDR command for 16 bit values.
 199:Drivers/CMSIS/Include/core_cmInstr.h **** 
 200:Drivers/CMSIS/Include/core_cmInstr.h ****     \param [in]    ptr  Pointer to data
 201:Drivers/CMSIS/Include/core_cmInstr.h ****     \return        value of type uint16_t at (*ptr)
 202:Drivers/CMSIS/Include/core_cmInstr.h ****  */
 203:Drivers/CMSIS/Include/core_cmInstr.h **** #define __LDREXH(ptr)                     ((uint16_t) __ldrex(ptr))
 204:Drivers/CMSIS/Include/core_cmInstr.h **** 
 205:Drivers/CMSIS/Include/core_cmInstr.h **** 
 206:Drivers/CMSIS/Include/core_cmInstr.h **** /** \brief  LDR Exclusive (32 bit)
 207:Drivers/CMSIS/Include/core_cmInstr.h **** 
 208:Drivers/CMSIS/Include/core_cmInstr.h ****     This function performs a exclusive LDR command for 32 bit values.
 209:Drivers/CMSIS/Include/core_cmInstr.h **** 
 210:Drivers/CMSIS/Include/core_cmInstr.h ****     \param [in]    ptr  Pointer to data
 211:Drivers/CMSIS/Include/core_cmInstr.h ****     \return        value of type uint32_t at (*ptr)
 212:Drivers/CMSIS/Include/core_cmInstr.h ****  */
 213:Drivers/CMSIS/Include/core_cmInstr.h **** #define __LDREXW(ptr)                     ((uint32_t ) __ldrex(ptr))
 214:Drivers/CMSIS/Include/core_cmInstr.h **** 
 215:Drivers/CMSIS/Include/core_cmInstr.h **** 
 216:Drivers/CMSIS/Include/core_cmInstr.h **** /** \brief  STR Exclusive (8 bit)
 217:Drivers/CMSIS/Include/core_cmInstr.h **** 
 218:Drivers/CMSIS/Include/core_cmInstr.h ****     This function performs a exclusive STR command for 8 bit values.
 219:Drivers/CMSIS/Include/core_cmInstr.h **** 
 220:Drivers/CMSIS/Include/core_cmInstr.h ****     \param [in]  value  Value to store
 221:Drivers/CMSIS/Include/core_cmInstr.h ****     \param [in]    ptr  Pointer to location
 222:Drivers/CMSIS/Include/core_cmInstr.h ****     \return          0  Function succeeded
 223:Drivers/CMSIS/Include/core_cmInstr.h ****     \return          1  Function failed
 224:Drivers/CMSIS/Include/core_cmInstr.h ****  */
 225:Drivers/CMSIS/Include/core_cmInstr.h **** #define __STREXB(value, ptr)              __strex(value, ptr)
 226:Drivers/CMSIS/Include/core_cmInstr.h **** 
 227:Drivers/CMSIS/Include/core_cmInstr.h **** 
 228:Drivers/CMSIS/Include/core_cmInstr.h **** /** \brief  STR Exclusive (16 bit)
 229:Drivers/CMSIS/Include/core_cmInstr.h **** 
 230:Drivers/CMSIS/Include/core_cmInstr.h ****     This function performs a exclusive STR command for 16 bit values.
 231:Drivers/CMSIS/Include/core_cmInstr.h **** 
 232:Drivers/CMSIS/Include/core_cmInstr.h ****     \param [in]  value  Value to store
 233:Drivers/CMSIS/Include/core_cmInstr.h ****     \param [in]    ptr  Pointer to location
 234:Drivers/CMSIS/Include/core_cmInstr.h ****     \return          0  Function succeeded
 235:Drivers/CMSIS/Include/core_cmInstr.h ****     \return          1  Function failed
 236:Drivers/CMSIS/Include/core_cmInstr.h ****  */
 237:Drivers/CMSIS/Include/core_cmInstr.h **** #define __STREXH(value, ptr)              __strex(value, ptr)
 238:Drivers/CMSIS/Include/core_cmInstr.h **** 
 239:Drivers/CMSIS/Include/core_cmInstr.h **** 
 240:Drivers/CMSIS/Include/core_cmInstr.h **** /** \brief  STR Exclusive (32 bit)
 241:Drivers/CMSIS/Include/core_cmInstr.h **** 
 242:Drivers/CMSIS/Include/core_cmInstr.h ****     This function performs a exclusive STR command for 32 bit values.
ARM GAS  /tmp/cceaIirZ.s 			page 11


 243:Drivers/CMSIS/Include/core_cmInstr.h **** 
 244:Drivers/CMSIS/Include/core_cmInstr.h ****     \param [in]  value  Value to store
 245:Drivers/CMSIS/Include/core_cmInstr.h ****     \param [in]    ptr  Pointer to location
 246:Drivers/CMSIS/Include/core_cmInstr.h ****     \return          0  Function succeeded
 247:Drivers/CMSIS/Include/core_cmInstr.h ****     \return          1  Function failed
 248:Drivers/CMSIS/Include/core_cmInstr.h ****  */
 249:Drivers/CMSIS/Include/core_cmInstr.h **** #define __STREXW(value, ptr)              __strex(value, ptr)
 250:Drivers/CMSIS/Include/core_cmInstr.h **** 
 251:Drivers/CMSIS/Include/core_cmInstr.h **** 
 252:Drivers/CMSIS/Include/core_cmInstr.h **** /** \brief  Remove the exclusive lock
 253:Drivers/CMSIS/Include/core_cmInstr.h **** 
 254:Drivers/CMSIS/Include/core_cmInstr.h ****     This function removes the exclusive lock which is created by LDREX.
 255:Drivers/CMSIS/Include/core_cmInstr.h **** 
 256:Drivers/CMSIS/Include/core_cmInstr.h ****  */
 257:Drivers/CMSIS/Include/core_cmInstr.h **** #define __CLREX                           __clrex
 258:Drivers/CMSIS/Include/core_cmInstr.h **** 
 259:Drivers/CMSIS/Include/core_cmInstr.h **** 
 260:Drivers/CMSIS/Include/core_cmInstr.h **** /** \brief  Signed Saturate
 261:Drivers/CMSIS/Include/core_cmInstr.h **** 
 262:Drivers/CMSIS/Include/core_cmInstr.h ****     This function saturates a signed value.
 263:Drivers/CMSIS/Include/core_cmInstr.h **** 
 264:Drivers/CMSIS/Include/core_cmInstr.h ****     \param [in]  value  Value to be saturated
 265:Drivers/CMSIS/Include/core_cmInstr.h ****     \param [in]    sat  Bit position to saturate to (1..32)
 266:Drivers/CMSIS/Include/core_cmInstr.h ****     \return             Saturated value
 267:Drivers/CMSIS/Include/core_cmInstr.h ****  */
 268:Drivers/CMSIS/Include/core_cmInstr.h **** #define __SSAT                            __ssat
 269:Drivers/CMSIS/Include/core_cmInstr.h **** 
 270:Drivers/CMSIS/Include/core_cmInstr.h **** 
 271:Drivers/CMSIS/Include/core_cmInstr.h **** /** \brief  Unsigned Saturate
 272:Drivers/CMSIS/Include/core_cmInstr.h **** 
 273:Drivers/CMSIS/Include/core_cmInstr.h ****     This function saturates an unsigned value.
 274:Drivers/CMSIS/Include/core_cmInstr.h **** 
 275:Drivers/CMSIS/Include/core_cmInstr.h ****     \param [in]  value  Value to be saturated
 276:Drivers/CMSIS/Include/core_cmInstr.h ****     \param [in]    sat  Bit position to saturate to (0..31)
 277:Drivers/CMSIS/Include/core_cmInstr.h ****     \return             Saturated value
 278:Drivers/CMSIS/Include/core_cmInstr.h ****  */
 279:Drivers/CMSIS/Include/core_cmInstr.h **** #define __USAT                            __usat
 280:Drivers/CMSIS/Include/core_cmInstr.h **** 
 281:Drivers/CMSIS/Include/core_cmInstr.h **** 
 282:Drivers/CMSIS/Include/core_cmInstr.h **** /** \brief  Count leading zeros
 283:Drivers/CMSIS/Include/core_cmInstr.h **** 
 284:Drivers/CMSIS/Include/core_cmInstr.h ****     This function counts the number of leading zeros of a data value.
 285:Drivers/CMSIS/Include/core_cmInstr.h **** 
 286:Drivers/CMSIS/Include/core_cmInstr.h ****     \param [in]  value  Value to count the leading zeros
 287:Drivers/CMSIS/Include/core_cmInstr.h ****     \return             number of leading zeros in value
 288:Drivers/CMSIS/Include/core_cmInstr.h ****  */
 289:Drivers/CMSIS/Include/core_cmInstr.h **** #define __CLZ                             __clz
 290:Drivers/CMSIS/Include/core_cmInstr.h **** 
 291:Drivers/CMSIS/Include/core_cmInstr.h **** #endif /* (__CORTEX_M >= 0x03) */
 292:Drivers/CMSIS/Include/core_cmInstr.h **** 
 293:Drivers/CMSIS/Include/core_cmInstr.h **** 
 294:Drivers/CMSIS/Include/core_cmInstr.h **** 
 295:Drivers/CMSIS/Include/core_cmInstr.h **** #elif defined ( __ICCARM__ ) /*------------------ ICC Compiler -------------------*/
 296:Drivers/CMSIS/Include/core_cmInstr.h **** /* IAR iccarm specific functions */
 297:Drivers/CMSIS/Include/core_cmInstr.h **** 
 298:Drivers/CMSIS/Include/core_cmInstr.h **** #include <cmsis_iar.h>
 299:Drivers/CMSIS/Include/core_cmInstr.h **** 
ARM GAS  /tmp/cceaIirZ.s 			page 12


 300:Drivers/CMSIS/Include/core_cmInstr.h **** 
 301:Drivers/CMSIS/Include/core_cmInstr.h **** #elif defined ( __TMS470__ ) /*---------------- TI CCS Compiler ------------------*/
 302:Drivers/CMSIS/Include/core_cmInstr.h **** /* TI CCS specific functions */
 303:Drivers/CMSIS/Include/core_cmInstr.h **** 
 304:Drivers/CMSIS/Include/core_cmInstr.h **** #include <cmsis_ccs.h>
 305:Drivers/CMSIS/Include/core_cmInstr.h **** 
 306:Drivers/CMSIS/Include/core_cmInstr.h **** 
 307:Drivers/CMSIS/Include/core_cmInstr.h **** #elif defined ( __GNUC__ ) /*------------------ GNU Compiler ---------------------*/
 308:Drivers/CMSIS/Include/core_cmInstr.h **** /* GNU gcc specific functions */
 309:Drivers/CMSIS/Include/core_cmInstr.h **** 
 310:Drivers/CMSIS/Include/core_cmInstr.h **** /* Define macros for porting to both thumb1 and thumb2.
 311:Drivers/CMSIS/Include/core_cmInstr.h ****  * For thumb1, use low register (r0-r7), specified by constrant "l"
 312:Drivers/CMSIS/Include/core_cmInstr.h ****  * Otherwise, use general registers, specified by constrant "r" */
 313:Drivers/CMSIS/Include/core_cmInstr.h **** #if defined (__thumb__) && !defined (__thumb2__)
 314:Drivers/CMSIS/Include/core_cmInstr.h **** #define __CMSIS_GCC_OUT_REG(r) "=l" (r)
 315:Drivers/CMSIS/Include/core_cmInstr.h **** #define __CMSIS_GCC_USE_REG(r) "l" (r)
 316:Drivers/CMSIS/Include/core_cmInstr.h **** #else
 317:Drivers/CMSIS/Include/core_cmInstr.h **** #define __CMSIS_GCC_OUT_REG(r) "=r" (r)
 318:Drivers/CMSIS/Include/core_cmInstr.h **** #define __CMSIS_GCC_USE_REG(r) "r" (r)
 319:Drivers/CMSIS/Include/core_cmInstr.h **** #endif
 320:Drivers/CMSIS/Include/core_cmInstr.h **** 
 321:Drivers/CMSIS/Include/core_cmInstr.h **** /** \brief  No Operation
 322:Drivers/CMSIS/Include/core_cmInstr.h **** 
 323:Drivers/CMSIS/Include/core_cmInstr.h ****     No Operation does nothing. This instruction can be used for code alignment purposes.
 324:Drivers/CMSIS/Include/core_cmInstr.h ****  */
 325:Drivers/CMSIS/Include/core_cmInstr.h **** __attribute__( ( always_inline ) ) __STATIC_INLINE void __NOP(void)
 326:Drivers/CMSIS/Include/core_cmInstr.h **** {
 327:Drivers/CMSIS/Include/core_cmInstr.h ****   __ASM volatile ("nop");
 328:Drivers/CMSIS/Include/core_cmInstr.h **** }
 329:Drivers/CMSIS/Include/core_cmInstr.h **** 
 330:Drivers/CMSIS/Include/core_cmInstr.h **** 
 331:Drivers/CMSIS/Include/core_cmInstr.h **** /** \brief  Wait For Interrupt
 332:Drivers/CMSIS/Include/core_cmInstr.h **** 
 333:Drivers/CMSIS/Include/core_cmInstr.h ****     Wait For Interrupt is a hint instruction that suspends execution
 334:Drivers/CMSIS/Include/core_cmInstr.h ****     until one of a number of events occurs.
 335:Drivers/CMSIS/Include/core_cmInstr.h ****  */
 336:Drivers/CMSIS/Include/core_cmInstr.h **** __attribute__( ( always_inline ) ) __STATIC_INLINE void __WFI(void)
 337:Drivers/CMSIS/Include/core_cmInstr.h **** {
 338:Drivers/CMSIS/Include/core_cmInstr.h ****   __ASM volatile ("wfi");
 339:Drivers/CMSIS/Include/core_cmInstr.h **** }
 340:Drivers/CMSIS/Include/core_cmInstr.h **** 
 341:Drivers/CMSIS/Include/core_cmInstr.h **** 
 342:Drivers/CMSIS/Include/core_cmInstr.h **** /** \brief  Wait For Event
 343:Drivers/CMSIS/Include/core_cmInstr.h **** 
 344:Drivers/CMSIS/Include/core_cmInstr.h ****     Wait For Event is a hint instruction that permits the processor to enter
 345:Drivers/CMSIS/Include/core_cmInstr.h ****     a low-power state until one of a number of events occurs.
 346:Drivers/CMSIS/Include/core_cmInstr.h ****  */
 347:Drivers/CMSIS/Include/core_cmInstr.h **** __attribute__( ( always_inline ) ) __STATIC_INLINE void __WFE(void)
 348:Drivers/CMSIS/Include/core_cmInstr.h **** {
 349:Drivers/CMSIS/Include/core_cmInstr.h ****   __ASM volatile ("wfe");
 350:Drivers/CMSIS/Include/core_cmInstr.h **** }
 351:Drivers/CMSIS/Include/core_cmInstr.h **** 
 352:Drivers/CMSIS/Include/core_cmInstr.h **** 
 353:Drivers/CMSIS/Include/core_cmInstr.h **** /** \brief  Send Event
 354:Drivers/CMSIS/Include/core_cmInstr.h **** 
 355:Drivers/CMSIS/Include/core_cmInstr.h ****     Send Event is a hint instruction. It causes an event to be signaled to the CPU.
 356:Drivers/CMSIS/Include/core_cmInstr.h ****  */
ARM GAS  /tmp/cceaIirZ.s 			page 13


 357:Drivers/CMSIS/Include/core_cmInstr.h **** __attribute__( ( always_inline ) ) __STATIC_INLINE void __SEV(void)
 358:Drivers/CMSIS/Include/core_cmInstr.h **** {
 359:Drivers/CMSIS/Include/core_cmInstr.h ****   __ASM volatile ("sev");
 360:Drivers/CMSIS/Include/core_cmInstr.h **** }
 361:Drivers/CMSIS/Include/core_cmInstr.h **** 
 362:Drivers/CMSIS/Include/core_cmInstr.h **** 
 363:Drivers/CMSIS/Include/core_cmInstr.h **** /** \brief  Instruction Synchronization Barrier
 364:Drivers/CMSIS/Include/core_cmInstr.h **** 
 365:Drivers/CMSIS/Include/core_cmInstr.h ****     Instruction Synchronization Barrier flushes the pipeline in the processor,
 366:Drivers/CMSIS/Include/core_cmInstr.h ****     so that all instructions following the ISB are fetched from cache or
 367:Drivers/CMSIS/Include/core_cmInstr.h ****     memory, after the instruction has been completed.
 368:Drivers/CMSIS/Include/core_cmInstr.h ****  */
 369:Drivers/CMSIS/Include/core_cmInstr.h **** __attribute__( ( always_inline ) ) __STATIC_INLINE void __ISB(void)
 370:Drivers/CMSIS/Include/core_cmInstr.h **** {
 371:Drivers/CMSIS/Include/core_cmInstr.h ****   __ASM volatile ("isb");
 372:Drivers/CMSIS/Include/core_cmInstr.h **** }
 373:Drivers/CMSIS/Include/core_cmInstr.h **** 
 374:Drivers/CMSIS/Include/core_cmInstr.h **** 
 375:Drivers/CMSIS/Include/core_cmInstr.h **** /** \brief  Data Synchronization Barrier
 376:Drivers/CMSIS/Include/core_cmInstr.h **** 
 377:Drivers/CMSIS/Include/core_cmInstr.h ****     This function acts as a special kind of Data Memory Barrier.
 378:Drivers/CMSIS/Include/core_cmInstr.h ****     It completes when all explicit memory accesses before this instruction complete.
 379:Drivers/CMSIS/Include/core_cmInstr.h ****  */
 380:Drivers/CMSIS/Include/core_cmInstr.h **** __attribute__( ( always_inline ) ) __STATIC_INLINE void __DSB(void)
 381:Drivers/CMSIS/Include/core_cmInstr.h **** {
 382:Drivers/CMSIS/Include/core_cmInstr.h ****   __ASM volatile ("dsb");
 383:Drivers/CMSIS/Include/core_cmInstr.h **** }
 384:Drivers/CMSIS/Include/core_cmInstr.h **** 
 385:Drivers/CMSIS/Include/core_cmInstr.h **** 
 386:Drivers/CMSIS/Include/core_cmInstr.h **** /** \brief  Data Memory Barrier
 387:Drivers/CMSIS/Include/core_cmInstr.h **** 
 388:Drivers/CMSIS/Include/core_cmInstr.h ****     This function ensures the apparent order of the explicit memory operations before
 389:Drivers/CMSIS/Include/core_cmInstr.h ****     and after the instruction, without ensuring their completion.
 390:Drivers/CMSIS/Include/core_cmInstr.h ****  */
 391:Drivers/CMSIS/Include/core_cmInstr.h **** __attribute__( ( always_inline ) ) __STATIC_INLINE void __DMB(void)
 392:Drivers/CMSIS/Include/core_cmInstr.h **** {
 393:Drivers/CMSIS/Include/core_cmInstr.h ****   __ASM volatile ("dmb");
 394:Drivers/CMSIS/Include/core_cmInstr.h **** }
 395:Drivers/CMSIS/Include/core_cmInstr.h **** 
 396:Drivers/CMSIS/Include/core_cmInstr.h **** 
 397:Drivers/CMSIS/Include/core_cmInstr.h **** /** \brief  Reverse byte order (32 bit)
 398:Drivers/CMSIS/Include/core_cmInstr.h **** 
 399:Drivers/CMSIS/Include/core_cmInstr.h ****     This function reverses the byte order in integer value.
 400:Drivers/CMSIS/Include/core_cmInstr.h **** 
 401:Drivers/CMSIS/Include/core_cmInstr.h ****     \param [in]    value  Value to reverse
 402:Drivers/CMSIS/Include/core_cmInstr.h ****     \return               Reversed value
 403:Drivers/CMSIS/Include/core_cmInstr.h ****  */
 404:Drivers/CMSIS/Include/core_cmInstr.h **** __attribute__( ( always_inline ) ) __STATIC_INLINE uint32_t __REV(uint32_t value)
 405:Drivers/CMSIS/Include/core_cmInstr.h **** {
 406:Drivers/CMSIS/Include/core_cmInstr.h **** #if (__GNUC__ > 4) || (__GNUC__ == 4 && __GNUC_MINOR__ >= 5)
 407:Drivers/CMSIS/Include/core_cmInstr.h ****   return __builtin_bswap32(value);
 408:Drivers/CMSIS/Include/core_cmInstr.h **** #else
 409:Drivers/CMSIS/Include/core_cmInstr.h ****   uint32_t result;
 410:Drivers/CMSIS/Include/core_cmInstr.h **** 
 411:Drivers/CMSIS/Include/core_cmInstr.h ****   __ASM volatile ("rev %0, %1" : __CMSIS_GCC_OUT_REG (result) : __CMSIS_GCC_USE_REG (value) );
 412:Drivers/CMSIS/Include/core_cmInstr.h ****   return(result);
 413:Drivers/CMSIS/Include/core_cmInstr.h **** #endif
ARM GAS  /tmp/cceaIirZ.s 			page 14


 414:Drivers/CMSIS/Include/core_cmInstr.h **** }
 415:Drivers/CMSIS/Include/core_cmInstr.h **** 
 416:Drivers/CMSIS/Include/core_cmInstr.h **** 
 417:Drivers/CMSIS/Include/core_cmInstr.h **** /** \brief  Reverse byte order (16 bit)
 418:Drivers/CMSIS/Include/core_cmInstr.h **** 
 419:Drivers/CMSIS/Include/core_cmInstr.h ****     This function reverses the byte order in two unsigned short values.
 420:Drivers/CMSIS/Include/core_cmInstr.h **** 
 421:Drivers/CMSIS/Include/core_cmInstr.h ****     \param [in]    value  Value to reverse
 422:Drivers/CMSIS/Include/core_cmInstr.h ****     \return               Reversed value
 423:Drivers/CMSIS/Include/core_cmInstr.h ****  */
 424:Drivers/CMSIS/Include/core_cmInstr.h **** __attribute__( ( always_inline ) ) __STATIC_INLINE uint32_t __REV16(uint32_t value)
 425:Drivers/CMSIS/Include/core_cmInstr.h **** {
 426:Drivers/CMSIS/Include/core_cmInstr.h ****   uint32_t result;
 427:Drivers/CMSIS/Include/core_cmInstr.h **** 
 428:Drivers/CMSIS/Include/core_cmInstr.h ****   __ASM volatile ("rev16 %0, %1" : __CMSIS_GCC_OUT_REG (result) : __CMSIS_GCC_USE_REG (value) );
 429:Drivers/CMSIS/Include/core_cmInstr.h ****   return(result);
 430:Drivers/CMSIS/Include/core_cmInstr.h **** }
 431:Drivers/CMSIS/Include/core_cmInstr.h **** 
 432:Drivers/CMSIS/Include/core_cmInstr.h **** 
 433:Drivers/CMSIS/Include/core_cmInstr.h **** /** \brief  Reverse byte order in signed short value
 434:Drivers/CMSIS/Include/core_cmInstr.h **** 
 435:Drivers/CMSIS/Include/core_cmInstr.h ****     This function reverses the byte order in a signed short value with sign extension to integer.
 436:Drivers/CMSIS/Include/core_cmInstr.h **** 
 437:Drivers/CMSIS/Include/core_cmInstr.h ****     \param [in]    value  Value to reverse
 438:Drivers/CMSIS/Include/core_cmInstr.h ****     \return               Reversed value
 439:Drivers/CMSIS/Include/core_cmInstr.h ****  */
 440:Drivers/CMSIS/Include/core_cmInstr.h **** __attribute__( ( always_inline ) ) __STATIC_INLINE int32_t __REVSH(int32_t value)
 441:Drivers/CMSIS/Include/core_cmInstr.h **** {
 442:Drivers/CMSIS/Include/core_cmInstr.h **** #if (__GNUC__ > 4) || (__GNUC__ == 4 && __GNUC_MINOR__ >= 8)
 443:Drivers/CMSIS/Include/core_cmInstr.h ****   return (short)__builtin_bswap16(value);
 444:Drivers/CMSIS/Include/core_cmInstr.h **** #else
 445:Drivers/CMSIS/Include/core_cmInstr.h ****   uint32_t result;
 446:Drivers/CMSIS/Include/core_cmInstr.h **** 
 447:Drivers/CMSIS/Include/core_cmInstr.h ****   __ASM volatile ("revsh %0, %1" : __CMSIS_GCC_OUT_REG (result) : __CMSIS_GCC_USE_REG (value) );
 448:Drivers/CMSIS/Include/core_cmInstr.h ****   return(result);
 449:Drivers/CMSIS/Include/core_cmInstr.h **** #endif
 450:Drivers/CMSIS/Include/core_cmInstr.h **** }
 451:Drivers/CMSIS/Include/core_cmInstr.h **** 
 452:Drivers/CMSIS/Include/core_cmInstr.h **** 
 453:Drivers/CMSIS/Include/core_cmInstr.h **** /** \brief  Rotate Right in unsigned value (32 bit)
 454:Drivers/CMSIS/Include/core_cmInstr.h **** 
 455:Drivers/CMSIS/Include/core_cmInstr.h ****     This function Rotate Right (immediate) provides the value of the contents of a register rotated
 456:Drivers/CMSIS/Include/core_cmInstr.h **** 
 457:Drivers/CMSIS/Include/core_cmInstr.h ****     \param [in]    value  Value to rotate
 458:Drivers/CMSIS/Include/core_cmInstr.h ****     \param [in]    value  Number of Bits to rotate
 459:Drivers/CMSIS/Include/core_cmInstr.h ****     \return               Rotated value
 460:Drivers/CMSIS/Include/core_cmInstr.h ****  */
 461:Drivers/CMSIS/Include/core_cmInstr.h **** __attribute__( ( always_inline ) ) __STATIC_INLINE uint32_t __ROR(uint32_t op1, uint32_t op2)
 462:Drivers/CMSIS/Include/core_cmInstr.h **** {
 463:Drivers/CMSIS/Include/core_cmInstr.h ****   return (op1 >> op2) | (op1 << (32 - op2)); 
 464:Drivers/CMSIS/Include/core_cmInstr.h **** }
 465:Drivers/CMSIS/Include/core_cmInstr.h **** 
 466:Drivers/CMSIS/Include/core_cmInstr.h **** 
 467:Drivers/CMSIS/Include/core_cmInstr.h **** /** \brief  Breakpoint
 468:Drivers/CMSIS/Include/core_cmInstr.h **** 
 469:Drivers/CMSIS/Include/core_cmInstr.h ****     This function causes the processor to enter Debug state.
 470:Drivers/CMSIS/Include/core_cmInstr.h ****     Debug tools can use this to investigate system state when the instruction at a particular addre
ARM GAS  /tmp/cceaIirZ.s 			page 15


 471:Drivers/CMSIS/Include/core_cmInstr.h **** 
 472:Drivers/CMSIS/Include/core_cmInstr.h ****     \param [in]    value  is ignored by the processor.
 473:Drivers/CMSIS/Include/core_cmInstr.h ****                    If required, a debugger can use it to store additional information about the bre
 474:Drivers/CMSIS/Include/core_cmInstr.h ****  */
 475:Drivers/CMSIS/Include/core_cmInstr.h **** #define __BKPT(value)                       __ASM volatile ("bkpt "#value)
 476:Drivers/CMSIS/Include/core_cmInstr.h **** 
 477:Drivers/CMSIS/Include/core_cmInstr.h **** 
 478:Drivers/CMSIS/Include/core_cmInstr.h **** #if       (__CORTEX_M >= 0x03)
 479:Drivers/CMSIS/Include/core_cmInstr.h **** 
 480:Drivers/CMSIS/Include/core_cmInstr.h **** /** \brief  Reverse bit order of value
 481:Drivers/CMSIS/Include/core_cmInstr.h **** 
 482:Drivers/CMSIS/Include/core_cmInstr.h ****     This function reverses the bit order of the given value.
 483:Drivers/CMSIS/Include/core_cmInstr.h **** 
 484:Drivers/CMSIS/Include/core_cmInstr.h ****     \param [in]    value  Value to reverse
 485:Drivers/CMSIS/Include/core_cmInstr.h ****     \return               Reversed value
 486:Drivers/CMSIS/Include/core_cmInstr.h ****  */
 487:Drivers/CMSIS/Include/core_cmInstr.h **** __attribute__( ( always_inline ) ) __STATIC_INLINE uint32_t __RBIT(uint32_t value)
 488:Drivers/CMSIS/Include/core_cmInstr.h **** {
 489:Drivers/CMSIS/Include/core_cmInstr.h ****   uint32_t result;
 490:Drivers/CMSIS/Include/core_cmInstr.h **** 
 491:Drivers/CMSIS/Include/core_cmInstr.h ****    __ASM volatile ("rbit %0, %1" : "=r" (result) : "r" (value) );
 184              		.loc 2 491 0
 185 00e2 7B6C     		ldr	r3, [r7, #68]	@ tmp246, value
 186              	@ 491 "Drivers/CMSIS/Include/core_cmInstr.h" 1
 187 00e4 93FAA3F4 		rbit r4, r3	@ result, tmp246
 188              	@ 0 "" 2
 189              		.thumb
 190 00e8 3C64     		str	r4, [r7, #64]	@ result, result
 492:Drivers/CMSIS/Include/core_cmInstr.h ****    return(result);
 191              		.loc 2 492 0
 192 00ea 3B6C     		ldr	r3, [r7, #64]	@ D.5974, result
 193 00ec FB63     		str	r3, [r7, #60]	@ D.5895, value
 194              	.LBE30:
 195              	.LBE29:
 196              	.LBE28:
 197              	.LBB31:
 198              	.LBB32:
 199              	.LBB33:
 493:Drivers/CMSIS/Include/core_cmInstr.h **** }
 494:Drivers/CMSIS/Include/core_cmInstr.h **** 
 495:Drivers/CMSIS/Include/core_cmInstr.h **** 
 496:Drivers/CMSIS/Include/core_cmInstr.h **** /** \brief  LDR Exclusive (8 bit)
 497:Drivers/CMSIS/Include/core_cmInstr.h **** 
 498:Drivers/CMSIS/Include/core_cmInstr.h ****     This function performs a exclusive LDR command for 8 bit value.
 499:Drivers/CMSIS/Include/core_cmInstr.h **** 
 500:Drivers/CMSIS/Include/core_cmInstr.h ****     \param [in]    ptr  Pointer to data
 501:Drivers/CMSIS/Include/core_cmInstr.h ****     \return             value of type uint8_t at (*ptr)
 502:Drivers/CMSIS/Include/core_cmInstr.h ****  */
 503:Drivers/CMSIS/Include/core_cmInstr.h **** __attribute__( ( always_inline ) ) __STATIC_INLINE uint8_t __LDREXB(volatile uint8_t *addr)
 504:Drivers/CMSIS/Include/core_cmInstr.h **** {
 505:Drivers/CMSIS/Include/core_cmInstr.h ****     uint32_t result;
 506:Drivers/CMSIS/Include/core_cmInstr.h **** 
 507:Drivers/CMSIS/Include/core_cmInstr.h **** #if (__GNUC__ > 4) || (__GNUC__ == 4 && __GNUC_MINOR__ >= 8)
 508:Drivers/CMSIS/Include/core_cmInstr.h ****    __ASM volatile ("ldrexb %0, %1" : "=r" (result) : "Q" (*addr) );
 509:Drivers/CMSIS/Include/core_cmInstr.h **** #else
 510:Drivers/CMSIS/Include/core_cmInstr.h ****     /* Prior to GCC 4.8, "Q" will be expanded to [rx, #0] which is not
 511:Drivers/CMSIS/Include/core_cmInstr.h ****        accepted by assembler. So has to use following less efficient pattern.
ARM GAS  /tmp/cceaIirZ.s 			page 16


 512:Drivers/CMSIS/Include/core_cmInstr.h ****     */
 513:Drivers/CMSIS/Include/core_cmInstr.h ****    __ASM volatile ("ldrexb %0, [%1]" : "=r" (result) : "r" (addr) : "memory" );
 514:Drivers/CMSIS/Include/core_cmInstr.h **** #endif
 515:Drivers/CMSIS/Include/core_cmInstr.h ****    return(result);
 516:Drivers/CMSIS/Include/core_cmInstr.h **** }
 517:Drivers/CMSIS/Include/core_cmInstr.h **** 
 518:Drivers/CMSIS/Include/core_cmInstr.h **** 
 519:Drivers/CMSIS/Include/core_cmInstr.h **** /** \brief  LDR Exclusive (16 bit)
 520:Drivers/CMSIS/Include/core_cmInstr.h **** 
 521:Drivers/CMSIS/Include/core_cmInstr.h ****     This function performs a exclusive LDR command for 16 bit values.
 522:Drivers/CMSIS/Include/core_cmInstr.h **** 
 523:Drivers/CMSIS/Include/core_cmInstr.h ****     \param [in]    ptr  Pointer to data
 524:Drivers/CMSIS/Include/core_cmInstr.h ****     \return        value of type uint16_t at (*ptr)
 525:Drivers/CMSIS/Include/core_cmInstr.h ****  */
 526:Drivers/CMSIS/Include/core_cmInstr.h **** __attribute__( ( always_inline ) ) __STATIC_INLINE uint16_t __LDREXH(volatile uint16_t *addr)
 527:Drivers/CMSIS/Include/core_cmInstr.h **** {
 528:Drivers/CMSIS/Include/core_cmInstr.h ****     uint32_t result;
 529:Drivers/CMSIS/Include/core_cmInstr.h **** 
 530:Drivers/CMSIS/Include/core_cmInstr.h **** #if (__GNUC__ > 4) || (__GNUC__ == 4 && __GNUC_MINOR__ >= 8)
 531:Drivers/CMSIS/Include/core_cmInstr.h ****    __ASM volatile ("ldrexh %0, %1" : "=r" (result) : "Q" (*addr) );
 532:Drivers/CMSIS/Include/core_cmInstr.h **** #else
 533:Drivers/CMSIS/Include/core_cmInstr.h ****     /* Prior to GCC 4.8, "Q" will be expanded to [rx, #0] which is not
 534:Drivers/CMSIS/Include/core_cmInstr.h ****        accepted by assembler. So has to use following less efficient pattern.
 535:Drivers/CMSIS/Include/core_cmInstr.h ****     */
 536:Drivers/CMSIS/Include/core_cmInstr.h ****    __ASM volatile ("ldrexh %0, [%1]" : "=r" (result) : "r" (addr) : "memory" );
 537:Drivers/CMSIS/Include/core_cmInstr.h **** #endif
 538:Drivers/CMSIS/Include/core_cmInstr.h ****    return(result);
 539:Drivers/CMSIS/Include/core_cmInstr.h **** }
 540:Drivers/CMSIS/Include/core_cmInstr.h **** 
 541:Drivers/CMSIS/Include/core_cmInstr.h **** 
 542:Drivers/CMSIS/Include/core_cmInstr.h **** /** \brief  LDR Exclusive (32 bit)
 543:Drivers/CMSIS/Include/core_cmInstr.h **** 
 544:Drivers/CMSIS/Include/core_cmInstr.h ****     This function performs a exclusive LDR command for 32 bit values.
 545:Drivers/CMSIS/Include/core_cmInstr.h **** 
 546:Drivers/CMSIS/Include/core_cmInstr.h ****     \param [in]    ptr  Pointer to data
 547:Drivers/CMSIS/Include/core_cmInstr.h ****     \return        value of type uint32_t at (*ptr)
 548:Drivers/CMSIS/Include/core_cmInstr.h ****  */
 549:Drivers/CMSIS/Include/core_cmInstr.h **** __attribute__( ( always_inline ) ) __STATIC_INLINE uint32_t __LDREXW(volatile uint32_t *addr)
 550:Drivers/CMSIS/Include/core_cmInstr.h **** {
 551:Drivers/CMSIS/Include/core_cmInstr.h ****     uint32_t result;
 552:Drivers/CMSIS/Include/core_cmInstr.h **** 
 553:Drivers/CMSIS/Include/core_cmInstr.h ****    __ASM volatile ("ldrex %0, %1" : "=r" (result) : "Q" (*addr) );
 554:Drivers/CMSIS/Include/core_cmInstr.h ****    return(result);
 555:Drivers/CMSIS/Include/core_cmInstr.h **** }
 556:Drivers/CMSIS/Include/core_cmInstr.h **** 
 557:Drivers/CMSIS/Include/core_cmInstr.h **** 
 558:Drivers/CMSIS/Include/core_cmInstr.h **** /** \brief  STR Exclusive (8 bit)
 559:Drivers/CMSIS/Include/core_cmInstr.h **** 
 560:Drivers/CMSIS/Include/core_cmInstr.h ****     This function performs a exclusive STR command for 8 bit values.
 561:Drivers/CMSIS/Include/core_cmInstr.h **** 
 562:Drivers/CMSIS/Include/core_cmInstr.h ****     \param [in]  value  Value to store
 563:Drivers/CMSIS/Include/core_cmInstr.h ****     \param [in]    ptr  Pointer to location
 564:Drivers/CMSIS/Include/core_cmInstr.h ****     \return          0  Function succeeded
 565:Drivers/CMSIS/Include/core_cmInstr.h ****     \return          1  Function failed
 566:Drivers/CMSIS/Include/core_cmInstr.h ****  */
 567:Drivers/CMSIS/Include/core_cmInstr.h **** __attribute__( ( always_inline ) ) __STATIC_INLINE uint32_t __STREXB(uint8_t value, volatile uint8_
 568:Drivers/CMSIS/Include/core_cmInstr.h **** {
ARM GAS  /tmp/cceaIirZ.s 			page 17


 569:Drivers/CMSIS/Include/core_cmInstr.h ****    uint32_t result;
 570:Drivers/CMSIS/Include/core_cmInstr.h **** 
 571:Drivers/CMSIS/Include/core_cmInstr.h ****    __ASM volatile ("strexb %0, %2, %1" : "=&r" (result), "=Q" (*addr) : "r" (value) );
 572:Drivers/CMSIS/Include/core_cmInstr.h ****    return(result);
 573:Drivers/CMSIS/Include/core_cmInstr.h **** }
 574:Drivers/CMSIS/Include/core_cmInstr.h **** 
 575:Drivers/CMSIS/Include/core_cmInstr.h **** 
 576:Drivers/CMSIS/Include/core_cmInstr.h **** /** \brief  STR Exclusive (16 bit)
 577:Drivers/CMSIS/Include/core_cmInstr.h **** 
 578:Drivers/CMSIS/Include/core_cmInstr.h ****     This function performs a exclusive STR command for 16 bit values.
 579:Drivers/CMSIS/Include/core_cmInstr.h **** 
 580:Drivers/CMSIS/Include/core_cmInstr.h ****     \param [in]  value  Value to store
 581:Drivers/CMSIS/Include/core_cmInstr.h ****     \param [in]    ptr  Pointer to location
 582:Drivers/CMSIS/Include/core_cmInstr.h ****     \return          0  Function succeeded
 583:Drivers/CMSIS/Include/core_cmInstr.h ****     \return          1  Function failed
 584:Drivers/CMSIS/Include/core_cmInstr.h ****  */
 585:Drivers/CMSIS/Include/core_cmInstr.h **** __attribute__( ( always_inline ) ) __STATIC_INLINE uint32_t __STREXH(uint16_t value, volatile uint1
 586:Drivers/CMSIS/Include/core_cmInstr.h **** {
 587:Drivers/CMSIS/Include/core_cmInstr.h ****    uint32_t result;
 588:Drivers/CMSIS/Include/core_cmInstr.h **** 
 589:Drivers/CMSIS/Include/core_cmInstr.h ****    __ASM volatile ("strexh %0, %2, %1" : "=&r" (result), "=Q" (*addr) : "r" (value) );
 590:Drivers/CMSIS/Include/core_cmInstr.h ****    return(result);
 591:Drivers/CMSIS/Include/core_cmInstr.h **** }
 592:Drivers/CMSIS/Include/core_cmInstr.h **** 
 593:Drivers/CMSIS/Include/core_cmInstr.h **** 
 594:Drivers/CMSIS/Include/core_cmInstr.h **** /** \brief  STR Exclusive (32 bit)
 595:Drivers/CMSIS/Include/core_cmInstr.h **** 
 596:Drivers/CMSIS/Include/core_cmInstr.h ****     This function performs a exclusive STR command for 32 bit values.
 597:Drivers/CMSIS/Include/core_cmInstr.h **** 
 598:Drivers/CMSIS/Include/core_cmInstr.h ****     \param [in]  value  Value to store
 599:Drivers/CMSIS/Include/core_cmInstr.h ****     \param [in]    ptr  Pointer to location
 600:Drivers/CMSIS/Include/core_cmInstr.h ****     \return          0  Function succeeded
 601:Drivers/CMSIS/Include/core_cmInstr.h ****     \return          1  Function failed
 602:Drivers/CMSIS/Include/core_cmInstr.h ****  */
 603:Drivers/CMSIS/Include/core_cmInstr.h **** __attribute__( ( always_inline ) ) __STATIC_INLINE uint32_t __STREXW(uint32_t value, volatile uint3
 604:Drivers/CMSIS/Include/core_cmInstr.h **** {
 605:Drivers/CMSIS/Include/core_cmInstr.h ****    uint32_t result;
 606:Drivers/CMSIS/Include/core_cmInstr.h **** 
 607:Drivers/CMSIS/Include/core_cmInstr.h ****    __ASM volatile ("strex %0, %2, %1" : "=&r" (result), "=Q" (*addr) : "r" (value) );
 608:Drivers/CMSIS/Include/core_cmInstr.h ****    return(result);
 609:Drivers/CMSIS/Include/core_cmInstr.h **** }
 610:Drivers/CMSIS/Include/core_cmInstr.h **** 
 611:Drivers/CMSIS/Include/core_cmInstr.h **** 
 612:Drivers/CMSIS/Include/core_cmInstr.h **** /** \brief  Remove the exclusive lock
 613:Drivers/CMSIS/Include/core_cmInstr.h **** 
 614:Drivers/CMSIS/Include/core_cmInstr.h ****     This function removes the exclusive lock which is created by LDREX.
 615:Drivers/CMSIS/Include/core_cmInstr.h **** 
 616:Drivers/CMSIS/Include/core_cmInstr.h ****  */
 617:Drivers/CMSIS/Include/core_cmInstr.h **** __attribute__( ( always_inline ) ) __STATIC_INLINE void __CLREX(void)
 618:Drivers/CMSIS/Include/core_cmInstr.h **** {
 619:Drivers/CMSIS/Include/core_cmInstr.h ****   __ASM volatile ("clrex" ::: "memory");
 620:Drivers/CMSIS/Include/core_cmInstr.h **** }
 621:Drivers/CMSIS/Include/core_cmInstr.h **** 
 622:Drivers/CMSIS/Include/core_cmInstr.h **** 
 623:Drivers/CMSIS/Include/core_cmInstr.h **** /** \brief  Signed Saturate
 624:Drivers/CMSIS/Include/core_cmInstr.h **** 
 625:Drivers/CMSIS/Include/core_cmInstr.h ****     This function saturates a signed value.
ARM GAS  /tmp/cceaIirZ.s 			page 18


 626:Drivers/CMSIS/Include/core_cmInstr.h **** 
 627:Drivers/CMSIS/Include/core_cmInstr.h ****     \param [in]  value  Value to be saturated
 628:Drivers/CMSIS/Include/core_cmInstr.h ****     \param [in]    sat  Bit position to saturate to (1..32)
 629:Drivers/CMSIS/Include/core_cmInstr.h ****     \return             Saturated value
 630:Drivers/CMSIS/Include/core_cmInstr.h ****  */
 631:Drivers/CMSIS/Include/core_cmInstr.h **** #define __SSAT(ARG1,ARG2) \
 632:Drivers/CMSIS/Include/core_cmInstr.h **** ({                          \
 633:Drivers/CMSIS/Include/core_cmInstr.h ****   uint32_t __RES, __ARG1 = (ARG1); \
 634:Drivers/CMSIS/Include/core_cmInstr.h ****   __ASM ("ssat %0, %1, %2" : "=r" (__RES) :  "I" (ARG2), "r" (__ARG1) ); \
 635:Drivers/CMSIS/Include/core_cmInstr.h ****   __RES; \
 636:Drivers/CMSIS/Include/core_cmInstr.h ****  })
 637:Drivers/CMSIS/Include/core_cmInstr.h **** 
 638:Drivers/CMSIS/Include/core_cmInstr.h **** 
 639:Drivers/CMSIS/Include/core_cmInstr.h **** /** \brief  Unsigned Saturate
 640:Drivers/CMSIS/Include/core_cmInstr.h **** 
 641:Drivers/CMSIS/Include/core_cmInstr.h ****     This function saturates an unsigned value.
 642:Drivers/CMSIS/Include/core_cmInstr.h **** 
 643:Drivers/CMSIS/Include/core_cmInstr.h ****     \param [in]  value  Value to be saturated
 644:Drivers/CMSIS/Include/core_cmInstr.h ****     \param [in]    sat  Bit position to saturate to (0..31)
 645:Drivers/CMSIS/Include/core_cmInstr.h ****     \return             Saturated value
 646:Drivers/CMSIS/Include/core_cmInstr.h ****  */
 647:Drivers/CMSIS/Include/core_cmInstr.h **** #define __USAT(ARG1,ARG2) \
 648:Drivers/CMSIS/Include/core_cmInstr.h **** ({                          \
 649:Drivers/CMSIS/Include/core_cmInstr.h ****   uint32_t __RES, __ARG1 = (ARG1); \
 650:Drivers/CMSIS/Include/core_cmInstr.h ****   __ASM ("usat %0, %1, %2" : "=r" (__RES) :  "I" (ARG2), "r" (__ARG1) ); \
 651:Drivers/CMSIS/Include/core_cmInstr.h ****   __RES; \
 652:Drivers/CMSIS/Include/core_cmInstr.h ****  })
 653:Drivers/CMSIS/Include/core_cmInstr.h **** 
 654:Drivers/CMSIS/Include/core_cmInstr.h **** 
 655:Drivers/CMSIS/Include/core_cmInstr.h **** /** \brief  Count leading zeros
 656:Drivers/CMSIS/Include/core_cmInstr.h **** 
 657:Drivers/CMSIS/Include/core_cmInstr.h ****     This function counts the number of leading zeros of a data value.
 658:Drivers/CMSIS/Include/core_cmInstr.h **** 
 659:Drivers/CMSIS/Include/core_cmInstr.h ****     \param [in]  value  Value to count the leading zeros
 660:Drivers/CMSIS/Include/core_cmInstr.h ****     \return             number of leading zeros in value
 661:Drivers/CMSIS/Include/core_cmInstr.h ****  */
 662:Drivers/CMSIS/Include/core_cmInstr.h **** __attribute__( ( always_inline ) ) __STATIC_INLINE uint8_t __CLZ(uint32_t value)
 663:Drivers/CMSIS/Include/core_cmInstr.h **** {
 664:Drivers/CMSIS/Include/core_cmInstr.h ****    uint32_t result;
 665:Drivers/CMSIS/Include/core_cmInstr.h **** 
 666:Drivers/CMSIS/Include/core_cmInstr.h ****   __ASM volatile ("clz %0, %1" : "=r" (result) : "r" (value) );
 200              		.loc 2 666 0
 201 00ee FB6B     		ldr	r3, [r7, #60]	@ tmp248, value
 202              	@ 666 "Drivers/CMSIS/Include/core_cmInstr.h" 1
 203 00f0 B3FA83F4 		clz r4, r3	@ result, tmp248
 204              	@ 0 "" 2
 205              		.thumb
 206 00f4 BC63     		str	r4, [r7, #56]	@ result, result
 667:Drivers/CMSIS/Include/core_cmInstr.h ****   return(result);
 207              		.loc 2 667 0
 208 00f6 BB6B     		ldr	r3, [r7, #56]	@ tmp249, result
 209 00f8 DBB2     		uxtb	r3, r3	@ D.5979, tmp249
 210              	.LBE33:
 211              	.LBE32:
 212              	.LBE31:
 145:Drivers/STM32L1xx_HAL_Driver/stm32l1xx_hal_rcc_ex.cpp ****       /* RTC Clock selection can be changed only if the Backup Domain is reset */
 146:Drivers/STM32L1xx_HAL_Driver/stm32l1xx_hal_rcc_ex.cpp ****       __HAL_RCC_BACKUPRESET_FORCE();
ARM GAS  /tmp/cceaIirZ.s 			page 19


 213              		.loc 1 146 0
 214 00fa 4FEA8303 		lsl	r3, r3, #2	@ D.5898, D.5897,
 215 00fe 1A46     		mov	r2, r3	@ D.5899, D.5898
 216 0100 4FF4D063 		mov	r3, #1664	@ D.5900,
 217 0104 C4F24723 		movt	r3, 16967	@ D.5900,
 218 0108 D318     		adds	r3, r2, r3	@ D.5900, D.5899, D.5900
 219 010a 4FF00102 		mov	r2, #1	@ tmp250,
 220 010e 1A60     		str	r2, [r3, #0]	@ tmp250, *D.5901_43
 221 0110 4FF40003 		mov	r3, #8388608	@ tmp251,
 222 0114 7B63     		str	r3, [r7, #52]	@ tmp251, value
 223              	.LBB34:
 224              	.LBB35:
 225              	.LBB36:
 491:Drivers/CMSIS/Include/core_cmInstr.h ****    __ASM volatile ("rbit %0, %1" : "=r" (result) : "r" (value) );
 226              		.loc 2 491 0
 227 0116 7B6B     		ldr	r3, [r7, #52]	@ tmp253, value
 228              	@ 491 "Drivers/CMSIS/Include/core_cmInstr.h" 1
 229 0118 93FAA3F4 		rbit r4, r3	@ result, tmp253
 230              	@ 0 "" 2
 231              		.thumb
 232 011c 3C63     		str	r4, [r7, #48]	@ result, result
 492:Drivers/CMSIS/Include/core_cmInstr.h ****    return(result);
 233              		.loc 2 492 0
 234 011e 3B6B     		ldr	r3, [r7, #48]	@ D.5984, result
 235 0120 FB62     		str	r3, [r7, #44]	@ D.5902, value
 236              	.LBE36:
 237              	.LBE35:
 238              	.LBE34:
 239              	.LBB37:
 240              	.LBB38:
 241              	.LBB39:
 666:Drivers/CMSIS/Include/core_cmInstr.h ****   __ASM volatile ("clz %0, %1" : "=r" (result) : "r" (value) );
 242              		.loc 2 666 0
 243 0122 FB6A     		ldr	r3, [r7, #44]	@ tmp255, value
 244              	@ 666 "Drivers/CMSIS/Include/core_cmInstr.h" 1
 245 0124 B3FA83F4 		clz r4, r3	@ result, tmp255
 246              	@ 0 "" 2
 247              		.thumb
 248 0128 BC62     		str	r4, [r7, #40]	@ result, result
 249              		.loc 2 667 0
 250 012a BB6A     		ldr	r3, [r7, #40]	@ tmp256, result
 251 012c DBB2     		uxtb	r3, r3	@ D.5989, tmp256
 252              	.LBE39:
 253              	.LBE38:
 254              	.LBE37:
 147:Drivers/STM32L1xx_HAL_Driver/stm32l1xx_hal_rcc_ex.cpp ****       __HAL_RCC_BACKUPRESET_RELEASE();
 255              		.loc 1 147 0
 256 012e 4FEA8303 		lsl	r3, r3, #2	@ D.5905, D.5904,
 257 0132 1A46     		mov	r2, r3	@ D.5906, D.5905
 258 0134 4FF4D063 		mov	r3, #1664	@ D.5907,
 259 0138 C4F24723 		movt	r3, 16967	@ D.5907,
 260 013c D318     		adds	r3, r2, r3	@ D.5907, D.5906, D.5907
 261 013e 4FF00002 		mov	r2, #0	@ tmp257,
 262 0142 1A60     		str	r2, [r3, #0]	@ tmp257, *D.5908_50
 148:Drivers/STM32L1xx_HAL_Driver/stm32l1xx_hal_rcc_ex.cpp ****       /* Restore the Content of CSR register */
 149:Drivers/STM32L1xx_HAL_Driver/stm32l1xx_hal_rcc_ex.cpp ****       RCC->CSR = tmpreg;
 263              		.loc 1 149 0
ARM GAS  /tmp/cceaIirZ.s 			page 20


 264 0144 4FF46053 		mov	r3, #14336	@ D.5909,
 265 0148 C4F20203 		movt	r3, 16386	@ D.5909,
 266 014c BA6C     		ldr	r2, [r7, #72]	@ tmp258, tmpreg
 267 014e 5A63     		str	r2, [r3, #52]	@ tmp258, D.5909_51->CSR
 268              	.L8:
 150:Drivers/STM32L1xx_HAL_Driver/stm32l1xx_hal_rcc_ex.cpp ****     }
 151:Drivers/STM32L1xx_HAL_Driver/stm32l1xx_hal_rcc_ex.cpp **** 
 152:Drivers/STM32L1xx_HAL_Driver/stm32l1xx_hal_rcc_ex.cpp ****     /* If LSE is selected as RTC clock source, wait for LSE reactivation */
 153:Drivers/STM32L1xx_HAL_Driver/stm32l1xx_hal_rcc_ex.cpp ****     if ((PeriphClkInit->RTCClockSelection == RCC_RTCCLKSOURCE_LSE)
 269              		.loc 1 153 0
 270 0150 7B68     		ldr	r3, [r7, #4]	@ tmp259, PeriphClkInit
 271 0152 5B68     		ldr	r3, [r3, #4]	@ D.5912, PeriphClkInit_5(D)->RTCClockSelection
 272 0154 B3F5803F 		cmp	r3, #65536	@ D.5912,
 273 0158 04D0     		beq	.L13	@,
 274              		.loc 1 153 0 is_stmt 0 discriminator 1
 275 015a 7B68     		ldr	r3, [r7, #4]	@ tmp260, PeriphClkInit
 276 015c 9B68     		ldr	r3, [r3, #8]	@ D.5914, PeriphClkInit_5(D)->LCDClockSelection
 277 015e B3F5803F 		cmp	r3, #65536	@ D.5914,
 278 0162 51D1     		bne	.L14	@,
 279              	.L13:
 154:Drivers/STM32L1xx_HAL_Driver/stm32l1xx_hal_rcc_ex.cpp **** #if defined (STM32L100xB) || defined (STM32L100xBA) || defined (STM32L100xC) ||\
 155:Drivers/STM32L1xx_HAL_Driver/stm32l1xx_hal_rcc_ex.cpp ****     defined(STM32L152xB) || defined(STM32L152xBA) || defined(STM32L152xC) || \
 156:Drivers/STM32L1xx_HAL_Driver/stm32l1xx_hal_rcc_ex.cpp ****     defined(STM32L162xC) || defined(STM32L152xCA) || defined(STM32L152xD) || \
 157:Drivers/STM32L1xx_HAL_Driver/stm32l1xx_hal_rcc_ex.cpp ****     defined(STM32L162xCA) || defined(STM32L162xD) || defined(STM32L152xE) || \
 158:Drivers/STM32L1xx_HAL_Driver/stm32l1xx_hal_rcc_ex.cpp ****     defined(STM32L162xE)
 159:Drivers/STM32L1xx_HAL_Driver/stm32l1xx_hal_rcc_ex.cpp ****     || (PeriphClkInit->LCDClockSelection == RCC_RTCCLKSOURCE_LSE)
 160:Drivers/STM32L1xx_HAL_Driver/stm32l1xx_hal_rcc_ex.cpp **** #endif /* STM32L100xB || STM32L152xBA || ... || STM32L152xE || STM32L162xE */
 161:Drivers/STM32L1xx_HAL_Driver/stm32l1xx_hal_rcc_ex.cpp ****       )
 162:Drivers/STM32L1xx_HAL_Driver/stm32l1xx_hal_rcc_ex.cpp ****     {
 163:Drivers/STM32L1xx_HAL_Driver/stm32l1xx_hal_rcc_ex.cpp ****       /* Get timeout */   
 164:Drivers/STM32L1xx_HAL_Driver/stm32l1xx_hal_rcc_ex.cpp ****       tickstart = HAL_GetTick();
 280              		.loc 1 164 0 is_stmt 1
 281 0164 FFF7FEFF 		bl	HAL_GetTick	@
 282 0168 F864     		str	r0, [r7, #76]	@, tickstart
 165:Drivers/STM32L1xx_HAL_Driver/stm32l1xx_hal_rcc_ex.cpp ****       
 166:Drivers/STM32L1xx_HAL_Driver/stm32l1xx_hal_rcc_ex.cpp ****       /* Wait till LSE is ready */  
 167:Drivers/STM32L1xx_HAL_Driver/stm32l1xx_hal_rcc_ex.cpp ****       while(__HAL_RCC_GET_FLAG(RCC_FLAG_LSERDY) == RESET)
 283              		.loc 1 167 0
 284 016a 10E0     		b	.L15	@
 285              	.L22:
 168:Drivers/STM32L1xx_HAL_Driver/stm32l1xx_hal_rcc_ex.cpp ****       {
 169:Drivers/STM32L1xx_HAL_Driver/stm32l1xx_hal_rcc_ex.cpp ****         if((HAL_GetTick() - tickstart ) > LSE_TIMEOUT_VALUE)
 286              		.loc 1 169 0
 287 016c FFF7FEFF 		bl	HAL_GetTick	@
 288 0170 0246     		mov	r2, r0	@ D.5937,
 289 0172 FB6C     		ldr	r3, [r7, #76]	@ tmp261, tickstart
 290 0174 D21A     		subs	r2, r2, r3	@ D.5938, D.5937, tmp261
 291 0176 41F28833 		movw	r3, #5000	@ tmp264,
 292 017a 9A42     		cmp	r2, r3	@ D.5938, tmp264
 293 017c 94BF     		ite	ls	@
 294 017e 0023     		movls	r3, #0	@, tmp263
 295 0180 0123     		movhi	r3, #1	@, tmp263
 296 0182 DBB2     		uxtb	r3, r3	@ retval.4, tmp262
 297 0184 002B     		cmp	r3, #0	@ retval.4,
 298 0186 02D0     		beq	.L15	@,
 170:Drivers/STM32L1xx_HAL_Driver/stm32l1xx_hal_rcc_ex.cpp ****         {
 171:Drivers/STM32L1xx_HAL_Driver/stm32l1xx_hal_rcc_ex.cpp ****           return HAL_TIMEOUT;
ARM GAS  /tmp/cceaIirZ.s 			page 21


 299              		.loc 1 171 0
 300 0188 4FF00303 		mov	r3, #3	@ D.5883,
 301 018c 65E0     		b	.L5	@
 302              	.L15:
 303 018e 4FF40073 		mov	r3, #512	@ tmp265,
 304 0192 7B62     		str	r3, [r7, #36]	@ tmp265, value
 305              	.LBB40:
 306              	.LBB41:
 307              	.LBB42:
 491:Drivers/CMSIS/Include/core_cmInstr.h ****    __ASM volatile ("rbit %0, %1" : "=r" (result) : "r" (value) );
 308              		.loc 2 491 0 discriminator 1
 309 0194 7B6A     		ldr	r3, [r7, #36]	@ tmp267, value
 310              	@ 491 "Drivers/CMSIS/Include/core_cmInstr.h" 1
 311 0196 93FAA3F4 		rbit r4, r3	@ result, tmp267
 312              	@ 0 "" 2
 313              		.thumb
 314 019a 3C62     		str	r4, [r7, #32]	@ result, result
 492:Drivers/CMSIS/Include/core_cmInstr.h ****    return(result);
 315              		.loc 2 492 0 discriminator 1
 316 019c 3B6A     		ldr	r3, [r7, #32]	@ D.5994, result
 317 019e FB61     		str	r3, [r7, #28]	@ D.5920, value
 318              	.LBE42:
 319              	.LBE41:
 320              	.LBE40:
 321              	.LBB43:
 322              	.LBB44:
 323              	.LBB45:
 666:Drivers/CMSIS/Include/core_cmInstr.h ****   __ASM volatile ("clz %0, %1" : "=r" (result) : "r" (value) );
 324              		.loc 2 666 0 discriminator 1
 325 01a0 FB69     		ldr	r3, [r7, #28]	@ tmp269, value
 326              	@ 666 "Drivers/CMSIS/Include/core_cmInstr.h" 1
 327 01a2 B3FA83F4 		clz r4, r3	@ result, tmp269
 328              	@ 0 "" 2
 329              		.thumb
 330 01a6 BC61     		str	r4, [r7, #24]	@ result, result
 331              		.loc 2 667 0 discriminator 1
 332 01a8 BB69     		ldr	r3, [r7, #24]	@ tmp270, result
 333 01aa DBB2     		uxtb	r3, r3	@ D.5999, tmp270
 334              	.LBE45:
 335              	.LBE44:
 336              	.LBE43:
 167:Drivers/STM32L1xx_HAL_Driver/stm32l1xx_hal_rcc_ex.cpp ****       while(__HAL_RCC_GET_FLAG(RCC_FLAG_LSERDY) == RESET)
 337              		.loc 1 167 0 discriminator 1
 338 01ac 43F06003 		orr	r3, r3, #96	@ tmp271, D.5921,
 339 01b0 DBB2     		uxtb	r3, r3	@ D.5922, tmp271
 340 01b2 4FEA6313 		asr	r3, r3, #5	@ D.5924, D.5923,
 341 01b6 012B     		cmp	r3, #1	@ D.5924,
 342 01b8 05D1     		bne	.L18	@,
 167:Drivers/STM32L1xx_HAL_Driver/stm32l1xx_hal_rcc_ex.cpp ****       while(__HAL_RCC_GET_FLAG(RCC_FLAG_LSERDY) == RESET)
 343              		.loc 1 167 0 is_stmt 0 discriminator 2
 344 01ba 4FF46053 		mov	r3, #14336	@ D.5927,
 345 01be C4F20203 		movt	r3, 16386	@ D.5927,
 346 01c2 1B68     		ldr	r3, [r3, #0]	@ iftmp.3, D.5927_60->CR
 347 01c4 04E0     		b	.L19	@
 348              	.L18:
 167:Drivers/STM32L1xx_HAL_Driver/stm32l1xx_hal_rcc_ex.cpp ****       while(__HAL_RCC_GET_FLAG(RCC_FLAG_LSERDY) == RESET)
 349              		.loc 1 167 0 discriminator 3
ARM GAS  /tmp/cceaIirZ.s 			page 22


 350 01c6 4FF46053 		mov	r3, #14336	@ D.5929,
 351 01ca C4F20203 		movt	r3, 16386	@ D.5929,
 352 01ce 5B6B     		ldr	r3, [r3, #52]	@ iftmp.3, D.5929_62->CSR
 353              	.L19:
 354 01d0 4FF40072 		mov	r2, #512	@ tmp272,
 355 01d4 7A61     		str	r2, [r7, #20]	@ tmp272, value
 356              	.LBB46:
 357              	.LBB47:
 358              	.LBB48:
 491:Drivers/CMSIS/Include/core_cmInstr.h ****    __ASM volatile ("rbit %0, %1" : "=r" (result) : "r" (value) );
 359              		.loc 2 491 0 is_stmt 1 discriminator 4
 360 01d6 7A69     		ldr	r2, [r7, #20]	@ tmp274, value
 361              	@ 491 "Drivers/CMSIS/Include/core_cmInstr.h" 1
 362 01d8 92FAA2F4 		rbit r4, r2	@ result, tmp274
 363              	@ 0 "" 2
 364              		.thumb
 365 01dc 3C61     		str	r4, [r7, #16]	@ result, result
 492:Drivers/CMSIS/Include/core_cmInstr.h ****    return(result);
 366              		.loc 2 492 0 discriminator 4
 367 01de 3A69     		ldr	r2, [r7, #16]	@ D.6004, result
 368 01e0 FA60     		str	r2, [r7, #12]	@ D.5930, value
 369              	.LBE48:
 370              	.LBE47:
 371              	.LBE46:
 372              	.LBB49:
 373              	.LBB50:
 374              	.LBB51:
 666:Drivers/CMSIS/Include/core_cmInstr.h ****   __ASM volatile ("clz %0, %1" : "=r" (result) : "r" (value) );
 375              		.loc 2 666 0 discriminator 4
 376 01e2 FA68     		ldr	r2, [r7, #12]	@ tmp276, value
 377              	@ 666 "Drivers/CMSIS/Include/core_cmInstr.h" 1
 378 01e4 B2FA82F4 		clz r4, r2	@ result, tmp276
 379              	@ 0 "" 2
 380              		.thumb
 381 01e8 BC60     		str	r4, [r7, #8]	@ result, result
 382              		.loc 2 667 0 discriminator 4
 383 01ea BA68     		ldr	r2, [r7, #8]	@ tmp277, result
 384 01ec D2B2     		uxtb	r2, r2	@ D.6009, tmp277
 385              	.LBE51:
 386              	.LBE50:
 387              	.LBE49:
 167:Drivers/STM32L1xx_HAL_Driver/stm32l1xx_hal_rcc_ex.cpp ****       while(__HAL_RCC_GET_FLAG(RCC_FLAG_LSERDY) == RESET)
 388              		.loc 1 167 0 discriminator 4
 389 01ee 02F01F02 		and	r2, r2, #31	@ D.5933, D.5932,
 390 01f2 23FA02F3 		lsr	r3, r3, r2	@ D.5934, iftmp.3, D.5933
 391 01f6 03F00103 		and	r3, r3, #1	@ D.5935, D.5934,
 392 01fa 002B     		cmp	r3, #0	@ D.5935,
 393 01fc 14BF     		ite	ne	@
 394 01fe 0023     		movne	r3, #0	@, tmp279
 395 0200 0123     		moveq	r3, #1	@, tmp279
 396 0202 DBB2     		uxtb	r3, r3	@ retval.2, tmp278
 397 0204 002B     		cmp	r3, #0	@ retval.2,
 398 0206 B1D1     		bne	.L22	@,
 399              	.L14:
 172:Drivers/STM32L1xx_HAL_Driver/stm32l1xx_hal_rcc_ex.cpp ****         }      
 173:Drivers/STM32L1xx_HAL_Driver/stm32l1xx_hal_rcc_ex.cpp ****       }  
 174:Drivers/STM32L1xx_HAL_Driver/stm32l1xx_hal_rcc_ex.cpp ****     }
ARM GAS  /tmp/cceaIirZ.s 			page 23


 175:Drivers/STM32L1xx_HAL_Driver/stm32l1xx_hal_rcc_ex.cpp **** 
 176:Drivers/STM32L1xx_HAL_Driver/stm32l1xx_hal_rcc_ex.cpp ****     __HAL_RCC_RTC_CONFIG(PeriphClkInit->RTCClockSelection);
 400              		.loc 1 176 0
 401 0208 7B68     		ldr	r3, [r7, #4]	@ tmp280, PeriphClkInit
 402 020a 5B68     		ldr	r3, [r3, #4]	@ D.5945, PeriphClkInit_5(D)->RTCClockSelection
 403 020c 03F44033 		and	r3, r3, #196608	@ D.5946, D.5945,
 404 0210 B3F5403F 		cmp	r3, #196608	@ D.5946,
 405 0214 10D1     		bne	.L23	@,
 406              		.loc 1 176 0 is_stmt 0 discriminator 1
 407 0216 4FF46053 		mov	r3, #14336	@ D.5949,
 408 021a C4F20203 		movt	r3, 16386	@ D.5949,
 409 021e 4FF46052 		mov	r2, #14336	@ D.5950,
 410 0222 C4F20202 		movt	r2, 16386	@ D.5950,
 411 0226 1268     		ldr	r2, [r2, #0]	@ D.5951, D.5950_78->CR
 412 0228 22F0C041 		bic	r1, r2, #1610612736	@ D.5952, D.5951,
 413 022c 7A68     		ldr	r2, [r7, #4]	@ tmp281, PeriphClkInit
 414 022e 5268     		ldr	r2, [r2, #4]	@ D.5953, PeriphClkInit_5(D)->RTCClockSelection
 415 0230 02F0C042 		and	r2, r2, #1610612736	@ D.5954, D.5953,
 416 0234 0A43     		orrs	r2, r2, r1	@, D.5955, D.5954, D.5952
 417 0236 1A60     		str	r2, [r3, #0]	@ D.5955, D.5949_77->CR
 418              	.L23:
 419              		.loc 1 176 0 discriminator 2
 420 0238 4FF46053 		mov	r3, #14336	@ D.5957,
 421 023c C4F20203 		movt	r3, 16386	@ D.5957,
 422 0240 4FF46052 		mov	r2, #14336	@ D.5958,
 423 0244 C4F20202 		movt	r2, 16386	@ D.5958,
 424 0248 516B     		ldr	r1, [r2, #52]	@ D.5959, D.5958_85->CSR
 425 024a 7A68     		ldr	r2, [r7, #4]	@ tmp282, PeriphClkInit
 426 024c 5268     		ldr	r2, [r2, #4]	@ D.5960, PeriphClkInit_5(D)->RTCClockSelection
 427 024e 02F44032 		and	r2, r2, #196608	@ D.5961, D.5960,
 428 0252 0A43     		orrs	r2, r2, r1	@, D.5962, D.5961, D.5959
 429 0254 5A63     		str	r2, [r3, #52]	@ D.5962, D.5957_84->CSR
 430              	.L3:
 177:Drivers/STM32L1xx_HAL_Driver/stm32l1xx_hal_rcc_ex.cpp ****   }
 178:Drivers/STM32L1xx_HAL_Driver/stm32l1xx_hal_rcc_ex.cpp **** 
 179:Drivers/STM32L1xx_HAL_Driver/stm32l1xx_hal_rcc_ex.cpp ****   return HAL_OK;
 431              		.loc 1 179 0 is_stmt 1
 432 0256 4FF00003 		mov	r3, #0	@ D.5883,
 433              	.L5:
 434              	.LBE27:
 180:Drivers/STM32L1xx_HAL_Driver/stm32l1xx_hal_rcc_ex.cpp **** }
 435              		.loc 1 180 0
 436 025a 1846     		mov	r0, r3	@, <retval>
 437 025c 07F15407 		add	r7, r7, #84	@,,
 438 0260 BD46     		mov	sp, r7
 439 0262 90BD     		pop	{r4, r7, pc}
 440              		.cfi_endproc
 441              	.LFE56:
 442              		.size	HAL_RCCEx_PeriphCLKConfig, .-HAL_RCCEx_PeriphCLKConfig
 443              		.section	.text.HAL_RCCEx_GetPeriphCLKConfig,"ax",%progbits
 444              		.align	2
 445              		.global	HAL_RCCEx_GetPeriphCLKConfig
 446              		.thumb
 447              		.thumb_func
 448              		.type	HAL_RCCEx_GetPeriphCLKConfig, %function
 449              	HAL_RCCEx_GetPeriphCLKConfig:
 450              	.LFB57:
ARM GAS  /tmp/cceaIirZ.s 			page 24


 181:Drivers/STM32L1xx_HAL_Driver/stm32l1xx_hal_rcc_ex.cpp **** 
 182:Drivers/STM32L1xx_HAL_Driver/stm32l1xx_hal_rcc_ex.cpp **** /**
 183:Drivers/STM32L1xx_HAL_Driver/stm32l1xx_hal_rcc_ex.cpp ****   * @brief  Get the PeriphClkInit according to the internal
 184:Drivers/STM32L1xx_HAL_Driver/stm32l1xx_hal_rcc_ex.cpp ****   * RCC configuration registers.
 185:Drivers/STM32L1xx_HAL_Driver/stm32l1xx_hal_rcc_ex.cpp ****   * @param  PeriphClkInit: pointer to an RCC_PeriphCLKInitTypeDef structure that 
 186:Drivers/STM32L1xx_HAL_Driver/stm32l1xx_hal_rcc_ex.cpp ****   *         returns the configuration information for the Extended Peripherals clocks(RTC/LCD clock
 187:Drivers/STM32L1xx_HAL_Driver/stm32l1xx_hal_rcc_ex.cpp ****   * @retval None
 188:Drivers/STM32L1xx_HAL_Driver/stm32l1xx_hal_rcc_ex.cpp ****   */
 189:Drivers/STM32L1xx_HAL_Driver/stm32l1xx_hal_rcc_ex.cpp **** void HAL_RCCEx_GetPeriphCLKConfig(RCC_PeriphCLKInitTypeDef  *PeriphClkInit)
 190:Drivers/STM32L1xx_HAL_Driver/stm32l1xx_hal_rcc_ex.cpp **** {
 451              		.loc 1 190 0
 452              		.cfi_startproc
 453              		@ args = 0, pretend = 0, frame = 16
 454              		@ frame_needed = 1, uses_anonymous_args = 0
 455              		@ link register save eliminated.
 456 0000 80B4     		push	{r7}	@
 457              	.LCFI3:
 458              		.cfi_def_cfa_offset 4
 459              		.cfi_offset 7, -4
 460 0002 85B0     		sub	sp, sp, #20	@,,
 461              	.LCFI4:
 462              		.cfi_def_cfa_offset 24
 463 0004 00AF     		add	r7, sp, #0	@,,
 464              	.LCFI5:
 465              		.cfi_def_cfa_register 7
 466 0006 7860     		str	r0, [r7, #4]	@ PeriphClkInit, PeriphClkInit
 467              	.LBB52:
 191:Drivers/STM32L1xx_HAL_Driver/stm32l1xx_hal_rcc_ex.cpp ****   uint32_t srcclk = 0;
 468              		.loc 1 191 0
 469 0008 4FF00003 		mov	r3, #0	@ tmp143,
 470 000c FB60     		str	r3, [r7, #12]	@ tmp143, srcclk
 192:Drivers/STM32L1xx_HAL_Driver/stm32l1xx_hal_rcc_ex.cpp ****   
 193:Drivers/STM32L1xx_HAL_Driver/stm32l1xx_hal_rcc_ex.cpp ****   /* Set all possible values for the extended clock type parameter------------*/
 194:Drivers/STM32L1xx_HAL_Driver/stm32l1xx_hal_rcc_ex.cpp ****   PeriphClkInit->PeriphClockSelection = RCC_PERIPHCLK_RTC;
 471              		.loc 1 194 0
 472 000e 7B68     		ldr	r3, [r7, #4]	@ tmp144, PeriphClkInit
 473 0010 4FF00102 		mov	r2, #1	@ tmp145,
 474 0014 1A60     		str	r2, [r3, #0]	@ tmp145, PeriphClkInit_2(D)->PeriphClockSelection
 195:Drivers/STM32L1xx_HAL_Driver/stm32l1xx_hal_rcc_ex.cpp **** #if defined (STM32L100xB) || defined (STM32L100xBA) || defined (STM32L100xC) ||\
 196:Drivers/STM32L1xx_HAL_Driver/stm32l1xx_hal_rcc_ex.cpp ****     defined(STM32L152xB) || defined(STM32L152xBA) || defined(STM32L152xC) || \
 197:Drivers/STM32L1xx_HAL_Driver/stm32l1xx_hal_rcc_ex.cpp ****     defined(STM32L162xC) || defined(STM32L152xCA) || defined(STM32L152xD) || \
 198:Drivers/STM32L1xx_HAL_Driver/stm32l1xx_hal_rcc_ex.cpp ****     defined(STM32L162xCA) || defined(STM32L162xD) || defined(STM32L152xE) || \
 199:Drivers/STM32L1xx_HAL_Driver/stm32l1xx_hal_rcc_ex.cpp ****     defined(STM32L162xE)
 200:Drivers/STM32L1xx_HAL_Driver/stm32l1xx_hal_rcc_ex.cpp ****   PeriphClkInit->PeriphClockSelection |= RCC_PERIPHCLK_LCD;
 475              		.loc 1 200 0
 476 0016 7B68     		ldr	r3, [r7, #4]	@ tmp146, PeriphClkInit
 477 0018 1B68     		ldr	r3, [r3, #0]	@ D.5844, PeriphClkInit_2(D)->PeriphClockSelection
 478 001a 43F00202 		orr	r2, r3, #2	@ D.5845, D.5844,
 479 001e 7B68     		ldr	r3, [r7, #4]	@ tmp147, PeriphClkInit
 480 0020 1A60     		str	r2, [r3, #0]	@ D.5845, PeriphClkInit_2(D)->PeriphClockSelection
 201:Drivers/STM32L1xx_HAL_Driver/stm32l1xx_hal_rcc_ex.cpp **** #endif /* STM32L100xB || STM32L152xBA || ... || STM32L152xE || STM32L162xE */
 202:Drivers/STM32L1xx_HAL_Driver/stm32l1xx_hal_rcc_ex.cpp **** 
 203:Drivers/STM32L1xx_HAL_Driver/stm32l1xx_hal_rcc_ex.cpp ****   /* Get the RTC/LCD configuration -----------------------------------------------*/
 204:Drivers/STM32L1xx_HAL_Driver/stm32l1xx_hal_rcc_ex.cpp ****   srcclk = __HAL_RCC_GET_RTC_SOURCE();
 481              		.loc 1 204 0
 482 0022 4FF46053 		mov	r3, #14336	@ D.5846,
 483 0026 C4F20203 		movt	r3, 16386	@ D.5846,
ARM GAS  /tmp/cceaIirZ.s 			page 25


 484 002a 5B6B     		ldr	r3, [r3, #52]	@ D.5847, D.5846_5->CSR
 485 002c 03F44033 		and	r3, r3, #196608	@ tmp148, D.5847,
 486 0030 FB60     		str	r3, [r7, #12]	@ tmp148, srcclk
 205:Drivers/STM32L1xx_HAL_Driver/stm32l1xx_hal_rcc_ex.cpp ****   if (srcclk != RCC_RTCCLKSOURCE_HSE_DIV2)
 487              		.loc 1 205 0
 488 0032 FB68     		ldr	r3, [r7, #12]	@ tmp149, srcclk
 489 0034 B3F5403F 		cmp	r3, #196608	@ tmp149,
 490 0038 03D0     		beq	.L25	@,
 206:Drivers/STM32L1xx_HAL_Driver/stm32l1xx_hal_rcc_ex.cpp ****   {
 207:Drivers/STM32L1xx_HAL_Driver/stm32l1xx_hal_rcc_ex.cpp ****     /* Source clock is LSE or LSI*/
 208:Drivers/STM32L1xx_HAL_Driver/stm32l1xx_hal_rcc_ex.cpp ****     PeriphClkInit->RTCClockSelection = srcclk;
 491              		.loc 1 208 0
 492 003a 7B68     		ldr	r3, [r7, #4]	@ tmp150, PeriphClkInit
 493 003c FA68     		ldr	r2, [r7, #12]	@ tmp151, srcclk
 494 003e 5A60     		str	r2, [r3, #4]	@ tmp151, PeriphClkInit_2(D)->RTCClockSelection
 495 0040 0AE0     		b	.L26	@
 496              	.L25:
 209:Drivers/STM32L1xx_HAL_Driver/stm32l1xx_hal_rcc_ex.cpp ****   }
 210:Drivers/STM32L1xx_HAL_Driver/stm32l1xx_hal_rcc_ex.cpp ****   else
 211:Drivers/STM32L1xx_HAL_Driver/stm32l1xx_hal_rcc_ex.cpp ****   {
 212:Drivers/STM32L1xx_HAL_Driver/stm32l1xx_hal_rcc_ex.cpp ****     /* Source clock is HSE. Need to get the prescaler value*/
 213:Drivers/STM32L1xx_HAL_Driver/stm32l1xx_hal_rcc_ex.cpp ****     PeriphClkInit->RTCClockSelection = srcclk | (READ_BIT(RCC->CR, RCC_CR_RTCPRE));
 497              		.loc 1 213 0
 498 0042 4FF46053 		mov	r3, #14336	@ D.5851,
 499 0046 C4F20203 		movt	r3, 16386	@ D.5851,
 500 004a 1B68     		ldr	r3, [r3, #0]	@ D.5852, D.5851_8->CR
 501 004c 03F0C042 		and	r2, r3, #1610612736	@ D.5853, D.5852,
 502 0050 FB68     		ldr	r3, [r7, #12]	@ tmp152, srcclk
 503 0052 1A43     		orrs	r2, r2, r3	@, D.5854, D.5853, tmp152
 504 0054 7B68     		ldr	r3, [r7, #4]	@ tmp153, PeriphClkInit
 505 0056 5A60     		str	r2, [r3, #4]	@ D.5854, PeriphClkInit_2(D)->RTCClockSelection
 506              	.L26:
 214:Drivers/STM32L1xx_HAL_Driver/stm32l1xx_hal_rcc_ex.cpp ****   }
 215:Drivers/STM32L1xx_HAL_Driver/stm32l1xx_hal_rcc_ex.cpp **** #if defined (STM32L100xB) || defined (STM32L100xBA) || defined (STM32L100xC) ||\
 216:Drivers/STM32L1xx_HAL_Driver/stm32l1xx_hal_rcc_ex.cpp ****     defined(STM32L152xB) || defined(STM32L152xBA) || defined(STM32L152xC) || \
 217:Drivers/STM32L1xx_HAL_Driver/stm32l1xx_hal_rcc_ex.cpp ****     defined(STM32L162xC) || defined(STM32L152xCA) || defined(STM32L152xD) || \
 218:Drivers/STM32L1xx_HAL_Driver/stm32l1xx_hal_rcc_ex.cpp ****     defined(STM32L162xCA) || defined(STM32L162xD) || defined(STM32L152xE) || \
 219:Drivers/STM32L1xx_HAL_Driver/stm32l1xx_hal_rcc_ex.cpp ****     defined(STM32L162xE)
 220:Drivers/STM32L1xx_HAL_Driver/stm32l1xx_hal_rcc_ex.cpp ****   PeriphClkInit->LCDClockSelection = PeriphClkInit->RTCClockSelection;
 507              		.loc 1 220 0
 508 0058 7B68     		ldr	r3, [r7, #4]	@ tmp154, PeriphClkInit
 509 005a 5A68     		ldr	r2, [r3, #4]	@ D.5855, PeriphClkInit_2(D)->RTCClockSelection
 510 005c 7B68     		ldr	r3, [r7, #4]	@ tmp155, PeriphClkInit
 511 005e 9A60     		str	r2, [r3, #8]	@ D.5855, PeriphClkInit_2(D)->LCDClockSelection
 512              	.LBE52:
 221:Drivers/STM32L1xx_HAL_Driver/stm32l1xx_hal_rcc_ex.cpp **** #endif /* STM32L100xB || STM32L152xBA || ... || STM32L152xE || STM32L162xE */
 222:Drivers/STM32L1xx_HAL_Driver/stm32l1xx_hal_rcc_ex.cpp **** }
 513              		.loc 1 222 0
 514 0060 07F11407 		add	r7, r7, #20	@,,
 515 0064 BD46     		mov	sp, r7
 516 0066 80BC     		pop	{r7}
 517 0068 7047     		bx	lr
 518              		.cfi_endproc
 519              	.LFE57:
 520              		.size	HAL_RCCEx_GetPeriphCLKConfig, .-HAL_RCCEx_GetPeriphCLKConfig
 521 006a 00BF     		.text
 522              	.Letext0:
ARM GAS  /tmp/cceaIirZ.s 			page 26


 523              		.file 3 "/home/maciek/gcc-arm-none-eabi/gcc-arm-none-eabi-4_7-2013q1/bin/../lib/gcc/arm-none-eabi/
 524              		.file 4 "Drivers/CMSIS/Device/ST/STM32L1xx/stm32l152xb.h"
 525              		.file 5 "Drivers/CMSIS/Device/ST/STM32L1xx/stm32l1xx.h"
 526              		.file 6 "Drivers/STM32L1xx_HAL_Driver/stm32l1xx_hal_def.h"
 527              		.file 7 "Drivers/STM32L1xx_HAL_Driver/stm32l1xx_hal_rcc_ex.h"
 528              		.file 8 "Drivers/CMSIS/Include/core_cm3.h"