ARM GAS  /tmp/ccS6NUBW.s 			page 1


   1              		.syntax unified
   2              		.cpu cortex-m3
   3              		.fpu softvfp
   4              		.eabi_attribute 20, 1	@ Tag_ABI_FP_denormal
   5              		.eabi_attribute 21, 1	@ Tag_ABI_FP_exceptions
   6              		.eabi_attribute 23, 3	@ Tag_ABI_FP_number_model
   7              		.eabi_attribute 24, 1	@ Tag_ABI_align8_needed
   8              		.eabi_attribute 25, 1	@ Tag_ABI_align8_preserved
   9              		.eabi_attribute 26, 1	@ Tag_ABI_enum_size
  10              		.eabi_attribute 30, 6	@ Tag_ABI_optimization_goals
  11              		.eabi_attribute 34, 1	@ Tag_CPU_unaligned_access
  12              		.eabi_attribute 18, 4	@ Tag_ABI_PCS_wchar_t
  13              		.file	"stm32l1xx_hal_pcd.cpp"
  14              	@ GNU C++ (GNU Tools for ARM Embedded Processors) version 4.7.3 20130312 (release) [ARM/embedded-4_
  15              	@	compiled by GNU C version 4.3.6, GMP version 4.3.2, MPFR version 2.4.2, MPC version 0.8.1
  16              	@ GGC heuristics: --param ggc-min-expand=100 --param ggc-min-heapsize=131072
  17              	@ options passed:  -I . -I Src -I hdr -I Inc -I Middlewares
  18              	@ -I Middlewares/ST -I Middlewares/ST/STM32_USB_Device_Library/Class/CDC
  19              	@ -I Middlewares/ST/STM32_USB_Device_Library/Core -I Drivers
  20              	@ -I Drivers/CMSIS -I Drivers/CMSIS/Device/ST/STM32L1xx
  21              	@ -I Drivers/CMSIS/Include -I Drivers/STM32L1xx_HAL_Driver
  22              	@ -imultilib armv7-m
  23              	@ -iprefix /home/maciek/gcc-arm-none-eabi/gcc-arm-none-eabi-4_7-2013q1/bin/../lib/gcc/arm-none-eabi
  24              	@ -isysroot /home/maciek/gcc-arm-none-eabi/gcc-arm-none-eabi-4_7-2013q1/bin/../arm-none-eabi
  25              	@ -MD out/stm32l1xx_hal_pcd.d -MF out/stm32l1xx_hal_pcd.d -MP
  26              	@ -MQ out/stm32l1xx_hal_pcd.o -D__USES_INITFINI__ -D STM32L1XX_MD
  27              	@ Drivers/STM32L1xx_HAL_Driver/stm32l1xx_hal_pcd.cpp -mcpu=cortex-m3
  28              	@ -mthumb -auxbase-strip out/stm32l1xx_hal_pcd.o -g -ggdb3 -O0 -Wall
  29              	@ -Wextra -std=gnu++11 -ffunction-sections -fdata-sections -fno-rtti
  30              	@ -fno-exceptions -fverbose-asm
  31              	@ options enabled:  -fauto-inc-dec -fbranch-count-reg -fcommon
  32              	@ -fdata-sections -fdebug-types-section -fdelete-null-pointer-checks
  33              	@ -fdwarf2-cfi-asm -fearly-inlining -feliminate-unused-debug-types
  34              	@ -ffunction-cse -ffunction-sections -fgcse-lm -fgnu-runtime -fident
  35              	@ -finline-atomics -fira-share-save-slots -fira-share-spill-slots -fivopts
  36              	@ -fkeep-static-consts -fleading-underscore -fmath-errno
  37              	@ -fmerge-debug-strings -fmove-loop-invariants -fpeephole
  38              	@ -fprefetch-loop-arrays -freg-struct-return
  39              	@ -fsched-critical-path-heuristic -fsched-dep-count-heuristic
  40              	@ -fsched-group-heuristic -fsched-interblock -fsched-last-insn-heuristic
  41              	@ -fsched-rank-heuristic -fsched-spec -fsched-spec-insn-heuristic
  42              	@ -fsched-stalled-insns-dep -fshow-column -fsigned-zeros
  43              	@ -fsplit-ivs-in-unroller -fstrict-volatile-bitfields -ftrapping-math
  44              	@ -ftree-cselim -ftree-forwprop -ftree-loop-if-convert -ftree-loop-im
  45              	@ -ftree-loop-ivcanon -ftree-loop-optimize -ftree-parallelize-loops=
  46              	@ -ftree-phiprop -ftree-pta -ftree-reassoc -ftree-scev-cprop
  47              	@ -ftree-slp-vectorize -ftree-vect-loop-version -funit-at-a-time
  48              	@ -fverbose-asm -fzero-initialized-in-bss -mfix-cortex-m3-ldrd
  49              	@ -mlittle-endian -msched-prolog -mthumb -munaligned-access
  50              	@ -mvectorize-with-neon-quad
  51              	
  52              		.text
  53              	.Ltext0:
  54              		.cfi_sections	.debug_frame
  55              		.section	.text.HAL_PCD_Init,"ax",%progbits
  56              		.align	2
  57              		.global	HAL_PCD_Init
ARM GAS  /tmp/ccS6NUBW.s 			page 2


  58              		.thumb
  59              		.thumb_func
  60              		.type	HAL_PCD_Init, %function
  61              	HAL_PCD_Init:
  62              	.LFB56:
  63              		.file 1 "Drivers/STM32L1xx_HAL_Driver/stm32l1xx_hal_pcd.cpp"
   1:Drivers/STM32L1xx_HAL_Driver/stm32l1xx_hal_pcd.cpp **** /**
   2:Drivers/STM32L1xx_HAL_Driver/stm32l1xx_hal_pcd.cpp ****   ******************************************************************************
   3:Drivers/STM32L1xx_HAL_Driver/stm32l1xx_hal_pcd.cpp ****   * @file    stm32l1xx_hal_pcd.c
   4:Drivers/STM32L1xx_HAL_Driver/stm32l1xx_hal_pcd.cpp ****   * @author  MCD Application Team
   5:Drivers/STM32L1xx_HAL_Driver/stm32l1xx_hal_pcd.cpp ****   * @version V1.0.0
   6:Drivers/STM32L1xx_HAL_Driver/stm32l1xx_hal_pcd.cpp ****   * @date    5-September-2014
   7:Drivers/STM32L1xx_HAL_Driver/stm32l1xx_hal_pcd.cpp ****   * @brief   PCD HAL module driver.
   8:Drivers/STM32L1xx_HAL_Driver/stm32l1xx_hal_pcd.cpp ****   *          This file provides firmware functions to manage the following 
   9:Drivers/STM32L1xx_HAL_Driver/stm32l1xx_hal_pcd.cpp ****   *          functionalities of the USB Peripheral Controller:
  10:Drivers/STM32L1xx_HAL_Driver/stm32l1xx_hal_pcd.cpp ****   *           + Initialization and de-initialization functions
  11:Drivers/STM32L1xx_HAL_Driver/stm32l1xx_hal_pcd.cpp ****   *           + IO operation functions
  12:Drivers/STM32L1xx_HAL_Driver/stm32l1xx_hal_pcd.cpp ****   *           + Peripheral Control functions 
  13:Drivers/STM32L1xx_HAL_Driver/stm32l1xx_hal_pcd.cpp ****   *           + Peripheral State functions
  14:Drivers/STM32L1xx_HAL_Driver/stm32l1xx_hal_pcd.cpp ****   *         
  15:Drivers/STM32L1xx_HAL_Driver/stm32l1xx_hal_pcd.cpp ****   @verbatim
  16:Drivers/STM32L1xx_HAL_Driver/stm32l1xx_hal_pcd.cpp ****   ==============================================================================
  17:Drivers/STM32L1xx_HAL_Driver/stm32l1xx_hal_pcd.cpp ****                     ##### How to use this driver #####
  18:Drivers/STM32L1xx_HAL_Driver/stm32l1xx_hal_pcd.cpp ****   ==============================================================================
  19:Drivers/STM32L1xx_HAL_Driver/stm32l1xx_hal_pcd.cpp ****     [..]
  20:Drivers/STM32L1xx_HAL_Driver/stm32l1xx_hal_pcd.cpp ****       The PCD HAL driver can be used as follows:
  21:Drivers/STM32L1xx_HAL_Driver/stm32l1xx_hal_pcd.cpp **** 
  22:Drivers/STM32L1xx_HAL_Driver/stm32l1xx_hal_pcd.cpp ****      (#) Declare a PCD_HandleTypeDef handle structure, for example:
  23:Drivers/STM32L1xx_HAL_Driver/stm32l1xx_hal_pcd.cpp ****          PCD_HandleTypeDef  hpcd;
  24:Drivers/STM32L1xx_HAL_Driver/stm32l1xx_hal_pcd.cpp ****         
  25:Drivers/STM32L1xx_HAL_Driver/stm32l1xx_hal_pcd.cpp ****      (#) Fill parameters of Init structure in HCD handle
  26:Drivers/STM32L1xx_HAL_Driver/stm32l1xx_hal_pcd.cpp ****   
  27:Drivers/STM32L1xx_HAL_Driver/stm32l1xx_hal_pcd.cpp ****      (#) Call HAL_PCD_Init() API to initialize the HCD peripheral (Core, Device core, ...) 
  28:Drivers/STM32L1xx_HAL_Driver/stm32l1xx_hal_pcd.cpp **** 
  29:Drivers/STM32L1xx_HAL_Driver/stm32l1xx_hal_pcd.cpp ****      (#) Initialize the PCD low level resources through the HAL_PCD_MspInit() API:
  30:Drivers/STM32L1xx_HAL_Driver/stm32l1xx_hal_pcd.cpp ****          (##) Enable the PCD/USB Low Level interface clock using 
  31:Drivers/STM32L1xx_HAL_Driver/stm32l1xx_hal_pcd.cpp ****               (+++) __USB_CLK_ENABLE);
  32:Drivers/STM32L1xx_HAL_Driver/stm32l1xx_hal_pcd.cpp ****            
  33:Drivers/STM32L1xx_HAL_Driver/stm32l1xx_hal_pcd.cpp ****          (##) Initialize the related GPIO clocks
  34:Drivers/STM32L1xx_HAL_Driver/stm32l1xx_hal_pcd.cpp ****          (##) Configure PCD pin-out
  35:Drivers/STM32L1xx_HAL_Driver/stm32l1xx_hal_pcd.cpp ****          (##) Configure PCD NVIC interrupt
  36:Drivers/STM32L1xx_HAL_Driver/stm32l1xx_hal_pcd.cpp ****     
  37:Drivers/STM32L1xx_HAL_Driver/stm32l1xx_hal_pcd.cpp ****      (#)Associate the Upper USB device stack to the HAL PCD Driver:
  38:Drivers/STM32L1xx_HAL_Driver/stm32l1xx_hal_pcd.cpp ****          (##) hpcd.pData = pdev;
  39:Drivers/STM32L1xx_HAL_Driver/stm32l1xx_hal_pcd.cpp **** 
  40:Drivers/STM32L1xx_HAL_Driver/stm32l1xx_hal_pcd.cpp ****      (#)Enable HCD transmission and reception:
  41:Drivers/STM32L1xx_HAL_Driver/stm32l1xx_hal_pcd.cpp ****          (##) HAL_PCD_Start();
  42:Drivers/STM32L1xx_HAL_Driver/stm32l1xx_hal_pcd.cpp **** 
  43:Drivers/STM32L1xx_HAL_Driver/stm32l1xx_hal_pcd.cpp ****   @endverbatim
  44:Drivers/STM32L1xx_HAL_Driver/stm32l1xx_hal_pcd.cpp ****   ******************************************************************************
  45:Drivers/STM32L1xx_HAL_Driver/stm32l1xx_hal_pcd.cpp ****   * @attention
  46:Drivers/STM32L1xx_HAL_Driver/stm32l1xx_hal_pcd.cpp ****   *
  47:Drivers/STM32L1xx_HAL_Driver/stm32l1xx_hal_pcd.cpp ****   * <h2><center>&copy; COPYRIGHT(c) 2014 STMicroelectronics</center></h2>
  48:Drivers/STM32L1xx_HAL_Driver/stm32l1xx_hal_pcd.cpp ****   *
  49:Drivers/STM32L1xx_HAL_Driver/stm32l1xx_hal_pcd.cpp ****   * Redistribution and use in source and binary forms, with or without modification,
  50:Drivers/STM32L1xx_HAL_Driver/stm32l1xx_hal_pcd.cpp ****   * are permitted provided that the following conditions are met:
  51:Drivers/STM32L1xx_HAL_Driver/stm32l1xx_hal_pcd.cpp ****   *   1. Redistributions of source code must retain the above copyright notice,
ARM GAS  /tmp/ccS6NUBW.s 			page 3


  52:Drivers/STM32L1xx_HAL_Driver/stm32l1xx_hal_pcd.cpp ****   *      this list of conditions and the following disclaimer.
  53:Drivers/STM32L1xx_HAL_Driver/stm32l1xx_hal_pcd.cpp ****   *   2. Redistributions in binary form must reproduce the above copyright notice,
  54:Drivers/STM32L1xx_HAL_Driver/stm32l1xx_hal_pcd.cpp ****   *      this list of conditions and the following disclaimer in the documentation
  55:Drivers/STM32L1xx_HAL_Driver/stm32l1xx_hal_pcd.cpp ****   *      and/or other materials provided with the distribution.
  56:Drivers/STM32L1xx_HAL_Driver/stm32l1xx_hal_pcd.cpp ****   *   3. Neither the name of STMicroelectronics nor the names of its contributors
  57:Drivers/STM32L1xx_HAL_Driver/stm32l1xx_hal_pcd.cpp ****   *      may be used to endorse or promote products derived from this software
  58:Drivers/STM32L1xx_HAL_Driver/stm32l1xx_hal_pcd.cpp ****   *      without specific prior written permission.
  59:Drivers/STM32L1xx_HAL_Driver/stm32l1xx_hal_pcd.cpp ****   *
  60:Drivers/STM32L1xx_HAL_Driver/stm32l1xx_hal_pcd.cpp ****   * THIS SOFTWARE IS PROVIDED BY THE COPYRIGHT HOLDERS AND CONTRIBUTORS "AS IS"
  61:Drivers/STM32L1xx_HAL_Driver/stm32l1xx_hal_pcd.cpp ****   * AND ANY EXPRESS OR IMPLIED WARRANTIES, INCLUDING, BUT NOT LIMITED TO, THE
  62:Drivers/STM32L1xx_HAL_Driver/stm32l1xx_hal_pcd.cpp ****   * IMPLIED WARRANTIES OF MERCHANTABILITY AND FITNESS FOR A PARTICULAR PURPOSE ARE
  63:Drivers/STM32L1xx_HAL_Driver/stm32l1xx_hal_pcd.cpp ****   * DISCLAIMED. IN NO EVENT SHALL THE COPYRIGHT HOLDER OR CONTRIBUTORS BE LIABLE
  64:Drivers/STM32L1xx_HAL_Driver/stm32l1xx_hal_pcd.cpp ****   * FOR ANY DIRECT, INDIRECT, INCIDENTAL, SPECIAL, EXEMPLARY, OR CONSEQUENTIAL
  65:Drivers/STM32L1xx_HAL_Driver/stm32l1xx_hal_pcd.cpp ****   * DAMAGES (INCLUDING, BUT NOT LIMITED TO, PROCUREMENT OF SUBSTITUTE GOODS OR
  66:Drivers/STM32L1xx_HAL_Driver/stm32l1xx_hal_pcd.cpp ****   * SERVICES; LOSS OF USE, DATA, OR PROFITS; OR BUSINESS INTERRUPTION) HOWEVER
  67:Drivers/STM32L1xx_HAL_Driver/stm32l1xx_hal_pcd.cpp ****   * CAUSED AND ON ANY THEORY OF LIABILITY, WHETHER IN CONTRACT, STRICT LIABILITY,
  68:Drivers/STM32L1xx_HAL_Driver/stm32l1xx_hal_pcd.cpp ****   * OR TORT (INCLUDING NEGLIGENCE OR OTHERWISE) ARISING IN ANY WAY OUT OF THE USE
  69:Drivers/STM32L1xx_HAL_Driver/stm32l1xx_hal_pcd.cpp ****   * OF THIS SOFTWARE, EVEN IF ADVISED OF THE POSSIBILITY OF SUCH DAMAGE.
  70:Drivers/STM32L1xx_HAL_Driver/stm32l1xx_hal_pcd.cpp ****   *
  71:Drivers/STM32L1xx_HAL_Driver/stm32l1xx_hal_pcd.cpp ****   ******************************************************************************
  72:Drivers/STM32L1xx_HAL_Driver/stm32l1xx_hal_pcd.cpp ****   */
  73:Drivers/STM32L1xx_HAL_Driver/stm32l1xx_hal_pcd.cpp **** 
  74:Drivers/STM32L1xx_HAL_Driver/stm32l1xx_hal_pcd.cpp **** /* Includes ------------------------------------------------------------------*/
  75:Drivers/STM32L1xx_HAL_Driver/stm32l1xx_hal_pcd.cpp **** #include "stm32l1xx_hal.h"
  76:Drivers/STM32L1xx_HAL_Driver/stm32l1xx_hal_pcd.cpp **** 
  77:Drivers/STM32L1xx_HAL_Driver/stm32l1xx_hal_pcd.cpp **** /** @addtogroup STM32L1xx_HAL_Driver
  78:Drivers/STM32L1xx_HAL_Driver/stm32l1xx_hal_pcd.cpp ****   * @{
  79:Drivers/STM32L1xx_HAL_Driver/stm32l1xx_hal_pcd.cpp ****   */
  80:Drivers/STM32L1xx_HAL_Driver/stm32l1xx_hal_pcd.cpp **** 
  81:Drivers/STM32L1xx_HAL_Driver/stm32l1xx_hal_pcd.cpp **** /** @defgroup PCD PCD
  82:Drivers/STM32L1xx_HAL_Driver/stm32l1xx_hal_pcd.cpp ****   * @brief PCD HAL module driver
  83:Drivers/STM32L1xx_HAL_Driver/stm32l1xx_hal_pcd.cpp ****   * @{
  84:Drivers/STM32L1xx_HAL_Driver/stm32l1xx_hal_pcd.cpp ****   */
  85:Drivers/STM32L1xx_HAL_Driver/stm32l1xx_hal_pcd.cpp **** 
  86:Drivers/STM32L1xx_HAL_Driver/stm32l1xx_hal_pcd.cpp **** #ifdef HAL_PCD_MODULE_ENABLED
  87:Drivers/STM32L1xx_HAL_Driver/stm32l1xx_hal_pcd.cpp **** 
  88:Drivers/STM32L1xx_HAL_Driver/stm32l1xx_hal_pcd.cpp **** /* Private typedef -----------------------------------------------------------*/
  89:Drivers/STM32L1xx_HAL_Driver/stm32l1xx_hal_pcd.cpp **** /* Private define ------------------------------------------------------------*/
  90:Drivers/STM32L1xx_HAL_Driver/stm32l1xx_hal_pcd.cpp **** /** @defgroup PCD_Private_Constants PCD Private Constants
  91:Drivers/STM32L1xx_HAL_Driver/stm32l1xx_hal_pcd.cpp ****   * @{
  92:Drivers/STM32L1xx_HAL_Driver/stm32l1xx_hal_pcd.cpp ****   */ 
  93:Drivers/STM32L1xx_HAL_Driver/stm32l1xx_hal_pcd.cpp **** #define BTABLE_ADDRESS                  (0x000)  
  94:Drivers/STM32L1xx_HAL_Driver/stm32l1xx_hal_pcd.cpp **** /**
  95:Drivers/STM32L1xx_HAL_Driver/stm32l1xx_hal_pcd.cpp ****   * @}
  96:Drivers/STM32L1xx_HAL_Driver/stm32l1xx_hal_pcd.cpp ****   */
  97:Drivers/STM32L1xx_HAL_Driver/stm32l1xx_hal_pcd.cpp **** 
  98:Drivers/STM32L1xx_HAL_Driver/stm32l1xx_hal_pcd.cpp **** /* Private macro -------------------------------------------------------------*/
  99:Drivers/STM32L1xx_HAL_Driver/stm32l1xx_hal_pcd.cpp **** /* Private variables ---------------------------------------------------------*/
 100:Drivers/STM32L1xx_HAL_Driver/stm32l1xx_hal_pcd.cpp **** /* Private function prototypes -----------------------------------------------*/
 101:Drivers/STM32L1xx_HAL_Driver/stm32l1xx_hal_pcd.cpp **** /** @defgroup PCD_Private_Functions PCD Private Functions
 102:Drivers/STM32L1xx_HAL_Driver/stm32l1xx_hal_pcd.cpp ****   * @{
 103:Drivers/STM32L1xx_HAL_Driver/stm32l1xx_hal_pcd.cpp ****   */
 104:Drivers/STM32L1xx_HAL_Driver/stm32l1xx_hal_pcd.cpp **** static HAL_StatusTypeDef PCD_EP_ISR_Handler(PCD_HandleTypeDef *hpcd);
 105:Drivers/STM32L1xx_HAL_Driver/stm32l1xx_hal_pcd.cpp **** static void PCD_WritePMA(USB_TypeDef  *USBx, uint8_t *pbUsrBuf, uint16_t wPMABufAddr, uint16_t wNBy
 106:Drivers/STM32L1xx_HAL_Driver/stm32l1xx_hal_pcd.cpp **** static void PCD_ReadPMA(USB_TypeDef  *USBx, uint8_t *pbUsrBuf, uint16_t wPMABufAddr, uint16_t wNByt
 107:Drivers/STM32L1xx_HAL_Driver/stm32l1xx_hal_pcd.cpp **** 
 108:Drivers/STM32L1xx_HAL_Driver/stm32l1xx_hal_pcd.cpp **** /**
ARM GAS  /tmp/ccS6NUBW.s 			page 4


 109:Drivers/STM32L1xx_HAL_Driver/stm32l1xx_hal_pcd.cpp ****   * @}
 110:Drivers/STM32L1xx_HAL_Driver/stm32l1xx_hal_pcd.cpp ****   */
 111:Drivers/STM32L1xx_HAL_Driver/stm32l1xx_hal_pcd.cpp **** 
 112:Drivers/STM32L1xx_HAL_Driver/stm32l1xx_hal_pcd.cpp **** 
 113:Drivers/STM32L1xx_HAL_Driver/stm32l1xx_hal_pcd.cpp **** /** @defgroup PCD_Exported_Functions PCD Exported Functions
 114:Drivers/STM32L1xx_HAL_Driver/stm32l1xx_hal_pcd.cpp ****   * @{
 115:Drivers/STM32L1xx_HAL_Driver/stm32l1xx_hal_pcd.cpp ****   */
 116:Drivers/STM32L1xx_HAL_Driver/stm32l1xx_hal_pcd.cpp **** 
 117:Drivers/STM32L1xx_HAL_Driver/stm32l1xx_hal_pcd.cpp **** /** @defgroup PCD_Exported_Functions_Group1 Initialization and de-initialization functions 
 118:Drivers/STM32L1xx_HAL_Driver/stm32l1xx_hal_pcd.cpp ****  *  @brief    Initialization and Configuration functions 
 119:Drivers/STM32L1xx_HAL_Driver/stm32l1xx_hal_pcd.cpp ****  *
 120:Drivers/STM32L1xx_HAL_Driver/stm32l1xx_hal_pcd.cpp **** @verbatim
 121:Drivers/STM32L1xx_HAL_Driver/stm32l1xx_hal_pcd.cpp ****  ===============================================================================
 122:Drivers/STM32L1xx_HAL_Driver/stm32l1xx_hal_pcd.cpp ****             ##### Initialization and de-initialization functions #####
 123:Drivers/STM32L1xx_HAL_Driver/stm32l1xx_hal_pcd.cpp ****  ===============================================================================
 124:Drivers/STM32L1xx_HAL_Driver/stm32l1xx_hal_pcd.cpp ****     [..]  This section provides functions allowing to:
 125:Drivers/STM32L1xx_HAL_Driver/stm32l1xx_hal_pcd.cpp ****  
 126:Drivers/STM32L1xx_HAL_Driver/stm32l1xx_hal_pcd.cpp **** @endverbatim
 127:Drivers/STM32L1xx_HAL_Driver/stm32l1xx_hal_pcd.cpp ****   * @{
 128:Drivers/STM32L1xx_HAL_Driver/stm32l1xx_hal_pcd.cpp ****   */
 129:Drivers/STM32L1xx_HAL_Driver/stm32l1xx_hal_pcd.cpp **** 
 130:Drivers/STM32L1xx_HAL_Driver/stm32l1xx_hal_pcd.cpp **** /**
 131:Drivers/STM32L1xx_HAL_Driver/stm32l1xx_hal_pcd.cpp ****   * @brief  Initializes the PCD according to the specified
 132:Drivers/STM32L1xx_HAL_Driver/stm32l1xx_hal_pcd.cpp ****   *         parameters in the PCD_InitTypeDef and create the associated handle.
 133:Drivers/STM32L1xx_HAL_Driver/stm32l1xx_hal_pcd.cpp ****   * @param  hpcd: PCD handle
 134:Drivers/STM32L1xx_HAL_Driver/stm32l1xx_hal_pcd.cpp ****   * @retval HAL status
 135:Drivers/STM32L1xx_HAL_Driver/stm32l1xx_hal_pcd.cpp ****   */
 136:Drivers/STM32L1xx_HAL_Driver/stm32l1xx_hal_pcd.cpp **** HAL_StatusTypeDef HAL_PCD_Init(PCD_HandleTypeDef *hpcd)
 137:Drivers/STM32L1xx_HAL_Driver/stm32l1xx_hal_pcd.cpp **** { 
  64              		.loc 1 137 0
  65              		.cfi_startproc
  66              		@ args = 0, pretend = 0, frame = 16
  67              		@ frame_needed = 1, uses_anonymous_args = 0
  68 0000 80B5     		push	{r7, lr}	@
  69              	.LCFI0:
  70              		.cfi_def_cfa_offset 8
  71              		.cfi_offset 7, -8
  72              		.cfi_offset 14, -4
  73 0002 84B0     		sub	sp, sp, #16	@,,
  74              	.LCFI1:
  75              		.cfi_def_cfa_offset 24
  76 0004 00AF     		add	r7, sp, #0	@,,
  77              	.LCFI2:
  78              		.cfi_def_cfa_register 7
  79 0006 7860     		str	r0, [r7, #4]	@ hpcd, hpcd
  80              	.LBB2:
 138:Drivers/STM32L1xx_HAL_Driver/stm32l1xx_hal_pcd.cpp ****   uint32_t i = 0;
  81              		.loc 1 138 0
  82 0008 4FF00003 		mov	r3, #0	@ tmp148,
  83 000c FB60     		str	r3, [r7, #12]	@ tmp148, i
 139:Drivers/STM32L1xx_HAL_Driver/stm32l1xx_hal_pcd.cpp **** 
 140:Drivers/STM32L1xx_HAL_Driver/stm32l1xx_hal_pcd.cpp ****   uint32_t wInterrupt_Mask = 0;
  84              		.loc 1 140 0
  85 000e 4FF00003 		mov	r3, #0	@ tmp149,
  86 0012 BB60     		str	r3, [r7, #8]	@ tmp149, wInterrupt_Mask
 141:Drivers/STM32L1xx_HAL_Driver/stm32l1xx_hal_pcd.cpp ****   
 142:Drivers/STM32L1xx_HAL_Driver/stm32l1xx_hal_pcd.cpp ****   /* Check the PCD handle allocation */
ARM GAS  /tmp/ccS6NUBW.s 			page 5


 143:Drivers/STM32L1xx_HAL_Driver/stm32l1xx_hal_pcd.cpp ****   if(hpcd == NULL)
  87              		.loc 1 143 0
  88 0014 7B68     		ldr	r3, [r7, #4]	@ tmp150, hpcd
  89 0016 002B     		cmp	r3, #0	@ tmp150,
  90 0018 02D1     		bne	.L2	@,
 144:Drivers/STM32L1xx_HAL_Driver/stm32l1xx_hal_pcd.cpp ****   {
 145:Drivers/STM32L1xx_HAL_Driver/stm32l1xx_hal_pcd.cpp ****     return HAL_ERROR;
  91              		.loc 1 145 0
  92 001a 4FF00103 		mov	r3, #1	@ D.8278,
  93 001e 02E1     		b	.L3	@
  94              	.L2:
 146:Drivers/STM32L1xx_HAL_Driver/stm32l1xx_hal_pcd.cpp ****   }
 147:Drivers/STM32L1xx_HAL_Driver/stm32l1xx_hal_pcd.cpp ****   
 148:Drivers/STM32L1xx_HAL_Driver/stm32l1xx_hal_pcd.cpp ****   /* Check the parameters */
 149:Drivers/STM32L1xx_HAL_Driver/stm32l1xx_hal_pcd.cpp ****   assert_param(IS_PCD_ALL_INSTANCE(hpcd->Instance));
 150:Drivers/STM32L1xx_HAL_Driver/stm32l1xx_hal_pcd.cpp **** 
 151:Drivers/STM32L1xx_HAL_Driver/stm32l1xx_hal_pcd.cpp ****   hpcd->State = PCD_BUSY;
  95              		.loc 1 151 0
  96 0020 7B68     		ldr	r3, [r7, #4]	@ tmp151, hpcd
  97 0022 4FF00202 		mov	r2, #2	@ tmp152,
  98 0026 83F8E921 		strb	r2, [r3, #489]	@ tmp153, hpcd_6(D)->State
 152:Drivers/STM32L1xx_HAL_Driver/stm32l1xx_hal_pcd.cpp ****   
 153:Drivers/STM32L1xx_HAL_Driver/stm32l1xx_hal_pcd.cpp ****   /* Init the low level hardware : GPIO, CLOCK, NVIC... */
 154:Drivers/STM32L1xx_HAL_Driver/stm32l1xx_hal_pcd.cpp ****   HAL_PCD_MspInit(hpcd);
  99              		.loc 1 154 0
 100 002a 7868     		ldr	r0, [r7, #4]	@, hpcd
 101 002c FFF7FEFF 		bl	HAL_PCD_MspInit	@
 155:Drivers/STM32L1xx_HAL_Driver/stm32l1xx_hal_pcd.cpp **** 
 156:Drivers/STM32L1xx_HAL_Driver/stm32l1xx_hal_pcd.cpp ****  /* Init endpoints structures */
 157:Drivers/STM32L1xx_HAL_Driver/stm32l1xx_hal_pcd.cpp ****  for (i = 0; i < hpcd->Init.dev_endpoints ; i++)
 102              		.loc 1 157 0
 103 0030 4FF00003 		mov	r3, #0	@ tmp154,
 104 0034 FB60     		str	r3, [r7, #12]	@ tmp154, i
 105 0036 58E0     		b	.L4	@
 106              	.L5:
 158:Drivers/STM32L1xx_HAL_Driver/stm32l1xx_hal_pcd.cpp ****  {
 159:Drivers/STM32L1xx_HAL_Driver/stm32l1xx_hal_pcd.cpp ****    /* Init ep structure */
 160:Drivers/STM32L1xx_HAL_Driver/stm32l1xx_hal_pcd.cpp ****    hpcd->IN_ep[i].is_in = 1;
 107              		.loc 1 160 0 discriminator 2
 108 0038 7968     		ldr	r1, [r7, #4]	@ tmp155, hpcd
 109 003a FA68     		ldr	r2, [r7, #12]	@ tmp156, i
 110 003c 1346     		mov	r3, r2	@ tmp157, tmp156
 111 003e 4FEAC303 		lsl	r3, r3, #3	@ tmp157, tmp157,
 112 0042 9B1A     		subs	r3, r3, r2	@ tmp157, tmp157, tmp156
 113 0044 4FEA8303 		lsl	r3, r3, #2	@ tmp158, tmp157,
 114 0048 CB18     		adds	r3, r1, r3	@ tmp159, tmp155, tmp157
 115 004a 03F12803 		add	r3, r3, #40	@ tmp160, tmp159,
 116 004e 4FF00102 		mov	r2, #1	@ tmp161,
 117 0052 5A70     		strb	r2, [r3, #1]	@ tmp162, hpcd_6(D)->IN_ep[i_1].is_in
 161:Drivers/STM32L1xx_HAL_Driver/stm32l1xx_hal_pcd.cpp ****    hpcd->IN_ep[i].num = i;
 118              		.loc 1 161 0 discriminator 2
 119 0054 FB68     		ldr	r3, [r7, #12]	@ tmp163, i
 120 0056 D9B2     		uxtb	r1, r3	@ D.8285, tmp163
 121 0058 7868     		ldr	r0, [r7, #4]	@ tmp164, hpcd
 122 005a FA68     		ldr	r2, [r7, #12]	@ tmp165, i
 123 005c 1346     		mov	r3, r2	@ tmp166, tmp165
 124 005e 4FEAC303 		lsl	r3, r3, #3	@ tmp166, tmp166,
ARM GAS  /tmp/ccS6NUBW.s 			page 6


 125 0062 9B1A     		subs	r3, r3, r2	@ tmp166, tmp166, tmp165
 126 0064 4FEA8303 		lsl	r3, r3, #2	@ tmp167, tmp166,
 127 0068 C318     		adds	r3, r0, r3	@ tmp168, tmp164, tmp166
 128 006a 03F12803 		add	r3, r3, #40	@ tmp169, tmp168,
 129 006e 0A46     		mov	r2, r1	@ tmp170, D.8285
 130 0070 1A70     		strb	r2, [r3, #0]	@ tmp170, hpcd_6(D)->IN_ep[i_1].num
 162:Drivers/STM32L1xx_HAL_Driver/stm32l1xx_hal_pcd.cpp ****    /* Control until ep is actvated */
 163:Drivers/STM32L1xx_HAL_Driver/stm32l1xx_hal_pcd.cpp ****    hpcd->IN_ep[i].type = PCD_EP_TYPE_CTRL;
 131              		.loc 1 163 0 discriminator 2
 132 0072 7968     		ldr	r1, [r7, #4]	@ tmp171, hpcd
 133 0074 FA68     		ldr	r2, [r7, #12]	@ tmp172, i
 134 0076 1346     		mov	r3, r2	@ tmp173, tmp172
 135 0078 4FEAC303 		lsl	r3, r3, #3	@ tmp173, tmp173,
 136 007c 9B1A     		subs	r3, r3, r2	@ tmp173, tmp173, tmp172
 137 007e 4FEA8303 		lsl	r3, r3, #2	@ tmp174, tmp173,
 138 0082 CB18     		adds	r3, r1, r3	@ tmp175, tmp171, tmp173
 139 0084 03F12803 		add	r3, r3, #40	@ tmp176, tmp175,
 140 0088 4FF00002 		mov	r2, #0	@ tmp177,
 141 008c DA70     		strb	r2, [r3, #3]	@ tmp178, hpcd_6(D)->IN_ep[i_1].type
 164:Drivers/STM32L1xx_HAL_Driver/stm32l1xx_hal_pcd.cpp ****    hpcd->IN_ep[i].maxpacket =  0;
 142              		.loc 1 164 0 discriminator 2
 143 008e 7968     		ldr	r1, [r7, #4]	@ tmp179, hpcd
 144 0090 FA68     		ldr	r2, [r7, #12]	@ tmp180, i
 145 0092 1346     		mov	r3, r2	@ tmp181, tmp180
 146 0094 4FEAC303 		lsl	r3, r3, #3	@ tmp181, tmp181,
 147 0098 9B1A     		subs	r3, r3, r2	@ tmp181, tmp181, tmp180
 148 009a 4FEA8303 		lsl	r3, r3, #2	@ tmp182, tmp181,
 149 009e CB18     		adds	r3, r1, r3	@ tmp183, tmp179, tmp181
 150 00a0 03F13403 		add	r3, r3, #52	@ tmp184, tmp183,
 151 00a4 4FF00002 		mov	r2, #0	@ tmp185,
 152 00a8 1A60     		str	r2, [r3, #0]	@ tmp185, hpcd_6(D)->IN_ep[i_1].maxpacket
 165:Drivers/STM32L1xx_HAL_Driver/stm32l1xx_hal_pcd.cpp ****    hpcd->IN_ep[i].xfer_buff = 0;
 153              		.loc 1 165 0 discriminator 2
 154 00aa 7968     		ldr	r1, [r7, #4]	@ tmp186, hpcd
 155 00ac FA68     		ldr	r2, [r7, #12]	@ tmp187, i
 156 00ae 1346     		mov	r3, r2	@ tmp188, tmp187
 157 00b0 4FEAC303 		lsl	r3, r3, #3	@ tmp188, tmp188,
 158 00b4 9B1A     		subs	r3, r3, r2	@ tmp188, tmp188, tmp187
 159 00b6 4FEA8303 		lsl	r3, r3, #2	@ tmp189, tmp188,
 160 00ba CB18     		adds	r3, r1, r3	@ tmp190, tmp186, tmp188
 161 00bc 03F13803 		add	r3, r3, #56	@ tmp191, tmp190,
 162 00c0 4FF00002 		mov	r2, #0	@ tmp192,
 163 00c4 1A60     		str	r2, [r3, #0]	@ tmp192, hpcd_6(D)->IN_ep[i_1].xfer_buff
 166:Drivers/STM32L1xx_HAL_Driver/stm32l1xx_hal_pcd.cpp ****    hpcd->IN_ep[i].xfer_len = 0;
 164              		.loc 1 166 0 discriminator 2
 165 00c6 7968     		ldr	r1, [r7, #4]	@ tmp193, hpcd
 166 00c8 FA68     		ldr	r2, [r7, #12]	@ tmp194, i
 167 00ca 1346     		mov	r3, r2	@ tmp195, tmp194
 168 00cc 4FEAC303 		lsl	r3, r3, #3	@ tmp195, tmp195,
 169 00d0 9B1A     		subs	r3, r3, r2	@ tmp195, tmp195, tmp194
 170 00d2 4FEA8303 		lsl	r3, r3, #2	@ tmp196, tmp195,
 171 00d6 CB18     		adds	r3, r1, r3	@ tmp197, tmp193, tmp195
 172 00d8 03F13C03 		add	r3, r3, #60	@ tmp198, tmp197,
 173 00dc 4FF00002 		mov	r2, #0	@ tmp199,
 174 00e0 1A60     		str	r2, [r3, #0]	@ tmp199, hpcd_6(D)->IN_ep[i_1].xfer_len
 157:Drivers/STM32L1xx_HAL_Driver/stm32l1xx_hal_pcd.cpp ****  for (i = 0; i < hpcd->Init.dev_endpoints ; i++)
 175              		.loc 1 157 0 discriminator 2
ARM GAS  /tmp/ccS6NUBW.s 			page 7


 176 00e2 FB68     		ldr	r3, [r7, #12]	@ tmp201, i
 177 00e4 03F10103 		add	r3, r3, #1	@ tmp200, tmp201,
 178 00e8 FB60     		str	r3, [r7, #12]	@ tmp200, i
 179              	.L4:
 157:Drivers/STM32L1xx_HAL_Driver/stm32l1xx_hal_pcd.cpp ****  for (i = 0; i < hpcd->Init.dev_endpoints ; i++)
 180              		.loc 1 157 0 is_stmt 0 discriminator 1
 181 00ea 7B68     		ldr	r3, [r7, #4]	@ tmp202, hpcd
 182 00ec 5A68     		ldr	r2, [r3, #4]	@ D.8282, hpcd_6(D)->Init.dev_endpoints
 183 00ee FB68     		ldr	r3, [r7, #12]	@ tmp204, i
 184 00f0 9A42     		cmp	r2, r3	@ D.8282, tmp204
 185 00f2 94BF     		ite	ls	@
 186 00f4 0023     		movls	r3, #0	@, tmp205
 187 00f6 0123     		movhi	r3, #1	@, tmp205
 188 00f8 DBB2     		uxtb	r3, r3	@ D.8283, tmp203
 189 00fa 002B     		cmp	r3, #0	@ D.8283,
 190 00fc 9CD1     		bne	.L5	@,
 167:Drivers/STM32L1xx_HAL_Driver/stm32l1xx_hal_pcd.cpp ****  }
 168:Drivers/STM32L1xx_HAL_Driver/stm32l1xx_hal_pcd.cpp ****  
 169:Drivers/STM32L1xx_HAL_Driver/stm32l1xx_hal_pcd.cpp ****  for (i = 0; i < hpcd->Init.dev_endpoints ; i++)
 191              		.loc 1 169 0 is_stmt 1
 192 00fe 4FF00003 		mov	r3, #0	@ tmp206,
 193 0102 FB60     		str	r3, [r7, #12]	@ tmp206, i
 194 0104 58E0     		b	.L6	@
 195              	.L7:
 170:Drivers/STM32L1xx_HAL_Driver/stm32l1xx_hal_pcd.cpp ****  {
 171:Drivers/STM32L1xx_HAL_Driver/stm32l1xx_hal_pcd.cpp ****    hpcd->OUT_ep[i].is_in = 0;
 196              		.loc 1 171 0 discriminator 2
 197 0106 7968     		ldr	r1, [r7, #4]	@ tmp207, hpcd
 198 0108 FA68     		ldr	r2, [r7, #12]	@ tmp208, i
 199 010a 1346     		mov	r3, r2	@ tmp209, tmp208
 200 010c 4FEAC303 		lsl	r3, r3, #3	@ tmp209, tmp209,
 201 0110 9B1A     		subs	r3, r3, r2	@ tmp209, tmp209, tmp208
 202 0112 4FEA8303 		lsl	r3, r3, #2	@ tmp210, tmp209,
 203 0116 CB18     		adds	r3, r1, r3	@ tmp211, tmp207, tmp209
 204 0118 03F58473 		add	r3, r3, #264	@ tmp212, tmp211,
 205 011c 4FF00002 		mov	r2, #0	@ tmp213,
 206 0120 5A70     		strb	r2, [r3, #1]	@ tmp214, hpcd_6(D)->OUT_ep[i_2].is_in
 172:Drivers/STM32L1xx_HAL_Driver/stm32l1xx_hal_pcd.cpp ****    hpcd->OUT_ep[i].num = i;
 207              		.loc 1 172 0 discriminator 2
 208 0122 FB68     		ldr	r3, [r7, #12]	@ tmp215, i
 209 0124 D9B2     		uxtb	r1, r3	@ D.8292, tmp215
 210 0126 7868     		ldr	r0, [r7, #4]	@ tmp216, hpcd
 211 0128 FA68     		ldr	r2, [r7, #12]	@ tmp217, i
 212 012a 1346     		mov	r3, r2	@ tmp218, tmp217
 213 012c 4FEAC303 		lsl	r3, r3, #3	@ tmp218, tmp218,
 214 0130 9B1A     		subs	r3, r3, r2	@ tmp218, tmp218, tmp217
 215 0132 4FEA8303 		lsl	r3, r3, #2	@ tmp219, tmp218,
 216 0136 C318     		adds	r3, r0, r3	@ tmp220, tmp216, tmp218
 217 0138 03F58473 		add	r3, r3, #264	@ tmp221, tmp220,
 218 013c 0A46     		mov	r2, r1	@ tmp222, D.8292
 219 013e 1A70     		strb	r2, [r3, #0]	@ tmp222, hpcd_6(D)->OUT_ep[i_2].num
 173:Drivers/STM32L1xx_HAL_Driver/stm32l1xx_hal_pcd.cpp ****    /* Control until ep is activated */
 174:Drivers/STM32L1xx_HAL_Driver/stm32l1xx_hal_pcd.cpp ****    hpcd->OUT_ep[i].type = PCD_EP_TYPE_CTRL;
 220              		.loc 1 174 0 discriminator 2
 221 0140 7968     		ldr	r1, [r7, #4]	@ tmp223, hpcd
 222 0142 FA68     		ldr	r2, [r7, #12]	@ tmp224, i
 223 0144 1346     		mov	r3, r2	@ tmp225, tmp224
ARM GAS  /tmp/ccS6NUBW.s 			page 8


 224 0146 4FEAC303 		lsl	r3, r3, #3	@ tmp225, tmp225,
 225 014a 9B1A     		subs	r3, r3, r2	@ tmp225, tmp225, tmp224
 226 014c 4FEA8303 		lsl	r3, r3, #2	@ tmp226, tmp225,
 227 0150 CB18     		adds	r3, r1, r3	@ tmp227, tmp223, tmp225
 228 0152 03F58473 		add	r3, r3, #264	@ tmp228, tmp227,
 229 0156 4FF00002 		mov	r2, #0	@ tmp229,
 230 015a DA70     		strb	r2, [r3, #3]	@ tmp230, hpcd_6(D)->OUT_ep[i_2].type
 175:Drivers/STM32L1xx_HAL_Driver/stm32l1xx_hal_pcd.cpp ****    hpcd->OUT_ep[i].maxpacket = 0;
 231              		.loc 1 175 0 discriminator 2
 232 015c 7968     		ldr	r1, [r7, #4]	@ tmp231, hpcd
 233 015e FA68     		ldr	r2, [r7, #12]	@ tmp232, i
 234 0160 1346     		mov	r3, r2	@ tmp233, tmp232
 235 0162 4FEAC303 		lsl	r3, r3, #3	@ tmp233, tmp233,
 236 0166 9B1A     		subs	r3, r3, r2	@ tmp233, tmp233, tmp232
 237 0168 4FEA8303 		lsl	r3, r3, #2	@ tmp234, tmp233,
 238 016c CB18     		adds	r3, r1, r3	@ tmp235, tmp231, tmp233
 239 016e 03F58A73 		add	r3, r3, #276	@ tmp236, tmp235,
 240 0172 4FF00002 		mov	r2, #0	@ tmp237,
 241 0176 1A60     		str	r2, [r3, #0]	@ tmp237, hpcd_6(D)->OUT_ep[i_2].maxpacket
 176:Drivers/STM32L1xx_HAL_Driver/stm32l1xx_hal_pcd.cpp ****    hpcd->OUT_ep[i].xfer_buff = 0;
 242              		.loc 1 176 0 discriminator 2
 243 0178 7968     		ldr	r1, [r7, #4]	@ tmp238, hpcd
 244 017a FA68     		ldr	r2, [r7, #12]	@ tmp239, i
 245 017c 1346     		mov	r3, r2	@ tmp240, tmp239
 246 017e 4FEAC303 		lsl	r3, r3, #3	@ tmp240, tmp240,
 247 0182 9B1A     		subs	r3, r3, r2	@ tmp240, tmp240, tmp239
 248 0184 4FEA8303 		lsl	r3, r3, #2	@ tmp241, tmp240,
 249 0188 CB18     		adds	r3, r1, r3	@ tmp242, tmp238, tmp240
 250 018a 03F58C73 		add	r3, r3, #280	@ tmp243, tmp242,
 251 018e 4FF00002 		mov	r2, #0	@ tmp244,
 252 0192 1A60     		str	r2, [r3, #0]	@ tmp244, hpcd_6(D)->OUT_ep[i_2].xfer_buff
 177:Drivers/STM32L1xx_HAL_Driver/stm32l1xx_hal_pcd.cpp ****    hpcd->OUT_ep[i].xfer_len = 0;
 253              		.loc 1 177 0 discriminator 2
 254 0194 7968     		ldr	r1, [r7, #4]	@ tmp245, hpcd
 255 0196 FA68     		ldr	r2, [r7, #12]	@ tmp246, i
 256 0198 1346     		mov	r3, r2	@ tmp247, tmp246
 257 019a 4FEAC303 		lsl	r3, r3, #3	@ tmp247, tmp247,
 258 019e 9B1A     		subs	r3, r3, r2	@ tmp247, tmp247, tmp246
 259 01a0 4FEA8303 		lsl	r3, r3, #2	@ tmp248, tmp247,
 260 01a4 CB18     		adds	r3, r1, r3	@ tmp249, tmp245, tmp247
 261 01a6 03F58E73 		add	r3, r3, #284	@ tmp250, tmp249,
 262 01aa 4FF00002 		mov	r2, #0	@ tmp251,
 263 01ae 1A60     		str	r2, [r3, #0]	@ tmp251, hpcd_6(D)->OUT_ep[i_2].xfer_len
 169:Drivers/STM32L1xx_HAL_Driver/stm32l1xx_hal_pcd.cpp ****  for (i = 0; i < hpcd->Init.dev_endpoints ; i++)
 264              		.loc 1 169 0 discriminator 2
 265 01b0 FB68     		ldr	r3, [r7, #12]	@ tmp253, i
 266 01b2 03F10103 		add	r3, r3, #1	@ tmp252, tmp253,
 267 01b6 FB60     		str	r3, [r7, #12]	@ tmp252, i
 268              	.L6:
 169:Drivers/STM32L1xx_HAL_Driver/stm32l1xx_hal_pcd.cpp ****  for (i = 0; i < hpcd->Init.dev_endpoints ; i++)
 269              		.loc 1 169 0 is_stmt 0 discriminator 1
 270 01b8 7B68     		ldr	r3, [r7, #4]	@ tmp254, hpcd
 271 01ba 5A68     		ldr	r2, [r3, #4]	@ D.8289, hpcd_6(D)->Init.dev_endpoints
 272 01bc FB68     		ldr	r3, [r7, #12]	@ tmp256, i
 273 01be 9A42     		cmp	r2, r3	@ D.8289, tmp256
 274 01c0 94BF     		ite	ls	@
 275 01c2 0023     		movls	r3, #0	@, tmp257
ARM GAS  /tmp/ccS6NUBW.s 			page 9


 276 01c4 0123     		movhi	r3, #1	@, tmp257
 277 01c6 DBB2     		uxtb	r3, r3	@ D.8290, tmp255
 278 01c8 002B     		cmp	r3, #0	@ D.8290,
 279 01ca 9CD1     		bne	.L7	@,
 178:Drivers/STM32L1xx_HAL_Driver/stm32l1xx_hal_pcd.cpp ****  }
 179:Drivers/STM32L1xx_HAL_Driver/stm32l1xx_hal_pcd.cpp ****   
 180:Drivers/STM32L1xx_HAL_Driver/stm32l1xx_hal_pcd.cpp ****  /* Init Device */
 181:Drivers/STM32L1xx_HAL_Driver/stm32l1xx_hal_pcd.cpp ****  /*CNTR_FRES = 1*/
 182:Drivers/STM32L1xx_HAL_Driver/stm32l1xx_hal_pcd.cpp ****  hpcd->Instance->CNTR = USB_CNTR_FRES;
 280              		.loc 1 182 0 is_stmt 1
 281 01cc 7B68     		ldr	r3, [r7, #4]	@ tmp258, hpcd
 282 01ce 1B68     		ldr	r3, [r3, #0]	@ D.8293, hpcd_6(D)->Instance
 283 01d0 4FF00102 		mov	r2, #1	@ tmp260,
 284 01d4 A3F84020 		strh	r2, [r3, #64]	@ movhi	@ tmp259, D.8293_18->CNTR
 183:Drivers/STM32L1xx_HAL_Driver/stm32l1xx_hal_pcd.cpp ****  
 184:Drivers/STM32L1xx_HAL_Driver/stm32l1xx_hal_pcd.cpp ****  /*CNTR_FRES = 0*/
 185:Drivers/STM32L1xx_HAL_Driver/stm32l1xx_hal_pcd.cpp ****  hpcd->Instance->CNTR = 0;
 285              		.loc 1 185 0
 286 01d8 7B68     		ldr	r3, [r7, #4]	@ tmp261, hpcd
 287 01da 1B68     		ldr	r3, [r3, #0]	@ D.8294, hpcd_6(D)->Instance
 288 01dc 4FF00002 		mov	r2, #0	@ tmp263,
 289 01e0 A3F84020 		strh	r2, [r3, #64]	@ movhi	@ tmp262, D.8294_19->CNTR
 186:Drivers/STM32L1xx_HAL_Driver/stm32l1xx_hal_pcd.cpp ****  
 187:Drivers/STM32L1xx_HAL_Driver/stm32l1xx_hal_pcd.cpp ****  /*Clear pending interrupts*/
 188:Drivers/STM32L1xx_HAL_Driver/stm32l1xx_hal_pcd.cpp ****  hpcd->Instance->ISTR = 0;
 290              		.loc 1 188 0
 291 01e4 7B68     		ldr	r3, [r7, #4]	@ tmp264, hpcd
 292 01e6 1B68     		ldr	r3, [r3, #0]	@ D.8295, hpcd_6(D)->Instance
 293 01e8 4FF00002 		mov	r2, #0	@ tmp266,
 294 01ec A3F84420 		strh	r2, [r3, #68]	@ movhi	@ tmp265, D.8295_20->ISTR
 189:Drivers/STM32L1xx_HAL_Driver/stm32l1xx_hal_pcd.cpp ****  
 190:Drivers/STM32L1xx_HAL_Driver/stm32l1xx_hal_pcd.cpp ****   /*Set Btable Adress*/
 191:Drivers/STM32L1xx_HAL_Driver/stm32l1xx_hal_pcd.cpp ****  hpcd->Instance->BTABLE = BTABLE_ADDRESS;
 295              		.loc 1 191 0
 296 01f0 7B68     		ldr	r3, [r7, #4]	@ tmp267, hpcd
 297 01f2 1B68     		ldr	r3, [r3, #0]	@ D.8296, hpcd_6(D)->Instance
 298 01f4 4FF00002 		mov	r2, #0	@ tmp269,
 299 01f8 A3F85020 		strh	r2, [r3, #80]	@ movhi	@ tmp268, D.8296_21->BTABLE
 192:Drivers/STM32L1xx_HAL_Driver/stm32l1xx_hal_pcd.cpp ****   
 193:Drivers/STM32L1xx_HAL_Driver/stm32l1xx_hal_pcd.cpp ****   /*set wInterrupt_Mask global variable*/
 194:Drivers/STM32L1xx_HAL_Driver/stm32l1xx_hal_pcd.cpp ****   wInterrupt_Mask = USB_CNTR_CTRM  | USB_CNTR_WKUPM | USB_CNTR_SUSPM | USB_CNTR_ERRM \
 195:Drivers/STM32L1xx_HAL_Driver/stm32l1xx_hal_pcd.cpp ****     | USB_CNTR_ESOFM | USB_CNTR_RESETM;
 300              		.loc 1 195 0
 301 01fc 4FF43D43 		mov	r3, #48384	@ tmp270,
 302 0200 BB60     		str	r3, [r7, #8]	@ tmp270, wInterrupt_Mask
 196:Drivers/STM32L1xx_HAL_Driver/stm32l1xx_hal_pcd.cpp ****   
 197:Drivers/STM32L1xx_HAL_Driver/stm32l1xx_hal_pcd.cpp ****   /*Set interrupt mask*/
 198:Drivers/STM32L1xx_HAL_Driver/stm32l1xx_hal_pcd.cpp ****   hpcd->Instance->CNTR = wInterrupt_Mask;
 303              		.loc 1 198 0
 304 0202 7B68     		ldr	r3, [r7, #4]	@ tmp271, hpcd
 305 0204 1B68     		ldr	r3, [r3, #0]	@ D.8297, hpcd_6(D)->Instance
 306 0206 BA68     		ldr	r2, [r7, #8]	@ tmp272, wInterrupt_Mask
 307 0208 92B2     		uxth	r2, r2	@ D.8298, tmp272
 308 020a A3F84020 		strh	r2, [r3, #64]	@ movhi	@ tmp273, D.8297_23->CNTR
 199:Drivers/STM32L1xx_HAL_Driver/stm32l1xx_hal_pcd.cpp ****   
 200:Drivers/STM32L1xx_HAL_Driver/stm32l1xx_hal_pcd.cpp ****   hpcd->USB_Address = 0;
 309              		.loc 1 200 0
ARM GAS  /tmp/ccS6NUBW.s 			page 10


 310 020e 7B68     		ldr	r3, [r7, #4]	@ tmp274, hpcd
 311 0210 4FF00002 		mov	r2, #0	@ tmp275,
 312 0214 83F82420 		strb	r2, [r3, #36]	@ tmp276, hpcd_6(D)->USB_Address
 201:Drivers/STM32L1xx_HAL_Driver/stm32l1xx_hal_pcd.cpp ****   hpcd->State= PCD_READY;
 313              		.loc 1 201 0
 314 0218 7B68     		ldr	r3, [r7, #4]	@ tmp277, hpcd
 315 021a 4FF00002 		mov	r2, #0	@ tmp278,
 316 021e 83F8E921 		strb	r2, [r3, #489]	@ tmp279, hpcd_6(D)->State
 202:Drivers/STM32L1xx_HAL_Driver/stm32l1xx_hal_pcd.cpp **** 
 203:Drivers/STM32L1xx_HAL_Driver/stm32l1xx_hal_pcd.cpp ****  return HAL_OK;
 317              		.loc 1 203 0
 318 0222 4FF00003 		mov	r3, #0	@ D.8278,
 319              	.L3:
 320              	.LBE2:
 204:Drivers/STM32L1xx_HAL_Driver/stm32l1xx_hal_pcd.cpp **** }
 321              		.loc 1 204 0
 322 0226 1846     		mov	r0, r3	@, <retval>
 323 0228 07F11007 		add	r7, r7, #16	@,,
 324 022c BD46     		mov	sp, r7
 325 022e 80BD     		pop	{r7, pc}
 326              		.cfi_endproc
 327              	.LFE56:
 328              		.size	HAL_PCD_Init, .-HAL_PCD_Init
 329              		.section	.text.HAL_PCD_DeInit,"ax",%progbits
 330              		.align	2
 331              		.global	HAL_PCD_DeInit
 332              		.thumb
 333              		.thumb_func
 334              		.type	HAL_PCD_DeInit, %function
 335              	HAL_PCD_DeInit:
 336              	.LFB57:
 205:Drivers/STM32L1xx_HAL_Driver/stm32l1xx_hal_pcd.cpp **** 
 206:Drivers/STM32L1xx_HAL_Driver/stm32l1xx_hal_pcd.cpp **** /**
 207:Drivers/STM32L1xx_HAL_Driver/stm32l1xx_hal_pcd.cpp ****   * @brief  DeInitializes the PCD peripheral 
 208:Drivers/STM32L1xx_HAL_Driver/stm32l1xx_hal_pcd.cpp ****   * @param  hpcd: PCD handle
 209:Drivers/STM32L1xx_HAL_Driver/stm32l1xx_hal_pcd.cpp ****   * @retval HAL status
 210:Drivers/STM32L1xx_HAL_Driver/stm32l1xx_hal_pcd.cpp ****   */
 211:Drivers/STM32L1xx_HAL_Driver/stm32l1xx_hal_pcd.cpp **** HAL_StatusTypeDef HAL_PCD_DeInit(PCD_HandleTypeDef *hpcd)
 212:Drivers/STM32L1xx_HAL_Driver/stm32l1xx_hal_pcd.cpp **** {
 337              		.loc 1 212 0
 338              		.cfi_startproc
 339              		@ args = 0, pretend = 0, frame = 8
 340              		@ frame_needed = 1, uses_anonymous_args = 0
 341 0000 80B5     		push	{r7, lr}	@
 342              	.LCFI3:
 343              		.cfi_def_cfa_offset 8
 344              		.cfi_offset 7, -8
 345              		.cfi_offset 14, -4
 346 0002 82B0     		sub	sp, sp, #8	@,,
 347              	.LCFI4:
 348              		.cfi_def_cfa_offset 16
 349 0004 00AF     		add	r7, sp, #0	@,,
 350              	.LCFI5:
 351              		.cfi_def_cfa_register 7
 352 0006 7860     		str	r0, [r7, #4]	@ hpcd, hpcd
 213:Drivers/STM32L1xx_HAL_Driver/stm32l1xx_hal_pcd.cpp ****   /* Check the PCD handle allocation */
 214:Drivers/STM32L1xx_HAL_Driver/stm32l1xx_hal_pcd.cpp ****   if(hpcd == NULL)
ARM GAS  /tmp/ccS6NUBW.s 			page 11


 353              		.loc 1 214 0
 354 0008 7B68     		ldr	r3, [r7, #4]	@ tmp136, hpcd
 355 000a 002B     		cmp	r3, #0	@ tmp136,
 356 000c 02D1     		bne	.L9	@,
 215:Drivers/STM32L1xx_HAL_Driver/stm32l1xx_hal_pcd.cpp ****   {
 216:Drivers/STM32L1xx_HAL_Driver/stm32l1xx_hal_pcd.cpp ****     return HAL_ERROR;
 357              		.loc 1 216 0
 358 000e 4FF00103 		mov	r3, #1	@ D.8274,
 359 0012 11E0     		b	.L10	@
 360              	.L9:
 217:Drivers/STM32L1xx_HAL_Driver/stm32l1xx_hal_pcd.cpp ****   }
 218:Drivers/STM32L1xx_HAL_Driver/stm32l1xx_hal_pcd.cpp **** 
 219:Drivers/STM32L1xx_HAL_Driver/stm32l1xx_hal_pcd.cpp ****   hpcd->State = PCD_BUSY;
 361              		.loc 1 219 0
 362 0014 7B68     		ldr	r3, [r7, #4]	@ tmp137, hpcd
 363 0016 4FF00202 		mov	r2, #2	@ tmp138,
 364 001a 83F8E921 		strb	r2, [r3, #489]	@ tmp139, hpcd_2(D)->State
 220:Drivers/STM32L1xx_HAL_Driver/stm32l1xx_hal_pcd.cpp ****   
 221:Drivers/STM32L1xx_HAL_Driver/stm32l1xx_hal_pcd.cpp ****   /* Stop Device */
 222:Drivers/STM32L1xx_HAL_Driver/stm32l1xx_hal_pcd.cpp ****   HAL_PCD_Stop(hpcd);
 365              		.loc 1 222 0
 366 001e 7868     		ldr	r0, [r7, #4]	@, hpcd
 367 0020 FFF7FEFF 		bl	HAL_PCD_Stop	@
 223:Drivers/STM32L1xx_HAL_Driver/stm32l1xx_hal_pcd.cpp ****     
 224:Drivers/STM32L1xx_HAL_Driver/stm32l1xx_hal_pcd.cpp ****   /* DeInit the low level hardware */
 225:Drivers/STM32L1xx_HAL_Driver/stm32l1xx_hal_pcd.cpp ****   HAL_PCD_MspDeInit(hpcd);
 368              		.loc 1 225 0
 369 0024 7868     		ldr	r0, [r7, #4]	@, hpcd
 370 0026 FFF7FEFF 		bl	HAL_PCD_MspDeInit	@
 226:Drivers/STM32L1xx_HAL_Driver/stm32l1xx_hal_pcd.cpp ****   
 227:Drivers/STM32L1xx_HAL_Driver/stm32l1xx_hal_pcd.cpp ****   hpcd->State = PCD_READY; 
 371              		.loc 1 227 0
 372 002a 7B68     		ldr	r3, [r7, #4]	@ tmp140, hpcd
 373 002c 4FF00002 		mov	r2, #0	@ tmp141,
 374 0030 83F8E921 		strb	r2, [r3, #489]	@ tmp142, hpcd_2(D)->State
 228:Drivers/STM32L1xx_HAL_Driver/stm32l1xx_hal_pcd.cpp ****   
 229:Drivers/STM32L1xx_HAL_Driver/stm32l1xx_hal_pcd.cpp ****   return HAL_OK;
 375              		.loc 1 229 0
 376 0034 4FF00003 		mov	r3, #0	@ D.8274,
 377              	.L10:
 230:Drivers/STM32L1xx_HAL_Driver/stm32l1xx_hal_pcd.cpp **** }
 378              		.loc 1 230 0
 379 0038 1846     		mov	r0, r3	@, <retval>
 380 003a 07F10807 		add	r7, r7, #8	@,,
 381 003e BD46     		mov	sp, r7
 382 0040 80BD     		pop	{r7, pc}
 383              		.cfi_endproc
 384              	.LFE57:
 385              		.size	HAL_PCD_DeInit, .-HAL_PCD_DeInit
 386 0042 00BF     		.section	.text.HAL_PCD_MspInit,"ax",%progbits
 387              		.align	2
 388              		.weak	HAL_PCD_MspInit
 389              		.thumb
 390              		.thumb_func
 391              		.type	HAL_PCD_MspInit, %function
 392              	HAL_PCD_MspInit:
 393              	.LFB58:
ARM GAS  /tmp/ccS6NUBW.s 			page 12


 231:Drivers/STM32L1xx_HAL_Driver/stm32l1xx_hal_pcd.cpp **** 
 232:Drivers/STM32L1xx_HAL_Driver/stm32l1xx_hal_pcd.cpp **** /**
 233:Drivers/STM32L1xx_HAL_Driver/stm32l1xx_hal_pcd.cpp ****   * @brief  Initializes the PCD MSP.
 234:Drivers/STM32L1xx_HAL_Driver/stm32l1xx_hal_pcd.cpp ****   * @param  hpcd: PCD handle
 235:Drivers/STM32L1xx_HAL_Driver/stm32l1xx_hal_pcd.cpp ****   * @retval None
 236:Drivers/STM32L1xx_HAL_Driver/stm32l1xx_hal_pcd.cpp ****   */
 237:Drivers/STM32L1xx_HAL_Driver/stm32l1xx_hal_pcd.cpp **** __weak void HAL_PCD_MspInit(PCD_HandleTypeDef *hpcd)
 238:Drivers/STM32L1xx_HAL_Driver/stm32l1xx_hal_pcd.cpp **** {
 394              		.loc 1 238 0
 395              		.cfi_startproc
 396              		@ args = 0, pretend = 0, frame = 8
 397              		@ frame_needed = 1, uses_anonymous_args = 0
 398              		@ link register save eliminated.
 399 0000 80B4     		push	{r7}	@
 400              	.LCFI6:
 401              		.cfi_def_cfa_offset 4
 402              		.cfi_offset 7, -4
 403 0002 83B0     		sub	sp, sp, #12	@,,
 404              	.LCFI7:
 405              		.cfi_def_cfa_offset 16
 406 0004 00AF     		add	r7, sp, #0	@,,
 407              	.LCFI8:
 408              		.cfi_def_cfa_register 7
 409 0006 7860     		str	r0, [r7, #4]	@ hpcd, hpcd
 239:Drivers/STM32L1xx_HAL_Driver/stm32l1xx_hal_pcd.cpp ****   /* NOTE : This function Should not be modified, when the callback is needed,
 240:Drivers/STM32L1xx_HAL_Driver/stm32l1xx_hal_pcd.cpp ****             the HAL_PCD_MspInit could be implenetd in the user file
 241:Drivers/STM32L1xx_HAL_Driver/stm32l1xx_hal_pcd.cpp ****    */
 242:Drivers/STM32L1xx_HAL_Driver/stm32l1xx_hal_pcd.cpp **** }
 410              		.loc 1 242 0
 411 0008 07F10C07 		add	r7, r7, #12	@,,
 412 000c BD46     		mov	sp, r7
 413 000e 80BC     		pop	{r7}
 414 0010 7047     		bx	lr
 415              		.cfi_endproc
 416              	.LFE58:
 417              		.size	HAL_PCD_MspInit, .-HAL_PCD_MspInit
 418 0012 00BF     		.section	.text.HAL_PCD_MspDeInit,"ax",%progbits
 419              		.align	2
 420              		.weak	HAL_PCD_MspDeInit
 421              		.thumb
 422              		.thumb_func
 423              		.type	HAL_PCD_MspDeInit, %function
 424              	HAL_PCD_MspDeInit:
 425              	.LFB59:
 243:Drivers/STM32L1xx_HAL_Driver/stm32l1xx_hal_pcd.cpp **** 
 244:Drivers/STM32L1xx_HAL_Driver/stm32l1xx_hal_pcd.cpp **** /**
 245:Drivers/STM32L1xx_HAL_Driver/stm32l1xx_hal_pcd.cpp ****   * @brief  DeInitializes PCD MSP.
 246:Drivers/STM32L1xx_HAL_Driver/stm32l1xx_hal_pcd.cpp ****   * @param  hpcd: PCD handle
 247:Drivers/STM32L1xx_HAL_Driver/stm32l1xx_hal_pcd.cpp ****   * @retval None
 248:Drivers/STM32L1xx_HAL_Driver/stm32l1xx_hal_pcd.cpp ****   */
 249:Drivers/STM32L1xx_HAL_Driver/stm32l1xx_hal_pcd.cpp **** __weak void HAL_PCD_MspDeInit(PCD_HandleTypeDef *hpcd)
 250:Drivers/STM32L1xx_HAL_Driver/stm32l1xx_hal_pcd.cpp **** {
 426              		.loc 1 250 0
 427              		.cfi_startproc
 428              		@ args = 0, pretend = 0, frame = 8
 429              		@ frame_needed = 1, uses_anonymous_args = 0
 430              		@ link register save eliminated.
ARM GAS  /tmp/ccS6NUBW.s 			page 13


 431 0000 80B4     		push	{r7}	@
 432              	.LCFI9:
 433              		.cfi_def_cfa_offset 4
 434              		.cfi_offset 7, -4
 435 0002 83B0     		sub	sp, sp, #12	@,,
 436              	.LCFI10:
 437              		.cfi_def_cfa_offset 16
 438 0004 00AF     		add	r7, sp, #0	@,,
 439              	.LCFI11:
 440              		.cfi_def_cfa_register 7
 441 0006 7860     		str	r0, [r7, #4]	@ hpcd, hpcd
 251:Drivers/STM32L1xx_HAL_Driver/stm32l1xx_hal_pcd.cpp ****   /* NOTE : This function Should not be modified, when the callback is needed,
 252:Drivers/STM32L1xx_HAL_Driver/stm32l1xx_hal_pcd.cpp ****             the HAL_PCD_MspDeInit could be implenetd in the user file
 253:Drivers/STM32L1xx_HAL_Driver/stm32l1xx_hal_pcd.cpp ****    */
 254:Drivers/STM32L1xx_HAL_Driver/stm32l1xx_hal_pcd.cpp **** }
 442              		.loc 1 254 0
 443 0008 07F10C07 		add	r7, r7, #12	@,,
 444 000c BD46     		mov	sp, r7
 445 000e 80BC     		pop	{r7}
 446 0010 7047     		bx	lr
 447              		.cfi_endproc
 448              	.LFE59:
 449              		.size	HAL_PCD_MspDeInit, .-HAL_PCD_MspDeInit
 450 0012 00BF     		.section	.text.HAL_PCD_Start,"ax",%progbits
 451              		.align	2
 452              		.global	HAL_PCD_Start
 453              		.thumb
 454              		.thumb_func
 455              		.type	HAL_PCD_Start, %function
 456              	HAL_PCD_Start:
 457              	.LFB60:
 255:Drivers/STM32L1xx_HAL_Driver/stm32l1xx_hal_pcd.cpp **** 
 256:Drivers/STM32L1xx_HAL_Driver/stm32l1xx_hal_pcd.cpp **** /**
 257:Drivers/STM32L1xx_HAL_Driver/stm32l1xx_hal_pcd.cpp ****   * @}
 258:Drivers/STM32L1xx_HAL_Driver/stm32l1xx_hal_pcd.cpp ****   */
 259:Drivers/STM32L1xx_HAL_Driver/stm32l1xx_hal_pcd.cpp **** 
 260:Drivers/STM32L1xx_HAL_Driver/stm32l1xx_hal_pcd.cpp **** /** @defgroup PCD_Exported_Functions_Group2 IO operation functions 
 261:Drivers/STM32L1xx_HAL_Driver/stm32l1xx_hal_pcd.cpp ****  *  @brief   Data transfers functions 
 262:Drivers/STM32L1xx_HAL_Driver/stm32l1xx_hal_pcd.cpp ****  *
 263:Drivers/STM32L1xx_HAL_Driver/stm32l1xx_hal_pcd.cpp **** @verbatim   
 264:Drivers/STM32L1xx_HAL_Driver/stm32l1xx_hal_pcd.cpp ****  ===============================================================================
 265:Drivers/STM32L1xx_HAL_Driver/stm32l1xx_hal_pcd.cpp ****                       ##### IO operation functions #####
 266:Drivers/STM32L1xx_HAL_Driver/stm32l1xx_hal_pcd.cpp ****  ===============================================================================  
 267:Drivers/STM32L1xx_HAL_Driver/stm32l1xx_hal_pcd.cpp ****     [..]
 268:Drivers/STM32L1xx_HAL_Driver/stm32l1xx_hal_pcd.cpp ****     This subsection provides a set of functions allowing to manage the PCD data 
 269:Drivers/STM32L1xx_HAL_Driver/stm32l1xx_hal_pcd.cpp ****     transfers.
 270:Drivers/STM32L1xx_HAL_Driver/stm32l1xx_hal_pcd.cpp **** 
 271:Drivers/STM32L1xx_HAL_Driver/stm32l1xx_hal_pcd.cpp **** @endverbatim
 272:Drivers/STM32L1xx_HAL_Driver/stm32l1xx_hal_pcd.cpp ****   * @{
 273:Drivers/STM32L1xx_HAL_Driver/stm32l1xx_hal_pcd.cpp ****   */
 274:Drivers/STM32L1xx_HAL_Driver/stm32l1xx_hal_pcd.cpp ****   
 275:Drivers/STM32L1xx_HAL_Driver/stm32l1xx_hal_pcd.cpp **** /**
 276:Drivers/STM32L1xx_HAL_Driver/stm32l1xx_hal_pcd.cpp ****   * @brief  Start The USB OTG Device.
 277:Drivers/STM32L1xx_HAL_Driver/stm32l1xx_hal_pcd.cpp ****   * @param  hpcd: PCD handle
 278:Drivers/STM32L1xx_HAL_Driver/stm32l1xx_hal_pcd.cpp ****   * @retval HAL status
 279:Drivers/STM32L1xx_HAL_Driver/stm32l1xx_hal_pcd.cpp ****   */
 280:Drivers/STM32L1xx_HAL_Driver/stm32l1xx_hal_pcd.cpp **** HAL_StatusTypeDef HAL_PCD_Start(PCD_HandleTypeDef *hpcd)
ARM GAS  /tmp/ccS6NUBW.s 			page 14


 281:Drivers/STM32L1xx_HAL_Driver/stm32l1xx_hal_pcd.cpp **** { 
 458              		.loc 1 281 0
 459              		.cfi_startproc
 460              		@ args = 0, pretend = 0, frame = 8
 461              		@ frame_needed = 1, uses_anonymous_args = 0
 462 0000 80B5     		push	{r7, lr}	@
 463              	.LCFI12:
 464              		.cfi_def_cfa_offset 8
 465              		.cfi_offset 7, -8
 466              		.cfi_offset 14, -4
 467 0002 82B0     		sub	sp, sp, #8	@,,
 468              	.LCFI13:
 469              		.cfi_def_cfa_offset 16
 470 0004 00AF     		add	r7, sp, #0	@,,
 471              	.LCFI14:
 472              		.cfi_def_cfa_register 7
 473 0006 7860     		str	r0, [r7, #4]	@ hpcd, hpcd
 282:Drivers/STM32L1xx_HAL_Driver/stm32l1xx_hal_pcd.cpp ****   HAL_PCDEx_SetConnectionState (hpcd, 1);
 474              		.loc 1 282 0
 475 0008 7868     		ldr	r0, [r7, #4]	@, hpcd
 476 000a 4FF00101 		mov	r1, #1	@,
 477 000e FFF7FEFF 		bl	HAL_PCDEx_SetConnectionState	@
 283:Drivers/STM32L1xx_HAL_Driver/stm32l1xx_hal_pcd.cpp ****   return HAL_OK;
 478              		.loc 1 283 0
 479 0012 4FF00003 		mov	r3, #0	@ D.8270,
 284:Drivers/STM32L1xx_HAL_Driver/stm32l1xx_hal_pcd.cpp **** }
 480              		.loc 1 284 0
 481 0016 1846     		mov	r0, r3	@, <retval>
 482 0018 07F10807 		add	r7, r7, #8	@,,
 483 001c BD46     		mov	sp, r7
 484 001e 80BD     		pop	{r7, pc}
 485              		.cfi_endproc
 486              	.LFE60:
 487              		.size	HAL_PCD_Start, .-HAL_PCD_Start
 488              		.section	.text.HAL_PCD_Stop,"ax",%progbits
 489              		.align	2
 490              		.global	HAL_PCD_Stop
 491              		.thumb
 492              		.thumb_func
 493              		.type	HAL_PCD_Stop, %function
 494              	HAL_PCD_Stop:
 495              	.LFB61:
 285:Drivers/STM32L1xx_HAL_Driver/stm32l1xx_hal_pcd.cpp **** 
 286:Drivers/STM32L1xx_HAL_Driver/stm32l1xx_hal_pcd.cpp **** /**
 287:Drivers/STM32L1xx_HAL_Driver/stm32l1xx_hal_pcd.cpp ****   * @brief  Stop The USB OTG Device.
 288:Drivers/STM32L1xx_HAL_Driver/stm32l1xx_hal_pcd.cpp ****   * @param  hpcd: PCD handle
 289:Drivers/STM32L1xx_HAL_Driver/stm32l1xx_hal_pcd.cpp ****   * @retval HAL status
 290:Drivers/STM32L1xx_HAL_Driver/stm32l1xx_hal_pcd.cpp ****   */
 291:Drivers/STM32L1xx_HAL_Driver/stm32l1xx_hal_pcd.cpp **** HAL_StatusTypeDef HAL_PCD_Stop(PCD_HandleTypeDef *hpcd)
 292:Drivers/STM32L1xx_HAL_Driver/stm32l1xx_hal_pcd.cpp **** { 
 496              		.loc 1 292 0
 497              		.cfi_startproc
 498              		@ args = 0, pretend = 0, frame = 8
 499              		@ frame_needed = 1, uses_anonymous_args = 0
 500              		@ link register save eliminated.
 501 0000 80B4     		push	{r7}	@
 502              	.LCFI15:
ARM GAS  /tmp/ccS6NUBW.s 			page 15


 503              		.cfi_def_cfa_offset 4
 504              		.cfi_offset 7, -4
 505 0002 83B0     		sub	sp, sp, #12	@,,
 506              	.LCFI16:
 507              		.cfi_def_cfa_offset 16
 508 0004 00AF     		add	r7, sp, #0	@,,
 509              	.LCFI17:
 510              		.cfi_def_cfa_register 7
 511 0006 7860     		str	r0, [r7, #4]	@ hpcd, hpcd
 293:Drivers/STM32L1xx_HAL_Driver/stm32l1xx_hal_pcd.cpp ****   __HAL_LOCK(hpcd); 
 512              		.loc 1 293 0
 513 0008 7B68     		ldr	r3, [r7, #4]	@ tmp140, hpcd
 514 000a 93F8E831 		ldrb	r3, [r3, #488]	@ zero_extendqisi2	@ D.8260, hpcd_2(D)->Lock
 515 000e 012B     		cmp	r3, #1	@ D.8260,
 516 0010 02D1     		bne	.L16	@,
 517              		.loc 1 293 0 is_stmt 0 discriminator 1
 518 0012 4FF00203 		mov	r3, #2	@ D.8263,
 519 0016 1DE0     		b	.L17	@
 520              	.L16:
 521              		.loc 1 293 0 discriminator 2
 522 0018 7B68     		ldr	r3, [r7, #4]	@ tmp141, hpcd
 523 001a 4FF00102 		mov	r2, #1	@ tmp142,
 524 001e 83F8E821 		strb	r2, [r3, #488]	@ tmp143, hpcd_2(D)->Lock
 294:Drivers/STM32L1xx_HAL_Driver/stm32l1xx_hal_pcd.cpp ****   
 295:Drivers/STM32L1xx_HAL_Driver/stm32l1xx_hal_pcd.cpp ****     /* disable all interrupts and force USB reset */
 296:Drivers/STM32L1xx_HAL_Driver/stm32l1xx_hal_pcd.cpp ****   hpcd->Instance->CNTR = USB_CNTR_FRES;
 525              		.loc 1 296 0 is_stmt 1 discriminator 2
 526 0022 7B68     		ldr	r3, [r7, #4]	@ tmp144, hpcd
 527 0024 1B68     		ldr	r3, [r3, #0]	@ D.8264, hpcd_2(D)->Instance
 528 0026 4FF00102 		mov	r2, #1	@ tmp146,
 529 002a A3F84020 		strh	r2, [r3, #64]	@ movhi	@ tmp145, D.8264_5->CNTR
 297:Drivers/STM32L1xx_HAL_Driver/stm32l1xx_hal_pcd.cpp ****   
 298:Drivers/STM32L1xx_HAL_Driver/stm32l1xx_hal_pcd.cpp ****   /* clear interrupt status register */
 299:Drivers/STM32L1xx_HAL_Driver/stm32l1xx_hal_pcd.cpp ****   hpcd->Instance->ISTR = 0;
 530              		.loc 1 299 0 discriminator 2
 531 002e 7B68     		ldr	r3, [r7, #4]	@ tmp147, hpcd
 532 0030 1B68     		ldr	r3, [r3, #0]	@ D.8265, hpcd_2(D)->Instance
 533 0032 4FF00002 		mov	r2, #0	@ tmp149,
 534 0036 A3F84420 		strh	r2, [r3, #68]	@ movhi	@ tmp148, D.8265_6->ISTR
 300:Drivers/STM32L1xx_HAL_Driver/stm32l1xx_hal_pcd.cpp ****   
 301:Drivers/STM32L1xx_HAL_Driver/stm32l1xx_hal_pcd.cpp ****   /* switch-off device */
 302:Drivers/STM32L1xx_HAL_Driver/stm32l1xx_hal_pcd.cpp ****   hpcd->Instance->CNTR = (USB_CNTR_FRES | USB_CNTR_PDWN);
 535              		.loc 1 302 0 discriminator 2
 536 003a 7B68     		ldr	r3, [r7, #4]	@ tmp150, hpcd
 537 003c 1B68     		ldr	r3, [r3, #0]	@ D.8266, hpcd_2(D)->Instance
 538 003e 4FF00302 		mov	r2, #3	@ tmp152,
 539 0042 A3F84020 		strh	r2, [r3, #64]	@ movhi	@ tmp151, D.8266_7->CNTR
 303:Drivers/STM32L1xx_HAL_Driver/stm32l1xx_hal_pcd.cpp ****   
 304:Drivers/STM32L1xx_HAL_Driver/stm32l1xx_hal_pcd.cpp ****   __HAL_UNLOCK(hpcd); 
 540              		.loc 1 304 0 discriminator 2
 541 0046 7B68     		ldr	r3, [r7, #4]	@ tmp153, hpcd
 542 0048 4FF00002 		mov	r2, #0	@ tmp154,
 543 004c 83F8E821 		strb	r2, [r3, #488]	@ tmp155, hpcd_2(D)->Lock
 305:Drivers/STM32L1xx_HAL_Driver/stm32l1xx_hal_pcd.cpp ****   return HAL_OK;
 544              		.loc 1 305 0 discriminator 2
 545 0050 4FF00003 		mov	r3, #0	@ D.8263,
 546              	.L17:
ARM GAS  /tmp/ccS6NUBW.s 			page 16


 306:Drivers/STM32L1xx_HAL_Driver/stm32l1xx_hal_pcd.cpp **** }
 547              		.loc 1 306 0
 548 0054 1846     		mov	r0, r3	@, <retval>
 549 0056 07F10C07 		add	r7, r7, #12	@,,
 550 005a BD46     		mov	sp, r7
 551 005c 80BC     		pop	{r7}
 552 005e 7047     		bx	lr
 553              		.cfi_endproc
 554              	.LFE61:
 555              		.size	HAL_PCD_Stop, .-HAL_PCD_Stop
 556              		.section	.text.HAL_PCD_IRQHandler,"ax",%progbits
 557              		.align	2
 558              		.global	HAL_PCD_IRQHandler
 559              		.thumb
 560              		.thumb_func
 561              		.type	HAL_PCD_IRQHandler, %function
 562              	HAL_PCD_IRQHandler:
 563              	.LFB62:
 307:Drivers/STM32L1xx_HAL_Driver/stm32l1xx_hal_pcd.cpp **** 
 308:Drivers/STM32L1xx_HAL_Driver/stm32l1xx_hal_pcd.cpp **** /**
 309:Drivers/STM32L1xx_HAL_Driver/stm32l1xx_hal_pcd.cpp ****   * @brief  This function handles PCD interrupt request.
 310:Drivers/STM32L1xx_HAL_Driver/stm32l1xx_hal_pcd.cpp ****   * @param  hpcd: PCD handle
 311:Drivers/STM32L1xx_HAL_Driver/stm32l1xx_hal_pcd.cpp ****   * @retval HAL status
 312:Drivers/STM32L1xx_HAL_Driver/stm32l1xx_hal_pcd.cpp ****   */
 313:Drivers/STM32L1xx_HAL_Driver/stm32l1xx_hal_pcd.cpp **** void HAL_PCD_IRQHandler(PCD_HandleTypeDef *hpcd)
 314:Drivers/STM32L1xx_HAL_Driver/stm32l1xx_hal_pcd.cpp **** {
 564              		.loc 1 314 0
 565              		.cfi_startproc
 566              		@ args = 0, pretend = 0, frame = 16
 567              		@ frame_needed = 1, uses_anonymous_args = 0
 568 0000 80B5     		push	{r7, lr}	@
 569              	.LCFI18:
 570              		.cfi_def_cfa_offset 8
 571              		.cfi_offset 7, -8
 572              		.cfi_offset 14, -4
 573 0002 84B0     		sub	sp, sp, #16	@,,
 574              	.LCFI19:
 575              		.cfi_def_cfa_offset 24
 576 0004 00AF     		add	r7, sp, #0	@,,
 577              	.LCFI20:
 578              		.cfi_def_cfa_register 7
 579 0006 7860     		str	r0, [r7, #4]	@ hpcd, hpcd
 580              	.LBB3:
 315:Drivers/STM32L1xx_HAL_Driver/stm32l1xx_hal_pcd.cpp ****   uint32_t wInterrupt_Mask = 0;
 581              		.loc 1 315 0
 582 0008 4FF00003 		mov	r3, #0	@ tmp220,
 583 000c FB60     		str	r3, [r7, #12]	@ tmp220, wInterrupt_Mask
 316:Drivers/STM32L1xx_HAL_Driver/stm32l1xx_hal_pcd.cpp ****   
 317:Drivers/STM32L1xx_HAL_Driver/stm32l1xx_hal_pcd.cpp ****   if (__HAL_PCD_GET_FLAG (hpcd, USB_ISTR_CTR))
 584              		.loc 1 317 0
 585 000e 7B68     		ldr	r3, [r7, #4]	@ tmp221, hpcd
 586 0010 1B68     		ldr	r3, [r3, #0]	@ D.8146, hpcd_2(D)->Instance
 587 0012 B3F84430 		ldrh	r3, [r3, #68]	@ movhi	@ tmp223, D.8146_3->ISTR
 588 0016 9BB2     		uxth	r3, r3	@ D.8147, tmp223
 589 0018 9BB2     		uxth	r3, r3	@ D.8148, D.8147
 590 001a 4FEAD333 		lsr	r3, r3, #15	@ tmp225, D.8148,
 591 001e DBB2     		uxtb	r3, r3	@ retval.48, tmp226
ARM GAS  /tmp/ccS6NUBW.s 			page 17


 592 0020 002B     		cmp	r3, #0	@ retval.48,
 593 0022 02D0     		beq	.L19	@,
 318:Drivers/STM32L1xx_HAL_Driver/stm32l1xx_hal_pcd.cpp ****   {
 319:Drivers/STM32L1xx_HAL_Driver/stm32l1xx_hal_pcd.cpp ****     /* servicing of the endpoint correct transfer interrupt */
 320:Drivers/STM32L1xx_HAL_Driver/stm32l1xx_hal_pcd.cpp ****     /* clear of the CTR flag into the sub */
 321:Drivers/STM32L1xx_HAL_Driver/stm32l1xx_hal_pcd.cpp ****     PCD_EP_ISR_Handler(hpcd);
 594              		.loc 1 321 0
 595 0024 7868     		ldr	r0, [r7, #4]	@, hpcd
 596 0026 FFF7FEFF 		bl	_ZL18PCD_EP_ISR_HandlerP17PCD_HandleTypeDef	@
 597              	.L19:
 322:Drivers/STM32L1xx_HAL_Driver/stm32l1xx_hal_pcd.cpp ****   }
 323:Drivers/STM32L1xx_HAL_Driver/stm32l1xx_hal_pcd.cpp **** 
 324:Drivers/STM32L1xx_HAL_Driver/stm32l1xx_hal_pcd.cpp ****   if (__HAL_PCD_GET_FLAG (hpcd, USB_ISTR_RESET))
 598              		.loc 1 324 0
 599 002a 7B68     		ldr	r3, [r7, #4]	@ tmp227, hpcd
 600 002c 1B68     		ldr	r3, [r3, #0]	@ D.8153, hpcd_2(D)->Instance
 601 002e B3F84430 		ldrh	r3, [r3, #68]	@ movhi	@ tmp229, D.8153_7->ISTR
 602 0032 9BB2     		uxth	r3, r3	@ D.8154, tmp229
 603 0034 03F48063 		and	r3, r3, #1024	@ D.8156, D.8155,
 604 0038 002B     		cmp	r3, #0	@ D.8156,
 605 003a 0CBF     		ite	eq	@
 606 003c 0023     		moveq	r3, #0	@, tmp231
 607 003e 0123     		movne	r3, #1	@, tmp231
 608 0040 DBB2     		uxtb	r3, r3	@ retval.49, tmp230
 609 0042 002B     		cmp	r3, #0	@ retval.49,
 610 0044 13D0     		beq	.L20	@,
 325:Drivers/STM32L1xx_HAL_Driver/stm32l1xx_hal_pcd.cpp ****   {
 326:Drivers/STM32L1xx_HAL_Driver/stm32l1xx_hal_pcd.cpp ****     __HAL_PCD_CLEAR_FLAG(hpcd, USB_ISTR_RESET);
 611              		.loc 1 326 0
 612 0046 7B68     		ldr	r3, [r7, #4]	@ tmp232, hpcd
 613 0048 1B68     		ldr	r3, [r3, #0]	@ D.8159, hpcd_2(D)->Instance
 614 004a 7A68     		ldr	r2, [r7, #4]	@ tmp233, hpcd
 615 004c 1268     		ldr	r2, [r2, #0]	@ D.8160, hpcd_2(D)->Instance
 616 004e B2F84420 		ldrh	r2, [r2, #68]	@ movhi	@ tmp235, D.8160_13->ISTR
 617 0052 92B2     		uxth	r2, r2	@ D.8161, tmp235
 618 0054 22F48062 		bic	r2, r2, #1024	@ tmp236, D.8161,
 619 0058 92B2     		uxth	r2, r2	@ D.8162, tmp236
 620 005a A3F84420 		strh	r2, [r3, #68]	@ movhi	@ tmp237, D.8159_12->ISTR
 327:Drivers/STM32L1xx_HAL_Driver/stm32l1xx_hal_pcd.cpp ****     HAL_PCD_ResetCallback(hpcd);
 621              		.loc 1 327 0
 622 005e 7868     		ldr	r0, [r7, #4]	@, hpcd
 623 0060 FFF7FEFF 		bl	HAL_PCD_ResetCallback	@
 328:Drivers/STM32L1xx_HAL_Driver/stm32l1xx_hal_pcd.cpp ****     HAL_PCD_SetAddress(hpcd, 0);
 624              		.loc 1 328 0
 625 0064 7868     		ldr	r0, [r7, #4]	@, hpcd
 626 0066 4FF00001 		mov	r1, #0	@,
 627 006a FFF7FEFF 		bl	HAL_PCD_SetAddress	@
 628              	.L20:
 329:Drivers/STM32L1xx_HAL_Driver/stm32l1xx_hal_pcd.cpp ****   }
 330:Drivers/STM32L1xx_HAL_Driver/stm32l1xx_hal_pcd.cpp **** 
 331:Drivers/STM32L1xx_HAL_Driver/stm32l1xx_hal_pcd.cpp ****   if (__HAL_PCD_GET_FLAG (hpcd, USB_ISTR_PMAOVRM))
 629              		.loc 1 331 0
 630 006e 7B68     		ldr	r3, [r7, #4]	@ tmp238, hpcd
 631 0070 1B68     		ldr	r3, [r3, #0]	@ D.8165, hpcd_2(D)->Instance
 632 0072 B3F84430 		ldrh	r3, [r3, #68]	@ movhi	@ tmp240, D.8165_16->ISTR
 633 0076 9BB2     		uxth	r3, r3	@ D.8166, tmp240
 634 0078 03F48043 		and	r3, r3, #16384	@ D.8168, D.8167,
ARM GAS  /tmp/ccS6NUBW.s 			page 18


 635 007c 002B     		cmp	r3, #0	@ D.8168,
 636 007e 0CBF     		ite	eq	@
 637 0080 0023     		moveq	r3, #0	@, tmp242
 638 0082 0123     		movne	r3, #1	@, tmp242
 639 0084 DBB2     		uxtb	r3, r3	@ retval.50, tmp241
 640 0086 002B     		cmp	r3, #0	@ retval.50,
 641 0088 0BD0     		beq	.L21	@,
 332:Drivers/STM32L1xx_HAL_Driver/stm32l1xx_hal_pcd.cpp ****   {
 333:Drivers/STM32L1xx_HAL_Driver/stm32l1xx_hal_pcd.cpp ****     __HAL_PCD_CLEAR_FLAG(hpcd, USB_ISTR_PMAOVRM);    
 642              		.loc 1 333 0
 643 008a 7B68     		ldr	r3, [r7, #4]	@ tmp243, hpcd
 644 008c 1B68     		ldr	r3, [r3, #0]	@ D.8171, hpcd_2(D)->Instance
 645 008e 7A68     		ldr	r2, [r7, #4]	@ tmp244, hpcd
 646 0090 1268     		ldr	r2, [r2, #0]	@ D.8172, hpcd_2(D)->Instance
 647 0092 B2F84420 		ldrh	r2, [r2, #68]	@ movhi	@ tmp246, D.8172_22->ISTR
 648 0096 92B2     		uxth	r2, r2	@ D.8173, tmp246
 649 0098 22F48042 		bic	r2, r2, #16384	@ tmp247, D.8173,
 650 009c 92B2     		uxth	r2, r2	@ D.8174, tmp247
 651 009e A3F84420 		strh	r2, [r3, #68]	@ movhi	@ tmp248, D.8171_21->ISTR
 652              	.L21:
 334:Drivers/STM32L1xx_HAL_Driver/stm32l1xx_hal_pcd.cpp ****   }
 335:Drivers/STM32L1xx_HAL_Driver/stm32l1xx_hal_pcd.cpp ****   if (__HAL_PCD_GET_FLAG (hpcd, USB_ISTR_ERR))
 653              		.loc 1 335 0
 654 00a2 7B68     		ldr	r3, [r7, #4]	@ tmp249, hpcd
 655 00a4 1B68     		ldr	r3, [r3, #0]	@ D.8177, hpcd_2(D)->Instance
 656 00a6 B3F84430 		ldrh	r3, [r3, #68]	@ movhi	@ tmp251, D.8177_25->ISTR
 657 00aa 9BB2     		uxth	r3, r3	@ D.8178, tmp251
 658 00ac 03F40053 		and	r3, r3, #8192	@ D.8180, D.8179,
 659 00b0 002B     		cmp	r3, #0	@ D.8180,
 660 00b2 0CBF     		ite	eq	@
 661 00b4 0023     		moveq	r3, #0	@, tmp253
 662 00b6 0123     		movne	r3, #1	@, tmp253
 663 00b8 DBB2     		uxtb	r3, r3	@ retval.51, tmp252
 664 00ba 002B     		cmp	r3, #0	@ retval.51,
 665 00bc 0BD0     		beq	.L22	@,
 336:Drivers/STM32L1xx_HAL_Driver/stm32l1xx_hal_pcd.cpp ****   {
 337:Drivers/STM32L1xx_HAL_Driver/stm32l1xx_hal_pcd.cpp ****     __HAL_PCD_CLEAR_FLAG(hpcd, USB_ISTR_ERR); 
 666              		.loc 1 337 0
 667 00be 7B68     		ldr	r3, [r7, #4]	@ tmp254, hpcd
 668 00c0 1B68     		ldr	r3, [r3, #0]	@ D.8183, hpcd_2(D)->Instance
 669 00c2 7A68     		ldr	r2, [r7, #4]	@ tmp255, hpcd
 670 00c4 1268     		ldr	r2, [r2, #0]	@ D.8184, hpcd_2(D)->Instance
 671 00c6 B2F84420 		ldrh	r2, [r2, #68]	@ movhi	@ tmp257, D.8184_31->ISTR
 672 00ca 92B2     		uxth	r2, r2	@ D.8185, tmp257
 673 00cc 22F40052 		bic	r2, r2, #8192	@ tmp258, D.8185,
 674 00d0 92B2     		uxth	r2, r2	@ D.8186, tmp258
 675 00d2 A3F84420 		strh	r2, [r3, #68]	@ movhi	@ tmp259, D.8183_30->ISTR
 676              	.L22:
 338:Drivers/STM32L1xx_HAL_Driver/stm32l1xx_hal_pcd.cpp ****   }
 339:Drivers/STM32L1xx_HAL_Driver/stm32l1xx_hal_pcd.cpp **** 
 340:Drivers/STM32L1xx_HAL_Driver/stm32l1xx_hal_pcd.cpp ****   if (__HAL_PCD_GET_FLAG (hpcd, USB_ISTR_WKUP))
 677              		.loc 1 340 0
 678 00d6 7B68     		ldr	r3, [r7, #4]	@ tmp260, hpcd
 679 00d8 1B68     		ldr	r3, [r3, #0]	@ D.8189, hpcd_2(D)->Instance
 680 00da B3F84430 		ldrh	r3, [r3, #68]	@ movhi	@ tmp262, D.8189_34->ISTR
 681 00de 9BB2     		uxth	r3, r3	@ D.8190, tmp262
 682 00e0 03F48053 		and	r3, r3, #4096	@ D.8192, D.8191,
ARM GAS  /tmp/ccS6NUBW.s 			page 19


 683 00e4 002B     		cmp	r3, #0	@ D.8192,
 684 00e6 0CBF     		ite	eq	@
 685 00e8 0023     		moveq	r3, #0	@, tmp264
 686 00ea 0123     		movne	r3, #1	@, tmp264
 687 00ec DBB2     		uxtb	r3, r3	@ retval.52, tmp263
 688 00ee 002B     		cmp	r3, #0	@ retval.52,
 689 00f0 23D0     		beq	.L23	@,
 341:Drivers/STM32L1xx_HAL_Driver/stm32l1xx_hal_pcd.cpp ****   {  
 342:Drivers/STM32L1xx_HAL_Driver/stm32l1xx_hal_pcd.cpp ****     hpcd->Instance->CNTR &= ~(USB_CNTR_LP_MODE);
 690              		.loc 1 342 0
 691 00f2 7B68     		ldr	r3, [r7, #4]	@ tmp265, hpcd
 692 00f4 1B68     		ldr	r3, [r3, #0]	@ D.8195, hpcd_2(D)->Instance
 693 00f6 7A68     		ldr	r2, [r7, #4]	@ tmp266, hpcd
 694 00f8 1268     		ldr	r2, [r2, #0]	@ D.8196, hpcd_2(D)->Instance
 695 00fa B2F84020 		ldrh	r2, [r2, #64]	@ movhi	@ tmp268, D.8196_40->CNTR
 696 00fe 92B2     		uxth	r2, r2	@ D.8197, tmp268
 697 0100 22F00402 		bic	r2, r2, #4	@ tmp269, D.8197,
 698 0104 92B2     		uxth	r2, r2	@ D.8198, tmp269
 699 0106 A3F84020 		strh	r2, [r3, #64]	@ movhi	@ tmp270, D.8195_39->CNTR
 343:Drivers/STM32L1xx_HAL_Driver/stm32l1xx_hal_pcd.cpp ****     
 344:Drivers/STM32L1xx_HAL_Driver/stm32l1xx_hal_pcd.cpp ****     /*set wInterrupt_Mask global variable*/
 345:Drivers/STM32L1xx_HAL_Driver/stm32l1xx_hal_pcd.cpp ****     wInterrupt_Mask = USB_CNTR_CTRM  | USB_CNTR_WKUPM | USB_CNTR_SUSPM | USB_CNTR_ERRM \
 346:Drivers/STM32L1xx_HAL_Driver/stm32l1xx_hal_pcd.cpp ****       | USB_CNTR_ESOFM | USB_CNTR_RESETM;
 700              		.loc 1 346 0
 701 010a 4FF43D43 		mov	r3, #48384	@ tmp271,
 702 010e FB60     		str	r3, [r7, #12]	@ tmp271, wInterrupt_Mask
 347:Drivers/STM32L1xx_HAL_Driver/stm32l1xx_hal_pcd.cpp ****     
 348:Drivers/STM32L1xx_HAL_Driver/stm32l1xx_hal_pcd.cpp ****     /*Set interrupt mask*/
 349:Drivers/STM32L1xx_HAL_Driver/stm32l1xx_hal_pcd.cpp ****     hpcd->Instance->CNTR = wInterrupt_Mask;
 703              		.loc 1 349 0
 704 0110 7B68     		ldr	r3, [r7, #4]	@ tmp272, hpcd
 705 0112 1B68     		ldr	r3, [r3, #0]	@ D.8199, hpcd_2(D)->Instance
 706 0114 FA68     		ldr	r2, [r7, #12]	@ tmp273, wInterrupt_Mask
 707 0116 92B2     		uxth	r2, r2	@ D.8200, tmp273
 708 0118 A3F84020 		strh	r2, [r3, #64]	@ movhi	@ tmp274, D.8199_44->CNTR
 350:Drivers/STM32L1xx_HAL_Driver/stm32l1xx_hal_pcd.cpp ****     
 351:Drivers/STM32L1xx_HAL_Driver/stm32l1xx_hal_pcd.cpp ****     HAL_PCD_ResumeCallback(hpcd);
 709              		.loc 1 351 0
 710 011c 7868     		ldr	r0, [r7, #4]	@, hpcd
 711 011e FFF7FEFF 		bl	HAL_PCD_ResumeCallback	@
 352:Drivers/STM32L1xx_HAL_Driver/stm32l1xx_hal_pcd.cpp ****     
 353:Drivers/STM32L1xx_HAL_Driver/stm32l1xx_hal_pcd.cpp ****     __HAL_PCD_CLEAR_FLAG(hpcd, USB_ISTR_WKUP);     
 712              		.loc 1 353 0
 713 0122 7B68     		ldr	r3, [r7, #4]	@ tmp275, hpcd
 714 0124 1B68     		ldr	r3, [r3, #0]	@ D.8201, hpcd_2(D)->Instance
 715 0126 7A68     		ldr	r2, [r7, #4]	@ tmp276, hpcd
 716 0128 1268     		ldr	r2, [r2, #0]	@ D.8202, hpcd_2(D)->Instance
 717 012a B2F84420 		ldrh	r2, [r2, #68]	@ movhi	@ tmp278, D.8202_47->ISTR
 718 012e 92B2     		uxth	r2, r2	@ D.8203, tmp278
 719 0130 22F48052 		bic	r2, r2, #4096	@ tmp279, D.8203,
 720 0134 92B2     		uxth	r2, r2	@ D.8204, tmp279
 721 0136 A3F84420 		strh	r2, [r3, #68]	@ movhi	@ tmp280, D.8201_46->ISTR
 722              	.L23:
 354:Drivers/STM32L1xx_HAL_Driver/stm32l1xx_hal_pcd.cpp ****   }
 355:Drivers/STM32L1xx_HAL_Driver/stm32l1xx_hal_pcd.cpp **** 
 356:Drivers/STM32L1xx_HAL_Driver/stm32l1xx_hal_pcd.cpp ****   if (__HAL_PCD_GET_FLAG (hpcd, USB_ISTR_SUSP))
 723              		.loc 1 356 0
ARM GAS  /tmp/ccS6NUBW.s 			page 20


 724 013a 7B68     		ldr	r3, [r7, #4]	@ tmp281, hpcd
 725 013c 1B68     		ldr	r3, [r3, #0]	@ D.8207, hpcd_2(D)->Instance
 726 013e B3F84430 		ldrh	r3, [r3, #68]	@ movhi	@ tmp283, D.8207_50->ISTR
 727 0142 9BB2     		uxth	r3, r3	@ D.8208, tmp283
 728 0144 03F40063 		and	r3, r3, #2048	@ D.8210, D.8209,
 729 0148 002B     		cmp	r3, #0	@ D.8210,
 730 014a 0CBF     		ite	eq	@
 731 014c 0023     		moveq	r3, #0	@, tmp285
 732 014e 0123     		movne	r3, #1	@, tmp285
 733 0150 DBB2     		uxtb	r3, r3	@ retval.53, tmp284
 734 0152 002B     		cmp	r3, #0	@ retval.53,
 735 0154 34D0     		beq	.L24	@,
 357:Drivers/STM32L1xx_HAL_Driver/stm32l1xx_hal_pcd.cpp ****   {    
 358:Drivers/STM32L1xx_HAL_Driver/stm32l1xx_hal_pcd.cpp ****     /* clear of the ISTR bit must be done after setting of CNTR_FSUSP */
 359:Drivers/STM32L1xx_HAL_Driver/stm32l1xx_hal_pcd.cpp ****     __HAL_PCD_CLEAR_FLAG(hpcd, USB_ISTR_SUSP);  
 736              		.loc 1 359 0
 737 0156 7B68     		ldr	r3, [r7, #4]	@ tmp286, hpcd
 738 0158 1B68     		ldr	r3, [r3, #0]	@ D.8213, hpcd_2(D)->Instance
 739 015a 7A68     		ldr	r2, [r7, #4]	@ tmp287, hpcd
 740 015c 1268     		ldr	r2, [r2, #0]	@ D.8214, hpcd_2(D)->Instance
 741 015e B2F84420 		ldrh	r2, [r2, #68]	@ movhi	@ tmp289, D.8214_56->ISTR
 742 0162 92B2     		uxth	r2, r2	@ D.8215, tmp289
 743 0164 22F40062 		bic	r2, r2, #2048	@ tmp290, D.8215,
 744 0168 92B2     		uxth	r2, r2	@ D.8216, tmp290
 745 016a A3F84420 		strh	r2, [r3, #68]	@ movhi	@ tmp291, D.8213_55->ISTR
 360:Drivers/STM32L1xx_HAL_Driver/stm32l1xx_hal_pcd.cpp ****     
 361:Drivers/STM32L1xx_HAL_Driver/stm32l1xx_hal_pcd.cpp ****     /* Force low-power mode in the macrocell */
 362:Drivers/STM32L1xx_HAL_Driver/stm32l1xx_hal_pcd.cpp ****     hpcd->Instance->CNTR |= USB_CNTR_FSUSP;
 746              		.loc 1 362 0
 747 016e 7B68     		ldr	r3, [r7, #4]	@ tmp292, hpcd
 748 0170 1B68     		ldr	r3, [r3, #0]	@ D.8217, hpcd_2(D)->Instance
 749 0172 7A68     		ldr	r2, [r7, #4]	@ tmp293, hpcd
 750 0174 1268     		ldr	r2, [r2, #0]	@ D.8218, hpcd_2(D)->Instance
 751 0176 B2F84020 		ldrh	r2, [r2, #64]	@ movhi	@ tmp295, D.8218_60->CNTR
 752 017a 92B2     		uxth	r2, r2	@ D.8219, tmp295
 753 017c 42F00802 		orr	r2, r2, #8	@ tmp296, D.8219,
 754 0180 92B2     		uxth	r2, r2	@ D.8220, tmp296
 755 0182 A3F84020 		strh	r2, [r3, #64]	@ movhi	@ tmp297, D.8217_59->CNTR
 363:Drivers/STM32L1xx_HAL_Driver/stm32l1xx_hal_pcd.cpp ****     hpcd->Instance->CNTR |= USB_CNTR_LP_MODE;
 756              		.loc 1 363 0
 757 0186 7B68     		ldr	r3, [r7, #4]	@ tmp298, hpcd
 758 0188 1B68     		ldr	r3, [r3, #0]	@ D.8221, hpcd_2(D)->Instance
 759 018a 7A68     		ldr	r2, [r7, #4]	@ tmp299, hpcd
 760 018c 1268     		ldr	r2, [r2, #0]	@ D.8222, hpcd_2(D)->Instance
 761 018e B2F84020 		ldrh	r2, [r2, #64]	@ movhi	@ tmp301, D.8222_64->CNTR
 762 0192 92B2     		uxth	r2, r2	@ D.8223, tmp301
 763 0194 42F00402 		orr	r2, r2, #4	@ tmp302, D.8223,
 764 0198 92B2     		uxth	r2, r2	@ D.8224, tmp302
 765 019a A3F84020 		strh	r2, [r3, #64]	@ movhi	@ tmp303, D.8221_63->CNTR
 364:Drivers/STM32L1xx_HAL_Driver/stm32l1xx_hal_pcd.cpp ****     if (__HAL_PCD_GET_FLAG (hpcd, USB_ISTR_WKUP) == 0)
 766              		.loc 1 364 0
 767 019e 7B68     		ldr	r3, [r7, #4]	@ tmp304, hpcd
 768 01a0 1B68     		ldr	r3, [r3, #0]	@ D.8226, hpcd_2(D)->Instance
 769 01a2 B3F84430 		ldrh	r3, [r3, #68]	@ movhi	@ tmp306, D.8226_67->ISTR
 770 01a6 9BB2     		uxth	r3, r3	@ D.8227, tmp306
 771 01a8 03F48053 		and	r3, r3, #4096	@ D.8229, D.8228,
 772 01ac 002B     		cmp	r3, #0	@ D.8229,
ARM GAS  /tmp/ccS6NUBW.s 			page 21


 773 01ae 14BF     		ite	ne	@
 774 01b0 0023     		movne	r3, #0	@, tmp308
 775 01b2 0123     		moveq	r3, #1	@, tmp308
 776 01b4 DBB2     		uxtb	r3, r3	@ retval.54, tmp307
 777 01b6 002B     		cmp	r3, #0	@ retval.54,
 778 01b8 02D0     		beq	.L24	@,
 365:Drivers/STM32L1xx_HAL_Driver/stm32l1xx_hal_pcd.cpp ****     {
 366:Drivers/STM32L1xx_HAL_Driver/stm32l1xx_hal_pcd.cpp ****       HAL_PCD_SuspendCallback(hpcd);
 779              		.loc 1 366 0
 780 01ba 7868     		ldr	r0, [r7, #4]	@, hpcd
 781 01bc FFF7FEFF 		bl	HAL_PCD_SuspendCallback	@
 782              	.L24:
 367:Drivers/STM32L1xx_HAL_Driver/stm32l1xx_hal_pcd.cpp ****     }
 368:Drivers/STM32L1xx_HAL_Driver/stm32l1xx_hal_pcd.cpp ****   }
 369:Drivers/STM32L1xx_HAL_Driver/stm32l1xx_hal_pcd.cpp **** 
 370:Drivers/STM32L1xx_HAL_Driver/stm32l1xx_hal_pcd.cpp ****   if (__HAL_PCD_GET_FLAG (hpcd, USB_ISTR_SOF))
 783              		.loc 1 370 0
 784 01c0 7B68     		ldr	r3, [r7, #4]	@ tmp309, hpcd
 785 01c2 1B68     		ldr	r3, [r3, #0]	@ D.8235, hpcd_2(D)->Instance
 786 01c4 B3F84430 		ldrh	r3, [r3, #68]	@ movhi	@ tmp311, D.8235_72->ISTR
 787 01c8 9BB2     		uxth	r3, r3	@ D.8236, tmp311
 788 01ca 03F40073 		and	r3, r3, #512	@ D.8238, D.8237,
 789 01ce 002B     		cmp	r3, #0	@ D.8238,
 790 01d0 0CBF     		ite	eq	@
 791 01d2 0023     		moveq	r3, #0	@, tmp313
 792 01d4 0123     		movne	r3, #1	@, tmp313
 793 01d6 DBB2     		uxtb	r3, r3	@ retval.55, tmp312
 794 01d8 002B     		cmp	r3, #0	@ retval.55,
 795 01da 0ED0     		beq	.L25	@,
 371:Drivers/STM32L1xx_HAL_Driver/stm32l1xx_hal_pcd.cpp ****   {
 372:Drivers/STM32L1xx_HAL_Driver/stm32l1xx_hal_pcd.cpp ****     __HAL_PCD_CLEAR_FLAG(hpcd, USB_ISTR_SOF); 
 796              		.loc 1 372 0
 797 01dc 7B68     		ldr	r3, [r7, #4]	@ tmp314, hpcd
 798 01de 1B68     		ldr	r3, [r3, #0]	@ D.8241, hpcd_2(D)->Instance
 799 01e0 7A68     		ldr	r2, [r7, #4]	@ tmp315, hpcd
 800 01e2 1268     		ldr	r2, [r2, #0]	@ D.8242, hpcd_2(D)->Instance
 801 01e4 B2F84420 		ldrh	r2, [r2, #68]	@ movhi	@ tmp317, D.8242_78->ISTR
 802 01e8 92B2     		uxth	r2, r2	@ D.8243, tmp317
 803 01ea 22F40072 		bic	r2, r2, #512	@ tmp318, D.8243,
 804 01ee 92B2     		uxth	r2, r2	@ D.8244, tmp318
 805 01f0 A3F84420 		strh	r2, [r3, #68]	@ movhi	@ tmp319, D.8241_77->ISTR
 373:Drivers/STM32L1xx_HAL_Driver/stm32l1xx_hal_pcd.cpp ****     HAL_PCD_SOFCallback(hpcd);
 806              		.loc 1 373 0
 807 01f4 7868     		ldr	r0, [r7, #4]	@, hpcd
 808 01f6 FFF7FEFF 		bl	HAL_PCD_SOFCallback	@
 809              	.L25:
 374:Drivers/STM32L1xx_HAL_Driver/stm32l1xx_hal_pcd.cpp ****   }
 375:Drivers/STM32L1xx_HAL_Driver/stm32l1xx_hal_pcd.cpp **** 
 376:Drivers/STM32L1xx_HAL_Driver/stm32l1xx_hal_pcd.cpp ****   if (__HAL_PCD_GET_FLAG (hpcd, USB_ISTR_ESOF))
 810              		.loc 1 376 0
 811 01fa 7B68     		ldr	r3, [r7, #4]	@ tmp320, hpcd
 812 01fc 1B68     		ldr	r3, [r3, #0]	@ D.8247, hpcd_2(D)->Instance
 813 01fe B3F84430 		ldrh	r3, [r3, #68]	@ movhi	@ tmp322, D.8247_81->ISTR
 814 0202 9BB2     		uxth	r3, r3	@ D.8248, tmp322
 815 0204 03F48073 		and	r3, r3, #256	@ D.8250, D.8249,
 816 0208 002B     		cmp	r3, #0	@ D.8250,
 817 020a 0CBF     		ite	eq	@
ARM GAS  /tmp/ccS6NUBW.s 			page 22


 818 020c 0023     		moveq	r3, #0	@, tmp324
 819 020e 0123     		movne	r3, #1	@, tmp324
 820 0210 DBB2     		uxtb	r3, r3	@ retval.56, tmp323
 821 0212 002B     		cmp	r3, #0	@ retval.56,
 822 0214 0BD0     		beq	.L18	@,
 377:Drivers/STM32L1xx_HAL_Driver/stm32l1xx_hal_pcd.cpp ****   {
 378:Drivers/STM32L1xx_HAL_Driver/stm32l1xx_hal_pcd.cpp ****     /* clear ESOF flag in ISTR */
 379:Drivers/STM32L1xx_HAL_Driver/stm32l1xx_hal_pcd.cpp ****     __HAL_PCD_CLEAR_FLAG(hpcd, USB_ISTR_ESOF); 
 823              		.loc 1 379 0
 824 0216 7B68     		ldr	r3, [r7, #4]	@ tmp325, hpcd
 825 0218 1B68     		ldr	r3, [r3, #0]	@ D.8253, hpcd_2(D)->Instance
 826 021a 7A68     		ldr	r2, [r7, #4]	@ tmp326, hpcd
 827 021c 1268     		ldr	r2, [r2, #0]	@ D.8254, hpcd_2(D)->Instance
 828 021e B2F84420 		ldrh	r2, [r2, #68]	@ movhi	@ tmp328, D.8254_87->ISTR
 829 0222 92B2     		uxth	r2, r2	@ D.8255, tmp328
 830 0224 22F48072 		bic	r2, r2, #256	@ tmp329, D.8255,
 831 0228 92B2     		uxth	r2, r2	@ D.8256, tmp329
 832 022a A3F84420 		strh	r2, [r3, #68]	@ movhi	@ tmp330, D.8253_86->ISTR
 833              	.L18:
 834              	.LBE3:
 380:Drivers/STM32L1xx_HAL_Driver/stm32l1xx_hal_pcd.cpp ****   }
 381:Drivers/STM32L1xx_HAL_Driver/stm32l1xx_hal_pcd.cpp **** }
 835              		.loc 1 381 0
 836 022e 07F11007 		add	r7, r7, #16	@,,
 837 0232 BD46     		mov	sp, r7
 838 0234 80BD     		pop	{r7, pc}
 839              		.cfi_endproc
 840              	.LFE62:
 841              		.size	HAL_PCD_IRQHandler, .-HAL_PCD_IRQHandler
 842 0236 00BF     		.section	.text.HAL_PCD_DataOutStageCallback,"ax",%progbits
 843              		.align	2
 844              		.weak	HAL_PCD_DataOutStageCallback
 845              		.thumb
 846              		.thumb_func
 847              		.type	HAL_PCD_DataOutStageCallback, %function
 848              	HAL_PCD_DataOutStageCallback:
 849              	.LFB63:
 382:Drivers/STM32L1xx_HAL_Driver/stm32l1xx_hal_pcd.cpp **** 
 383:Drivers/STM32L1xx_HAL_Driver/stm32l1xx_hal_pcd.cpp **** /**
 384:Drivers/STM32L1xx_HAL_Driver/stm32l1xx_hal_pcd.cpp ****   * @brief  Data out stage callbacks
 385:Drivers/STM32L1xx_HAL_Driver/stm32l1xx_hal_pcd.cpp ****   * @param  hpcd: PCD handle
 386:Drivers/STM32L1xx_HAL_Driver/stm32l1xx_hal_pcd.cpp ****   * @param  epnum: endpoint number
 387:Drivers/STM32L1xx_HAL_Driver/stm32l1xx_hal_pcd.cpp ****   * @retval None
 388:Drivers/STM32L1xx_HAL_Driver/stm32l1xx_hal_pcd.cpp ****   */
 389:Drivers/STM32L1xx_HAL_Driver/stm32l1xx_hal_pcd.cpp ****  __weak void HAL_PCD_DataOutStageCallback(PCD_HandleTypeDef *hpcd, uint8_t epnum)
 390:Drivers/STM32L1xx_HAL_Driver/stm32l1xx_hal_pcd.cpp **** {
 850              		.loc 1 390 0
 851              		.cfi_startproc
 852              		@ args = 0, pretend = 0, frame = 8
 853              		@ frame_needed = 1, uses_anonymous_args = 0
 854              		@ link register save eliminated.
 855 0000 80B4     		push	{r7}	@
 856              	.LCFI21:
 857              		.cfi_def_cfa_offset 4
 858              		.cfi_offset 7, -4
 859 0002 83B0     		sub	sp, sp, #12	@,,
 860              	.LCFI22:
ARM GAS  /tmp/ccS6NUBW.s 			page 23


 861              		.cfi_def_cfa_offset 16
 862 0004 00AF     		add	r7, sp, #0	@,,
 863              	.LCFI23:
 864              		.cfi_def_cfa_register 7
 865 0006 7860     		str	r0, [r7, #4]	@ hpcd, hpcd
 866 0008 0B46     		mov	r3, r1	@ tmp134, epnum
 867 000a FB70     		strb	r3, [r7, #3]	@ tmp135, epnum
 391:Drivers/STM32L1xx_HAL_Driver/stm32l1xx_hal_pcd.cpp ****   /* NOTE : This function Should not be modified, when the callback is needed,
 392:Drivers/STM32L1xx_HAL_Driver/stm32l1xx_hal_pcd.cpp ****             the HAL_PCD_DataOutStageCallback could be implenetd in the user file
 393:Drivers/STM32L1xx_HAL_Driver/stm32l1xx_hal_pcd.cpp ****    */ 
 394:Drivers/STM32L1xx_HAL_Driver/stm32l1xx_hal_pcd.cpp **** }
 868              		.loc 1 394 0
 869 000c 07F10C07 		add	r7, r7, #12	@,,
 870 0010 BD46     		mov	sp, r7
 871 0012 80BC     		pop	{r7}
 872 0014 7047     		bx	lr
 873              		.cfi_endproc
 874              	.LFE63:
 875              		.size	HAL_PCD_DataOutStageCallback, .-HAL_PCD_DataOutStageCallback
 876 0016 00BF     		.section	.text.HAL_PCD_DataInStageCallback,"ax",%progbits
 877              		.align	2
 878              		.weak	HAL_PCD_DataInStageCallback
 879              		.thumb
 880              		.thumb_func
 881              		.type	HAL_PCD_DataInStageCallback, %function
 882              	HAL_PCD_DataInStageCallback:
 883              	.LFB64:
 395:Drivers/STM32L1xx_HAL_Driver/stm32l1xx_hal_pcd.cpp **** 
 396:Drivers/STM32L1xx_HAL_Driver/stm32l1xx_hal_pcd.cpp **** /**
 397:Drivers/STM32L1xx_HAL_Driver/stm32l1xx_hal_pcd.cpp ****   * @brief  Data IN stage callbacks
 398:Drivers/STM32L1xx_HAL_Driver/stm32l1xx_hal_pcd.cpp ****   * @param  hpcd: PCD handle
 399:Drivers/STM32L1xx_HAL_Driver/stm32l1xx_hal_pcd.cpp ****   * @param  epnum: endpoint number
 400:Drivers/STM32L1xx_HAL_Driver/stm32l1xx_hal_pcd.cpp ****   * @retval None
 401:Drivers/STM32L1xx_HAL_Driver/stm32l1xx_hal_pcd.cpp ****   */
 402:Drivers/STM32L1xx_HAL_Driver/stm32l1xx_hal_pcd.cpp ****  __weak void HAL_PCD_DataInStageCallback(PCD_HandleTypeDef *hpcd, uint8_t epnum)
 403:Drivers/STM32L1xx_HAL_Driver/stm32l1xx_hal_pcd.cpp **** {
 884              		.loc 1 403 0
 885              		.cfi_startproc
 886              		@ args = 0, pretend = 0, frame = 8
 887              		@ frame_needed = 1, uses_anonymous_args = 0
 888              		@ link register save eliminated.
 889 0000 80B4     		push	{r7}	@
 890              	.LCFI24:
 891              		.cfi_def_cfa_offset 4
 892              		.cfi_offset 7, -4
 893 0002 83B0     		sub	sp, sp, #12	@,,
 894              	.LCFI25:
 895              		.cfi_def_cfa_offset 16
 896 0004 00AF     		add	r7, sp, #0	@,,
 897              	.LCFI26:
 898              		.cfi_def_cfa_register 7
 899 0006 7860     		str	r0, [r7, #4]	@ hpcd, hpcd
 900 0008 0B46     		mov	r3, r1	@ tmp134, epnum
 901 000a FB70     		strb	r3, [r7, #3]	@ tmp135, epnum
 404:Drivers/STM32L1xx_HAL_Driver/stm32l1xx_hal_pcd.cpp ****   /* NOTE : This function Should not be modified, when the callback is needed,
 405:Drivers/STM32L1xx_HAL_Driver/stm32l1xx_hal_pcd.cpp ****             the HAL_PCD_DataInStageCallback could be implenetd in the user file
 406:Drivers/STM32L1xx_HAL_Driver/stm32l1xx_hal_pcd.cpp ****    */ 
ARM GAS  /tmp/ccS6NUBW.s 			page 24


 407:Drivers/STM32L1xx_HAL_Driver/stm32l1xx_hal_pcd.cpp **** }
 902              		.loc 1 407 0
 903 000c 07F10C07 		add	r7, r7, #12	@,,
 904 0010 BD46     		mov	sp, r7
 905 0012 80BC     		pop	{r7}
 906 0014 7047     		bx	lr
 907              		.cfi_endproc
 908              	.LFE64:
 909              		.size	HAL_PCD_DataInStageCallback, .-HAL_PCD_DataInStageCallback
 910 0016 00BF     		.section	.text.HAL_PCD_SetupStageCallback,"ax",%progbits
 911              		.align	2
 912              		.weak	HAL_PCD_SetupStageCallback
 913              		.thumb
 914              		.thumb_func
 915              		.type	HAL_PCD_SetupStageCallback, %function
 916              	HAL_PCD_SetupStageCallback:
 917              	.LFB65:
 408:Drivers/STM32L1xx_HAL_Driver/stm32l1xx_hal_pcd.cpp **** /**
 409:Drivers/STM32L1xx_HAL_Driver/stm32l1xx_hal_pcd.cpp ****   * @brief  Setup stage callback
 410:Drivers/STM32L1xx_HAL_Driver/stm32l1xx_hal_pcd.cpp ****   * @param  hpcd: ppp handle
 411:Drivers/STM32L1xx_HAL_Driver/stm32l1xx_hal_pcd.cpp ****   * @retval None
 412:Drivers/STM32L1xx_HAL_Driver/stm32l1xx_hal_pcd.cpp ****   */
 413:Drivers/STM32L1xx_HAL_Driver/stm32l1xx_hal_pcd.cpp ****  __weak void HAL_PCD_SetupStageCallback(PCD_HandleTypeDef *hpcd)
 414:Drivers/STM32L1xx_HAL_Driver/stm32l1xx_hal_pcd.cpp **** {
 918              		.loc 1 414 0
 919              		.cfi_startproc
 920              		@ args = 0, pretend = 0, frame = 8
 921              		@ frame_needed = 1, uses_anonymous_args = 0
 922              		@ link register save eliminated.
 923 0000 80B4     		push	{r7}	@
 924              	.LCFI27:
 925              		.cfi_def_cfa_offset 4
 926              		.cfi_offset 7, -4
 927 0002 83B0     		sub	sp, sp, #12	@,,
 928              	.LCFI28:
 929              		.cfi_def_cfa_offset 16
 930 0004 00AF     		add	r7, sp, #0	@,,
 931              	.LCFI29:
 932              		.cfi_def_cfa_register 7
 933 0006 7860     		str	r0, [r7, #4]	@ hpcd, hpcd
 415:Drivers/STM32L1xx_HAL_Driver/stm32l1xx_hal_pcd.cpp ****   /* NOTE : This function Should not be modified, when the callback is needed,
 416:Drivers/STM32L1xx_HAL_Driver/stm32l1xx_hal_pcd.cpp ****             the HAL_PCD_SetupStageCallback could be implenetd in the user file
 417:Drivers/STM32L1xx_HAL_Driver/stm32l1xx_hal_pcd.cpp ****    */ 
 418:Drivers/STM32L1xx_HAL_Driver/stm32l1xx_hal_pcd.cpp **** }
 934              		.loc 1 418 0
 935 0008 07F10C07 		add	r7, r7, #12	@,,
 936 000c BD46     		mov	sp, r7
 937 000e 80BC     		pop	{r7}
 938 0010 7047     		bx	lr
 939              		.cfi_endproc
 940              	.LFE65:
 941              		.size	HAL_PCD_SetupStageCallback, .-HAL_PCD_SetupStageCallback
 942 0012 00BF     		.section	.text.HAL_PCD_SOFCallback,"ax",%progbits
 943              		.align	2
 944              		.weak	HAL_PCD_SOFCallback
 945              		.thumb
 946              		.thumb_func
ARM GAS  /tmp/ccS6NUBW.s 			page 25


 947              		.type	HAL_PCD_SOFCallback, %function
 948              	HAL_PCD_SOFCallback:
 949              	.LFB66:
 419:Drivers/STM32L1xx_HAL_Driver/stm32l1xx_hal_pcd.cpp **** 
 420:Drivers/STM32L1xx_HAL_Driver/stm32l1xx_hal_pcd.cpp **** /**
 421:Drivers/STM32L1xx_HAL_Driver/stm32l1xx_hal_pcd.cpp ****   * @brief  USB Start Of Frame callbacks
 422:Drivers/STM32L1xx_HAL_Driver/stm32l1xx_hal_pcd.cpp ****   * @param  hpcd: PCD handle
 423:Drivers/STM32L1xx_HAL_Driver/stm32l1xx_hal_pcd.cpp ****   * @retval None
 424:Drivers/STM32L1xx_HAL_Driver/stm32l1xx_hal_pcd.cpp ****   */
 425:Drivers/STM32L1xx_HAL_Driver/stm32l1xx_hal_pcd.cpp ****  __weak void HAL_PCD_SOFCallback(PCD_HandleTypeDef *hpcd)
 426:Drivers/STM32L1xx_HAL_Driver/stm32l1xx_hal_pcd.cpp **** {
 950              		.loc 1 426 0
 951              		.cfi_startproc
 952              		@ args = 0, pretend = 0, frame = 8
 953              		@ frame_needed = 1, uses_anonymous_args = 0
 954              		@ link register save eliminated.
 955 0000 80B4     		push	{r7}	@
 956              	.LCFI30:
 957              		.cfi_def_cfa_offset 4
 958              		.cfi_offset 7, -4
 959 0002 83B0     		sub	sp, sp, #12	@,,
 960              	.LCFI31:
 961              		.cfi_def_cfa_offset 16
 962 0004 00AF     		add	r7, sp, #0	@,,
 963              	.LCFI32:
 964              		.cfi_def_cfa_register 7
 965 0006 7860     		str	r0, [r7, #4]	@ hpcd, hpcd
 427:Drivers/STM32L1xx_HAL_Driver/stm32l1xx_hal_pcd.cpp ****   /* NOTE : This function Should not be modified, when the callback is needed,
 428:Drivers/STM32L1xx_HAL_Driver/stm32l1xx_hal_pcd.cpp ****             the HAL_PCD_SOFCallback could be implenetd in the user file
 429:Drivers/STM32L1xx_HAL_Driver/stm32l1xx_hal_pcd.cpp ****    */ 
 430:Drivers/STM32L1xx_HAL_Driver/stm32l1xx_hal_pcd.cpp **** }
 966              		.loc 1 430 0
 967 0008 07F10C07 		add	r7, r7, #12	@,,
 968 000c BD46     		mov	sp, r7
 969 000e 80BC     		pop	{r7}
 970 0010 7047     		bx	lr
 971              		.cfi_endproc
 972              	.LFE66:
 973              		.size	HAL_PCD_SOFCallback, .-HAL_PCD_SOFCallback
 974 0012 00BF     		.section	.text.HAL_PCD_ResetCallback,"ax",%progbits
 975              		.align	2
 976              		.weak	HAL_PCD_ResetCallback
 977              		.thumb
 978              		.thumb_func
 979              		.type	HAL_PCD_ResetCallback, %function
 980              	HAL_PCD_ResetCallback:
 981              	.LFB67:
 431:Drivers/STM32L1xx_HAL_Driver/stm32l1xx_hal_pcd.cpp **** 
 432:Drivers/STM32L1xx_HAL_Driver/stm32l1xx_hal_pcd.cpp **** /**
 433:Drivers/STM32L1xx_HAL_Driver/stm32l1xx_hal_pcd.cpp ****   * @brief  USB Reset callbacks
 434:Drivers/STM32L1xx_HAL_Driver/stm32l1xx_hal_pcd.cpp ****   * @param  hpcd: PCD handle
 435:Drivers/STM32L1xx_HAL_Driver/stm32l1xx_hal_pcd.cpp ****   * @retval None
 436:Drivers/STM32L1xx_HAL_Driver/stm32l1xx_hal_pcd.cpp ****   */
 437:Drivers/STM32L1xx_HAL_Driver/stm32l1xx_hal_pcd.cpp ****  __weak void HAL_PCD_ResetCallback(PCD_HandleTypeDef *hpcd)
 438:Drivers/STM32L1xx_HAL_Driver/stm32l1xx_hal_pcd.cpp **** {
 982              		.loc 1 438 0
 983              		.cfi_startproc
ARM GAS  /tmp/ccS6NUBW.s 			page 26


 984              		@ args = 0, pretend = 0, frame = 8
 985              		@ frame_needed = 1, uses_anonymous_args = 0
 986              		@ link register save eliminated.
 987 0000 80B4     		push	{r7}	@
 988              	.LCFI33:
 989              		.cfi_def_cfa_offset 4
 990              		.cfi_offset 7, -4
 991 0002 83B0     		sub	sp, sp, #12	@,,
 992              	.LCFI34:
 993              		.cfi_def_cfa_offset 16
 994 0004 00AF     		add	r7, sp, #0	@,,
 995              	.LCFI35:
 996              		.cfi_def_cfa_register 7
 997 0006 7860     		str	r0, [r7, #4]	@ hpcd, hpcd
 439:Drivers/STM32L1xx_HAL_Driver/stm32l1xx_hal_pcd.cpp ****   /* NOTE : This function Should not be modified, when the callback is needed,
 440:Drivers/STM32L1xx_HAL_Driver/stm32l1xx_hal_pcd.cpp ****             the HAL_PCD_ResetCallback could be implenetd in the user file
 441:Drivers/STM32L1xx_HAL_Driver/stm32l1xx_hal_pcd.cpp ****    */ 
 442:Drivers/STM32L1xx_HAL_Driver/stm32l1xx_hal_pcd.cpp **** }
 998              		.loc 1 442 0
 999 0008 07F10C07 		add	r7, r7, #12	@,,
 1000 000c BD46     		mov	sp, r7
 1001 000e 80BC     		pop	{r7}
 1002 0010 7047     		bx	lr
 1003              		.cfi_endproc
 1004              	.LFE67:
 1005              		.size	HAL_PCD_ResetCallback, .-HAL_PCD_ResetCallback
 1006 0012 00BF     		.section	.text.HAL_PCD_SuspendCallback,"ax",%progbits
 1007              		.align	2
 1008              		.weak	HAL_PCD_SuspendCallback
 1009              		.thumb
 1010              		.thumb_func
 1011              		.type	HAL_PCD_SuspendCallback, %function
 1012              	HAL_PCD_SuspendCallback:
 1013              	.LFB68:
 443:Drivers/STM32L1xx_HAL_Driver/stm32l1xx_hal_pcd.cpp **** 
 444:Drivers/STM32L1xx_HAL_Driver/stm32l1xx_hal_pcd.cpp **** 
 445:Drivers/STM32L1xx_HAL_Driver/stm32l1xx_hal_pcd.cpp **** /**
 446:Drivers/STM32L1xx_HAL_Driver/stm32l1xx_hal_pcd.cpp ****   * @brief  Suspend event callbacks
 447:Drivers/STM32L1xx_HAL_Driver/stm32l1xx_hal_pcd.cpp ****   * @param  hpcd: PCD handle
 448:Drivers/STM32L1xx_HAL_Driver/stm32l1xx_hal_pcd.cpp ****   * @retval None
 449:Drivers/STM32L1xx_HAL_Driver/stm32l1xx_hal_pcd.cpp ****   */
 450:Drivers/STM32L1xx_HAL_Driver/stm32l1xx_hal_pcd.cpp ****  __weak void HAL_PCD_SuspendCallback(PCD_HandleTypeDef *hpcd)
 451:Drivers/STM32L1xx_HAL_Driver/stm32l1xx_hal_pcd.cpp **** {
 1014              		.loc 1 451 0
 1015              		.cfi_startproc
 1016              		@ args = 0, pretend = 0, frame = 8
 1017              		@ frame_needed = 1, uses_anonymous_args = 0
 1018              		@ link register save eliminated.
 1019 0000 80B4     		push	{r7}	@
 1020              	.LCFI36:
 1021              		.cfi_def_cfa_offset 4
 1022              		.cfi_offset 7, -4
 1023 0002 83B0     		sub	sp, sp, #12	@,,
 1024              	.LCFI37:
 1025              		.cfi_def_cfa_offset 16
 1026 0004 00AF     		add	r7, sp, #0	@,,
 1027              	.LCFI38:
ARM GAS  /tmp/ccS6NUBW.s 			page 27


 1028              		.cfi_def_cfa_register 7
 1029 0006 7860     		str	r0, [r7, #4]	@ hpcd, hpcd
 452:Drivers/STM32L1xx_HAL_Driver/stm32l1xx_hal_pcd.cpp ****   /* NOTE : This function Should not be modified, when the callback is needed,
 453:Drivers/STM32L1xx_HAL_Driver/stm32l1xx_hal_pcd.cpp ****             the HAL_PCD_SuspendCallback could be implenetd in the user file
 454:Drivers/STM32L1xx_HAL_Driver/stm32l1xx_hal_pcd.cpp ****    */ 
 455:Drivers/STM32L1xx_HAL_Driver/stm32l1xx_hal_pcd.cpp **** }
 1030              		.loc 1 455 0
 1031 0008 07F10C07 		add	r7, r7, #12	@,,
 1032 000c BD46     		mov	sp, r7
 1033 000e 80BC     		pop	{r7}
 1034 0010 7047     		bx	lr
 1035              		.cfi_endproc
 1036              	.LFE68:
 1037              		.size	HAL_PCD_SuspendCallback, .-HAL_PCD_SuspendCallback
 1038 0012 00BF     		.section	.text.HAL_PCD_ResumeCallback,"ax",%progbits
 1039              		.align	2
 1040              		.weak	HAL_PCD_ResumeCallback
 1041              		.thumb
 1042              		.thumb_func
 1043              		.type	HAL_PCD_ResumeCallback, %function
 1044              	HAL_PCD_ResumeCallback:
 1045              	.LFB69:
 456:Drivers/STM32L1xx_HAL_Driver/stm32l1xx_hal_pcd.cpp **** 
 457:Drivers/STM32L1xx_HAL_Driver/stm32l1xx_hal_pcd.cpp **** /**
 458:Drivers/STM32L1xx_HAL_Driver/stm32l1xx_hal_pcd.cpp ****   * @brief  Resume event callbacks
 459:Drivers/STM32L1xx_HAL_Driver/stm32l1xx_hal_pcd.cpp ****   * @param  hpcd: PCD handle
 460:Drivers/STM32L1xx_HAL_Driver/stm32l1xx_hal_pcd.cpp ****   * @retval None
 461:Drivers/STM32L1xx_HAL_Driver/stm32l1xx_hal_pcd.cpp ****   */
 462:Drivers/STM32L1xx_HAL_Driver/stm32l1xx_hal_pcd.cpp ****  __weak void HAL_PCD_ResumeCallback(PCD_HandleTypeDef *hpcd)
 463:Drivers/STM32L1xx_HAL_Driver/stm32l1xx_hal_pcd.cpp **** {
 1046              		.loc 1 463 0
 1047              		.cfi_startproc
 1048              		@ args = 0, pretend = 0, frame = 8
 1049              		@ frame_needed = 1, uses_anonymous_args = 0
 1050              		@ link register save eliminated.
 1051 0000 80B4     		push	{r7}	@
 1052              	.LCFI39:
 1053              		.cfi_def_cfa_offset 4
 1054              		.cfi_offset 7, -4
 1055 0002 83B0     		sub	sp, sp, #12	@,,
 1056              	.LCFI40:
 1057              		.cfi_def_cfa_offset 16
 1058 0004 00AF     		add	r7, sp, #0	@,,
 1059              	.LCFI41:
 1060              		.cfi_def_cfa_register 7
 1061 0006 7860     		str	r0, [r7, #4]	@ hpcd, hpcd
 464:Drivers/STM32L1xx_HAL_Driver/stm32l1xx_hal_pcd.cpp ****   /* NOTE : This function Should not be modified, when the callback is needed,
 465:Drivers/STM32L1xx_HAL_Driver/stm32l1xx_hal_pcd.cpp ****             the HAL_PCD_ResumeCallback could be implenetd in the user file
 466:Drivers/STM32L1xx_HAL_Driver/stm32l1xx_hal_pcd.cpp ****    */ 
 467:Drivers/STM32L1xx_HAL_Driver/stm32l1xx_hal_pcd.cpp **** }
 1062              		.loc 1 467 0
 1063 0008 07F10C07 		add	r7, r7, #12	@,,
 1064 000c BD46     		mov	sp, r7
 1065 000e 80BC     		pop	{r7}
 1066 0010 7047     		bx	lr
 1067              		.cfi_endproc
 1068              	.LFE69:
ARM GAS  /tmp/ccS6NUBW.s 			page 28


 1069              		.size	HAL_PCD_ResumeCallback, .-HAL_PCD_ResumeCallback
 1070 0012 00BF     		.section	.text.HAL_PCD_ISOOUTIncompleteCallback,"ax",%progbits
 1071              		.align	2
 1072              		.weak	HAL_PCD_ISOOUTIncompleteCallback
 1073              		.thumb
 1074              		.thumb_func
 1075              		.type	HAL_PCD_ISOOUTIncompleteCallback, %function
 1076              	HAL_PCD_ISOOUTIncompleteCallback:
 1077              	.LFB70:
 468:Drivers/STM32L1xx_HAL_Driver/stm32l1xx_hal_pcd.cpp **** 
 469:Drivers/STM32L1xx_HAL_Driver/stm32l1xx_hal_pcd.cpp **** /**
 470:Drivers/STM32L1xx_HAL_Driver/stm32l1xx_hal_pcd.cpp ****   * @brief  Incomplete ISO OUT callbacks
 471:Drivers/STM32L1xx_HAL_Driver/stm32l1xx_hal_pcd.cpp ****   * @param  hpcd: PCD handle
 472:Drivers/STM32L1xx_HAL_Driver/stm32l1xx_hal_pcd.cpp ****   * @param  epnum: endpoint number
 473:Drivers/STM32L1xx_HAL_Driver/stm32l1xx_hal_pcd.cpp ****   * @retval None
 474:Drivers/STM32L1xx_HAL_Driver/stm32l1xx_hal_pcd.cpp ****   */
 475:Drivers/STM32L1xx_HAL_Driver/stm32l1xx_hal_pcd.cpp ****  __weak void HAL_PCD_ISOOUTIncompleteCallback(PCD_HandleTypeDef *hpcd, uint8_t epnum)
 476:Drivers/STM32L1xx_HAL_Driver/stm32l1xx_hal_pcd.cpp **** {
 1078              		.loc 1 476 0
 1079              		.cfi_startproc
 1080              		@ args = 0, pretend = 0, frame = 8
 1081              		@ frame_needed = 1, uses_anonymous_args = 0
 1082              		@ link register save eliminated.
 1083 0000 80B4     		push	{r7}	@
 1084              	.LCFI42:
 1085              		.cfi_def_cfa_offset 4
 1086              		.cfi_offset 7, -4
 1087 0002 83B0     		sub	sp, sp, #12	@,,
 1088              	.LCFI43:
 1089              		.cfi_def_cfa_offset 16
 1090 0004 00AF     		add	r7, sp, #0	@,,
 1091              	.LCFI44:
 1092              		.cfi_def_cfa_register 7
 1093 0006 7860     		str	r0, [r7, #4]	@ hpcd, hpcd
 1094 0008 0B46     		mov	r3, r1	@ tmp134, epnum
 1095 000a FB70     		strb	r3, [r7, #3]	@ tmp135, epnum
 477:Drivers/STM32L1xx_HAL_Driver/stm32l1xx_hal_pcd.cpp ****   /* NOTE : This function Should not be modified, when the callback is needed,
 478:Drivers/STM32L1xx_HAL_Driver/stm32l1xx_hal_pcd.cpp ****             the HAL_PCD_ISOOUTIncompleteCallback could be implenetd in the user file
 479:Drivers/STM32L1xx_HAL_Driver/stm32l1xx_hal_pcd.cpp ****    */ 
 480:Drivers/STM32L1xx_HAL_Driver/stm32l1xx_hal_pcd.cpp **** }
 1096              		.loc 1 480 0
 1097 000c 07F10C07 		add	r7, r7, #12	@,,
 1098 0010 BD46     		mov	sp, r7
 1099 0012 80BC     		pop	{r7}
 1100 0014 7047     		bx	lr
 1101              		.cfi_endproc
 1102              	.LFE70:
 1103              		.size	HAL_PCD_ISOOUTIncompleteCallback, .-HAL_PCD_ISOOUTIncompleteCallback
 1104 0016 00BF     		.section	.text.HAL_PCD_ISOINIncompleteCallback,"ax",%progbits
 1105              		.align	2
 1106              		.weak	HAL_PCD_ISOINIncompleteCallback
 1107              		.thumb
 1108              		.thumb_func
 1109              		.type	HAL_PCD_ISOINIncompleteCallback, %function
 1110              	HAL_PCD_ISOINIncompleteCallback:
 1111              	.LFB71:
 481:Drivers/STM32L1xx_HAL_Driver/stm32l1xx_hal_pcd.cpp **** 
ARM GAS  /tmp/ccS6NUBW.s 			page 29


 482:Drivers/STM32L1xx_HAL_Driver/stm32l1xx_hal_pcd.cpp **** /**
 483:Drivers/STM32L1xx_HAL_Driver/stm32l1xx_hal_pcd.cpp ****   * @brief  Incomplete ISO IN  callbacks
 484:Drivers/STM32L1xx_HAL_Driver/stm32l1xx_hal_pcd.cpp ****   * @param  hpcd: PCD handle
 485:Drivers/STM32L1xx_HAL_Driver/stm32l1xx_hal_pcd.cpp ****   * @param  epnum: endpoint number
 486:Drivers/STM32L1xx_HAL_Driver/stm32l1xx_hal_pcd.cpp ****   * @retval None
 487:Drivers/STM32L1xx_HAL_Driver/stm32l1xx_hal_pcd.cpp ****   */
 488:Drivers/STM32L1xx_HAL_Driver/stm32l1xx_hal_pcd.cpp ****  __weak void HAL_PCD_ISOINIncompleteCallback(PCD_HandleTypeDef *hpcd, uint8_t epnum)
 489:Drivers/STM32L1xx_HAL_Driver/stm32l1xx_hal_pcd.cpp **** {
 1112              		.loc 1 489 0
 1113              		.cfi_startproc
 1114              		@ args = 0, pretend = 0, frame = 8
 1115              		@ frame_needed = 1, uses_anonymous_args = 0
 1116              		@ link register save eliminated.
 1117 0000 80B4     		push	{r7}	@
 1118              	.LCFI45:
 1119              		.cfi_def_cfa_offset 4
 1120              		.cfi_offset 7, -4
 1121 0002 83B0     		sub	sp, sp, #12	@,,
 1122              	.LCFI46:
 1123              		.cfi_def_cfa_offset 16
 1124 0004 00AF     		add	r7, sp, #0	@,,
 1125              	.LCFI47:
 1126              		.cfi_def_cfa_register 7
 1127 0006 7860     		str	r0, [r7, #4]	@ hpcd, hpcd
 1128 0008 0B46     		mov	r3, r1	@ tmp134, epnum
 1129 000a FB70     		strb	r3, [r7, #3]	@ tmp135, epnum
 490:Drivers/STM32L1xx_HAL_Driver/stm32l1xx_hal_pcd.cpp ****   /* NOTE : This function Should not be modified, when the callback is needed,
 491:Drivers/STM32L1xx_HAL_Driver/stm32l1xx_hal_pcd.cpp ****             the HAL_PCD_ISOINIncompleteCallback could be implenetd in the user file
 492:Drivers/STM32L1xx_HAL_Driver/stm32l1xx_hal_pcd.cpp ****    */ 
 493:Drivers/STM32L1xx_HAL_Driver/stm32l1xx_hal_pcd.cpp **** }
 1130              		.loc 1 493 0
 1131 000c 07F10C07 		add	r7, r7, #12	@,,
 1132 0010 BD46     		mov	sp, r7
 1133 0012 80BC     		pop	{r7}
 1134 0014 7047     		bx	lr
 1135              		.cfi_endproc
 1136              	.LFE71:
 1137              		.size	HAL_PCD_ISOINIncompleteCallback, .-HAL_PCD_ISOINIncompleteCallback
 1138 0016 00BF     		.section	.text.HAL_PCD_ConnectCallback,"ax",%progbits
 1139              		.align	2
 1140              		.weak	HAL_PCD_ConnectCallback
 1141              		.thumb
 1142              		.thumb_func
 1143              		.type	HAL_PCD_ConnectCallback, %function
 1144              	HAL_PCD_ConnectCallback:
 1145              	.LFB72:
 494:Drivers/STM32L1xx_HAL_Driver/stm32l1xx_hal_pcd.cpp **** 
 495:Drivers/STM32L1xx_HAL_Driver/stm32l1xx_hal_pcd.cpp **** /**
 496:Drivers/STM32L1xx_HAL_Driver/stm32l1xx_hal_pcd.cpp ****   * @brief  Connection event callbacks
 497:Drivers/STM32L1xx_HAL_Driver/stm32l1xx_hal_pcd.cpp ****   * @param  hpcd: PCD handle
 498:Drivers/STM32L1xx_HAL_Driver/stm32l1xx_hal_pcd.cpp ****   * @retval None
 499:Drivers/STM32L1xx_HAL_Driver/stm32l1xx_hal_pcd.cpp ****   */
 500:Drivers/STM32L1xx_HAL_Driver/stm32l1xx_hal_pcd.cpp ****  __weak void HAL_PCD_ConnectCallback(PCD_HandleTypeDef *hpcd)
 501:Drivers/STM32L1xx_HAL_Driver/stm32l1xx_hal_pcd.cpp **** {
 1146              		.loc 1 501 0
 1147              		.cfi_startproc
 1148              		@ args = 0, pretend = 0, frame = 8
ARM GAS  /tmp/ccS6NUBW.s 			page 30


 1149              		@ frame_needed = 1, uses_anonymous_args = 0
 1150              		@ link register save eliminated.
 1151 0000 80B4     		push	{r7}	@
 1152              	.LCFI48:
 1153              		.cfi_def_cfa_offset 4
 1154              		.cfi_offset 7, -4
 1155 0002 83B0     		sub	sp, sp, #12	@,,
 1156              	.LCFI49:
 1157              		.cfi_def_cfa_offset 16
 1158 0004 00AF     		add	r7, sp, #0	@,,
 1159              	.LCFI50:
 1160              		.cfi_def_cfa_register 7
 1161 0006 7860     		str	r0, [r7, #4]	@ hpcd, hpcd
 502:Drivers/STM32L1xx_HAL_Driver/stm32l1xx_hal_pcd.cpp ****   /* NOTE : This function Should not be modified, when the callback is needed,
 503:Drivers/STM32L1xx_HAL_Driver/stm32l1xx_hal_pcd.cpp ****             the HAL_PCD_ConnectCallback could be implenetd in the user file
 504:Drivers/STM32L1xx_HAL_Driver/stm32l1xx_hal_pcd.cpp ****    */ 
 505:Drivers/STM32L1xx_HAL_Driver/stm32l1xx_hal_pcd.cpp **** }
 1162              		.loc 1 505 0
 1163 0008 07F10C07 		add	r7, r7, #12	@,,
 1164 000c BD46     		mov	sp, r7
 1165 000e 80BC     		pop	{r7}
 1166 0010 7047     		bx	lr
 1167              		.cfi_endproc
 1168              	.LFE72:
 1169              		.size	HAL_PCD_ConnectCallback, .-HAL_PCD_ConnectCallback
 1170 0012 00BF     		.section	.text.HAL_PCD_DisconnectCallback,"ax",%progbits
 1171              		.align	2
 1172              		.weak	HAL_PCD_DisconnectCallback
 1173              		.thumb
 1174              		.thumb_func
 1175              		.type	HAL_PCD_DisconnectCallback, %function
 1176              	HAL_PCD_DisconnectCallback:
 1177              	.LFB73:
 506:Drivers/STM32L1xx_HAL_Driver/stm32l1xx_hal_pcd.cpp **** 
 507:Drivers/STM32L1xx_HAL_Driver/stm32l1xx_hal_pcd.cpp **** /**
 508:Drivers/STM32L1xx_HAL_Driver/stm32l1xx_hal_pcd.cpp ****   * @brief  Disconnection event callbacks
 509:Drivers/STM32L1xx_HAL_Driver/stm32l1xx_hal_pcd.cpp ****   * @param  hpcd: ppp handle
 510:Drivers/STM32L1xx_HAL_Driver/stm32l1xx_hal_pcd.cpp ****   * @retval None
 511:Drivers/STM32L1xx_HAL_Driver/stm32l1xx_hal_pcd.cpp ****   */
 512:Drivers/STM32L1xx_HAL_Driver/stm32l1xx_hal_pcd.cpp ****  __weak void HAL_PCD_DisconnectCallback(PCD_HandleTypeDef *hpcd)
 513:Drivers/STM32L1xx_HAL_Driver/stm32l1xx_hal_pcd.cpp **** {
 1178              		.loc 1 513 0
 1179              		.cfi_startproc
 1180              		@ args = 0, pretend = 0, frame = 8
 1181              		@ frame_needed = 1, uses_anonymous_args = 0
 1182              		@ link register save eliminated.
 1183 0000 80B4     		push	{r7}	@
 1184              	.LCFI51:
 1185              		.cfi_def_cfa_offset 4
 1186              		.cfi_offset 7, -4
 1187 0002 83B0     		sub	sp, sp, #12	@,,
 1188              	.LCFI52:
 1189              		.cfi_def_cfa_offset 16
 1190 0004 00AF     		add	r7, sp, #0	@,,
 1191              	.LCFI53:
 1192              		.cfi_def_cfa_register 7
 1193 0006 7860     		str	r0, [r7, #4]	@ hpcd, hpcd
ARM GAS  /tmp/ccS6NUBW.s 			page 31


 514:Drivers/STM32L1xx_HAL_Driver/stm32l1xx_hal_pcd.cpp ****   /* NOTE : This function Should not be modified, when the callback is needed,
 515:Drivers/STM32L1xx_HAL_Driver/stm32l1xx_hal_pcd.cpp ****             the HAL_PCD_DisconnectCallback could be implenetd in the user file
 516:Drivers/STM32L1xx_HAL_Driver/stm32l1xx_hal_pcd.cpp ****    */ 
 517:Drivers/STM32L1xx_HAL_Driver/stm32l1xx_hal_pcd.cpp **** }
 1194              		.loc 1 517 0
 1195 0008 07F10C07 		add	r7, r7, #12	@,,
 1196 000c BD46     		mov	sp, r7
 1197 000e 80BC     		pop	{r7}
 1198 0010 7047     		bx	lr
 1199              		.cfi_endproc
 1200              	.LFE73:
 1201              		.size	HAL_PCD_DisconnectCallback, .-HAL_PCD_DisconnectCallback
 1202 0012 00BF     		.section	.text.HAL_PCD_DevConnect,"ax",%progbits
 1203              		.align	2
 1204              		.global	HAL_PCD_DevConnect
 1205              		.thumb
 1206              		.thumb_func
 1207              		.type	HAL_PCD_DevConnect, %function
 1208              	HAL_PCD_DevConnect:
 1209              	.LFB74:
 518:Drivers/STM32L1xx_HAL_Driver/stm32l1xx_hal_pcd.cpp **** 
 519:Drivers/STM32L1xx_HAL_Driver/stm32l1xx_hal_pcd.cpp **** /**
 520:Drivers/STM32L1xx_HAL_Driver/stm32l1xx_hal_pcd.cpp ****   * @}
 521:Drivers/STM32L1xx_HAL_Driver/stm32l1xx_hal_pcd.cpp ****   */
 522:Drivers/STM32L1xx_HAL_Driver/stm32l1xx_hal_pcd.cpp ****   
 523:Drivers/STM32L1xx_HAL_Driver/stm32l1xx_hal_pcd.cpp **** /** @defgroup PCD_Exported_Functions_Group3 Peripheral Control functions 
 524:Drivers/STM32L1xx_HAL_Driver/stm32l1xx_hal_pcd.cpp ****  *  @brief   management functions 
 525:Drivers/STM32L1xx_HAL_Driver/stm32l1xx_hal_pcd.cpp ****  *
 526:Drivers/STM32L1xx_HAL_Driver/stm32l1xx_hal_pcd.cpp **** @verbatim   
 527:Drivers/STM32L1xx_HAL_Driver/stm32l1xx_hal_pcd.cpp ****  ===============================================================================
 528:Drivers/STM32L1xx_HAL_Driver/stm32l1xx_hal_pcd.cpp ****                       ##### Peripheral Control functions #####
 529:Drivers/STM32L1xx_HAL_Driver/stm32l1xx_hal_pcd.cpp ****  ===============================================================================  
 530:Drivers/STM32L1xx_HAL_Driver/stm32l1xx_hal_pcd.cpp ****     [..]
 531:Drivers/STM32L1xx_HAL_Driver/stm32l1xx_hal_pcd.cpp ****     This subsection provides a set of functions allowing to control the PCD data 
 532:Drivers/STM32L1xx_HAL_Driver/stm32l1xx_hal_pcd.cpp ****     transfers.
 533:Drivers/STM32L1xx_HAL_Driver/stm32l1xx_hal_pcd.cpp **** 
 534:Drivers/STM32L1xx_HAL_Driver/stm32l1xx_hal_pcd.cpp **** @endverbatim
 535:Drivers/STM32L1xx_HAL_Driver/stm32l1xx_hal_pcd.cpp ****   * @{
 536:Drivers/STM32L1xx_HAL_Driver/stm32l1xx_hal_pcd.cpp ****   */
 537:Drivers/STM32L1xx_HAL_Driver/stm32l1xx_hal_pcd.cpp **** 
 538:Drivers/STM32L1xx_HAL_Driver/stm32l1xx_hal_pcd.cpp **** /**
 539:Drivers/STM32L1xx_HAL_Driver/stm32l1xx_hal_pcd.cpp ****   * @brief  Connect the USB device 
 540:Drivers/STM32L1xx_HAL_Driver/stm32l1xx_hal_pcd.cpp ****   * @param  hpcd: PCD handle
 541:Drivers/STM32L1xx_HAL_Driver/stm32l1xx_hal_pcd.cpp ****   * @retval HAL status
 542:Drivers/STM32L1xx_HAL_Driver/stm32l1xx_hal_pcd.cpp ****   */
 543:Drivers/STM32L1xx_HAL_Driver/stm32l1xx_hal_pcd.cpp **** HAL_StatusTypeDef HAL_PCD_DevConnect(PCD_HandleTypeDef *hpcd)
 544:Drivers/STM32L1xx_HAL_Driver/stm32l1xx_hal_pcd.cpp **** {
 1210              		.loc 1 544 0
 1211              		.cfi_startproc
 1212              		@ args = 0, pretend = 0, frame = 8
 1213              		@ frame_needed = 1, uses_anonymous_args = 0
 1214 0000 80B5     		push	{r7, lr}	@
 1215              	.LCFI54:
 1216              		.cfi_def_cfa_offset 8
 1217              		.cfi_offset 7, -8
 1218              		.cfi_offset 14, -4
 1219 0002 82B0     		sub	sp, sp, #8	@,,
ARM GAS  /tmp/ccS6NUBW.s 			page 32


 1220              	.LCFI55:
 1221              		.cfi_def_cfa_offset 16
 1222 0004 00AF     		add	r7, sp, #0	@,,
 1223              	.LCFI56:
 1224              		.cfi_def_cfa_register 7
 1225 0006 7860     		str	r0, [r7, #4]	@ hpcd, hpcd
 545:Drivers/STM32L1xx_HAL_Driver/stm32l1xx_hal_pcd.cpp ****   __HAL_LOCK(hpcd); 
 1226              		.loc 1 545 0
 1227 0008 7B68     		ldr	r3, [r7, #4]	@ tmp137, hpcd
 1228 000a 93F8E831 		ldrb	r3, [r3, #488]	@ zero_extendqisi2	@ D.8138, hpcd_2(D)->Lock
 1229 000e 012B     		cmp	r3, #1	@ D.8138,
 1230 0010 02D1     		bne	.L39	@,
 1231              		.loc 1 545 0 is_stmt 0 discriminator 1
 1232 0012 4FF00203 		mov	r3, #2	@ D.8141,
 1233 0016 10E0     		b	.L40	@
 1234              	.L39:
 1235              		.loc 1 545 0 discriminator 2
 1236 0018 7B68     		ldr	r3, [r7, #4]	@ tmp138, hpcd
 1237 001a 4FF00102 		mov	r2, #1	@ tmp139,
 1238 001e 83F8E821 		strb	r2, [r3, #488]	@ tmp140, hpcd_2(D)->Lock
 546:Drivers/STM32L1xx_HAL_Driver/stm32l1xx_hal_pcd.cpp ****   
 547:Drivers/STM32L1xx_HAL_Driver/stm32l1xx_hal_pcd.cpp ****   /* Enabling DP Pull-Down bit to Connect internal pull-up on USB DP line */
 548:Drivers/STM32L1xx_HAL_Driver/stm32l1xx_hal_pcd.cpp ****    HAL_PCDEx_SetConnectionState (hpcd, 1);
 1239              		.loc 1 548 0 is_stmt 1 discriminator 2
 1240 0022 7868     		ldr	r0, [r7, #4]	@, hpcd
 1241 0024 4FF00101 		mov	r1, #1	@,
 1242 0028 FFF7FEFF 		bl	HAL_PCDEx_SetConnectionState	@
 549:Drivers/STM32L1xx_HAL_Driver/stm32l1xx_hal_pcd.cpp ****   
 550:Drivers/STM32L1xx_HAL_Driver/stm32l1xx_hal_pcd.cpp ****   __HAL_UNLOCK(hpcd); 
 1243              		.loc 1 550 0 discriminator 2
 1244 002c 7B68     		ldr	r3, [r7, #4]	@ tmp141, hpcd
 1245 002e 4FF00002 		mov	r2, #0	@ tmp142,
 1246 0032 83F8E821 		strb	r2, [r3, #488]	@ tmp143, hpcd_2(D)->Lock
 551:Drivers/STM32L1xx_HAL_Driver/stm32l1xx_hal_pcd.cpp ****   return HAL_OK;
 1247              		.loc 1 551 0 discriminator 2
 1248 0036 4FF00003 		mov	r3, #0	@ D.8141,
 1249              	.L40:
 552:Drivers/STM32L1xx_HAL_Driver/stm32l1xx_hal_pcd.cpp **** }
 1250              		.loc 1 552 0
 1251 003a 1846     		mov	r0, r3	@, <retval>
 1252 003c 07F10807 		add	r7, r7, #8	@,,
 1253 0040 BD46     		mov	sp, r7
 1254 0042 80BD     		pop	{r7, pc}
 1255              		.cfi_endproc
 1256              	.LFE74:
 1257              		.size	HAL_PCD_DevConnect, .-HAL_PCD_DevConnect
 1258              		.section	.text.HAL_PCD_DevDisconnect,"ax",%progbits
 1259              		.align	2
 1260              		.global	HAL_PCD_DevDisconnect
 1261              		.thumb
 1262              		.thumb_func
 1263              		.type	HAL_PCD_DevDisconnect, %function
 1264              	HAL_PCD_DevDisconnect:
 1265              	.LFB75:
 553:Drivers/STM32L1xx_HAL_Driver/stm32l1xx_hal_pcd.cpp **** 
 554:Drivers/STM32L1xx_HAL_Driver/stm32l1xx_hal_pcd.cpp **** /**
 555:Drivers/STM32L1xx_HAL_Driver/stm32l1xx_hal_pcd.cpp ****   * @brief  Disconnect the USB device 
ARM GAS  /tmp/ccS6NUBW.s 			page 33


 556:Drivers/STM32L1xx_HAL_Driver/stm32l1xx_hal_pcd.cpp ****   * @param  hpcd: PCD handle
 557:Drivers/STM32L1xx_HAL_Driver/stm32l1xx_hal_pcd.cpp ****   * @retval HAL status
 558:Drivers/STM32L1xx_HAL_Driver/stm32l1xx_hal_pcd.cpp ****   */
 559:Drivers/STM32L1xx_HAL_Driver/stm32l1xx_hal_pcd.cpp **** HAL_StatusTypeDef HAL_PCD_DevDisconnect(PCD_HandleTypeDef *hpcd)
 560:Drivers/STM32L1xx_HAL_Driver/stm32l1xx_hal_pcd.cpp **** {
 1266              		.loc 1 560 0
 1267              		.cfi_startproc
 1268              		@ args = 0, pretend = 0, frame = 8
 1269              		@ frame_needed = 1, uses_anonymous_args = 0
 1270 0000 80B5     		push	{r7, lr}	@
 1271              	.LCFI57:
 1272              		.cfi_def_cfa_offset 8
 1273              		.cfi_offset 7, -8
 1274              		.cfi_offset 14, -4
 1275 0002 82B0     		sub	sp, sp, #8	@,,
 1276              	.LCFI58:
 1277              		.cfi_def_cfa_offset 16
 1278 0004 00AF     		add	r7, sp, #0	@,,
 1279              	.LCFI59:
 1280              		.cfi_def_cfa_register 7
 1281 0006 7860     		str	r0, [r7, #4]	@ hpcd, hpcd
 561:Drivers/STM32L1xx_HAL_Driver/stm32l1xx_hal_pcd.cpp ****   __HAL_LOCK(hpcd); 
 1282              		.loc 1 561 0
 1283 0008 7B68     		ldr	r3, [r7, #4]	@ tmp137, hpcd
 1284 000a 93F8E831 		ldrb	r3, [r3, #488]	@ zero_extendqisi2	@ D.8129, hpcd_2(D)->Lock
 1285 000e 012B     		cmp	r3, #1	@ D.8129,
 1286 0010 02D1     		bne	.L42	@,
 1287              		.loc 1 561 0 is_stmt 0 discriminator 1
 1288 0012 4FF00203 		mov	r3, #2	@ D.8132,
 1289 0016 10E0     		b	.L43	@
 1290              	.L42:
 1291              		.loc 1 561 0 discriminator 2
 1292 0018 7B68     		ldr	r3, [r7, #4]	@ tmp138, hpcd
 1293 001a 4FF00102 		mov	r2, #1	@ tmp139,
 1294 001e 83F8E821 		strb	r2, [r3, #488]	@ tmp140, hpcd_2(D)->Lock
 562:Drivers/STM32L1xx_HAL_Driver/stm32l1xx_hal_pcd.cpp ****   
 563:Drivers/STM32L1xx_HAL_Driver/stm32l1xx_hal_pcd.cpp ****   /* Disable DP Pull-Down bit*/
 564:Drivers/STM32L1xx_HAL_Driver/stm32l1xx_hal_pcd.cpp ****   HAL_PCDEx_SetConnectionState (hpcd, 0);
 1295              		.loc 1 564 0 is_stmt 1 discriminator 2
 1296 0022 7868     		ldr	r0, [r7, #4]	@, hpcd
 1297 0024 4FF00001 		mov	r1, #0	@,
 1298 0028 FFF7FEFF 		bl	HAL_PCDEx_SetConnectionState	@
 565:Drivers/STM32L1xx_HAL_Driver/stm32l1xx_hal_pcd.cpp ****   
 566:Drivers/STM32L1xx_HAL_Driver/stm32l1xx_hal_pcd.cpp ****   __HAL_UNLOCK(hpcd); 
 1299              		.loc 1 566 0 discriminator 2
 1300 002c 7B68     		ldr	r3, [r7, #4]	@ tmp141, hpcd
 1301 002e 4FF00002 		mov	r2, #0	@ tmp142,
 1302 0032 83F8E821 		strb	r2, [r3, #488]	@ tmp143, hpcd_2(D)->Lock
 567:Drivers/STM32L1xx_HAL_Driver/stm32l1xx_hal_pcd.cpp ****   return HAL_OK;
 1303              		.loc 1 567 0 discriminator 2
 1304 0036 4FF00003 		mov	r3, #0	@ D.8132,
 1305              	.L43:
 568:Drivers/STM32L1xx_HAL_Driver/stm32l1xx_hal_pcd.cpp **** }
 1306              		.loc 1 568 0
 1307 003a 1846     		mov	r0, r3	@, <retval>
 1308 003c 07F10807 		add	r7, r7, #8	@,,
 1309 0040 BD46     		mov	sp, r7
ARM GAS  /tmp/ccS6NUBW.s 			page 34


 1310 0042 80BD     		pop	{r7, pc}
 1311              		.cfi_endproc
 1312              	.LFE75:
 1313              		.size	HAL_PCD_DevDisconnect, .-HAL_PCD_DevDisconnect
 1314              		.section	.text.HAL_PCD_SetAddress,"ax",%progbits
 1315              		.align	2
 1316              		.global	HAL_PCD_SetAddress
 1317              		.thumb
 1318              		.thumb_func
 1319              		.type	HAL_PCD_SetAddress, %function
 1320              	HAL_PCD_SetAddress:
 1321              	.LFB76:
 569:Drivers/STM32L1xx_HAL_Driver/stm32l1xx_hal_pcd.cpp **** 
 570:Drivers/STM32L1xx_HAL_Driver/stm32l1xx_hal_pcd.cpp **** /**
 571:Drivers/STM32L1xx_HAL_Driver/stm32l1xx_hal_pcd.cpp ****   * @brief  Set the USB Device address 
 572:Drivers/STM32L1xx_HAL_Driver/stm32l1xx_hal_pcd.cpp ****   * @param  hpcd: PCD handle
 573:Drivers/STM32L1xx_HAL_Driver/stm32l1xx_hal_pcd.cpp ****   * @param  address: new device address
 574:Drivers/STM32L1xx_HAL_Driver/stm32l1xx_hal_pcd.cpp ****   * @retval HAL status
 575:Drivers/STM32L1xx_HAL_Driver/stm32l1xx_hal_pcd.cpp ****   */
 576:Drivers/STM32L1xx_HAL_Driver/stm32l1xx_hal_pcd.cpp **** HAL_StatusTypeDef HAL_PCD_SetAddress(PCD_HandleTypeDef *hpcd, uint8_t address)
 577:Drivers/STM32L1xx_HAL_Driver/stm32l1xx_hal_pcd.cpp **** {
 1322              		.loc 1 577 0
 1323              		.cfi_startproc
 1324              		@ args = 0, pretend = 0, frame = 8
 1325              		@ frame_needed = 1, uses_anonymous_args = 0
 1326              		@ link register save eliminated.
 1327 0000 80B4     		push	{r7}	@
 1328              	.LCFI60:
 1329              		.cfi_def_cfa_offset 4
 1330              		.cfi_offset 7, -4
 1331 0002 83B0     		sub	sp, sp, #12	@,,
 1332              	.LCFI61:
 1333              		.cfi_def_cfa_offset 16
 1334 0004 00AF     		add	r7, sp, #0	@,,
 1335              	.LCFI62:
 1336              		.cfi_def_cfa_register 7
 1337 0006 7860     		str	r0, [r7, #4]	@ hpcd, hpcd
 1338 0008 0B46     		mov	r3, r1	@ tmp138, address
 1339 000a FB70     		strb	r3, [r7, #3]	@ tmp139, address
 578:Drivers/STM32L1xx_HAL_Driver/stm32l1xx_hal_pcd.cpp ****    __HAL_LOCK(hpcd); 
 1340              		.loc 1 578 0
 1341 000c 7B68     		ldr	r3, [r7, #4]	@ tmp140, hpcd
 1342 000e 93F8E831 		ldrb	r3, [r3, #488]	@ zero_extendqisi2	@ D.8116, hpcd_2(D)->Lock
 1343 0012 012B     		cmp	r3, #1	@ D.8116,
 1344 0014 02D1     		bne	.L45	@,
 1345              		.loc 1 578 0 is_stmt 0 discriminator 1
 1346 0016 4FF00203 		mov	r3, #2	@ D.8119,
 1347 001a 19E0     		b	.L46	@
 1348              	.L45:
 1349              		.loc 1 578 0 discriminator 2
 1350 001c 7B68     		ldr	r3, [r7, #4]	@ tmp141, hpcd
 1351 001e 4FF00102 		mov	r2, #1	@ tmp142,
 1352 0022 83F8E821 		strb	r2, [r3, #488]	@ tmp143, hpcd_2(D)->Lock
 579:Drivers/STM32L1xx_HAL_Driver/stm32l1xx_hal_pcd.cpp **** 
 580:Drivers/STM32L1xx_HAL_Driver/stm32l1xx_hal_pcd.cpp ****    if(address == 0) 
 1353              		.loc 1 580 0 is_stmt 1 discriminator 2
 1354 0026 FB78     		ldrb	r3, [r7, #3]	@ zero_extendqisi2	@ tmp144, address
ARM GAS  /tmp/ccS6NUBW.s 			page 35


 1355 0028 002B     		cmp	r3, #0	@ tmp144,
 1356 002a 06D1     		bne	.L47	@,
 581:Drivers/STM32L1xx_HAL_Driver/stm32l1xx_hal_pcd.cpp ****    {
 582:Drivers/STM32L1xx_HAL_Driver/stm32l1xx_hal_pcd.cpp ****      /* set device address and enable function */
 583:Drivers/STM32L1xx_HAL_Driver/stm32l1xx_hal_pcd.cpp ****      hpcd->Instance->DADDR = USB_DADDR_EF;
 1357              		.loc 1 583 0
 1358 002c 7B68     		ldr	r3, [r7, #4]	@ tmp145, hpcd
 1359 002e 1B68     		ldr	r3, [r3, #0]	@ D.8122, hpcd_2(D)->Instance
 1360 0030 4FF08002 		mov	r2, #128	@ tmp147,
 1361 0034 A3F84C20 		strh	r2, [r3, #76]	@ movhi	@ tmp146, D.8122_6->DADDR
 1362 0038 03E0     		b	.L48	@
 1363              	.L47:
 584:Drivers/STM32L1xx_HAL_Driver/stm32l1xx_hal_pcd.cpp ****    }
 585:Drivers/STM32L1xx_HAL_Driver/stm32l1xx_hal_pcd.cpp ****    else /* USB Address will be applied later */
 586:Drivers/STM32L1xx_HAL_Driver/stm32l1xx_hal_pcd.cpp ****    {
 587:Drivers/STM32L1xx_HAL_Driver/stm32l1xx_hal_pcd.cpp ****      hpcd->USB_Address = address;
 1364              		.loc 1 587 0
 1365 003a 7B68     		ldr	r3, [r7, #4]	@ tmp148, hpcd
 1366 003c FA78     		ldrb	r2, [r7, #3]	@ tmp149, address
 1367 003e 83F82420 		strb	r2, [r3, #36]	@ tmp149, hpcd_2(D)->USB_Address
 1368              	.L48:
 588:Drivers/STM32L1xx_HAL_Driver/stm32l1xx_hal_pcd.cpp ****    }
 589:Drivers/STM32L1xx_HAL_Driver/stm32l1xx_hal_pcd.cpp **** 
 590:Drivers/STM32L1xx_HAL_Driver/stm32l1xx_hal_pcd.cpp ****   __HAL_UNLOCK(hpcd);   
 1369              		.loc 1 590 0
 1370 0042 7B68     		ldr	r3, [r7, #4]	@ tmp150, hpcd
 1371 0044 4FF00002 		mov	r2, #0	@ tmp151,
 1372 0048 83F8E821 		strb	r2, [r3, #488]	@ tmp152, hpcd_2(D)->Lock
 591:Drivers/STM32L1xx_HAL_Driver/stm32l1xx_hal_pcd.cpp ****   return HAL_OK;
 1373              		.loc 1 591 0
 1374 004c 4FF00003 		mov	r3, #0	@ D.8119,
 1375              	.L46:
 592:Drivers/STM32L1xx_HAL_Driver/stm32l1xx_hal_pcd.cpp **** }
 1376              		.loc 1 592 0
 1377 0050 1846     		mov	r0, r3	@, <retval>
 1378 0052 07F10C07 		add	r7, r7, #12	@,,
 1379 0056 BD46     		mov	sp, r7
 1380 0058 80BC     		pop	{r7}
 1381 005a 7047     		bx	lr
 1382              		.cfi_endproc
 1383              	.LFE76:
 1384              		.size	HAL_PCD_SetAddress, .-HAL_PCD_SetAddress
 1385              		.section	.text.HAL_PCD_EP_Open,"ax",%progbits
 1386              		.align	2
 1387              		.global	HAL_PCD_EP_Open
 1388              		.thumb
 1389              		.thumb_func
 1390              		.type	HAL_PCD_EP_Open, %function
 1391              	HAL_PCD_EP_Open:
 1392              	.LFB77:
 593:Drivers/STM32L1xx_HAL_Driver/stm32l1xx_hal_pcd.cpp **** /**
 594:Drivers/STM32L1xx_HAL_Driver/stm32l1xx_hal_pcd.cpp ****   * @brief  Open and configure an endpoint
 595:Drivers/STM32L1xx_HAL_Driver/stm32l1xx_hal_pcd.cpp ****   * @param  hpcd: PCD handle
 596:Drivers/STM32L1xx_HAL_Driver/stm32l1xx_hal_pcd.cpp ****   * @param  ep_addr: endpoint address
 597:Drivers/STM32L1xx_HAL_Driver/stm32l1xx_hal_pcd.cpp ****   * @param  ep_mps: endpoint max packert size
 598:Drivers/STM32L1xx_HAL_Driver/stm32l1xx_hal_pcd.cpp ****   * @param  ep_type: endpoint type   
 599:Drivers/STM32L1xx_HAL_Driver/stm32l1xx_hal_pcd.cpp ****   * @retval HAL status
ARM GAS  /tmp/ccS6NUBW.s 			page 36


 600:Drivers/STM32L1xx_HAL_Driver/stm32l1xx_hal_pcd.cpp ****   */
 601:Drivers/STM32L1xx_HAL_Driver/stm32l1xx_hal_pcd.cpp **** HAL_StatusTypeDef HAL_PCD_EP_Open(PCD_HandleTypeDef *hpcd, uint8_t ep_addr, uint16_t ep_mps, uint8_
 602:Drivers/STM32L1xx_HAL_Driver/stm32l1xx_hal_pcd.cpp **** {
 1393              		.loc 1 602 0
 1394              		.cfi_startproc
 1395              		@ args = 0, pretend = 0, frame = 24
 1396              		@ frame_needed = 1, uses_anonymous_args = 0
 1397              		@ link register save eliminated.
 1398 0000 90B4     		push	{r4, r7}	@
 1399              	.LCFI63:
 1400              		.cfi_def_cfa_offset 8
 1401              		.cfi_offset 4, -8
 1402              		.cfi_offset 7, -4
 1403 0002 86B0     		sub	sp, sp, #24	@,,
 1404              	.LCFI64:
 1405              		.cfi_def_cfa_offset 32
 1406 0004 00AF     		add	r7, sp, #0	@,,
 1407              	.LCFI65:
 1408              		.cfi_def_cfa_register 7
 1409 0006 7860     		str	r0, [r7, #4]	@ hpcd, hpcd
 1410 0008 F970     		strb	r1, [r7, #3]	@ tmp659, ep_addr
 1411 000a 3A80     		strh	r2, [r7, #0]	@ movhi	@ tmp661, ep_mps
 1412 000c BB70     		strb	r3, [r7, #2]	@ tmp663, ep_type
 1413              	.LBB4:
 603:Drivers/STM32L1xx_HAL_Driver/stm32l1xx_hal_pcd.cpp ****   HAL_StatusTypeDef  ret = HAL_OK;
 1414              		.loc 1 603 0
 1415 000e 4FF00003 		mov	r3, #0	@ tmp664,
 1416 0012 7B74     		strb	r3, [r7, #17]	@ tmp665, ret
 604:Drivers/STM32L1xx_HAL_Driver/stm32l1xx_hal_pcd.cpp ****   PCD_EPTypeDef *ep;
 605:Drivers/STM32L1xx_HAL_Driver/stm32l1xx_hal_pcd.cpp ****   
 606:Drivers/STM32L1xx_HAL_Driver/stm32l1xx_hal_pcd.cpp ****   if ((ep_addr & 0x80) == 0x80)
 1417              		.loc 1 606 0
 1418 0014 FB78     		ldrb	r3, [r7, #3]	@ zero_extendqisi2	@ ep_addr.40, ep_addr
 1419 0016 5BB2     		sxtb	r3, r3	@ tmp666, ep_addr.40
 1420 0018 002B     		cmp	r3, #0	@ tmp666,
 1421 001a 0EDA     		bge	.L50	@,
 607:Drivers/STM32L1xx_HAL_Driver/stm32l1xx_hal_pcd.cpp ****   {
 608:Drivers/STM32L1xx_HAL_Driver/stm32l1xx_hal_pcd.cpp ****     ep = &hpcd->IN_ep[ep_addr & 0x7F];
 1422              		.loc 1 608 0
 1423 001c FB78     		ldrb	r3, [r7, #3]	@ zero_extendqisi2	@ D.7532, ep_addr
 1424 001e 03F07F02 		and	r2, r3, #127	@ D.7533, D.7532,
 1425 0022 1346     		mov	r3, r2	@ tmp667, D.7533
 1426 0024 4FEAC303 		lsl	r3, r3, #3	@ tmp667, tmp667,
 1427 0028 9B1A     		subs	r3, r3, r2	@ tmp667, tmp667, D.7533
 1428 002a 4FEA8303 		lsl	r3, r3, #2	@ tmp668, tmp667,
 1429 002e 03F12803 		add	r3, r3, #40	@ tmp669, tmp667,
 1430 0032 7A68     		ldr	r2, [r7, #4]	@ tmp671, hpcd
 1431 0034 D318     		adds	r3, r2, r3	@ tmp670, tmp671, tmp669
 1432 0036 7B61     		str	r3, [r7, #20]	@ tmp670, ep
 1433 0038 0DE0     		b	.L51	@
 1434              	.L50:
 609:Drivers/STM32L1xx_HAL_Driver/stm32l1xx_hal_pcd.cpp ****   }
 610:Drivers/STM32L1xx_HAL_Driver/stm32l1xx_hal_pcd.cpp ****   else
 611:Drivers/STM32L1xx_HAL_Driver/stm32l1xx_hal_pcd.cpp ****   {
 612:Drivers/STM32L1xx_HAL_Driver/stm32l1xx_hal_pcd.cpp ****     ep = &hpcd->OUT_ep[ep_addr & 0x7F];
 1435              		.loc 1 612 0
 1436 003a FB78     		ldrb	r3, [r7, #3]	@ zero_extendqisi2	@ D.7535, ep_addr
ARM GAS  /tmp/ccS6NUBW.s 			page 37


 1437 003c 03F07F02 		and	r2, r3, #127	@ D.7536, D.7535,
 1438 0040 1346     		mov	r3, r2	@ tmp672, D.7536
 1439 0042 4FEAC303 		lsl	r3, r3, #3	@ tmp672, tmp672,
 1440 0046 9B1A     		subs	r3, r3, r2	@ tmp672, tmp672, D.7536
 1441 0048 4FEA8303 		lsl	r3, r3, #2	@ tmp673, tmp672,
 1442 004c 03F58473 		add	r3, r3, #264	@ tmp674, tmp672,
 1443 0050 7A68     		ldr	r2, [r7, #4]	@ tmp676, hpcd
 1444 0052 D318     		adds	r3, r2, r3	@ tmp675, tmp676, tmp674
 1445 0054 7B61     		str	r3, [r7, #20]	@ tmp675, ep
 1446              	.L51:
 613:Drivers/STM32L1xx_HAL_Driver/stm32l1xx_hal_pcd.cpp ****   }
 614:Drivers/STM32L1xx_HAL_Driver/stm32l1xx_hal_pcd.cpp ****   ep->num   = ep_addr & 0x7F;
 1447              		.loc 1 614 0
 1448 0056 FB78     		ldrb	r3, [r7, #3]	@ tmp677, ep_addr
 1449 0058 03F07F03 		and	r3, r3, #127	@ tmp678, tmp677,
 1450 005c DAB2     		uxtb	r2, r3	@ D.7537, tmp678
 1451 005e 7B69     		ldr	r3, [r7, #20]	@ tmp679, ep
 1452 0060 1A70     		strb	r2, [r3, #0]	@ tmp680, ep_1->num
 615:Drivers/STM32L1xx_HAL_Driver/stm32l1xx_hal_pcd.cpp ****   
 616:Drivers/STM32L1xx_HAL_Driver/stm32l1xx_hal_pcd.cpp ****   ep->is_in = (0x80 & ep_addr) != 0;
 1453              		.loc 1 616 0
 1454 0062 FB78     		ldrb	r3, [r7, #3]	@ zero_extendqisi2	@ ep_addr.41, ep_addr
 1455 0064 4FEAD313 		lsr	r3, r3, #7	@ tmp682, ep_addr.41,
 1456 0068 DBB2     		uxtb	r3, r3	@ D.7539, tmp682
 1457 006a 1A46     		mov	r2, r3	@ D.7540, D.7539
 1458 006c 7B69     		ldr	r3, [r7, #20]	@ tmp683, ep
 1459 006e 5A70     		strb	r2, [r3, #1]	@ tmp684, ep_1->is_in
 617:Drivers/STM32L1xx_HAL_Driver/stm32l1xx_hal_pcd.cpp ****   ep->maxpacket = ep_mps;
 1460              		.loc 1 617 0
 1461 0070 3A88     		ldrh	r2, [r7, #0]	@ D.7541, ep_mps
 1462 0072 7B69     		ldr	r3, [r7, #20]	@ tmp685, ep
 1463 0074 DA60     		str	r2, [r3, #12]	@ D.7541, ep_1->maxpacket
 618:Drivers/STM32L1xx_HAL_Driver/stm32l1xx_hal_pcd.cpp ****   ep->type = ep_type;
 1464              		.loc 1 618 0
 1465 0076 7B69     		ldr	r3, [r7, #20]	@ tmp686, ep
 1466 0078 BA78     		ldrb	r2, [r7, #2]	@ tmp687, ep_type
 1467 007a DA70     		strb	r2, [r3, #3]	@ tmp687, ep_1->type
 619:Drivers/STM32L1xx_HAL_Driver/stm32l1xx_hal_pcd.cpp ****   
 620:Drivers/STM32L1xx_HAL_Driver/stm32l1xx_hal_pcd.cpp ****   __HAL_LOCK(hpcd); 
 1468              		.loc 1 620 0
 1469 007c 7B68     		ldr	r3, [r7, #4]	@ tmp688, hpcd
 1470 007e 93F8E831 		ldrb	r3, [r3, #488]	@ zero_extendqisi2	@ D.7544, hpcd_10(D)->Lock
 1471 0082 012B     		cmp	r3, #1	@ D.7544,
 1472 0084 02D1     		bne	.L52	@,
 1473              		.loc 1 620 0 is_stmt 0 discriminator 1
 1474 0086 4FF00203 		mov	r3, #2	@ D.7547,
 1475 008a A3E3     		b	.L53	@
 1476              	.L52:
 1477              		.loc 1 620 0 discriminator 2
 1478 008c 7B68     		ldr	r3, [r7, #4]	@ tmp689, hpcd
 1479 008e 4FF00102 		mov	r2, #1	@ tmp690,
 1480 0092 83F8E821 		strb	r2, [r3, #488]	@ tmp691, hpcd_10(D)->Lock
 621:Drivers/STM32L1xx_HAL_Driver/stm32l1xx_hal_pcd.cpp **** 
 622:Drivers/STM32L1xx_HAL_Driver/stm32l1xx_hal_pcd.cpp **** /* initialize Endpoint */
 623:Drivers/STM32L1xx_HAL_Driver/stm32l1xx_hal_pcd.cpp ****   switch (ep->type)
 1481              		.loc 1 623 0 is_stmt 1 discriminator 2
 1482 0096 7B69     		ldr	r3, [r7, #20]	@ tmp692, ep
ARM GAS  /tmp/ccS6NUBW.s 			page 38


 1483 0098 DB78     		ldrb	r3, [r3, #3]	@ zero_extendqisi2	@ D.7549, ep_1->type
 1484 009a 032B     		cmp	r3, #3	@ D.7550,
 1485 009c 77D8     		bhi	.L75	@
 1486 009e 01A2     		adr	r2, .L59	@,
 1487 00a0 52F823F0 		ldr	pc, [r2, r3, lsl #2]	@, D.7550
 1488              		.align	2
 1489              	.L59:
 1490 00a4 B5000000 		.word	.L55+1
 1491 00a8 57010000 		.word	.L56+1
 1492 00ac ED000000 		.word	.L57+1
 1493 00b0 1F010000 		.word	.L58+1
 1494              	.L55:
 624:Drivers/STM32L1xx_HAL_Driver/stm32l1xx_hal_pcd.cpp ****   {
 625:Drivers/STM32L1xx_HAL_Driver/stm32l1xx_hal_pcd.cpp ****   case PCD_EP_TYPE_CTRL:
 626:Drivers/STM32L1xx_HAL_Driver/stm32l1xx_hal_pcd.cpp ****     PCD_SET_EPTYPE(hpcd->Instance, ep->num, USB_EP_CONTROL);
 1495              		.loc 1 626 0
 1496 00b4 7B68     		ldr	r3, [r7, #4]	@ tmp693, hpcd
 1497 00b6 1B68     		ldr	r3, [r3, #0]	@ D.7551, hpcd_10(D)->Instance
 1498 00b8 1A46     		mov	r2, r3	@ D.7552, D.7551
 1499 00ba 7B69     		ldr	r3, [r7, #20]	@ tmp694, ep
 1500 00bc 1B78     		ldrb	r3, [r3, #0]	@ zero_extendqisi2	@ D.7553, ep_1->num
 1501 00be 4FEA8303 		lsl	r3, r3, #2	@ D.7555, D.7554,
 1502 00c2 D218     		adds	r2, r2, r3	@ D.7557, D.7552, D.7556
 1503 00c4 7B68     		ldr	r3, [r7, #4]	@ tmp695, hpcd
 1504 00c6 1B68     		ldr	r3, [r3, #0]	@ D.7558, hpcd_10(D)->Instance
 1505 00c8 1946     		mov	r1, r3	@ D.7559, D.7558
 1506 00ca 7B69     		ldr	r3, [r7, #20]	@ tmp696, ep
 1507 00cc 1B78     		ldrb	r3, [r3, #0]	@ zero_extendqisi2	@ D.7560, ep_1->num
 1508 00ce 4FEA8303 		lsl	r3, r3, #2	@ D.7562, D.7561,
 1509 00d2 CB18     		adds	r3, r1, r3	@ D.7564, D.7559, D.7563
 1510 00d4 1B88     		ldrh	r3, [r3, #0]	@ movhi	@ tmp697, *D.7564_39
 1511 00d6 9BB2     		uxth	r3, r3	@ D.7565, tmp697
 1512 00d8 23F4EC43 		bic	r3, r3, #30208	@ tmp698, D.7565,
 1513 00dc 23F07003 		bic	r3, r3, #112	@ tmp698, tmp698,
 1514 00e0 9BB2     		uxth	r3, r3	@ D.7566, tmp698
 1515 00e2 43F40073 		orr	r3, r3, #512	@ tmp699, D.7566,
 1516 00e6 9BB2     		uxth	r3, r3	@ D.7567, tmp699
 1517 00e8 1380     		strh	r3, [r2, #0]	@ movhi	@ tmp700, *D.7557_32
 627:Drivers/STM32L1xx_HAL_Driver/stm32l1xx_hal_pcd.cpp ****     break;
 1518              		.loc 1 627 0
 1519 00ea 51E0     		b	.L60	@
 1520              	.L57:
 628:Drivers/STM32L1xx_HAL_Driver/stm32l1xx_hal_pcd.cpp ****   case PCD_EP_TYPE_BULK:
 629:Drivers/STM32L1xx_HAL_Driver/stm32l1xx_hal_pcd.cpp ****     PCD_SET_EPTYPE(hpcd->Instance, ep->num, USB_EP_BULK);
 1521              		.loc 1 629 0
 1522 00ec 7B68     		ldr	r3, [r7, #4]	@ tmp701, hpcd
 1523 00ee 1B68     		ldr	r3, [r3, #0]	@ D.7568, hpcd_10(D)->Instance
 1524 00f0 1A46     		mov	r2, r3	@ D.7569, D.7568
 1525 00f2 7B69     		ldr	r3, [r7, #20]	@ tmp702, ep
 1526 00f4 1B78     		ldrb	r3, [r3, #0]	@ zero_extendqisi2	@ D.7570, ep_1->num
 1527 00f6 4FEA8303 		lsl	r3, r3, #2	@ D.7572, D.7571,
 1528 00fa D218     		adds	r2, r2, r3	@ D.7574, D.7569, D.7573
 1529 00fc 7B68     		ldr	r3, [r7, #4]	@ tmp703, hpcd
 1530 00fe 1B68     		ldr	r3, [r3, #0]	@ D.7575, hpcd_10(D)->Instance
 1531 0100 1946     		mov	r1, r3	@ D.7576, D.7575
 1532 0102 7B69     		ldr	r3, [r7, #20]	@ tmp704, ep
 1533 0104 1B78     		ldrb	r3, [r3, #0]	@ zero_extendqisi2	@ D.7577, ep_1->num
ARM GAS  /tmp/ccS6NUBW.s 			page 39


 1534 0106 4FEA8303 		lsl	r3, r3, #2	@ D.7579, D.7578,
 1535 010a CB18     		adds	r3, r1, r3	@ D.7581, D.7576, D.7580
 1536 010c 1B88     		ldrh	r3, [r3, #0]	@ movhi	@ tmp705, *D.7581_56
 1537 010e 9BB2     		uxth	r3, r3	@ D.7582, tmp705
 1538 0110 23F4EC43 		bic	r3, r3, #30208	@ tmp706, D.7582,
 1539 0114 23F07003 		bic	r3, r3, #112	@ tmp706, tmp706,
 1540 0118 9BB2     		uxth	r3, r3	@ D.7583, tmp706
 1541 011a 1380     		strh	r3, [r2, #0]	@ movhi	@ tmp707, *D.7574_49
 630:Drivers/STM32L1xx_HAL_Driver/stm32l1xx_hal_pcd.cpp ****     break;
 1542              		.loc 1 630 0
 1543 011c 38E0     		b	.L60	@
 1544              	.L58:
 631:Drivers/STM32L1xx_HAL_Driver/stm32l1xx_hal_pcd.cpp ****   case PCD_EP_TYPE_INTR:
 632:Drivers/STM32L1xx_HAL_Driver/stm32l1xx_hal_pcd.cpp ****     PCD_SET_EPTYPE(hpcd->Instance, ep->num, USB_EP_INTERRUPT);
 1545              		.loc 1 632 0
 1546 011e 7B68     		ldr	r3, [r7, #4]	@ tmp708, hpcd
 1547 0120 1B68     		ldr	r3, [r3, #0]	@ D.7584, hpcd_10(D)->Instance
 1548 0122 1A46     		mov	r2, r3	@ D.7585, D.7584
 1549 0124 7B69     		ldr	r3, [r7, #20]	@ tmp709, ep
 1550 0126 1B78     		ldrb	r3, [r3, #0]	@ zero_extendqisi2	@ D.7586, ep_1->num
 1551 0128 4FEA8303 		lsl	r3, r3, #2	@ D.7588, D.7587,
 1552 012c D218     		adds	r2, r2, r3	@ D.7590, D.7585, D.7589
 1553 012e 7B68     		ldr	r3, [r7, #4]	@ tmp710, hpcd
 1554 0130 1B68     		ldr	r3, [r3, #0]	@ D.7591, hpcd_10(D)->Instance
 1555 0132 1946     		mov	r1, r3	@ D.7592, D.7591
 1556 0134 7B69     		ldr	r3, [r7, #20]	@ tmp711, ep
 1557 0136 1B78     		ldrb	r3, [r3, #0]	@ zero_extendqisi2	@ D.7593, ep_1->num
 1558 0138 4FEA8303 		lsl	r3, r3, #2	@ D.7595, D.7594,
 1559 013c CB18     		adds	r3, r1, r3	@ D.7597, D.7592, D.7596
 1560 013e 1B88     		ldrh	r3, [r3, #0]	@ movhi	@ tmp712, *D.7597_72
 1561 0140 9BB2     		uxth	r3, r3	@ D.7598, tmp712
 1562 0142 23F4EC43 		bic	r3, r3, #30208	@ tmp713, D.7598,
 1563 0146 23F07003 		bic	r3, r3, #112	@ tmp713, tmp713,
 1564 014a 9BB2     		uxth	r3, r3	@ D.7599, tmp713
 1565 014c 43F4C063 		orr	r3, r3, #1536	@ tmp714, D.7599,
 1566 0150 9BB2     		uxth	r3, r3	@ D.7600, tmp714
 1567 0152 1380     		strh	r3, [r2, #0]	@ movhi	@ tmp715, *D.7590_65
 633:Drivers/STM32L1xx_HAL_Driver/stm32l1xx_hal_pcd.cpp ****     break;
 1568              		.loc 1 633 0
 1569 0154 1CE0     		b	.L60	@
 1570              	.L56:
 634:Drivers/STM32L1xx_HAL_Driver/stm32l1xx_hal_pcd.cpp ****   case PCD_EP_TYPE_ISOC:
 635:Drivers/STM32L1xx_HAL_Driver/stm32l1xx_hal_pcd.cpp ****     PCD_SET_EPTYPE(hpcd->Instance, ep->num, USB_EP_ISOCHRONOUS);
 1571              		.loc 1 635 0
 1572 0156 7B68     		ldr	r3, [r7, #4]	@ tmp716, hpcd
 1573 0158 1B68     		ldr	r3, [r3, #0]	@ D.7601, hpcd_10(D)->Instance
 1574 015a 1A46     		mov	r2, r3	@ D.7602, D.7601
 1575 015c 7B69     		ldr	r3, [r7, #20]	@ tmp717, ep
 1576 015e 1B78     		ldrb	r3, [r3, #0]	@ zero_extendqisi2	@ D.7603, ep_1->num
 1577 0160 4FEA8303 		lsl	r3, r3, #2	@ D.7605, D.7604,
 1578 0164 D218     		adds	r2, r2, r3	@ D.7607, D.7602, D.7606
 1579 0166 7B68     		ldr	r3, [r7, #4]	@ tmp718, hpcd
 1580 0168 1B68     		ldr	r3, [r3, #0]	@ D.7608, hpcd_10(D)->Instance
 1581 016a 1946     		mov	r1, r3	@ D.7609, D.7608
 1582 016c 7B69     		ldr	r3, [r7, #20]	@ tmp719, ep
 1583 016e 1B78     		ldrb	r3, [r3, #0]	@ zero_extendqisi2	@ D.7610, ep_1->num
 1584 0170 4FEA8303 		lsl	r3, r3, #2	@ D.7612, D.7611,
ARM GAS  /tmp/ccS6NUBW.s 			page 40


 1585 0174 CB18     		adds	r3, r1, r3	@ D.7614, D.7609, D.7613
 1586 0176 1B88     		ldrh	r3, [r3, #0]	@ movhi	@ tmp720, *D.7614_89
 1587 0178 9BB2     		uxth	r3, r3	@ D.7615, tmp720
 1588 017a 23F4EC43 		bic	r3, r3, #30208	@ tmp721, D.7615,
 1589 017e 23F07003 		bic	r3, r3, #112	@ tmp721, tmp721,
 1590 0182 9BB2     		uxth	r3, r3	@ D.7616, tmp721
 1591 0184 43F48063 		orr	r3, r3, #1024	@ tmp722, D.7616,
 1592 0188 9BB2     		uxth	r3, r3	@ D.7617, tmp722
 1593 018a 1380     		strh	r3, [r2, #0]	@ movhi	@ tmp723, *D.7607_82
 636:Drivers/STM32L1xx_HAL_Driver/stm32l1xx_hal_pcd.cpp ****     break;
 1594              		.loc 1 636 0
 1595 018c 00E0     		b	.L60	@
 1596              	.L75:
 637:Drivers/STM32L1xx_HAL_Driver/stm32l1xx_hal_pcd.cpp ****   default:
 638:Drivers/STM32L1xx_HAL_Driver/stm32l1xx_hal_pcd.cpp ****       break;
 1597              		.loc 1 638 0
 1598 018e 00BF     		nop
 1599              	.L60:
 639:Drivers/STM32L1xx_HAL_Driver/stm32l1xx_hal_pcd.cpp ****   } 
 640:Drivers/STM32L1xx_HAL_Driver/stm32l1xx_hal_pcd.cpp ****   
 641:Drivers/STM32L1xx_HAL_Driver/stm32l1xx_hal_pcd.cpp ****   PCD_SET_EP_ADDRESS(hpcd->Instance, ep->num, ep->num);
 1600              		.loc 1 641 0
 1601 0190 7B68     		ldr	r3, [r7, #4]	@ tmp724, hpcd
 1602 0192 1B68     		ldr	r3, [r3, #0]	@ D.7618, hpcd_10(D)->Instance
 1603 0194 1A46     		mov	r2, r3	@ D.7619, D.7618
 1604 0196 7B69     		ldr	r3, [r7, #20]	@ tmp725, ep
 1605 0198 1B78     		ldrb	r3, [r3, #0]	@ zero_extendqisi2	@ D.7620, ep_1->num
 1606 019a 4FEA8303 		lsl	r3, r3, #2	@ D.7622, D.7621,
 1607 019e D218     		adds	r2, r2, r3	@ D.7624, D.7619, D.7623
 1608 01a0 7B68     		ldr	r3, [r7, #4]	@ tmp726, hpcd
 1609 01a2 1B68     		ldr	r3, [r3, #0]	@ D.7625, hpcd_10(D)->Instance
 1610 01a4 1946     		mov	r1, r3	@ D.7626, D.7625
 1611 01a6 7B69     		ldr	r3, [r7, #20]	@ tmp727, ep
 1612 01a8 1B78     		ldrb	r3, [r3, #0]	@ zero_extendqisi2	@ D.7627, ep_1->num
 1613 01aa 4FEA8303 		lsl	r3, r3, #2	@ D.7629, D.7628,
 1614 01ae CB18     		adds	r3, r1, r3	@ D.7631, D.7626, D.7630
 1615 01b0 1B88     		ldrh	r3, [r3, #0]	@ movhi	@ tmp728, *D.7631_106
 1616 01b2 99B2     		uxth	r1, r3	@ D.7632, tmp728
 1617 01b4 40F60F73 		movw	r3, #3855	@ tmp729,
 1618 01b8 0B40     		ands	r3, r3, r1	@, tmp729, tmp729, D.7632
 1619 01ba 99B2     		uxth	r1, r3	@ D.7633, tmp729
 1620 01bc 7B69     		ldr	r3, [r7, #20]	@ tmp730, ep
 1621 01be 1B78     		ldrb	r3, [r3, #0]	@ zero_extendqisi2	@ D.7634, ep_1->num
 1622 01c0 0B43     		orrs	r3, r3, r1	@, tmp731, D.7635, D.7633
 1623 01c2 99B2     		uxth	r1, r3	@ D.7636, tmp731
 1624 01c4 48F28003 		movw	r3, #32896	@ tmp732,
 1625 01c8 CFF6FF73 		movt	r3, 65535	@ tmp732,
 1626 01cc 0B43     		orrs	r3, r3, r1	@, tmp732, tmp732, D.7636
 1627 01ce 9BB2     		uxth	r3, r3	@ D.7637, tmp732
 1628 01d0 1380     		strh	r3, [r2, #0]	@ movhi	@ tmp733, *D.7624_99
 1629              	.LBB5:
 642:Drivers/STM32L1xx_HAL_Driver/stm32l1xx_hal_pcd.cpp ****   
 643:Drivers/STM32L1xx_HAL_Driver/stm32l1xx_hal_pcd.cpp ****   if (ep->doublebuffer == 0) 
 1630              		.loc 1 643 0
 1631 01d2 7B69     		ldr	r3, [r7, #20]	@ tmp734, ep
 1632 01d4 9B7A     		ldrb	r3, [r3, #10]	@ zero_extendqisi2	@ D.7638, ep_1->doublebuffer
 1633 01d6 002B     		cmp	r3, #0	@ D.7638,
ARM GAS  /tmp/ccS6NUBW.s 			page 41


 1634 01d8 40F02981 		bne	.L61	@,
 1635              	.LBB6:
 1636              	.LBB7:
 644:Drivers/STM32L1xx_HAL_Driver/stm32l1xx_hal_pcd.cpp ****   {
 645:Drivers/STM32L1xx_HAL_Driver/stm32l1xx_hal_pcd.cpp ****     if (ep->is_in)
 1637              		.loc 1 645 0
 1638 01dc 7B69     		ldr	r3, [r7, #20]	@ tmp735, ep
 1639 01de 5B78     		ldrb	r3, [r3, #1]	@ zero_extendqisi2	@ D.7641, ep_1->is_in
 1640 01e0 002B     		cmp	r3, #0	@ D.7641,
 1641 01e2 69D0     		beq	.L62	@,
 1642              	.LBB8:
 646:Drivers/STM32L1xx_HAL_Driver/stm32l1xx_hal_pcd.cpp ****     {
 647:Drivers/STM32L1xx_HAL_Driver/stm32l1xx_hal_pcd.cpp ****       /*Set the endpoint Transmit buffer address */
 648:Drivers/STM32L1xx_HAL_Driver/stm32l1xx_hal_pcd.cpp ****       PCD_SET_EP_TX_ADDRESS(hpcd->Instance, ep->num, ep->pmaadress);
 1643              		.loc 1 648 0
 1644 01e4 7B68     		ldr	r3, [r7, #4]	@ tmp736, hpcd
 1645 01e6 1B68     		ldr	r3, [r3, #0]	@ D.7644, hpcd_10(D)->Instance
 1646 01e8 B3F85030 		ldrh	r3, [r3, #80]	@ movhi	@ tmp738, D.7644_115->BTABLE
 1647 01ec 9BB2     		uxth	r3, r3	@ D.7645, tmp738
 1648 01ee 1A46     		mov	r2, r3	@ D.7646, D.7645
 1649 01f0 7B69     		ldr	r3, [r7, #20]	@ tmp739, ep
 1650 01f2 1B78     		ldrb	r3, [r3, #0]	@ zero_extendqisi2	@ D.7647, ep_1->num
 1651 01f4 4FEAC303 		lsl	r3, r3, #3	@ D.7649, D.7648,
 1652 01f8 D318     		adds	r3, r2, r3	@ D.7650, D.7646, D.7649
 1653 01fa 4FEA4303 		lsl	r3, r3, #1	@ D.7651, D.7650,
 1654 01fe 1A46     		mov	r2, r3	@ D.7652, D.7651
 1655 0200 7B68     		ldr	r3, [r7, #4]	@ tmp740, hpcd
 1656 0202 1B68     		ldr	r3, [r3, #0]	@ D.7653, hpcd_10(D)->Instance
 1657 0204 D318     		adds	r3, r2, r3	@ D.7655, D.7652, D.7654
 1658 0206 03F58063 		add	r3, r3, #1024	@ D.7656, D.7655,
 1659 020a 7A69     		ldr	r2, [r7, #20]	@ tmp741, ep
 1660 020c 9288     		ldrh	r2, [r2, #4]	@ D.7658, ep_1->pmaadress
 1661 020e 22F00102 		bic	r2, r2, #1	@ D.7660, D.7659,
 1662 0212 1A60     		str	r2, [r3, #0]	@ D.7660, *D.7657_128
 649:Drivers/STM32L1xx_HAL_Driver/stm32l1xx_hal_pcd.cpp ****       PCD_CLEAR_TX_DTOG(hpcd->Instance, ep->num);
 1663              		.loc 1 649 0
 1664 0214 7B68     		ldr	r3, [r7, #4]	@ tmp742, hpcd
 1665 0216 1B68     		ldr	r3, [r3, #0]	@ D.7662, hpcd_10(D)->Instance
 1666 0218 1A46     		mov	r2, r3	@ D.7663, D.7662
 1667 021a 7B69     		ldr	r3, [r7, #20]	@ tmp743, ep
 1668 021c 1B78     		ldrb	r3, [r3, #0]	@ zero_extendqisi2	@ D.7664, ep_1->num
 1669 021e 4FEA8303 		lsl	r3, r3, #2	@ D.7666, D.7665,
 1670 0222 D318     		adds	r3, r2, r3	@ D.7668, D.7663, D.7667
 1671 0224 1B88     		ldrh	r3, [r3, #0]	@ movhi	@ tmp744, *D.7668_138
 1672 0226 9BB2     		uxth	r3, r3	@ D.7669, tmp744
 1673 0228 03F04003 		and	r3, r3, #64	@ D.7671, D.7670,
 1674 022c 002B     		cmp	r3, #0	@ D.7671,
 1675 022e 0CBF     		ite	eq	@
 1676 0230 0023     		moveq	r3, #0	@, tmp746
 1677 0232 0123     		movne	r3, #1	@, tmp746
 1678 0234 DBB2     		uxtb	r3, r3	@ retval.42, tmp745
 1679 0236 002B     		cmp	r3, #0	@ retval.42,
 1680 0238 1CD0     		beq	.L63	@,
 1681              		.loc 1 649 0 is_stmt 0 discriminator 1
 1682 023a 7B68     		ldr	r3, [r7, #4]	@ tmp747, hpcd
 1683 023c 1B68     		ldr	r3, [r3, #0]	@ D.7674, hpcd_10(D)->Instance
 1684 023e 1A46     		mov	r2, r3	@ D.7675, D.7674
ARM GAS  /tmp/ccS6NUBW.s 			page 42


 1685 0240 7B69     		ldr	r3, [r7, #20]	@ tmp748, ep
 1686 0242 1B78     		ldrb	r3, [r3, #0]	@ zero_extendqisi2	@ D.7676, ep_1->num
 1687 0244 4FEA8303 		lsl	r3, r3, #2	@ D.7678, D.7677,
 1688 0248 D218     		adds	r2, r2, r3	@ D.7680, D.7675, D.7679
 1689 024a 7B68     		ldr	r3, [r7, #4]	@ tmp749, hpcd
 1690 024c 1B68     		ldr	r3, [r3, #0]	@ D.7681, hpcd_10(D)->Instance
 1691 024e 1946     		mov	r1, r3	@ D.7682, D.7681
 1692 0250 7B69     		ldr	r3, [r7, #20]	@ tmp750, ep
 1693 0252 1B78     		ldrb	r3, [r3, #0]	@ zero_extendqisi2	@ D.7683, ep_1->num
 1694 0254 4FEA8303 		lsl	r3, r3, #2	@ D.7685, D.7684,
 1695 0258 CB18     		adds	r3, r1, r3	@ D.7687, D.7682, D.7686
 1696 025a 1B88     		ldrh	r3, [r3, #0]	@ movhi	@ tmp751, *D.7687_156
 1697 025c 99B2     		uxth	r1, r3	@ D.7688, tmp751
 1698 025e 40F60F73 		movw	r3, #3855	@ tmp752,
 1699 0262 0B40     		ands	r3, r3, r1	@, tmp752, tmp752, D.7688
 1700 0264 99B2     		uxth	r1, r3	@ D.7689, tmp752
 1701 0266 48F2C003 		movw	r3, #32960	@ tmp753,
 1702 026a CFF6FF73 		movt	r3, 65535	@ tmp753,
 1703 026e 0B43     		orrs	r3, r3, r1	@, tmp753, tmp753, D.7689
 1704 0270 9BB2     		uxth	r3, r3	@ D.7690, tmp753
 1705 0272 1380     		strh	r3, [r2, #0]	@ movhi	@ tmp754, *D.7680_149
 1706              	.L63:
 1707              	.LBB9:
 650:Drivers/STM32L1xx_HAL_Driver/stm32l1xx_hal_pcd.cpp ****       /* Configure NAK status for the Endpoint*/
 651:Drivers/STM32L1xx_HAL_Driver/stm32l1xx_hal_pcd.cpp ****       PCD_SET_EP_TX_STATUS(hpcd->Instance, ep->num, USB_EP_TX_NAK); 
 1708              		.loc 1 651 0 is_stmt 1
 1709 0274 7B68     		ldr	r3, [r7, #4]	@ tmp755, hpcd
 1710 0276 1B68     		ldr	r3, [r3, #0]	@ D.7692, hpcd_10(D)->Instance
 1711 0278 1A46     		mov	r2, r3	@ D.7693, D.7692
 1712 027a 7B69     		ldr	r3, [r7, #20]	@ tmp756, ep
 1713 027c 1B78     		ldrb	r3, [r3, #0]	@ zero_extendqisi2	@ D.7694, ep_1->num
 1714 027e 4FEA8303 		lsl	r3, r3, #2	@ D.7696, D.7695,
 1715 0282 D318     		adds	r3, r2, r3	@ D.7698, D.7693, D.7697
 1716 0284 1B88     		ldrh	r3, [r3, #0]	@ movhi	@ tmp757, *D.7698_166
 1717 0286 9BB2     		uxth	r3, r3	@ D.7699, tmp757
 1718 0288 23F4E043 		bic	r3, r3, #28672	@ tmp758, D.7699,
 1719 028c 23F04003 		bic	r3, r3, #64	@ tmp758, tmp758,
 1720 0290 9CB2     		uxth	r4, r3	@ _wRegVal, tmp758
 1721 0292 84F02003 		eor	r3, r4, #32	@ tmp759, _wRegVal,
 1722 0296 9CB2     		uxth	r4, r3	@ _wRegVal, tmp759
 1723 0298 7B68     		ldr	r3, [r7, #4]	@ tmp760, hpcd
 1724 029a 1B68     		ldr	r3, [r3, #0]	@ D.7703, hpcd_10(D)->Instance
 1725 029c 1A46     		mov	r2, r3	@ D.7704, D.7703
 1726 029e 7B69     		ldr	r3, [r7, #20]	@ tmp761, ep
 1727 02a0 1B78     		ldrb	r3, [r3, #0]	@ zero_extendqisi2	@ D.7705, ep_1->num
 1728 02a2 4FEA8303 		lsl	r3, r3, #2	@ D.7707, D.7706,
 1729 02a6 D218     		adds	r2, r2, r3	@ D.7709, D.7704, D.7708
 1730 02a8 48F28003 		movw	r3, #32896	@ tmp762,
 1731 02ac CFF6FF73 		movt	r3, 65535	@ tmp762,
 1732 02b0 2343     		orrs	r3, r3, r4	@, tmp762, tmp762, _wRegVal
 1733 02b2 9BB2     		uxth	r3, r3	@ D.7710, tmp762
 1734 02b4 1380     		strh	r3, [r2, #0]	@ movhi	@ tmp763, *D.7709_176
 1735 02b6 87E2     		b	.L64	@
 1736              	.L62:
 1737              	.LBE9:
 1738              	.LBE8:
 1739              	.LBB10:
ARM GAS  /tmp/ccS6NUBW.s 			page 43


 652:Drivers/STM32L1xx_HAL_Driver/stm32l1xx_hal_pcd.cpp ****     }
 653:Drivers/STM32L1xx_HAL_Driver/stm32l1xx_hal_pcd.cpp ****     else
 654:Drivers/STM32L1xx_HAL_Driver/stm32l1xx_hal_pcd.cpp ****     {
 655:Drivers/STM32L1xx_HAL_Driver/stm32l1xx_hal_pcd.cpp ****       /*Set the endpoint Receive buffer address */
 656:Drivers/STM32L1xx_HAL_Driver/stm32l1xx_hal_pcd.cpp ****       PCD_SET_EP_RX_ADDRESS(hpcd->Instance, ep->num, ep->pmaadress);
 1740              		.loc 1 656 0
 1741 02b8 7B68     		ldr	r3, [r7, #4]	@ tmp764, hpcd
 1742 02ba 1B68     		ldr	r3, [r3, #0]	@ D.7712, hpcd_10(D)->Instance
 1743 02bc B3F85030 		ldrh	r3, [r3, #80]	@ movhi	@ tmp766, D.7712_178->BTABLE
 1744 02c0 9BB2     		uxth	r3, r3	@ D.7713, tmp766
 1745 02c2 1A46     		mov	r2, r3	@ D.7714, D.7713
 1746 02c4 7B69     		ldr	r3, [r7, #20]	@ tmp767, ep
 1747 02c6 1B78     		ldrb	r3, [r3, #0]	@ zero_extendqisi2	@ D.7715, ep_1->num
 1748 02c8 4FEAC303 		lsl	r3, r3, #3	@ D.7717, D.7716,
 1749 02cc D318     		adds	r3, r2, r3	@ D.7718, D.7714, D.7717
 1750 02ce 03F10403 		add	r3, r3, #4	@ D.7719, D.7718,
 1751 02d2 4FEA4303 		lsl	r3, r3, #1	@ D.7720, D.7719,
 1752 02d6 1A46     		mov	r2, r3	@ D.7721, D.7720
 1753 02d8 7B68     		ldr	r3, [r7, #4]	@ tmp768, hpcd
 1754 02da 1B68     		ldr	r3, [r3, #0]	@ D.7722, hpcd_10(D)->Instance
 1755 02dc D318     		adds	r3, r2, r3	@ D.7724, D.7721, D.7723
 1756 02de 03F58063 		add	r3, r3, #1024	@ D.7725, D.7724,
 1757 02e2 7A69     		ldr	r2, [r7, #20]	@ tmp769, ep
 1758 02e4 9288     		ldrh	r2, [r2, #4]	@ D.7727, ep_1->pmaadress
 1759 02e6 22F00102 		bic	r2, r2, #1	@ D.7729, D.7728,
 1760 02ea 1A60     		str	r2, [r3, #0]	@ D.7729, *D.7726_192
 1761              	.LBB11:
 657:Drivers/STM32L1xx_HAL_Driver/stm32l1xx_hal_pcd.cpp ****       /*Set the endpoint Receive buffer counter*/
 658:Drivers/STM32L1xx_HAL_Driver/stm32l1xx_hal_pcd.cpp ****       PCD_SET_EP_RX_CNT(hpcd->Instance, ep->num, ep->maxpacket);
 1762              		.loc 1 658 0
 1763 02ec 7B68     		ldr	r3, [r7, #4]	@ tmp770, hpcd
 1764 02ee 1B68     		ldr	r3, [r3, #0]	@ D.7730, hpcd_10(D)->Instance
 1765 02f0 B3F85030 		ldrh	r3, [r3, #80]	@ movhi	@ tmp772, D.7730_196->BTABLE
 1766 02f4 9BB2     		uxth	r3, r3	@ D.7731, tmp772
 1767 02f6 1A46     		mov	r2, r3	@ D.7732, D.7731
 1768 02f8 7B69     		ldr	r3, [r7, #20]	@ tmp773, ep
 1769 02fa 1B78     		ldrb	r3, [r3, #0]	@ zero_extendqisi2	@ D.7733, ep_1->num
 1770 02fc 4FEAC303 		lsl	r3, r3, #3	@ D.7735, D.7734,
 1771 0300 D318     		adds	r3, r2, r3	@ D.7736, D.7732, D.7735
 1772 0302 03F10603 		add	r3, r3, #6	@ D.7737, D.7736,
 1773 0306 4FEA4303 		lsl	r3, r3, #1	@ D.7738, D.7737,
 1774 030a 1A46     		mov	r2, r3	@ D.7739, D.7738
 1775 030c 7B68     		ldr	r3, [r7, #4]	@ tmp774, hpcd
 1776 030e 1B68     		ldr	r3, [r3, #0]	@ D.7740, hpcd_10(D)->Instance
 1777 0310 D318     		adds	r3, r2, r3	@ D.7742, D.7739, D.7741
 1778 0312 03F58063 		add	r3, r3, #1024	@ D.7743, D.7742,
 1779 0316 FB60     		str	r3, [r7, #12]	@ D.7743, pdwReg
 1780              	.LBB12:
 1781 0318 7B69     		ldr	r3, [r7, #20]	@ tmp775, ep
 1782 031a DB68     		ldr	r3, [r3, #12]	@ D.7744, ep_1->maxpacket
 1783 031c 3E2B     		cmp	r3, #62	@ D.7744,
 1784 031e 1BD9     		bls	.L65	@,
 1785              		.loc 1 658 0 is_stmt 0 discriminator 1
 1786 0320 7B69     		ldr	r3, [r7, #20]	@ tmp776, ep
 1787 0322 DB68     		ldr	r3, [r3, #12]	@ D.7747, ep_1->maxpacket
 1788 0324 4FEA5313 		lsr	r3, r3, #5	@ D.7748, D.7747,
 1789 0328 7B82     		strh	r3, [r7, #18]	@ movhi	@ tmp777, wNBlocks
ARM GAS  /tmp/ccS6NUBW.s 			page 44


 1790 032a 7B69     		ldr	r3, [r7, #20]	@ tmp778, ep
 1791 032c DB68     		ldr	r3, [r3, #12]	@ D.7749, ep_1->maxpacket
 1792 032e 03F01F03 		and	r3, r3, #31	@ D.7750, D.7749,
 1793 0332 002B     		cmp	r3, #0	@ D.7750,
 1794 0334 03D1     		bne	.L66	@,
 1795              		.loc 1 658 0 discriminator 3
 1796 0336 7B8A     		ldrh	r3, [r7, #18]	@ movhi	@ tmp779, wNBlocks
 1797 0338 03F1FF33 		add	r3, r3, #-1	@ tmp780, tmp779,
 1798 033c 7B82     		strh	r3, [r7, #18]	@ movhi	@ tmp781, wNBlocks
 1799              	.L66:
 1800              		.loc 1 658 0 discriminator 4
 1801 033e 7B8A     		ldrh	r3, [r7, #18]	@ movhi	@ tmp782, wNBlocks
 1802 0340 4FEA8323 		lsl	r3, r3, #10	@ tmp783, tmp782,
 1803 0344 9BB2     		uxth	r3, r3	@ D.7754, tmp783
 1804 0346 6FEA4343 		mvn	r3, r3, lsl #17	@ tmp784, D.7754,
 1805 034a 6FEA5343 		mvn	r3, r3, lsr #17	@ tmp784, tmp784,
 1806 034e 9BB2     		uxth	r3, r3	@ D.7755, tmp784
 1807 0350 1A46     		mov	r2, r3	@ D.7756, D.7755
 1808 0352 FB68     		ldr	r3, [r7, #12]	@ tmp785, pdwReg
 1809 0354 1A60     		str	r2, [r3, #0]	@ D.7756, *pdwReg_210
 1810 0356 15E0     		b	.L67	@
 1811              	.L65:
 1812              		.loc 1 658 0 discriminator 2
 1813 0358 7B69     		ldr	r3, [r7, #20]	@ tmp786, ep
 1814 035a DB68     		ldr	r3, [r3, #12]	@ D.7758, ep_1->maxpacket
 1815 035c 4FEA5303 		lsr	r3, r3, #1	@ D.7759, D.7758,
 1816 0360 7B82     		strh	r3, [r7, #18]	@ movhi	@ tmp787, wNBlocks
 1817 0362 7B69     		ldr	r3, [r7, #20]	@ tmp788, ep
 1818 0364 DB68     		ldr	r3, [r3, #12]	@ D.7760, ep_1->maxpacket
 1819 0366 03F00103 		and	r3, r3, #1	@ D.7761, D.7760,
 1820 036a 002B     		cmp	r3, #0	@ D.7761,
 1821 036c 03D0     		beq	.L68	@,
 1822              		.loc 1 658 0 discriminator 5
 1823 036e 7B8A     		ldrh	r3, [r7, #18]	@ movhi	@ tmp789, wNBlocks
 1824 0370 03F10103 		add	r3, r3, #1	@ tmp790, tmp789,
 1825 0374 7B82     		strh	r3, [r7, #18]	@ movhi	@ tmp791, wNBlocks
 1826              	.L68:
 1827              		.loc 1 658 0 discriminator 6
 1828 0376 7B8A     		ldrh	r3, [r7, #18]	@ movhi	@ tmp792, wNBlocks
 1829 0378 4FEA8323 		lsl	r3, r3, #10	@ tmp793, tmp792,
 1830 037c 9BB2     		uxth	r3, r3	@ D.7765, tmp793
 1831 037e 1A46     		mov	r2, r3	@ D.7766, D.7765
 1832 0380 FB68     		ldr	r3, [r7, #12]	@ tmp794, pdwReg
 1833 0382 1A60     		str	r2, [r3, #0]	@ D.7766, *pdwReg_210
 1834              	.L67:
 1835              	.LBE12:
 1836              	.LBE11:
 659:Drivers/STM32L1xx_HAL_Driver/stm32l1xx_hal_pcd.cpp ****       PCD_CLEAR_RX_DTOG(hpcd->Instance, ep->num);
 1837              		.loc 1 659 0 is_stmt 1
 1838 0384 7B68     		ldr	r3, [r7, #4]	@ tmp795, hpcd
 1839 0386 1B68     		ldr	r3, [r3, #0]	@ D.7768, hpcd_10(D)->Instance
 1840 0388 1A46     		mov	r2, r3	@ D.7769, D.7768
 1841 038a 7B69     		ldr	r3, [r7, #20]	@ tmp796, ep
 1842 038c 1B78     		ldrb	r3, [r3, #0]	@ zero_extendqisi2	@ D.7770, ep_1->num
 1843 038e 4FEA8303 		lsl	r3, r3, #2	@ D.7772, D.7771,
 1844 0392 D318     		adds	r3, r2, r3	@ D.7774, D.7769, D.7773
 1845 0394 1B88     		ldrh	r3, [r3, #0]	@ movhi	@ tmp797, *D.7774_235
ARM GAS  /tmp/ccS6NUBW.s 			page 45


 1846 0396 9BB2     		uxth	r3, r3	@ D.7775, tmp797
 1847 0398 03F48043 		and	r3, r3, #16384	@ D.7777, D.7776,
 1848 039c 002B     		cmp	r3, #0	@ D.7777,
 1849 039e 0CBF     		ite	eq	@
 1850 03a0 0023     		moveq	r3, #0	@, tmp799
 1851 03a2 0123     		movne	r3, #1	@, tmp799
 1852 03a4 DBB2     		uxtb	r3, r3	@ retval.43, tmp798
 1853 03a6 002B     		cmp	r3, #0	@ retval.43,
 1854 03a8 1CD0     		beq	.L69	@,
 1855              		.loc 1 659 0 is_stmt 0 discriminator 1
 1856 03aa 7B68     		ldr	r3, [r7, #4]	@ tmp800, hpcd
 1857 03ac 1B68     		ldr	r3, [r3, #0]	@ D.7780, hpcd_10(D)->Instance
 1858 03ae 1A46     		mov	r2, r3	@ D.7781, D.7780
 1859 03b0 7B69     		ldr	r3, [r7, #20]	@ tmp801, ep
 1860 03b2 1B78     		ldrb	r3, [r3, #0]	@ zero_extendqisi2	@ D.7782, ep_1->num
 1861 03b4 4FEA8303 		lsl	r3, r3, #2	@ D.7784, D.7783,
 1862 03b8 D218     		adds	r2, r2, r3	@ D.7786, D.7781, D.7785
 1863 03ba 7B68     		ldr	r3, [r7, #4]	@ tmp802, hpcd
 1864 03bc 1B68     		ldr	r3, [r3, #0]	@ D.7787, hpcd_10(D)->Instance
 1865 03be 1946     		mov	r1, r3	@ D.7788, D.7787
 1866 03c0 7B69     		ldr	r3, [r7, #20]	@ tmp803, ep
 1867 03c2 1B78     		ldrb	r3, [r3, #0]	@ zero_extendqisi2	@ D.7789, ep_1->num
 1868 03c4 4FEA8303 		lsl	r3, r3, #2	@ D.7791, D.7790,
 1869 03c8 CB18     		adds	r3, r1, r3	@ D.7793, D.7788, D.7792
 1870 03ca 1B88     		ldrh	r3, [r3, #0]	@ movhi	@ tmp804, *D.7793_253
 1871 03cc 99B2     		uxth	r1, r3	@ D.7794, tmp804
 1872 03ce 40F60F73 		movw	r3, #3855	@ tmp805,
 1873 03d2 0B40     		ands	r3, r3, r1	@, tmp805, tmp805, D.7794
 1874 03d4 99B2     		uxth	r1, r3	@ D.7795, tmp805
 1875 03d6 4CF28003 		movw	r3, #49280	@ tmp806,
 1876 03da CFF6FF73 		movt	r3, 65535	@ tmp806,
 1877 03de 0B43     		orrs	r3, r3, r1	@, tmp806, tmp806, D.7795
 1878 03e0 9BB2     		uxth	r3, r3	@ D.7796, tmp806
 1879 03e2 1380     		strh	r3, [r2, #0]	@ movhi	@ tmp807, *D.7786_246
 1880              	.L69:
 1881              	.LBB13:
 660:Drivers/STM32L1xx_HAL_Driver/stm32l1xx_hal_pcd.cpp ****       /* Configure VALID status for the Endpoint*/
 661:Drivers/STM32L1xx_HAL_Driver/stm32l1xx_hal_pcd.cpp ****       PCD_SET_EP_RX_STATUS(hpcd->Instance, ep->num, USB_EP_RX_VALID);
 1882              		.loc 1 661 0 is_stmt 1
 1883 03e4 7B68     		ldr	r3, [r7, #4]	@ tmp808, hpcd
 1884 03e6 1B68     		ldr	r3, [r3, #0]	@ D.7798, hpcd_10(D)->Instance
 1885 03e8 1A46     		mov	r2, r3	@ D.7799, D.7798
 1886 03ea 7B69     		ldr	r3, [r7, #20]	@ tmp809, ep
 1887 03ec 1B78     		ldrb	r3, [r3, #0]	@ zero_extendqisi2	@ D.7800, ep_1->num
 1888 03ee 4FEA8303 		lsl	r3, r3, #2	@ D.7802, D.7801,
 1889 03f2 D318     		adds	r3, r2, r3	@ D.7804, D.7799, D.7803
 1890 03f4 1B88     		ldrh	r3, [r3, #0]	@ movhi	@ tmp810, *D.7804_263
 1891 03f6 9BB2     		uxth	r3, r3	@ D.7805, tmp810
 1892 03f8 23F48043 		bic	r3, r3, #16384	@ tmp811, D.7805,
 1893 03fc 23F07003 		bic	r3, r3, #112	@ tmp811, tmp811,
 1894 0400 9CB2     		uxth	r4, r3	@ _wRegVal, tmp811
 1895 0402 84F48053 		eor	r3, r4, #4096	@ tmp812, _wRegVal,
 1896 0406 9CB2     		uxth	r4, r3	@ _wRegVal, tmp812
 1897 0408 84F40053 		eor	r3, r4, #8192	@ tmp813, _wRegVal,
 1898 040c 9CB2     		uxth	r4, r3	@ _wRegVal, tmp813
 1899 040e 7B68     		ldr	r3, [r7, #4]	@ tmp814, hpcd
 1900 0410 1B68     		ldr	r3, [r3, #0]	@ D.7806, hpcd_10(D)->Instance
ARM GAS  /tmp/ccS6NUBW.s 			page 46


 1901 0412 1A46     		mov	r2, r3	@ D.7807, D.7806
 1902 0414 7B69     		ldr	r3, [r7, #20]	@ tmp815, ep
 1903 0416 1B78     		ldrb	r3, [r3, #0]	@ zero_extendqisi2	@ D.7808, ep_1->num
 1904 0418 4FEA8303 		lsl	r3, r3, #2	@ D.7810, D.7809,
 1905 041c D218     		adds	r2, r2, r3	@ D.7812, D.7807, D.7811
 1906 041e 48F28003 		movw	r3, #32896	@ tmp816,
 1907 0422 CFF6FF73 		movt	r3, 65535	@ tmp816,
 1908 0426 2343     		orrs	r3, r3, r4	@, tmp816, tmp816, _wRegVal
 1909 0428 9BB2     		uxth	r3, r3	@ D.7813, tmp816
 1910 042a 1380     		strh	r3, [r2, #0]	@ movhi	@ tmp817, *D.7812_274
 1911 042c CCE1     		b	.L64	@
 1912              	.L61:
 1913              	.LBE13:
 1914              	.LBE10:
 1915              	.LBE7:
 1916              	.LBE6:
 1917              	.LBB14:
 662:Drivers/STM32L1xx_HAL_Driver/stm32l1xx_hal_pcd.cpp ****     }
 663:Drivers/STM32L1xx_HAL_Driver/stm32l1xx_hal_pcd.cpp ****   }
 664:Drivers/STM32L1xx_HAL_Driver/stm32l1xx_hal_pcd.cpp ****   /*Double Buffer*/
 665:Drivers/STM32L1xx_HAL_Driver/stm32l1xx_hal_pcd.cpp ****   else
 666:Drivers/STM32L1xx_HAL_Driver/stm32l1xx_hal_pcd.cpp ****   {
 667:Drivers/STM32L1xx_HAL_Driver/stm32l1xx_hal_pcd.cpp ****     /*Set the endpoint as double buffered*/
 668:Drivers/STM32L1xx_HAL_Driver/stm32l1xx_hal_pcd.cpp ****     PCD_SET_EP_DBUF(hpcd->Instance, ep->num);
 1918              		.loc 1 668 0
 1919 042e 7B68     		ldr	r3, [r7, #4]	@ tmp818, hpcd
 1920 0430 1B68     		ldr	r3, [r3, #0]	@ D.7815, hpcd_10(D)->Instance
 1921 0432 1A46     		mov	r2, r3	@ D.7816, D.7815
 1922 0434 7B69     		ldr	r3, [r7, #20]	@ tmp819, ep
 1923 0436 1B78     		ldrb	r3, [r3, #0]	@ zero_extendqisi2	@ D.7817, ep_1->num
 1924 0438 4FEA8303 		lsl	r3, r3, #2	@ D.7819, D.7818,
 1925 043c D218     		adds	r2, r2, r3	@ D.7821, D.7816, D.7820
 1926 043e 7B68     		ldr	r3, [r7, #4]	@ tmp820, hpcd
 1927 0440 1B68     		ldr	r3, [r3, #0]	@ D.7822, hpcd_10(D)->Instance
 1928 0442 1946     		mov	r1, r3	@ D.7823, D.7822
 1929 0444 7B69     		ldr	r3, [r7, #20]	@ tmp821, ep
 1930 0446 1B78     		ldrb	r3, [r3, #0]	@ zero_extendqisi2	@ D.7824, ep_1->num
 1931 0448 4FEA8303 		lsl	r3, r3, #2	@ D.7826, D.7825,
 1932 044c CB18     		adds	r3, r1, r3	@ D.7828, D.7823, D.7827
 1933 044e 1B88     		ldrh	r3, [r3, #0]	@ movhi	@ tmp822, *D.7828_289
 1934 0450 99B2     		uxth	r1, r3	@ D.7829, tmp822
 1935 0452 40F60F63 		movw	r3, #3599	@ tmp823,
 1936 0456 0B40     		ands	r3, r3, r1	@, tmp823, tmp823, D.7829
 1937 0458 99B2     		uxth	r1, r3	@ D.7830, tmp823
 1938 045a 48F28013 		movw	r3, #33152	@ tmp824,
 1939 045e CFF6FF73 		movt	r3, 65535	@ tmp824,
 1940 0462 0B43     		orrs	r3, r3, r1	@, tmp824, tmp824, D.7830
 1941 0464 9BB2     		uxth	r3, r3	@ D.7831, tmp824
 1942 0466 1380     		strh	r3, [r2, #0]	@ movhi	@ tmp825, *D.7821_282
 669:Drivers/STM32L1xx_HAL_Driver/stm32l1xx_hal_pcd.cpp ****     /*Set buffer address for double buffered mode*/
 670:Drivers/STM32L1xx_HAL_Driver/stm32l1xx_hal_pcd.cpp ****     PCD_SET_EP_DBUF_ADDR(hpcd->Instance, ep->num,ep->pmaaddr0, ep->pmaaddr1);
 1943              		.loc 1 670 0
 1944 0468 7B68     		ldr	r3, [r7, #4]	@ tmp826, hpcd
 1945 046a 1B68     		ldr	r3, [r3, #0]	@ D.7832, hpcd_10(D)->Instance
 1946 046c B3F85030 		ldrh	r3, [r3, #80]	@ movhi	@ tmp828, D.7832_293->BTABLE
 1947 0470 9BB2     		uxth	r3, r3	@ D.7833, tmp828
 1948 0472 1A46     		mov	r2, r3	@ D.7834, D.7833
ARM GAS  /tmp/ccS6NUBW.s 			page 47


 1949 0474 7B69     		ldr	r3, [r7, #20]	@ tmp829, ep
 1950 0476 1B78     		ldrb	r3, [r3, #0]	@ zero_extendqisi2	@ D.7835, ep_1->num
 1951 0478 4FEAC303 		lsl	r3, r3, #3	@ D.7837, D.7836,
 1952 047c D318     		adds	r3, r2, r3	@ D.7838, D.7834, D.7837
 1953 047e 4FEA4303 		lsl	r3, r3, #1	@ D.7839, D.7838,
 1954 0482 1A46     		mov	r2, r3	@ D.7840, D.7839
 1955 0484 7B68     		ldr	r3, [r7, #4]	@ tmp830, hpcd
 1956 0486 1B68     		ldr	r3, [r3, #0]	@ D.7841, hpcd_10(D)->Instance
 1957 0488 D318     		adds	r3, r2, r3	@ D.7843, D.7840, D.7842
 1958 048a 03F58063 		add	r3, r3, #1024	@ D.7844, D.7843,
 1959 048e 7A69     		ldr	r2, [r7, #20]	@ tmp831, ep
 1960 0490 D288     		ldrh	r2, [r2, #6]	@ D.7846, ep_1->pmaaddr0
 1961 0492 22F00102 		bic	r2, r2, #1	@ D.7848, D.7847,
 1962 0496 1A60     		str	r2, [r3, #0]	@ D.7848, *D.7845_306
 1963 0498 7B68     		ldr	r3, [r7, #4]	@ tmp832, hpcd
 1964 049a 1B68     		ldr	r3, [r3, #0]	@ D.7849, hpcd_10(D)->Instance
 1965 049c B3F85030 		ldrh	r3, [r3, #80]	@ movhi	@ tmp834, D.7849_310->BTABLE
 1966 04a0 9BB2     		uxth	r3, r3	@ D.7850, tmp834
 1967 04a2 1A46     		mov	r2, r3	@ D.7851, D.7850
 1968 04a4 7B69     		ldr	r3, [r7, #20]	@ tmp835, ep
 1969 04a6 1B78     		ldrb	r3, [r3, #0]	@ zero_extendqisi2	@ D.7852, ep_1->num
 1970 04a8 4FEAC303 		lsl	r3, r3, #3	@ D.7854, D.7853,
 1971 04ac D318     		adds	r3, r2, r3	@ D.7855, D.7851, D.7854
 1972 04ae 03F10403 		add	r3, r3, #4	@ D.7856, D.7855,
 1973 04b2 4FEA4303 		lsl	r3, r3, #1	@ D.7857, D.7856,
 1974 04b6 1A46     		mov	r2, r3	@ D.7858, D.7857
 1975 04b8 7B68     		ldr	r3, [r7, #4]	@ tmp836, hpcd
 1976 04ba 1B68     		ldr	r3, [r3, #0]	@ D.7859, hpcd_10(D)->Instance
 1977 04bc D318     		adds	r3, r2, r3	@ D.7861, D.7858, D.7860
 1978 04be 03F58063 		add	r3, r3, #1024	@ D.7862, D.7861,
 1979 04c2 7A69     		ldr	r2, [r7, #20]	@ tmp837, ep
 1980 04c4 1289     		ldrh	r2, [r2, #8]	@ D.7864, ep_1->pmaaddr1
 1981 04c6 22F00102 		bic	r2, r2, #1	@ D.7866, D.7865,
 1982 04ca 1A60     		str	r2, [r3, #0]	@ D.7866, *D.7863_324
 1983              	.LBB15:
 671:Drivers/STM32L1xx_HAL_Driver/stm32l1xx_hal_pcd.cpp ****     
 672:Drivers/STM32L1xx_HAL_Driver/stm32l1xx_hal_pcd.cpp ****     if (ep->is_in==0)
 1984              		.loc 1 672 0
 1985 04cc 7B69     		ldr	r3, [r7, #20]	@ tmp838, ep
 1986 04ce 5B78     		ldrb	r3, [r3, #1]	@ zero_extendqisi2	@ D.7867, ep_1->is_in
 1987 04d0 002B     		cmp	r3, #0	@ D.7867,
 1988 04d2 40F0C080 		bne	.L70	@,
 1989              	.LBB16:
 673:Drivers/STM32L1xx_HAL_Driver/stm32l1xx_hal_pcd.cpp ****     {
 674:Drivers/STM32L1xx_HAL_Driver/stm32l1xx_hal_pcd.cpp ****       /* Clear the data toggle bits for the endpoint IN/OUT*/
 675:Drivers/STM32L1xx_HAL_Driver/stm32l1xx_hal_pcd.cpp ****       PCD_CLEAR_RX_DTOG(hpcd->Instance, ep->num);
 1990              		.loc 1 675 0
 1991 04d6 7B68     		ldr	r3, [r7, #4]	@ tmp839, hpcd
 1992 04d8 1B68     		ldr	r3, [r3, #0]	@ D.7871, hpcd_10(D)->Instance
 1993 04da 1A46     		mov	r2, r3	@ D.7872, D.7871
 1994 04dc 7B69     		ldr	r3, [r7, #20]	@ tmp840, ep
 1995 04de 1B78     		ldrb	r3, [r3, #0]	@ zero_extendqisi2	@ D.7873, ep_1->num
 1996 04e0 4FEA8303 		lsl	r3, r3, #2	@ D.7875, D.7874,
 1997 04e4 D318     		adds	r3, r2, r3	@ D.7877, D.7872, D.7876
 1998 04e6 1B88     		ldrh	r3, [r3, #0]	@ movhi	@ tmp841, *D.7877_335
 1999 04e8 9BB2     		uxth	r3, r3	@ D.7878, tmp841
 2000 04ea 03F48043 		and	r3, r3, #16384	@ D.7880, D.7879,
ARM GAS  /tmp/ccS6NUBW.s 			page 48


 2001 04ee 002B     		cmp	r3, #0	@ D.7880,
 2002 04f0 0CBF     		ite	eq	@
 2003 04f2 0023     		moveq	r3, #0	@, tmp843
 2004 04f4 0123     		movne	r3, #1	@, tmp843
 2005 04f6 DBB2     		uxtb	r3, r3	@ retval.44, tmp842
 2006 04f8 002B     		cmp	r3, #0	@ retval.44,
 2007 04fa 1CD0     		beq	.L71	@,
 2008              		.loc 1 675 0 is_stmt 0 discriminator 1
 2009 04fc 7B68     		ldr	r3, [r7, #4]	@ tmp844, hpcd
 2010 04fe 1B68     		ldr	r3, [r3, #0]	@ D.7883, hpcd_10(D)->Instance
 2011 0500 1A46     		mov	r2, r3	@ D.7884, D.7883
 2012 0502 7B69     		ldr	r3, [r7, #20]	@ tmp845, ep
 2013 0504 1B78     		ldrb	r3, [r3, #0]	@ zero_extendqisi2	@ D.7885, ep_1->num
 2014 0506 4FEA8303 		lsl	r3, r3, #2	@ D.7887, D.7886,
 2015 050a D218     		adds	r2, r2, r3	@ D.7889, D.7884, D.7888
 2016 050c 7B68     		ldr	r3, [r7, #4]	@ tmp846, hpcd
 2017 050e 1B68     		ldr	r3, [r3, #0]	@ D.7890, hpcd_10(D)->Instance
 2018 0510 1946     		mov	r1, r3	@ D.7891, D.7890
 2019 0512 7B69     		ldr	r3, [r7, #20]	@ tmp847, ep
 2020 0514 1B78     		ldrb	r3, [r3, #0]	@ zero_extendqisi2	@ D.7892, ep_1->num
 2021 0516 4FEA8303 		lsl	r3, r3, #2	@ D.7894, D.7893,
 2022 051a CB18     		adds	r3, r1, r3	@ D.7896, D.7891, D.7895
 2023 051c 1B88     		ldrh	r3, [r3, #0]	@ movhi	@ tmp848, *D.7896_353
 2024 051e 99B2     		uxth	r1, r3	@ D.7897, tmp848
 2025 0520 40F60F73 		movw	r3, #3855	@ tmp849,
 2026 0524 0B40     		ands	r3, r3, r1	@, tmp849, tmp849, D.7897
 2027 0526 99B2     		uxth	r1, r3	@ D.7898, tmp849
 2028 0528 4CF28003 		movw	r3, #49280	@ tmp850,
 2029 052c CFF6FF73 		movt	r3, 65535	@ tmp850,
 2030 0530 0B43     		orrs	r3, r3, r1	@, tmp850, tmp850, D.7898
 2031 0532 9BB2     		uxth	r3, r3	@ D.7899, tmp850
 2032 0534 1380     		strh	r3, [r2, #0]	@ movhi	@ tmp851, *D.7889_346
 2033              	.L71:
 676:Drivers/STM32L1xx_HAL_Driver/stm32l1xx_hal_pcd.cpp ****       PCD_CLEAR_TX_DTOG(hpcd->Instance, ep->num);
 2034              		.loc 1 676 0 is_stmt 1
 2035 0536 7B68     		ldr	r3, [r7, #4]	@ tmp852, hpcd
 2036 0538 1B68     		ldr	r3, [r3, #0]	@ D.7902, hpcd_10(D)->Instance
 2037 053a 1A46     		mov	r2, r3	@ D.7903, D.7902
 2038 053c 7B69     		ldr	r3, [r7, #20]	@ tmp853, ep
 2039 053e 1B78     		ldrb	r3, [r3, #0]	@ zero_extendqisi2	@ D.7904, ep_1->num
 2040 0540 4FEA8303 		lsl	r3, r3, #2	@ D.7906, D.7905,
 2041 0544 D318     		adds	r3, r2, r3	@ D.7908, D.7903, D.7907
 2042 0546 1B88     		ldrh	r3, [r3, #0]	@ movhi	@ tmp854, *D.7908_363
 2043 0548 9BB2     		uxth	r3, r3	@ D.7909, tmp854
 2044 054a 03F04003 		and	r3, r3, #64	@ D.7911, D.7910,
 2045 054e 002B     		cmp	r3, #0	@ D.7911,
 2046 0550 0CBF     		ite	eq	@
 2047 0552 0023     		moveq	r3, #0	@, tmp856
 2048 0554 0123     		movne	r3, #1	@, tmp856
 2049 0556 DBB2     		uxtb	r3, r3	@ retval.45, tmp855
 2050 0558 002B     		cmp	r3, #0	@ retval.45,
 2051 055a 1CD0     		beq	.L72	@,
 2052              		.loc 1 676 0 is_stmt 0 discriminator 1
 2053 055c 7B68     		ldr	r3, [r7, #4]	@ tmp857, hpcd
 2054 055e 1B68     		ldr	r3, [r3, #0]	@ D.7914, hpcd_10(D)->Instance
 2055 0560 1A46     		mov	r2, r3	@ D.7915, D.7914
 2056 0562 7B69     		ldr	r3, [r7, #20]	@ tmp858, ep
ARM GAS  /tmp/ccS6NUBW.s 			page 49


 2057 0564 1B78     		ldrb	r3, [r3, #0]	@ zero_extendqisi2	@ D.7916, ep_1->num
 2058 0566 4FEA8303 		lsl	r3, r3, #2	@ D.7918, D.7917,
 2059 056a D218     		adds	r2, r2, r3	@ D.7920, D.7915, D.7919
 2060 056c 7B68     		ldr	r3, [r7, #4]	@ tmp859, hpcd
 2061 056e 1B68     		ldr	r3, [r3, #0]	@ D.7921, hpcd_10(D)->Instance
 2062 0570 1946     		mov	r1, r3	@ D.7922, D.7921
 2063 0572 7B69     		ldr	r3, [r7, #20]	@ tmp860, ep
 2064 0574 1B78     		ldrb	r3, [r3, #0]	@ zero_extendqisi2	@ D.7923, ep_1->num
 2065 0576 4FEA8303 		lsl	r3, r3, #2	@ D.7925, D.7924,
 2066 057a CB18     		adds	r3, r1, r3	@ D.7927, D.7922, D.7926
 2067 057c 1B88     		ldrh	r3, [r3, #0]	@ movhi	@ tmp861, *D.7927_381
 2068 057e 99B2     		uxth	r1, r3	@ D.7928, tmp861
 2069 0580 40F60F73 		movw	r3, #3855	@ tmp862,
 2070 0584 0B40     		ands	r3, r3, r1	@, tmp862, tmp862, D.7928
 2071 0586 99B2     		uxth	r1, r3	@ D.7929, tmp862
 2072 0588 48F2C003 		movw	r3, #32960	@ tmp863,
 2073 058c CFF6FF73 		movt	r3, 65535	@ tmp863,
 2074 0590 0B43     		orrs	r3, r3, r1	@, tmp863, tmp863, D.7929
 2075 0592 9BB2     		uxth	r3, r3	@ D.7930, tmp863
 2076 0594 1380     		strh	r3, [r2, #0]	@ movhi	@ tmp864, *D.7920_374
 2077              	.L72:
 677:Drivers/STM32L1xx_HAL_Driver/stm32l1xx_hal_pcd.cpp ****       
 678:Drivers/STM32L1xx_HAL_Driver/stm32l1xx_hal_pcd.cpp ****       /* Reset value of the data toggle bits for the endpoint out*/
 679:Drivers/STM32L1xx_HAL_Driver/stm32l1xx_hal_pcd.cpp ****       PCD_TX_DTOG(hpcd->Instance, ep->num);
 2078              		.loc 1 679 0 is_stmt 1
 2079 0596 7B68     		ldr	r3, [r7, #4]	@ tmp865, hpcd
 2080 0598 1B68     		ldr	r3, [r3, #0]	@ D.7932, hpcd_10(D)->Instance
 2081 059a 1A46     		mov	r2, r3	@ D.7933, D.7932
 2082 059c 7B69     		ldr	r3, [r7, #20]	@ tmp866, ep
 2083 059e 1B78     		ldrb	r3, [r3, #0]	@ zero_extendqisi2	@ D.7934, ep_1->num
 2084 05a0 4FEA8303 		lsl	r3, r3, #2	@ D.7936, D.7935,
 2085 05a4 D218     		adds	r2, r2, r3	@ D.7938, D.7933, D.7937
 2086 05a6 7B68     		ldr	r3, [r7, #4]	@ tmp867, hpcd
 2087 05a8 1B68     		ldr	r3, [r3, #0]	@ D.7939, hpcd_10(D)->Instance
 2088 05aa 1946     		mov	r1, r3	@ D.7940, D.7939
 2089 05ac 7B69     		ldr	r3, [r7, #20]	@ tmp868, ep
 2090 05ae 1B78     		ldrb	r3, [r3, #0]	@ zero_extendqisi2	@ D.7941, ep_1->num
 2091 05b0 4FEA8303 		lsl	r3, r3, #2	@ D.7943, D.7942,
 2092 05b4 CB18     		adds	r3, r1, r3	@ D.7945, D.7940, D.7944
 2093 05b6 1B88     		ldrh	r3, [r3, #0]	@ movhi	@ tmp869, *D.7945_398
 2094 05b8 99B2     		uxth	r1, r3	@ D.7946, tmp869
 2095 05ba 40F60F73 		movw	r3, #3855	@ tmp870,
 2096 05be 0B40     		ands	r3, r3, r1	@, tmp870, tmp870, D.7946
 2097 05c0 99B2     		uxth	r1, r3	@ D.7947, tmp870
 2098 05c2 48F2C003 		movw	r3, #32960	@ tmp871,
 2099 05c6 CFF6FF73 		movt	r3, 65535	@ tmp871,
 2100 05ca 0B43     		orrs	r3, r3, r1	@, tmp871, tmp871, D.7947
 2101 05cc 9BB2     		uxth	r3, r3	@ D.7948, tmp871
 2102 05ce 1380     		strh	r3, [r2, #0]	@ movhi	@ tmp872, *D.7938_391
 2103              	.LBB17:
 680:Drivers/STM32L1xx_HAL_Driver/stm32l1xx_hal_pcd.cpp ****       
 681:Drivers/STM32L1xx_HAL_Driver/stm32l1xx_hal_pcd.cpp ****       PCD_SET_EP_RX_STATUS(hpcd->Instance, ep->num, USB_EP_RX_VALID);
 2104              		.loc 1 681 0
 2105 05d0 7B68     		ldr	r3, [r7, #4]	@ tmp873, hpcd
 2106 05d2 1B68     		ldr	r3, [r3, #0]	@ D.7949, hpcd_10(D)->Instance
 2107 05d4 1A46     		mov	r2, r3	@ D.7950, D.7949
 2108 05d6 7B69     		ldr	r3, [r7, #20]	@ tmp874, ep
ARM GAS  /tmp/ccS6NUBW.s 			page 50


 2109 05d8 1B78     		ldrb	r3, [r3, #0]	@ zero_extendqisi2	@ D.7951, ep_1->num
 2110 05da 4FEA8303 		lsl	r3, r3, #2	@ D.7953, D.7952,
 2111 05de D318     		adds	r3, r2, r3	@ D.7955, D.7950, D.7954
 2112 05e0 1B88     		ldrh	r3, [r3, #0]	@ movhi	@ tmp875, *D.7955_408
 2113 05e2 9BB2     		uxth	r3, r3	@ D.7956, tmp875
 2114 05e4 23F48043 		bic	r3, r3, #16384	@ tmp876, D.7956,
 2115 05e8 23F07003 		bic	r3, r3, #112	@ tmp876, tmp876,
 2116 05ec 9CB2     		uxth	r4, r3	@ _wRegVal, tmp876
 2117 05ee 84F48053 		eor	r3, r4, #4096	@ tmp877, _wRegVal,
 2118 05f2 9CB2     		uxth	r4, r3	@ _wRegVal, tmp877
 2119 05f4 84F40053 		eor	r3, r4, #8192	@ tmp878, _wRegVal,
 2120 05f8 9CB2     		uxth	r4, r3	@ _wRegVal, tmp878
 2121 05fa 7B68     		ldr	r3, [r7, #4]	@ tmp879, hpcd
 2122 05fc 1B68     		ldr	r3, [r3, #0]	@ D.7957, hpcd_10(D)->Instance
 2123 05fe 1A46     		mov	r2, r3	@ D.7958, D.7957
 2124 0600 7B69     		ldr	r3, [r7, #20]	@ tmp880, ep
 2125 0602 1B78     		ldrb	r3, [r3, #0]	@ zero_extendqisi2	@ D.7959, ep_1->num
 2126 0604 4FEA8303 		lsl	r3, r3, #2	@ D.7961, D.7960,
 2127 0608 D218     		adds	r2, r2, r3	@ D.7963, D.7958, D.7962
 2128 060a 48F28003 		movw	r3, #32896	@ tmp881,
 2129 060e CFF6FF73 		movt	r3, 65535	@ tmp881,
 2130 0612 2343     		orrs	r3, r3, r4	@, tmp881, tmp881, _wRegVal
 2131 0614 9BB2     		uxth	r3, r3	@ D.7964, tmp881
 2132 0616 1380     		strh	r3, [r2, #0]	@ movhi	@ tmp882, *D.7963_419
 2133              	.LBE17:
 2134              	.LBB18:
 682:Drivers/STM32L1xx_HAL_Driver/stm32l1xx_hal_pcd.cpp ****       PCD_SET_EP_TX_STATUS(hpcd->Instance, ep->num, USB_EP_TX_DIS);
 2135              		.loc 1 682 0
 2136 0618 7B68     		ldr	r3, [r7, #4]	@ tmp883, hpcd
 2137 061a 1B68     		ldr	r3, [r3, #0]	@ D.7965, hpcd_10(D)->Instance
 2138 061c 1A46     		mov	r2, r3	@ D.7966, D.7965
 2139 061e 7B69     		ldr	r3, [r7, #20]	@ tmp884, ep
 2140 0620 1B78     		ldrb	r3, [r3, #0]	@ zero_extendqisi2	@ D.7967, ep_1->num
 2141 0622 4FEA8303 		lsl	r3, r3, #2	@ D.7969, D.7968,
 2142 0626 D318     		adds	r3, r2, r3	@ D.7971, D.7966, D.7970
 2143 0628 1B88     		ldrh	r3, [r3, #0]	@ movhi	@ tmp885, *D.7971_427
 2144 062a 9BB2     		uxth	r3, r3	@ D.7972, tmp885
 2145 062c 23F4E043 		bic	r3, r3, #28672	@ tmp886, D.7972,
 2146 0630 23F04003 		bic	r3, r3, #64	@ tmp886, tmp886,
 2147 0634 9CB2     		uxth	r4, r3	@ _wRegVal, tmp886
 2148 0636 7B68     		ldr	r3, [r7, #4]	@ tmp887, hpcd
 2149 0638 1B68     		ldr	r3, [r3, #0]	@ D.7979, hpcd_10(D)->Instance
 2150 063a 1A46     		mov	r2, r3	@ D.7980, D.7979
 2151 063c 7B69     		ldr	r3, [r7, #20]	@ tmp888, ep
 2152 063e 1B78     		ldrb	r3, [r3, #0]	@ zero_extendqisi2	@ D.7981, ep_1->num
 2153 0640 4FEA8303 		lsl	r3, r3, #2	@ D.7983, D.7982,
 2154 0644 D218     		adds	r2, r2, r3	@ D.7985, D.7980, D.7984
 2155 0646 48F28003 		movw	r3, #32896	@ tmp889,
 2156 064a CFF6FF73 		movt	r3, 65535	@ tmp889,
 2157 064e 2343     		orrs	r3, r3, r4	@, tmp889, tmp889, _wRegVal
 2158 0650 9BB2     		uxth	r3, r3	@ D.7986, tmp889
 2159 0652 1380     		strh	r3, [r2, #0]	@ movhi	@ tmp890, *D.7985_436
 2160 0654 B8E0     		b	.L64	@
 2161              	.L70:
 2162              	.LBE18:
 2163              	.LBE16:
 2164              	.LBB19:
ARM GAS  /tmp/ccS6NUBW.s 			page 51


 683:Drivers/STM32L1xx_HAL_Driver/stm32l1xx_hal_pcd.cpp ****     }
 684:Drivers/STM32L1xx_HAL_Driver/stm32l1xx_hal_pcd.cpp ****     else
 685:Drivers/STM32L1xx_HAL_Driver/stm32l1xx_hal_pcd.cpp ****     {
 686:Drivers/STM32L1xx_HAL_Driver/stm32l1xx_hal_pcd.cpp ****       /* Clear the data toggle bits for the endpoint IN/OUT*/
 687:Drivers/STM32L1xx_HAL_Driver/stm32l1xx_hal_pcd.cpp ****       PCD_CLEAR_RX_DTOG(hpcd->Instance, ep->num);
 2165              		.loc 1 687 0
 2166 0656 7B68     		ldr	r3, [r7, #4]	@ tmp891, hpcd
 2167 0658 1B68     		ldr	r3, [r3, #0]	@ D.7989, hpcd_10(D)->Instance
 2168 065a 1A46     		mov	r2, r3	@ D.7990, D.7989
 2169 065c 7B69     		ldr	r3, [r7, #20]	@ tmp892, ep
 2170 065e 1B78     		ldrb	r3, [r3, #0]	@ zero_extendqisi2	@ D.7991, ep_1->num
 2171 0660 4FEA8303 		lsl	r3, r3, #2	@ D.7993, D.7992,
 2172 0664 D318     		adds	r3, r2, r3	@ D.7995, D.7990, D.7994
 2173 0666 1B88     		ldrh	r3, [r3, #0]	@ movhi	@ tmp893, *D.7995_444
 2174 0668 9BB2     		uxth	r3, r3	@ D.7996, tmp893
 2175 066a 03F48043 		and	r3, r3, #16384	@ D.7998, D.7997,
 2176 066e 002B     		cmp	r3, #0	@ D.7998,
 2177 0670 0CBF     		ite	eq	@
 2178 0672 0023     		moveq	r3, #0	@, tmp895
 2179 0674 0123     		movne	r3, #1	@, tmp895
 2180 0676 DBB2     		uxtb	r3, r3	@ retval.46, tmp894
 2181 0678 002B     		cmp	r3, #0	@ retval.46,
 2182 067a 1CD0     		beq	.L73	@,
 2183              		.loc 1 687 0 is_stmt 0 discriminator 1
 2184 067c 7B68     		ldr	r3, [r7, #4]	@ tmp896, hpcd
 2185 067e 1B68     		ldr	r3, [r3, #0]	@ D.8001, hpcd_10(D)->Instance
 2186 0680 1A46     		mov	r2, r3	@ D.8002, D.8001
 2187 0682 7B69     		ldr	r3, [r7, #20]	@ tmp897, ep
 2188 0684 1B78     		ldrb	r3, [r3, #0]	@ zero_extendqisi2	@ D.8003, ep_1->num
 2189 0686 4FEA8303 		lsl	r3, r3, #2	@ D.8005, D.8004,
 2190 068a D218     		adds	r2, r2, r3	@ D.8007, D.8002, D.8006
 2191 068c 7B68     		ldr	r3, [r7, #4]	@ tmp898, hpcd
 2192 068e 1B68     		ldr	r3, [r3, #0]	@ D.8008, hpcd_10(D)->Instance
 2193 0690 1946     		mov	r1, r3	@ D.8009, D.8008
 2194 0692 7B69     		ldr	r3, [r7, #20]	@ tmp899, ep
 2195 0694 1B78     		ldrb	r3, [r3, #0]	@ zero_extendqisi2	@ D.8010, ep_1->num
 2196 0696 4FEA8303 		lsl	r3, r3, #2	@ D.8012, D.8011,
 2197 069a CB18     		adds	r3, r1, r3	@ D.8014, D.8009, D.8013
 2198 069c 1B88     		ldrh	r3, [r3, #0]	@ movhi	@ tmp900, *D.8014_462
 2199 069e 99B2     		uxth	r1, r3	@ D.8015, tmp900
 2200 06a0 40F60F73 		movw	r3, #3855	@ tmp901,
 2201 06a4 0B40     		ands	r3, r3, r1	@, tmp901, tmp901, D.8015
 2202 06a6 99B2     		uxth	r1, r3	@ D.8016, tmp901
 2203 06a8 4CF28003 		movw	r3, #49280	@ tmp902,
 2204 06ac CFF6FF73 		movt	r3, 65535	@ tmp902,
 2205 06b0 0B43     		orrs	r3, r3, r1	@, tmp902, tmp902, D.8016
 2206 06b2 9BB2     		uxth	r3, r3	@ D.8017, tmp902
 2207 06b4 1380     		strh	r3, [r2, #0]	@ movhi	@ tmp903, *D.8007_455
 2208              	.L73:
 688:Drivers/STM32L1xx_HAL_Driver/stm32l1xx_hal_pcd.cpp ****       PCD_CLEAR_TX_DTOG(hpcd->Instance, ep->num);
 2209              		.loc 1 688 0 is_stmt 1
 2210 06b6 7B68     		ldr	r3, [r7, #4]	@ tmp904, hpcd
 2211 06b8 1B68     		ldr	r3, [r3, #0]	@ D.8020, hpcd_10(D)->Instance
 2212 06ba 1A46     		mov	r2, r3	@ D.8021, D.8020
 2213 06bc 7B69     		ldr	r3, [r7, #20]	@ tmp905, ep
 2214 06be 1B78     		ldrb	r3, [r3, #0]	@ zero_extendqisi2	@ D.8022, ep_1->num
 2215 06c0 4FEA8303 		lsl	r3, r3, #2	@ D.8024, D.8023,
ARM GAS  /tmp/ccS6NUBW.s 			page 52


 2216 06c4 D318     		adds	r3, r2, r3	@ D.8026, D.8021, D.8025
 2217 06c6 1B88     		ldrh	r3, [r3, #0]	@ movhi	@ tmp906, *D.8026_472
 2218 06c8 9BB2     		uxth	r3, r3	@ D.8027, tmp906
 2219 06ca 03F04003 		and	r3, r3, #64	@ D.8029, D.8028,
 2220 06ce 002B     		cmp	r3, #0	@ D.8029,
 2221 06d0 0CBF     		ite	eq	@
 2222 06d2 0023     		moveq	r3, #0	@, tmp908
 2223 06d4 0123     		movne	r3, #1	@, tmp908
 2224 06d6 DBB2     		uxtb	r3, r3	@ retval.47, tmp907
 2225 06d8 002B     		cmp	r3, #0	@ retval.47,
 2226 06da 1CD0     		beq	.L74	@,
 2227              		.loc 1 688 0 is_stmt 0 discriminator 1
 2228 06dc 7B68     		ldr	r3, [r7, #4]	@ tmp909, hpcd
 2229 06de 1B68     		ldr	r3, [r3, #0]	@ D.8032, hpcd_10(D)->Instance
 2230 06e0 1A46     		mov	r2, r3	@ D.8033, D.8032
 2231 06e2 7B69     		ldr	r3, [r7, #20]	@ tmp910, ep
 2232 06e4 1B78     		ldrb	r3, [r3, #0]	@ zero_extendqisi2	@ D.8034, ep_1->num
 2233 06e6 4FEA8303 		lsl	r3, r3, #2	@ D.8036, D.8035,
 2234 06ea D218     		adds	r2, r2, r3	@ D.8038, D.8033, D.8037
 2235 06ec 7B68     		ldr	r3, [r7, #4]	@ tmp911, hpcd
 2236 06ee 1B68     		ldr	r3, [r3, #0]	@ D.8039, hpcd_10(D)->Instance
 2237 06f0 1946     		mov	r1, r3	@ D.8040, D.8039
 2238 06f2 7B69     		ldr	r3, [r7, #20]	@ tmp912, ep
 2239 06f4 1B78     		ldrb	r3, [r3, #0]	@ zero_extendqisi2	@ D.8041, ep_1->num
 2240 06f6 4FEA8303 		lsl	r3, r3, #2	@ D.8043, D.8042,
 2241 06fa CB18     		adds	r3, r1, r3	@ D.8045, D.8040, D.8044
 2242 06fc 1B88     		ldrh	r3, [r3, #0]	@ movhi	@ tmp913, *D.8045_490
 2243 06fe 99B2     		uxth	r1, r3	@ D.8046, tmp913
 2244 0700 40F60F73 		movw	r3, #3855	@ tmp914,
 2245 0704 0B40     		ands	r3, r3, r1	@, tmp914, tmp914, D.8046
 2246 0706 99B2     		uxth	r1, r3	@ D.8047, tmp914
 2247 0708 48F2C003 		movw	r3, #32960	@ tmp915,
 2248 070c CFF6FF73 		movt	r3, 65535	@ tmp915,
 2249 0710 0B43     		orrs	r3, r3, r1	@, tmp915, tmp915, D.8047
 2250 0712 9BB2     		uxth	r3, r3	@ D.8048, tmp915
 2251 0714 1380     		strh	r3, [r2, #0]	@ movhi	@ tmp916, *D.8038_483
 2252              	.L74:
 689:Drivers/STM32L1xx_HAL_Driver/stm32l1xx_hal_pcd.cpp ****       PCD_RX_DTOG(hpcd->Instance, ep->num);
 2253              		.loc 1 689 0 is_stmt 1
 2254 0716 7B68     		ldr	r3, [r7, #4]	@ tmp917, hpcd
 2255 0718 1B68     		ldr	r3, [r3, #0]	@ D.8050, hpcd_10(D)->Instance
 2256 071a 1A46     		mov	r2, r3	@ D.8051, D.8050
 2257 071c 7B69     		ldr	r3, [r7, #20]	@ tmp918, ep
 2258 071e 1B78     		ldrb	r3, [r3, #0]	@ zero_extendqisi2	@ D.8052, ep_1->num
 2259 0720 4FEA8303 		lsl	r3, r3, #2	@ D.8054, D.8053,
 2260 0724 D218     		adds	r2, r2, r3	@ D.8056, D.8051, D.8055
 2261 0726 7B68     		ldr	r3, [r7, #4]	@ tmp919, hpcd
 2262 0728 1B68     		ldr	r3, [r3, #0]	@ D.8057, hpcd_10(D)->Instance
 2263 072a 1946     		mov	r1, r3	@ D.8058, D.8057
 2264 072c 7B69     		ldr	r3, [r7, #20]	@ tmp920, ep
 2265 072e 1B78     		ldrb	r3, [r3, #0]	@ zero_extendqisi2	@ D.8059, ep_1->num
 2266 0730 4FEA8303 		lsl	r3, r3, #2	@ D.8061, D.8060,
 2267 0734 CB18     		adds	r3, r1, r3	@ D.8063, D.8058, D.8062
 2268 0736 1B88     		ldrh	r3, [r3, #0]	@ movhi	@ tmp921, *D.8063_507
 2269 0738 99B2     		uxth	r1, r3	@ D.8064, tmp921
 2270 073a 40F60F73 		movw	r3, #3855	@ tmp922,
 2271 073e 0B40     		ands	r3, r3, r1	@, tmp922, tmp922, D.8064
ARM GAS  /tmp/ccS6NUBW.s 			page 53


 2272 0740 99B2     		uxth	r1, r3	@ D.8065, tmp922
 2273 0742 4CF28003 		movw	r3, #49280	@ tmp923,
 2274 0746 CFF6FF73 		movt	r3, 65535	@ tmp923,
 2275 074a 0B43     		orrs	r3, r3, r1	@, tmp923, tmp923, D.8065
 2276 074c 9BB2     		uxth	r3, r3	@ D.8066, tmp923
 2277 074e 1380     		strh	r3, [r2, #0]	@ movhi	@ tmp924, *D.8056_500
 2278              	.LBB20:
 690:Drivers/STM32L1xx_HAL_Driver/stm32l1xx_hal_pcd.cpp ****       /* Configure DISABLE status for the Endpoint*/
 691:Drivers/STM32L1xx_HAL_Driver/stm32l1xx_hal_pcd.cpp ****       PCD_SET_EP_TX_STATUS(hpcd->Instance, ep->num, USB_EP_TX_DIS);
 2279              		.loc 1 691 0
 2280 0750 7B68     		ldr	r3, [r7, #4]	@ tmp925, hpcd
 2281 0752 1B68     		ldr	r3, [r3, #0]	@ D.8067, hpcd_10(D)->Instance
 2282 0754 1A46     		mov	r2, r3	@ D.8068, D.8067
 2283 0756 7B69     		ldr	r3, [r7, #20]	@ tmp926, ep
 2284 0758 1B78     		ldrb	r3, [r3, #0]	@ zero_extendqisi2	@ D.8069, ep_1->num
 2285 075a 4FEA8303 		lsl	r3, r3, #2	@ D.8071, D.8070,
 2286 075e D318     		adds	r3, r2, r3	@ D.8073, D.8068, D.8072
 2287 0760 1B88     		ldrh	r3, [r3, #0]	@ movhi	@ tmp927, *D.8073_517
 2288 0762 9BB2     		uxth	r3, r3	@ D.8074, tmp927
 2289 0764 23F4E043 		bic	r3, r3, #28672	@ tmp928, D.8074,
 2290 0768 23F04003 		bic	r3, r3, #64	@ tmp928, tmp928,
 2291 076c 9CB2     		uxth	r4, r3	@ _wRegVal, tmp928
 2292 076e 7B68     		ldr	r3, [r7, #4]	@ tmp929, hpcd
 2293 0770 1B68     		ldr	r3, [r3, #0]	@ D.8081, hpcd_10(D)->Instance
 2294 0772 1A46     		mov	r2, r3	@ D.8082, D.8081
 2295 0774 7B69     		ldr	r3, [r7, #20]	@ tmp930, ep
 2296 0776 1B78     		ldrb	r3, [r3, #0]	@ zero_extendqisi2	@ D.8083, ep_1->num
 2297 0778 4FEA8303 		lsl	r3, r3, #2	@ D.8085, D.8084,
 2298 077c D218     		adds	r2, r2, r3	@ D.8087, D.8082, D.8086
 2299 077e 48F28003 		movw	r3, #32896	@ tmp931,
 2300 0782 CFF6FF73 		movt	r3, 65535	@ tmp931,
 2301 0786 2343     		orrs	r3, r3, r4	@, tmp931, tmp931, _wRegVal
 2302 0788 9BB2     		uxth	r3, r3	@ D.8088, tmp931
 2303 078a 1380     		strh	r3, [r2, #0]	@ movhi	@ tmp932, *D.8087_526
 2304              	.LBE20:
 2305              	.LBB21:
 692:Drivers/STM32L1xx_HAL_Driver/stm32l1xx_hal_pcd.cpp ****       PCD_SET_EP_RX_STATUS(hpcd->Instance, ep->num, USB_EP_RX_DIS);
 2306              		.loc 1 692 0
 2307 078c 7B68     		ldr	r3, [r7, #4]	@ tmp933, hpcd
 2308 078e 1B68     		ldr	r3, [r3, #0]	@ D.8089, hpcd_10(D)->Instance
 2309 0790 1A46     		mov	r2, r3	@ D.8090, D.8089
 2310 0792 7B69     		ldr	r3, [r7, #20]	@ tmp934, ep
 2311 0794 1B78     		ldrb	r3, [r3, #0]	@ zero_extendqisi2	@ D.8091, ep_1->num
 2312 0796 4FEA8303 		lsl	r3, r3, #2	@ D.8093, D.8092,
 2313 079a D318     		adds	r3, r2, r3	@ D.8095, D.8090, D.8094
 2314 079c 1B88     		ldrh	r3, [r3, #0]	@ movhi	@ tmp935, *D.8095_534
 2315 079e 9BB2     		uxth	r3, r3	@ D.8096, tmp935
 2316 07a0 23F48043 		bic	r3, r3, #16384	@ tmp936, D.8096,
 2317 07a4 23F07003 		bic	r3, r3, #112	@ tmp936, tmp936,
 2318 07a8 9CB2     		uxth	r4, r3	@ _wRegVal, tmp936
 2319 07aa 7B68     		ldr	r3, [r7, #4]	@ tmp937, hpcd
 2320 07ac 1B68     		ldr	r3, [r3, #0]	@ D.8103, hpcd_10(D)->Instance
 2321 07ae 1A46     		mov	r2, r3	@ D.8104, D.8103
 2322 07b0 7B69     		ldr	r3, [r7, #20]	@ tmp938, ep
 2323 07b2 1B78     		ldrb	r3, [r3, #0]	@ zero_extendqisi2	@ D.8105, ep_1->num
 2324 07b4 4FEA8303 		lsl	r3, r3, #2	@ D.8107, D.8106,
 2325 07b8 D218     		adds	r2, r2, r3	@ D.8109, D.8104, D.8108
ARM GAS  /tmp/ccS6NUBW.s 			page 54


 2326 07ba 48F28003 		movw	r3, #32896	@ tmp939,
 2327 07be CFF6FF73 		movt	r3, 65535	@ tmp939,
 2328 07c2 2343     		orrs	r3, r3, r4	@, tmp939, tmp939, _wRegVal
 2329 07c4 9BB2     		uxth	r3, r3	@ D.8110, tmp939
 2330 07c6 1380     		strh	r3, [r2, #0]	@ movhi	@ tmp940, *D.8109_543
 2331              	.L64:
 2332              	.LBE21:
 2333              	.LBE19:
 2334              	.LBE15:
 2335              	.LBE14:
 2336              	.LBE5:
 693:Drivers/STM32L1xx_HAL_Driver/stm32l1xx_hal_pcd.cpp ****     }
 694:Drivers/STM32L1xx_HAL_Driver/stm32l1xx_hal_pcd.cpp ****   } 
 695:Drivers/STM32L1xx_HAL_Driver/stm32l1xx_hal_pcd.cpp ****   
 696:Drivers/STM32L1xx_HAL_Driver/stm32l1xx_hal_pcd.cpp ****   __HAL_UNLOCK(hpcd);   
 2337              		.loc 1 696 0
 2338 07c8 7B68     		ldr	r3, [r7, #4]	@ tmp941, hpcd
 2339 07ca 4FF00002 		mov	r2, #0	@ tmp942,
 2340 07ce 83F8E821 		strb	r2, [r3, #488]	@ tmp943, hpcd_10(D)->Lock
 697:Drivers/STM32L1xx_HAL_Driver/stm32l1xx_hal_pcd.cpp ****   return ret;
 2341              		.loc 1 697 0
 2342 07d2 7B7C     		ldrb	r3, [r7, #17]	@ zero_extendqisi2	@ D.7547, ret
 2343              	.L53:
 2344              	.LBE4:
 698:Drivers/STM32L1xx_HAL_Driver/stm32l1xx_hal_pcd.cpp **** }
 2345              		.loc 1 698 0
 2346 07d4 1846     		mov	r0, r3	@, <retval>
 2347 07d6 07F11807 		add	r7, r7, #24	@,,
 2348 07da BD46     		mov	sp, r7
 2349 07dc 90BC     		pop	{r4, r7}
 2350 07de 7047     		bx	lr
 2351              		.cfi_endproc
 2352              	.LFE77:
 2353              		.size	HAL_PCD_EP_Open, .-HAL_PCD_EP_Open
 2354              		.section	.text.HAL_PCD_EP_Close,"ax",%progbits
 2355              		.align	2
 2356              		.global	HAL_PCD_EP_Close
 2357              		.thumb
 2358              		.thumb_func
 2359              		.type	HAL_PCD_EP_Close, %function
 2360              	HAL_PCD_EP_Close:
 2361              	.LFB78:
 699:Drivers/STM32L1xx_HAL_Driver/stm32l1xx_hal_pcd.cpp **** 
 700:Drivers/STM32L1xx_HAL_Driver/stm32l1xx_hal_pcd.cpp **** 
 701:Drivers/STM32L1xx_HAL_Driver/stm32l1xx_hal_pcd.cpp **** /**
 702:Drivers/STM32L1xx_HAL_Driver/stm32l1xx_hal_pcd.cpp ****   * @brief  Deactivate an endpoint
 703:Drivers/STM32L1xx_HAL_Driver/stm32l1xx_hal_pcd.cpp ****   * @param  hpcd: PCD handle
 704:Drivers/STM32L1xx_HAL_Driver/stm32l1xx_hal_pcd.cpp ****   * @param  ep_addr: endpoint address
 705:Drivers/STM32L1xx_HAL_Driver/stm32l1xx_hal_pcd.cpp ****   * @retval HAL status
 706:Drivers/STM32L1xx_HAL_Driver/stm32l1xx_hal_pcd.cpp ****   */
 707:Drivers/STM32L1xx_HAL_Driver/stm32l1xx_hal_pcd.cpp **** HAL_StatusTypeDef HAL_PCD_EP_Close(PCD_HandleTypeDef *hpcd, uint8_t ep_addr)
 708:Drivers/STM32L1xx_HAL_Driver/stm32l1xx_hal_pcd.cpp **** {  
 2362              		.loc 1 708 0
 2363              		.cfi_startproc
 2364              		@ args = 0, pretend = 0, frame = 16
 2365              		@ frame_needed = 1, uses_anonymous_args = 0
 2366              		@ link register save eliminated.
ARM GAS  /tmp/ccS6NUBW.s 			page 55


 2367 0000 90B4     		push	{r4, r7}	@
 2368              	.LCFI66:
 2369              		.cfi_def_cfa_offset 8
 2370              		.cfi_offset 4, -8
 2371              		.cfi_offset 7, -4
 2372 0002 84B0     		sub	sp, sp, #16	@,,
 2373              	.LCFI67:
 2374              		.cfi_def_cfa_offset 24
 2375 0004 00AF     		add	r7, sp, #0	@,,
 2376              	.LCFI68:
 2377              		.cfi_def_cfa_register 7
 2378 0006 7860     		str	r0, [r7, #4]	@ hpcd, hpcd
 2379 0008 0B46     		mov	r3, r1	@ tmp453, ep_addr
 2380 000a FB70     		strb	r3, [r7, #3]	@ tmp454, ep_addr
 2381              	.LBB22:
 709:Drivers/STM32L1xx_HAL_Driver/stm32l1xx_hal_pcd.cpp ****   PCD_EPTypeDef *ep;
 710:Drivers/STM32L1xx_HAL_Driver/stm32l1xx_hal_pcd.cpp ****   
 711:Drivers/STM32L1xx_HAL_Driver/stm32l1xx_hal_pcd.cpp ****   if ((ep_addr & 0x80) == 0x80)
 2382              		.loc 1 711 0
 2383 000c FB78     		ldrb	r3, [r7, #3]	@ zero_extendqisi2	@ ep_addr.32, ep_addr
 2384 000e 5BB2     		sxtb	r3, r3	@ tmp455, ep_addr.32
 2385 0010 002B     		cmp	r3, #0	@ tmp455,
 2386 0012 0EDA     		bge	.L77	@,
 712:Drivers/STM32L1xx_HAL_Driver/stm32l1xx_hal_pcd.cpp ****   {
 713:Drivers/STM32L1xx_HAL_Driver/stm32l1xx_hal_pcd.cpp ****     ep = &hpcd->IN_ep[ep_addr & 0x7F];
 2387              		.loc 1 713 0
 2388 0014 FB78     		ldrb	r3, [r7, #3]	@ zero_extendqisi2	@ D.7147, ep_addr
 2389 0016 03F07F02 		and	r2, r3, #127	@ D.7148, D.7147,
 2390 001a 1346     		mov	r3, r2	@ tmp456, D.7148
 2391 001c 4FEAC303 		lsl	r3, r3, #3	@ tmp456, tmp456,
 2392 0020 9B1A     		subs	r3, r3, r2	@ tmp456, tmp456, D.7148
 2393 0022 4FEA8303 		lsl	r3, r3, #2	@ tmp457, tmp456,
 2394 0026 03F12803 		add	r3, r3, #40	@ tmp458, tmp456,
 2395 002a 7A68     		ldr	r2, [r7, #4]	@ tmp460, hpcd
 2396 002c D318     		adds	r3, r2, r3	@ tmp459, tmp460, tmp458
 2397 002e FB60     		str	r3, [r7, #12]	@ tmp459, ep
 2398 0030 0DE0     		b	.L78	@
 2399              	.L77:
 714:Drivers/STM32L1xx_HAL_Driver/stm32l1xx_hal_pcd.cpp ****   }
 715:Drivers/STM32L1xx_HAL_Driver/stm32l1xx_hal_pcd.cpp ****   else
 716:Drivers/STM32L1xx_HAL_Driver/stm32l1xx_hal_pcd.cpp ****   {
 717:Drivers/STM32L1xx_HAL_Driver/stm32l1xx_hal_pcd.cpp ****     ep = &hpcd->OUT_ep[ep_addr & 0x7F];
 2400              		.loc 1 717 0
 2401 0032 FB78     		ldrb	r3, [r7, #3]	@ zero_extendqisi2	@ D.7150, ep_addr
 2402 0034 03F07F02 		and	r2, r3, #127	@ D.7151, D.7150,
 2403 0038 1346     		mov	r3, r2	@ tmp461, D.7151
 2404 003a 4FEAC303 		lsl	r3, r3, #3	@ tmp461, tmp461,
 2405 003e 9B1A     		subs	r3, r3, r2	@ tmp461, tmp461, D.7151
 2406 0040 4FEA8303 		lsl	r3, r3, #2	@ tmp462, tmp461,
 2407 0044 03F58473 		add	r3, r3, #264	@ tmp463, tmp461,
 2408 0048 7A68     		ldr	r2, [r7, #4]	@ tmp465, hpcd
 2409 004a D318     		adds	r3, r2, r3	@ tmp464, tmp465, tmp463
 2410 004c FB60     		str	r3, [r7, #12]	@ tmp464, ep
 2411              	.L78:
 718:Drivers/STM32L1xx_HAL_Driver/stm32l1xx_hal_pcd.cpp ****   }
 719:Drivers/STM32L1xx_HAL_Driver/stm32l1xx_hal_pcd.cpp ****   ep->num   = ep_addr & 0x7F;
 2412              		.loc 1 719 0
ARM GAS  /tmp/ccS6NUBW.s 			page 56


 2413 004e FB78     		ldrb	r3, [r7, #3]	@ tmp466, ep_addr
 2414 0050 03F07F03 		and	r3, r3, #127	@ tmp467, tmp466,
 2415 0054 DAB2     		uxtb	r2, r3	@ D.7152, tmp467
 2416 0056 FB68     		ldr	r3, [r7, #12]	@ tmp468, ep
 2417 0058 1A70     		strb	r2, [r3, #0]	@ tmp469, ep_1->num
 720:Drivers/STM32L1xx_HAL_Driver/stm32l1xx_hal_pcd.cpp ****   
 721:Drivers/STM32L1xx_HAL_Driver/stm32l1xx_hal_pcd.cpp ****   ep->is_in = (0x80 & ep_addr) != 0;
 2418              		.loc 1 721 0
 2419 005a FB78     		ldrb	r3, [r7, #3]	@ zero_extendqisi2	@ ep_addr.33, ep_addr
 2420 005c 4FEAD313 		lsr	r3, r3, #7	@ tmp471, ep_addr.33,
 2421 0060 DBB2     		uxtb	r3, r3	@ D.7154, tmp471
 2422 0062 1A46     		mov	r2, r3	@ D.7155, D.7154
 2423 0064 FB68     		ldr	r3, [r7, #12]	@ tmp472, ep
 2424 0066 5A70     		strb	r2, [r3, #1]	@ tmp473, ep_1->is_in
 722:Drivers/STM32L1xx_HAL_Driver/stm32l1xx_hal_pcd.cpp ****   
 723:Drivers/STM32L1xx_HAL_Driver/stm32l1xx_hal_pcd.cpp ****   __HAL_LOCK(hpcd); 
 2425              		.loc 1 723 0
 2426 0068 7B68     		ldr	r3, [r7, #4]	@ tmp474, hpcd
 2427 006a 93F8E831 		ldrb	r3, [r3, #488]	@ zero_extendqisi2	@ D.7158, hpcd_7(D)->Lock
 2428 006e 012B     		cmp	r3, #1	@ D.7158,
 2429 0070 02D1     		bne	.L79	@,
 2430              		.loc 1 723 0 is_stmt 0 discriminator 1
 2431 0072 4FF00203 		mov	r3, #2	@ D.7161,
 2432 0076 2AE2     		b	.L80	@
 2433              	.L79:
 2434              		.loc 1 723 0 discriminator 2
 2435 0078 7B68     		ldr	r3, [r7, #4]	@ tmp475, hpcd
 2436 007a 4FF00102 		mov	r2, #1	@ tmp476,
 2437 007e 83F8E821 		strb	r2, [r3, #488]	@ tmp477, hpcd_7(D)->Lock
 2438              	.LBB23:
 724:Drivers/STM32L1xx_HAL_Driver/stm32l1xx_hal_pcd.cpp **** 
 725:Drivers/STM32L1xx_HAL_Driver/stm32l1xx_hal_pcd.cpp ****   if (ep->doublebuffer == 0) 
 2439              		.loc 1 725 0 is_stmt 1 discriminator 2
 2440 0082 FB68     		ldr	r3, [r7, #12]	@ tmp478, ep
 2441 0084 9B7A     		ldrb	r3, [r3, #10]	@ zero_extendqisi2	@ D.7162, ep_1->doublebuffer
 2442 0086 002B     		cmp	r3, #0	@ D.7162,
 2443 0088 40F0A280 		bne	.L81	@,
 2444              	.LBB24:
 2445              	.LBB25:
 726:Drivers/STM32L1xx_HAL_Driver/stm32l1xx_hal_pcd.cpp ****   {
 727:Drivers/STM32L1xx_HAL_Driver/stm32l1xx_hal_pcd.cpp ****     if (ep->is_in)
 2446              		.loc 1 727 0
 2447 008c FB68     		ldr	r3, [r7, #12]	@ tmp479, ep
 2448 008e 5B78     		ldrb	r3, [r3, #1]	@ zero_extendqisi2	@ D.7165, ep_1->is_in
 2449 0090 002B     		cmp	r3, #0	@ D.7165,
 2450 0092 4ED0     		beq	.L82	@,
 2451              	.LBB26:
 728:Drivers/STM32L1xx_HAL_Driver/stm32l1xx_hal_pcd.cpp ****     {
 729:Drivers/STM32L1xx_HAL_Driver/stm32l1xx_hal_pcd.cpp ****       PCD_CLEAR_TX_DTOG(hpcd->Instance, ep->num);
 2452              		.loc 1 729 0
 2453 0094 7B68     		ldr	r3, [r7, #4]	@ tmp480, hpcd
 2454 0096 1B68     		ldr	r3, [r3, #0]	@ D.7169, hpcd_7(D)->Instance
 2455 0098 1A46     		mov	r2, r3	@ D.7170, D.7169
 2456 009a FB68     		ldr	r3, [r7, #12]	@ tmp481, ep
 2457 009c 1B78     		ldrb	r3, [r3, #0]	@ zero_extendqisi2	@ D.7171, ep_1->num
 2458 009e 4FEA8303 		lsl	r3, r3, #2	@ D.7173, D.7172,
 2459 00a2 D318     		adds	r3, r2, r3	@ D.7175, D.7170, D.7174
ARM GAS  /tmp/ccS6NUBW.s 			page 57


 2460 00a4 1B88     		ldrh	r3, [r3, #0]	@ movhi	@ tmp482, *D.7175_26
 2461 00a6 9BB2     		uxth	r3, r3	@ D.7176, tmp482
 2462 00a8 03F04003 		and	r3, r3, #64	@ D.7178, D.7177,
 2463 00ac 002B     		cmp	r3, #0	@ D.7178,
 2464 00ae 0CBF     		ite	eq	@
 2465 00b0 0023     		moveq	r3, #0	@, tmp484
 2466 00b2 0123     		movne	r3, #1	@, tmp484
 2467 00b4 DBB2     		uxtb	r3, r3	@ retval.34, tmp483
 2468 00b6 002B     		cmp	r3, #0	@ retval.34,
 2469 00b8 1CD0     		beq	.L83	@,
 2470              		.loc 1 729 0 is_stmt 0 discriminator 1
 2471 00ba 7B68     		ldr	r3, [r7, #4]	@ tmp485, hpcd
 2472 00bc 1B68     		ldr	r3, [r3, #0]	@ D.7181, hpcd_7(D)->Instance
 2473 00be 1A46     		mov	r2, r3	@ D.7182, D.7181
 2474 00c0 FB68     		ldr	r3, [r7, #12]	@ tmp486, ep
 2475 00c2 1B78     		ldrb	r3, [r3, #0]	@ zero_extendqisi2	@ D.7183, ep_1->num
 2476 00c4 4FEA8303 		lsl	r3, r3, #2	@ D.7185, D.7184,
 2477 00c8 D218     		adds	r2, r2, r3	@ D.7187, D.7182, D.7186
 2478 00ca 7B68     		ldr	r3, [r7, #4]	@ tmp487, hpcd
 2479 00cc 1B68     		ldr	r3, [r3, #0]	@ D.7188, hpcd_7(D)->Instance
 2480 00ce 1946     		mov	r1, r3	@ D.7189, D.7188
 2481 00d0 FB68     		ldr	r3, [r7, #12]	@ tmp488, ep
 2482 00d2 1B78     		ldrb	r3, [r3, #0]	@ zero_extendqisi2	@ D.7190, ep_1->num
 2483 00d4 4FEA8303 		lsl	r3, r3, #2	@ D.7192, D.7191,
 2484 00d8 CB18     		adds	r3, r1, r3	@ D.7194, D.7189, D.7193
 2485 00da 1B88     		ldrh	r3, [r3, #0]	@ movhi	@ tmp489, *D.7194_44
 2486 00dc 99B2     		uxth	r1, r3	@ D.7195, tmp489
 2487 00de 40F60F73 		movw	r3, #3855	@ tmp490,
 2488 00e2 0B40     		ands	r3, r3, r1	@, tmp490, tmp490, D.7195
 2489 00e4 99B2     		uxth	r1, r3	@ D.7196, tmp490
 2490 00e6 48F2C003 		movw	r3, #32960	@ tmp491,
 2491 00ea CFF6FF73 		movt	r3, 65535	@ tmp491,
 2492 00ee 0B43     		orrs	r3, r3, r1	@, tmp491, tmp491, D.7196
 2493 00f0 9BB2     		uxth	r3, r3	@ D.7197, tmp491
 2494 00f2 1380     		strh	r3, [r2, #0]	@ movhi	@ tmp492, *D.7187_37
 2495              	.L83:
 2496              	.LBB27:
 730:Drivers/STM32L1xx_HAL_Driver/stm32l1xx_hal_pcd.cpp ****       /* Configure DISABLE status for the Endpoint*/
 731:Drivers/STM32L1xx_HAL_Driver/stm32l1xx_hal_pcd.cpp ****       PCD_SET_EP_TX_STATUS(hpcd->Instance, ep->num, USB_EP_TX_DIS); 
 2497              		.loc 1 731 0 is_stmt 1
 2498 00f4 7B68     		ldr	r3, [r7, #4]	@ tmp493, hpcd
 2499 00f6 1B68     		ldr	r3, [r3, #0]	@ D.7199, hpcd_7(D)->Instance
 2500 00f8 1A46     		mov	r2, r3	@ D.7200, D.7199
 2501 00fa FB68     		ldr	r3, [r7, #12]	@ tmp494, ep
 2502 00fc 1B78     		ldrb	r3, [r3, #0]	@ zero_extendqisi2	@ D.7201, ep_1->num
 2503 00fe 4FEA8303 		lsl	r3, r3, #2	@ D.7203, D.7202,
 2504 0102 D318     		adds	r3, r2, r3	@ D.7205, D.7200, D.7204
 2505 0104 1B88     		ldrh	r3, [r3, #0]	@ movhi	@ tmp495, *D.7205_54
 2506 0106 9BB2     		uxth	r3, r3	@ D.7206, tmp495
 2507 0108 23F4E043 		bic	r3, r3, #28672	@ tmp496, D.7206,
 2508 010c 23F04003 		bic	r3, r3, #64	@ tmp496, tmp496,
 2509 0110 9CB2     		uxth	r4, r3	@ _wRegVal, tmp496
 2510 0112 7B68     		ldr	r3, [r7, #4]	@ tmp497, hpcd
 2511 0114 1B68     		ldr	r3, [r3, #0]	@ D.7213, hpcd_7(D)->Instance
 2512 0116 1A46     		mov	r2, r3	@ D.7214, D.7213
 2513 0118 FB68     		ldr	r3, [r7, #12]	@ tmp498, ep
 2514 011a 1B78     		ldrb	r3, [r3, #0]	@ zero_extendqisi2	@ D.7215, ep_1->num
ARM GAS  /tmp/ccS6NUBW.s 			page 58


 2515 011c 4FEA8303 		lsl	r3, r3, #2	@ D.7217, D.7216,
 2516 0120 D218     		adds	r2, r2, r3	@ D.7219, D.7214, D.7218
 2517 0122 48F28003 		movw	r3, #32896	@ tmp499,
 2518 0126 CFF6FF73 		movt	r3, 65535	@ tmp499,
 2519 012a 2343     		orrs	r3, r3, r4	@, tmp499, tmp499, _wRegVal
 2520 012c 9BB2     		uxth	r3, r3	@ D.7220, tmp499
 2521 012e 1380     		strh	r3, [r2, #0]	@ movhi	@ tmp500, *D.7219_63
 2522 0130 C6E1     		b	.L84	@
 2523              	.L82:
 2524              	.LBE27:
 2525              	.LBE26:
 2526              	.LBB28:
 732:Drivers/STM32L1xx_HAL_Driver/stm32l1xx_hal_pcd.cpp ****     }
 733:Drivers/STM32L1xx_HAL_Driver/stm32l1xx_hal_pcd.cpp ****     else
 734:Drivers/STM32L1xx_HAL_Driver/stm32l1xx_hal_pcd.cpp ****     {
 735:Drivers/STM32L1xx_HAL_Driver/stm32l1xx_hal_pcd.cpp ****       PCD_CLEAR_RX_DTOG(hpcd->Instance, ep->num);
 2527              		.loc 1 735 0
 2528 0132 7B68     		ldr	r3, [r7, #4]	@ tmp501, hpcd
 2529 0134 1B68     		ldr	r3, [r3, #0]	@ D.7223, hpcd_7(D)->Instance
 2530 0136 1A46     		mov	r2, r3	@ D.7224, D.7223
 2531 0138 FB68     		ldr	r3, [r7, #12]	@ tmp502, ep
 2532 013a 1B78     		ldrb	r3, [r3, #0]	@ zero_extendqisi2	@ D.7225, ep_1->num
 2533 013c 4FEA8303 		lsl	r3, r3, #2	@ D.7227, D.7226,
 2534 0140 D318     		adds	r3, r2, r3	@ D.7229, D.7224, D.7228
 2535 0142 1B88     		ldrh	r3, [r3, #0]	@ movhi	@ tmp503, *D.7229_71
 2536 0144 9BB2     		uxth	r3, r3	@ D.7230, tmp503
 2537 0146 03F48043 		and	r3, r3, #16384	@ D.7232, D.7231,
 2538 014a 002B     		cmp	r3, #0	@ D.7232,
 2539 014c 0CBF     		ite	eq	@
 2540 014e 0023     		moveq	r3, #0	@, tmp505
 2541 0150 0123     		movne	r3, #1	@, tmp505
 2542 0152 DBB2     		uxtb	r3, r3	@ retval.35, tmp504
 2543 0154 002B     		cmp	r3, #0	@ retval.35,
 2544 0156 1CD0     		beq	.L85	@,
 2545              		.loc 1 735 0 is_stmt 0 discriminator 1
 2546 0158 7B68     		ldr	r3, [r7, #4]	@ tmp506, hpcd
 2547 015a 1B68     		ldr	r3, [r3, #0]	@ D.7235, hpcd_7(D)->Instance
 2548 015c 1A46     		mov	r2, r3	@ D.7236, D.7235
 2549 015e FB68     		ldr	r3, [r7, #12]	@ tmp507, ep
 2550 0160 1B78     		ldrb	r3, [r3, #0]	@ zero_extendqisi2	@ D.7237, ep_1->num
 2551 0162 4FEA8303 		lsl	r3, r3, #2	@ D.7239, D.7238,
 2552 0166 D218     		adds	r2, r2, r3	@ D.7241, D.7236, D.7240
 2553 0168 7B68     		ldr	r3, [r7, #4]	@ tmp508, hpcd
 2554 016a 1B68     		ldr	r3, [r3, #0]	@ D.7242, hpcd_7(D)->Instance
 2555 016c 1946     		mov	r1, r3	@ D.7243, D.7242
 2556 016e FB68     		ldr	r3, [r7, #12]	@ tmp509, ep
 2557 0170 1B78     		ldrb	r3, [r3, #0]	@ zero_extendqisi2	@ D.7244, ep_1->num
 2558 0172 4FEA8303 		lsl	r3, r3, #2	@ D.7246, D.7245,
 2559 0176 CB18     		adds	r3, r1, r3	@ D.7248, D.7243, D.7247
 2560 0178 1B88     		ldrh	r3, [r3, #0]	@ movhi	@ tmp510, *D.7248_89
 2561 017a 99B2     		uxth	r1, r3	@ D.7249, tmp510
 2562 017c 40F60F73 		movw	r3, #3855	@ tmp511,
 2563 0180 0B40     		ands	r3, r3, r1	@, tmp511, tmp511, D.7249
 2564 0182 99B2     		uxth	r1, r3	@ D.7250, tmp511
 2565 0184 4CF28003 		movw	r3, #49280	@ tmp512,
 2566 0188 CFF6FF73 		movt	r3, 65535	@ tmp512,
 2567 018c 0B43     		orrs	r3, r3, r1	@, tmp512, tmp512, D.7250
ARM GAS  /tmp/ccS6NUBW.s 			page 59


 2568 018e 9BB2     		uxth	r3, r3	@ D.7251, tmp512
 2569 0190 1380     		strh	r3, [r2, #0]	@ movhi	@ tmp513, *D.7241_82
 2570              	.L85:
 2571              	.LBB29:
 736:Drivers/STM32L1xx_HAL_Driver/stm32l1xx_hal_pcd.cpp ****       /* Configure DISABLE status for the Endpoint*/
 737:Drivers/STM32L1xx_HAL_Driver/stm32l1xx_hal_pcd.cpp ****       PCD_SET_EP_RX_STATUS(hpcd->Instance, ep->num, USB_EP_RX_DIS);
 2572              		.loc 1 737 0 is_stmt 1
 2573 0192 7B68     		ldr	r3, [r7, #4]	@ tmp514, hpcd
 2574 0194 1B68     		ldr	r3, [r3, #0]	@ D.7253, hpcd_7(D)->Instance
 2575 0196 1A46     		mov	r2, r3	@ D.7254, D.7253
 2576 0198 FB68     		ldr	r3, [r7, #12]	@ tmp515, ep
 2577 019a 1B78     		ldrb	r3, [r3, #0]	@ zero_extendqisi2	@ D.7255, ep_1->num
 2578 019c 4FEA8303 		lsl	r3, r3, #2	@ D.7257, D.7256,
 2579 01a0 D318     		adds	r3, r2, r3	@ D.7259, D.7254, D.7258
 2580 01a2 1B88     		ldrh	r3, [r3, #0]	@ movhi	@ tmp516, *D.7259_99
 2581 01a4 9BB2     		uxth	r3, r3	@ D.7260, tmp516
 2582 01a6 23F48043 		bic	r3, r3, #16384	@ tmp517, D.7260,
 2583 01aa 23F07003 		bic	r3, r3, #112	@ tmp517, tmp517,
 2584 01ae 9CB2     		uxth	r4, r3	@ _wRegVal, tmp517
 2585 01b0 7B68     		ldr	r3, [r7, #4]	@ tmp518, hpcd
 2586 01b2 1B68     		ldr	r3, [r3, #0]	@ D.7267, hpcd_7(D)->Instance
 2587 01b4 1A46     		mov	r2, r3	@ D.7268, D.7267
 2588 01b6 FB68     		ldr	r3, [r7, #12]	@ tmp519, ep
 2589 01b8 1B78     		ldrb	r3, [r3, #0]	@ zero_extendqisi2	@ D.7269, ep_1->num
 2590 01ba 4FEA8303 		lsl	r3, r3, #2	@ D.7271, D.7270,
 2591 01be D218     		adds	r2, r2, r3	@ D.7273, D.7268, D.7272
 2592 01c0 48F28003 		movw	r3, #32896	@ tmp520,
 2593 01c4 CFF6FF73 		movt	r3, 65535	@ tmp520,
 2594 01c8 2343     		orrs	r3, r3, r4	@, tmp520, tmp520, _wRegVal
 2595 01ca 9BB2     		uxth	r3, r3	@ D.7274, tmp520
 2596 01cc 1380     		strh	r3, [r2, #0]	@ movhi	@ tmp521, *D.7273_108
 2597 01ce 77E1     		b	.L84	@
 2598              	.L81:
 2599              	.LBE29:
 2600              	.LBE28:
 2601              	.LBE25:
 2602              	.LBE24:
 2603              	.LBB30:
 2604              	.LBB31:
 738:Drivers/STM32L1xx_HAL_Driver/stm32l1xx_hal_pcd.cpp ****     }
 739:Drivers/STM32L1xx_HAL_Driver/stm32l1xx_hal_pcd.cpp ****   }
 740:Drivers/STM32L1xx_HAL_Driver/stm32l1xx_hal_pcd.cpp ****   /*Double Buffer*/
 741:Drivers/STM32L1xx_HAL_Driver/stm32l1xx_hal_pcd.cpp ****   else
 742:Drivers/STM32L1xx_HAL_Driver/stm32l1xx_hal_pcd.cpp ****   { 
 743:Drivers/STM32L1xx_HAL_Driver/stm32l1xx_hal_pcd.cpp ****     if (ep->is_in==0)
 2605              		.loc 1 743 0
 2606 01d0 FB68     		ldr	r3, [r7, #12]	@ tmp522, ep
 2607 01d2 5B78     		ldrb	r3, [r3, #1]	@ zero_extendqisi2	@ D.7276, ep_1->is_in
 2608 01d4 002B     		cmp	r3, #0	@ D.7276,
 2609 01d6 40F0BA80 		bne	.L86	@,
 2610              	.LBB32:
 744:Drivers/STM32L1xx_HAL_Driver/stm32l1xx_hal_pcd.cpp ****     {
 745:Drivers/STM32L1xx_HAL_Driver/stm32l1xx_hal_pcd.cpp ****       /* Clear the data toggle bits for the endpoint IN/OUT*/
 746:Drivers/STM32L1xx_HAL_Driver/stm32l1xx_hal_pcd.cpp ****       PCD_CLEAR_RX_DTOG(hpcd->Instance, ep->num);
 2611              		.loc 1 746 0
 2612 01da 7B68     		ldr	r3, [r7, #4]	@ tmp523, hpcd
 2613 01dc 1B68     		ldr	r3, [r3, #0]	@ D.7280, hpcd_7(D)->Instance
ARM GAS  /tmp/ccS6NUBW.s 			page 60


 2614 01de 1A46     		mov	r2, r3	@ D.7281, D.7280
 2615 01e0 FB68     		ldr	r3, [r7, #12]	@ tmp524, ep
 2616 01e2 1B78     		ldrb	r3, [r3, #0]	@ zero_extendqisi2	@ D.7282, ep_1->num
 2617 01e4 4FEA8303 		lsl	r3, r3, #2	@ D.7284, D.7283,
 2618 01e8 D318     		adds	r3, r2, r3	@ D.7286, D.7281, D.7285
 2619 01ea 1B88     		ldrh	r3, [r3, #0]	@ movhi	@ tmp525, *D.7286_117
 2620 01ec 9BB2     		uxth	r3, r3	@ D.7287, tmp525
 2621 01ee 03F48043 		and	r3, r3, #16384	@ D.7289, D.7288,
 2622 01f2 002B     		cmp	r3, #0	@ D.7289,
 2623 01f4 0CBF     		ite	eq	@
 2624 01f6 0023     		moveq	r3, #0	@, tmp527
 2625 01f8 0123     		movne	r3, #1	@, tmp527
 2626 01fa DBB2     		uxtb	r3, r3	@ retval.36, tmp526
 2627 01fc 002B     		cmp	r3, #0	@ retval.36,
 2628 01fe 1CD0     		beq	.L87	@,
 2629              		.loc 1 746 0 is_stmt 0 discriminator 1
 2630 0200 7B68     		ldr	r3, [r7, #4]	@ tmp528, hpcd
 2631 0202 1B68     		ldr	r3, [r3, #0]	@ D.7292, hpcd_7(D)->Instance
 2632 0204 1A46     		mov	r2, r3	@ D.7293, D.7292
 2633 0206 FB68     		ldr	r3, [r7, #12]	@ tmp529, ep
 2634 0208 1B78     		ldrb	r3, [r3, #0]	@ zero_extendqisi2	@ D.7294, ep_1->num
 2635 020a 4FEA8303 		lsl	r3, r3, #2	@ D.7296, D.7295,
 2636 020e D218     		adds	r2, r2, r3	@ D.7298, D.7293, D.7297
 2637 0210 7B68     		ldr	r3, [r7, #4]	@ tmp530, hpcd
 2638 0212 1B68     		ldr	r3, [r3, #0]	@ D.7299, hpcd_7(D)->Instance
 2639 0214 1946     		mov	r1, r3	@ D.7300, D.7299
 2640 0216 FB68     		ldr	r3, [r7, #12]	@ tmp531, ep
 2641 0218 1B78     		ldrb	r3, [r3, #0]	@ zero_extendqisi2	@ D.7301, ep_1->num
 2642 021a 4FEA8303 		lsl	r3, r3, #2	@ D.7303, D.7302,
 2643 021e CB18     		adds	r3, r1, r3	@ D.7305, D.7300, D.7304
 2644 0220 1B88     		ldrh	r3, [r3, #0]	@ movhi	@ tmp532, *D.7305_135
 2645 0222 99B2     		uxth	r1, r3	@ D.7306, tmp532
 2646 0224 40F60F73 		movw	r3, #3855	@ tmp533,
 2647 0228 0B40     		ands	r3, r3, r1	@, tmp533, tmp533, D.7306
 2648 022a 99B2     		uxth	r1, r3	@ D.7307, tmp533
 2649 022c 4CF28003 		movw	r3, #49280	@ tmp534,
 2650 0230 CFF6FF73 		movt	r3, 65535	@ tmp534,
 2651 0234 0B43     		orrs	r3, r3, r1	@, tmp534, tmp534, D.7307
 2652 0236 9BB2     		uxth	r3, r3	@ D.7308, tmp534
 2653 0238 1380     		strh	r3, [r2, #0]	@ movhi	@ tmp535, *D.7298_128
 2654              	.L87:
 747:Drivers/STM32L1xx_HAL_Driver/stm32l1xx_hal_pcd.cpp ****       PCD_CLEAR_TX_DTOG(hpcd->Instance, ep->num);
 2655              		.loc 1 747 0 is_stmt 1
 2656 023a 7B68     		ldr	r3, [r7, #4]	@ tmp536, hpcd
 2657 023c 1B68     		ldr	r3, [r3, #0]	@ D.7311, hpcd_7(D)->Instance
 2658 023e 1A46     		mov	r2, r3	@ D.7312, D.7311
 2659 0240 FB68     		ldr	r3, [r7, #12]	@ tmp537, ep
 2660 0242 1B78     		ldrb	r3, [r3, #0]	@ zero_extendqisi2	@ D.7313, ep_1->num
 2661 0244 4FEA8303 		lsl	r3, r3, #2	@ D.7315, D.7314,
 2662 0248 D318     		adds	r3, r2, r3	@ D.7317, D.7312, D.7316
 2663 024a 1B88     		ldrh	r3, [r3, #0]	@ movhi	@ tmp538, *D.7317_145
 2664 024c 9BB2     		uxth	r3, r3	@ D.7318, tmp538
 2665 024e 03F04003 		and	r3, r3, #64	@ D.7320, D.7319,
 2666 0252 002B     		cmp	r3, #0	@ D.7320,
 2667 0254 0CBF     		ite	eq	@
 2668 0256 0023     		moveq	r3, #0	@, tmp540
 2669 0258 0123     		movne	r3, #1	@, tmp540
ARM GAS  /tmp/ccS6NUBW.s 			page 61


 2670 025a DBB2     		uxtb	r3, r3	@ retval.37, tmp539
 2671 025c 002B     		cmp	r3, #0	@ retval.37,
 2672 025e 1CD0     		beq	.L88	@,
 2673              		.loc 1 747 0 is_stmt 0 discriminator 1
 2674 0260 7B68     		ldr	r3, [r7, #4]	@ tmp541, hpcd
 2675 0262 1B68     		ldr	r3, [r3, #0]	@ D.7323, hpcd_7(D)->Instance
 2676 0264 1A46     		mov	r2, r3	@ D.7324, D.7323
 2677 0266 FB68     		ldr	r3, [r7, #12]	@ tmp542, ep
 2678 0268 1B78     		ldrb	r3, [r3, #0]	@ zero_extendqisi2	@ D.7325, ep_1->num
 2679 026a 4FEA8303 		lsl	r3, r3, #2	@ D.7327, D.7326,
 2680 026e D218     		adds	r2, r2, r3	@ D.7329, D.7324, D.7328
 2681 0270 7B68     		ldr	r3, [r7, #4]	@ tmp543, hpcd
 2682 0272 1B68     		ldr	r3, [r3, #0]	@ D.7330, hpcd_7(D)->Instance
 2683 0274 1946     		mov	r1, r3	@ D.7331, D.7330
 2684 0276 FB68     		ldr	r3, [r7, #12]	@ tmp544, ep
 2685 0278 1B78     		ldrb	r3, [r3, #0]	@ zero_extendqisi2	@ D.7332, ep_1->num
 2686 027a 4FEA8303 		lsl	r3, r3, #2	@ D.7334, D.7333,
 2687 027e CB18     		adds	r3, r1, r3	@ D.7336, D.7331, D.7335
 2688 0280 1B88     		ldrh	r3, [r3, #0]	@ movhi	@ tmp545, *D.7336_163
 2689 0282 99B2     		uxth	r1, r3	@ D.7337, tmp545
 2690 0284 40F60F73 		movw	r3, #3855	@ tmp546,
 2691 0288 0B40     		ands	r3, r3, r1	@, tmp546, tmp546, D.7337
 2692 028a 99B2     		uxth	r1, r3	@ D.7338, tmp546
 2693 028c 48F2C003 		movw	r3, #32960	@ tmp547,
 2694 0290 CFF6FF73 		movt	r3, 65535	@ tmp547,
 2695 0294 0B43     		orrs	r3, r3, r1	@, tmp547, tmp547, D.7338
 2696 0296 9BB2     		uxth	r3, r3	@ D.7339, tmp547
 2697 0298 1380     		strh	r3, [r2, #0]	@ movhi	@ tmp548, *D.7329_156
 2698              	.L88:
 748:Drivers/STM32L1xx_HAL_Driver/stm32l1xx_hal_pcd.cpp ****       
 749:Drivers/STM32L1xx_HAL_Driver/stm32l1xx_hal_pcd.cpp ****       /* Reset value of the data toggle bits for the endpoint out*/
 750:Drivers/STM32L1xx_HAL_Driver/stm32l1xx_hal_pcd.cpp ****       PCD_TX_DTOG(hpcd->Instance, ep->num);
 2699              		.loc 1 750 0 is_stmt 1
 2700 029a 7B68     		ldr	r3, [r7, #4]	@ tmp549, hpcd
 2701 029c 1B68     		ldr	r3, [r3, #0]	@ D.7341, hpcd_7(D)->Instance
 2702 029e 1A46     		mov	r2, r3	@ D.7342, D.7341
 2703 02a0 FB68     		ldr	r3, [r7, #12]	@ tmp550, ep
 2704 02a2 1B78     		ldrb	r3, [r3, #0]	@ zero_extendqisi2	@ D.7343, ep_1->num
 2705 02a4 4FEA8303 		lsl	r3, r3, #2	@ D.7345, D.7344,
 2706 02a8 D218     		adds	r2, r2, r3	@ D.7347, D.7342, D.7346
 2707 02aa 7B68     		ldr	r3, [r7, #4]	@ tmp551, hpcd
 2708 02ac 1B68     		ldr	r3, [r3, #0]	@ D.7348, hpcd_7(D)->Instance
 2709 02ae 1946     		mov	r1, r3	@ D.7349, D.7348
 2710 02b0 FB68     		ldr	r3, [r7, #12]	@ tmp552, ep
 2711 02b2 1B78     		ldrb	r3, [r3, #0]	@ zero_extendqisi2	@ D.7350, ep_1->num
 2712 02b4 4FEA8303 		lsl	r3, r3, #2	@ D.7352, D.7351,
 2713 02b8 CB18     		adds	r3, r1, r3	@ D.7354, D.7349, D.7353
 2714 02ba 1B88     		ldrh	r3, [r3, #0]	@ movhi	@ tmp553, *D.7354_180
 2715 02bc 99B2     		uxth	r1, r3	@ D.7355, tmp553
 2716 02be 40F60F73 		movw	r3, #3855	@ tmp554,
 2717 02c2 0B40     		ands	r3, r3, r1	@, tmp554, tmp554, D.7355
 2718 02c4 99B2     		uxth	r1, r3	@ D.7356, tmp554
 2719 02c6 48F2C003 		movw	r3, #32960	@ tmp555,
 2720 02ca CFF6FF73 		movt	r3, 65535	@ tmp555,
 2721 02ce 0B43     		orrs	r3, r3, r1	@, tmp555, tmp555, D.7356
 2722 02d0 9BB2     		uxth	r3, r3	@ D.7357, tmp555
 2723 02d2 1380     		strh	r3, [r2, #0]	@ movhi	@ tmp556, *D.7347_173
ARM GAS  /tmp/ccS6NUBW.s 			page 62


 2724              	.LBB33:
 751:Drivers/STM32L1xx_HAL_Driver/stm32l1xx_hal_pcd.cpp ****       
 752:Drivers/STM32L1xx_HAL_Driver/stm32l1xx_hal_pcd.cpp ****       PCD_SET_EP_RX_STATUS(hpcd->Instance, ep->num, USB_EP_RX_DIS);
 2725              		.loc 1 752 0
 2726 02d4 7B68     		ldr	r3, [r7, #4]	@ tmp557, hpcd
 2727 02d6 1B68     		ldr	r3, [r3, #0]	@ D.7358, hpcd_7(D)->Instance
 2728 02d8 1A46     		mov	r2, r3	@ D.7359, D.7358
 2729 02da FB68     		ldr	r3, [r7, #12]	@ tmp558, ep
 2730 02dc 1B78     		ldrb	r3, [r3, #0]	@ zero_extendqisi2	@ D.7360, ep_1->num
 2731 02de 4FEA8303 		lsl	r3, r3, #2	@ D.7362, D.7361,
 2732 02e2 D318     		adds	r3, r2, r3	@ D.7364, D.7359, D.7363
 2733 02e4 1B88     		ldrh	r3, [r3, #0]	@ movhi	@ tmp559, *D.7364_190
 2734 02e6 9BB2     		uxth	r3, r3	@ D.7365, tmp559
 2735 02e8 23F48043 		bic	r3, r3, #16384	@ tmp560, D.7365,
 2736 02ec 23F07003 		bic	r3, r3, #112	@ tmp560, tmp560,
 2737 02f0 9CB2     		uxth	r4, r3	@ _wRegVal, tmp560
 2738 02f2 7B68     		ldr	r3, [r7, #4]	@ tmp561, hpcd
 2739 02f4 1B68     		ldr	r3, [r3, #0]	@ D.7372, hpcd_7(D)->Instance
 2740 02f6 1A46     		mov	r2, r3	@ D.7373, D.7372
 2741 02f8 FB68     		ldr	r3, [r7, #12]	@ tmp562, ep
 2742 02fa 1B78     		ldrb	r3, [r3, #0]	@ zero_extendqisi2	@ D.7374, ep_1->num
 2743 02fc 4FEA8303 		lsl	r3, r3, #2	@ D.7376, D.7375,
 2744 0300 D218     		adds	r2, r2, r3	@ D.7378, D.7373, D.7377
 2745 0302 48F28003 		movw	r3, #32896	@ tmp563,
 2746 0306 CFF6FF73 		movt	r3, 65535	@ tmp563,
 2747 030a 2343     		orrs	r3, r3, r4	@, tmp563, tmp563, _wRegVal
 2748 030c 9BB2     		uxth	r3, r3	@ D.7379, tmp563
 2749 030e 1380     		strh	r3, [r2, #0]	@ movhi	@ tmp564, *D.7378_199
 2750              	.LBE33:
 2751              	.LBB34:
 753:Drivers/STM32L1xx_HAL_Driver/stm32l1xx_hal_pcd.cpp ****       PCD_SET_EP_TX_STATUS(hpcd->Instance, ep->num, USB_EP_TX_DIS);
 2752              		.loc 1 753 0
 2753 0310 7B68     		ldr	r3, [r7, #4]	@ tmp565, hpcd
 2754 0312 1B68     		ldr	r3, [r3, #0]	@ D.7380, hpcd_7(D)->Instance
 2755 0314 1A46     		mov	r2, r3	@ D.7381, D.7380
 2756 0316 FB68     		ldr	r3, [r7, #12]	@ tmp566, ep
 2757 0318 1B78     		ldrb	r3, [r3, #0]	@ zero_extendqisi2	@ D.7382, ep_1->num
 2758 031a 4FEA8303 		lsl	r3, r3, #2	@ D.7384, D.7383,
 2759 031e D318     		adds	r3, r2, r3	@ D.7386, D.7381, D.7385
 2760 0320 1B88     		ldrh	r3, [r3, #0]	@ movhi	@ tmp567, *D.7386_207
 2761 0322 9BB2     		uxth	r3, r3	@ D.7387, tmp567
 2762 0324 23F4E043 		bic	r3, r3, #28672	@ tmp568, D.7387,
 2763 0328 23F04003 		bic	r3, r3, #64	@ tmp568, tmp568,
 2764 032c 9CB2     		uxth	r4, r3	@ _wRegVal, tmp568
 2765 032e 7B68     		ldr	r3, [r7, #4]	@ tmp569, hpcd
 2766 0330 1B68     		ldr	r3, [r3, #0]	@ D.7394, hpcd_7(D)->Instance
 2767 0332 1A46     		mov	r2, r3	@ D.7395, D.7394
 2768 0334 FB68     		ldr	r3, [r7, #12]	@ tmp570, ep
 2769 0336 1B78     		ldrb	r3, [r3, #0]	@ zero_extendqisi2	@ D.7396, ep_1->num
 2770 0338 4FEA8303 		lsl	r3, r3, #2	@ D.7398, D.7397,
 2771 033c D218     		adds	r2, r2, r3	@ D.7400, D.7395, D.7399
 2772 033e 48F28003 		movw	r3, #32896	@ tmp571,
 2773 0342 CFF6FF73 		movt	r3, 65535	@ tmp571,
 2774 0346 2343     		orrs	r3, r3, r4	@, tmp571, tmp571, _wRegVal
 2775 0348 9BB2     		uxth	r3, r3	@ D.7401, tmp571
 2776 034a 1380     		strh	r3, [r2, #0]	@ movhi	@ tmp572, *D.7400_216
 2777 034c B8E0     		b	.L84	@
ARM GAS  /tmp/ccS6NUBW.s 			page 63


 2778              	.L86:
 2779              	.LBE34:
 2780              	.LBE32:
 2781              	.LBB35:
 754:Drivers/STM32L1xx_HAL_Driver/stm32l1xx_hal_pcd.cpp ****     }
 755:Drivers/STM32L1xx_HAL_Driver/stm32l1xx_hal_pcd.cpp ****     else
 756:Drivers/STM32L1xx_HAL_Driver/stm32l1xx_hal_pcd.cpp ****     {
 757:Drivers/STM32L1xx_HAL_Driver/stm32l1xx_hal_pcd.cpp ****       /* Clear the data toggle bits for the endpoint IN/OUT*/
 758:Drivers/STM32L1xx_HAL_Driver/stm32l1xx_hal_pcd.cpp ****       PCD_CLEAR_RX_DTOG(hpcd->Instance, ep->num);
 2782              		.loc 1 758 0
 2783 034e 7B68     		ldr	r3, [r7, #4]	@ tmp573, hpcd
 2784 0350 1B68     		ldr	r3, [r3, #0]	@ D.7404, hpcd_7(D)->Instance
 2785 0352 1A46     		mov	r2, r3	@ D.7405, D.7404
 2786 0354 FB68     		ldr	r3, [r7, #12]	@ tmp574, ep
 2787 0356 1B78     		ldrb	r3, [r3, #0]	@ zero_extendqisi2	@ D.7406, ep_1->num
 2788 0358 4FEA8303 		lsl	r3, r3, #2	@ D.7408, D.7407,
 2789 035c D318     		adds	r3, r2, r3	@ D.7410, D.7405, D.7409
 2790 035e 1B88     		ldrh	r3, [r3, #0]	@ movhi	@ tmp575, *D.7410_224
 2791 0360 9BB2     		uxth	r3, r3	@ D.7411, tmp575
 2792 0362 03F48043 		and	r3, r3, #16384	@ D.7413, D.7412,
 2793 0366 002B     		cmp	r3, #0	@ D.7413,
 2794 0368 0CBF     		ite	eq	@
 2795 036a 0023     		moveq	r3, #0	@, tmp577
 2796 036c 0123     		movne	r3, #1	@, tmp577
 2797 036e DBB2     		uxtb	r3, r3	@ retval.38, tmp576
 2798 0370 002B     		cmp	r3, #0	@ retval.38,
 2799 0372 1CD0     		beq	.L89	@,
 2800              		.loc 1 758 0 is_stmt 0 discriminator 1
 2801 0374 7B68     		ldr	r3, [r7, #4]	@ tmp578, hpcd
 2802 0376 1B68     		ldr	r3, [r3, #0]	@ D.7416, hpcd_7(D)->Instance
 2803 0378 1A46     		mov	r2, r3	@ D.7417, D.7416
 2804 037a FB68     		ldr	r3, [r7, #12]	@ tmp579, ep
 2805 037c 1B78     		ldrb	r3, [r3, #0]	@ zero_extendqisi2	@ D.7418, ep_1->num
 2806 037e 4FEA8303 		lsl	r3, r3, #2	@ D.7420, D.7419,
 2807 0382 D218     		adds	r2, r2, r3	@ D.7422, D.7417, D.7421
 2808 0384 7B68     		ldr	r3, [r7, #4]	@ tmp580, hpcd
 2809 0386 1B68     		ldr	r3, [r3, #0]	@ D.7423, hpcd_7(D)->Instance
 2810 0388 1946     		mov	r1, r3	@ D.7424, D.7423
 2811 038a FB68     		ldr	r3, [r7, #12]	@ tmp581, ep
 2812 038c 1B78     		ldrb	r3, [r3, #0]	@ zero_extendqisi2	@ D.7425, ep_1->num
 2813 038e 4FEA8303 		lsl	r3, r3, #2	@ D.7427, D.7426,
 2814 0392 CB18     		adds	r3, r1, r3	@ D.7429, D.7424, D.7428
 2815 0394 1B88     		ldrh	r3, [r3, #0]	@ movhi	@ tmp582, *D.7429_242
 2816 0396 99B2     		uxth	r1, r3	@ D.7430, tmp582
 2817 0398 40F60F73 		movw	r3, #3855	@ tmp583,
 2818 039c 0B40     		ands	r3, r3, r1	@, tmp583, tmp583, D.7430
 2819 039e 99B2     		uxth	r1, r3	@ D.7431, tmp583
 2820 03a0 4CF28003 		movw	r3, #49280	@ tmp584,
 2821 03a4 CFF6FF73 		movt	r3, 65535	@ tmp584,
 2822 03a8 0B43     		orrs	r3, r3, r1	@, tmp584, tmp584, D.7431
 2823 03aa 9BB2     		uxth	r3, r3	@ D.7432, tmp584
 2824 03ac 1380     		strh	r3, [r2, #0]	@ movhi	@ tmp585, *D.7422_235
 2825              	.L89:
 759:Drivers/STM32L1xx_HAL_Driver/stm32l1xx_hal_pcd.cpp ****       PCD_CLEAR_TX_DTOG(hpcd->Instance, ep->num);
 2826              		.loc 1 759 0 is_stmt 1
 2827 03ae 7B68     		ldr	r3, [r7, #4]	@ tmp586, hpcd
 2828 03b0 1B68     		ldr	r3, [r3, #0]	@ D.7435, hpcd_7(D)->Instance
ARM GAS  /tmp/ccS6NUBW.s 			page 64


 2829 03b2 1A46     		mov	r2, r3	@ D.7436, D.7435
 2830 03b4 FB68     		ldr	r3, [r7, #12]	@ tmp587, ep
 2831 03b6 1B78     		ldrb	r3, [r3, #0]	@ zero_extendqisi2	@ D.7437, ep_1->num
 2832 03b8 4FEA8303 		lsl	r3, r3, #2	@ D.7439, D.7438,
 2833 03bc D318     		adds	r3, r2, r3	@ D.7441, D.7436, D.7440
 2834 03be 1B88     		ldrh	r3, [r3, #0]	@ movhi	@ tmp588, *D.7441_252
 2835 03c0 9BB2     		uxth	r3, r3	@ D.7442, tmp588
 2836 03c2 03F04003 		and	r3, r3, #64	@ D.7444, D.7443,
 2837 03c6 002B     		cmp	r3, #0	@ D.7444,
 2838 03c8 0CBF     		ite	eq	@
 2839 03ca 0023     		moveq	r3, #0	@, tmp590
 2840 03cc 0123     		movne	r3, #1	@, tmp590
 2841 03ce DBB2     		uxtb	r3, r3	@ retval.39, tmp589
 2842 03d0 002B     		cmp	r3, #0	@ retval.39,
 2843 03d2 1CD0     		beq	.L90	@,
 2844              		.loc 1 759 0 is_stmt 0 discriminator 1
 2845 03d4 7B68     		ldr	r3, [r7, #4]	@ tmp591, hpcd
 2846 03d6 1B68     		ldr	r3, [r3, #0]	@ D.7447, hpcd_7(D)->Instance
 2847 03d8 1A46     		mov	r2, r3	@ D.7448, D.7447
 2848 03da FB68     		ldr	r3, [r7, #12]	@ tmp592, ep
 2849 03dc 1B78     		ldrb	r3, [r3, #0]	@ zero_extendqisi2	@ D.7449, ep_1->num
 2850 03de 4FEA8303 		lsl	r3, r3, #2	@ D.7451, D.7450,
 2851 03e2 D218     		adds	r2, r2, r3	@ D.7453, D.7448, D.7452
 2852 03e4 7B68     		ldr	r3, [r7, #4]	@ tmp593, hpcd
 2853 03e6 1B68     		ldr	r3, [r3, #0]	@ D.7454, hpcd_7(D)->Instance
 2854 03e8 1946     		mov	r1, r3	@ D.7455, D.7454
 2855 03ea FB68     		ldr	r3, [r7, #12]	@ tmp594, ep
 2856 03ec 1B78     		ldrb	r3, [r3, #0]	@ zero_extendqisi2	@ D.7456, ep_1->num
 2857 03ee 4FEA8303 		lsl	r3, r3, #2	@ D.7458, D.7457,
 2858 03f2 CB18     		adds	r3, r1, r3	@ D.7460, D.7455, D.7459
 2859 03f4 1B88     		ldrh	r3, [r3, #0]	@ movhi	@ tmp595, *D.7460_270
 2860 03f6 99B2     		uxth	r1, r3	@ D.7461, tmp595
 2861 03f8 40F60F73 		movw	r3, #3855	@ tmp596,
 2862 03fc 0B40     		ands	r3, r3, r1	@, tmp596, tmp596, D.7461
 2863 03fe 99B2     		uxth	r1, r3	@ D.7462, tmp596
 2864 0400 48F2C003 		movw	r3, #32960	@ tmp597,
 2865 0404 CFF6FF73 		movt	r3, 65535	@ tmp597,
 2866 0408 0B43     		orrs	r3, r3, r1	@, tmp597, tmp597, D.7462
 2867 040a 9BB2     		uxth	r3, r3	@ D.7463, tmp597
 2868 040c 1380     		strh	r3, [r2, #0]	@ movhi	@ tmp598, *D.7453_263
 2869              	.L90:
 760:Drivers/STM32L1xx_HAL_Driver/stm32l1xx_hal_pcd.cpp ****       PCD_RX_DTOG(hpcd->Instance, ep->num);
 2870              		.loc 1 760 0 is_stmt 1
 2871 040e 7B68     		ldr	r3, [r7, #4]	@ tmp599, hpcd
 2872 0410 1B68     		ldr	r3, [r3, #0]	@ D.7465, hpcd_7(D)->Instance
 2873 0412 1A46     		mov	r2, r3	@ D.7466, D.7465
 2874 0414 FB68     		ldr	r3, [r7, #12]	@ tmp600, ep
 2875 0416 1B78     		ldrb	r3, [r3, #0]	@ zero_extendqisi2	@ D.7467, ep_1->num
 2876 0418 4FEA8303 		lsl	r3, r3, #2	@ D.7469, D.7468,
 2877 041c D218     		adds	r2, r2, r3	@ D.7471, D.7466, D.7470
 2878 041e 7B68     		ldr	r3, [r7, #4]	@ tmp601, hpcd
 2879 0420 1B68     		ldr	r3, [r3, #0]	@ D.7472, hpcd_7(D)->Instance
 2880 0422 1946     		mov	r1, r3	@ D.7473, D.7472
 2881 0424 FB68     		ldr	r3, [r7, #12]	@ tmp602, ep
 2882 0426 1B78     		ldrb	r3, [r3, #0]	@ zero_extendqisi2	@ D.7474, ep_1->num
 2883 0428 4FEA8303 		lsl	r3, r3, #2	@ D.7476, D.7475,
 2884 042c CB18     		adds	r3, r1, r3	@ D.7478, D.7473, D.7477
ARM GAS  /tmp/ccS6NUBW.s 			page 65


 2885 042e 1B88     		ldrh	r3, [r3, #0]	@ movhi	@ tmp603, *D.7478_287
 2886 0430 99B2     		uxth	r1, r3	@ D.7479, tmp603
 2887 0432 40F60F73 		movw	r3, #3855	@ tmp604,
 2888 0436 0B40     		ands	r3, r3, r1	@, tmp604, tmp604, D.7479
 2889 0438 99B2     		uxth	r1, r3	@ D.7480, tmp604
 2890 043a 4CF28003 		movw	r3, #49280	@ tmp605,
 2891 043e CFF6FF73 		movt	r3, 65535	@ tmp605,
 2892 0442 0B43     		orrs	r3, r3, r1	@, tmp605, tmp605, D.7480
 2893 0444 9BB2     		uxth	r3, r3	@ D.7481, tmp605
 2894 0446 1380     		strh	r3, [r2, #0]	@ movhi	@ tmp606, *D.7471_280
 2895              	.LBB36:
 761:Drivers/STM32L1xx_HAL_Driver/stm32l1xx_hal_pcd.cpp ****       /* Configure DISABLE status for the Endpoint*/
 762:Drivers/STM32L1xx_HAL_Driver/stm32l1xx_hal_pcd.cpp ****       PCD_SET_EP_TX_STATUS(hpcd->Instance, ep->num, USB_EP_TX_DIS);
 2896              		.loc 1 762 0
 2897 0448 7B68     		ldr	r3, [r7, #4]	@ tmp607, hpcd
 2898 044a 1B68     		ldr	r3, [r3, #0]	@ D.7482, hpcd_7(D)->Instance
 2899 044c 1A46     		mov	r2, r3	@ D.7483, D.7482
 2900 044e FB68     		ldr	r3, [r7, #12]	@ tmp608, ep
 2901 0450 1B78     		ldrb	r3, [r3, #0]	@ zero_extendqisi2	@ D.7484, ep_1->num
 2902 0452 4FEA8303 		lsl	r3, r3, #2	@ D.7486, D.7485,
 2903 0456 D318     		adds	r3, r2, r3	@ D.7488, D.7483, D.7487
 2904 0458 1B88     		ldrh	r3, [r3, #0]	@ movhi	@ tmp609, *D.7488_297
 2905 045a 9BB2     		uxth	r3, r3	@ D.7489, tmp609
 2906 045c 23F4E043 		bic	r3, r3, #28672	@ tmp610, D.7489,
 2907 0460 23F04003 		bic	r3, r3, #64	@ tmp610, tmp610,
 2908 0464 9CB2     		uxth	r4, r3	@ _wRegVal, tmp610
 2909 0466 7B68     		ldr	r3, [r7, #4]	@ tmp611, hpcd
 2910 0468 1B68     		ldr	r3, [r3, #0]	@ D.7496, hpcd_7(D)->Instance
 2911 046a 1A46     		mov	r2, r3	@ D.7497, D.7496
 2912 046c FB68     		ldr	r3, [r7, #12]	@ tmp612, ep
 2913 046e 1B78     		ldrb	r3, [r3, #0]	@ zero_extendqisi2	@ D.7498, ep_1->num
 2914 0470 4FEA8303 		lsl	r3, r3, #2	@ D.7500, D.7499,
 2915 0474 D218     		adds	r2, r2, r3	@ D.7502, D.7497, D.7501
 2916 0476 48F28003 		movw	r3, #32896	@ tmp613,
 2917 047a CFF6FF73 		movt	r3, 65535	@ tmp613,
 2918 047e 2343     		orrs	r3, r3, r4	@, tmp613, tmp613, _wRegVal
 2919 0480 9BB2     		uxth	r3, r3	@ D.7503, tmp613
 2920 0482 1380     		strh	r3, [r2, #0]	@ movhi	@ tmp614, *D.7502_306
 2921              	.LBE36:
 2922              	.LBB37:
 763:Drivers/STM32L1xx_HAL_Driver/stm32l1xx_hal_pcd.cpp ****       PCD_SET_EP_RX_STATUS(hpcd->Instance, ep->num, USB_EP_RX_DIS);
 2923              		.loc 1 763 0
 2924 0484 7B68     		ldr	r3, [r7, #4]	@ tmp615, hpcd
 2925 0486 1B68     		ldr	r3, [r3, #0]	@ D.7504, hpcd_7(D)->Instance
 2926 0488 1A46     		mov	r2, r3	@ D.7505, D.7504
 2927 048a FB68     		ldr	r3, [r7, #12]	@ tmp616, ep
 2928 048c 1B78     		ldrb	r3, [r3, #0]	@ zero_extendqisi2	@ D.7506, ep_1->num
 2929 048e 4FEA8303 		lsl	r3, r3, #2	@ D.7508, D.7507,
 2930 0492 D318     		adds	r3, r2, r3	@ D.7510, D.7505, D.7509
 2931 0494 1B88     		ldrh	r3, [r3, #0]	@ movhi	@ tmp617, *D.7510_314
 2932 0496 9BB2     		uxth	r3, r3	@ D.7511, tmp617
 2933 0498 23F48043 		bic	r3, r3, #16384	@ tmp618, D.7511,
 2934 049c 23F07003 		bic	r3, r3, #112	@ tmp618, tmp618,
 2935 04a0 9CB2     		uxth	r4, r3	@ _wRegVal, tmp618
 2936 04a2 7B68     		ldr	r3, [r7, #4]	@ tmp619, hpcd
 2937 04a4 1B68     		ldr	r3, [r3, #0]	@ D.7518, hpcd_7(D)->Instance
 2938 04a6 1A46     		mov	r2, r3	@ D.7519, D.7518
ARM GAS  /tmp/ccS6NUBW.s 			page 66


 2939 04a8 FB68     		ldr	r3, [r7, #12]	@ tmp620, ep
 2940 04aa 1B78     		ldrb	r3, [r3, #0]	@ zero_extendqisi2	@ D.7520, ep_1->num
 2941 04ac 4FEA8303 		lsl	r3, r3, #2	@ D.7522, D.7521,
 2942 04b0 D218     		adds	r2, r2, r3	@ D.7524, D.7519, D.7523
 2943 04b2 48F28003 		movw	r3, #32896	@ tmp621,
 2944 04b6 CFF6FF73 		movt	r3, 65535	@ tmp621,
 2945 04ba 2343     		orrs	r3, r3, r4	@, tmp621, tmp621, _wRegVal
 2946 04bc 9BB2     		uxth	r3, r3	@ D.7525, tmp621
 2947 04be 1380     		strh	r3, [r2, #0]	@ movhi	@ tmp622, *D.7524_323
 2948              	.L84:
 2949              	.LBE37:
 2950              	.LBE35:
 2951              	.LBE31:
 2952              	.LBE30:
 2953              	.LBE23:
 764:Drivers/STM32L1xx_HAL_Driver/stm32l1xx_hal_pcd.cpp ****     }
 765:Drivers/STM32L1xx_HAL_Driver/stm32l1xx_hal_pcd.cpp ****   } 
 766:Drivers/STM32L1xx_HAL_Driver/stm32l1xx_hal_pcd.cpp ****   
 767:Drivers/STM32L1xx_HAL_Driver/stm32l1xx_hal_pcd.cpp ****   __HAL_UNLOCK(hpcd);   
 2954              		.loc 1 767 0
 2955 04c0 7B68     		ldr	r3, [r7, #4]	@ tmp623, hpcd
 2956 04c2 4FF00002 		mov	r2, #0	@ tmp624,
 2957 04c6 83F8E821 		strb	r2, [r3, #488]	@ tmp625, hpcd_7(D)->Lock
 768:Drivers/STM32L1xx_HAL_Driver/stm32l1xx_hal_pcd.cpp ****   return HAL_OK;
 2958              		.loc 1 768 0
 2959 04ca 4FF00003 		mov	r3, #0	@ D.7161,
 2960              	.L80:
 2961              	.LBE22:
 769:Drivers/STM32L1xx_HAL_Driver/stm32l1xx_hal_pcd.cpp **** }
 2962              		.loc 1 769 0
 2963 04ce 1846     		mov	r0, r3	@, <retval>
 2964 04d0 07F11007 		add	r7, r7, #16	@,,
 2965 04d4 BD46     		mov	sp, r7
 2966 04d6 90BC     		pop	{r4, r7}
 2967 04d8 7047     		bx	lr
 2968              		.cfi_endproc
 2969              	.LFE78:
 2970              		.size	HAL_PCD_EP_Close, .-HAL_PCD_EP_Close
 2971 04da 00BF     		.section	.text.HAL_PCD_EP_Receive,"ax",%progbits
 2972              		.align	2
 2973              		.global	HAL_PCD_EP_Receive
 2974              		.thumb
 2975              		.thumb_func
 2976              		.type	HAL_PCD_EP_Receive, %function
 2977              	HAL_PCD_EP_Receive:
 2978              	.LFB79:
 770:Drivers/STM32L1xx_HAL_Driver/stm32l1xx_hal_pcd.cpp **** 
 771:Drivers/STM32L1xx_HAL_Driver/stm32l1xx_hal_pcd.cpp **** 
 772:Drivers/STM32L1xx_HAL_Driver/stm32l1xx_hal_pcd.cpp **** /**
 773:Drivers/STM32L1xx_HAL_Driver/stm32l1xx_hal_pcd.cpp ****   * @brief  Receive an amount of data  
 774:Drivers/STM32L1xx_HAL_Driver/stm32l1xx_hal_pcd.cpp ****   * @param  hpcd: PCD handle
 775:Drivers/STM32L1xx_HAL_Driver/stm32l1xx_hal_pcd.cpp ****   * @param  ep_addr: endpoint address
 776:Drivers/STM32L1xx_HAL_Driver/stm32l1xx_hal_pcd.cpp ****   * @param  pBuf: pointer to the reception buffer   
 777:Drivers/STM32L1xx_HAL_Driver/stm32l1xx_hal_pcd.cpp ****   * @param  len: amount of data to be received
 778:Drivers/STM32L1xx_HAL_Driver/stm32l1xx_hal_pcd.cpp ****   * @retval HAL status
 779:Drivers/STM32L1xx_HAL_Driver/stm32l1xx_hal_pcd.cpp ****   */
 780:Drivers/STM32L1xx_HAL_Driver/stm32l1xx_hal_pcd.cpp **** HAL_StatusTypeDef HAL_PCD_EP_Receive(PCD_HandleTypeDef *hpcd, uint8_t ep_addr, uint8_t *pBuf, uint3
ARM GAS  /tmp/ccS6NUBW.s 			page 67


 781:Drivers/STM32L1xx_HAL_Driver/stm32l1xx_hal_pcd.cpp **** {
 2979              		.loc 1 781 0
 2980              		.cfi_startproc
 2981              		@ args = 0, pretend = 0, frame = 32
 2982              		@ frame_needed = 1, uses_anonymous_args = 0
 2983              		@ link register save eliminated.
 2984 0000 90B4     		push	{r4, r7}	@
 2985              	.LCFI69:
 2986              		.cfi_def_cfa_offset 8
 2987              		.cfi_offset 4, -8
 2988              		.cfi_offset 7, -4
 2989 0002 88B0     		sub	sp, sp, #32	@,,
 2990              	.LCFI70:
 2991              		.cfi_def_cfa_offset 40
 2992 0004 00AF     		add	r7, sp, #0	@,,
 2993              	.LCFI71:
 2994              		.cfi_def_cfa_register 7
 2995 0006 F860     		str	r0, [r7, #12]	@ hpcd, hpcd
 2996 0008 7A60     		str	r2, [r7, #4]	@ pBuf, pBuf
 2997 000a 3B60     		str	r3, [r7, #0]	@ len, len
 2998 000c 0B46     		mov	r3, r1	@ tmp226, tmp225
 2999 000e FB72     		strb	r3, [r7, #11]	@ tmp226, ep_addr
 3000              	.LBB38:
 782:Drivers/STM32L1xx_HAL_Driver/stm32l1xx_hal_pcd.cpp ****   
 783:Drivers/STM32L1xx_HAL_Driver/stm32l1xx_hal_pcd.cpp ****  PCD_EPTypeDef *ep;
 784:Drivers/STM32L1xx_HAL_Driver/stm32l1xx_hal_pcd.cpp ****   
 785:Drivers/STM32L1xx_HAL_Driver/stm32l1xx_hal_pcd.cpp ****   ep = &hpcd->OUT_ep[ep_addr & 0x7F];
 3001              		.loc 1 785 0
 3002 0010 FB7A     		ldrb	r3, [r7, #11]	@ zero_extendqisi2	@ D.7018, ep_addr
 3003 0012 03F07F02 		and	r2, r3, #127	@ D.7019, D.7018,
 3004 0016 1346     		mov	r3, r2	@ tmp227, D.7019
 3005 0018 4FEAC303 		lsl	r3, r3, #3	@ tmp227, tmp227,
 3006 001c 9B1A     		subs	r3, r3, r2	@ tmp227, tmp227, D.7019
 3007 001e 4FEA8303 		lsl	r3, r3, #2	@ tmp228, tmp227,
 3008 0022 03F58473 		add	r3, r3, #264	@ tmp229, tmp227,
 3009 0026 FA68     		ldr	r2, [r7, #12]	@ tmp231, hpcd
 3010 0028 D318     		adds	r3, r2, r3	@ tmp230, tmp231, tmp229
 3011 002a BB61     		str	r3, [r7, #24]	@ tmp230, ep
 786:Drivers/STM32L1xx_HAL_Driver/stm32l1xx_hal_pcd.cpp ****   
 787:Drivers/STM32L1xx_HAL_Driver/stm32l1xx_hal_pcd.cpp ****   /*setup and start the Xfer */
 788:Drivers/STM32L1xx_HAL_Driver/stm32l1xx_hal_pcd.cpp ****   ep->xfer_buff = pBuf;  
 3012              		.loc 1 788 0
 3013 002c BB69     		ldr	r3, [r7, #24]	@ tmp232, ep
 3014 002e 7A68     		ldr	r2, [r7, #4]	@ tmp233, pBuf
 3015 0030 1A61     		str	r2, [r3, #16]	@ tmp233, ep_11->xfer_buff
 789:Drivers/STM32L1xx_HAL_Driver/stm32l1xx_hal_pcd.cpp ****   ep->xfer_len = len;
 3016              		.loc 1 789 0
 3017 0032 BB69     		ldr	r3, [r7, #24]	@ tmp234, ep
 3018 0034 3A68     		ldr	r2, [r7, #0]	@ tmp235, len
 3019 0036 5A61     		str	r2, [r3, #20]	@ tmp235, ep_11->xfer_len
 790:Drivers/STM32L1xx_HAL_Driver/stm32l1xx_hal_pcd.cpp ****   ep->xfer_count = 0;
 3020              		.loc 1 790 0
 3021 0038 BB69     		ldr	r3, [r7, #24]	@ tmp236, ep
 3022 003a 4FF00002 		mov	r2, #0	@ tmp237,
 3023 003e 9A61     		str	r2, [r3, #24]	@ tmp237, ep_11->xfer_count
 791:Drivers/STM32L1xx_HAL_Driver/stm32l1xx_hal_pcd.cpp ****   ep->is_in = 0;
 3024              		.loc 1 791 0
ARM GAS  /tmp/ccS6NUBW.s 			page 68


 3025 0040 BB69     		ldr	r3, [r7, #24]	@ tmp238, ep
 3026 0042 4FF00002 		mov	r2, #0	@ tmp239,
 3027 0046 5A70     		strb	r2, [r3, #1]	@ tmp240, ep_11->is_in
 792:Drivers/STM32L1xx_HAL_Driver/stm32l1xx_hal_pcd.cpp ****   ep->num = ep_addr & 0x7F;
 3028              		.loc 1 792 0
 3029 0048 FB7A     		ldrb	r3, [r7, #11]	@ tmp241, ep_addr
 3030 004a 03F07F03 		and	r3, r3, #127	@ tmp242, tmp241,
 3031 004e DAB2     		uxtb	r2, r3	@ D.7020, tmp242
 3032 0050 BB69     		ldr	r3, [r7, #24]	@ tmp243, ep
 3033 0052 1A70     		strb	r2, [r3, #0]	@ tmp244, ep_11->num
 793:Drivers/STM32L1xx_HAL_Driver/stm32l1xx_hal_pcd.cpp ****    
 794:Drivers/STM32L1xx_HAL_Driver/stm32l1xx_hal_pcd.cpp ****   __HAL_LOCK(hpcd); 
 3034              		.loc 1 794 0
 3035 0054 FB68     		ldr	r3, [r7, #12]	@ tmp245, hpcd
 3036 0056 93F8E831 		ldrb	r3, [r3, #488]	@ zero_extendqisi2	@ D.7023, hpcd_10(D)->Lock
 3037 005a 012B     		cmp	r3, #1	@ D.7023,
 3038 005c 02D1     		bne	.L92	@,
 3039              		.loc 1 794 0 is_stmt 0 discriminator 1
 3040 005e 4FF00203 		mov	r3, #2	@ D.7026,
 3041 0062 F9E0     		b	.L93	@
 3042              	.L92:
 3043              		.loc 1 794 0 discriminator 2
 3044 0064 FB68     		ldr	r3, [r7, #12]	@ tmp246, hpcd
 3045 0066 4FF00102 		mov	r2, #1	@ tmp247,
 3046 006a 83F8E821 		strb	r2, [r3, #488]	@ tmp248, hpcd_10(D)->Lock
 795:Drivers/STM32L1xx_HAL_Driver/stm32l1xx_hal_pcd.cpp ****    
 796:Drivers/STM32L1xx_HAL_Driver/stm32l1xx_hal_pcd.cpp ****   /* Multi packet transfer*/
 797:Drivers/STM32L1xx_HAL_Driver/stm32l1xx_hal_pcd.cpp ****   if (ep->xfer_len > ep->maxpacket)
 3047              		.loc 1 797 0 is_stmt 1 discriminator 2
 3048 006e BB69     		ldr	r3, [r7, #24]	@ tmp249, ep
 3049 0070 5A69     		ldr	r2, [r3, #20]	@ D.7027, ep_11->xfer_len
 3050 0072 BB69     		ldr	r3, [r7, #24]	@ tmp250, ep
 3051 0074 DB68     		ldr	r3, [r3, #12]	@ D.7028, ep_11->maxpacket
 3052 0076 9A42     		cmp	r2, r3	@ D.7027, D.7028
 3053 0078 09D9     		bls	.L94	@,
 798:Drivers/STM32L1xx_HAL_Driver/stm32l1xx_hal_pcd.cpp ****   {
 799:Drivers/STM32L1xx_HAL_Driver/stm32l1xx_hal_pcd.cpp ****     len=ep->maxpacket;
 3054              		.loc 1 799 0
 3055 007a BB69     		ldr	r3, [r7, #24]	@ tmp251, ep
 3056 007c DB68     		ldr	r3, [r3, #12]	@ tmp252, ep_11->maxpacket
 3057 007e 3B60     		str	r3, [r7, #0]	@ tmp252, len
 800:Drivers/STM32L1xx_HAL_Driver/stm32l1xx_hal_pcd.cpp ****     ep->xfer_len-=len; 
 3058              		.loc 1 800 0
 3059 0080 BB69     		ldr	r3, [r7, #24]	@ tmp253, ep
 3060 0082 5A69     		ldr	r2, [r3, #20]	@ D.7031, ep_11->xfer_len
 3061 0084 3B68     		ldr	r3, [r7, #0]	@ tmp254, len
 3062 0086 D21A     		subs	r2, r2, r3	@ D.7032, D.7031, tmp254
 3063 0088 BB69     		ldr	r3, [r7, #24]	@ tmp255, ep
 3064 008a 5A61     		str	r2, [r3, #20]	@ D.7032, ep_11->xfer_len
 3065 008c 06E0     		b	.L95	@
 3066              	.L94:
 801:Drivers/STM32L1xx_HAL_Driver/stm32l1xx_hal_pcd.cpp ****   }
 802:Drivers/STM32L1xx_HAL_Driver/stm32l1xx_hal_pcd.cpp ****   else
 803:Drivers/STM32L1xx_HAL_Driver/stm32l1xx_hal_pcd.cpp ****   {
 804:Drivers/STM32L1xx_HAL_Driver/stm32l1xx_hal_pcd.cpp ****     len=ep->xfer_len;
 3067              		.loc 1 804 0
 3068 008e BB69     		ldr	r3, [r7, #24]	@ tmp256, ep
ARM GAS  /tmp/ccS6NUBW.s 			page 69


 3069 0090 5B69     		ldr	r3, [r3, #20]	@ tmp257, ep_11->xfer_len
 3070 0092 3B60     		str	r3, [r7, #0]	@ tmp257, len
 805:Drivers/STM32L1xx_HAL_Driver/stm32l1xx_hal_pcd.cpp ****     ep->xfer_len =0;
 3071              		.loc 1 805 0
 3072 0094 BB69     		ldr	r3, [r7, #24]	@ tmp258, ep
 3073 0096 4FF00002 		mov	r2, #0	@ tmp259,
 3074 009a 5A61     		str	r2, [r3, #20]	@ tmp259, ep_11->xfer_len
 3075              	.L95:
 3076              	.LBB39:
 806:Drivers/STM32L1xx_HAL_Driver/stm32l1xx_hal_pcd.cpp ****   }
 807:Drivers/STM32L1xx_HAL_Driver/stm32l1xx_hal_pcd.cpp ****   
 808:Drivers/STM32L1xx_HAL_Driver/stm32l1xx_hal_pcd.cpp ****   /* configure and validate Rx endpoint */
 809:Drivers/STM32L1xx_HAL_Driver/stm32l1xx_hal_pcd.cpp ****   if (ep->doublebuffer == 0) 
 3077              		.loc 1 809 0
 3078 009c BB69     		ldr	r3, [r7, #24]	@ tmp260, ep
 3079 009e 9B7A     		ldrb	r3, [r3, #10]	@ zero_extendqisi2	@ D.7034, ep_11->doublebuffer
 3080 00a0 002B     		cmp	r3, #0	@ D.7034,
 3081 00a2 47D1     		bne	.L96	@,
 3082              	.LBB40:
 3083              	.LBB41:
 810:Drivers/STM32L1xx_HAL_Driver/stm32l1xx_hal_pcd.cpp ****   {
 811:Drivers/STM32L1xx_HAL_Driver/stm32l1xx_hal_pcd.cpp ****     /*Set RX buffer count*/
 812:Drivers/STM32L1xx_HAL_Driver/stm32l1xx_hal_pcd.cpp ****     PCD_SET_EP_RX_CNT(hpcd->Instance, ep->num, len);
 3084              		.loc 1 812 0
 3085 00a4 FB68     		ldr	r3, [r7, #12]	@ tmp261, hpcd
 3086 00a6 1B68     		ldr	r3, [r3, #0]	@ D.7037, hpcd_10(D)->Instance
 3087 00a8 B3F85030 		ldrh	r3, [r3, #80]	@ movhi	@ tmp263, D.7037_24->BTABLE
 3088 00ac 9BB2     		uxth	r3, r3	@ D.7038, tmp263
 3089 00ae 1A46     		mov	r2, r3	@ D.7039, D.7038
 3090 00b0 BB69     		ldr	r3, [r7, #24]	@ tmp264, ep
 3091 00b2 1B78     		ldrb	r3, [r3, #0]	@ zero_extendqisi2	@ D.7040, ep_11->num
 3092 00b4 4FEAC303 		lsl	r3, r3, #3	@ D.7042, D.7041,
 3093 00b8 D318     		adds	r3, r2, r3	@ D.7043, D.7039, D.7042
 3094 00ba 03F10603 		add	r3, r3, #6	@ D.7044, D.7043,
 3095 00be 4FEA4303 		lsl	r3, r3, #1	@ D.7045, D.7044,
 3096 00c2 1A46     		mov	r2, r3	@ D.7046, D.7045
 3097 00c4 FB68     		ldr	r3, [r7, #12]	@ tmp265, hpcd
 3098 00c6 1B68     		ldr	r3, [r3, #0]	@ D.7047, hpcd_10(D)->Instance
 3099 00c8 D318     		adds	r3, r2, r3	@ D.7049, D.7046, D.7048
 3100 00ca 03F58063 		add	r3, r3, #1024	@ D.7050, D.7049,
 3101 00ce 7B61     		str	r3, [r7, #20]	@ D.7050, pdwReg
 3102              	.LBB42:
 3103 00d0 3B68     		ldr	r3, [r7, #0]	@ tmp266, len
 3104 00d2 3E2B     		cmp	r3, #62	@ tmp266,
 3105 00d4 19D9     		bls	.L97	@,
 3106              		.loc 1 812 0 is_stmt 0 discriminator 1
 3107 00d6 3B68     		ldr	r3, [r7, #0]	@ tmp267, len
 3108 00d8 4FEA5313 		lsr	r3, r3, #5	@ D.7053, tmp267,
 3109 00dc FB83     		strh	r3, [r7, #30]	@ movhi	@ tmp268, wNBlocks
 3110 00de 3B68     		ldr	r3, [r7, #0]	@ tmp269, len
 3111 00e0 03F01F03 		and	r3, r3, #31	@ D.7054, tmp269,
 3112 00e4 002B     		cmp	r3, #0	@ D.7054,
 3113 00e6 03D1     		bne	.L98	@,
 3114              		.loc 1 812 0 discriminator 3
 3115 00e8 FB8B     		ldrh	r3, [r7, #30]	@ movhi	@ tmp270, wNBlocks
 3116 00ea 03F1FF33 		add	r3, r3, #-1	@ tmp271, tmp270,
 3117 00ee FB83     		strh	r3, [r7, #30]	@ movhi	@ tmp272, wNBlocks
ARM GAS  /tmp/ccS6NUBW.s 			page 70


 3118              	.L98:
 3119              		.loc 1 812 0 discriminator 4
 3120 00f0 FB8B     		ldrh	r3, [r7, #30]	@ movhi	@ tmp273, wNBlocks
 3121 00f2 4FEA8323 		lsl	r3, r3, #10	@ tmp274, tmp273,
 3122 00f6 9BB2     		uxth	r3, r3	@ D.7058, tmp274
 3123 00f8 6FEA4343 		mvn	r3, r3, lsl #17	@ tmp275, D.7058,
 3124 00fc 6FEA5343 		mvn	r3, r3, lsr #17	@ tmp275, tmp275,
 3125 0100 9BB2     		uxth	r3, r3	@ D.7059, tmp275
 3126 0102 1A46     		mov	r2, r3	@ D.7060, D.7059
 3127 0104 7B69     		ldr	r3, [r7, #20]	@ tmp276, pdwReg
 3128 0106 1A60     		str	r2, [r3, #0]	@ D.7060, *pdwReg_38
 3129 0108 7BE0     		b	.L99	@
 3130              	.L97:
 3131              		.loc 1 812 0 discriminator 2
 3132 010a 3B68     		ldr	r3, [r7, #0]	@ tmp277, len
 3133 010c 4FEA5303 		lsr	r3, r3, #1	@ D.7062, tmp277,
 3134 0110 FB83     		strh	r3, [r7, #30]	@ movhi	@ tmp278, wNBlocks
 3135 0112 3B68     		ldr	r3, [r7, #0]	@ tmp279, len
 3136 0114 03F00103 		and	r3, r3, #1	@ D.7063, tmp279,
 3137 0118 002B     		cmp	r3, #0	@ D.7063,
 3138 011a 03D0     		beq	.L100	@,
 3139              		.loc 1 812 0 discriminator 5
 3140 011c FB8B     		ldrh	r3, [r7, #30]	@ movhi	@ tmp280, wNBlocks
 3141 011e 03F10103 		add	r3, r3, #1	@ tmp281, tmp280,
 3142 0122 FB83     		strh	r3, [r7, #30]	@ movhi	@ tmp282, wNBlocks
 3143              	.L100:
 3144              		.loc 1 812 0 discriminator 6
 3145 0124 FB8B     		ldrh	r3, [r7, #30]	@ movhi	@ tmp283, wNBlocks
 3146 0126 4FEA8323 		lsl	r3, r3, #10	@ tmp284, tmp283,
 3147 012a 9BB2     		uxth	r3, r3	@ D.7067, tmp284
 3148 012c 1A46     		mov	r2, r3	@ D.7068, D.7067
 3149 012e 7B69     		ldr	r3, [r7, #20]	@ tmp285, pdwReg
 3150 0130 1A60     		str	r2, [r3, #0]	@ D.7068, *pdwReg_38
 3151 0132 66E0     		b	.L99	@
 3152              	.L96:
 3153              	.LBE42:
 3154              	.LBE41:
 3155              	.LBE40:
 3156              	.LBB43:
 3157              	.LBB44:
 3158              	.LBB45:
 813:Drivers/STM32L1xx_HAL_Driver/stm32l1xx_hal_pcd.cpp ****   }
 814:Drivers/STM32L1xx_HAL_Driver/stm32l1xx_hal_pcd.cpp ****   else
 815:Drivers/STM32L1xx_HAL_Driver/stm32l1xx_hal_pcd.cpp ****   {
 816:Drivers/STM32L1xx_HAL_Driver/stm32l1xx_hal_pcd.cpp ****     /*Set the Double buffer counter*/
 817:Drivers/STM32L1xx_HAL_Driver/stm32l1xx_hal_pcd.cpp ****     PCD_SET_EP_DBUF1_CNT(hpcd->Instance, ep->num, ep->is_in, len);
 3159              		.loc 1 817 0 is_stmt 1
 3160 0134 BB69     		ldr	r3, [r7, #24]	@ tmp286, ep
 3161 0136 5B78     		ldrb	r3, [r3, #1]	@ zero_extendqisi2	@ D.7070, ep_11->is_in
 3162 0138 002B     		cmp	r3, #0	@ D.7070,
 3163 013a 47D1     		bne	.L101	@,
 3164              	.LBB46:
 3165              	.LBB47:
 3166              		.loc 1 817 0 is_stmt 0 discriminator 1
 3167 013c FB68     		ldr	r3, [r7, #12]	@ tmp287, hpcd
 3168 013e 1B68     		ldr	r3, [r3, #0]	@ D.7073, hpcd_10(D)->Instance
 3169 0140 B3F85030 		ldrh	r3, [r3, #80]	@ movhi	@ tmp289, D.7073_53->BTABLE
ARM GAS  /tmp/ccS6NUBW.s 			page 71


 3170 0144 9BB2     		uxth	r3, r3	@ D.7074, tmp289
 3171 0146 1A46     		mov	r2, r3	@ D.7075, D.7074
 3172 0148 BB69     		ldr	r3, [r7, #24]	@ tmp290, ep
 3173 014a 1B78     		ldrb	r3, [r3, #0]	@ zero_extendqisi2	@ D.7076, ep_11->num
 3174 014c 4FEAC303 		lsl	r3, r3, #3	@ D.7078, D.7077,
 3175 0150 D318     		adds	r3, r2, r3	@ D.7079, D.7075, D.7078
 3176 0152 03F10603 		add	r3, r3, #6	@ D.7080, D.7079,
 3177 0156 4FEA4303 		lsl	r3, r3, #1	@ D.7081, D.7080,
 3178 015a 1A46     		mov	r2, r3	@ D.7082, D.7081
 3179 015c FB68     		ldr	r3, [r7, #12]	@ tmp291, hpcd
 3180 015e 1B68     		ldr	r3, [r3, #0]	@ D.7083, hpcd_10(D)->Instance
 3181 0160 D318     		adds	r3, r2, r3	@ D.7085, D.7082, D.7084
 3182 0162 03F58063 		add	r3, r3, #1024	@ D.7086, D.7085,
 3183 0166 3B61     		str	r3, [r7, #16]	@ D.7086, pdwReg
 3184              	.LBB48:
 3185 0168 3B68     		ldr	r3, [r7, #0]	@ tmp292, len
 3186 016a 3E2B     		cmp	r3, #62	@ tmp292,
 3187 016c 19D9     		bls	.L102	@,
 3188              		.loc 1 817 0 discriminator 3
 3189 016e 3B68     		ldr	r3, [r7, #0]	@ tmp293, len
 3190 0170 4FEA5313 		lsr	r3, r3, #5	@ D.7089, tmp293,
 3191 0174 BB83     		strh	r3, [r7, #28]	@ movhi	@ tmp294, wNBlocks
 3192 0176 3B68     		ldr	r3, [r7, #0]	@ tmp295, len
 3193 0178 03F01F03 		and	r3, r3, #31	@ D.7090, tmp295,
 3194 017c 002B     		cmp	r3, #0	@ D.7090,
 3195 017e 03D1     		bne	.L103	@,
 3196              		.loc 1 817 0 discriminator 5
 3197 0180 BB8B     		ldrh	r3, [r7, #28]	@ movhi	@ tmp296, wNBlocks
 3198 0182 03F1FF33 		add	r3, r3, #-1	@ tmp297, tmp296,
 3199 0186 BB83     		strh	r3, [r7, #28]	@ movhi	@ tmp298, wNBlocks
 3200              	.L103:
 3201              		.loc 1 817 0 discriminator 6
 3202 0188 BB8B     		ldrh	r3, [r7, #28]	@ movhi	@ tmp299, wNBlocks
 3203 018a 4FEA8323 		lsl	r3, r3, #10	@ tmp300, tmp299,
 3204 018e 9BB2     		uxth	r3, r3	@ D.7094, tmp300
 3205 0190 6FEA4343 		mvn	r3, r3, lsl #17	@ tmp301, D.7094,
 3206 0194 6FEA5343 		mvn	r3, r3, lsr #17	@ tmp301, tmp301,
 3207 0198 9BB2     		uxth	r3, r3	@ D.7095, tmp301
 3208 019a 1A46     		mov	r2, r3	@ D.7096, D.7095
 3209 019c 3B69     		ldr	r3, [r7, #16]	@ tmp302, pdwReg
 3210 019e 1A60     		str	r2, [r3, #0]	@ D.7096, *pdwReg_67
 3211 01a0 2FE0     		b	.L99	@
 3212              	.L102:
 3213              		.loc 1 817 0 discriminator 4
 3214 01a2 3B68     		ldr	r3, [r7, #0]	@ tmp303, len
 3215 01a4 4FEA5303 		lsr	r3, r3, #1	@ D.7098, tmp303,
 3216 01a8 BB83     		strh	r3, [r7, #28]	@ movhi	@ tmp304, wNBlocks
 3217 01aa 3B68     		ldr	r3, [r7, #0]	@ tmp305, len
 3218 01ac 03F00103 		and	r3, r3, #1	@ D.7099, tmp305,
 3219 01b0 002B     		cmp	r3, #0	@ D.7099,
 3220 01b2 03D0     		beq	.L104	@,
 3221              		.loc 1 817 0 discriminator 7
 3222 01b4 BB8B     		ldrh	r3, [r7, #28]	@ movhi	@ tmp306, wNBlocks
 3223 01b6 03F10103 		add	r3, r3, #1	@ tmp307, tmp306,
 3224 01ba BB83     		strh	r3, [r7, #28]	@ movhi	@ tmp308, wNBlocks
 3225              	.L104:
 3226              		.loc 1 817 0 discriminator 8
ARM GAS  /tmp/ccS6NUBW.s 			page 72


 3227 01bc BB8B     		ldrh	r3, [r7, #28]	@ movhi	@ tmp309, wNBlocks
 3228 01be 4FEA8323 		lsl	r3, r3, #10	@ tmp310, tmp309,
 3229 01c2 9BB2     		uxth	r3, r3	@ D.7103, tmp310
 3230 01c4 1A46     		mov	r2, r3	@ D.7104, D.7103
 3231 01c6 3B69     		ldr	r3, [r7, #16]	@ tmp311, pdwReg
 3232 01c8 1A60     		str	r2, [r3, #0]	@ D.7104, *pdwReg_67
 3233 01ca 1AE0     		b	.L99	@
 3234              	.L101:
 3235              	.LBE48:
 3236              	.LBE47:
 3237              	.LBE46:
 3238              		.loc 1 817 0 discriminator 2
 3239 01cc BB69     		ldr	r3, [r7, #24]	@ tmp312, ep
 3240 01ce 5B78     		ldrb	r3, [r3, #1]	@ zero_extendqisi2	@ D.7106, ep_11->is_in
 3241 01d0 012B     		cmp	r3, #1	@ D.7106,
 3242 01d2 16D1     		bne	.L99	@,
 3243              		.loc 1 817 0 discriminator 9
 3244 01d4 FB68     		ldr	r3, [r7, #12]	@ tmp313, hpcd
 3245 01d6 1B68     		ldr	r3, [r3, #0]	@ D.7109, hpcd_10(D)->Instance
 3246 01d8 B3F85030 		ldrh	r3, [r3, #80]	@ movhi	@ tmp315, D.7109_82->BTABLE
 3247 01dc 9BB2     		uxth	r3, r3	@ D.7110, tmp315
 3248 01de 1A46     		mov	r2, r3	@ D.7111, D.7110
 3249 01e0 BB69     		ldr	r3, [r7, #24]	@ tmp316, ep
 3250 01e2 1B78     		ldrb	r3, [r3, #0]	@ zero_extendqisi2	@ D.7112, ep_11->num
 3251 01e4 4FEAC303 		lsl	r3, r3, #3	@ D.7114, D.7113,
 3252 01e8 D318     		adds	r3, r2, r3	@ D.7115, D.7111, D.7114
 3253 01ea 03F10603 		add	r3, r3, #6	@ D.7116, D.7115,
 3254 01ee 4FEA4303 		lsl	r3, r3, #1	@ D.7117, D.7116,
 3255 01f2 1A46     		mov	r2, r3	@ D.7118, D.7117
 3256 01f4 FB68     		ldr	r3, [r7, #12]	@ tmp317, hpcd
 3257 01f6 1B68     		ldr	r3, [r3, #0]	@ D.7119, hpcd_10(D)->Instance
 3258 01f8 D318     		adds	r3, r2, r3	@ D.7121, D.7118, D.7120
 3259 01fa 03F58063 		add	r3, r3, #1024	@ D.7122, D.7121,
 3260 01fe 3A68     		ldr	r2, [r7, #0]	@ tmp318, len
 3261 0200 1A60     		str	r2, [r3, #0]	@ tmp318, *D.7123_96
 3262              	.L99:
 3263              	.LBE45:
 3264              	.LBE44:
 3265              	.LBE43:
 3266              	.LBE39:
 3267              	.LBB49:
 818:Drivers/STM32L1xx_HAL_Driver/stm32l1xx_hal_pcd.cpp ****   } 
 819:Drivers/STM32L1xx_HAL_Driver/stm32l1xx_hal_pcd.cpp ****   
 820:Drivers/STM32L1xx_HAL_Driver/stm32l1xx_hal_pcd.cpp ****   PCD_SET_EP_RX_STATUS(hpcd->Instance, ep->num, USB_EP_RX_VALID);
 3268              		.loc 1 820 0 is_stmt 1
 3269 0202 FB68     		ldr	r3, [r7, #12]	@ tmp319, hpcd
 3270 0204 1B68     		ldr	r3, [r3, #0]	@ D.7125, hpcd_10(D)->Instance
 3271 0206 1A46     		mov	r2, r3	@ D.7126, D.7125
 3272 0208 BB69     		ldr	r3, [r7, #24]	@ tmp320, ep
 3273 020a 1B78     		ldrb	r3, [r3, #0]	@ zero_extendqisi2	@ D.7127, ep_11->num
 3274 020c 4FEA8303 		lsl	r3, r3, #2	@ D.7129, D.7128,
 3275 0210 D318     		adds	r3, r2, r3	@ D.7131, D.7126, D.7130
 3276 0212 1B88     		ldrh	r3, [r3, #0]	@ movhi	@ tmp321, *D.7131_103
 3277 0214 9BB2     		uxth	r3, r3	@ D.7132, tmp321
 3278 0216 23F48043 		bic	r3, r3, #16384	@ tmp322, D.7132,
 3279 021a 23F07003 		bic	r3, r3, #112	@ tmp322, tmp322,
 3280 021e 9CB2     		uxth	r4, r3	@ _wRegVal, tmp322
ARM GAS  /tmp/ccS6NUBW.s 			page 73


 3281 0220 84F48053 		eor	r3, r4, #4096	@ tmp323, _wRegVal,
 3282 0224 9CB2     		uxth	r4, r3	@ _wRegVal, tmp323
 3283 0226 84F40053 		eor	r3, r4, #8192	@ tmp324, _wRegVal,
 3284 022a 9CB2     		uxth	r4, r3	@ _wRegVal, tmp324
 3285 022c FB68     		ldr	r3, [r7, #12]	@ tmp325, hpcd
 3286 022e 1B68     		ldr	r3, [r3, #0]	@ D.7133, hpcd_10(D)->Instance
 3287 0230 1A46     		mov	r2, r3	@ D.7134, D.7133
 3288 0232 BB69     		ldr	r3, [r7, #24]	@ tmp326, ep
 3289 0234 1B78     		ldrb	r3, [r3, #0]	@ zero_extendqisi2	@ D.7135, ep_11->num
 3290 0236 4FEA8303 		lsl	r3, r3, #2	@ D.7137, D.7136,
 3291 023a D218     		adds	r2, r2, r3	@ D.7139, D.7134, D.7138
 3292 023c 48F28003 		movw	r3, #32896	@ tmp327,
 3293 0240 CFF6FF73 		movt	r3, 65535	@ tmp327,
 3294 0244 2343     		orrs	r3, r3, r4	@, tmp327, tmp327, _wRegVal
 3295 0246 9BB2     		uxth	r3, r3	@ D.7140, tmp327
 3296 0248 1380     		strh	r3, [r2, #0]	@ movhi	@ tmp328, *D.7139_114
 3297              	.LBE49:
 821:Drivers/STM32L1xx_HAL_Driver/stm32l1xx_hal_pcd.cpp ****   
 822:Drivers/STM32L1xx_HAL_Driver/stm32l1xx_hal_pcd.cpp ****   __HAL_UNLOCK(hpcd); 
 3298              		.loc 1 822 0
 3299 024a FB68     		ldr	r3, [r7, #12]	@ tmp329, hpcd
 3300 024c 4FF00002 		mov	r2, #0	@ tmp330,
 3301 0250 83F8E821 		strb	r2, [r3, #488]	@ tmp331, hpcd_10(D)->Lock
 823:Drivers/STM32L1xx_HAL_Driver/stm32l1xx_hal_pcd.cpp ****   
 824:Drivers/STM32L1xx_HAL_Driver/stm32l1xx_hal_pcd.cpp ****   return HAL_OK;
 3302              		.loc 1 824 0
 3303 0254 4FF00003 		mov	r3, #0	@ D.7026,
 3304              	.L93:
 3305              	.LBE38:
 825:Drivers/STM32L1xx_HAL_Driver/stm32l1xx_hal_pcd.cpp **** }
 3306              		.loc 1 825 0
 3307 0258 1846     		mov	r0, r3	@, <retval>
 3308 025a 07F12007 		add	r7, r7, #32	@,,
 3309 025e BD46     		mov	sp, r7
 3310 0260 90BC     		pop	{r4, r7}
 3311 0262 7047     		bx	lr
 3312              		.cfi_endproc
 3313              	.LFE79:
 3314              		.size	HAL_PCD_EP_Receive, .-HAL_PCD_EP_Receive
 3315              		.section	.text.HAL_PCD_EP_GetRxCount,"ax",%progbits
 3316              		.align	2
 3317              		.global	HAL_PCD_EP_GetRxCount
 3318              		.thumb
 3319              		.thumb_func
 3320              		.type	HAL_PCD_EP_GetRxCount, %function
 3321              	HAL_PCD_EP_GetRxCount:
 3322              	.LFB80:
 826:Drivers/STM32L1xx_HAL_Driver/stm32l1xx_hal_pcd.cpp **** 
 827:Drivers/STM32L1xx_HAL_Driver/stm32l1xx_hal_pcd.cpp **** /**
 828:Drivers/STM32L1xx_HAL_Driver/stm32l1xx_hal_pcd.cpp ****   * @brief  Get Received Data Size
 829:Drivers/STM32L1xx_HAL_Driver/stm32l1xx_hal_pcd.cpp ****   * @param  hpcd: PCD handle
 830:Drivers/STM32L1xx_HAL_Driver/stm32l1xx_hal_pcd.cpp ****   * @param  ep_addr: endpoint address
 831:Drivers/STM32L1xx_HAL_Driver/stm32l1xx_hal_pcd.cpp ****   * @retval Data Size
 832:Drivers/STM32L1xx_HAL_Driver/stm32l1xx_hal_pcd.cpp ****   */
 833:Drivers/STM32L1xx_HAL_Driver/stm32l1xx_hal_pcd.cpp **** uint16_t HAL_PCD_EP_GetRxCount(PCD_HandleTypeDef *hpcd, uint8_t ep_addr)
 834:Drivers/STM32L1xx_HAL_Driver/stm32l1xx_hal_pcd.cpp **** {
 3323              		.loc 1 834 0
ARM GAS  /tmp/ccS6NUBW.s 			page 74


 3324              		.cfi_startproc
 3325              		@ args = 0, pretend = 0, frame = 8
 3326              		@ frame_needed = 1, uses_anonymous_args = 0
 3327              		@ link register save eliminated.
 3328 0000 80B4     		push	{r7}	@
 3329              	.LCFI72:
 3330              		.cfi_def_cfa_offset 4
 3331              		.cfi_offset 7, -4
 3332 0002 83B0     		sub	sp, sp, #12	@,,
 3333              	.LCFI73:
 3334              		.cfi_def_cfa_offset 16
 3335 0004 00AF     		add	r7, sp, #0	@,,
 3336              	.LCFI74:
 3337              		.cfi_def_cfa_register 7
 3338 0006 7860     		str	r0, [r7, #4]	@ hpcd, hpcd
 3339 0008 0B46     		mov	r3, r1	@ tmp139, ep_addr
 3340 000a FB70     		strb	r3, [r7, #3]	@ tmp140, ep_addr
 835:Drivers/STM32L1xx_HAL_Driver/stm32l1xx_hal_pcd.cpp ****   return hpcd->OUT_ep[ep_addr & 0x7F].xfer_count;
 3341              		.loc 1 835 0
 3342 000c FB78     		ldrb	r3, [r7, #3]	@ zero_extendqisi2	@ D.7014, ep_addr
 3343 000e 03F07F02 		and	r2, r3, #127	@ D.7015, D.7014,
 3344 0012 7968     		ldr	r1, [r7, #4]	@ tmp141, hpcd
 3345 0014 1346     		mov	r3, r2	@ tmp142, D.7015
 3346 0016 4FEAC303 		lsl	r3, r3, #3	@ tmp142, tmp142,
 3347 001a 9B1A     		subs	r3, r3, r2	@ tmp142, tmp142, D.7015
 3348 001c 4FEA8303 		lsl	r3, r3, #2	@ tmp143, tmp142,
 3349 0020 CB18     		adds	r3, r1, r3	@ tmp144, tmp141, tmp142
 3350 0022 03F59073 		add	r3, r3, #288	@ tmp145, tmp144,
 3351 0026 1B68     		ldr	r3, [r3, #0]	@ D.7016, hpcd_4(D)->OUT_ep[D.7015_3].xfer_count
 3352 0028 9BB2     		uxth	r3, r3	@ D.7013, D.7016
 836:Drivers/STM32L1xx_HAL_Driver/stm32l1xx_hal_pcd.cpp **** }
 3353              		.loc 1 836 0
 3354 002a 1846     		mov	r0, r3	@, <retval>
 3355 002c 07F10C07 		add	r7, r7, #12	@,,
 3356 0030 BD46     		mov	sp, r7
 3357 0032 80BC     		pop	{r7}
 3358 0034 7047     		bx	lr
 3359              		.cfi_endproc
 3360              	.LFE80:
 3361              		.size	HAL_PCD_EP_GetRxCount, .-HAL_PCD_EP_GetRxCount
 3362 0036 00BF     		.section	.text.HAL_PCD_EP_Transmit,"ax",%progbits
 3363              		.align	2
 3364              		.global	HAL_PCD_EP_Transmit
 3365              		.thumb
 3366              		.thumb_func
 3367              		.type	HAL_PCD_EP_Transmit, %function
 3368              	HAL_PCD_EP_Transmit:
 3369              	.LFB81:
 837:Drivers/STM32L1xx_HAL_Driver/stm32l1xx_hal_pcd.cpp **** /**
 838:Drivers/STM32L1xx_HAL_Driver/stm32l1xx_hal_pcd.cpp ****   * @brief  Send an amount of data  
 839:Drivers/STM32L1xx_HAL_Driver/stm32l1xx_hal_pcd.cpp ****   * @param  hpcd: PCD handle
 840:Drivers/STM32L1xx_HAL_Driver/stm32l1xx_hal_pcd.cpp ****   * @param  ep_addr: endpoint address
 841:Drivers/STM32L1xx_HAL_Driver/stm32l1xx_hal_pcd.cpp ****   * @param  pBuf: pointer to the transmission buffer   
 842:Drivers/STM32L1xx_HAL_Driver/stm32l1xx_hal_pcd.cpp ****   * @param  len: amount of data to be sent
 843:Drivers/STM32L1xx_HAL_Driver/stm32l1xx_hal_pcd.cpp ****   * @retval HAL status
 844:Drivers/STM32L1xx_HAL_Driver/stm32l1xx_hal_pcd.cpp ****   */
 845:Drivers/STM32L1xx_HAL_Driver/stm32l1xx_hal_pcd.cpp **** HAL_StatusTypeDef HAL_PCD_EP_Transmit(PCD_HandleTypeDef *hpcd, uint8_t ep_addr, uint8_t *pBuf, uint
ARM GAS  /tmp/ccS6NUBW.s 			page 75


 846:Drivers/STM32L1xx_HAL_Driver/stm32l1xx_hal_pcd.cpp **** {
 3370              		.loc 1 846 0
 3371              		.cfi_startproc
 3372              		@ args = 0, pretend = 0, frame = 32
 3373              		@ frame_needed = 1, uses_anonymous_args = 0
 3374 0000 90B5     		push	{r4, r7, lr}	@
 3375              	.LCFI75:
 3376              		.cfi_def_cfa_offset 12
 3377              		.cfi_offset 4, -12
 3378              		.cfi_offset 7, -8
 3379              		.cfi_offset 14, -4
 3380 0002 89B0     		sub	sp, sp, #36	@,,
 3381              	.LCFI76:
 3382              		.cfi_def_cfa_offset 48
 3383 0004 00AF     		add	r7, sp, #0	@,,
 3384              	.LCFI77:
 3385              		.cfi_def_cfa_register 7
 3386 0006 F860     		str	r0, [r7, #12]	@ hpcd, hpcd
 3387 0008 7A60     		str	r2, [r7, #4]	@ pBuf, pBuf
 3388 000a 3B60     		str	r3, [r7, #0]	@ len, len
 3389 000c 0B46     		mov	r3, r1	@ tmp272, tmp271
 3390 000e FB72     		strb	r3, [r7, #11]	@ tmp272, ep_addr
 3391              	.LBB50:
 847:Drivers/STM32L1xx_HAL_Driver/stm32l1xx_hal_pcd.cpp ****   PCD_EPTypeDef *ep;
 848:Drivers/STM32L1xx_HAL_Driver/stm32l1xx_hal_pcd.cpp ****   uint16_t pmabuffer = 0;
 3392              		.loc 1 848 0
 3393 0010 4FF00003 		mov	r3, #0	@ tmp274,
 3394 0014 FB83     		strh	r3, [r7, #30]	@ movhi	@ tmp273, pmabuffer
 849:Drivers/STM32L1xx_HAL_Driver/stm32l1xx_hal_pcd.cpp ****     
 850:Drivers/STM32L1xx_HAL_Driver/stm32l1xx_hal_pcd.cpp ****   ep = &hpcd->IN_ep[ep_addr & 0x7F];
 3395              		.loc 1 850 0
 3396 0016 FB7A     		ldrb	r3, [r7, #11]	@ zero_extendqisi2	@ D.6841, ep_addr
 3397 0018 03F07F02 		and	r2, r3, #127	@ D.6842, D.6841,
 3398 001c 1346     		mov	r3, r2	@ tmp275, D.6842
 3399 001e 4FEAC303 		lsl	r3, r3, #3	@ tmp275, tmp275,
 3400 0022 9B1A     		subs	r3, r3, r2	@ tmp275, tmp275, D.6842
 3401 0024 4FEA8303 		lsl	r3, r3, #2	@ tmp276, tmp275,
 3402 0028 03F12803 		add	r3, r3, #40	@ tmp277, tmp275,
 3403 002c FA68     		ldr	r2, [r7, #12]	@ tmp279, hpcd
 3404 002e D318     		adds	r3, r2, r3	@ tmp278, tmp279, tmp277
 3405 0030 BB61     		str	r3, [r7, #24]	@ tmp278, ep
 851:Drivers/STM32L1xx_HAL_Driver/stm32l1xx_hal_pcd.cpp ****   
