ARM GAS  /tmp/cchpVdt5.s 			page 1


   1              		.syntax unified
   2              		.cpu cortex-m3
   3              		.fpu softvfp
   4              		.eabi_attribute 20, 1	@ Tag_ABI_FP_denormal
   5              		.eabi_attribute 21, 1	@ Tag_ABI_FP_exceptions
   6              		.eabi_attribute 23, 3	@ Tag_ABI_FP_number_model
   7              		.eabi_attribute 24, 1	@ Tag_ABI_align8_needed
   8              		.eabi_attribute 25, 1	@ Tag_ABI_align8_preserved
   9              		.eabi_attribute 26, 1	@ Tag_ABI_enum_size
  10              		.eabi_attribute 30, 6	@ Tag_ABI_optimization_goals
  11              		.eabi_attribute 34, 1	@ Tag_CPU_unaligned_access
  12              		.eabi_attribute 18, 4	@ Tag_ABI_PCS_wchar_t
  13              		.file	"stm32l1xx_hal_flash.cpp"
  14              	@ GNU C++ (GNU Tools for ARM Embedded Processors) version 4.7.3 20130312 (release) [ARM/embedded-4_
  15              	@	compiled by GNU C version 4.3.6, GMP version 4.3.2, MPFR version 2.4.2, MPC version 0.8.1
  16              	@ GGC heuristics: --param ggc-min-expand=100 --param ggc-min-heapsize=131072
  17              	@ options passed:  -I . -I Src -I hdr -I Inc -I Middlewares
  18              	@ -I Middlewares/ST -I Middlewares/ST/STM32_USB_Device_Library/Class/CDC
  19              	@ -I Middlewares/ST/STM32_USB_Device_Library/Core -I Drivers
  20              	@ -I Drivers/CMSIS -I Drivers/CMSIS/Device/ST/STM32L1xx
  21              	@ -I Drivers/CMSIS/Include -I Drivers/STM32L1xx_HAL_Driver
  22              	@ -imultilib armv7-m
  23              	@ -iprefix /home/maciek/gcc-arm-none-eabi/gcc-arm-none-eabi-4_7-2013q1/bin/../lib/gcc/arm-none-eabi
  24              	@ -isysroot /home/maciek/gcc-arm-none-eabi/gcc-arm-none-eabi-4_7-2013q1/bin/../arm-none-eabi
  25              	@ -MD out/stm32l1xx_hal_flash.d -MF out/stm32l1xx_hal_flash.d -MP
  26              	@ -MQ out/stm32l1xx_hal_flash.o -D__USES_INITFINI__ -D STM32L1XX_MD
  27              	@ Drivers/STM32L1xx_HAL_Driver/stm32l1xx_hal_flash.cpp -mcpu=cortex-m3
  28              	@ -mthumb -auxbase-strip out/stm32l1xx_hal_flash.o -g -ggdb3 -O0 -Wall
  29              	@ -Wextra -std=gnu++11 -ffunction-sections -fdata-sections -fno-rtti
  30              	@ -fno-exceptions -fverbose-asm
  31              	@ options enabled:  -fauto-inc-dec -fbranch-count-reg -fcommon
  32              	@ -fdata-sections -fdebug-types-section -fdelete-null-pointer-checks
  33              	@ -fdwarf2-cfi-asm -fearly-inlining -feliminate-unused-debug-types
  34              	@ -ffunction-cse -ffunction-sections -fgcse-lm -fgnu-runtime -fident
  35              	@ -finline-atomics -fira-share-save-slots -fira-share-spill-slots -fivopts
  36              	@ -fkeep-static-consts -fleading-underscore -fmath-errno
  37              	@ -fmerge-debug-strings -fmove-loop-invariants -fpeephole
  38              	@ -fprefetch-loop-arrays -freg-struct-return
  39              	@ -fsched-critical-path-heuristic -fsched-dep-count-heuristic
  40              	@ -fsched-group-heuristic -fsched-interblock -fsched-last-insn-heuristic
  41              	@ -fsched-rank-heuristic -fsched-spec -fsched-spec-insn-heuristic
  42              	@ -fsched-stalled-insns-dep -fshow-column -fsigned-zeros
  43              	@ -fsplit-ivs-in-unroller -fstrict-volatile-bitfields -ftrapping-math
  44              	@ -ftree-cselim -ftree-forwprop -ftree-loop-if-convert -ftree-loop-im
  45              	@ -ftree-loop-ivcanon -ftree-loop-optimize -ftree-parallelize-loops=
  46              	@ -ftree-phiprop -ftree-pta -ftree-reassoc -ftree-scev-cprop
  47              	@ -ftree-slp-vectorize -ftree-vect-loop-version -funit-at-a-time
  48              	@ -fverbose-asm -fzero-initialized-in-bss -mfix-cortex-m3-ldrd
  49              	@ -mlittle-endian -msched-prolog -mthumb -munaligned-access
  50              	@ -mvectorize-with-neon-quad
  51              	
  52              		.text
  53              	.Ltext0:
  54              		.cfi_sections	.debug_frame
  55              		.global	ProcFlash
  56              		.section	.bss.ProcFlash,"aw",%nobits
  57              		.align	2
ARM GAS  /tmp/cchpVdt5.s 			page 2


  58              		.type	ProcFlash, %object
  59              		.size	ProcFlash, 20
  60              	ProcFlash:
  61 0000 00000000 		.space	20
  61      00000000 
  61      00000000 
  61      00000000 
  61      00000000 
  62              		.section	.text.HAL_FLASH_Program,"ax",%progbits
  63              		.align	2
  64              		.global	HAL_FLASH_Program
  65              		.thumb
  66              		.thumb_func
  67              		.type	HAL_FLASH_Program, %function
  68              	HAL_FLASH_Program:
  69              	.LFB56:
  70              		.file 1 "Drivers/STM32L1xx_HAL_Driver/stm32l1xx_hal_flash.cpp"
   1:Drivers/STM32L1xx_HAL_Driver/stm32l1xx_hal_flash.cpp **** /**
   2:Drivers/STM32L1xx_HAL_Driver/stm32l1xx_hal_flash.cpp ****   ******************************************************************************
   3:Drivers/STM32L1xx_HAL_Driver/stm32l1xx_hal_flash.cpp ****   * @file    stm32l1xx_hal_flash.c
   4:Drivers/STM32L1xx_HAL_Driver/stm32l1xx_hal_flash.cpp ****   * @author  MCD Application Team
   5:Drivers/STM32L1xx_HAL_Driver/stm32l1xx_hal_flash.cpp ****   * @version V1.0.0
   6:Drivers/STM32L1xx_HAL_Driver/stm32l1xx_hal_flash.cpp ****   * @date    5-September-2014
   7:Drivers/STM32L1xx_HAL_Driver/stm32l1xx_hal_flash.cpp ****   * @brief   FLASH HAL module driver.
   8:Drivers/STM32L1xx_HAL_Driver/stm32l1xx_hal_flash.cpp ****   *          This file provides firmware functions to manage the following 
   9:Drivers/STM32L1xx_HAL_Driver/stm32l1xx_hal_flash.cpp ****   *          functionalities of the internal FLASH memory:
  10:Drivers/STM32L1xx_HAL_Driver/stm32l1xx_hal_flash.cpp ****   *            + FLASH Interface configuration
  11:Drivers/STM32L1xx_HAL_Driver/stm32l1xx_hal_flash.cpp ****   *            + FLASH Memory Programming
  12:Drivers/STM32L1xx_HAL_Driver/stm32l1xx_hal_flash.cpp ****   *            + Interrupts and flags management
  13:Drivers/STM32L1xx_HAL_Driver/stm32l1xx_hal_flash.cpp ****   *
  14:Drivers/STM32L1xx_HAL_Driver/stm32l1xx_hal_flash.cpp ****   *  @verbatim
  15:Drivers/STM32L1xx_HAL_Driver/stm32l1xx_hal_flash.cpp **** 
  16:Drivers/STM32L1xx_HAL_Driver/stm32l1xx_hal_flash.cpp ****   ==============================================================================
  17:Drivers/STM32L1xx_HAL_Driver/stm32l1xx_hal_flash.cpp ****                       ##### FLASH peripheral features #####
  18:Drivers/STM32L1xx_HAL_Driver/stm32l1xx_hal_flash.cpp ****   ==============================================================================
  19:Drivers/STM32L1xx_HAL_Driver/stm32l1xx_hal_flash.cpp ****            
  20:Drivers/STM32L1xx_HAL_Driver/stm32l1xx_hal_flash.cpp ****   [..] The Flash memory interface manages CPU AHB I-Code and D-Code accesses 
  21:Drivers/STM32L1xx_HAL_Driver/stm32l1xx_hal_flash.cpp ****        to the Flash memory. It implements the erase and program Flash memory operations 
  22:Drivers/STM32L1xx_HAL_Driver/stm32l1xx_hal_flash.cpp ****        and the read and write protection mechanisms.
  23:Drivers/STM32L1xx_HAL_Driver/stm32l1xx_hal_flash.cpp ****       
  24:Drivers/STM32L1xx_HAL_Driver/stm32l1xx_hal_flash.cpp ****   [..] The Flash memory interface accelerates code execution with a system of instruction prefetch.
  25:Drivers/STM32L1xx_HAL_Driver/stm32l1xx_hal_flash.cpp **** 
  26:Drivers/STM32L1xx_HAL_Driver/stm32l1xx_hal_flash.cpp ****   [..] The FLASH main features are:
  27:Drivers/STM32L1xx_HAL_Driver/stm32l1xx_hal_flash.cpp ****       (+) Flash memory read operations
  28:Drivers/STM32L1xx_HAL_Driver/stm32l1xx_hal_flash.cpp ****       (+) Flash memory program/erase operations
  29:Drivers/STM32L1xx_HAL_Driver/stm32l1xx_hal_flash.cpp ****       (+) Read / write protections
  30:Drivers/STM32L1xx_HAL_Driver/stm32l1xx_hal_flash.cpp ****       (+) Prefetch on I-Code
  31:Drivers/STM32L1xx_HAL_Driver/stm32l1xx_hal_flash.cpp ****       (+) Option Bytes programming
  32:Drivers/STM32L1xx_HAL_Driver/stm32l1xx_hal_flash.cpp ****       
  33:Drivers/STM32L1xx_HAL_Driver/stm32l1xx_hal_flash.cpp ****             ##### How to use this driver #####
  34:Drivers/STM32L1xx_HAL_Driver/stm32l1xx_hal_flash.cpp ****   ==============================================================================
  35:Drivers/STM32L1xx_HAL_Driver/stm32l1xx_hal_flash.cpp ****   [..] This driver provides functions to configure and program the Flash 
  36:Drivers/STM32L1xx_HAL_Driver/stm32l1xx_hal_flash.cpp ****      memory of all STM32L1xx devices.
  37:Drivers/STM32L1xx_HAL_Driver/stm32l1xx_hal_flash.cpp **** 
  38:Drivers/STM32L1xx_HAL_Driver/stm32l1xx_hal_flash.cpp ****      (#) FLASH Memory Programming functions: this group includes all 
  39:Drivers/STM32L1xx_HAL_Driver/stm32l1xx_hal_flash.cpp ****        needed functions to erase and program the main memory:
  40:Drivers/STM32L1xx_HAL_Driver/stm32l1xx_hal_flash.cpp ****        (++) Lock and Unlock the Flash interface.
ARM GAS  /tmp/cchpVdt5.s 			page 3


  41:Drivers/STM32L1xx_HAL_Driver/stm32l1xx_hal_flash.cpp ****        (++) Erase function: Erase Page.
  42:Drivers/STM32L1xx_HAL_Driver/stm32l1xx_hal_flash.cpp ****        (++) Program functions: Fast Word and Half Page(should be 
  43:Drivers/STM32L1xx_HAL_Driver/stm32l1xx_hal_flash.cpp ****         executed from internal SRAM).
  44:Drivers/STM32L1xx_HAL_Driver/stm32l1xx_hal_flash.cpp ****   
  45:Drivers/STM32L1xx_HAL_Driver/stm32l1xx_hal_flash.cpp ****      (#) DATA EEPROM Programming functions: this group includes all 
  46:Drivers/STM32L1xx_HAL_Driver/stm32l1xx_hal_flash.cpp ****        needed functions to erase and program the DATA EEPROM memory:
  47:Drivers/STM32L1xx_HAL_Driver/stm32l1xx_hal_flash.cpp ****        (++) Lock and Unlock the DATA EEPROM interface.
  48:Drivers/STM32L1xx_HAL_Driver/stm32l1xx_hal_flash.cpp ****        (++) Erase function: Erase Byte, erase HalfWord, erase Word, erase 
  49:Drivers/STM32L1xx_HAL_Driver/stm32l1xx_hal_flash.cpp ****        Double Word (should be executed from internal SRAM).
  50:Drivers/STM32L1xx_HAL_Driver/stm32l1xx_hal_flash.cpp ****        (++) Program functions: Fast Program Byte, Fast Program Half-Word, 
  51:Drivers/STM32L1xx_HAL_Driver/stm32l1xx_hal_flash.cpp ****         FastProgramWord, Program Byte, Program Half-Word, 
  52:Drivers/STM32L1xx_HAL_Driver/stm32l1xx_hal_flash.cpp ****         Program Word and Program Double-Word (should be executed 
  53:Drivers/STM32L1xx_HAL_Driver/stm32l1xx_hal_flash.cpp ****         from internal SRAM).
  54:Drivers/STM32L1xx_HAL_Driver/stm32l1xx_hal_flash.cpp ****   
  55:Drivers/STM32L1xx_HAL_Driver/stm32l1xx_hal_flash.cpp ****      (#) FLASH Option Bytes Programming functions: this group includes 
  56:Drivers/STM32L1xx_HAL_Driver/stm32l1xx_hal_flash.cpp ****        all needed functions to:
  57:Drivers/STM32L1xx_HAL_Driver/stm32l1xx_hal_flash.cpp ****        (++) Lock and Unlock the Flash Option bytes.
  58:Drivers/STM32L1xx_HAL_Driver/stm32l1xx_hal_flash.cpp ****        (++) Set/Reset the write protection.
  59:Drivers/STM32L1xx_HAL_Driver/stm32l1xx_hal_flash.cpp ****        (++) Set the Read protection Level.
  60:Drivers/STM32L1xx_HAL_Driver/stm32l1xx_hal_flash.cpp ****        (++) Set the BOR level.
  61:Drivers/STM32L1xx_HAL_Driver/stm32l1xx_hal_flash.cpp ****        (++) Program the user option Bytes.
  62:Drivers/STM32L1xx_HAL_Driver/stm32l1xx_hal_flash.cpp ****        (++) Launch the Option Bytes loader.
  63:Drivers/STM32L1xx_HAL_Driver/stm32l1xx_hal_flash.cpp ****        (++) Get the Write protection.
  64:Drivers/STM32L1xx_HAL_Driver/stm32l1xx_hal_flash.cpp ****        (++) Get the read protection status.
  65:Drivers/STM32L1xx_HAL_Driver/stm32l1xx_hal_flash.cpp ****        (++) Get the BOR level.
  66:Drivers/STM32L1xx_HAL_Driver/stm32l1xx_hal_flash.cpp ****        (++) Get the user option bytes.
  67:Drivers/STM32L1xx_HAL_Driver/stm32l1xx_hal_flash.cpp ****        
  68:Drivers/STM32L1xx_HAL_Driver/stm32l1xx_hal_flash.cpp ****      (#) Interrupts and flags management functions : 
  69:Drivers/STM32L1xx_HAL_Driver/stm32l1xx_hal_flash.cpp ****        (++) Handle FLASH interrupts by calling HAL_FLASH_IRQHandler()
  70:Drivers/STM32L1xx_HAL_Driver/stm32l1xx_hal_flash.cpp ****        (++) Wait for last FLASH operation according to its status
  71:Drivers/STM32L1xx_HAL_Driver/stm32l1xx_hal_flash.cpp ****        (++) Get error flag status by calling HAL_GetErrorCode()          
  72:Drivers/STM32L1xx_HAL_Driver/stm32l1xx_hal_flash.cpp **** 
  73:Drivers/STM32L1xx_HAL_Driver/stm32l1xx_hal_flash.cpp ****     (#) FLASH Interface configuration functions: this group includes 
  74:Drivers/STM32L1xx_HAL_Driver/stm32l1xx_hal_flash.cpp ****       the management of following features:
  75:Drivers/STM32L1xx_HAL_Driver/stm32l1xx_hal_flash.cpp ****       (++) Enable/Disable the RUN PowerDown mode.
  76:Drivers/STM32L1xx_HAL_Driver/stm32l1xx_hal_flash.cpp ****       (++) Enable/Disable the SLEEP PowerDown mode.  
  77:Drivers/STM32L1xx_HAL_Driver/stm32l1xx_hal_flash.cpp ****   
  78:Drivers/STM32L1xx_HAL_Driver/stm32l1xx_hal_flash.cpp ****     (#) FLASH Peripheral State methods: this group includes 
  79:Drivers/STM32L1xx_HAL_Driver/stm32l1xx_hal_flash.cpp ****       the management of following features:
  80:Drivers/STM32L1xx_HAL_Driver/stm32l1xx_hal_flash.cpp ****       (++) Wait for the FLASH operation
  81:Drivers/STM32L1xx_HAL_Driver/stm32l1xx_hal_flash.cpp ****       (++)  Get the specific FLASH error flag
  82:Drivers/STM32L1xx_HAL_Driver/stm32l1xx_hal_flash.cpp ****     
  83:Drivers/STM32L1xx_HAL_Driver/stm32l1xx_hal_flash.cpp ****   [..] In addition to these function, this driver includes a set of macros allowing
  84:Drivers/STM32L1xx_HAL_Driver/stm32l1xx_hal_flash.cpp ****        to handle the following operations:
  85:Drivers/STM32L1xx_HAL_Driver/stm32l1xx_hal_flash.cpp ****       
  86:Drivers/STM32L1xx_HAL_Driver/stm32l1xx_hal_flash.cpp ****     (+) Set/Get the latency
  87:Drivers/STM32L1xx_HAL_Driver/stm32l1xx_hal_flash.cpp ****     (+) Enable/Disable the prefetch buffer
  88:Drivers/STM32L1xx_HAL_Driver/stm32l1xx_hal_flash.cpp ****     (+) Enable/Disable the 64 bit Read Access. 
  89:Drivers/STM32L1xx_HAL_Driver/stm32l1xx_hal_flash.cpp ****        (+) Enable/Disable the Flash power-down
  90:Drivers/STM32L1xx_HAL_Driver/stm32l1xx_hal_flash.cpp ****        (+) Enable/Disable the FLASH interrupts
  91:Drivers/STM32L1xx_HAL_Driver/stm32l1xx_hal_flash.cpp ****        (+) Monitor the FLASH flags status
  92:Drivers/STM32L1xx_HAL_Driver/stm32l1xx_hal_flash.cpp **** 
  93:Drivers/STM32L1xx_HAL_Driver/stm32l1xx_hal_flash.cpp ****   ===============================================================================
  94:Drivers/STM32L1xx_HAL_Driver/stm32l1xx_hal_flash.cpp ****                  ##### Programming operation functions #####
  95:Drivers/STM32L1xx_HAL_Driver/stm32l1xx_hal_flash.cpp ****   ===============================================================================  
  96:Drivers/STM32L1xx_HAL_Driver/stm32l1xx_hal_flash.cpp ****      [..]
  97:Drivers/STM32L1xx_HAL_Driver/stm32l1xx_hal_flash.cpp ****      This subsection provides a set of functions allowing to manage the FLASH 
ARM GAS  /tmp/cchpVdt5.s 			page 4


  98:Drivers/STM32L1xx_HAL_Driver/stm32l1xx_hal_flash.cpp ****      program operations.
  99:Drivers/STM32L1xx_HAL_Driver/stm32l1xx_hal_flash.cpp ****   
 100:Drivers/STM32L1xx_HAL_Driver/stm32l1xx_hal_flash.cpp ****     [..] The FLASH Memory Programming functions, includes the following functions:
 101:Drivers/STM32L1xx_HAL_Driver/stm32l1xx_hal_flash.cpp ****      (+) HAL_FLASH_Unlock(void);
 102:Drivers/STM32L1xx_HAL_Driver/stm32l1xx_hal_flash.cpp ****      (+) HAL_FLASH_Lock(void);
 103:Drivers/STM32L1xx_HAL_Driver/stm32l1xx_hal_flash.cpp ****      (+) HAL_FLASH_Program(uint32_t TypeProgram, uint32_t Address, uint32_t Data)
 104:Drivers/STM32L1xx_HAL_Driver/stm32l1xx_hal_flash.cpp ****      (+) HAL_FLASH_Program_IT(uint32_t TypeProgram, uint32_t Address, uint32_t Data)
 105:Drivers/STM32L1xx_HAL_Driver/stm32l1xx_hal_flash.cpp ****     
 106:Drivers/STM32L1xx_HAL_Driver/stm32l1xx_hal_flash.cpp ****      [..] Any operation of erase or program should follow these steps:
 107:Drivers/STM32L1xx_HAL_Driver/stm32l1xx_hal_flash.cpp ****      (#) Call the HAL_FLASH_Unlock() function to enable the flash control register and 
 108:Drivers/STM32L1xx_HAL_Driver/stm32l1xx_hal_flash.cpp ****          program memory access.
 109:Drivers/STM32L1xx_HAL_Driver/stm32l1xx_hal_flash.cpp ****      (#) Call the desired function to erase page or program data.
 110:Drivers/STM32L1xx_HAL_Driver/stm32l1xx_hal_flash.cpp ****      (#) Call the HAL_FLASH_Lock() to disable the flash program memory access 
 111:Drivers/STM32L1xx_HAL_Driver/stm32l1xx_hal_flash.cpp ****         (recommended to protect the FLASH memory against possible unwanted operation).
 112:Drivers/STM32L1xx_HAL_Driver/stm32l1xx_hal_flash.cpp ****   
 113:Drivers/STM32L1xx_HAL_Driver/stm32l1xx_hal_flash.cpp ****    ==============================================================================
 114:Drivers/STM32L1xx_HAL_Driver/stm32l1xx_hal_flash.cpp ****                ##### Option Bytes Programming functions ##### 
 115:Drivers/STM32L1xx_HAL_Driver/stm32l1xx_hal_flash.cpp ****    ==============================================================================  
 116:Drivers/STM32L1xx_HAL_Driver/stm32l1xx_hal_flash.cpp ****   
 117:Drivers/STM32L1xx_HAL_Driver/stm32l1xx_hal_flash.cpp ****      [..] The FLASH_Option Bytes Programming_functions, includes the following functions:
 118:Drivers/STM32L1xx_HAL_Driver/stm32l1xx_hal_flash.cpp ****      (+) HAL_FLASH_OB_Unlock(void);
 119:Drivers/STM32L1xx_HAL_Driver/stm32l1xx_hal_flash.cpp ****      (+) HAL_FLASH_OB_Lock(void);
 120:Drivers/STM32L1xx_HAL_Driver/stm32l1xx_hal_flash.cpp ****      (+) HAL_FLASH_OB_Launch(void);
 121:Drivers/STM32L1xx_HAL_Driver/stm32l1xx_hal_flash.cpp ****      (+) HAL_FLASHEx_OBProgram(FLASH_OBProgramInitTypeDef *pOBInit);
 122:Drivers/STM32L1xx_HAL_Driver/stm32l1xx_hal_flash.cpp ****      (+) HAL_FLASHEx_OBGetConfig(FLASH_OBProgramInitTypeDef *pOBInit);
 123:Drivers/STM32L1xx_HAL_Driver/stm32l1xx_hal_flash.cpp ****     
 124:Drivers/STM32L1xx_HAL_Driver/stm32l1xx_hal_flash.cpp ****      [..] Any operation of erase or program should follow these steps:
 125:Drivers/STM32L1xx_HAL_Driver/stm32l1xx_hal_flash.cpp ****      (#) Call the HAL_FLASH_OB_Unlock() function to enable the Flash option control 
 126:Drivers/STM32L1xx_HAL_Driver/stm32l1xx_hal_flash.cpp ****          register access.
 127:Drivers/STM32L1xx_HAL_Driver/stm32l1xx_hal_flash.cpp ****      (#) Call the following functions to program the desired option bytes.
 128:Drivers/STM32L1xx_HAL_Driver/stm32l1xx_hal_flash.cpp ****          (++) HAL_FLASHEx_OBProgram(FLASH_OBProgramInitTypeDef *pOBInit);      
 129:Drivers/STM32L1xx_HAL_Driver/stm32l1xx_hal_flash.cpp ****      (#) Once all needed option bytes to be programmed are correctly written, call the
 130:Drivers/STM32L1xx_HAL_Driver/stm32l1xx_hal_flash.cpp ****          HAL_FLASH_OB_Launch(void) function to launch the Option Bytes programming process.
 131:Drivers/STM32L1xx_HAL_Driver/stm32l1xx_hal_flash.cpp ****      (#) Call the HAL_FLASH_OB_Lock() to disable the Flash option control register access (recommen
 132:Drivers/STM32L1xx_HAL_Driver/stm32l1xx_hal_flash.cpp ****          to protect the option Bytes against possible unwanted operations).
 133:Drivers/STM32L1xx_HAL_Driver/stm32l1xx_hal_flash.cpp ****   
 134:Drivers/STM32L1xx_HAL_Driver/stm32l1xx_hal_flash.cpp ****   *  @endverbatim
 135:Drivers/STM32L1xx_HAL_Driver/stm32l1xx_hal_flash.cpp ****   *                      
 136:Drivers/STM32L1xx_HAL_Driver/stm32l1xx_hal_flash.cpp ****   ******************************************************************************
 137:Drivers/STM32L1xx_HAL_Driver/stm32l1xx_hal_flash.cpp ****   * @attention
 138:Drivers/STM32L1xx_HAL_Driver/stm32l1xx_hal_flash.cpp ****   *
 139:Drivers/STM32L1xx_HAL_Driver/stm32l1xx_hal_flash.cpp ****   * <h2><center>&copy; COPYRIGHT(c) 2014 STMicroelectronics</center></h2>
 140:Drivers/STM32L1xx_HAL_Driver/stm32l1xx_hal_flash.cpp ****   *
 141:Drivers/STM32L1xx_HAL_Driver/stm32l1xx_hal_flash.cpp ****   * Redistribution and use in source and binary forms, with or without modification,
 142:Drivers/STM32L1xx_HAL_Driver/stm32l1xx_hal_flash.cpp ****   * are permitted provided that the following conditions are met:
 143:Drivers/STM32L1xx_HAL_Driver/stm32l1xx_hal_flash.cpp ****   *   1. Redistributions of source code must retain the above copyright notice,
 144:Drivers/STM32L1xx_HAL_Driver/stm32l1xx_hal_flash.cpp ****   *      this list of conditions and the following disclaimer.
 145:Drivers/STM32L1xx_HAL_Driver/stm32l1xx_hal_flash.cpp ****   *   2. Redistributions in binary form must reproduce the above copyright notice,
 146:Drivers/STM32L1xx_HAL_Driver/stm32l1xx_hal_flash.cpp ****   *      this list of conditions and the following disclaimer in the documentation
 147:Drivers/STM32L1xx_HAL_Driver/stm32l1xx_hal_flash.cpp ****   *      and/or other materials provided with the distribution.
 148:Drivers/STM32L1xx_HAL_Driver/stm32l1xx_hal_flash.cpp ****   *   3. Neither the name of STMicroelectronics nor the names of its contributors
 149:Drivers/STM32L1xx_HAL_Driver/stm32l1xx_hal_flash.cpp ****   *      may be used to endorse or promote products derived from this software
 150:Drivers/STM32L1xx_HAL_Driver/stm32l1xx_hal_flash.cpp ****   *      without specific prior written permission.
 151:Drivers/STM32L1xx_HAL_Driver/stm32l1xx_hal_flash.cpp ****   *
 152:Drivers/STM32L1xx_HAL_Driver/stm32l1xx_hal_flash.cpp ****   * THIS SOFTWARE IS PROVIDED BY THE COPYRIGHT HOLDERS AND CONTRIBUTORS "AS IS"
 153:Drivers/STM32L1xx_HAL_Driver/stm32l1xx_hal_flash.cpp ****   * AND ANY EXPRESS OR IMPLIED WARRANTIES, INCLUDING, BUT NOT LIMITED TO, THE
 154:Drivers/STM32L1xx_HAL_Driver/stm32l1xx_hal_flash.cpp ****   * IMPLIED WARRANTIES OF MERCHANTABILITY AND FITNESS FOR A PARTICULAR PURPOSE ARE
ARM GAS  /tmp/cchpVdt5.s 			page 5


 155:Drivers/STM32L1xx_HAL_Driver/stm32l1xx_hal_flash.cpp ****   * DISCLAIMED. IN NO EVENT SHALL THE COPYRIGHT HOLDER OR CONTRIBUTORS BE LIABLE
 156:Drivers/STM32L1xx_HAL_Driver/stm32l1xx_hal_flash.cpp ****   * FOR ANY DIRECT, INDIRECT, INCIDENTAL, SPECIAL, EXEMPLARY, OR CONSEQUENTIAL
 157:Drivers/STM32L1xx_HAL_Driver/stm32l1xx_hal_flash.cpp ****   * DAMAGES (INCLUDING, BUT NOT LIMITED TO, PROCUREMENT OF SUBSTITUTE GOODS OR
 158:Drivers/STM32L1xx_HAL_Driver/stm32l1xx_hal_flash.cpp ****   * SERVICES; LOSS OF USE, DATA, OR PROFITS; OR BUSINESS INTERRUPTION) HOWEVER
 159:Drivers/STM32L1xx_HAL_Driver/stm32l1xx_hal_flash.cpp ****   * CAUSED AND ON ANY THEORY OF LIABILITY, WHETHER IN CONTRACT, STRICT LIABILITY,
 160:Drivers/STM32L1xx_HAL_Driver/stm32l1xx_hal_flash.cpp ****   * OR TORT (INCLUDING NEGLIGENCE OR OTHERWISE) ARISING IN ANY WAY OUT OF THE USE
 161:Drivers/STM32L1xx_HAL_Driver/stm32l1xx_hal_flash.cpp ****   * OF THIS SOFTWARE, EVEN IF ADVISED OF THE POSSIBILITY OF SUCH DAMAGE.
 162:Drivers/STM32L1xx_HAL_Driver/stm32l1xx_hal_flash.cpp ****   *
 163:Drivers/STM32L1xx_HAL_Driver/stm32l1xx_hal_flash.cpp ****   ******************************************************************************
 164:Drivers/STM32L1xx_HAL_Driver/stm32l1xx_hal_flash.cpp ****   */ 
 165:Drivers/STM32L1xx_HAL_Driver/stm32l1xx_hal_flash.cpp **** 
 166:Drivers/STM32L1xx_HAL_Driver/stm32l1xx_hal_flash.cpp **** /* Includes ------------------------------------------------------------------*/
 167:Drivers/STM32L1xx_HAL_Driver/stm32l1xx_hal_flash.cpp **** #include "stm32l1xx_hal.h"
 168:Drivers/STM32L1xx_HAL_Driver/stm32l1xx_hal_flash.cpp **** #include <stdint.h>
 169:Drivers/STM32L1xx_HAL_Driver/stm32l1xx_hal_flash.cpp **** /** @addtogroup STM32L1xx_HAL_Driver
 170:Drivers/STM32L1xx_HAL_Driver/stm32l1xx_hal_flash.cpp ****   * @{
 171:Drivers/STM32L1xx_HAL_Driver/stm32l1xx_hal_flash.cpp ****   */
 172:Drivers/STM32L1xx_HAL_Driver/stm32l1xx_hal_flash.cpp **** 
 173:Drivers/STM32L1xx_HAL_Driver/stm32l1xx_hal_flash.cpp **** #ifdef HAL_FLASH_MODULE_ENABLED
 174:Drivers/STM32L1xx_HAL_Driver/stm32l1xx_hal_flash.cpp **** 
 175:Drivers/STM32L1xx_HAL_Driver/stm32l1xx_hal_flash.cpp **** /** @defgroup FLASH FLASH
 176:Drivers/STM32L1xx_HAL_Driver/stm32l1xx_hal_flash.cpp ****   * @brief FLASH driver modules
 177:Drivers/STM32L1xx_HAL_Driver/stm32l1xx_hal_flash.cpp ****   * @{
 178:Drivers/STM32L1xx_HAL_Driver/stm32l1xx_hal_flash.cpp ****   */
 179:Drivers/STM32L1xx_HAL_Driver/stm32l1xx_hal_flash.cpp **** 
 180:Drivers/STM32L1xx_HAL_Driver/stm32l1xx_hal_flash.cpp **** /* Private typedef -----------------------------------------------------------*/
 181:Drivers/STM32L1xx_HAL_Driver/stm32l1xx_hal_flash.cpp **** /* Private define ------------------------------------------------------------*/
 182:Drivers/STM32L1xx_HAL_Driver/stm32l1xx_hal_flash.cpp **** /* Private macro -------------------------------------------------------------*/
 183:Drivers/STM32L1xx_HAL_Driver/stm32l1xx_hal_flash.cpp **** /* Private variables ---------------------------------------------------------*/
 184:Drivers/STM32L1xx_HAL_Driver/stm32l1xx_hal_flash.cpp **** /** @defgroup FLASH_Internal_Variables FLASH Internal Variables
 185:Drivers/STM32L1xx_HAL_Driver/stm32l1xx_hal_flash.cpp ****   * @{
 186:Drivers/STM32L1xx_HAL_Driver/stm32l1xx_hal_flash.cpp ****   */  
 187:Drivers/STM32L1xx_HAL_Driver/stm32l1xx_hal_flash.cpp **** 
 188:Drivers/STM32L1xx_HAL_Driver/stm32l1xx_hal_flash.cpp **** /**
 189:Drivers/STM32L1xx_HAL_Driver/stm32l1xx_hal_flash.cpp ****   * @brief  Variable used for Program/Erase sectors under interruption 
 190:Drivers/STM32L1xx_HAL_Driver/stm32l1xx_hal_flash.cpp ****   */
 191:Drivers/STM32L1xx_HAL_Driver/stm32l1xx_hal_flash.cpp **** FLASH_ProcessTypeDef      ProcFlash;
 192:Drivers/STM32L1xx_HAL_Driver/stm32l1xx_hal_flash.cpp **** 
 193:Drivers/STM32L1xx_HAL_Driver/stm32l1xx_hal_flash.cpp **** 
 194:Drivers/STM32L1xx_HAL_Driver/stm32l1xx_hal_flash.cpp **** /**
 195:Drivers/STM32L1xx_HAL_Driver/stm32l1xx_hal_flash.cpp ****   * @}
 196:Drivers/STM32L1xx_HAL_Driver/stm32l1xx_hal_flash.cpp ****   */ 
 197:Drivers/STM32L1xx_HAL_Driver/stm32l1xx_hal_flash.cpp **** /* Private function prototypes -----------------------------------------------*/
 198:Drivers/STM32L1xx_HAL_Driver/stm32l1xx_hal_flash.cpp **** /* Private functions ---------------------------------------------------------*/
 199:Drivers/STM32L1xx_HAL_Driver/stm32l1xx_hal_flash.cpp **** 
 200:Drivers/STM32L1xx_HAL_Driver/stm32l1xx_hal_flash.cpp **** /** @defgroup FLASH_Exported_Functions FLASH Exported functions
 201:Drivers/STM32L1xx_HAL_Driver/stm32l1xx_hal_flash.cpp ****   * @{
 202:Drivers/STM32L1xx_HAL_Driver/stm32l1xx_hal_flash.cpp ****   */
 203:Drivers/STM32L1xx_HAL_Driver/stm32l1xx_hal_flash.cpp ****   
 204:Drivers/STM32L1xx_HAL_Driver/stm32l1xx_hal_flash.cpp **** /** @defgroup FLASH_Exported_Functions_Group1 Programming operation functions 
 205:Drivers/STM32L1xx_HAL_Driver/stm32l1xx_hal_flash.cpp ****  *  @brief   Programming operation functions 
 206:Drivers/STM32L1xx_HAL_Driver/stm32l1xx_hal_flash.cpp ****  *
 207:Drivers/STM32L1xx_HAL_Driver/stm32l1xx_hal_flash.cpp **** @verbatim
 208:Drivers/STM32L1xx_HAL_Driver/stm32l1xx_hal_flash.cpp **** @endverbatim
 209:Drivers/STM32L1xx_HAL_Driver/stm32l1xx_hal_flash.cpp ****   * @{
 210:Drivers/STM32L1xx_HAL_Driver/stm32l1xx_hal_flash.cpp ****   */
 211:Drivers/STM32L1xx_HAL_Driver/stm32l1xx_hal_flash.cpp **** /**
ARM GAS  /tmp/cchpVdt5.s 			page 6


 212:Drivers/STM32L1xx_HAL_Driver/stm32l1xx_hal_flash.cpp ****   * @brief  Program word at a specified address
 213:Drivers/STM32L1xx_HAL_Driver/stm32l1xx_hal_flash.cpp ****   * @note   To correctly run this function, the HAL_FLASH_Unlock() function
 214:Drivers/STM32L1xx_HAL_Driver/stm32l1xx_hal_flash.cpp ****   *         must be called before.
 215:Drivers/STM32L1xx_HAL_Driver/stm32l1xx_hal_flash.cpp ****   *         Call the HAL_FLASH_Lock() to disable the flash memory access
 216:Drivers/STM32L1xx_HAL_Driver/stm32l1xx_hal_flash.cpp ****   *         (recommended to protect the FLASH memory against possible unwanted operation).
 217:Drivers/STM32L1xx_HAL_Driver/stm32l1xx_hal_flash.cpp ****   * @param  TypeProgram:  Indicate the way to program at a specified address.
 218:Drivers/STM32L1xx_HAL_Driver/stm32l1xx_hal_flash.cpp ****   *                           This parameter can be a value of @ref FLASH_Type_Program
 219:Drivers/STM32L1xx_HAL_Driver/stm32l1xx_hal_flash.cpp ****   * @param  Address:  specifies the address to be programmed.
 220:Drivers/STM32L1xx_HAL_Driver/stm32l1xx_hal_flash.cpp ****   * @param  Data: specifies the data to be programmed
 221:Drivers/STM32L1xx_HAL_Driver/stm32l1xx_hal_flash.cpp ****   * 
 222:Drivers/STM32L1xx_HAL_Driver/stm32l1xx_hal_flash.cpp ****   * @retval HAL_StatusTypeDef HAL Status
 223:Drivers/STM32L1xx_HAL_Driver/stm32l1xx_hal_flash.cpp ****   */
 224:Drivers/STM32L1xx_HAL_Driver/stm32l1xx_hal_flash.cpp **** HAL_StatusTypeDef HAL_FLASH_Program(uint32_t TypeProgram, uint32_t Address, uint64_t Data)
 225:Drivers/STM32L1xx_HAL_Driver/stm32l1xx_hal_flash.cpp **** {
  71              		.loc 1 225 0
  72              		.cfi_startproc
  73              		@ args = 0, pretend = 0, frame = 24
  74              		@ frame_needed = 1, uses_anonymous_args = 0
  75 0000 80B5     		push	{r7, lr}	@
  76              	.LCFI0:
  77              		.cfi_def_cfa_offset 8
  78              		.cfi_offset 7, -8
  79              		.cfi_offset 14, -4
  80 0002 86B0     		sub	sp, sp, #24	@,,
  81              	.LCFI1:
  82              		.cfi_def_cfa_offset 32
  83 0004 00AF     		add	r7, sp, #0	@,,
  84              	.LCFI2:
  85              		.cfi_def_cfa_register 7
  86 0006 F860     		str	r0, [r7, #12]	@ TypeProgram, TypeProgram
  87 0008 B960     		str	r1, [r7, #8]	@ Address, Address
  88 000a C7E90023 		strd	r2, [r7]	@ Data, Data
  89              	.LBB2:
 226:Drivers/STM32L1xx_HAL_Driver/stm32l1xx_hal_flash.cpp ****   HAL_StatusTypeDef status = HAL_ERROR;
  90              		.loc 1 226 0
  91 000e 4FF00103 		mov	r3, #1	@ tmp139,
  92 0012 FB75     		strb	r3, [r7, #23]	@ tmp140, status
 227:Drivers/STM32L1xx_HAL_Driver/stm32l1xx_hal_flash.cpp ****   
 228:Drivers/STM32L1xx_HAL_Driver/stm32l1xx_hal_flash.cpp ****   /* Process Locked */
 229:Drivers/STM32L1xx_HAL_Driver/stm32l1xx_hal_flash.cpp ****   __HAL_LOCK(&ProcFlash);
  93              		.loc 1 229 0
  94 0014 40F20003 		movw	r3, #:lower16:ProcFlash	@ tmp141,
  95 0018 C0F20003 		movt	r3, #:upper16:ProcFlash	@ tmp141,
  96 001c 1B7C     		ldrb	r3, [r3, #16]	@ zero_extendqisi2	@ D.5951, ProcFlash.Lock
  97 001e 012B     		cmp	r3, #1	@ D.5951,
  98 0020 02D1     		bne	.L2	@,
  99              		.loc 1 229 0 is_stmt 0 discriminator 1
 100 0022 4FF00203 		mov	r3, #2	@ D.5954,
 101 0026 20E0     		b	.L3	@
 102              	.L2:
 103              		.loc 1 229 0 discriminator 2
 104 0028 40F20003 		movw	r3, #:lower16:ProcFlash	@ tmp142,
 105 002c C0F20003 		movt	r3, #:upper16:ProcFlash	@ tmp142,
 106 0030 4FF00102 		mov	r2, #1	@ tmp143,
 107 0034 1A74     		strb	r2, [r3, #16]	@ tmp144, ProcFlash.Lock
 230:Drivers/STM32L1xx_HAL_Driver/stm32l1xx_hal_flash.cpp **** 
 231:Drivers/STM32L1xx_HAL_Driver/stm32l1xx_hal_flash.cpp ****   /* Check the parameters */
ARM GAS  /tmp/cchpVdt5.s 			page 7


 232:Drivers/STM32L1xx_HAL_Driver/stm32l1xx_hal_flash.cpp ****   assert_param(IS_TYPEPROGRAMFLASH(TypeProgram));
 233:Drivers/STM32L1xx_HAL_Driver/stm32l1xx_hal_flash.cpp ****   assert_param(IS_FLASH_PROGRAM_ADDRESS(Address));
 234:Drivers/STM32L1xx_HAL_Driver/stm32l1xx_hal_flash.cpp **** 
 235:Drivers/STM32L1xx_HAL_Driver/stm32l1xx_hal_flash.cpp ****   /* Wait for last operation to be completed */
 236:Drivers/STM32L1xx_HAL_Driver/stm32l1xx_hal_flash.cpp ****   status = FLASH_WaitForLastOperation((uint32_t)HAL_FLASH_TIMEOUT_VALUE);
 108              		.loc 1 236 0 is_stmt 1 discriminator 2
 109 0036 4CF25030 		movw	r0, #50000	@,
 110 003a FFF7FEFF 		bl	FLASH_WaitForLastOperation	@
 111 003e 0346     		mov	r3, r0	@ tmp145,
 112 0040 FB75     		strb	r3, [r7, #23]	@ tmp146, status
 237:Drivers/STM32L1xx_HAL_Driver/stm32l1xx_hal_flash.cpp ****   
 238:Drivers/STM32L1xx_HAL_Driver/stm32l1xx_hal_flash.cpp ****   if(status == HAL_OK)
 113              		.loc 1 238 0 discriminator 2
 114 0042 FB7D     		ldrb	r3, [r7, #23]	@ zero_extendqisi2	@ tmp147, status
 115 0044 002B     		cmp	r3, #0	@ tmp147,
 116 0046 08D1     		bne	.L4	@,
 239:Drivers/STM32L1xx_HAL_Driver/stm32l1xx_hal_flash.cpp ****   {
 240:Drivers/STM32L1xx_HAL_Driver/stm32l1xx_hal_flash.cpp ****     /*Program word (32-bit) at a specified address.*/
 241:Drivers/STM32L1xx_HAL_Driver/stm32l1xx_hal_flash.cpp ****     *(__IO uint32_t *)Address = Data;
 117              		.loc 1 241 0
 118 0048 BB68     		ldr	r3, [r7, #8]	@ Address.5, Address
 119 004a 3A68     		ldr	r2, [r7, #0]	@ D.5958, Data
 120 004c 1A60     		str	r2, [r3, #0]	@ D.5958, *Address.5_8
 242:Drivers/STM32L1xx_HAL_Driver/stm32l1xx_hal_flash.cpp **** 
 243:Drivers/STM32L1xx_HAL_Driver/stm32l1xx_hal_flash.cpp ****     /* Wait for last operation to be completed */
 244:Drivers/STM32L1xx_HAL_Driver/stm32l1xx_hal_flash.cpp ****     status = FLASH_WaitForLastOperation((uint32_t)HAL_FLASH_TIMEOUT_VALUE);
 121              		.loc 1 244 0
 122 004e 4CF25030 		movw	r0, #50000	@,
 123 0052 FFF7FEFF 		bl	FLASH_WaitForLastOperation	@
 124 0056 0346     		mov	r3, r0	@ tmp148,
 125 0058 FB75     		strb	r3, [r7, #23]	@ tmp149, status
 126              	.L4:
 245:Drivers/STM32L1xx_HAL_Driver/stm32l1xx_hal_flash.cpp ****   }
 246:Drivers/STM32L1xx_HAL_Driver/stm32l1xx_hal_flash.cpp **** 
 247:Drivers/STM32L1xx_HAL_Driver/stm32l1xx_hal_flash.cpp ****   /* Process Unlocked */
 248:Drivers/STM32L1xx_HAL_Driver/stm32l1xx_hal_flash.cpp ****   __HAL_UNLOCK(&ProcFlash);
 127              		.loc 1 248 0
 128 005a 40F20003 		movw	r3, #:lower16:ProcFlash	@ tmp150,
 129 005e C0F20003 		movt	r3, #:upper16:ProcFlash	@ tmp150,
 130 0062 4FF00002 		mov	r2, #0	@ tmp151,
 131 0066 1A74     		strb	r2, [r3, #16]	@ tmp152, ProcFlash.Lock
 249:Drivers/STM32L1xx_HAL_Driver/stm32l1xx_hal_flash.cpp **** 
 250:Drivers/STM32L1xx_HAL_Driver/stm32l1xx_hal_flash.cpp ****   return status;
 132              		.loc 1 250 0
 133 0068 FB7D     		ldrb	r3, [r7, #23]	@ zero_extendqisi2	@ D.5954, status
 134              	.L3:
 135              	.LBE2:
 251:Drivers/STM32L1xx_HAL_Driver/stm32l1xx_hal_flash.cpp **** }
 136              		.loc 1 251 0
 137 006a 1846     		mov	r0, r3	@, <retval>
 138 006c 07F11807 		add	r7, r7, #24	@,,
 139 0070 BD46     		mov	sp, r7
 140 0072 80BD     		pop	{r7, pc}
 141              		.cfi_endproc
 142              	.LFE56:
 143              		.size	HAL_FLASH_Program, .-HAL_FLASH_Program
 144              		.section	.text.HAL_FLASH_Program_IT,"ax",%progbits
ARM GAS  /tmp/cchpVdt5.s 			page 8


 145              		.align	2
 146              		.global	HAL_FLASH_Program_IT
 147              		.thumb
 148              		.thumb_func
 149              		.type	HAL_FLASH_Program_IT, %function
 150              	HAL_FLASH_Program_IT:
 151              	.LFB57:
 252:Drivers/STM32L1xx_HAL_Driver/stm32l1xx_hal_flash.cpp **** 
 253:Drivers/STM32L1xx_HAL_Driver/stm32l1xx_hal_flash.cpp **** /**
 254:Drivers/STM32L1xx_HAL_Driver/stm32l1xx_hal_flash.cpp ****   * @brief   Program word at a specified address  with interrupt enabled.
 255:Drivers/STM32L1xx_HAL_Driver/stm32l1xx_hal_flash.cpp ****   * @param  TypeProgram:  Indicate the way to program at a specified address.
 256:Drivers/STM32L1xx_HAL_Driver/stm32l1xx_hal_flash.cpp ****   *                           This parameter can be a value of @ref FLASH_Type_Program
 257:Drivers/STM32L1xx_HAL_Driver/stm32l1xx_hal_flash.cpp ****   * @param  Address:  specifies the address to be programmed.
 258:Drivers/STM32L1xx_HAL_Driver/stm32l1xx_hal_flash.cpp ****   * @param  Data: specifies the data to be programmed
 259:Drivers/STM32L1xx_HAL_Driver/stm32l1xx_hal_flash.cpp ****   * 
 260:Drivers/STM32L1xx_HAL_Driver/stm32l1xx_hal_flash.cpp ****   * @retval HAL_StatusTypeDef HAL Status
 261:Drivers/STM32L1xx_HAL_Driver/stm32l1xx_hal_flash.cpp ****   */
 262:Drivers/STM32L1xx_HAL_Driver/stm32l1xx_hal_flash.cpp **** HAL_StatusTypeDef HAL_FLASH_Program_IT(uint32_t TypeProgram, uint32_t Address, uint64_t Data)
 263:Drivers/STM32L1xx_HAL_Driver/stm32l1xx_hal_flash.cpp **** {
 152              		.loc 1 263 0
 153              		.cfi_startproc
 154              		@ args = 0, pretend = 0, frame = 24
 155              		@ frame_needed = 1, uses_anonymous_args = 0
 156              		@ link register save eliminated.
 157 0000 80B4     		push	{r7}	@
 158              	.LCFI3:
 159              		.cfi_def_cfa_offset 4
 160              		.cfi_offset 7, -4
 161 0002 87B0     		sub	sp, sp, #28	@,,
 162              	.LCFI4:
 163              		.cfi_def_cfa_offset 32
 164 0004 00AF     		add	r7, sp, #0	@,,
 165              	.LCFI5:
 166              		.cfi_def_cfa_register 7
 167 0006 F860     		str	r0, [r7, #12]	@ TypeProgram, TypeProgram
 168 0008 B960     		str	r1, [r7, #8]	@ Address, Address
 169 000a C7E90023 		strd	r2, [r7]	@ Data, Data
 170              	.LBB3:
 264:Drivers/STM32L1xx_HAL_Driver/stm32l1xx_hal_flash.cpp ****   HAL_StatusTypeDef status = HAL_OK;
 171              		.loc 1 264 0
 172 000e 4FF00003 		mov	r3, #0	@ tmp148,
 173 0012 FB75     		strb	r3, [r7, #23]	@ tmp149, status
 265:Drivers/STM32L1xx_HAL_Driver/stm32l1xx_hal_flash.cpp ****   
 266:Drivers/STM32L1xx_HAL_Driver/stm32l1xx_hal_flash.cpp ****   /* Process Locked */
 267:Drivers/STM32L1xx_HAL_Driver/stm32l1xx_hal_flash.cpp ****   __HAL_LOCK(&ProcFlash);
 174              		.loc 1 267 0
 175 0014 40F20003 		movw	r3, #:lower16:ProcFlash	@ tmp150,
 176 0018 C0F20003 		movt	r3, #:upper16:ProcFlash	@ tmp150,
 177 001c 1B7C     		ldrb	r3, [r3, #16]	@ zero_extendqisi2	@ D.5928, ProcFlash.Lock
 178 001e 012B     		cmp	r3, #1	@ D.5928,
 179 0020 02D1     		bne	.L6	@,
 180              		.loc 1 267 0 is_stmt 0 discriminator 1
 181 0022 4FF00203 		mov	r3, #2	@ D.5931,
 182 0026 40E0     		b	.L7	@
 183              	.L6:
 184              		.loc 1 267 0 discriminator 2
 185 0028 40F20003 		movw	r3, #:lower16:ProcFlash	@ tmp151,
ARM GAS  /tmp/cchpVdt5.s 			page 9


 186 002c C0F20003 		movt	r3, #:upper16:ProcFlash	@ tmp151,
 187 0030 4FF00102 		mov	r2, #1	@ tmp152,
 188 0034 1A74     		strb	r2, [r3, #16]	@ tmp153, ProcFlash.Lock
 268:Drivers/STM32L1xx_HAL_Driver/stm32l1xx_hal_flash.cpp **** 
 269:Drivers/STM32L1xx_HAL_Driver/stm32l1xx_hal_flash.cpp ****   /* Check the parameters */
 270:Drivers/STM32L1xx_HAL_Driver/stm32l1xx_hal_flash.cpp ****   assert_param(IS_TYPEPROGRAMFLASH(TypeProgram));
 271:Drivers/STM32L1xx_HAL_Driver/stm32l1xx_hal_flash.cpp ****   assert_param(IS_FLASH_PROGRAM_ADDRESS(Address));
 272:Drivers/STM32L1xx_HAL_Driver/stm32l1xx_hal_flash.cpp **** 
 273:Drivers/STM32L1xx_HAL_Driver/stm32l1xx_hal_flash.cpp ****   /* Enable End of FLASH Operation interrupt */
 274:Drivers/STM32L1xx_HAL_Driver/stm32l1xx_hal_flash.cpp ****   __HAL_FLASH_ENABLE_IT(FLASH_IT_EOP);
 189              		.loc 1 274 0 is_stmt 1 discriminator 2
 190 0036 4FF47053 		mov	r3, #15360	@ D.5932,
 191 003a C4F20203 		movt	r3, 16386	@ D.5932,
 192 003e 4FF47052 		mov	r2, #15360	@ D.5933,
 193 0042 C4F20202 		movt	r2, 16386	@ D.5933,
 194 0046 5268     		ldr	r2, [r2, #4]	@ D.5934, D.5933_6->PECR
 195 0048 42F48032 		orr	r2, r2, #65536	@ D.5935, D.5934,
 196 004c 5A60     		str	r2, [r3, #4]	@ D.5935, D.5932_5->PECR
 275:Drivers/STM32L1xx_HAL_Driver/stm32l1xx_hal_flash.cpp ****   
 276:Drivers/STM32L1xx_HAL_Driver/stm32l1xx_hal_flash.cpp ****   /* Enable Error source interrupt */
 277:Drivers/STM32L1xx_HAL_Driver/stm32l1xx_hal_flash.cpp ****   __HAL_FLASH_ENABLE_IT(FLASH_IT_ERR);
 197              		.loc 1 277 0 discriminator 2
 198 004e 4FF47053 		mov	r3, #15360	@ D.5936,
 199 0052 C4F20203 		movt	r3, 16386	@ D.5936,
 200 0056 4FF47052 		mov	r2, #15360	@ D.5937,
 201 005a C4F20202 		movt	r2, 16386	@ D.5937,
 202 005e 5268     		ldr	r2, [r2, #4]	@ D.5938, D.5937_10->PECR
 203 0060 42F40032 		orr	r2, r2, #131072	@ D.5939, D.5938,
 204 0064 5A60     		str	r2, [r3, #4]	@ D.5939, D.5936_9->PECR
 278:Drivers/STM32L1xx_HAL_Driver/stm32l1xx_hal_flash.cpp ****   
 279:Drivers/STM32L1xx_HAL_Driver/stm32l1xx_hal_flash.cpp ****   /* Clear pending flags (if any) */  
 280:Drivers/STM32L1xx_HAL_Driver/stm32l1xx_hal_flash.cpp ****   __HAL_FLASH_CLEAR_FLAG(FLASH_FLAG_MASK);  
 205              		.loc 1 280 0 discriminator 2
 206 0066 4FF47053 		mov	r3, #15360	@ D.5940,
 207 006a C4F20203 		movt	r3, 16386	@ D.5940,
 208 006e 40F60672 		movw	r2, #3846	@ tmp154,
 209 0072 9A61     		str	r2, [r3, #24]	@ tmp154, D.5940_13->SR
 281:Drivers/STM32L1xx_HAL_Driver/stm32l1xx_hal_flash.cpp **** 
 282:Drivers/STM32L1xx_HAL_Driver/stm32l1xx_hal_flash.cpp ****   ProcFlash.ProcedureOnGoing = FLASH_PROC_PROGRAM;
 210              		.loc 1 282 0 discriminator 2
 211 0074 40F20003 		movw	r3, #:lower16:ProcFlash	@ tmp155,
 212 0078 C0F20003 		movt	r3, #:upper16:ProcFlash	@ tmp155,
 213 007c 4FF00202 		mov	r2, #2	@ tmp156,
 214 0080 1A70     		strb	r2, [r3, #0]	@ tmp157, ProcFlash.ProcedureOnGoing
 283:Drivers/STM32L1xx_HAL_Driver/stm32l1xx_hal_flash.cpp ****   ProcFlash.Address = Address;
 215              		.loc 1 283 0 discriminator 2
 216 0082 40F20003 		movw	r3, #:lower16:ProcFlash	@ tmp158,
 217 0086 C0F20003 		movt	r3, #:upper16:ProcFlash	@ tmp158,
 218 008a BA68     		ldr	r2, [r7, #8]	@ tmp159, Address
 219 008c DA60     		str	r2, [r3, #12]	@ tmp159, ProcFlash.Address
 284:Drivers/STM32L1xx_HAL_Driver/stm32l1xx_hal_flash.cpp **** 
 285:Drivers/STM32L1xx_HAL_Driver/stm32l1xx_hal_flash.cpp ****   if(TypeProgram == TYPEPROGRAM_WORD)
 220              		.loc 1 285 0 discriminator 2
 221 008e FB68     		ldr	r3, [r7, #12]	@ tmp160, TypeProgram
 222 0090 022B     		cmp	r3, #2	@ tmp160,
 223 0092 02D1     		bne	.L8	@,
 286:Drivers/STM32L1xx_HAL_Driver/stm32l1xx_hal_flash.cpp ****   {
ARM GAS  /tmp/cchpVdt5.s 			page 10


 287:Drivers/STM32L1xx_HAL_Driver/stm32l1xx_hal_flash.cpp ****     /*Program word (32-bit) at a specified address.*/
 288:Drivers/STM32L1xx_HAL_Driver/stm32l1xx_hal_flash.cpp ****     *(__IO uint32_t *)Address = Data;
 224              		.loc 1 288 0
 225 0094 BB68     		ldr	r3, [r7, #8]	@ Address.4, Address
 226 0096 3A68     		ldr	r2, [r7, #0]	@ D.5944, Data
 227 0098 1A60     		str	r2, [r3, #0]	@ D.5944, *Address.4_16
 228              	.L8:
 289:Drivers/STM32L1xx_HAL_Driver/stm32l1xx_hal_flash.cpp ****   }
 290:Drivers/STM32L1xx_HAL_Driver/stm32l1xx_hal_flash.cpp ****   
 291:Drivers/STM32L1xx_HAL_Driver/stm32l1xx_hal_flash.cpp ****   /* Process Unlocked */
 292:Drivers/STM32L1xx_HAL_Driver/stm32l1xx_hal_flash.cpp ****   __HAL_UNLOCK(&ProcFlash);
 229              		.loc 1 292 0
 230 009a 40F20003 		movw	r3, #:lower16:ProcFlash	@ tmp161,
 231 009e C0F20003 		movt	r3, #:upper16:ProcFlash	@ tmp161,
 232 00a2 4FF00002 		mov	r2, #0	@ tmp162,
 233 00a6 1A74     		strb	r2, [r3, #16]	@ tmp163, ProcFlash.Lock
 293:Drivers/STM32L1xx_HAL_Driver/stm32l1xx_hal_flash.cpp ****   
 294:Drivers/STM32L1xx_HAL_Driver/stm32l1xx_hal_flash.cpp ****   return status;
 234              		.loc 1 294 0
 235 00a8 FB7D     		ldrb	r3, [r7, #23]	@ zero_extendqisi2	@ D.5931, status
 236              	.L7:
 237              	.LBE3:
 295:Drivers/STM32L1xx_HAL_Driver/stm32l1xx_hal_flash.cpp **** }
 238              		.loc 1 295 0
 239 00aa 1846     		mov	r0, r3	@, <retval>
 240 00ac 07F11C07 		add	r7, r7, #28	@,,
 241 00b0 BD46     		mov	sp, r7
 242 00b2 80BC     		pop	{r7}
 243 00b4 7047     		bx	lr
 244              		.cfi_endproc
 245              	.LFE57:
 246              		.size	HAL_FLASH_Program_IT, .-HAL_FLASH_Program_IT
 247 00b6 00BF     		.section	.text.HAL_FLASH_EndOfOperationCallback,"ax",%progbits
 248              		.align	2
 249              		.weak	HAL_FLASH_EndOfOperationCallback
 250              		.thumb
 251              		.thumb_func
 252              		.type	HAL_FLASH_EndOfOperationCallback, %function
 253              	HAL_FLASH_EndOfOperationCallback:
 254              	.LFB58:
 296:Drivers/STM32L1xx_HAL_Driver/stm32l1xx_hal_flash.cpp **** 
 297:Drivers/STM32L1xx_HAL_Driver/stm32l1xx_hal_flash.cpp **** /**
 298:Drivers/STM32L1xx_HAL_Driver/stm32l1xx_hal_flash.cpp ****   * @brief  FLASH end of operation interrupt callback
 299:Drivers/STM32L1xx_HAL_Driver/stm32l1xx_hal_flash.cpp ****   * @param  ReturnValue: The value saved in this parameter depends on the ongoing procedure
 300:Drivers/STM32L1xx_HAL_Driver/stm32l1xx_hal_flash.cpp ****   *                 - Pages Erase: Sector which has been erased 
 301:Drivers/STM32L1xx_HAL_Driver/stm32l1xx_hal_flash.cpp ****   *                    (if 0xFFFFFFFF, it means that all the selected sectors have been erased)
 302:Drivers/STM32L1xx_HAL_Driver/stm32l1xx_hal_flash.cpp ****   *                 - Program: Address which was selected for data program
 303:Drivers/STM32L1xx_HAL_Driver/stm32l1xx_hal_flash.cpp ****   * @retval none
 304:Drivers/STM32L1xx_HAL_Driver/stm32l1xx_hal_flash.cpp ****   */
 305:Drivers/STM32L1xx_HAL_Driver/stm32l1xx_hal_flash.cpp **** __weak void HAL_FLASH_EndOfOperationCallback(uint32_t ReturnValue)
 306:Drivers/STM32L1xx_HAL_Driver/stm32l1xx_hal_flash.cpp **** {
 255              		.loc 1 306 0
 256              		.cfi_startproc
 257              		@ args = 0, pretend = 0, frame = 8
 258              		@ frame_needed = 1, uses_anonymous_args = 0
 259              		@ link register save eliminated.
 260 0000 80B4     		push	{r7}	@
ARM GAS  /tmp/cchpVdt5.s 			page 11


 261              	.LCFI6:
 262              		.cfi_def_cfa_offset 4
 263              		.cfi_offset 7, -4
 264 0002 83B0     		sub	sp, sp, #12	@,,
 265              	.LCFI7:
 266              		.cfi_def_cfa_offset 16
 267 0004 00AF     		add	r7, sp, #0	@,,
 268              	.LCFI8:
 269              		.cfi_def_cfa_register 7
 270 0006 7860     		str	r0, [r7, #4]	@ ReturnValue, ReturnValue
 307:Drivers/STM32L1xx_HAL_Driver/stm32l1xx_hal_flash.cpp ****   /* NOTE : This function Should not be modified, when the callback is needed,
 308:Drivers/STM32L1xx_HAL_Driver/stm32l1xx_hal_flash.cpp ****             the HAL_FLASH_EndOfOperationCallback could be implemented in the user file
 309:Drivers/STM32L1xx_HAL_Driver/stm32l1xx_hal_flash.cpp ****    */ 
 310:Drivers/STM32L1xx_HAL_Driver/stm32l1xx_hal_flash.cpp **** }
 271              		.loc 1 310 0
 272 0008 07F10C07 		add	r7, r7, #12	@,,
 273 000c BD46     		mov	sp, r7
 274 000e 80BC     		pop	{r7}
 275 0010 7047     		bx	lr
 276              		.cfi_endproc
 277              	.LFE58:
 278              		.size	HAL_FLASH_EndOfOperationCallback, .-HAL_FLASH_EndOfOperationCallback
 279 0012 00BF     		.section	.text.HAL_FLASH_OperationErrorCallback,"ax",%progbits
 280              		.align	2
 281              		.weak	HAL_FLASH_OperationErrorCallback
 282              		.thumb
 283              		.thumb_func
 284              		.type	HAL_FLASH_OperationErrorCallback, %function
 285              	HAL_FLASH_OperationErrorCallback:
 286              	.LFB59:
 311:Drivers/STM32L1xx_HAL_Driver/stm32l1xx_hal_flash.cpp **** 
 312:Drivers/STM32L1xx_HAL_Driver/stm32l1xx_hal_flash.cpp **** /**
 313:Drivers/STM32L1xx_HAL_Driver/stm32l1xx_hal_flash.cpp ****   * @brief  FLASH operation error interrupt callback
 314:Drivers/STM32L1xx_HAL_Driver/stm32l1xx_hal_flash.cpp ****   * @param  ReturnValue: The value saved in this parameter depends on the ongoing procedure
 315:Drivers/STM32L1xx_HAL_Driver/stm32l1xx_hal_flash.cpp ****   *                 - Pagess Erase: Sector number which returned an error
 316:Drivers/STM32L1xx_HAL_Driver/stm32l1xx_hal_flash.cpp ****   *                 - Program: Address which was selected for data program
 317:Drivers/STM32L1xx_HAL_Driver/stm32l1xx_hal_flash.cpp ****   * @retval none
 318:Drivers/STM32L1xx_HAL_Driver/stm32l1xx_hal_flash.cpp ****   */
 319:Drivers/STM32L1xx_HAL_Driver/stm32l1xx_hal_flash.cpp **** __weak void HAL_FLASH_OperationErrorCallback(uint32_t ReturnValue)
 320:Drivers/STM32L1xx_HAL_Driver/stm32l1xx_hal_flash.cpp **** {
 287              		.loc 1 320 0
 288              		.cfi_startproc
 289              		@ args = 0, pretend = 0, frame = 8
 290              		@ frame_needed = 1, uses_anonymous_args = 0
 291              		@ link register save eliminated.
 292 0000 80B4     		push	{r7}	@
 293              	.LCFI9:
 294              		.cfi_def_cfa_offset 4
 295              		.cfi_offset 7, -4
 296 0002 83B0     		sub	sp, sp, #12	@,,
 297              	.LCFI10:
 298              		.cfi_def_cfa_offset 16
 299 0004 00AF     		add	r7, sp, #0	@,,
 300              	.LCFI11:
 301              		.cfi_def_cfa_register 7
 302 0006 7860     		str	r0, [r7, #4]	@ ReturnValue, ReturnValue
 321:Drivers/STM32L1xx_HAL_Driver/stm32l1xx_hal_flash.cpp ****   /* NOTE : This function Should not be modified, when the callback is needed,
ARM GAS  /tmp/cchpVdt5.s 			page 12


 322:Drivers/STM32L1xx_HAL_Driver/stm32l1xx_hal_flash.cpp ****             the HAL_FLASH_OperationErrorCallback could be implemented in the user file
 323:Drivers/STM32L1xx_HAL_Driver/stm32l1xx_hal_flash.cpp ****    */ 
 324:Drivers/STM32L1xx_HAL_Driver/stm32l1xx_hal_flash.cpp **** }
 303              		.loc 1 324 0
 304 0008 07F10C07 		add	r7, r7, #12	@,,
 305 000c BD46     		mov	sp, r7
 306 000e 80BC     		pop	{r7}
 307 0010 7047     		bx	lr
 308              		.cfi_endproc
 309              	.LFE59:
 310              		.size	HAL_FLASH_OperationErrorCallback, .-HAL_FLASH_OperationErrorCallback
 311 0012 00BF     		.section	.text.HAL_FLASH_Unlock,"ax",%progbits
 312              		.align	2
 313              		.global	HAL_FLASH_Unlock
 314              		.thumb
 315              		.thumb_func
 316              		.type	HAL_FLASH_Unlock, %function
 317              	HAL_FLASH_Unlock:
 318              	.LFB60:
 325:Drivers/STM32L1xx_HAL_Driver/stm32l1xx_hal_flash.cpp **** 
 326:Drivers/STM32L1xx_HAL_Driver/stm32l1xx_hal_flash.cpp **** /**
 327:Drivers/STM32L1xx_HAL_Driver/stm32l1xx_hal_flash.cpp ****   * @}
 328:Drivers/STM32L1xx_HAL_Driver/stm32l1xx_hal_flash.cpp ****   */  
 329:Drivers/STM32L1xx_HAL_Driver/stm32l1xx_hal_flash.cpp **** 
 330:Drivers/STM32L1xx_HAL_Driver/stm32l1xx_hal_flash.cpp **** /** @defgroup FLASH_Exported_Functions_Group2 Peripheral Control functions 
 331:Drivers/STM32L1xx_HAL_Driver/stm32l1xx_hal_flash.cpp ****  *  @brief   management functions 
 332:Drivers/STM32L1xx_HAL_Driver/stm32l1xx_hal_flash.cpp ****  *
 333:Drivers/STM32L1xx_HAL_Driver/stm32l1xx_hal_flash.cpp **** @verbatim   
 334:Drivers/STM32L1xx_HAL_Driver/stm32l1xx_hal_flash.cpp ****  ===============================================================================
 335:Drivers/STM32L1xx_HAL_Driver/stm32l1xx_hal_flash.cpp ****                       ##### Peripheral Control functions #####
 336:Drivers/STM32L1xx_HAL_Driver/stm32l1xx_hal_flash.cpp ****  ===============================================================================  
 337:Drivers/STM32L1xx_HAL_Driver/stm32l1xx_hal_flash.cpp ****     [..]
 338:Drivers/STM32L1xx_HAL_Driver/stm32l1xx_hal_flash.cpp ****     This subsection provides a set of functions allowing to control the FLASH 
 339:Drivers/STM32L1xx_HAL_Driver/stm32l1xx_hal_flash.cpp ****     memory operations.
 340:Drivers/STM32L1xx_HAL_Driver/stm32l1xx_hal_flash.cpp **** 
 341:Drivers/STM32L1xx_HAL_Driver/stm32l1xx_hal_flash.cpp **** @endverbatim
 342:Drivers/STM32L1xx_HAL_Driver/stm32l1xx_hal_flash.cpp ****   * @{
 343:Drivers/STM32L1xx_HAL_Driver/stm32l1xx_hal_flash.cpp ****   */  
 344:Drivers/STM32L1xx_HAL_Driver/stm32l1xx_hal_flash.cpp **** 
 345:Drivers/STM32L1xx_HAL_Driver/stm32l1xx_hal_flash.cpp **** /**
 346:Drivers/STM32L1xx_HAL_Driver/stm32l1xx_hal_flash.cpp ****   * @brief  Unlock the FLASH control register access
 347:Drivers/STM32L1xx_HAL_Driver/stm32l1xx_hal_flash.cpp ****   * @retval HAL_StatusTypeDef HAL Status
 348:Drivers/STM32L1xx_HAL_Driver/stm32l1xx_hal_flash.cpp ****   */
 349:Drivers/STM32L1xx_HAL_Driver/stm32l1xx_hal_flash.cpp **** HAL_StatusTypeDef HAL_FLASH_Unlock(void)  
 350:Drivers/STM32L1xx_HAL_Driver/stm32l1xx_hal_flash.cpp **** {
 319              		.loc 1 350 0
 320              		.cfi_startproc
 321              		@ args = 0, pretend = 0, frame = 0
 322              		@ frame_needed = 1, uses_anonymous_args = 0
 323              		@ link register save eliminated.
 324 0000 80B4     		push	{r7}	@
 325              	.LCFI12:
 326              		.cfi_def_cfa_offset 4
 327              		.cfi_offset 7, -4
 328 0002 00AF     		add	r7, sp, #0	@,,
 329              	.LCFI13:
 330              		.cfi_def_cfa_register 7
ARM GAS  /tmp/cchpVdt5.s 			page 13


 351:Drivers/STM32L1xx_HAL_Driver/stm32l1xx_hal_flash.cpp ****   if((FLASH->PECR & FLASH_PECR_PRGLOCK) != RESET)
 331              		.loc 1 351 0
 332 0004 4FF47053 		mov	r3, #15360	@ D.5907,
 333 0008 C4F20203 		movt	r3, 16386	@ D.5907,
 334 000c 5B68     		ldr	r3, [r3, #4]	@ D.5908, D.5907_2->PECR
 335 000e 03F00203 		and	r3, r3, #2	@ D.5909, D.5908,
 336 0012 002B     		cmp	r3, #0	@ D.5909,
 337 0014 0CBF     		ite	eq	@
 338 0016 0023     		moveq	r3, #0	@, tmp149
 339 0018 0123     		movne	r3, #1	@, tmp149
 340 001a DBB2     		uxtb	r3, r3	@ retval.2, tmp148
 341 001c 002B     		cmp	r3, #0	@ retval.2,
 342 001e 34D0     		beq	.L12	@,
 352:Drivers/STM32L1xx_HAL_Driver/stm32l1xx_hal_flash.cpp ****   {
 353:Drivers/STM32L1xx_HAL_Driver/stm32l1xx_hal_flash.cpp ****     /* Unlocking FLASH_PECR register access*/
 354:Drivers/STM32L1xx_HAL_Driver/stm32l1xx_hal_flash.cpp ****     if((FLASH->PECR & FLASH_PECR_PELOCK) != RESET)
 343              		.loc 1 354 0
 344 0020 4FF47053 		mov	r3, #15360	@ D.5913,
 345 0024 C4F20203 		movt	r3, 16386	@ D.5913,
 346 0028 5B68     		ldr	r3, [r3, #4]	@ D.5914, D.5913_6->PECR
 347 002a 03F00103 		and	r3, r3, #1	@ D.5915, D.5914,
 348 002e 002B     		cmp	r3, #0	@ D.5915,
 349 0030 0CBF     		ite	eq	@
 350 0032 0023     		moveq	r3, #0	@, tmp151
 351 0034 0123     		movne	r3, #1	@, tmp151
 352 0036 DBB2     		uxtb	r3, r3	@ retval.3, tmp150
 353 0038 002B     		cmp	r3, #0	@ retval.3,
 354 003a 11D0     		beq	.L13	@,
 355:Drivers/STM32L1xx_HAL_Driver/stm32l1xx_hal_flash.cpp ****     {  
 356:Drivers/STM32L1xx_HAL_Driver/stm32l1xx_hal_flash.cpp ****       FLASH->PEKEYR = FLASH_PEKEY1;
 355              		.loc 1 356 0
 356 003c 4FF47053 		mov	r3, #15360	@ D.5918,
 357 0040 C4F20203 		movt	r3, 16386	@ D.5918,
 358 0044 4CF6EF52 		movw	r2, #52719	@ tmp152,
 359 0048 C8F6AB12 		movt	r2, 35243	@ tmp152,
 360 004c DA60     		str	r2, [r3, #12]	@ tmp152, D.5918_10->PEKEYR
 357:Drivers/STM32L1xx_HAL_Driver/stm32l1xx_hal_flash.cpp ****       FLASH->PEKEYR = FLASH_PEKEY2;
 361              		.loc 1 357 0
 362 004e 4FF47053 		mov	r3, #15360	@ D.5919,
 363 0052 C4F20203 		movt	r3, 16386	@ D.5919,
 364 0056 40F20542 		movw	r2, #1029	@ tmp153,
 365 005a C0F20322 		movt	r2, 515	@ tmp153,
 366 005e DA60     		str	r2, [r3, #12]	@ tmp153, D.5919_11->PEKEYR
 367              	.L13:
 358:Drivers/STM32L1xx_HAL_Driver/stm32l1xx_hal_flash.cpp ****     }
 359:Drivers/STM32L1xx_HAL_Driver/stm32l1xx_hal_flash.cpp ****     
 360:Drivers/STM32L1xx_HAL_Driver/stm32l1xx_hal_flash.cpp ****     /* Unlocking the program memory access */
 361:Drivers/STM32L1xx_HAL_Driver/stm32l1xx_hal_flash.cpp ****     FLASH->PRGKEYR = FLASH_PRGKEY1;
 368              		.loc 1 361 0
 369 0060 4FF47053 		mov	r3, #15360	@ D.5921,
 370 0064 C4F20203 		movt	r3, 16386	@ D.5921,
 371 0068 4AF6BF62 		movw	r2, #44735	@ tmp154,
 372 006c C8F69D42 		movt	r2, 35997	@ tmp154,
 373 0070 1A61     		str	r2, [r3, #16]	@ tmp154, D.5921_12->PRGKEYR
 362:Drivers/STM32L1xx_HAL_Driver/stm32l1xx_hal_flash.cpp ****     FLASH->PRGKEYR = FLASH_PRGKEY2;  
 374              		.loc 1 362 0
 375 0072 4FF47053 		mov	r3, #15360	@ D.5922,
ARM GAS  /tmp/cchpVdt5.s 			page 14


 376 0076 C4F20203 		movt	r3, 16386	@ D.5922,
 377 007a 41F21652 		movw	r2, #5398	@ tmp155,
 378 007e C1F21432 		movt	r2, 4884	@ tmp155,
 379 0082 1A61     		str	r2, [r3, #16]	@ tmp155, D.5922_13->PRGKEYR
 363:Drivers/STM32L1xx_HAL_Driver/stm32l1xx_hal_flash.cpp ****   }
 364:Drivers/STM32L1xx_HAL_Driver/stm32l1xx_hal_flash.cpp ****   else
 365:Drivers/STM32L1xx_HAL_Driver/stm32l1xx_hal_flash.cpp ****   {
 366:Drivers/STM32L1xx_HAL_Driver/stm32l1xx_hal_flash.cpp ****     return HAL_ERROR;
 367:Drivers/STM32L1xx_HAL_Driver/stm32l1xx_hal_flash.cpp ****   }
 368:Drivers/STM32L1xx_HAL_Driver/stm32l1xx_hal_flash.cpp ****   
 369:Drivers/STM32L1xx_HAL_Driver/stm32l1xx_hal_flash.cpp ****   return HAL_OK; 
 380              		.loc 1 369 0
 381 0084 4FF00003 		mov	r3, #0	@ D.5924,
 382 0088 01E0     		b	.L14	@
 383              	.L12:
 366:Drivers/STM32L1xx_HAL_Driver/stm32l1xx_hal_flash.cpp ****     return HAL_ERROR;
 384              		.loc 1 366 0
 385 008a 4FF00103 		mov	r3, #1	@ D.5924,
 386              	.L14:
 370:Drivers/STM32L1xx_HAL_Driver/stm32l1xx_hal_flash.cpp **** }
 387              		.loc 1 370 0
 388 008e 1846     		mov	r0, r3	@, <retval>
 389 0090 BD46     		mov	sp, r7
 390 0092 80BC     		pop	{r7}
 391 0094 7047     		bx	lr
 392              		.cfi_endproc
 393              	.LFE60:
 394              		.size	HAL_FLASH_Unlock, .-HAL_FLASH_Unlock
 395 0096 00BF     		.section	.text.HAL_FLASH_Lock,"ax",%progbits
 396              		.align	2
 397              		.global	HAL_FLASH_Lock
 398              		.thumb
 399              		.thumb_func
 400              		.type	HAL_FLASH_Lock, %function
 401              	HAL_FLASH_Lock:
 402              	.LFB61:
 371:Drivers/STM32L1xx_HAL_Driver/stm32l1xx_hal_flash.cpp **** 
 372:Drivers/STM32L1xx_HAL_Driver/stm32l1xx_hal_flash.cpp **** /**
 373:Drivers/STM32L1xx_HAL_Driver/stm32l1xx_hal_flash.cpp ****   * @brief  Locks the FLASH control register access
 374:Drivers/STM32L1xx_HAL_Driver/stm32l1xx_hal_flash.cpp ****   * @retval HAL_StatusTypeDef HAL Status
 375:Drivers/STM32L1xx_HAL_Driver/stm32l1xx_hal_flash.cpp ****   */
 376:Drivers/STM32L1xx_HAL_Driver/stm32l1xx_hal_flash.cpp **** HAL_StatusTypeDef HAL_FLASH_Lock(void)
 377:Drivers/STM32L1xx_HAL_Driver/stm32l1xx_hal_flash.cpp **** {
 403              		.loc 1 377 0
 404              		.cfi_startproc
 405              		@ args = 0, pretend = 0, frame = 0
 406              		@ frame_needed = 1, uses_anonymous_args = 0
 407              		@ link register save eliminated.
 408 0000 80B4     		push	{r7}	@
 409              	.LCFI14:
 410              		.cfi_def_cfa_offset 4
 411              		.cfi_offset 7, -4
 412 0002 00AF     		add	r7, sp, #0	@,,
 413              	.LCFI15:
 414              		.cfi_def_cfa_register 7
 378:Drivers/STM32L1xx_HAL_Driver/stm32l1xx_hal_flash.cpp ****   /* Set the PRGLOCK Bit to lock the program memory access */
 379:Drivers/STM32L1xx_HAL_Driver/stm32l1xx_hal_flash.cpp ****   SET_BIT(FLASH->PECR, FLASH_PECR_PRGLOCK);
ARM GAS  /tmp/cchpVdt5.s 			page 15


 415              		.loc 1 379 0
 416 0004 4FF47053 		mov	r3, #15360	@ D.5900,
 417 0008 C4F20203 		movt	r3, 16386	@ D.5900,
 418 000c 4FF47052 		mov	r2, #15360	@ D.5901,
 419 0010 C4F20202 		movt	r2, 16386	@ D.5901,
 420 0014 5268     		ldr	r2, [r2, #4]	@ D.5902, D.5901_2->PECR
 421 0016 42F00202 		orr	r2, r2, #2	@ D.5903, D.5902,
 422 001a 5A60     		str	r2, [r3, #4]	@ D.5903, D.5900_1->PECR
 380:Drivers/STM32L1xx_HAL_Driver/stm32l1xx_hal_flash.cpp ****   
 381:Drivers/STM32L1xx_HAL_Driver/stm32l1xx_hal_flash.cpp ****   return HAL_OK;
 423              		.loc 1 381 0
 424 001c 4FF00003 		mov	r3, #0	@ D.5904,
 382:Drivers/STM32L1xx_HAL_Driver/stm32l1xx_hal_flash.cpp **** }
 425              		.loc 1 382 0
 426 0020 1846     		mov	r0, r3	@, <retval>
 427 0022 BD46     		mov	sp, r7
 428 0024 80BC     		pop	{r7}
 429 0026 7047     		bx	lr
 430              		.cfi_endproc
 431              	.LFE61:
 432              		.size	HAL_FLASH_Lock, .-HAL_FLASH_Lock
 433              		.section	.text.HAL_FLASH_OB_Unlock,"ax",%progbits
 434              		.align	2
 435              		.global	HAL_FLASH_OB_Unlock
 436              		.thumb
 437              		.thumb_func
 438              		.type	HAL_FLASH_OB_Unlock, %function
 439              	HAL_FLASH_OB_Unlock:
 440              	.LFB62:
 383:Drivers/STM32L1xx_HAL_Driver/stm32l1xx_hal_flash.cpp **** 
 384:Drivers/STM32L1xx_HAL_Driver/stm32l1xx_hal_flash.cpp **** /**
 385:Drivers/STM32L1xx_HAL_Driver/stm32l1xx_hal_flash.cpp ****   * @brief  Unlock the FLASH Option Control Registers access.
 386:Drivers/STM32L1xx_HAL_Driver/stm32l1xx_hal_flash.cpp ****   * @retval HAL_StatusTypeDef HAL Status
 387:Drivers/STM32L1xx_HAL_Driver/stm32l1xx_hal_flash.cpp ****   */
 388:Drivers/STM32L1xx_HAL_Driver/stm32l1xx_hal_flash.cpp **** HAL_StatusTypeDef HAL_FLASH_OB_Unlock(void)
 389:Drivers/STM32L1xx_HAL_Driver/stm32l1xx_hal_flash.cpp **** {
 441              		.loc 1 389 0
 442              		.cfi_startproc
 443              		@ args = 0, pretend = 0, frame = 0
 444              		@ frame_needed = 1, uses_anonymous_args = 0
 445              		@ link register save eliminated.
 446 0000 80B4     		push	{r7}	@
 447              	.LCFI16:
 448              		.cfi_def_cfa_offset 4
 449              		.cfi_offset 7, -4
 450 0002 00AF     		add	r7, sp, #0	@,,
 451              	.LCFI17:
 452              		.cfi_def_cfa_register 7
 390:Drivers/STM32L1xx_HAL_Driver/stm32l1xx_hal_flash.cpp ****   if((FLASH->PECR & FLASH_PECR_OPTLOCK) != RESET)
 453              		.loc 1 390 0
 454 0004 4FF47053 		mov	r3, #15360	@ D.5881,
 455 0008 C4F20203 		movt	r3, 16386	@ D.5881,
 456 000c 5B68     		ldr	r3, [r3, #4]	@ D.5882, D.5881_2->PECR
 457 000e 03F00403 		and	r3, r3, #4	@ D.5883, D.5882,
 458 0012 002B     		cmp	r3, #0	@ D.5883,
 459 0014 0CBF     		ite	eq	@
 460 0016 0023     		moveq	r3, #0	@, tmp149
ARM GAS  /tmp/cchpVdt5.s 			page 16


 461 0018 0123     		movne	r3, #1	@, tmp149
 462 001a DBB2     		uxtb	r3, r3	@ retval.0, tmp148
 463 001c 002B     		cmp	r3, #0	@ retval.0,
 464 001e 34D0     		beq	.L18	@,
 391:Drivers/STM32L1xx_HAL_Driver/stm32l1xx_hal_flash.cpp ****   {
 392:Drivers/STM32L1xx_HAL_Driver/stm32l1xx_hal_flash.cpp ****     /* Unlocking FLASH_PECR register access*/
 393:Drivers/STM32L1xx_HAL_Driver/stm32l1xx_hal_flash.cpp ****     if((FLASH->PECR & FLASH_PECR_PELOCK) != RESET)
 465              		.loc 1 393 0
 466 0020 4FF47053 		mov	r3, #15360	@ D.5887,
 467 0024 C4F20203 		movt	r3, 16386	@ D.5887,
 468 0028 5B68     		ldr	r3, [r3, #4]	@ D.5888, D.5887_6->PECR
 469 002a 03F00103 		and	r3, r3, #1	@ D.5889, D.5888,
 470 002e 002B     		cmp	r3, #0	@ D.5889,
 471 0030 0CBF     		ite	eq	@
 472 0032 0023     		moveq	r3, #0	@, tmp151
 473 0034 0123     		movne	r3, #1	@, tmp151
 474 0036 DBB2     		uxtb	r3, r3	@ retval.1, tmp150
 475 0038 002B     		cmp	r3, #0	@ retval.1,
 476 003a 11D0     		beq	.L19	@,
 394:Drivers/STM32L1xx_HAL_Driver/stm32l1xx_hal_flash.cpp ****     {  
 395:Drivers/STM32L1xx_HAL_Driver/stm32l1xx_hal_flash.cpp ****       /* Unlocking FLASH_PECR register access*/
 396:Drivers/STM32L1xx_HAL_Driver/stm32l1xx_hal_flash.cpp ****       FLASH->PEKEYR = FLASH_PEKEY1;
 477              		.loc 1 396 0
 478 003c 4FF47053 		mov	r3, #15360	@ D.5892,
 479 0040 C4F20203 		movt	r3, 16386	@ D.5892,
 480 0044 4CF6EF52 		movw	r2, #52719	@ tmp152,
 481 0048 C8F6AB12 		movt	r2, 35243	@ tmp152,
 482 004c DA60     		str	r2, [r3, #12]	@ tmp152, D.5892_10->PEKEYR
 397:Drivers/STM32L1xx_HAL_Driver/stm32l1xx_hal_flash.cpp ****       FLASH->PEKEYR = FLASH_PEKEY2;
 483              		.loc 1 397 0
 484 004e 4FF47053 		mov	r3, #15360	@ D.5893,
 485 0052 C4F20203 		movt	r3, 16386	@ D.5893,
 486 0056 40F20542 		movw	r2, #1029	@ tmp153,
 487 005a C0F20322 		movt	r2, 515	@ tmp153,
 488 005e DA60     		str	r2, [r3, #12]	@ tmp153, D.5893_11->PEKEYR
 489              	.L19:
 398:Drivers/STM32L1xx_HAL_Driver/stm32l1xx_hal_flash.cpp ****     }
 399:Drivers/STM32L1xx_HAL_Driver/stm32l1xx_hal_flash.cpp **** 
 400:Drivers/STM32L1xx_HAL_Driver/stm32l1xx_hal_flash.cpp ****     /* Unlocking the option bytes block access */
 401:Drivers/STM32L1xx_HAL_Driver/stm32l1xx_hal_flash.cpp ****     FLASH->OPTKEYR = FLASH_OPTKEY1;
 490              		.loc 1 401 0
 491 0060 4FF47053 		mov	r3, #15360	@ D.5895,
 492 0064 C4F20203 		movt	r3, 16386	@ D.5895,
 493 0068 4DF6C812 		movw	r2, #55752	@ tmp154,
 494 006c CFF6EA32 		movt	r2, 64490	@ tmp154,
 495 0070 5A61     		str	r2, [r3, #20]	@ tmp154, D.5895_12->OPTKEYR
 402:Drivers/STM32L1xx_HAL_Driver/stm32l1xx_hal_flash.cpp ****     FLASH->OPTKEYR = FLASH_OPTKEY2;
 496              		.loc 1 402 0
 497 0072 4FF47053 		mov	r3, #15360	@ D.5896,
 498 0076 C4F20203 		movt	r3, 16386	@ D.5896,
 499 007a 42F22762 		movw	r2, #9767	@ tmp155,
 500 007e C2F22542 		movt	r2, 9253	@ tmp155,
 501 0082 5A61     		str	r2, [r3, #20]	@ tmp155, D.5896_13->OPTKEYR
 403:Drivers/STM32L1xx_HAL_Driver/stm32l1xx_hal_flash.cpp ****   }
 404:Drivers/STM32L1xx_HAL_Driver/stm32l1xx_hal_flash.cpp ****   else
 405:Drivers/STM32L1xx_HAL_Driver/stm32l1xx_hal_flash.cpp ****   {
 406:Drivers/STM32L1xx_HAL_Driver/stm32l1xx_hal_flash.cpp ****     return HAL_ERROR;
ARM GAS  /tmp/cchpVdt5.s 			page 17


 407:Drivers/STM32L1xx_HAL_Driver/stm32l1xx_hal_flash.cpp ****   }  
 408:Drivers/STM32L1xx_HAL_Driver/stm32l1xx_hal_flash.cpp ****   
 409:Drivers/STM32L1xx_HAL_Driver/stm32l1xx_hal_flash.cpp ****   return HAL_OK;
 502              		.loc 1 409 0
 503 0084 4FF00003 		mov	r3, #0	@ D.5898,
 504 0088 01E0     		b	.L20	@
 505              	.L18:
 406:Drivers/STM32L1xx_HAL_Driver/stm32l1xx_hal_flash.cpp ****     return HAL_ERROR;
 506              		.loc 1 406 0
 507 008a 4FF00103 		mov	r3, #1	@ D.5898,
 508              	.L20:
 410:Drivers/STM32L1xx_HAL_Driver/stm32l1xx_hal_flash.cpp **** }
 509              		.loc 1 410 0
 510 008e 1846     		mov	r0, r3	@, <retval>
 511 0090 BD46     		mov	sp, r7
 512 0092 80BC     		pop	{r7}
 513 0094 7047     		bx	lr
 514              		.cfi_endproc
 515              	.LFE62:
 516              		.size	HAL_FLASH_OB_Unlock, .-HAL_FLASH_OB_Unlock
 517 0096 00BF     		.section	.text.HAL_FLASH_OB_Lock,"ax",%progbits
 518              		.align	2
 519              		.global	HAL_FLASH_OB_Lock
 520              		.thumb
 521              		.thumb_func
 522              		.type	HAL_FLASH_OB_Lock, %function
 523              	HAL_FLASH_OB_Lock:
 524              	.LFB63:
 411:Drivers/STM32L1xx_HAL_Driver/stm32l1xx_hal_flash.cpp **** 
 412:Drivers/STM32L1xx_HAL_Driver/stm32l1xx_hal_flash.cpp **** /**
 413:Drivers/STM32L1xx_HAL_Driver/stm32l1xx_hal_flash.cpp ****   * @brief  Lock the FLASH Option Control Registers access.
 414:Drivers/STM32L1xx_HAL_Driver/stm32l1xx_hal_flash.cpp ****   * @retval HAL_StatusTypeDef HAL Status 
 415:Drivers/STM32L1xx_HAL_Driver/stm32l1xx_hal_flash.cpp ****   */
 416:Drivers/STM32L1xx_HAL_Driver/stm32l1xx_hal_flash.cpp **** HAL_StatusTypeDef HAL_FLASH_OB_Lock(void)
 417:Drivers/STM32L1xx_HAL_Driver/stm32l1xx_hal_flash.cpp **** {
 525              		.loc 1 417 0
 526              		.cfi_startproc
 527              		@ args = 0, pretend = 0, frame = 0
 528              		@ frame_needed = 1, uses_anonymous_args = 0
 529              		@ link register save eliminated.
 530 0000 80B4     		push	{r7}	@
 531              	.LCFI18:
 532              		.cfi_def_cfa_offset 4
 533              		.cfi_offset 7, -4
 534 0002 00AF     		add	r7, sp, #0	@,,
 535              	.LCFI19:
 536              		.cfi_def_cfa_register 7
 418:Drivers/STM32L1xx_HAL_Driver/stm32l1xx_hal_flash.cpp ****   /* Set the OPTLOCK Bit to lock the option bytes block access */
 419:Drivers/STM32L1xx_HAL_Driver/stm32l1xx_hal_flash.cpp ****   SET_BIT(FLASH->PECR, FLASH_PECR_OPTLOCK);
 537              		.loc 1 419 0
 538 0004 4FF47053 		mov	r3, #15360	@ D.5874,
 539 0008 C4F20203 		movt	r3, 16386	@ D.5874,
 540 000c 4FF47052 		mov	r2, #15360	@ D.5875,
 541 0010 C4F20202 		movt	r2, 16386	@ D.5875,
 542 0014 5268     		ldr	r2, [r2, #4]	@ D.5876, D.5875_2->PECR
 543 0016 42F00402 		orr	r2, r2, #4	@ D.5877, D.5876,
 544 001a 5A60     		str	r2, [r3, #4]	@ D.5877, D.5874_1->PECR
ARM GAS  /tmp/cchpVdt5.s 			page 18


 420:Drivers/STM32L1xx_HAL_Driver/stm32l1xx_hal_flash.cpp **** 
 421:Drivers/STM32L1xx_HAL_Driver/stm32l1xx_hal_flash.cpp ****   return HAL_OK;  
 545              		.loc 1 421 0
 546 001c 4FF00003 		mov	r3, #0	@ D.5878,
 422:Drivers/STM32L1xx_HAL_Driver/stm32l1xx_hal_flash.cpp **** }
 547              		.loc 1 422 0
 548 0020 1846     		mov	r0, r3	@, <retval>
 549 0022 BD46     		mov	sp, r7
 550 0024 80BC     		pop	{r7}
 551 0026 7047     		bx	lr
 552              		.cfi_endproc
 553              	.LFE63:
 554              		.size	HAL_FLASH_OB_Lock, .-HAL_FLASH_OB_Lock
 555              		.section	.text.HAL_FLASH_OB_Launch,"ax",%progbits
 556              		.align	2
 557              		.global	HAL_FLASH_OB_Launch
 558              		.thumb
 559              		.thumb_func
 560              		.type	HAL_FLASH_OB_Launch, %function
 561              	HAL_FLASH_OB_Launch:
 562              	.LFB64:
 423:Drivers/STM32L1xx_HAL_Driver/stm32l1xx_hal_flash.cpp **** 
 424:Drivers/STM32L1xx_HAL_Driver/stm32l1xx_hal_flash.cpp **** /**
 425:Drivers/STM32L1xx_HAL_Driver/stm32l1xx_hal_flash.cpp ****   * @brief  Launch the option byte loading.
 426:Drivers/STM32L1xx_HAL_Driver/stm32l1xx_hal_flash.cpp ****   * @retval HAL_StatusTypeDef HAL Status
 427:Drivers/STM32L1xx_HAL_Driver/stm32l1xx_hal_flash.cpp ****   */
 428:Drivers/STM32L1xx_HAL_Driver/stm32l1xx_hal_flash.cpp **** HAL_StatusTypeDef HAL_FLASH_OB_Launch(void)
 429:Drivers/STM32L1xx_HAL_Driver/stm32l1xx_hal_flash.cpp **** {
 563              		.loc 1 429 0
 564              		.cfi_startproc
 565              		@ args = 0, pretend = 0, frame = 0
 566              		@ frame_needed = 1, uses_anonymous_args = 0
 567 0000 80B5     		push	{r7, lr}	@
 568              	.LCFI20:
 569              		.cfi_def_cfa_offset 8
 570              		.cfi_offset 7, -8
 571              		.cfi_offset 14, -4
 572 0002 00AF     		add	r7, sp, #0	@,,
 573              	.LCFI21:
 574              		.cfi_def_cfa_register 7
 430:Drivers/STM32L1xx_HAL_Driver/stm32l1xx_hal_flash.cpp ****   /* Set the OBL_Launch bit to lauch the option byte loading */
 431:Drivers/STM32L1xx_HAL_Driver/stm32l1xx_hal_flash.cpp ****   SET_BIT(FLASH->PECR, FLASH_PECR_OBL_LAUNCH);
 575              		.loc 1 431 0
 576 0004 4FF47053 		mov	r3, #15360	@ D.5868,
 577 0008 C4F20203 		movt	r3, 16386	@ D.5868,
 578 000c 4FF47052 		mov	r2, #15360	@ D.5869,
 579 0010 C4F20202 		movt	r2, 16386	@ D.5869,
 580 0014 5268     		ldr	r2, [r2, #4]	@ D.5870, D.5869_2->PECR
 581 0016 42F48022 		orr	r2, r2, #262144	@ D.5871, D.5870,
 582 001a 5A60     		str	r2, [r3, #4]	@ D.5871, D.5868_1->PECR
 432:Drivers/STM32L1xx_HAL_Driver/stm32l1xx_hal_flash.cpp ****   
 433:Drivers/STM32L1xx_HAL_Driver/stm32l1xx_hal_flash.cpp ****   /* Wait for last operation to be completed */
 434:Drivers/STM32L1xx_HAL_Driver/stm32l1xx_hal_flash.cpp ****   return(FLASH_WaitForLastOperation((uint32_t)HAL_FLASH_TIMEOUT_VALUE));  
 583              		.loc 1 434 0
 584 001c 4CF25030 		movw	r0, #50000	@,
 585 0020 FFF7FEFF 		bl	FLASH_WaitForLastOperation	@
 586 0024 0346     		mov	r3, r0	@ tmp140,
ARM GAS  /tmp/cchpVdt5.s 			page 19


 435:Drivers/STM32L1xx_HAL_Driver/stm32l1xx_hal_flash.cpp **** }
 587              		.loc 1 435 0
 588 0026 1846     		mov	r0, r3	@, <retval>
 589 0028 80BD     		pop	{r7, pc}	@
 590              		.cfi_endproc
 591              	.LFE64:
 592              		.size	HAL_FLASH_OB_Launch, .-HAL_FLASH_OB_Launch
 593 002a 00BF     		.section	.text.HAL_FLASH_GetError,"ax",%progbits
 594              		.align	2
 595              		.global	HAL_FLASH_GetError
 596              		.thumb
 597              		.thumb_func
 598              		.type	HAL_FLASH_GetError, %function
 599              	HAL_FLASH_GetError:
 600              	.LFB65:
 436:Drivers/STM32L1xx_HAL_Driver/stm32l1xx_hal_flash.cpp **** 
 437:Drivers/STM32L1xx_HAL_Driver/stm32l1xx_hal_flash.cpp **** /**
 438:Drivers/STM32L1xx_HAL_Driver/stm32l1xx_hal_flash.cpp ****   * @}
 439:Drivers/STM32L1xx_HAL_Driver/stm32l1xx_hal_flash.cpp ****   */
 440:Drivers/STM32L1xx_HAL_Driver/stm32l1xx_hal_flash.cpp **** 
 441:Drivers/STM32L1xx_HAL_Driver/stm32l1xx_hal_flash.cpp **** /** @defgroup FLASH_Exported_Functions_Group3 Peripheral State and Errors functions 
 442:Drivers/STM32L1xx_HAL_Driver/stm32l1xx_hal_flash.cpp ****  *  @brief   Peripheral Errors functions 
 443:Drivers/STM32L1xx_HAL_Driver/stm32l1xx_hal_flash.cpp ****  *
 444:Drivers/STM32L1xx_HAL_Driver/stm32l1xx_hal_flash.cpp **** @verbatim   
 445:Drivers/STM32L1xx_HAL_Driver/stm32l1xx_hal_flash.cpp ****  ===============================================================================
 446:Drivers/STM32L1xx_HAL_Driver/stm32l1xx_hal_flash.cpp ****                 ##### Peripheral Errors functions #####
 447:Drivers/STM32L1xx_HAL_Driver/stm32l1xx_hal_flash.cpp ****  ===============================================================================  
 448:Drivers/STM32L1xx_HAL_Driver/stm32l1xx_hal_flash.cpp ****     [..]
 449:Drivers/STM32L1xx_HAL_Driver/stm32l1xx_hal_flash.cpp ****     This subsection permit to get in run-time Errors of the FLASH peripheral.
 450:Drivers/STM32L1xx_HAL_Driver/stm32l1xx_hal_flash.cpp **** 
 451:Drivers/STM32L1xx_HAL_Driver/stm32l1xx_hal_flash.cpp **** @endverbatim
 452:Drivers/STM32L1xx_HAL_Driver/stm32l1xx_hal_flash.cpp ****   * @{
 453:Drivers/STM32L1xx_HAL_Driver/stm32l1xx_hal_flash.cpp ****   */
 454:Drivers/STM32L1xx_HAL_Driver/stm32l1xx_hal_flash.cpp **** 
 455:Drivers/STM32L1xx_HAL_Driver/stm32l1xx_hal_flash.cpp **** /**
 456:Drivers/STM32L1xx_HAL_Driver/stm32l1xx_hal_flash.cpp ****   * @brief  Get the specific FLASH error flag.
 457:Drivers/STM32L1xx_HAL_Driver/stm32l1xx_hal_flash.cpp ****   * @retval FLASH_ErrorCode: The returned value can be:
 458:Drivers/STM32L1xx_HAL_Driver/stm32l1xx_hal_flash.cpp ****   *            @arg FLASH_ERROR_WRP: FLASH Write protected error flag
 459:Drivers/STM32L1xx_HAL_Driver/stm32l1xx_hal_flash.cpp ****   *            @arg FLASH_ERROR_PGA: FLASH Programming Alignment error flag
 460:Drivers/STM32L1xx_HAL_Driver/stm32l1xx_hal_flash.cpp ****   *            @arg FLASH_ERROR_SIZE: FLASH Size error flag
 461:Drivers/STM32L1xx_HAL_Driver/stm32l1xx_hal_flash.cpp ****   *            @arg FLASH_ERROR_OPTV: Option validity error flag
 462:Drivers/STM32L1xx_HAL_Driver/stm32l1xx_hal_flash.cpp ****   *            @arg FLASH_ERROR_OPTVUSR: Option UserValidity Error flag (available only Cat.3, Cat.
 463:Drivers/STM32L1xx_HAL_Driver/stm32l1xx_hal_flash.cpp ****   *            @arg FLASH_ERROR_RD:   FLASH Read Protection error flag (PCROP) (available only Cat.
 464:Drivers/STM32L1xx_HAL_Driver/stm32l1xx_hal_flash.cpp ****   */
 465:Drivers/STM32L1xx_HAL_Driver/stm32l1xx_hal_flash.cpp **** FLASH_ErrorTypeDef HAL_FLASH_GetError(void)
 466:Drivers/STM32L1xx_HAL_Driver/stm32l1xx_hal_flash.cpp **** { 
 601              		.loc 1 466 0
 602              		.cfi_startproc
 603              		@ args = 0, pretend = 0, frame = 0
 604              		@ frame_needed = 1, uses_anonymous_args = 0
 605              		@ link register save eliminated.
 606 0000 80B4     		push	{r7}	@
 607              	.LCFI22:
 608              		.cfi_def_cfa_offset 4
 609              		.cfi_offset 7, -4
 610 0002 00AF     		add	r7, sp, #0	@,,
 611              	.LCFI23:
ARM GAS  /tmp/cchpVdt5.s 			page 20


 612              		.cfi_def_cfa_register 7
 467:Drivers/STM32L1xx_HAL_Driver/stm32l1xx_hal_flash.cpp ****    return ProcFlash.ErrorCode;
 613              		.loc 1 467 0
 614 0004 40F20003 		movw	r3, #:lower16:ProcFlash	@ tmp136,
 615 0008 C0F20003 		movt	r3, #:upper16:ProcFlash	@ tmp136,
 616 000c 5B7C     		ldrb	r3, [r3, #17]	@ tmp138, ProcFlash.ErrorCode
 617 000e DBB2     		uxtb	r3, r3	@ D.5866, tmp138
 468:Drivers/STM32L1xx_HAL_Driver/stm32l1xx_hal_flash.cpp **** }  
 618              		.loc 1 468 0
 619 0010 1846     		mov	r0, r3	@, <retval>
 620 0012 BD46     		mov	sp, r7
 621 0014 80BC     		pop	{r7}
 622 0016 7047     		bx	lr
 623              		.cfi_endproc
 624              	.LFE65:
 625              		.size	HAL_FLASH_GetError, .-HAL_FLASH_GetError
 626              		.text
 627              	.Letext0:
 628              		.file 2 "/home/maciek/gcc-arm-none-eabi/gcc-arm-none-eabi-4_7-2013q1/bin/../lib/gcc/arm-none-eabi/
 629              		.file 3 "Drivers/CMSIS/Device/ST/STM32L1xx/stm32l152xb.h"
 630              		.file 4 "Drivers/CMSIS/Device/ST/STM32L1xx/stm32l1xx.h"
 631              		.file 5 "Drivers/STM32L1xx_HAL_Driver/stm32l1xx_hal_def.h"
 632              		.file 6 "Drivers/STM32L1xx_HAL_Driver/stm32l1xx_hal_flash.h"
 633              		.file 7 "Drivers/CMSIS/Include/core_cm3.h"