ARM GAS  /tmp/cckgCwXf.s 			page 1


   1              		.syntax unified
   2              		.cpu cortex-m3
   3              		.fpu softvfp
   4              		.eabi_attribute 20, 1	@ Tag_ABI_FP_denormal
   5              		.eabi_attribute 21, 1	@ Tag_ABI_FP_exceptions
   6              		.eabi_attribute 23, 3	@ Tag_ABI_FP_number_model
   7              		.eabi_attribute 24, 1	@ Tag_ABI_align8_needed
   8              		.eabi_attribute 25, 1	@ Tag_ABI_align8_preserved
   9              		.eabi_attribute 26, 1	@ Tag_ABI_enum_size
  10              		.eabi_attribute 30, 6	@ Tag_ABI_optimization_goals
  11              		.eabi_attribute 34, 1	@ Tag_CPU_unaligned_access
  12              		.eabi_attribute 18, 4	@ Tag_ABI_PCS_wchar_t
  13              		.file	"stm32l1xx_it.cpp"
  14              	@ GNU C++ (GNU Tools for ARM Embedded Processors) version 4.7.3 20130312 (release) [ARM/embedded-4_
  15              	@	compiled by GNU C version 4.3.6, GMP version 4.3.2, MPFR version 2.4.2, MPC version 0.8.1
  16              	@ GGC heuristics: --param ggc-min-expand=100 --param ggc-min-heapsize=131072
  17              	@ options passed:  -I . -I Src -I hdr -I Inc -I Middlewares
  18              	@ -I Middlewares/ST -I Middlewares/ST/STM32_USB_Device_Library/Class/CDC
  19              	@ -I Middlewares/ST/STM32_USB_Device_Library/Core -I Drivers
  20              	@ -I Drivers/CMSIS -I Drivers/CMSIS/Device/ST/STM32L1xx
  21              	@ -I Drivers/CMSIS/Include -I Drivers/STM32L1xx_HAL_Driver
  22              	@ -imultilib armv7-m
  23              	@ -iprefix /home/maciek/gcc-arm-none-eabi/gcc-arm-none-eabi-4_7-2013q1/bin/../lib/gcc/arm-none-eabi
  24              	@ -isysroot /home/maciek/gcc-arm-none-eabi/gcc-arm-none-eabi-4_7-2013q1/bin/../arm-none-eabi
  25              	@ -MD out/stm32l1xx_it.d -MF out/stm32l1xx_it.d -MP -MQ out/stm32l1xx_it.o
  26              	@ -D__USES_INITFINI__ -D STM32L1XX_MD Src/stm32l1xx_it.cpp -mcpu=cortex-m3
  27              	@ -mthumb -auxbase-strip out/stm32l1xx_it.o -g -ggdb3 -O0 -Wall -Wextra
  28              	@ -std=gnu++11 -ffunction-sections -fdata-sections -fno-rtti
  29              	@ -fno-exceptions -fverbose-asm
  30              	@ options enabled:  -fauto-inc-dec -fbranch-count-reg -fcommon
  31              	@ -fdata-sections -fdebug-types-section -fdelete-null-pointer-checks
  32              	@ -fdwarf2-cfi-asm -fearly-inlining -feliminate-unused-debug-types
  33              	@ -ffunction-cse -ffunction-sections -fgcse-lm -fgnu-runtime -fident
  34              	@ -finline-atomics -fira-share-save-slots -fira-share-spill-slots -fivopts
  35              	@ -fkeep-static-consts -fleading-underscore -fmath-errno
  36              	@ -fmerge-debug-strings -fmove-loop-invariants -fpeephole
  37              	@ -fprefetch-loop-arrays -freg-struct-return
  38              	@ -fsched-critical-path-heuristic -fsched-dep-count-heuristic
  39              	@ -fsched-group-heuristic -fsched-interblock -fsched-last-insn-heuristic
  40              	@ -fsched-rank-heuristic -fsched-spec -fsched-spec-insn-heuristic
  41              	@ -fsched-stalled-insns-dep -fshow-column -fsigned-zeros
  42              	@ -fsplit-ivs-in-unroller -fstrict-volatile-bitfields -ftrapping-math
  43              	@ -ftree-cselim -ftree-forwprop -ftree-loop-if-convert -ftree-loop-im
  44              	@ -ftree-loop-ivcanon -ftree-loop-optimize -ftree-parallelize-loops=
  45              	@ -ftree-phiprop -ftree-pta -ftree-reassoc -ftree-scev-cprop
  46              	@ -ftree-slp-vectorize -ftree-vect-loop-version -funit-at-a-time
  47              	@ -fverbose-asm -fzero-initialized-in-bss -mfix-cortex-m3-ldrd
  48              	@ -mlittle-endian -msched-prolog -mthumb -munaligned-access
  49              	@ -mvectorize-with-neon-quad
  50              	
  51              		.text
  52              	.Ltext0:
  53              		.cfi_sections	.debug_frame
  54              		.section	.text.SysTick_Handler,"ax",%progbits
  55              		.align	2
  56              		.global	SysTick_Handler
  57              		.thumb
ARM GAS  /tmp/cckgCwXf.s 			page 2


  58              		.thumb_func
  59              		.type	SysTick_Handler, %function
  60              	SysTick_Handler:
  61              	.LFB56:
  62              		.file 1 "Src/stm32l1xx_it.cpp"
   1:Src/stm32l1xx_it.cpp **** /**
   2:Src/stm32l1xx_it.cpp ****   ******************************************************************************
   3:Src/stm32l1xx_it.cpp ****   * @file    stm32l1xx_it.c
   4:Src/stm32l1xx_it.cpp ****   * @date    15/12/2014 14:52:45
   5:Src/stm32l1xx_it.cpp ****   * @brief   Interrupt Service Routines.
   6:Src/stm32l1xx_it.cpp ****   ******************************************************************************
   7:Src/stm32l1xx_it.cpp ****   *
   8:Src/stm32l1xx_it.cpp ****   * COPYRIGHT(c) 2014 STMicroelectronics
   9:Src/stm32l1xx_it.cpp ****   *
  10:Src/stm32l1xx_it.cpp ****   * Redistribution and use in source and binary forms, with or without modification,
  11:Src/stm32l1xx_it.cpp ****   * are permitted provided that the following conditions are met:
  12:Src/stm32l1xx_it.cpp ****   *   1. Redistributions of source code must retain the above copyright notice,
  13:Src/stm32l1xx_it.cpp ****   *      this list of conditions and the following disclaimer.
  14:Src/stm32l1xx_it.cpp ****   *   2. Redistributions in binary form must reproduce the above copyright notice,
  15:Src/stm32l1xx_it.cpp ****   *      this list of conditions and the following disclaimer in the documentation
  16:Src/stm32l1xx_it.cpp ****   *      and/or other materials provided with the distribution.
  17:Src/stm32l1xx_it.cpp ****   *   3. Neither the name of STMicroelectronics nor the names of its contributors
  18:Src/stm32l1xx_it.cpp ****   *      may be used to endorse or promote products derived from this software
  19:Src/stm32l1xx_it.cpp ****   *      without specific prior written permission.
  20:Src/stm32l1xx_it.cpp ****   *
  21:Src/stm32l1xx_it.cpp ****   * THIS SOFTWARE IS PROVIDED BY THE COPYRIGHT HOLDERS AND CONTRIBUTORS "AS IS"
  22:Src/stm32l1xx_it.cpp ****   * AND ANY EXPRESS OR IMPLIED WARRANTIES, INCLUDING, BUT NOT LIMITED TO, THE
  23:Src/stm32l1xx_it.cpp ****   * IMPLIED WARRANTIES OF MERCHANTABILITY AND FITNESS FOR A PARTICULAR PURPOSE ARE
  24:Src/stm32l1xx_it.cpp ****   * DISCLAIMED. IN NO EVENT SHALL THE COPYRIGHT HOLDER OR CONTRIBUTORS BE LIABLE
  25:Src/stm32l1xx_it.cpp ****   * FOR ANY DIRECT, INDIRECT, INCIDENTAL, SPECIAL, EXEMPLARY, OR CONSEQUENTIAL
  26:Src/stm32l1xx_it.cpp ****   * DAMAGES (INCLUDING, BUT NOT LIMITED TO, PROCUREMENT OF SUBSTITUTE GOODS OR
  27:Src/stm32l1xx_it.cpp ****   * SERVICES; LOSS OF USE, DATA, OR PROFITS; OR BUSINESS INTERRUPTION) HOWEVER
  28:Src/stm32l1xx_it.cpp ****   * CAUSED AND ON ANY THEORY OF LIABILITY, WHETHER IN CONTRACT, STRICT LIABILITY,
  29:Src/stm32l1xx_it.cpp ****   * OR TORT (INCLUDING NEGLIGENCE OR OTHERWISE) ARISING IN ANY WAY OUT OF THE USE
  30:Src/stm32l1xx_it.cpp ****   * OF THIS SOFTWARE, EVEN IF ADVISED OF THE POSSIBILITY OF SUCH DAMAGE.
  31:Src/stm32l1xx_it.cpp ****   *
  32:Src/stm32l1xx_it.cpp ****   ******************************************************************************
  33:Src/stm32l1xx_it.cpp ****   */
  34:Src/stm32l1xx_it.cpp **** /* Includes ------------------------------------------------------------------*/
  35:Src/stm32l1xx_it.cpp **** #include "stm32l1xx_hal.h"
  36:Src/stm32l1xx_it.cpp **** #include "stm32l1xx.h"
  37:Src/stm32l1xx_it.cpp **** #include "stm32l1xx_it.h"
  38:Src/stm32l1xx_it.cpp **** /* USER CODE BEGIN 0 */
  39:Src/stm32l1xx_it.cpp **** 
  40:Src/stm32l1xx_it.cpp **** /* USER CODE END 0 */
  41:Src/stm32l1xx_it.cpp **** /* External variables --------------------------------------------------------*/
  42:Src/stm32l1xx_it.cpp **** 
  43:Src/stm32l1xx_it.cpp **** extern PCD_HandleTypeDef hpcd_USB_FS;
  44:Src/stm32l1xx_it.cpp **** 
  45:Src/stm32l1xx_it.cpp **** /******************************************************************************/
  46:Src/stm32l1xx_it.cpp **** /*            Cortex-M3 Processor Interruption and Exception Handlers         */ 
  47:Src/stm32l1xx_it.cpp **** /******************************************************************************/
  48:Src/stm32l1xx_it.cpp **** 
  49:Src/stm32l1xx_it.cpp **** /**
  50:Src/stm32l1xx_it.cpp **** * @brief This function handles System tick timer.
  51:Src/stm32l1xx_it.cpp **** */
  52:Src/stm32l1xx_it.cpp **** extern "C" void SysTick_Handler(void) __attribute((interrupt));
ARM GAS  /tmp/cckgCwXf.s 			page 3


  53:Src/stm32l1xx_it.cpp **** void SysTick_Handler(void)
  54:Src/stm32l1xx_it.cpp **** {
  63              		.loc 1 54 0
  64              		.cfi_startproc
  65              		@ Stack Align: May be called with mis-aligned SP.
  66              		@ args = 0, pretend = 0, frame = 0
  67              		@ frame_needed = 1, uses_anonymous_args = 0
  68 0000 6846     		mov	r0, sp	@,
  69              		.cfi_register 13, 0
  70 0002 20F00701 		bic	r1, r0, #7	@,,
  71 0006 8D46     		mov	sp, r1	@,
  72 0008 89B5     		push	{r0, r3, r7, lr}	@
  73              	.LCFI0:
  74              		.cfi_def_cfa_offset 16
  75              		.cfi_offset 13, -16
  76              		.cfi_offset 3, -12
  77              		.cfi_offset 7, -8
  78              		.cfi_offset 14, -4
  79 000a 00AF     		add	r7, sp, #0	@,,
  80              	.LCFI1:
  81              		.cfi_def_cfa_register 7
  55:Src/stm32l1xx_it.cpp ****   /* USER CODE BEGIN SysTick_IRQn 0 */
  56:Src/stm32l1xx_it.cpp **** 
  57:Src/stm32l1xx_it.cpp ****   /* USER CODE END SysTick_IRQn 0 */
  58:Src/stm32l1xx_it.cpp ****   HAL_IncTick();
  82              		.loc 1 58 0
  83 000c FFF7FEFF 		bl	HAL_IncTick	@
  59:Src/stm32l1xx_it.cpp ****  // HAL_SYSTICK_IRQHandler();
  60:Src/stm32l1xx_it.cpp ****   /* USER CODE BEGIN SysTick_IRQn 1 */
  61:Src/stm32l1xx_it.cpp **** 
  62:Src/stm32l1xx_it.cpp ****   /* USER CODE END SysTick_IRQn 1 */
  63:Src/stm32l1xx_it.cpp **** }
  84              		.loc 1 63 0
  85 0010 BD46     		mov	sp, r7
  86 0012 BDE88940 		pop	{r0, r3, r7, lr}
  87 0016 8546     		mov	sp, r0
  88 0018 7047     		bx	lr
  89              		.cfi_endproc
  90              	.LFE56:
  91              		.size	SysTick_Handler, .-SysTick_Handler
  92 001a 00BF     		.section	.text.USB_LP_IRQHandler,"ax",%progbits
  93              		.align	2
  94              		.global	USB_LP_IRQHandler
  95              		.thumb
  96              		.thumb_func
  97              		.type	USB_LP_IRQHandler, %function
  98              	USB_LP_IRQHandler:
  99              	.LFB57:
  64:Src/stm32l1xx_it.cpp **** 
  65:Src/stm32l1xx_it.cpp **** /**
  66:Src/stm32l1xx_it.cpp **** * @brief This function handles USB Low Priority interrupt.
  67:Src/stm32l1xx_it.cpp **** */
  68:Src/stm32l1xx_it.cpp **** extern "C" void USB_LP_IRQHandler(void) __attribute((interrupt));
  69:Src/stm32l1xx_it.cpp **** void USB_LP_IRQHandler(void)
  70:Src/stm32l1xx_it.cpp **** {
 100              		.loc 1 70 0
 101              		.cfi_startproc
ARM GAS  /tmp/cckgCwXf.s 			page 4


 102              		@ Stack Align: May be called with mis-aligned SP.
 103              		@ args = 0, pretend = 0, frame = 0
 104              		@ frame_needed = 1, uses_anonymous_args = 0
 105 0000 6846     		mov	r0, sp	@,
 106              		.cfi_register 13, 0
 107 0002 20F00701 		bic	r1, r0, #7	@,,
 108 0006 8D46     		mov	sp, r1	@,
 109 0008 89B5     		push	{r0, r3, r7, lr}	@
 110              	.LCFI2:
 111              		.cfi_def_cfa_offset 16
 112              		.cfi_offset 13, -16
 113              		.cfi_offset 3, -12
 114              		.cfi_offset 7, -8
 115              		.cfi_offset 14, -4
 116 000a 00AF     		add	r7, sp, #0	@,,
 117              	.LCFI3:
 118              		.cfi_def_cfa_register 7
  71:Src/stm32l1xx_it.cpp ****   /* USER CODE BEGIN USB_LP_IRQn 0 */
  72:Src/stm32l1xx_it.cpp **** 
  73:Src/stm32l1xx_it.cpp ****   /* USER CODE END USB_LP_IRQn 0 */
  74:Src/stm32l1xx_it.cpp ****   HAL_PCD_IRQHandler(&hpcd_USB_FS);
 119              		.loc 1 74 0
 120 000c 40F20000 		movw	r0, #:lower16:hpcd_USB_FS	@,
 121 0010 C0F20000 		movt	r0, #:upper16:hpcd_USB_FS	@,
 122 0014 FFF7FEFF 		bl	HAL_PCD_IRQHandler	@
  75:Src/stm32l1xx_it.cpp ****   /* USER CODE BEGIN USB_LP_IRQn 1 */
  76:Src/stm32l1xx_it.cpp **** 
  77:Src/stm32l1xx_it.cpp ****   /* USER CODE END USB_LP_IRQn 1 */
  78:Src/stm32l1xx_it.cpp **** }
 123              		.loc 1 78 0
 124 0018 BD46     		mov	sp, r7
 125 001a BDE88940 		pop	{r0, r3, r7, lr}
 126 001e 8546     		mov	sp, r0
 127 0020 7047     		bx	lr
 128              		.cfi_endproc
 129              	.LFE57:
 130              		.size	USB_LP_IRQHandler, .-USB_LP_IRQHandler
 131 0022 00BF     		.text
 132              	.Letext0:
 133              		.file 2 "/home/maciek/gcc-arm-none-eabi/gcc-arm-none-eabi-4_7-2013q1/bin/../lib/gcc/arm-none-eabi/
 134              		.file 3 "Drivers/CMSIS/Device/ST/STM32L1xx/stm32l152xb.h"
 135              		.file 4 "Drivers/STM32L1xx_HAL_Driver/stm32l1xx_hal_def.h"
 136              		.file 5 "Drivers/STM32L1xx_HAL_Driver/stm32l1xx_hal_pcd.h"
 137              		.file 6 "Drivers/CMSIS/Include/core_cm3.h"