ARM GAS  /tmp/ccgKpTNp.s 			page 1


   1              		.syntax unified
   2              		.cpu cortex-m3
   3              		.fpu softvfp
   4              		.eabi_attribute 20, 1	@ Tag_ABI_FP_denormal
   5              		.eabi_attribute 21, 1	@ Tag_ABI_FP_exceptions
   6              		.eabi_attribute 23, 3	@ Tag_ABI_FP_number_model
   7              		.eabi_attribute 24, 1	@ Tag_ABI_align8_needed
   8              		.eabi_attribute 25, 1	@ Tag_ABI_align8_preserved
   9              		.eabi_attribute 26, 1	@ Tag_ABI_enum_size
  10              		.eabi_attribute 30, 6	@ Tag_ABI_optimization_goals
  11              		.eabi_attribute 34, 1	@ Tag_CPU_unaligned_access
  12              		.eabi_attribute 18, 4	@ Tag_ABI_PCS_wchar_t
  13              		.file	"stm32l1xx_hal_flash_ramfunc.cpp"
  14              	@ GNU C++ (GNU Tools for ARM Embedded Processors) version 4.7.3 20130312 (release) [ARM/embedded-4_
  15              	@	compiled by GNU C version 4.3.6, GMP version 4.3.2, MPFR version 2.4.2, MPC version 0.8.1
  16              	@ GGC heuristics: --param ggc-min-expand=100 --param ggc-min-heapsize=131072
  17              	@ options passed:  -I . -I Src -I hdr -I Inc -I Middlewares
  18              	@ -I Middlewares/ST -I Middlewares/ST/STM32_USB_Device_Library/Class/CDC
  19              	@ -I Middlewares/ST/STM32_USB_Device_Library/Core -I Drivers
  20              	@ -I Drivers/CMSIS -I Drivers/CMSIS/Device/ST/STM32L1xx
  21              	@ -I Drivers/CMSIS/Include -I Drivers/STM32L1xx_HAL_Driver
  22              	@ -imultilib armv7-m
  23              	@ -iprefix /home/maciek/gcc-arm-none-eabi/gcc-arm-none-eabi-4_7-2013q1/bin/../lib/gcc/arm-none-eabi
  24              	@ -isysroot /home/maciek/gcc-arm-none-eabi/gcc-arm-none-eabi-4_7-2013q1/bin/../arm-none-eabi
  25              	@ -MD out/stm32l1xx_hal_flash_ramfunc.d
  26              	@ -MF out/stm32l1xx_hal_flash_ramfunc.d -MP
  27              	@ -MQ out/stm32l1xx_hal_flash_ramfunc.o -D__USES_INITFINI__ -D STM32L1XX_MD
  28              	@ Drivers/STM32L1xx_HAL_Driver/stm32l1xx_hal_flash_ramfunc.cpp
  29              	@ -mcpu=cortex-m3 -mthumb -auxbase-strip out/stm32l1xx_hal_flash_ramfunc.o
  30              	@ -g -ggdb3 -O0 -Wall -Wextra -std=gnu++11 -ffunction-sections
  31              	@ -fdata-sections -fno-rtti -fno-exceptions -fverbose-asm
  32              	@ options enabled:  -fauto-inc-dec -fbranch-count-reg -fcommon
  33              	@ -fdata-sections -fdebug-types-section -fdelete-null-pointer-checks
  34              	@ -fdwarf2-cfi-asm -fearly-inlining -feliminate-unused-debug-types
  35              	@ -ffunction-cse -ffunction-sections -fgcse-lm -fgnu-runtime -fident
  36              	@ -finline-atomics -fira-share-save-slots -fira-share-spill-slots -fivopts
  37              	@ -fkeep-static-consts -fleading-underscore -fmath-errno
  38              	@ -fmerge-debug-strings -fmove-loop-invariants -fpeephole
  39              	@ -fprefetch-loop-arrays -freg-struct-return
  40              	@ -fsched-critical-path-heuristic -fsched-dep-count-heuristic
  41              	@ -fsched-group-heuristic -fsched-interblock -fsched-last-insn-heuristic
  42              	@ -fsched-rank-heuristic -fsched-spec -fsched-spec-insn-heuristic
  43              	@ -fsched-stalled-insns-dep -fshow-column -fsigned-zeros
  44              	@ -fsplit-ivs-in-unroller -fstrict-volatile-bitfields -ftrapping-math
  45              	@ -ftree-cselim -ftree-forwprop -ftree-loop-if-convert -ftree-loop-im
  46              	@ -ftree-loop-ivcanon -ftree-loop-optimize -ftree-parallelize-loops=
  47              	@ -ftree-phiprop -ftree-pta -ftree-reassoc -ftree-scev-cprop
  48              	@ -ftree-slp-vectorize -ftree-vect-loop-version -funit-at-a-time
  49              	@ -fverbose-asm -fzero-initialized-in-bss -mfix-cortex-m3-ldrd
  50              	@ -mlittle-endian -msched-prolog -mthumb -munaligned-access
  51              	@ -mvectorize-with-neon-quad
  52              	
  53              		.text
  54              	.Ltext0:
  55              		.cfi_sections	.debug_frame
  56              		.section	.RamFunc,"ax",%progbits
  57              		.align	2
ARM GAS  /tmp/ccgKpTNp.s 			page 2


  58              		.global	HAL_FLASHEx_EnableRunPowerDown
  59              		.thumb
  60              		.thumb_func
  61              		.type	HAL_FLASHEx_EnableRunPowerDown, %function
  62              	HAL_FLASHEx_EnableRunPowerDown:
  63              	.LFB56:
  64              		.file 1 "Drivers/STM32L1xx_HAL_Driver/stm32l1xx_hal_flash_ramfunc.cpp"
   1:Drivers/STM32L1xx_HAL_Driver/stm32l1xx_hal_flash_ramfunc.cpp **** /**
   2:Drivers/STM32L1xx_HAL_Driver/stm32l1xx_hal_flash_ramfunc.cpp ****   ******************************************************************************
   3:Drivers/STM32L1xx_HAL_Driver/stm32l1xx_hal_flash_ramfunc.cpp ****   * @file    stm32l1xx_hal_flash_ramfunc.c
   4:Drivers/STM32L1xx_HAL_Driver/stm32l1xx_hal_flash_ramfunc.cpp ****   * @author  MCD Application Team
   5:Drivers/STM32L1xx_HAL_Driver/stm32l1xx_hal_flash_ramfunc.cpp ****   * @version V1.0.0
   6:Drivers/STM32L1xx_HAL_Driver/stm32l1xx_hal_flash_ramfunc.cpp ****   * @date    5-September-2014
   7:Drivers/STM32L1xx_HAL_Driver/stm32l1xx_hal_flash_ramfunc.cpp ****   * @brief   FLASH RAMFUNC driver.
   8:Drivers/STM32L1xx_HAL_Driver/stm32l1xx_hal_flash_ramfunc.cpp ****   *          This file provides a Flash firmware functions which should be 
   9:Drivers/STM32L1xx_HAL_Driver/stm32l1xx_hal_flash_ramfunc.cpp ****   *          executed from internal SRAM
  10:Drivers/STM32L1xx_HAL_Driver/stm32l1xx_hal_flash_ramfunc.cpp ****   *
  11:Drivers/STM32L1xx_HAL_Driver/stm32l1xx_hal_flash_ramfunc.cpp ****   *  @verbatim
  12:Drivers/STM32L1xx_HAL_Driver/stm32l1xx_hal_flash_ramfunc.cpp **** 
  13:Drivers/STM32L1xx_HAL_Driver/stm32l1xx_hal_flash_ramfunc.cpp ****     *** ARM Compiler ***
  14:Drivers/STM32L1xx_HAL_Driver/stm32l1xx_hal_flash_ramfunc.cpp ****     --------------------
  15:Drivers/STM32L1xx_HAL_Driver/stm32l1xx_hal_flash_ramfunc.cpp ****     [..] RAM functions are defined using the toolchain options. 
  16:Drivers/STM32L1xx_HAL_Driver/stm32l1xx_hal_flash_ramfunc.cpp ****          Functions that are be executed in RAM should reside in a separate
  17:Drivers/STM32L1xx_HAL_Driver/stm32l1xx_hal_flash_ramfunc.cpp ****          source module. Using the 'Options for File' dialog you can simply change
  18:Drivers/STM32L1xx_HAL_Driver/stm32l1xx_hal_flash_ramfunc.cpp ****          the 'Code / Const' area of a module to a memory space in physical RAM.
  19:Drivers/STM32L1xx_HAL_Driver/stm32l1xx_hal_flash_ramfunc.cpp ****          Available memory areas are declared in the 'Target' tab of the 
  20:Drivers/STM32L1xx_HAL_Driver/stm32l1xx_hal_flash_ramfunc.cpp ****          Options for Target' dialog.
  21:Drivers/STM32L1xx_HAL_Driver/stm32l1xx_hal_flash_ramfunc.cpp **** 
  22:Drivers/STM32L1xx_HAL_Driver/stm32l1xx_hal_flash_ramfunc.cpp ****     *** ICCARM Compiler ***
  23:Drivers/STM32L1xx_HAL_Driver/stm32l1xx_hal_flash_ramfunc.cpp ****     -----------------------
  24:Drivers/STM32L1xx_HAL_Driver/stm32l1xx_hal_flash_ramfunc.cpp ****     [..] RAM functions are defined using a specific toolchain keyword "__ramfunc".
  25:Drivers/STM32L1xx_HAL_Driver/stm32l1xx_hal_flash_ramfunc.cpp **** 
  26:Drivers/STM32L1xx_HAL_Driver/stm32l1xx_hal_flash_ramfunc.cpp ****     *** GNU Compiler ***
  27:Drivers/STM32L1xx_HAL_Driver/stm32l1xx_hal_flash_ramfunc.cpp ****     --------------------
  28:Drivers/STM32L1xx_HAL_Driver/stm32l1xx_hal_flash_ramfunc.cpp ****     [..] RAM functions are defined using a specific toolchain attribute
  29:Drivers/STM32L1xx_HAL_Driver/stm32l1xx_hal_flash_ramfunc.cpp ****          "__attribute__((section(".RamFunc")))".
  30:Drivers/STM32L1xx_HAL_Driver/stm32l1xx_hal_flash_ramfunc.cpp **** 
  31:Drivers/STM32L1xx_HAL_Driver/stm32l1xx_hal_flash_ramfunc.cpp **** @endverbatim
  32:Drivers/STM32L1xx_HAL_Driver/stm32l1xx_hal_flash_ramfunc.cpp ****   ******************************************************************************
  33:Drivers/STM32L1xx_HAL_Driver/stm32l1xx_hal_flash_ramfunc.cpp ****   * @attention
  34:Drivers/STM32L1xx_HAL_Driver/stm32l1xx_hal_flash_ramfunc.cpp ****   *
  35:Drivers/STM32L1xx_HAL_Driver/stm32l1xx_hal_flash_ramfunc.cpp ****   * <h2><center>&copy; COPYRIGHT(c) 2014 STMicroelectronics</center></h2>
  36:Drivers/STM32L1xx_HAL_Driver/stm32l1xx_hal_flash_ramfunc.cpp ****   *
  37:Drivers/STM32L1xx_HAL_Driver/stm32l1xx_hal_flash_ramfunc.cpp ****   * Redistribution and use in source and binary forms, with or without modification,
  38:Drivers/STM32L1xx_HAL_Driver/stm32l1xx_hal_flash_ramfunc.cpp ****   * are permitted provided that the following conditions are met:
  39:Drivers/STM32L1xx_HAL_Driver/stm32l1xx_hal_flash_ramfunc.cpp ****   *   1. Redistributions of source code must retain the above copyright notice,
  40:Drivers/STM32L1xx_HAL_Driver/stm32l1xx_hal_flash_ramfunc.cpp ****   *      this list of conditions and the following disclaimer.
  41:Drivers/STM32L1xx_HAL_Driver/stm32l1xx_hal_flash_ramfunc.cpp ****   *   2. Redistributions in binary form must reproduce the above copyright notice,
  42:Drivers/STM32L1xx_HAL_Driver/stm32l1xx_hal_flash_ramfunc.cpp ****   *      this list of conditions and the following disclaimer in the documentation
  43:Drivers/STM32L1xx_HAL_Driver/stm32l1xx_hal_flash_ramfunc.cpp ****   *      and/or other materials provided with the distribution.
  44:Drivers/STM32L1xx_HAL_Driver/stm32l1xx_hal_flash_ramfunc.cpp ****   *   3. Neither the name of STMicroelectronics nor the names of its contributors
  45:Drivers/STM32L1xx_HAL_Driver/stm32l1xx_hal_flash_ramfunc.cpp ****   *      may be used to endorse or promote products derived from this software
  46:Drivers/STM32L1xx_HAL_Driver/stm32l1xx_hal_flash_ramfunc.cpp ****   *      without specific prior written permission.
  47:Drivers/STM32L1xx_HAL_Driver/stm32l1xx_hal_flash_ramfunc.cpp ****   *
  48:Drivers/STM32L1xx_HAL_Driver/stm32l1xx_hal_flash_ramfunc.cpp ****   * THIS SOFTWARE IS PROVIDED BY THE COPYRIGHT HOLDERS AND CONTRIBUTORS "AS IS"
  49:Drivers/STM32L1xx_HAL_Driver/stm32l1xx_hal_flash_ramfunc.cpp ****   * AND ANY EXPRESS OR IMPLIED WARRANTIES, INCLUDING, BUT NOT LIMITED TO, THE
  50:Drivers/STM32L1xx_HAL_Driver/stm32l1xx_hal_flash_ramfunc.cpp ****   * IMPLIED WARRANTIES OF MERCHANTABILITY AND FITNESS FOR A PARTICULAR PURPOSE ARE
ARM GAS  /tmp/ccgKpTNp.s 			page 3


  51:Drivers/STM32L1xx_HAL_Driver/stm32l1xx_hal_flash_ramfunc.cpp ****   * DISCLAIMED. IN NO EVENT SHALL THE COPYRIGHT HOLDER OR CONTRIBUTORS BE LIABLE
  52:Drivers/STM32L1xx_HAL_Driver/stm32l1xx_hal_flash_ramfunc.cpp ****   * FOR ANY DIRECT, INDIRECT, INCIDENTAL, SPECIAL, EXEMPLARY, OR CONSEQUENTIAL
  53:Drivers/STM32L1xx_HAL_Driver/stm32l1xx_hal_flash_ramfunc.cpp ****   * DAMAGES (INCLUDING, BUT NOT LIMITED TO, PROCUREMENT OF SUBSTITUTE GOODS OR
  54:Drivers/STM32L1xx_HAL_Driver/stm32l1xx_hal_flash_ramfunc.cpp ****   * SERVICES; LOSS OF USE, DATA, OR PROFITS; OR BUSINESS INTERRUPTION) HOWEVER
  55:Drivers/STM32L1xx_HAL_Driver/stm32l1xx_hal_flash_ramfunc.cpp ****   * CAUSED AND ON ANY THEORY OF LIABILITY, WHETHER IN CONTRACT, STRICT LIABILITY,
  56:Drivers/STM32L1xx_HAL_Driver/stm32l1xx_hal_flash_ramfunc.cpp ****   * OR TORT (INCLUDING NEGLIGENCE OR OTHERWISE) ARISING IN ANY WAY OUT OF THE USE
  57:Drivers/STM32L1xx_HAL_Driver/stm32l1xx_hal_flash_ramfunc.cpp ****   * OF THIS SOFTWARE, EVEN IF ADVISED OF THE POSSIBILITY OF SUCH DAMAGE.
  58:Drivers/STM32L1xx_HAL_Driver/stm32l1xx_hal_flash_ramfunc.cpp ****   *
  59:Drivers/STM32L1xx_HAL_Driver/stm32l1xx_hal_flash_ramfunc.cpp ****   ******************************************************************************
  60:Drivers/STM32L1xx_HAL_Driver/stm32l1xx_hal_flash_ramfunc.cpp ****   */
  61:Drivers/STM32L1xx_HAL_Driver/stm32l1xx_hal_flash_ramfunc.cpp **** 
  62:Drivers/STM32L1xx_HAL_Driver/stm32l1xx_hal_flash_ramfunc.cpp **** /* Includes ------------------------------------------------------------------*/
  63:Drivers/STM32L1xx_HAL_Driver/stm32l1xx_hal_flash_ramfunc.cpp **** #include "stm32l1xx_hal.h"
  64:Drivers/STM32L1xx_HAL_Driver/stm32l1xx_hal_flash_ramfunc.cpp **** #include <stdint.h>
  65:Drivers/STM32L1xx_HAL_Driver/stm32l1xx_hal_flash_ramfunc.cpp **** /** @addtogroup STM32L1xx_HAL_Driver
  66:Drivers/STM32L1xx_HAL_Driver/stm32l1xx_hal_flash_ramfunc.cpp ****   * @{
  67:Drivers/STM32L1xx_HAL_Driver/stm32l1xx_hal_flash_ramfunc.cpp ****   */
  68:Drivers/STM32L1xx_HAL_Driver/stm32l1xx_hal_flash_ramfunc.cpp **** 
  69:Drivers/STM32L1xx_HAL_Driver/stm32l1xx_hal_flash_ramfunc.cpp **** /** @defgroup FLASHRamfunc FLASHRamfunc
  70:Drivers/STM32L1xx_HAL_Driver/stm32l1xx_hal_flash_ramfunc.cpp ****   * @brief FLASH functions executed from RAM
  71:Drivers/STM32L1xx_HAL_Driver/stm32l1xx_hal_flash_ramfunc.cpp ****   * @{
  72:Drivers/STM32L1xx_HAL_Driver/stm32l1xx_hal_flash_ramfunc.cpp ****   */ 
  73:Drivers/STM32L1xx_HAL_Driver/stm32l1xx_hal_flash_ramfunc.cpp **** 
  74:Drivers/STM32L1xx_HAL_Driver/stm32l1xx_hal_flash_ramfunc.cpp **** #ifdef HAL_FLASH_MODULE_ENABLED
  75:Drivers/STM32L1xx_HAL_Driver/stm32l1xx_hal_flash_ramfunc.cpp **** 
  76:Drivers/STM32L1xx_HAL_Driver/stm32l1xx_hal_flash_ramfunc.cpp **** /* Private typedef -----------------------------------------------------------*/
  77:Drivers/STM32L1xx_HAL_Driver/stm32l1xx_hal_flash_ramfunc.cpp **** /* Private define ------------------------------------------------------------*/
  78:Drivers/STM32L1xx_HAL_Driver/stm32l1xx_hal_flash_ramfunc.cpp **** /* Private macro -------------------------------------------------------------*/
  79:Drivers/STM32L1xx_HAL_Driver/stm32l1xx_hal_flash_ramfunc.cpp **** /* Private variables ---------------------------------------------------------*/
  80:Drivers/STM32L1xx_HAL_Driver/stm32l1xx_hal_flash_ramfunc.cpp **** /* Private function prototypes -----------------------------------------------*/
  81:Drivers/STM32L1xx_HAL_Driver/stm32l1xx_hal_flash_ramfunc.cpp **** static __RAM_FUNC FLASHRAM_WaitForLastOperation(uint32_t Timeout);
  82:Drivers/STM32L1xx_HAL_Driver/stm32l1xx_hal_flash_ramfunc.cpp **** 
  83:Drivers/STM32L1xx_HAL_Driver/stm32l1xx_hal_flash_ramfunc.cpp **** /* Private functions ---------------------------------------------------------*/
  84:Drivers/STM32L1xx_HAL_Driver/stm32l1xx_hal_flash_ramfunc.cpp ****  
  85:Drivers/STM32L1xx_HAL_Driver/stm32l1xx_hal_flash_ramfunc.cpp **** /** @defgroup FLASHRamfunc_Exported_Functions FLASH RAM Exported Functions
  86:Drivers/STM32L1xx_HAL_Driver/stm32l1xx_hal_flash_ramfunc.cpp ****  *
  87:Drivers/STM32L1xx_HAL_Driver/stm32l1xx_hal_flash_ramfunc.cpp **** @verbatim  
  88:Drivers/STM32L1xx_HAL_Driver/stm32l1xx_hal_flash_ramfunc.cpp ****  ===============================================================================
  89:Drivers/STM32L1xx_HAL_Driver/stm32l1xx_hal_flash_ramfunc.cpp ****                       ##### ramfunc functions #####
  90:Drivers/STM32L1xx_HAL_Driver/stm32l1xx_hal_flash_ramfunc.cpp ****  ===============================================================================  
  91:Drivers/STM32L1xx_HAL_Driver/stm32l1xx_hal_flash_ramfunc.cpp ****     [..]
  92:Drivers/STM32L1xx_HAL_Driver/stm32l1xx_hal_flash_ramfunc.cpp ****     This subsection provides a set of functions that should be executed from RAM 
  93:Drivers/STM32L1xx_HAL_Driver/stm32l1xx_hal_flash_ramfunc.cpp ****     transfers.
  94:Drivers/STM32L1xx_HAL_Driver/stm32l1xx_hal_flash_ramfunc.cpp **** 
  95:Drivers/STM32L1xx_HAL_Driver/stm32l1xx_hal_flash_ramfunc.cpp **** @endverbatim
  96:Drivers/STM32L1xx_HAL_Driver/stm32l1xx_hal_flash_ramfunc.cpp ****   * @{
  97:Drivers/STM32L1xx_HAL_Driver/stm32l1xx_hal_flash_ramfunc.cpp ****   */ 
  98:Drivers/STM32L1xx_HAL_Driver/stm32l1xx_hal_flash_ramfunc.cpp **** 
  99:Drivers/STM32L1xx_HAL_Driver/stm32l1xx_hal_flash_ramfunc.cpp **** /** @defgroup FLASHRamfunc_Exported_Functions_Group1 FLASH RAM Peripheral  features functions 
 100:Drivers/STM32L1xx_HAL_Driver/stm32l1xx_hal_flash_ramfunc.cpp ****   * @{
 101:Drivers/STM32L1xx_HAL_Driver/stm32l1xx_hal_flash_ramfunc.cpp ****   */  
 102:Drivers/STM32L1xx_HAL_Driver/stm32l1xx_hal_flash_ramfunc.cpp **** 
 103:Drivers/STM32L1xx_HAL_Driver/stm32l1xx_hal_flash_ramfunc.cpp **** /**
 104:Drivers/STM32L1xx_HAL_Driver/stm32l1xx_hal_flash_ramfunc.cpp ****   * @brief  Enable  the power down mode during RUN mode.
 105:Drivers/STM32L1xx_HAL_Driver/stm32l1xx_hal_flash_ramfunc.cpp ****   * @note  This function can be used only when the user code is running from Internal SRAM.
 106:Drivers/STM32L1xx_HAL_Driver/stm32l1xx_hal_flash_ramfunc.cpp ****   * @retval None
 107:Drivers/STM32L1xx_HAL_Driver/stm32l1xx_hal_flash_ramfunc.cpp ****   */
ARM GAS  /tmp/ccgKpTNp.s 			page 4


 108:Drivers/STM32L1xx_HAL_Driver/stm32l1xx_hal_flash_ramfunc.cpp **** __RAM_FUNC HAL_FLASHEx_EnableRunPowerDown(void)
 109:Drivers/STM32L1xx_HAL_Driver/stm32l1xx_hal_flash_ramfunc.cpp **** {
  65              		.loc 1 109 0
  66              		.cfi_startproc
  67              		@ args = 0, pretend = 0, frame = 0
  68              		@ frame_needed = 1, uses_anonymous_args = 0
  69              		@ link register save eliminated.
  70 0000 80B4     		push	{r7}	@
  71              	.LCFI0:
  72              		.cfi_def_cfa_offset 4
  73              		.cfi_offset 7, -4
  74 0002 00AF     		add	r7, sp, #0	@,,
  75              	.LCFI1:
  76              		.cfi_def_cfa_register 7
 110:Drivers/STM32L1xx_HAL_Driver/stm32l1xx_hal_flash_ramfunc.cpp ****   /* Enable the Power Down in Run mode*/
 111:Drivers/STM32L1xx_HAL_Driver/stm32l1xx_hal_flash_ramfunc.cpp ****   __HAL_FLASH_POWER_DOWN_ENABLE();
  77              		.loc 1 111 0
  78 0004 4FF47053 		mov	r3, #15360	@ D.6025,
  79 0008 C4F20203 		movt	r3, 16386	@ D.6025,
  80 000c 42F23762 		movw	r2, #9783	@ tmp142,
  81 0010 C0F21542 		movt	r2, 1045	@ tmp142,
  82 0014 9A60     		str	r2, [r3, #8]	@ tmp142, D.6025_1->PDKEYR
  83 0016 4FF47053 		mov	r3, #15360	@ D.6026,
  84 001a C4F20203 		movt	r3, 16386	@ D.6026,
  85 001e 4FF6FD42 		movw	r2, #64765	@ tmp143,
  86 0022 CFF6FB22 		movt	r2, 64251	@ tmp143,
  87 0026 9A60     		str	r2, [r3, #8]	@ tmp143, D.6026_2->PDKEYR
  88 0028 4FF47053 		mov	r3, #15360	@ D.6027,
  89 002c C4F20203 		movt	r3, 16386	@ D.6027,
  90 0030 4FF47052 		mov	r2, #15360	@ D.6028,
  91 0034 C4F20202 		movt	r2, 16386	@ D.6028,
  92 0038 1268     		ldr	r2, [r2, #0]	@ D.6029, D.6028_4->ACR
  93 003a 42F01002 		orr	r2, r2, #16	@ D.6030, D.6029,
  94 003e 1A60     		str	r2, [r3, #0]	@ D.6030, D.6027_3->ACR
 112:Drivers/STM32L1xx_HAL_Driver/stm32l1xx_hal_flash_ramfunc.cpp ****   
 113:Drivers/STM32L1xx_HAL_Driver/stm32l1xx_hal_flash_ramfunc.cpp ****   return HAL_OK;
  95              		.loc 1 113 0
  96 0040 4FF00003 		mov	r3, #0	@ D.6031,
 114:Drivers/STM32L1xx_HAL_Driver/stm32l1xx_hal_flash_ramfunc.cpp **** }
  97              		.loc 1 114 0
  98 0044 1846     		mov	r0, r3	@, <retval>
  99 0046 BD46     		mov	sp, r7
 100 0048 80BC     		pop	{r7}
 101 004a 7047     		bx	lr
 102              		.cfi_endproc
 103              	.LFE56:
 104              		.size	HAL_FLASHEx_EnableRunPowerDown, .-HAL_FLASHEx_EnableRunPowerDown
 105              		.align	2
 106              		.global	HAL_FLASHEx_DisableRunPowerDown
 107              		.thumb
 108              		.thumb_func
 109              		.type	HAL_FLASHEx_DisableRunPowerDown, %function
 110              	HAL_FLASHEx_DisableRunPowerDown:
 111              	.LFB57:
 115:Drivers/STM32L1xx_HAL_Driver/stm32l1xx_hal_flash_ramfunc.cpp **** 
 116:Drivers/STM32L1xx_HAL_Driver/stm32l1xx_hal_flash_ramfunc.cpp **** 
 117:Drivers/STM32L1xx_HAL_Driver/stm32l1xx_hal_flash_ramfunc.cpp **** /**
ARM GAS  /tmp/ccgKpTNp.s 			page 5


 118:Drivers/STM32L1xx_HAL_Driver/stm32l1xx_hal_flash_ramfunc.cpp ****   * @brief  Disable the power down mode during RUN mode.
 119:Drivers/STM32L1xx_HAL_Driver/stm32l1xx_hal_flash_ramfunc.cpp ****   * @note  This function can be used only when the user code is running from Internal SRAM.
 120:Drivers/STM32L1xx_HAL_Driver/stm32l1xx_hal_flash_ramfunc.cpp ****   * @retval None
 121:Drivers/STM32L1xx_HAL_Driver/stm32l1xx_hal_flash_ramfunc.cpp ****   */
 122:Drivers/STM32L1xx_HAL_Driver/stm32l1xx_hal_flash_ramfunc.cpp **** __RAM_FUNC HAL_FLASHEx_DisableRunPowerDown(void)
 123:Drivers/STM32L1xx_HAL_Driver/stm32l1xx_hal_flash_ramfunc.cpp **** {
 112              		.loc 1 123 0
 113              		.cfi_startproc
 114              		@ args = 0, pretend = 0, frame = 0
 115              		@ frame_needed = 1, uses_anonymous_args = 0
 116              		@ link register save eliminated.
 117 004c 80B4     		push	{r7}	@
 118              	.LCFI2:
 119              		.cfi_def_cfa_offset 4
 120              		.cfi_offset 7, -4
 121 004e 00AF     		add	r7, sp, #0	@,,
 122              	.LCFI3:
 123              		.cfi_def_cfa_register 7
 124:Drivers/STM32L1xx_HAL_Driver/stm32l1xx_hal_flash_ramfunc.cpp ****   /* Disable the Power Down in Run mode*/
 125:Drivers/STM32L1xx_HAL_Driver/stm32l1xx_hal_flash_ramfunc.cpp ****   __HAL_FLASH_POWER_DOWN_DISABLE();
 124              		.loc 1 125 0
 125 0050 4FF47053 		mov	r3, #15360	@ D.6015,
 126 0054 C4F20203 		movt	r3, 16386	@ D.6015,
 127 0058 42F23762 		movw	r2, #9783	@ tmp142,
 128 005c C0F21542 		movt	r2, 1045	@ tmp142,
 129 0060 9A60     		str	r2, [r3, #8]	@ tmp142, D.6015_1->PDKEYR
 130 0062 4FF47053 		mov	r3, #15360	@ D.6016,
 131 0066 C4F20203 		movt	r3, 16386	@ D.6016,
 132 006a 4FF6FD42 		movw	r2, #64765	@ tmp143,
 133 006e CFF6FB22 		movt	r2, 64251	@ tmp143,
 134 0072 9A60     		str	r2, [r3, #8]	@ tmp143, D.6016_2->PDKEYR
 135 0074 4FF47053 		mov	r3, #15360	@ D.6017,
 136 0078 C4F20203 		movt	r3, 16386	@ D.6017,
 137 007c 4FF47052 		mov	r2, #15360	@ D.6018,
 138 0080 C4F20202 		movt	r2, 16386	@ D.6018,
 139 0084 1268     		ldr	r2, [r2, #0]	@ D.6019, D.6018_4->ACR
 140 0086 22F01002 		bic	r2, r2, #16	@ D.6020, D.6019,
 141 008a 1A60     		str	r2, [r3, #0]	@ D.6020, D.6017_3->ACR
 126:Drivers/STM32L1xx_HAL_Driver/stm32l1xx_hal_flash_ramfunc.cpp **** 
 127:Drivers/STM32L1xx_HAL_Driver/stm32l1xx_hal_flash_ramfunc.cpp ****   return HAL_OK;  
 142              		.loc 1 127 0
 143 008c 4FF00003 		mov	r3, #0	@ D.6021,
 128:Drivers/STM32L1xx_HAL_Driver/stm32l1xx_hal_flash_ramfunc.cpp **** }
 144              		.loc 1 128 0
 145 0090 1846     		mov	r0, r3	@, <retval>
 146 0092 BD46     		mov	sp, r7
 147 0094 80BC     		pop	{r7}
 148 0096 7047     		bx	lr
 149              		.cfi_endproc
 150              	.LFE57:
 151              		.size	HAL_FLASHEx_DisableRunPowerDown, .-HAL_FLASHEx_DisableRunPowerDown
 152              		.align	2
 153              		.global	HAL_FLASHEx_HalfPageProgram
 154              		.thumb
 155              		.thumb_func
 156              		.type	HAL_FLASHEx_HalfPageProgram, %function
 157              	HAL_FLASHEx_HalfPageProgram:
ARM GAS  /tmp/ccgKpTNp.s 			page 6


 158              	.LFB58:
 129:Drivers/STM32L1xx_HAL_Driver/stm32l1xx_hal_flash_ramfunc.cpp **** 
 130:Drivers/STM32L1xx_HAL_Driver/stm32l1xx_hal_flash_ramfunc.cpp **** /**
 131:Drivers/STM32L1xx_HAL_Driver/stm32l1xx_hal_flash_ramfunc.cpp ****   * @}
 132:Drivers/STM32L1xx_HAL_Driver/stm32l1xx_hal_flash_ramfunc.cpp ****   */
 133:Drivers/STM32L1xx_HAL_Driver/stm32l1xx_hal_flash_ramfunc.cpp **** 
 134:Drivers/STM32L1xx_HAL_Driver/stm32l1xx_hal_flash_ramfunc.cpp **** /** @defgroup FLASHRamfunc_Exported_Functions_Group2 FLASH RAM Programming and erasing operation fu
 135:Drivers/STM32L1xx_HAL_Driver/stm32l1xx_hal_flash_ramfunc.cpp ****  *
 136:Drivers/STM32L1xx_HAL_Driver/stm32l1xx_hal_flash_ramfunc.cpp **** @verbatim  
 137:Drivers/STM32L1xx_HAL_Driver/stm32l1xx_hal_flash_ramfunc.cpp **** @endverbatim
 138:Drivers/STM32L1xx_HAL_Driver/stm32l1xx_hal_flash_ramfunc.cpp ****   * @{
 139:Drivers/STM32L1xx_HAL_Driver/stm32l1xx_hal_flash_ramfunc.cpp ****   */
 140:Drivers/STM32L1xx_HAL_Driver/stm32l1xx_hal_flash_ramfunc.cpp **** 
 141:Drivers/STM32L1xx_HAL_Driver/stm32l1xx_hal_flash_ramfunc.cpp **** #if defined (STM32L151xD) || defined (STM32L152xD) || defined (STM32L162xD) || \
 142:Drivers/STM32L1xx_HAL_Driver/stm32l1xx_hal_flash_ramfunc.cpp ****     defined(STM32L151xE) || defined (STM32L152xE) || defined (STM32L162xE)
 143:Drivers/STM32L1xx_HAL_Driver/stm32l1xx_hal_flash_ramfunc.cpp **** /**
 144:Drivers/STM32L1xx_HAL_Driver/stm32l1xx_hal_flash_ramfunc.cpp ****   * @brief  Erases a specified 2 page in program memory in parallel.
 145:Drivers/STM32L1xx_HAL_Driver/stm32l1xx_hal_flash_ramfunc.cpp ****   * @note   This function can be used only for STM32L151xD, STM32L152xD), STM32L162xD and Cat5  dev
 146:Drivers/STM32L1xx_HAL_Driver/stm32l1xx_hal_flash_ramfunc.cpp ****   *         To correctly run this function, the HAL_FLASH_Unlock() function
 147:Drivers/STM32L1xx_HAL_Driver/stm32l1xx_hal_flash_ramfunc.cpp ****   *         must be called before.
 148:Drivers/STM32L1xx_HAL_Driver/stm32l1xx_hal_flash_ramfunc.cpp ****   *         Call the HAL_FLASH_Lock() to disable the flash memory access 
 149:Drivers/STM32L1xx_HAL_Driver/stm32l1xx_hal_flash_ramfunc.cpp ****   *        (recommended to protect the FLASH memory against possible unwanted operation).
 150:Drivers/STM32L1xx_HAL_Driver/stm32l1xx_hal_flash_ramfunc.cpp ****   * @param  Page_Address1: The page address in program memory to be erased in 
 151:Drivers/STM32L1xx_HAL_Driver/stm32l1xx_hal_flash_ramfunc.cpp ****   *         the first Bank (BANK1). This parameter should be between FLASH_BASE
 152:Drivers/STM32L1xx_HAL_Driver/stm32l1xx_hal_flash_ramfunc.cpp ****   *         and FLASH_BANK1_END.
 153:Drivers/STM32L1xx_HAL_Driver/stm32l1xx_hal_flash_ramfunc.cpp ****   * @param  Page_Address2: The page address in program memory to be erased in 
 154:Drivers/STM32L1xx_HAL_Driver/stm32l1xx_hal_flash_ramfunc.cpp ****   *         the second Bank (BANK2). This parameter should be between FLASH_BANK2_BASE
 155:Drivers/STM32L1xx_HAL_Driver/stm32l1xx_hal_flash_ramfunc.cpp ****   *         and FLASH_BANK2_END.
 156:Drivers/STM32L1xx_HAL_Driver/stm32l1xx_hal_flash_ramfunc.cpp ****   * @note   A Page is erased in the Program memory only if the address to load 
 157:Drivers/STM32L1xx_HAL_Driver/stm32l1xx_hal_flash_ramfunc.cpp ****   *         is the start address of a page (multiple of 256 bytes).
 158:Drivers/STM32L1xx_HAL_Driver/stm32l1xx_hal_flash_ramfunc.cpp ****   * @retval HAL Status: The returned value can be: 
 159:Drivers/STM32L1xx_HAL_Driver/stm32l1xx_hal_flash_ramfunc.cpp ****   *          HAL_ERROR, HAL_OK or HAL_TIMEOUT.
 160:Drivers/STM32L1xx_HAL_Driver/stm32l1xx_hal_flash_ramfunc.cpp ****   */
 161:Drivers/STM32L1xx_HAL_Driver/stm32l1xx_hal_flash_ramfunc.cpp **** __RAM_FUNC HAL_FLASHEx_EraseParallelPage(uint32_t Page_Address1, uint32_t Page_Address2)
 162:Drivers/STM32L1xx_HAL_Driver/stm32l1xx_hal_flash_ramfunc.cpp **** {
 163:Drivers/STM32L1xx_HAL_Driver/stm32l1xx_hal_flash_ramfunc.cpp ****   HAL_StatusTypeDef status = HAL_OK;
 164:Drivers/STM32L1xx_HAL_Driver/stm32l1xx_hal_flash_ramfunc.cpp **** 
 165:Drivers/STM32L1xx_HAL_Driver/stm32l1xx_hal_flash_ramfunc.cpp ****   /* Wait for last operation to be completed */
 166:Drivers/STM32L1xx_HAL_Driver/stm32l1xx_hal_flash_ramfunc.cpp ****   status = FLASHRAM_WaitForLastOperation(HAL_FLASH_TIMEOUT_VALUE);
 167:Drivers/STM32L1xx_HAL_Driver/stm32l1xx_hal_flash_ramfunc.cpp ****   
 168:Drivers/STM32L1xx_HAL_Driver/stm32l1xx_hal_flash_ramfunc.cpp ****   if(status == HAL_OK)
 169:Drivers/STM32L1xx_HAL_Driver/stm32l1xx_hal_flash_ramfunc.cpp ****   {
 170:Drivers/STM32L1xx_HAL_Driver/stm32l1xx_hal_flash_ramfunc.cpp ****     /* If the previous operation is completed, proceed to erase the page */
 171:Drivers/STM32L1xx_HAL_Driver/stm32l1xx_hal_flash_ramfunc.cpp **** 
 172:Drivers/STM32L1xx_HAL_Driver/stm32l1xx_hal_flash_ramfunc.cpp ****     /* Set the PARALLBANK bit */
 173:Drivers/STM32L1xx_HAL_Driver/stm32l1xx_hal_flash_ramfunc.cpp ****     FLASH->PECR |= FLASH_PECR_PARALLBANK;
 174:Drivers/STM32L1xx_HAL_Driver/stm32l1xx_hal_flash_ramfunc.cpp ****     
 175:Drivers/STM32L1xx_HAL_Driver/stm32l1xx_hal_flash_ramfunc.cpp ****     /* Set the ERASE bit */
 176:Drivers/STM32L1xx_HAL_Driver/stm32l1xx_hal_flash_ramfunc.cpp ****     FLASH->PECR |= FLASH_PECR_ERASE;
 177:Drivers/STM32L1xx_HAL_Driver/stm32l1xx_hal_flash_ramfunc.cpp **** 
 178:Drivers/STM32L1xx_HAL_Driver/stm32l1xx_hal_flash_ramfunc.cpp ****     /* Set PROG bit */
 179:Drivers/STM32L1xx_HAL_Driver/stm32l1xx_hal_flash_ramfunc.cpp ****     FLASH->PECR |= FLASH_PECR_PROG;
 180:Drivers/STM32L1xx_HAL_Driver/stm32l1xx_hal_flash_ramfunc.cpp ****   
 181:Drivers/STM32L1xx_HAL_Driver/stm32l1xx_hal_flash_ramfunc.cpp ****     /* Write 00000000h to the first word of the first program page to erase */
 182:Drivers/STM32L1xx_HAL_Driver/stm32l1xx_hal_flash_ramfunc.cpp ****     *(__IO uint32_t *)Page_Address1 = 0x00000000;
 183:Drivers/STM32L1xx_HAL_Driver/stm32l1xx_hal_flash_ramfunc.cpp ****     /* Write 00000000h to the first word of the second program page to erase */    
 184:Drivers/STM32L1xx_HAL_Driver/stm32l1xx_hal_flash_ramfunc.cpp ****     *(__IO uint32_t *)Page_Address2 = 0x00000000;    
ARM GAS  /tmp/ccgKpTNp.s 			page 7


 185:Drivers/STM32L1xx_HAL_Driver/stm32l1xx_hal_flash_ramfunc.cpp ****  
 186:Drivers/STM32L1xx_HAL_Driver/stm32l1xx_hal_flash_ramfunc.cpp ****     /* Wait for last operation to be completed */
 187:Drivers/STM32L1xx_HAL_Driver/stm32l1xx_hal_flash_ramfunc.cpp ****     status = FLASHRAM_WaitForLastOperation(HAL_FLASH_TIMEOUT_VALUE);
 188:Drivers/STM32L1xx_HAL_Driver/stm32l1xx_hal_flash_ramfunc.cpp **** 
 189:Drivers/STM32L1xx_HAL_Driver/stm32l1xx_hal_flash_ramfunc.cpp ****     /* If the erase operation is completed, disable the ERASE, PROG and PARALLBANK bits */
 190:Drivers/STM32L1xx_HAL_Driver/stm32l1xx_hal_flash_ramfunc.cpp ****     FLASH->PECR &= (uint32_t)(~FLASH_PECR_PROG);
 191:Drivers/STM32L1xx_HAL_Driver/stm32l1xx_hal_flash_ramfunc.cpp ****     FLASH->PECR &= (uint32_t)(~FLASH_PECR_ERASE);
 192:Drivers/STM32L1xx_HAL_Driver/stm32l1xx_hal_flash_ramfunc.cpp ****     FLASH->PECR &= (uint32_t)(~FLASH_PECR_PARALLBANK);   
 193:Drivers/STM32L1xx_HAL_Driver/stm32l1xx_hal_flash_ramfunc.cpp ****   }     
 194:Drivers/STM32L1xx_HAL_Driver/stm32l1xx_hal_flash_ramfunc.cpp ****   /* Return the Erase Status */
 195:Drivers/STM32L1xx_HAL_Driver/stm32l1xx_hal_flash_ramfunc.cpp ****   return status;
 196:Drivers/STM32L1xx_HAL_Driver/stm32l1xx_hal_flash_ramfunc.cpp **** }
 197:Drivers/STM32L1xx_HAL_Driver/stm32l1xx_hal_flash_ramfunc.cpp **** 
 198:Drivers/STM32L1xx_HAL_Driver/stm32l1xx_hal_flash_ramfunc.cpp **** /**
 199:Drivers/STM32L1xx_HAL_Driver/stm32l1xx_hal_flash_ramfunc.cpp ****   * @brief  Programs 2 half page in program memory in parallel.
 200:Drivers/STM32L1xx_HAL_Driver/stm32l1xx_hal_flash_ramfunc.cpp ****   * @note   This function can be used only for STM32L151xD, STM32L152xD), STM32L162xD and Cat5  dev
 201:Drivers/STM32L1xx_HAL_Driver/stm32l1xx_hal_flash_ramfunc.cpp ****   * @param  Address1: specifies the first address to be written in the first bank 
 202:Drivers/STM32L1xx_HAL_Driver/stm32l1xx_hal_flash_ramfunc.cpp ****   *        (BANK1). This parameter should be between FLASH_BASE and (FLASH_BANK1_END - FLASH_PAGE_S
 203:Drivers/STM32L1xx_HAL_Driver/stm32l1xx_hal_flash_ramfunc.cpp ****   * @param  pBuffer1: pointer to the buffer  containing the data to be  written 
 204:Drivers/STM32L1xx_HAL_Driver/stm32l1xx_hal_flash_ramfunc.cpp ****   *         to the first half page in the first bank.
 205:Drivers/STM32L1xx_HAL_Driver/stm32l1xx_hal_flash_ramfunc.cpp ****   * @param  Address2: specifies the second address to be written in the second bank
 206:Drivers/STM32L1xx_HAL_Driver/stm32l1xx_hal_flash_ramfunc.cpp ****   *        (BANK2). This parameter should be between FLASH_BANK2_BASE and (FLASH_BANK2_END - FLASH_
 207:Drivers/STM32L1xx_HAL_Driver/stm32l1xx_hal_flash_ramfunc.cpp ****   * @param  pBuffer2: pointer to the buffer containing the data to be  written 
 208:Drivers/STM32L1xx_HAL_Driver/stm32l1xx_hal_flash_ramfunc.cpp ****   *         to the second half page in the second bank.
 209:Drivers/STM32L1xx_HAL_Driver/stm32l1xx_hal_flash_ramfunc.cpp ****   * @note   To correctly run this function, the HAL_FLASH_Unlock() function
 210:Drivers/STM32L1xx_HAL_Driver/stm32l1xx_hal_flash_ramfunc.cpp ****   *         must be called before.
 211:Drivers/STM32L1xx_HAL_Driver/stm32l1xx_hal_flash_ramfunc.cpp ****   *         Call the HAL_FLASH_Lock() to disable the flash memory access  
 212:Drivers/STM32L1xx_HAL_Driver/stm32l1xx_hal_flash_ramfunc.cpp ****   *         (recommended to protect the FLASH memory against possible unwanted operation).
 213:Drivers/STM32L1xx_HAL_Driver/stm32l1xx_hal_flash_ramfunc.cpp ****   * @note   Half page write is possible only from SRAM.
 214:Drivers/STM32L1xx_HAL_Driver/stm32l1xx_hal_flash_ramfunc.cpp ****   * @note   If there are more than 32 words to write, after 32 words another 
 215:Drivers/STM32L1xx_HAL_Driver/stm32l1xx_hal_flash_ramfunc.cpp ****   *         Half Page programming operation starts and has to be finished.
 216:Drivers/STM32L1xx_HAL_Driver/stm32l1xx_hal_flash_ramfunc.cpp ****   * @note   A half page is written to the program memory only if the first 
 217:Drivers/STM32L1xx_HAL_Driver/stm32l1xx_hal_flash_ramfunc.cpp ****   *         address to load is the start address of a half page (multiple of 128 
 218:Drivers/STM32L1xx_HAL_Driver/stm32l1xx_hal_flash_ramfunc.cpp ****   *         bytes) and the 31 remaining words to load are in the same half page.
 219:Drivers/STM32L1xx_HAL_Driver/stm32l1xx_hal_flash_ramfunc.cpp ****   * @note   During the Program memory half page write all read operations are 
 220:Drivers/STM32L1xx_HAL_Driver/stm32l1xx_hal_flash_ramfunc.cpp ****   *         forbidden (this includes DMA read operations and debugger read 
 221:Drivers/STM32L1xx_HAL_Driver/stm32l1xx_hal_flash_ramfunc.cpp ****   *         operations such as breakpoints, periodic updates, etc.).
 222:Drivers/STM32L1xx_HAL_Driver/stm32l1xx_hal_flash_ramfunc.cpp ****   * @note   If a PGAERR is set during a Program memory half page write, the 
 223:Drivers/STM32L1xx_HAL_Driver/stm32l1xx_hal_flash_ramfunc.cpp ****   *         complete write operation is aborted. Software should then reset the 
 224:Drivers/STM32L1xx_HAL_Driver/stm32l1xx_hal_flash_ramfunc.cpp ****   *         FPRG and PROG/DATA bits and restart the write operation from the 
 225:Drivers/STM32L1xx_HAL_Driver/stm32l1xx_hal_flash_ramfunc.cpp ****   *         beginning.
 226:Drivers/STM32L1xx_HAL_Driver/stm32l1xx_hal_flash_ramfunc.cpp ****   * @retval HAL Status: The returned value can be:  
 227:Drivers/STM32L1xx_HAL_Driver/stm32l1xx_hal_flash_ramfunc.cpp ****   *          HAL_ERROR, HAL_OK or HAL_TIMEOUT.
 228:Drivers/STM32L1xx_HAL_Driver/stm32l1xx_hal_flash_ramfunc.cpp ****   */
 229:Drivers/STM32L1xx_HAL_Driver/stm32l1xx_hal_flash_ramfunc.cpp **** __RAM_FUNC HAL_FLASHEx_ProgramParallelHalfPage(uint32_t Address1, uint32_t* pBuffer1, uint32_t Addr
 230:Drivers/STM32L1xx_HAL_Driver/stm32l1xx_hal_flash_ramfunc.cpp **** {
 231:Drivers/STM32L1xx_HAL_Driver/stm32l1xx_hal_flash_ramfunc.cpp ****   uint32_t count = 0; 
 232:Drivers/STM32L1xx_HAL_Driver/stm32l1xx_hal_flash_ramfunc.cpp ****    
 233:Drivers/STM32L1xx_HAL_Driver/stm32l1xx_hal_flash_ramfunc.cpp ****   HAL_StatusTypeDef status = HAL_OK;
 234:Drivers/STM32L1xx_HAL_Driver/stm32l1xx_hal_flash_ramfunc.cpp **** 
 235:Drivers/STM32L1xx_HAL_Driver/stm32l1xx_hal_flash_ramfunc.cpp ****   /* Set the DISMCYCINT[0] bit in the Auxillary Control Register (0xE000E008) 
 236:Drivers/STM32L1xx_HAL_Driver/stm32l1xx_hal_flash_ramfunc.cpp ****      This bit prevents the interruption of multicycle instructions and therefore 
 237:Drivers/STM32L1xx_HAL_Driver/stm32l1xx_hal_flash_ramfunc.cpp ****      will increase the interrupt latency. of Cortex-M3. */
 238:Drivers/STM32L1xx_HAL_Driver/stm32l1xx_hal_flash_ramfunc.cpp ****   SCnSCB->ACTLR |= SCnSCB_ACTLR_DISMCYCINT_Msk;
 239:Drivers/STM32L1xx_HAL_Driver/stm32l1xx_hal_flash_ramfunc.cpp **** 
 240:Drivers/STM32L1xx_HAL_Driver/stm32l1xx_hal_flash_ramfunc.cpp ****   /* Wait for last operation to be completed */
 241:Drivers/STM32L1xx_HAL_Driver/stm32l1xx_hal_flash_ramfunc.cpp ****   status = FLASHRAM_WaitForLastOperation(HAL_FLASH_TIMEOUT_VALUE);
ARM GAS  /tmp/ccgKpTNp.s 			page 8


 242:Drivers/STM32L1xx_HAL_Driver/stm32l1xx_hal_flash_ramfunc.cpp ****   
 243:Drivers/STM32L1xx_HAL_Driver/stm32l1xx_hal_flash_ramfunc.cpp ****   if(status == HAL_OK)
 244:Drivers/STM32L1xx_HAL_Driver/stm32l1xx_hal_flash_ramfunc.cpp ****   {
 245:Drivers/STM32L1xx_HAL_Driver/stm32l1xx_hal_flash_ramfunc.cpp ****     /* If the previous operation is completed, proceed to program the new  
 246:Drivers/STM32L1xx_HAL_Driver/stm32l1xx_hal_flash_ramfunc.cpp ****        half page */
 247:Drivers/STM32L1xx_HAL_Driver/stm32l1xx_hal_flash_ramfunc.cpp ****     FLASH->PECR |= FLASH_PECR_PARALLBANK;
 248:Drivers/STM32L1xx_HAL_Driver/stm32l1xx_hal_flash_ramfunc.cpp ****     FLASH->PECR |= FLASH_PECR_FPRG;
 249:Drivers/STM32L1xx_HAL_Driver/stm32l1xx_hal_flash_ramfunc.cpp ****     FLASH->PECR |= FLASH_PECR_PROG;
 250:Drivers/STM32L1xx_HAL_Driver/stm32l1xx_hal_flash_ramfunc.cpp ****     
 251:Drivers/STM32L1xx_HAL_Driver/stm32l1xx_hal_flash_ramfunc.cpp ****   /* Wait for last operation to be completed */
 252:Drivers/STM32L1xx_HAL_Driver/stm32l1xx_hal_flash_ramfunc.cpp ****   status = FLASHRAM_WaitForLastOperation(HAL_FLASH_TIMEOUT_VALUE);
 253:Drivers/STM32L1xx_HAL_Driver/stm32l1xx_hal_flash_ramfunc.cpp ****   if(status == HAL_OK)
 254:Drivers/STM32L1xx_HAL_Driver/stm32l1xx_hal_flash_ramfunc.cpp ****   {
 255:Drivers/STM32L1xx_HAL_Driver/stm32l1xx_hal_flash_ramfunc.cpp ****     /* Write the first half page directly with 32 different words */
 256:Drivers/STM32L1xx_HAL_Driver/stm32l1xx_hal_flash_ramfunc.cpp ****     while(count < 32)
 257:Drivers/STM32L1xx_HAL_Driver/stm32l1xx_hal_flash_ramfunc.cpp ****     {
 258:Drivers/STM32L1xx_HAL_Driver/stm32l1xx_hal_flash_ramfunc.cpp ****       *(__IO uint32_t*) ((uint32_t)(Address1 + (4 * count))) = *(pBuffer1++);
 259:Drivers/STM32L1xx_HAL_Driver/stm32l1xx_hal_flash_ramfunc.cpp ****       count ++;  
 260:Drivers/STM32L1xx_HAL_Driver/stm32l1xx_hal_flash_ramfunc.cpp ****     }
 261:Drivers/STM32L1xx_HAL_Driver/stm32l1xx_hal_flash_ramfunc.cpp ****     count = 0;
 262:Drivers/STM32L1xx_HAL_Driver/stm32l1xx_hal_flash_ramfunc.cpp **** 
 263:Drivers/STM32L1xx_HAL_Driver/stm32l1xx_hal_flash_ramfunc.cpp ****     /* Write the second half page directly with 32 different words */
 264:Drivers/STM32L1xx_HAL_Driver/stm32l1xx_hal_flash_ramfunc.cpp ****     while(count < 32)
 265:Drivers/STM32L1xx_HAL_Driver/stm32l1xx_hal_flash_ramfunc.cpp ****     {
 266:Drivers/STM32L1xx_HAL_Driver/stm32l1xx_hal_flash_ramfunc.cpp ****       *(__IO uint32_t*) ((uint32_t)(Address2 + (4 * count))) = *(pBuffer2++);
 267:Drivers/STM32L1xx_HAL_Driver/stm32l1xx_hal_flash_ramfunc.cpp ****       count ++;  
 268:Drivers/STM32L1xx_HAL_Driver/stm32l1xx_hal_flash_ramfunc.cpp ****     }
 269:Drivers/STM32L1xx_HAL_Driver/stm32l1xx_hal_flash_ramfunc.cpp ****     /* Wait for last operation to be completed */
 270:Drivers/STM32L1xx_HAL_Driver/stm32l1xx_hal_flash_ramfunc.cpp ****     status = FLASHRAM_WaitForLastOperation(HAL_FLASH_TIMEOUT_VALUE);
 271:Drivers/STM32L1xx_HAL_Driver/stm32l1xx_hal_flash_ramfunc.cpp ****   } 
 272:Drivers/STM32L1xx_HAL_Driver/stm32l1xx_hal_flash_ramfunc.cpp ****     /* if the write operation is completed, disable the PROG, FPRG and PARALLBANK bits */
 273:Drivers/STM32L1xx_HAL_Driver/stm32l1xx_hal_flash_ramfunc.cpp ****     FLASH->PECR &= (uint32_t)(~FLASH_PECR_PROG);
 274:Drivers/STM32L1xx_HAL_Driver/stm32l1xx_hal_flash_ramfunc.cpp ****     FLASH->PECR &= (uint32_t)(~FLASH_PECR_FPRG);
 275:Drivers/STM32L1xx_HAL_Driver/stm32l1xx_hal_flash_ramfunc.cpp ****     FLASH->PECR &= (uint32_t)(~FLASH_PECR_PARALLBANK);
 276:Drivers/STM32L1xx_HAL_Driver/stm32l1xx_hal_flash_ramfunc.cpp ****   }
 277:Drivers/STM32L1xx_HAL_Driver/stm32l1xx_hal_flash_ramfunc.cpp **** 
 278:Drivers/STM32L1xx_HAL_Driver/stm32l1xx_hal_flash_ramfunc.cpp ****   SCnSCB->ACTLR &= ~SCnSCB_ACTLR_DISMCYCINT_Msk;
 279:Drivers/STM32L1xx_HAL_Driver/stm32l1xx_hal_flash_ramfunc.cpp ****     
 280:Drivers/STM32L1xx_HAL_Driver/stm32l1xx_hal_flash_ramfunc.cpp ****   /* Return the Write Status */
 281:Drivers/STM32L1xx_HAL_Driver/stm32l1xx_hal_flash_ramfunc.cpp ****   return status;
 282:Drivers/STM32L1xx_HAL_Driver/stm32l1xx_hal_flash_ramfunc.cpp **** }
 283:Drivers/STM32L1xx_HAL_Driver/stm32l1xx_hal_flash_ramfunc.cpp **** #endif /* STM32L151xD || STM32L152xD || STM32L162xD || STM32L151xE || STM32L152xE || STM32L162xE */
 284:Drivers/STM32L1xx_HAL_Driver/stm32l1xx_hal_flash_ramfunc.cpp **** 
 285:Drivers/STM32L1xx_HAL_Driver/stm32l1xx_hal_flash_ramfunc.cpp **** /**
 286:Drivers/STM32L1xx_HAL_Driver/stm32l1xx_hal_flash_ramfunc.cpp ****   * @brief  Programs a half page in program memory.
 287:Drivers/STM32L1xx_HAL_Driver/stm32l1xx_hal_flash_ramfunc.cpp ****   * @param  Address: specifies the address to be written.
 288:Drivers/STM32L1xx_HAL_Driver/stm32l1xx_hal_flash_ramfunc.cpp ****   * @param  pBuffer: pointer to the buffer  containing the data to be  written to 
 289:Drivers/STM32L1xx_HAL_Driver/stm32l1xx_hal_flash_ramfunc.cpp ****   *         the half page.
 290:Drivers/STM32L1xx_HAL_Driver/stm32l1xx_hal_flash_ramfunc.cpp ****   * @note   To correctly run this function, the HAL_FLASH_Unlock() function
 291:Drivers/STM32L1xx_HAL_Driver/stm32l1xx_hal_flash_ramfunc.cpp ****   *         must be called before.
 292:Drivers/STM32L1xx_HAL_Driver/stm32l1xx_hal_flash_ramfunc.cpp ****   *         Call the HAL_FLASH_Lock() to disable the flash memory access  
 293:Drivers/STM32L1xx_HAL_Driver/stm32l1xx_hal_flash_ramfunc.cpp ****   *         (recommended to protect the FLASH memory against possible unwanted operation)
 294:Drivers/STM32L1xx_HAL_Driver/stm32l1xx_hal_flash_ramfunc.cpp ****   * @note   Half page write is possible only from SRAM.
 295:Drivers/STM32L1xx_HAL_Driver/stm32l1xx_hal_flash_ramfunc.cpp ****   * @note   If there are more than 32 words to write, after 32 words another 
 296:Drivers/STM32L1xx_HAL_Driver/stm32l1xx_hal_flash_ramfunc.cpp ****   *         Half Page programming operation starts and has to be finished.
 297:Drivers/STM32L1xx_HAL_Driver/stm32l1xx_hal_flash_ramfunc.cpp ****   * @note   A half page is written to the program memory only if the first 
 298:Drivers/STM32L1xx_HAL_Driver/stm32l1xx_hal_flash_ramfunc.cpp ****   *         address to load is the start address of a half page (multiple of 128 
ARM GAS  /tmp/ccgKpTNp.s 			page 9


 299:Drivers/STM32L1xx_HAL_Driver/stm32l1xx_hal_flash_ramfunc.cpp ****   *         bytes) and the 31 remaining words to load are in the same half page.
 300:Drivers/STM32L1xx_HAL_Driver/stm32l1xx_hal_flash_ramfunc.cpp ****   * @note   During the Program memory half page write all read operations are 
 301:Drivers/STM32L1xx_HAL_Driver/stm32l1xx_hal_flash_ramfunc.cpp ****   *         forbidden (this includes DMA read operations and debugger read 
 302:Drivers/STM32L1xx_HAL_Driver/stm32l1xx_hal_flash_ramfunc.cpp ****   *         operations such as breakpoints, periodic updates, etc.).
 303:Drivers/STM32L1xx_HAL_Driver/stm32l1xx_hal_flash_ramfunc.cpp ****   * @note   If a PGAERR is set during a Program memory half page write, the 
 304:Drivers/STM32L1xx_HAL_Driver/stm32l1xx_hal_flash_ramfunc.cpp ****   *         complete write operation is aborted. Software should then reset the 
 305:Drivers/STM32L1xx_HAL_Driver/stm32l1xx_hal_flash_ramfunc.cpp ****   *         FPRG and PROG/DATA bits and restart the write operation from the 
 306:Drivers/STM32L1xx_HAL_Driver/stm32l1xx_hal_flash_ramfunc.cpp ****   *         beginning.
 307:Drivers/STM32L1xx_HAL_Driver/stm32l1xx_hal_flash_ramfunc.cpp ****   * @retval HAL Status: The returned value can be:  
 308:Drivers/STM32L1xx_HAL_Driver/stm32l1xx_hal_flash_ramfunc.cpp ****   *    HAL_ERROR, HAL_OK or HAL_TIMEOUT. 
 309:Drivers/STM32L1xx_HAL_Driver/stm32l1xx_hal_flash_ramfunc.cpp ****   */
 310:Drivers/STM32L1xx_HAL_Driver/stm32l1xx_hal_flash_ramfunc.cpp **** __RAM_FUNC HAL_FLASHEx_HalfPageProgram(uint32_t Address, uint32_t* pBuffer)
 311:Drivers/STM32L1xx_HAL_Driver/stm32l1xx_hal_flash_ramfunc.cpp **** {
 159              		.loc 1 311 0
 160              		.cfi_startproc
 161              		@ args = 0, pretend = 0, frame = 16
 162              		@ frame_needed = 1, uses_anonymous_args = 0
 163 0098 80B5     		push	{r7, lr}	@
 164              	.LCFI4:
 165              		.cfi_def_cfa_offset 8
 166              		.cfi_offset 7, -8
 167              		.cfi_offset 14, -4
 168 009a 84B0     		sub	sp, sp, #16	@,,
 169              	.LCFI5:
 170              		.cfi_def_cfa_offset 24
 171 009c 00AF     		add	r7, sp, #0	@,,
 172              	.LCFI6:
 173              		.cfi_def_cfa_register 7
 174 009e 7860     		str	r0, [r7, #4]	@ Address, Address
 175 00a0 3960     		str	r1, [r7, #0]	@ pBuffer, pBuffer
 176              	.LBB2:
 312:Drivers/STM32L1xx_HAL_Driver/stm32l1xx_hal_flash_ramfunc.cpp ****   uint32_t count = 0; 
 177              		.loc 1 312 0
 178 00a2 4FF00003 		mov	r3, #0	@ tmp165,
 179 00a6 FB60     		str	r3, [r7, #12]	@ tmp165, count
 313:Drivers/STM32L1xx_HAL_Driver/stm32l1xx_hal_flash_ramfunc.cpp ****    
 314:Drivers/STM32L1xx_HAL_Driver/stm32l1xx_hal_flash_ramfunc.cpp ****   HAL_StatusTypeDef status = HAL_OK;
 180              		.loc 1 314 0
 181 00a8 4FF00003 		mov	r3, #0	@ tmp166,
 182 00ac FB72     		strb	r3, [r7, #11]	@ tmp167, status
 315:Drivers/STM32L1xx_HAL_Driver/stm32l1xx_hal_flash_ramfunc.cpp **** 
 316:Drivers/STM32L1xx_HAL_Driver/stm32l1xx_hal_flash_ramfunc.cpp ****   /* Set the DISMCYCINT[0] bit in the Auxillary Control Register (0xE000E008) 
 317:Drivers/STM32L1xx_HAL_Driver/stm32l1xx_hal_flash_ramfunc.cpp ****      This bit prevents the interruption of multicycle instructions and therefore 
 318:Drivers/STM32L1xx_HAL_Driver/stm32l1xx_hal_flash_ramfunc.cpp ****      will increase the interrupt latency. of Cortex-M3. */
 319:Drivers/STM32L1xx_HAL_Driver/stm32l1xx_hal_flash_ramfunc.cpp ****   SCnSCB->ACTLR |= SCnSCB_ACTLR_DISMCYCINT_Msk;
 183              		.loc 1 319 0
 184 00ae 4FF0E023 		mov	r3, #-536813568	@ D.5976,
 185 00b2 4FF0E022 		mov	r2, #-536813568	@ D.5977,
 186 00b6 9268     		ldr	r2, [r2, #8]	@ D.5978, D.5977_7->ACTLR
 187 00b8 42F00102 		orr	r2, r2, #1	@ D.5979, D.5978,
 188 00bc 9A60     		str	r2, [r3, #8]	@ D.5979, D.5976_6->ACTLR
 320:Drivers/STM32L1xx_HAL_Driver/stm32l1xx_hal_flash_ramfunc.cpp ****   
 321:Drivers/STM32L1xx_HAL_Driver/stm32l1xx_hal_flash_ramfunc.cpp ****   /* Wait for last operation to be completed */
 322:Drivers/STM32L1xx_HAL_Driver/stm32l1xx_hal_flash_ramfunc.cpp ****   status = FLASHRAM_WaitForLastOperation(HAL_FLASH_TIMEOUT_VALUE);
 189              		.loc 1 322 0
 190 00be 4CF25030 		movw	r0, #50000	@,
 191 00c2 00F037F9 		bl	_ZL29FLASHRAM_WaitForLastOperationm	@
ARM GAS  /tmp/ccgKpTNp.s 			page 10


 192 00c6 0346     		mov	r3, r0	@ tmp168,
 193 00c8 FB72     		strb	r3, [r7, #11]	@ tmp169, status
 323:Drivers/STM32L1xx_HAL_Driver/stm32l1xx_hal_flash_ramfunc.cpp ****   
 324:Drivers/STM32L1xx_HAL_Driver/stm32l1xx_hal_flash_ramfunc.cpp ****   if(status == HAL_OK)
 194              		.loc 1 324 0
 195 00ca FB7A     		ldrb	r3, [r7, #11]	@ zero_extendqisi2	@ tmp170, status
 196 00cc 002B     		cmp	r3, #0	@ tmp170,
 197 00ce 4ED1     		bne	.L6	@,
 325:Drivers/STM32L1xx_HAL_Driver/stm32l1xx_hal_flash_ramfunc.cpp ****   {
 326:Drivers/STM32L1xx_HAL_Driver/stm32l1xx_hal_flash_ramfunc.cpp ****     /* if the previous operation is completed, proceed to program the new  
 327:Drivers/STM32L1xx_HAL_Driver/stm32l1xx_hal_flash_ramfunc.cpp ****     half page */
 328:Drivers/STM32L1xx_HAL_Driver/stm32l1xx_hal_flash_ramfunc.cpp ****     FLASH->PECR |= FLASH_PECR_FPRG;
 198              		.loc 1 328 0
 199 00d0 4FF47053 		mov	r3, #15360	@ D.5982,
 200 00d4 C4F20203 		movt	r3, 16386	@ D.5982,
 201 00d8 4FF47052 		mov	r2, #15360	@ D.5983,
 202 00dc C4F20202 		movt	r2, 16386	@ D.5983,
 203 00e0 5268     		ldr	r2, [r2, #4]	@ D.5984, D.5983_12->PECR
 204 00e2 42F48062 		orr	r2, r2, #1024	@ D.5985, D.5984,
 205 00e6 5A60     		str	r2, [r3, #4]	@ D.5985, D.5982_11->PECR
 329:Drivers/STM32L1xx_HAL_Driver/stm32l1xx_hal_flash_ramfunc.cpp ****     FLASH->PECR |= FLASH_PECR_PROG;
 206              		.loc 1 329 0
 207 00e8 4FF47053 		mov	r3, #15360	@ D.5986,
 208 00ec C4F20203 		movt	r3, 16386	@ D.5986,
 209 00f0 4FF47052 		mov	r2, #15360	@ D.5987,
 210 00f4 C4F20202 		movt	r2, 16386	@ D.5987,
 211 00f8 5268     		ldr	r2, [r2, #4]	@ D.5988, D.5987_16->PECR
 212 00fa 42F00802 		orr	r2, r2, #8	@ D.5989, D.5988,
 213 00fe 5A60     		str	r2, [r3, #4]	@ D.5989, D.5986_15->PECR
 330:Drivers/STM32L1xx_HAL_Driver/stm32l1xx_hal_flash_ramfunc.cpp ****     
 331:Drivers/STM32L1xx_HAL_Driver/stm32l1xx_hal_flash_ramfunc.cpp ****     /* Write one half page directly with 32 different words */
 332:Drivers/STM32L1xx_HAL_Driver/stm32l1xx_hal_flash_ramfunc.cpp ****     while(count < 32)
 214              		.loc 1 332 0
 215 0100 0FE0     		b	.L7	@
 216              	.L8:
 333:Drivers/STM32L1xx_HAL_Driver/stm32l1xx_hal_flash_ramfunc.cpp ****     {
 334:Drivers/STM32L1xx_HAL_Driver/stm32l1xx_hal_flash_ramfunc.cpp ****       *(__IO uint32_t*) ((uint32_t)(Address + (4 * count))) = *(pBuffer++);
 217              		.loc 1 334 0
 218 0102 FB68     		ldr	r3, [r7, #12]	@ tmp171, count
 219 0104 4FEA8302 		lsl	r2, r3, #2	@ D.5994, tmp171,
 220 0108 7B68     		ldr	r3, [r7, #4]	@ tmp172, Address
 221 010a D318     		adds	r3, r2, r3	@ D.5995, D.5994, tmp172
 222 010c 3A68     		ldr	r2, [r7, #0]	@ tmp173, pBuffer
 223 010e 1268     		ldr	r2, [r2, #0]	@ D.5997, *pBuffer_1
 224 0110 1A60     		str	r2, [r3, #0]	@ D.5997, *D.5996_24
 225 0112 3B68     		ldr	r3, [r7, #0]	@ tmp175, pBuffer
 226 0114 03F10403 		add	r3, r3, #4	@ tmp174, tmp175,
 227 0118 3B60     		str	r3, [r7, #0]	@ tmp174, pBuffer
 335:Drivers/STM32L1xx_HAL_Driver/stm32l1xx_hal_flash_ramfunc.cpp ****       count ++;  
 228              		.loc 1 335 0
 229 011a FB68     		ldr	r3, [r7, #12]	@ tmp177, count
 230 011c 03F10103 		add	r3, r3, #1	@ tmp176, tmp177,
 231 0120 FB60     		str	r3, [r7, #12]	@ tmp176, count
 232              	.L7:
 332:Drivers/STM32L1xx_HAL_Driver/stm32l1xx_hal_flash_ramfunc.cpp ****     while(count < 32)
 233              		.loc 1 332 0 discriminator 1
 234 0122 FB68     		ldr	r3, [r7, #12]	@ tmp179, count
ARM GAS  /tmp/ccgKpTNp.s 			page 11


 235 0124 1F2B     		cmp	r3, #31	@ tmp179,
 236 0126 8CBF     		ite	hi	@
 237 0128 0023     		movhi	r3, #0	@, tmp180
 238 012a 0123     		movls	r3, #1	@, tmp180
 239 012c DBB2     		uxtb	r3, r3	@ D.5993, tmp178
 240 012e 002B     		cmp	r3, #0	@ D.5993,
 241 0130 E7D1     		bne	.L8	@,
 336:Drivers/STM32L1xx_HAL_Driver/stm32l1xx_hal_flash_ramfunc.cpp ****     }
 337:Drivers/STM32L1xx_HAL_Driver/stm32l1xx_hal_flash_ramfunc.cpp ****     /* Wait for last operation to be completed */
 338:Drivers/STM32L1xx_HAL_Driver/stm32l1xx_hal_flash_ramfunc.cpp ****     status = FLASHRAM_WaitForLastOperation(HAL_FLASH_TIMEOUT_VALUE);
 242              		.loc 1 338 0
 243 0132 4CF25030 		movw	r0, #50000	@,
 244 0136 00F0FDF8 		bl	_ZL29FLASHRAM_WaitForLastOperationm	@
 245 013a 0346     		mov	r3, r0	@ tmp181,
 246 013c FB72     		strb	r3, [r7, #11]	@ tmp182, status
 339:Drivers/STM32L1xx_HAL_Driver/stm32l1xx_hal_flash_ramfunc.cpp ****  
 340:Drivers/STM32L1xx_HAL_Driver/stm32l1xx_hal_flash_ramfunc.cpp ****     /* if the write operation is completed, disable the PROG and FPRG bits */
 341:Drivers/STM32L1xx_HAL_Driver/stm32l1xx_hal_flash_ramfunc.cpp ****     FLASH->PECR &= (uint32_t)(~FLASH_PECR_PROG);
 247              		.loc 1 341 0
 248 013e 4FF47053 		mov	r3, #15360	@ D.5998,
 249 0142 C4F20203 		movt	r3, 16386	@ D.5998,
 250 0146 4FF47052 		mov	r2, #15360	@ D.5999,
 251 014a C4F20202 		movt	r2, 16386	@ D.5999,
 252 014e 5268     		ldr	r2, [r2, #4]	@ D.6000, D.5999_30->PECR
 253 0150 22F00802 		bic	r2, r2, #8	@ D.6001, D.6000,
 254 0154 5A60     		str	r2, [r3, #4]	@ D.6001, D.5998_29->PECR
 342:Drivers/STM32L1xx_HAL_Driver/stm32l1xx_hal_flash_ramfunc.cpp ****     FLASH->PECR &= (uint32_t)(~FLASH_PECR_FPRG);
 255              		.loc 1 342 0
 256 0156 4FF47053 		mov	r3, #15360	@ D.6002,
 257 015a C4F20203 		movt	r3, 16386	@ D.6002,
 258 015e 4FF47052 		mov	r2, #15360	@ D.6003,
 259 0162 C4F20202 		movt	r2, 16386	@ D.6003,
 260 0166 5268     		ldr	r2, [r2, #4]	@ D.6004, D.6003_34->PECR
 261 0168 22F48062 		bic	r2, r2, #1024	@ D.6005, D.6004,
 262 016c 5A60     		str	r2, [r3, #4]	@ D.6005, D.6002_33->PECR
 263              	.L6:
 343:Drivers/STM32L1xx_HAL_Driver/stm32l1xx_hal_flash_ramfunc.cpp ****   }
 344:Drivers/STM32L1xx_HAL_Driver/stm32l1xx_hal_flash_ramfunc.cpp **** 
 345:Drivers/STM32L1xx_HAL_Driver/stm32l1xx_hal_flash_ramfunc.cpp ****   SCnSCB->ACTLR &= ~SCnSCB_ACTLR_DISMCYCINT_Msk;
 264              		.loc 1 345 0
 265 016e 4FF0E023 		mov	r3, #-536813568	@ D.6007,
 266 0172 4FF0E022 		mov	r2, #-536813568	@ D.6008,
 267 0176 9268     		ldr	r2, [r2, #8]	@ D.6009, D.6008_38->ACTLR
 268 0178 22F00102 		bic	r2, r2, #1	@ D.6010, D.6009,
 269 017c 9A60     		str	r2, [r3, #8]	@ D.6010, D.6007_37->ACTLR
 346:Drivers/STM32L1xx_HAL_Driver/stm32l1xx_hal_flash_ramfunc.cpp ****     
 347:Drivers/STM32L1xx_HAL_Driver/stm32l1xx_hal_flash_ramfunc.cpp ****   /* Return the Write Status */
 348:Drivers/STM32L1xx_HAL_Driver/stm32l1xx_hal_flash_ramfunc.cpp ****   return status;
 270              		.loc 1 348 0
 271 017e FB7A     		ldrb	r3, [r7, #11]	@ zero_extendqisi2	@ D.6011, status
 272              	.LBE2:
 349:Drivers/STM32L1xx_HAL_Driver/stm32l1xx_hal_flash_ramfunc.cpp **** }
 273              		.loc 1 349 0
 274 0180 1846     		mov	r0, r3	@, <retval>
 275 0182 07F11007 		add	r7, r7, #16	@,,
 276 0186 BD46     		mov	sp, r7
 277 0188 80BD     		pop	{r7, pc}
ARM GAS  /tmp/ccgKpTNp.s 			page 12


 278              		.cfi_endproc
 279              	.LFE58:
 280              		.size	HAL_FLASHEx_HalfPageProgram, .-HAL_FLASHEx_HalfPageProgram
 281 018a 00BF     		.align	2
 282              		.global	HAL_FLASHEx_DATAEEPROM_EraseDoubleWord
 283              		.thumb
 284              		.thumb_func
 285              		.type	HAL_FLASHEx_DATAEEPROM_EraseDoubleWord, %function
 286              	HAL_FLASHEx_DATAEEPROM_EraseDoubleWord:
 287              	.LFB59:
 350:Drivers/STM32L1xx_HAL_Driver/stm32l1xx_hal_flash_ramfunc.cpp **** 
 351:Drivers/STM32L1xx_HAL_Driver/stm32l1xx_hal_flash_ramfunc.cpp **** /**
 352:Drivers/STM32L1xx_HAL_Driver/stm32l1xx_hal_flash_ramfunc.cpp ****   * @}
 353:Drivers/STM32L1xx_HAL_Driver/stm32l1xx_hal_flash_ramfunc.cpp ****   */
 354:Drivers/STM32L1xx_HAL_Driver/stm32l1xx_hal_flash_ramfunc.cpp **** 
 355:Drivers/STM32L1xx_HAL_Driver/stm32l1xx_hal_flash_ramfunc.cpp **** /** @defgroup FLASHRamfunc_Exported_Functions_Group3 FLASH RAM DATA EEPROM functions
 356:Drivers/STM32L1xx_HAL_Driver/stm32l1xx_hal_flash_ramfunc.cpp ****  *
 357:Drivers/STM32L1xx_HAL_Driver/stm32l1xx_hal_flash_ramfunc.cpp **** @verbatim  
 358:Drivers/STM32L1xx_HAL_Driver/stm32l1xx_hal_flash_ramfunc.cpp **** @endverbatim
 359:Drivers/STM32L1xx_HAL_Driver/stm32l1xx_hal_flash_ramfunc.cpp ****   * @{
 360:Drivers/STM32L1xx_HAL_Driver/stm32l1xx_hal_flash_ramfunc.cpp ****   */
 361:Drivers/STM32L1xx_HAL_Driver/stm32l1xx_hal_flash_ramfunc.cpp **** 
 362:Drivers/STM32L1xx_HAL_Driver/stm32l1xx_hal_flash_ramfunc.cpp **** /**
 363:Drivers/STM32L1xx_HAL_Driver/stm32l1xx_hal_flash_ramfunc.cpp ****   * @brief  Erase a double word in data memory.
 364:Drivers/STM32L1xx_HAL_Driver/stm32l1xx_hal_flash_ramfunc.cpp ****   * @param  Address: specifies the address to be erased.
 365:Drivers/STM32L1xx_HAL_Driver/stm32l1xx_hal_flash_ramfunc.cpp ****   * @note   To correctly run this function, the HAL_FLASH_EEPROM_Unlock() function
 366:Drivers/STM32L1xx_HAL_Driver/stm32l1xx_hal_flash_ramfunc.cpp ****   *         must be called before.
 367:Drivers/STM32L1xx_HAL_Driver/stm32l1xx_hal_flash_ramfunc.cpp ****   *         Call the HAL_FLASH_EEPROM_Lock() to he data EEPROM access
 368:Drivers/STM32L1xx_HAL_Driver/stm32l1xx_hal_flash_ramfunc.cpp ****   *         and Flash program erase control register access(recommended to protect 
 369:Drivers/STM32L1xx_HAL_Driver/stm32l1xx_hal_flash_ramfunc.cpp ****   *         the DATA_EEPROM against possible unwanted operation).
 370:Drivers/STM32L1xx_HAL_Driver/stm32l1xx_hal_flash_ramfunc.cpp ****   * @note   Data memory double word erase is possible only from SRAM.
 371:Drivers/STM32L1xx_HAL_Driver/stm32l1xx_hal_flash_ramfunc.cpp ****   * @note   A double word is erased to the data memory only if the first address 
 372:Drivers/STM32L1xx_HAL_Driver/stm32l1xx_hal_flash_ramfunc.cpp ****   *         to load is the start address of a double word (multiple of 8 bytes).
 373:Drivers/STM32L1xx_HAL_Driver/stm32l1xx_hal_flash_ramfunc.cpp ****   * @note   During the Data memory double word erase, all read operations are 
 374:Drivers/STM32L1xx_HAL_Driver/stm32l1xx_hal_flash_ramfunc.cpp ****   *         forbidden (this includes DMA read operations and debugger read 
 375:Drivers/STM32L1xx_HAL_Driver/stm32l1xx_hal_flash_ramfunc.cpp ****   *         operations such as breakpoints, periodic updates, etc.).
 376:Drivers/STM32L1xx_HAL_Driver/stm32l1xx_hal_flash_ramfunc.cpp ****   * @retval HAL Status: The returned value can be: 
 377:Drivers/STM32L1xx_HAL_Driver/stm32l1xx_hal_flash_ramfunc.cpp ****   *    HAL_ERROR, HAL_OK or HAL_TIMEOUT.
 378:Drivers/STM32L1xx_HAL_Driver/stm32l1xx_hal_flash_ramfunc.cpp ****   */
 379:Drivers/STM32L1xx_HAL_Driver/stm32l1xx_hal_flash_ramfunc.cpp **** 
 380:Drivers/STM32L1xx_HAL_Driver/stm32l1xx_hal_flash_ramfunc.cpp **** __RAM_FUNC HAL_FLASHEx_DATAEEPROM_EraseDoubleWord(uint32_t Address)
 381:Drivers/STM32L1xx_HAL_Driver/stm32l1xx_hal_flash_ramfunc.cpp **** {
 288              		.loc 1 381 0
 289              		.cfi_startproc
 290              		@ args = 0, pretend = 0, frame = 16
 291              		@ frame_needed = 1, uses_anonymous_args = 0
 292 018c 80B5     		push	{r7, lr}	@
 293              	.LCFI7:
 294              		.cfi_def_cfa_offset 8
 295              		.cfi_offset 7, -8
 296              		.cfi_offset 14, -4
 297 018e 84B0     		sub	sp, sp, #16	@,,
 298              	.LCFI8:
 299              		.cfi_def_cfa_offset 24
 300 0190 00AF     		add	r7, sp, #0	@,,
 301              	.LCFI9:
 302              		.cfi_def_cfa_register 7
ARM GAS  /tmp/ccgKpTNp.s 			page 13


 303 0192 7860     		str	r0, [r7, #4]	@ Address, Address
 304              	.LBB3:
 382:Drivers/STM32L1xx_HAL_Driver/stm32l1xx_hal_flash_ramfunc.cpp ****   HAL_StatusTypeDef status = HAL_OK;
 305              		.loc 1 382 0
 306 0194 4FF00003 		mov	r3, #0	@ tmp162,
 307 0198 FB73     		strb	r3, [r7, #15]	@ tmp163, status
 383:Drivers/STM32L1xx_HAL_Driver/stm32l1xx_hal_flash_ramfunc.cpp ****   
 384:Drivers/STM32L1xx_HAL_Driver/stm32l1xx_hal_flash_ramfunc.cpp ****   /* Set the DISMCYCINT[0] bit in the Auxillary Control Register (0xE000E008) 
 385:Drivers/STM32L1xx_HAL_Driver/stm32l1xx_hal_flash_ramfunc.cpp ****      This bit prevents the interruption of multicycle instructions and therefore 
 386:Drivers/STM32L1xx_HAL_Driver/stm32l1xx_hal_flash_ramfunc.cpp ****      will increase the interrupt latency. of Cortex-M3. */
 387:Drivers/STM32L1xx_HAL_Driver/stm32l1xx_hal_flash_ramfunc.cpp ****   SCnSCB->ACTLR |= SCnSCB_ACTLR_DISMCYCINT_Msk;
 308              		.loc 1 387 0
 309 019a 4FF0E023 		mov	r3, #-536813568	@ D.5945,
 310 019e 4FF0E022 		mov	r2, #-536813568	@ D.5946,
 311 01a2 9268     		ldr	r2, [r2, #8]	@ D.5947, D.5946_4->ACTLR
 312 01a4 42F00102 		orr	r2, r2, #1	@ D.5948, D.5947,
 313 01a8 9A60     		str	r2, [r3, #8]	@ D.5948, D.5945_3->ACTLR
 388:Drivers/STM32L1xx_HAL_Driver/stm32l1xx_hal_flash_ramfunc.cpp ****     
 389:Drivers/STM32L1xx_HAL_Driver/stm32l1xx_hal_flash_ramfunc.cpp ****   /* Wait for last operation to be completed */
 390:Drivers/STM32L1xx_HAL_Driver/stm32l1xx_hal_flash_ramfunc.cpp ****   status = FLASHRAM_WaitForLastOperation(HAL_FLASH_TIMEOUT_VALUE);
 314              		.loc 1 390 0
 315 01aa 4CF25030 		movw	r0, #50000	@,
 316 01ae 00F0C1F8 		bl	_ZL29FLASHRAM_WaitForLastOperationm	@
 317 01b2 0346     		mov	r3, r0	@ tmp164,
 318 01b4 FB73     		strb	r3, [r7, #15]	@ tmp165, status
 391:Drivers/STM32L1xx_HAL_Driver/stm32l1xx_hal_flash_ramfunc.cpp ****   
 392:Drivers/STM32L1xx_HAL_Driver/stm32l1xx_hal_flash_ramfunc.cpp ****   if(status == HAL_OK)
 319              		.loc 1 392 0
 320 01b6 FB7B     		ldrb	r3, [r7, #15]	@ zero_extendqisi2	@ tmp166, status
 321 01b8 002B     		cmp	r3, #0	@ tmp166,
 322 01ba 41D1     		bne	.L11	@,
 393:Drivers/STM32L1xx_HAL_Driver/stm32l1xx_hal_flash_ramfunc.cpp ****   {
 394:Drivers/STM32L1xx_HAL_Driver/stm32l1xx_hal_flash_ramfunc.cpp ****     /* If the previous operation is completed, proceed to erase the next double word */
 395:Drivers/STM32L1xx_HAL_Driver/stm32l1xx_hal_flash_ramfunc.cpp ****     /* Set the ERASE bit */
 396:Drivers/STM32L1xx_HAL_Driver/stm32l1xx_hal_flash_ramfunc.cpp ****     FLASH->PECR |= FLASH_PECR_ERASE;
 323              		.loc 1 396 0
 324 01bc 4FF47053 		mov	r3, #15360	@ D.5951,
 325 01c0 C4F20203 		movt	r3, 16386	@ D.5951,
 326 01c4 4FF47052 		mov	r2, #15360	@ D.5952,
 327 01c8 C4F20202 		movt	r2, 16386	@ D.5952,
 328 01cc 5268     		ldr	r2, [r2, #4]	@ D.5953, D.5952_9->PECR
 329 01ce 42F40072 		orr	r2, r2, #512	@ D.5954, D.5953,
 330 01d2 5A60     		str	r2, [r3, #4]	@ D.5954, D.5951_8->PECR
 397:Drivers/STM32L1xx_HAL_Driver/stm32l1xx_hal_flash_ramfunc.cpp **** 
 398:Drivers/STM32L1xx_HAL_Driver/stm32l1xx_hal_flash_ramfunc.cpp ****     /* Set DATA bit */
 399:Drivers/STM32L1xx_HAL_Driver/stm32l1xx_hal_flash_ramfunc.cpp ****     FLASH->PECR |= FLASH_PECR_DATA;
 331              		.loc 1 399 0
 332 01d4 4FF47053 		mov	r3, #15360	@ D.5955,
 333 01d8 C4F20203 		movt	r3, 16386	@ D.5955,
 334 01dc 4FF47052 		mov	r2, #15360	@ D.5956,
 335 01e0 C4F20202 		movt	r2, 16386	@ D.5956,
 336 01e4 5268     		ldr	r2, [r2, #4]	@ D.5957, D.5956_13->PECR
 337 01e6 42F01002 		orr	r2, r2, #16	@ D.5958, D.5957,
 338 01ea 5A60     		str	r2, [r3, #4]	@ D.5958, D.5955_12->PECR
 400:Drivers/STM32L1xx_HAL_Driver/stm32l1xx_hal_flash_ramfunc.cpp ****    
 401:Drivers/STM32L1xx_HAL_Driver/stm32l1xx_hal_flash_ramfunc.cpp ****     /* Write 00000000h to the 2 words to erase */
 402:Drivers/STM32L1xx_HAL_Driver/stm32l1xx_hal_flash_ramfunc.cpp ****     *(__IO uint32_t *)Address = 0x00000000;
ARM GAS  /tmp/ccgKpTNp.s 			page 14


 339              		.loc 1 402 0
 340 01ec 7B68     		ldr	r3, [r7, #4]	@ Address.6, Address
 341 01ee 4FF00002 		mov	r2, #0	@ tmp167,
 342 01f2 1A60     		str	r2, [r3, #0]	@ tmp167, *Address.6_17
 403:Drivers/STM32L1xx_HAL_Driver/stm32l1xx_hal_flash_ramfunc.cpp ****     Address += 4;
 343              		.loc 1 403 0
 344 01f4 7B68     		ldr	r3, [r7, #4]	@ tmp169, Address
 345 01f6 03F10403 		add	r3, r3, #4	@ tmp168, tmp169,
 346 01fa 7B60     		str	r3, [r7, #4]	@ tmp168, Address
 404:Drivers/STM32L1xx_HAL_Driver/stm32l1xx_hal_flash_ramfunc.cpp ****     *(__IO uint32_t *)Address = 0x00000000;
 347              		.loc 1 404 0
 348 01fc 7B68     		ldr	r3, [r7, #4]	@ Address.7, Address
 349 01fe 4FF00002 		mov	r2, #0	@ tmp170,
 350 0202 1A60     		str	r2, [r3, #0]	@ tmp170, *Address.7_19
 405:Drivers/STM32L1xx_HAL_Driver/stm32l1xx_hal_flash_ramfunc.cpp ****    
 406:Drivers/STM32L1xx_HAL_Driver/stm32l1xx_hal_flash_ramfunc.cpp ****     /* Wait for last operation to be completed */
 407:Drivers/STM32L1xx_HAL_Driver/stm32l1xx_hal_flash_ramfunc.cpp ****     status = FLASHRAM_WaitForLastOperation(HAL_FLASH_TIMEOUT_VALUE);
 351              		.loc 1 407 0
 352 0204 4CF25030 		movw	r0, #50000	@,
 353 0208 00F094F8 		bl	_ZL29FLASHRAM_WaitForLastOperationm	@
 354 020c 0346     		mov	r3, r0	@ tmp171,
 355 020e FB73     		strb	r3, [r7, #15]	@ tmp172, status
 408:Drivers/STM32L1xx_HAL_Driver/stm32l1xx_hal_flash_ramfunc.cpp ****     
 409:Drivers/STM32L1xx_HAL_Driver/stm32l1xx_hal_flash_ramfunc.cpp ****     /* If the erase operation is completed, disable the ERASE and DATA bits */
 410:Drivers/STM32L1xx_HAL_Driver/stm32l1xx_hal_flash_ramfunc.cpp ****     FLASH->PECR &= (uint32_t)(~FLASH_PECR_ERASE);
 356              		.loc 1 410 0
 357 0210 4FF47053 		mov	r3, #15360	@ D.5961,
 358 0214 C4F20203 		movt	r3, 16386	@ D.5961,
 359 0218 4FF47052 		mov	r2, #15360	@ D.5962,
 360 021c C4F20202 		movt	r2, 16386	@ D.5962,
 361 0220 5268     		ldr	r2, [r2, #4]	@ D.5963, D.5962_22->PECR
 362 0222 22F40072 		bic	r2, r2, #512	@ D.5964, D.5963,
 363 0226 5A60     		str	r2, [r3, #4]	@ D.5964, D.5961_21->PECR
 411:Drivers/STM32L1xx_HAL_Driver/stm32l1xx_hal_flash_ramfunc.cpp ****     FLASH->PECR &= (uint32_t)(~FLASH_PECR_DATA);
 364              		.loc 1 411 0
 365 0228 4FF47053 		mov	r3, #15360	@ D.5965,
 366 022c C4F20203 		movt	r3, 16386	@ D.5965,
 367 0230 4FF47052 		mov	r2, #15360	@ D.5966,
 368 0234 C4F20202 		movt	r2, 16386	@ D.5966,
 369 0238 5268     		ldr	r2, [r2, #4]	@ D.5967, D.5966_26->PECR
 370 023a 22F01002 		bic	r2, r2, #16	@ D.5968, D.5967,
 371 023e 5A60     		str	r2, [r3, #4]	@ D.5968, D.5965_25->PECR
 372              	.L11:
 412:Drivers/STM32L1xx_HAL_Driver/stm32l1xx_hal_flash_ramfunc.cpp ****   }  
 413:Drivers/STM32L1xx_HAL_Driver/stm32l1xx_hal_flash_ramfunc.cpp ****   
 414:Drivers/STM32L1xx_HAL_Driver/stm32l1xx_hal_flash_ramfunc.cpp ****   SCnSCB->ACTLR &= ~SCnSCB_ACTLR_DISMCYCINT_Msk;
 373              		.loc 1 414 0
 374 0240 4FF0E023 		mov	r3, #-536813568	@ D.5970,
 375 0244 4FF0E022 		mov	r2, #-536813568	@ D.5971,
 376 0248 9268     		ldr	r2, [r2, #8]	@ D.5972, D.5971_30->ACTLR
 377 024a 22F00102 		bic	r2, r2, #1	@ D.5973, D.5972,
 378 024e 9A60     		str	r2, [r3, #8]	@ D.5973, D.5970_29->ACTLR
 415:Drivers/STM32L1xx_HAL_Driver/stm32l1xx_hal_flash_ramfunc.cpp ****     
 416:Drivers/STM32L1xx_HAL_Driver/stm32l1xx_hal_flash_ramfunc.cpp ****   /* Return the erase status */
 417:Drivers/STM32L1xx_HAL_Driver/stm32l1xx_hal_flash_ramfunc.cpp ****   return status;
 379              		.loc 1 417 0
 380 0250 FB7B     		ldrb	r3, [r7, #15]	@ zero_extendqisi2	@ D.5974, status
ARM GAS  /tmp/ccgKpTNp.s 			page 15


 381              	.LBE3:
 418:Drivers/STM32L1xx_HAL_Driver/stm32l1xx_hal_flash_ramfunc.cpp **** }
 382              		.loc 1 418 0
 383 0252 1846     		mov	r0, r3	@, <retval>
 384 0254 07F11007 		add	r7, r7, #16	@,,
 385 0258 BD46     		mov	sp, r7
 386 025a 80BD     		pop	{r7, pc}
 387              		.cfi_endproc
 388              	.LFE59:
 389              		.size	HAL_FLASHEx_DATAEEPROM_EraseDoubleWord, .-HAL_FLASHEx_DATAEEPROM_EraseDoubleWord
 390              		.align	2
 391              		.global	HAL_FLASHEx_DATAEEPROM_ProgramDoubleWord
 392              		.thumb
 393              		.thumb_func
 394              		.type	HAL_FLASHEx_DATAEEPROM_ProgramDoubleWord, %function
 395              	HAL_FLASHEx_DATAEEPROM_ProgramDoubleWord:
 396              	.LFB60:
 419:Drivers/STM32L1xx_HAL_Driver/stm32l1xx_hal_flash_ramfunc.cpp **** 
 420:Drivers/STM32L1xx_HAL_Driver/stm32l1xx_hal_flash_ramfunc.cpp **** /**
 421:Drivers/STM32L1xx_HAL_Driver/stm32l1xx_hal_flash_ramfunc.cpp ****   * @brief  Write a double word in data memory without erase.
 422:Drivers/STM32L1xx_HAL_Driver/stm32l1xx_hal_flash_ramfunc.cpp ****   * @param  Address: specifies the address to be written.
 423:Drivers/STM32L1xx_HAL_Driver/stm32l1xx_hal_flash_ramfunc.cpp ****   * @param  Data: specifies the data to be written.
 424:Drivers/STM32L1xx_HAL_Driver/stm32l1xx_hal_flash_ramfunc.cpp ****   * @note   To correctly run this function, the HAL_FLASH_EEPROM_Unlock() function
 425:Drivers/STM32L1xx_HAL_Driver/stm32l1xx_hal_flash_ramfunc.cpp ****   *         must be called before.
 426:Drivers/STM32L1xx_HAL_Driver/stm32l1xx_hal_flash_ramfunc.cpp ****   *         Call the HAL_FLASH_EEPROM_Lock() to he data EEPROM access
 427:Drivers/STM32L1xx_HAL_Driver/stm32l1xx_hal_flash_ramfunc.cpp ****   *         and Flash program erase control register access(recommended to protect 
 428:Drivers/STM32L1xx_HAL_Driver/stm32l1xx_hal_flash_ramfunc.cpp ****   *         the DATA_EEPROM against possible unwanted operation).
 429:Drivers/STM32L1xx_HAL_Driver/stm32l1xx_hal_flash_ramfunc.cpp ****   * @note   Data memory double word write is possible only from SRAM.
 430:Drivers/STM32L1xx_HAL_Driver/stm32l1xx_hal_flash_ramfunc.cpp ****   * @note   A data memory double word is written to the data memory only if the 
 431:Drivers/STM32L1xx_HAL_Driver/stm32l1xx_hal_flash_ramfunc.cpp ****   *         first address to load is the start address of a double word (multiple 
 432:Drivers/STM32L1xx_HAL_Driver/stm32l1xx_hal_flash_ramfunc.cpp ****   *         of double word).
 433:Drivers/STM32L1xx_HAL_Driver/stm32l1xx_hal_flash_ramfunc.cpp ****   * @note   During the Data memory double word write, all read operations are 
 434:Drivers/STM32L1xx_HAL_Driver/stm32l1xx_hal_flash_ramfunc.cpp ****   *         forbidden (this includes DMA read operations and debugger read 
 435:Drivers/STM32L1xx_HAL_Driver/stm32l1xx_hal_flash_ramfunc.cpp ****   *         operations such as breakpoints, periodic updates, etc.).
 436:Drivers/STM32L1xx_HAL_Driver/stm32l1xx_hal_flash_ramfunc.cpp ****   * @retval HAL Status: The returned value can be: 
 437:Drivers/STM32L1xx_HAL_Driver/stm32l1xx_hal_flash_ramfunc.cpp ****   *    HAL_ERROR, HAL_OK or HAL_TIMEOUT. 
 438:Drivers/STM32L1xx_HAL_Driver/stm32l1xx_hal_flash_ramfunc.cpp ****   */ 
 439:Drivers/STM32L1xx_HAL_Driver/stm32l1xx_hal_flash_ramfunc.cpp **** __RAM_FUNC HAL_FLASHEx_DATAEEPROM_ProgramDoubleWord(uint32_t Address, uint64_t Data)
 440:Drivers/STM32L1xx_HAL_Driver/stm32l1xx_hal_flash_ramfunc.cpp **** {
 397              		.loc 1 440 0
 398              		.cfi_startproc
 399              		@ args = 0, pretend = 0, frame = 24
 400              		@ frame_needed = 1, uses_anonymous_args = 0
 401 025c B0B5     		push	{r4, r5, r7, lr}	@
 402              	.LCFI10:
 403              		.cfi_def_cfa_offset 16
 404              		.cfi_offset 4, -16
 405              		.cfi_offset 5, -12
 406              		.cfi_offset 7, -8
 407              		.cfi_offset 14, -4
 408 025e 86B0     		sub	sp, sp, #24	@,,
 409              	.LCFI11:
 410              		.cfi_def_cfa_offset 40
 411 0260 00AF     		add	r7, sp, #0	@,,
 412              	.LCFI12:
 413              		.cfi_def_cfa_register 7
 414 0262 F860     		str	r0, [r7, #12]	@ Address, Address
ARM GAS  /tmp/ccgKpTNp.s 			page 16


 415 0264 C7E90023 		strd	r2, [r7]	@ Data, Data
 416              	.LBB4:
 441:Drivers/STM32L1xx_HAL_Driver/stm32l1xx_hal_flash_ramfunc.cpp ****   HAL_StatusTypeDef status = HAL_OK;
 417              		.loc 1 441 0
 418 0268 4FF00003 		mov	r3, #0	@ tmp165,
 419 026c FB75     		strb	r3, [r7, #23]	@ tmp166, status
 442:Drivers/STM32L1xx_HAL_Driver/stm32l1xx_hal_flash_ramfunc.cpp **** 
 443:Drivers/STM32L1xx_HAL_Driver/stm32l1xx_hal_flash_ramfunc.cpp ****   /* Set the DISMCYCINT[0] bit in the Auxillary Control Register (0xE000E008) 
 444:Drivers/STM32L1xx_HAL_Driver/stm32l1xx_hal_flash_ramfunc.cpp ****      This bit prevents the interruption of multicycle instructions and therefore 
 445:Drivers/STM32L1xx_HAL_Driver/stm32l1xx_hal_flash_ramfunc.cpp ****      will increase the interrupt latency. of Cortex-M3. */
 446:Drivers/STM32L1xx_HAL_Driver/stm32l1xx_hal_flash_ramfunc.cpp ****   SCnSCB->ACTLR |= SCnSCB_ACTLR_DISMCYCINT_Msk;
 420              		.loc 1 446 0
 421 026e 4FF0E023 		mov	r3, #-536813568	@ D.5911,
 422 0272 4FF0E022 		mov	r2, #-536813568	@ D.5912,
 423 0276 9268     		ldr	r2, [r2, #8]	@ D.5913, D.5912_4->ACTLR
 424 0278 42F00102 		orr	r2, r2, #1	@ D.5914, D.5913,
 425 027c 9A60     		str	r2, [r3, #8]	@ D.5914, D.5911_3->ACTLR
 447:Drivers/STM32L1xx_HAL_Driver/stm32l1xx_hal_flash_ramfunc.cpp ****     
 448:Drivers/STM32L1xx_HAL_Driver/stm32l1xx_hal_flash_ramfunc.cpp ****   /* Wait for last operation to be completed */
 449:Drivers/STM32L1xx_HAL_Driver/stm32l1xx_hal_flash_ramfunc.cpp ****   status = FLASHRAM_WaitForLastOperation(HAL_FLASH_TIMEOUT_VALUE);
 426              		.loc 1 449 0
 427 027e 4CF25030 		movw	r0, #50000	@,
 428 0282 00F057F8 		bl	_ZL29FLASHRAM_WaitForLastOperationm	@
 429 0286 0346     		mov	r3, r0	@ tmp167,
 430 0288 FB75     		strb	r3, [r7, #23]	@ tmp168, status
 450:Drivers/STM32L1xx_HAL_Driver/stm32l1xx_hal_flash_ramfunc.cpp ****   
 451:Drivers/STM32L1xx_HAL_Driver/stm32l1xx_hal_flash_ramfunc.cpp ****   if(status == HAL_OK)
 431              		.loc 1 451 0
 432 028a FB7D     		ldrb	r3, [r7, #23]	@ zero_extendqisi2	@ tmp169, status
 433 028c 002B     		cmp	r3, #0	@ tmp169,
 434 028e 43D1     		bne	.L14	@,
 452:Drivers/STM32L1xx_HAL_Driver/stm32l1xx_hal_flash_ramfunc.cpp ****   {
 453:Drivers/STM32L1xx_HAL_Driver/stm32l1xx_hal_flash_ramfunc.cpp ****     /* If the previous operation is completed, proceed to program the new data*/
 454:Drivers/STM32L1xx_HAL_Driver/stm32l1xx_hal_flash_ramfunc.cpp ****     FLASH->PECR |= FLASH_PECR_FPRG;
 435              		.loc 1 454 0
 436 0290 4FF47053 		mov	r3, #15360	@ D.5917,
 437 0294 C4F20203 		movt	r3, 16386	@ D.5917,
 438 0298 4FF47052 		mov	r2, #15360	@ D.5918,
 439 029c C4F20202 		movt	r2, 16386	@ D.5918,
 440 02a0 5268     		ldr	r2, [r2, #4]	@ D.5919, D.5918_9->PECR
 441 02a2 42F48062 		orr	r2, r2, #1024	@ D.5920, D.5919,
 442 02a6 5A60     		str	r2, [r3, #4]	@ D.5920, D.5917_8->PECR
 455:Drivers/STM32L1xx_HAL_Driver/stm32l1xx_hal_flash_ramfunc.cpp ****     FLASH->PECR |= FLASH_PECR_DATA;
 443              		.loc 1 455 0
 444 02a8 4FF47053 		mov	r3, #15360	@ D.5921,
 445 02ac C4F20203 		movt	r3, 16386	@ D.5921,
 446 02b0 4FF47052 		mov	r2, #15360	@ D.5922,
 447 02b4 C4F20202 		movt	r2, 16386	@ D.5922,
 448 02b8 5268     		ldr	r2, [r2, #4]	@ D.5923, D.5922_13->PECR
 449 02ba 42F01002 		orr	r2, r2, #16	@ D.5924, D.5923,
 450 02be 5A60     		str	r2, [r3, #4]	@ D.5924, D.5921_12->PECR
 456:Drivers/STM32L1xx_HAL_Driver/stm32l1xx_hal_flash_ramfunc.cpp ****     
 457:Drivers/STM32L1xx_HAL_Driver/stm32l1xx_hal_flash_ramfunc.cpp ****     /* Write the 2 words */  
 458:Drivers/STM32L1xx_HAL_Driver/stm32l1xx_hal_flash_ramfunc.cpp ****      *(__IO uint32_t *)Address = (uint32_t) Data;
 451              		.loc 1 458 0
 452 02c0 FB68     		ldr	r3, [r7, #12]	@ Address.4, Address
 453 02c2 3A68     		ldr	r2, [r7, #0]	@ D.5926, Data
ARM GAS  /tmp/ccgKpTNp.s 			page 17


 454 02c4 1A60     		str	r2, [r3, #0]	@ D.5926, *Address.4_17
 459:Drivers/STM32L1xx_HAL_Driver/stm32l1xx_hal_flash_ramfunc.cpp ****      Address += 4;
 455              		.loc 1 459 0
 456 02c6 FB68     		ldr	r3, [r7, #12]	@ tmp171, Address
 457 02c8 03F10403 		add	r3, r3, #4	@ tmp170, tmp171,
 458 02cc FB60     		str	r3, [r7, #12]	@ tmp170, Address
 460:Drivers/STM32L1xx_HAL_Driver/stm32l1xx_hal_flash_ramfunc.cpp ****      *(__IO uint32_t *)Address = (uint32_t) (Data >> 32);
 459              		.loc 1 460 0
 460 02ce FB68     		ldr	r3, [r7, #12]	@ Address.5, Address
 461 02d0 7A68     		ldr	r2, [r7, #4]	@ tmp173, Data
 462 02d2 1446     		mov	r4, r2	@ D.5928, tmp173
 463 02d4 4FF00005 		mov	r5, #0	@ D.5928,
 464 02d8 2246     		mov	r2, r4	@ D.5929, D.5928
 465 02da 1A60     		str	r2, [r3, #0]	@ D.5929, *Address.5_21
 461:Drivers/STM32L1xx_HAL_Driver/stm32l1xx_hal_flash_ramfunc.cpp ****     
 462:Drivers/STM32L1xx_HAL_Driver/stm32l1xx_hal_flash_ramfunc.cpp ****     /* Wait for last operation to be completed */
 463:Drivers/STM32L1xx_HAL_Driver/stm32l1xx_hal_flash_ramfunc.cpp ****     status = FLASHRAM_WaitForLastOperation(HAL_FLASH_TIMEOUT_VALUE);
 466              		.loc 1 463 0
 467 02dc 4CF25030 		movw	r0, #50000	@,
 468 02e0 00F028F8 		bl	_ZL29FLASHRAM_WaitForLastOperationm	@
 469 02e4 0346     		mov	r3, r0	@ tmp174,
 470 02e6 FB75     		strb	r3, [r7, #23]	@ tmp175, status
 464:Drivers/STM32L1xx_HAL_Driver/stm32l1xx_hal_flash_ramfunc.cpp ****     
 465:Drivers/STM32L1xx_HAL_Driver/stm32l1xx_hal_flash_ramfunc.cpp ****     /* If the write operation is completed, disable the FPRG and DATA bits */
 466:Drivers/STM32L1xx_HAL_Driver/stm32l1xx_hal_flash_ramfunc.cpp ****     FLASH->PECR &= (uint32_t)(~FLASH_PECR_FPRG);
 471              		.loc 1 466 0
 472 02e8 4FF47053 		mov	r3, #15360	@ D.5930,
 473 02ec C4F20203 		movt	r3, 16386	@ D.5930,
 474 02f0 4FF47052 		mov	r2, #15360	@ D.5931,
 475 02f4 C4F20202 		movt	r2, 16386	@ D.5931,
 476 02f8 5268     		ldr	r2, [r2, #4]	@ D.5932, D.5931_26->PECR
 477 02fa 22F48062 		bic	r2, r2, #1024	@ D.5933, D.5932,
 478 02fe 5A60     		str	r2, [r3, #4]	@ D.5933, D.5930_25->PECR
 467:Drivers/STM32L1xx_HAL_Driver/stm32l1xx_hal_flash_ramfunc.cpp ****     FLASH->PECR &= (uint32_t)(~FLASH_PECR_DATA);     
 479              		.loc 1 467 0
 480 0300 4FF47053 		mov	r3, #15360	@ D.5934,
 481 0304 C4F20203 		movt	r3, 16386	@ D.5934,
 482 0308 4FF47052 		mov	r2, #15360	@ D.5935,
 483 030c C4F20202 		movt	r2, 16386	@ D.5935,
 484 0310 5268     		ldr	r2, [r2, #4]	@ D.5936, D.5935_30->PECR
 485 0312 22F01002 		bic	r2, r2, #16	@ D.5937, D.5936,
 486 0316 5A60     		str	r2, [r3, #4]	@ D.5937, D.5934_29->PECR
 487              	.L14:
 468:Drivers/STM32L1xx_HAL_Driver/stm32l1xx_hal_flash_ramfunc.cpp ****   }
 469:Drivers/STM32L1xx_HAL_Driver/stm32l1xx_hal_flash_ramfunc.cpp ****   
 470:Drivers/STM32L1xx_HAL_Driver/stm32l1xx_hal_flash_ramfunc.cpp ****   SCnSCB->ACTLR &= ~SCnSCB_ACTLR_DISMCYCINT_Msk;
 488              		.loc 1 470 0
 489 0318 4FF0E023 		mov	r3, #-536813568	@ D.5939,
 490 031c 4FF0E022 		mov	r2, #-536813568	@ D.5940,
 491 0320 9268     		ldr	r2, [r2, #8]	@ D.5941, D.5940_34->ACTLR
 492 0322 22F00102 		bic	r2, r2, #1	@ D.5942, D.5941,
 493 0326 9A60     		str	r2, [r3, #8]	@ D.5942, D.5939_33->ACTLR
 471:Drivers/STM32L1xx_HAL_Driver/stm32l1xx_hal_flash_ramfunc.cpp ****     
 472:Drivers/STM32L1xx_HAL_Driver/stm32l1xx_hal_flash_ramfunc.cpp ****   /* Return the Write Status */
 473:Drivers/STM32L1xx_HAL_Driver/stm32l1xx_hal_flash_ramfunc.cpp ****   return status;
 494              		.loc 1 473 0
 495 0328 FB7D     		ldrb	r3, [r7, #23]	@ zero_extendqisi2	@ D.5943, status
ARM GAS  /tmp/ccgKpTNp.s 			page 18


 496              	.LBE4:
 474:Drivers/STM32L1xx_HAL_Driver/stm32l1xx_hal_flash_ramfunc.cpp **** }
 497              		.loc 1 474 0
 498 032a 1846     		mov	r0, r3	@, <retval>
 499 032c 07F11807 		add	r7, r7, #24	@,,
 500 0330 BD46     		mov	sp, r7
 501 0332 B0BD     		pop	{r4, r5, r7, pc}
 502              		.cfi_endproc
 503              	.LFE60:
 504              		.size	HAL_FLASHEx_DATAEEPROM_ProgramDoubleWord, .-HAL_FLASHEx_DATAEEPROM_ProgramDoubleWord
 505              		.align	2
 506              		.thumb
 507              		.thumb_func
 508              		.type	_ZL29FLASHRAM_WaitForLastOperationm, %function
 509              	_ZL29FLASHRAM_WaitForLastOperationm:
 510              	.LFB61:
 475:Drivers/STM32L1xx_HAL_Driver/stm32l1xx_hal_flash_ramfunc.cpp **** 
 476:Drivers/STM32L1xx_HAL_Driver/stm32l1xx_hal_flash_ramfunc.cpp **** /**
 477:Drivers/STM32L1xx_HAL_Driver/stm32l1xx_hal_flash_ramfunc.cpp ****   * @}
 478:Drivers/STM32L1xx_HAL_Driver/stm32l1xx_hal_flash_ramfunc.cpp ****   */
 479:Drivers/STM32L1xx_HAL_Driver/stm32l1xx_hal_flash_ramfunc.cpp **** 
 480:Drivers/STM32L1xx_HAL_Driver/stm32l1xx_hal_flash_ramfunc.cpp **** /**
 481:Drivers/STM32L1xx_HAL_Driver/stm32l1xx_hal_flash_ramfunc.cpp ****   * @}
 482:Drivers/STM32L1xx_HAL_Driver/stm32l1xx_hal_flash_ramfunc.cpp ****   */
 483:Drivers/STM32L1xx_HAL_Driver/stm32l1xx_hal_flash_ramfunc.cpp **** 
 484:Drivers/STM32L1xx_HAL_Driver/stm32l1xx_hal_flash_ramfunc.cpp **** /** @defgroup FLASHRamfunc_Private_Functions FLASH RAM Private Functions
 485:Drivers/STM32L1xx_HAL_Driver/stm32l1xx_hal_flash_ramfunc.cpp ****   * @{
 486:Drivers/STM32L1xx_HAL_Driver/stm32l1xx_hal_flash_ramfunc.cpp ****   */ 
 487:Drivers/STM32L1xx_HAL_Driver/stm32l1xx_hal_flash_ramfunc.cpp **** 
 488:Drivers/STM32L1xx_HAL_Driver/stm32l1xx_hal_flash_ramfunc.cpp **** /**
 489:Drivers/STM32L1xx_HAL_Driver/stm32l1xx_hal_flash_ramfunc.cpp ****   * @brief  Wait for a FLASH operation to complete.
 490:Drivers/STM32L1xx_HAL_Driver/stm32l1xx_hal_flash_ramfunc.cpp ****   * @param  Timeout: maximum flash operationtimeout
 491:Drivers/STM32L1xx_HAL_Driver/stm32l1xx_hal_flash_ramfunc.cpp ****   * @retval HAL status
 492:Drivers/STM32L1xx_HAL_Driver/stm32l1xx_hal_flash_ramfunc.cpp ****   */
 493:Drivers/STM32L1xx_HAL_Driver/stm32l1xx_hal_flash_ramfunc.cpp **** static __RAM_FUNC   FLASHRAM_WaitForLastOperation(uint32_t Timeout)
 494:Drivers/STM32L1xx_HAL_Driver/stm32l1xx_hal_flash_ramfunc.cpp **** { 
 511              		.loc 1 494 0
 512              		.cfi_startproc
 513              		@ args = 0, pretend = 0, frame = 8
 514              		@ frame_needed = 1, uses_anonymous_args = 0
 515              		@ link register save eliminated.
 516 0334 80B4     		push	{r7}	@
 517              	.LCFI13:
 518              		.cfi_def_cfa_offset 4
 519              		.cfi_offset 7, -4
 520 0336 83B0     		sub	sp, sp, #12	@,,
 521              	.LCFI14:
 522              		.cfi_def_cfa_offset 16
 523 0338 00AF     		add	r7, sp, #0	@,,
 524              	.LCFI15:
 525              		.cfi_def_cfa_register 7
 526 033a 7860     		str	r0, [r7, #4]	@ Timeout, Timeout
 495:Drivers/STM32L1xx_HAL_Driver/stm32l1xx_hal_flash_ramfunc.cpp ****     /* Wait for the FLASH operation to complete by polling on BUSY flag to be reset.
 496:Drivers/STM32L1xx_HAL_Driver/stm32l1xx_hal_flash_ramfunc.cpp ****        Even if the FLASH operation fails, the BUSY flag will be reset and an error
 497:Drivers/STM32L1xx_HAL_Driver/stm32l1xx_hal_flash_ramfunc.cpp ****        flag will be set */
 498:Drivers/STM32L1xx_HAL_Driver/stm32l1xx_hal_flash_ramfunc.cpp ****        
 499:Drivers/STM32L1xx_HAL_Driver/stm32l1xx_hal_flash_ramfunc.cpp ****     while(__HAL_FLASH_GET_FLAG(FLASH_FLAG_BSY) && (Timeout != 0x00)) 
ARM GAS  /tmp/ccgKpTNp.s 			page 19


 527              		.loc 1 499 0
 528 033c 03E0     		b	.L17	@
 529              	.L20:
 500:Drivers/STM32L1xx_HAL_Driver/stm32l1xx_hal_flash_ramfunc.cpp ****     { 
 501:Drivers/STM32L1xx_HAL_Driver/stm32l1xx_hal_flash_ramfunc.cpp ****       Timeout--;
 530              		.loc 1 501 0
 531 033e 7B68     		ldr	r3, [r7, #4]	@ tmp156, Timeout
 532 0340 03F1FF33 		add	r3, r3, #-1	@ tmp155, tmp156,
 533 0344 7B60     		str	r3, [r7, #4]	@ tmp155, Timeout
 534              	.L17:
 499:Drivers/STM32L1xx_HAL_Driver/stm32l1xx_hal_flash_ramfunc.cpp ****     while(__HAL_FLASH_GET_FLAG(FLASH_FLAG_BSY) && (Timeout != 0x00)) 
 535              		.loc 1 499 0 discriminator 1
 536 0346 4FF47053 		mov	r3, #15360	@ D.5866,
 537 034a C4F20203 		movt	r3, 16386	@ D.5866,
 538 034e 9B69     		ldr	r3, [r3, #24]	@ D.5867, D.5866_6->SR
 539 0350 03F00103 		and	r3, r3, #1	@ D.5868, D.5867,
 540 0354 002B     		cmp	r3, #0	@ D.5868,
 541 0356 05D0     		beq	.L18	@,
 499:Drivers/STM32L1xx_HAL_Driver/stm32l1xx_hal_flash_ramfunc.cpp ****     while(__HAL_FLASH_GET_FLAG(FLASH_FLAG_BSY) && (Timeout != 0x00)) 
 542              		.loc 1 499 0 is_stmt 0 discriminator 2
 543 0358 7B68     		ldr	r3, [r7, #4]	@ tmp157, Timeout
 544 035a 002B     		cmp	r3, #0	@ tmp157,
 545 035c 02D0     		beq	.L18	@,
 499:Drivers/STM32L1xx_HAL_Driver/stm32l1xx_hal_flash_ramfunc.cpp ****     while(__HAL_FLASH_GET_FLAG(FLASH_FLAG_BSY) && (Timeout != 0x00)) 
 546              		.loc 1 499 0 discriminator 4
 547 035e 4FF00103 		mov	r3, #1	@ iftmp.1,
 548 0362 01E0     		b	.L19	@
 549              	.L18:
 499:Drivers/STM32L1xx_HAL_Driver/stm32l1xx_hal_flash_ramfunc.cpp ****     while(__HAL_FLASH_GET_FLAG(FLASH_FLAG_BSY) && (Timeout != 0x00)) 
 550              		.loc 1 499 0 discriminator 3
 551 0364 4FF00003 		mov	r3, #0	@ iftmp.1,
 552              	.L19:
 499:Drivers/STM32L1xx_HAL_Driver/stm32l1xx_hal_flash_ramfunc.cpp ****     while(__HAL_FLASH_GET_FLAG(FLASH_FLAG_BSY) && (Timeout != 0x00)) 
 553              		.loc 1 499 0 discriminator 5
 554 0368 002B     		cmp	r3, #0	@ retval.0,
 555 036a E8D1     		bne	.L20	@,
 502:Drivers/STM32L1xx_HAL_Driver/stm32l1xx_hal_flash_ramfunc.cpp ****     }
 503:Drivers/STM32L1xx_HAL_Driver/stm32l1xx_hal_flash_ramfunc.cpp ****     
 504:Drivers/STM32L1xx_HAL_Driver/stm32l1xx_hal_flash_ramfunc.cpp ****     if(Timeout == 0x00 )
 556              		.loc 1 504 0 is_stmt 1
 557 036c 7B68     		ldr	r3, [r7, #4]	@ tmp158, Timeout
 558 036e 002B     		cmp	r3, #0	@ tmp158,
 559 0370 02D1     		bne	.L21	@,
 505:Drivers/STM32L1xx_HAL_Driver/stm32l1xx_hal_flash_ramfunc.cpp ****     {
 506:Drivers/STM32L1xx_HAL_Driver/stm32l1xx_hal_flash_ramfunc.cpp ****       return HAL_TIMEOUT;
 560              		.loc 1 506 0
 561 0372 4FF00303 		mov	r3, #3	@ D.5873,
 562 0376 2FE0     		b	.L22	@
 563              	.L21:
 507:Drivers/STM32L1xx_HAL_Driver/stm32l1xx_hal_flash_ramfunc.cpp ****     }
 508:Drivers/STM32L1xx_HAL_Driver/stm32l1xx_hal_flash_ramfunc.cpp ****     
 509:Drivers/STM32L1xx_HAL_Driver/stm32l1xx_hal_flash_ramfunc.cpp ****     if( (__HAL_FLASH_GET_FLAG(FLASH_FLAG_WRPERR)     != RESET) || 
 564              		.loc 1 509 0
 565 0378 4FF47053 		mov	r3, #15360	@ D.5879,
 566 037c C4F20203 		movt	r3, 16386	@ D.5879,
 567 0380 9B69     		ldr	r3, [r3, #24]	@ D.5880, D.5879_14->SR
 568 0382 03F48073 		and	r3, r3, #256	@ D.5881, D.5880,
ARM GAS  /tmp/ccgKpTNp.s 			page 20


 569 0386 002B     		cmp	r3, #0	@ D.5881,
 570 0388 1AD1     		bne	.L23	@,
 571              		.loc 1 509 0 is_stmt 0 discriminator 4
 572 038a 4FF47053 		mov	r3, #15360	@ D.5887,
 573 038e C4F20203 		movt	r3, 16386	@ D.5887,
 574 0392 9B69     		ldr	r3, [r3, #24]	@ D.5888, D.5887_17->SR
 575 0394 03F40073 		and	r3, r3, #512	@ D.5889, D.5888,
 576 0398 002B     		cmp	r3, #0	@ D.5889,
 577 039a 11D1     		bne	.L23	@,
 578              		.loc 1 509 0 discriminator 7
 579 039c 4FF47053 		mov	r3, #15360	@ D.5895,
 580 03a0 C4F20203 		movt	r3, 16386	@ D.5895,
 581 03a4 9B69     		ldr	r3, [r3, #24]	@ D.5896, D.5895_20->SR
 582 03a6 03F48063 		and	r3, r3, #1024	@ D.5897, D.5896,
 583 03aa 002B     		cmp	r3, #0	@ D.5897,
 584 03ac 08D1     		bne	.L23	@,
 585              		.loc 1 509 0 discriminator 10
 586 03ae 4FF47053 		mov	r3, #15360	@ D.5903,
 587 03b2 C4F20203 		movt	r3, 16386	@ D.5903,
 588 03b6 9B69     		ldr	r3, [r3, #24]	@ D.5904, D.5903_23->SR
 589 03b8 03F40063 		and	r3, r3, #2048	@ D.5905, D.5904,
 590 03bc 002B     		cmp	r3, #0	@ D.5905,
 591 03be 02D0     		beq	.L24	@,
 592              	.L23:
 593              		.loc 1 509 0 discriminator 3
 594 03c0 4FF00103 		mov	r3, #1	@ iftmp.3,
 595 03c4 01E0     		b	.L25	@
 596              	.L24:
 597              		.loc 1 509 0 discriminator 13
 598 03c6 4FF00003 		mov	r3, #0	@ iftmp.3,
 599              	.L25:
 600              		.loc 1 509 0 discriminator 14
 601 03ca 002B     		cmp	r3, #0	@ retval.2,
 602 03cc 02D0     		beq	.L26	@,
 510:Drivers/STM32L1xx_HAL_Driver/stm32l1xx_hal_flash_ramfunc.cpp ****         (__HAL_FLASH_GET_FLAG(FLASH_FLAG_PGAERR)     != RESET) || 
 511:Drivers/STM32L1xx_HAL_Driver/stm32l1xx_hal_flash_ramfunc.cpp ****         (__HAL_FLASH_GET_FLAG(FLASH_FLAG_SIZERR)     != RESET) || 
 512:Drivers/STM32L1xx_HAL_Driver/stm32l1xx_hal_flash_ramfunc.cpp **** #if defined (STM32L151xBA) || defined (STM32L152xBA) || \
 513:Drivers/STM32L1xx_HAL_Driver/stm32l1xx_hal_flash_ramfunc.cpp ****     defined (STM32L151xC) || defined (STM32L152xC) || defined (STM32L162xC)
 514:Drivers/STM32L1xx_HAL_Driver/stm32l1xx_hal_flash_ramfunc.cpp ****         (__HAL_FLASH_GET_FLAG(FLASH_FLAG_RDERR)      != RESET) || 
 515:Drivers/STM32L1xx_HAL_Driver/stm32l1xx_hal_flash_ramfunc.cpp **** #endif /* STM32L151xBA || STM32L152xBA || STM32L151xC || STM32L152xC || STM32L162xC */
 516:Drivers/STM32L1xx_HAL_Driver/stm32l1xx_hal_flash_ramfunc.cpp **** #if defined(STM32L100xC) || defined (STM32L151xC) || defined (STM32L152xC) || defined (STM32L162xC)
 517:Drivers/STM32L1xx_HAL_Driver/stm32l1xx_hal_flash_ramfunc.cpp ****     defined(STM32L151xCA) || defined (STM32L151xD) || defined (STM32L152xCA) || defined (STM32L152x
 518:Drivers/STM32L1xx_HAL_Driver/stm32l1xx_hal_flash_ramfunc.cpp ****     defined(STM32L151xE) || defined (STM32L152xE) || defined (STM32L162xE)
 519:Drivers/STM32L1xx_HAL_Driver/stm32l1xx_hal_flash_ramfunc.cpp ****         (__HAL_FLASH_GET_FLAG(FLASH_FLAG_OPTVERRUSR) != RESET) || 
 520:Drivers/STM32L1xx_HAL_Driver/stm32l1xx_hal_flash_ramfunc.cpp **** #endif /* STM32L100xC || STM32L151xC || STM32L152xC || STM32L162xC || STM32L151xCA || STM32L151xD |
 521:Drivers/STM32L1xx_HAL_Driver/stm32l1xx_hal_flash_ramfunc.cpp ****         (__HAL_FLASH_GET_FLAG(FLASH_FLAG_OPTVERR)    != RESET) )
 522:Drivers/STM32L1xx_HAL_Driver/stm32l1xx_hal_flash_ramfunc.cpp ****     {
 523:Drivers/STM32L1xx_HAL_Driver/stm32l1xx_hal_flash_ramfunc.cpp ****       return HAL_ERROR;
 603              		.loc 1 523 0 is_stmt 1
 604 03ce 4FF00103 		mov	r3, #1	@ D.5873,
 605 03d2 01E0     		b	.L22	@
 606              	.L26:
 524:Drivers/STM32L1xx_HAL_Driver/stm32l1xx_hal_flash_ramfunc.cpp ****     }
 525:Drivers/STM32L1xx_HAL_Driver/stm32l1xx_hal_flash_ramfunc.cpp ****   
 526:Drivers/STM32L1xx_HAL_Driver/stm32l1xx_hal_flash_ramfunc.cpp ****     /* If there is an error flag set */
 527:Drivers/STM32L1xx_HAL_Driver/stm32l1xx_hal_flash_ramfunc.cpp ****     return HAL_OK;
 607              		.loc 1 527 0
ARM GAS  /tmp/ccgKpTNp.s 			page 21


 608 03d4 4FF00003 		mov	r3, #0	@ D.5873,
 609              	.L22:
 528:Drivers/STM32L1xx_HAL_Driver/stm32l1xx_hal_flash_ramfunc.cpp **** }
 610              		.loc 1 528 0
 611 03d8 1846     		mov	r0, r3	@, <retval>
 612 03da 07F10C07 		add	r7, r7, #12	@,,
 613 03de BD46     		mov	sp, r7
 614 03e0 80BC     		pop	{r7}
 615 03e2 7047     		bx	lr
 616              		.cfi_endproc
 617              	.LFE61:
 618              		.size	_ZL29FLASHRAM_WaitForLastOperationm, .-_ZL29FLASHRAM_WaitForLastOperationm
 619              		.text
 620              	.Letext0:
 621              		.file 2 "/home/maciek/gcc-arm-none-eabi/gcc-arm-none-eabi-4_7-2013q1/bin/../lib/gcc/arm-none-eabi/
 622              		.file 3 "Drivers/CMSIS/Include/core_cm3.h"
 623              		.file 4 "Drivers/CMSIS/Device/ST/STM32L1xx/stm32l152xb.h"
 624              		.file 5 "Drivers/CMSIS/Device/ST/STM32L1xx/stm32l1xx.h"
 625              		.file 6 "Drivers/STM32L1xx_HAL_Driver/stm32l1xx_hal_def.h"