ARM GAS  /tmp/ccg3UWOM.s 			page 1


   1              		.syntax unified
   2              		.cpu cortex-m3
   3              		.fpu softvfp
   4              		.eabi_attribute 20, 1	@ Tag_ABI_FP_denormal
   5              		.eabi_attribute 21, 1	@ Tag_ABI_FP_exceptions
   6              		.eabi_attribute 23, 3	@ Tag_ABI_FP_number_model
   7              		.eabi_attribute 24, 1	@ Tag_ABI_align8_needed
   8              		.eabi_attribute 25, 1	@ Tag_ABI_align8_preserved
   9              		.eabi_attribute 26, 1	@ Tag_ABI_enum_size
  10              		.eabi_attribute 30, 6	@ Tag_ABI_optimization_goals
  11              		.eabi_attribute 34, 1	@ Tag_CPU_unaligned_access
  12              		.eabi_attribute 18, 4	@ Tag_ABI_PCS_wchar_t
  13              		.file	"stm32l1xx_hal_dma.cpp"
  14              	@ GNU C++ (GNU Tools for ARM Embedded Processors) version 4.7.3 20130312 (release) [ARM/embedded-4_
  15              	@	compiled by GNU C version 4.3.6, GMP version 4.3.2, MPFR version 2.4.2, MPC version 0.8.1
  16              	@ GGC heuristics: --param ggc-min-expand=100 --param ggc-min-heapsize=131072
  17              	@ options passed:  -I . -I Src -I hdr -I Inc -I Middlewares
  18              	@ -I Middlewares/ST -I Middlewares/ST/STM32_USB_Device_Library/Class/CDC
  19              	@ -I Middlewares/ST/STM32_USB_Device_Library/Core -I Drivers
  20              	@ -I Drivers/CMSIS -I Drivers/CMSIS/Device/ST/STM32L1xx
  21              	@ -I Drivers/CMSIS/Include -I Drivers/STM32L1xx_HAL_Driver
  22              	@ -imultilib armv7-m
  23              	@ -iprefix /home/maciek/gcc-arm-none-eabi/gcc-arm-none-eabi-4_7-2013q1/bin/../lib/gcc/arm-none-eabi
  24              	@ -isysroot /home/maciek/gcc-arm-none-eabi/gcc-arm-none-eabi-4_7-2013q1/bin/../arm-none-eabi
  25              	@ -MD out/stm32l1xx_hal_dma.d -MF out/stm32l1xx_hal_dma.d -MP
  26              	@ -MQ out/stm32l1xx_hal_dma.o -D__USES_INITFINI__ -D STM32L1XX_MD
  27              	@ Drivers/STM32L1xx_HAL_Driver/stm32l1xx_hal_dma.cpp -mcpu=cortex-m3
  28              	@ -mthumb -auxbase-strip out/stm32l1xx_hal_dma.o -g -ggdb3 -O0 -Wall
  29              	@ -Wextra -std=gnu++11 -ffunction-sections -fdata-sections -fno-rtti
  30              	@ -fno-exceptions -fverbose-asm
  31              	@ options enabled:  -fauto-inc-dec -fbranch-count-reg -fcommon
  32              	@ -fdata-sections -fdebug-types-section -fdelete-null-pointer-checks
  33              	@ -fdwarf2-cfi-asm -fearly-inlining -feliminate-unused-debug-types
  34              	@ -ffunction-cse -ffunction-sections -fgcse-lm -fgnu-runtime -fident
  35              	@ -finline-atomics -fira-share-save-slots -fira-share-spill-slots -fivopts
  36              	@ -fkeep-static-consts -fleading-underscore -fmath-errno
  37              	@ -fmerge-debug-strings -fmove-loop-invariants -fpeephole
  38              	@ -fprefetch-loop-arrays -freg-struct-return
  39              	@ -fsched-critical-path-heuristic -fsched-dep-count-heuristic
  40              	@ -fsched-group-heuristic -fsched-interblock -fsched-last-insn-heuristic
  41              	@ -fsched-rank-heuristic -fsched-spec -fsched-spec-insn-heuristic
  42              	@ -fsched-stalled-insns-dep -fshow-column -fsigned-zeros
  43              	@ -fsplit-ivs-in-unroller -fstrict-volatile-bitfields -ftrapping-math
  44              	@ -ftree-cselim -ftree-forwprop -ftree-loop-if-convert -ftree-loop-im
  45              	@ -ftree-loop-ivcanon -ftree-loop-optimize -ftree-parallelize-loops=
  46              	@ -ftree-phiprop -ftree-pta -ftree-reassoc -ftree-scev-cprop
  47              	@ -ftree-slp-vectorize -ftree-vect-loop-version -funit-at-a-time
  48              	@ -fverbose-asm -fzero-initialized-in-bss -mfix-cortex-m3-ldrd
  49              	@ -mlittle-endian -msched-prolog -mthumb -munaligned-access
  50              	@ -mvectorize-with-neon-quad
  51              	
  52              		.text
  53              	.Ltext0:
  54              		.cfi_sections	.debug_frame
  55              		.section	.text.HAL_DMA_Init,"ax",%progbits
  56              		.align	2
  57              		.global	HAL_DMA_Init
ARM GAS  /tmp/ccg3UWOM.s 			page 2


  58              		.thumb
  59              		.thumb_func
  60              		.type	HAL_DMA_Init, %function
  61              	HAL_DMA_Init:
  62              	.LFB56:
  63              		.file 1 "Drivers/STM32L1xx_HAL_Driver/stm32l1xx_hal_dma.cpp"
   1:Drivers/STM32L1xx_HAL_Driver/stm32l1xx_hal_dma.cpp **** /**
   2:Drivers/STM32L1xx_HAL_Driver/stm32l1xx_hal_dma.cpp ****   ******************************************************************************
   3:Drivers/STM32L1xx_HAL_Driver/stm32l1xx_hal_dma.cpp ****   * @file    stm32l1xx_hal_dma.c
   4:Drivers/STM32L1xx_HAL_Driver/stm32l1xx_hal_dma.cpp ****   * @author  MCD Application Team
   5:Drivers/STM32L1xx_HAL_Driver/stm32l1xx_hal_dma.cpp ****   * @version V1.0.0
   6:Drivers/STM32L1xx_HAL_Driver/stm32l1xx_hal_dma.cpp ****   * @date    5-September-2014
   7:Drivers/STM32L1xx_HAL_Driver/stm32l1xx_hal_dma.cpp ****   * @brief   DMA HAL module driver.
   8:Drivers/STM32L1xx_HAL_Driver/stm32l1xx_hal_dma.cpp ****   *    
   9:Drivers/STM32L1xx_HAL_Driver/stm32l1xx_hal_dma.cpp ****   *         This file provides firmware functions to manage the following 
  10:Drivers/STM32L1xx_HAL_Driver/stm32l1xx_hal_dma.cpp ****   *         functionalities of the Direct Memory Access (DMA) peripheral:
  11:Drivers/STM32L1xx_HAL_Driver/stm32l1xx_hal_dma.cpp ****   *           + Initialization and de-initialization functions
  12:Drivers/STM32L1xx_HAL_Driver/stm32l1xx_hal_dma.cpp ****   *           + IO operation functions
  13:Drivers/STM32L1xx_HAL_Driver/stm32l1xx_hal_dma.cpp ****   *           + Peripheral State and errors functions
  14:Drivers/STM32L1xx_HAL_Driver/stm32l1xx_hal_dma.cpp ****   @verbatim     
  15:Drivers/STM32L1xx_HAL_Driver/stm32l1xx_hal_dma.cpp ****   ==============================================================================      
  16:Drivers/STM32L1xx_HAL_Driver/stm32l1xx_hal_dma.cpp ****                         ##### How to use this driver #####
  17:Drivers/STM32L1xx_HAL_Driver/stm32l1xx_hal_dma.cpp ****   ============================================================================== 
  18:Drivers/STM32L1xx_HAL_Driver/stm32l1xx_hal_dma.cpp ****   [..]
  19:Drivers/STM32L1xx_HAL_Driver/stm32l1xx_hal_dma.cpp ****    (#) Enable and configure the peripheral to be connected to the DMA Channel
  20:Drivers/STM32L1xx_HAL_Driver/stm32l1xx_hal_dma.cpp ****        (except for internal SRAM / FLASH memories: no initialization is 
  21:Drivers/STM32L1xx_HAL_Driver/stm32l1xx_hal_dma.cpp ****        necessary) please refer to Reference manual for connection between peripherals
  22:Drivers/STM32L1xx_HAL_Driver/stm32l1xx_hal_dma.cpp ****        and DMA requests .
  23:Drivers/STM32L1xx_HAL_Driver/stm32l1xx_hal_dma.cpp ****           
  24:Drivers/STM32L1xx_HAL_Driver/stm32l1xx_hal_dma.cpp ****    (#) For a given Channel, program the required configuration through the following parameters:   
  25:Drivers/STM32L1xx_HAL_Driver/stm32l1xx_hal_dma.cpp ****        Transfer Direction, Source and Destination data formats, 
  26:Drivers/STM32L1xx_HAL_Driver/stm32l1xx_hal_dma.cpp ****        Circular, Normal or peripheral flow control mode, Channel Priority level, 
  27:Drivers/STM32L1xx_HAL_Driver/stm32l1xx_hal_dma.cpp ****        Source and Destination Increment mode, FIFO mode and its Threshold (if needed), 
  28:Drivers/STM32L1xx_HAL_Driver/stm32l1xx_hal_dma.cpp ****        Burst mode for Source and/or Destination (if needed) using HAL_DMA_Init() function.
  29:Drivers/STM32L1xx_HAL_Driver/stm32l1xx_hal_dma.cpp ****    
  30:Drivers/STM32L1xx_HAL_Driver/stm32l1xx_hal_dma.cpp ****      *** Polling mode IO operation ***
  31:Drivers/STM32L1xx_HAL_Driver/stm32l1xx_hal_dma.cpp ****      =================================   
  32:Drivers/STM32L1xx_HAL_Driver/stm32l1xx_hal_dma.cpp ****     [..] 
  33:Drivers/STM32L1xx_HAL_Driver/stm32l1xx_hal_dma.cpp ****           (+) Use HAL_DMA_Start() to start DMA transfer after the configuration of Source 
  34:Drivers/STM32L1xx_HAL_Driver/stm32l1xx_hal_dma.cpp ****               address and destination address and the Length of data to be transferred
  35:Drivers/STM32L1xx_HAL_Driver/stm32l1xx_hal_dma.cpp ****           (+) Use HAL_DMA_PollForTransfer() to poll for the end of current transfer, in this  
  36:Drivers/STM32L1xx_HAL_Driver/stm32l1xx_hal_dma.cpp ****               case a fixed Timeout can be configured by User depending from his application.
  37:Drivers/STM32L1xx_HAL_Driver/stm32l1xx_hal_dma.cpp ****   
  38:Drivers/STM32L1xx_HAL_Driver/stm32l1xx_hal_dma.cpp ****      *** Interrupt mode IO operation ***    
  39:Drivers/STM32L1xx_HAL_Driver/stm32l1xx_hal_dma.cpp ****      =================================== 
  40:Drivers/STM32L1xx_HAL_Driver/stm32l1xx_hal_dma.cpp ****     [..]     
  41:Drivers/STM32L1xx_HAL_Driver/stm32l1xx_hal_dma.cpp ****           (+) Configure the DMA interrupt priority using HAL_NVIC_SetPriority()
  42:Drivers/STM32L1xx_HAL_Driver/stm32l1xx_hal_dma.cpp ****           (+) Enable the DMA IRQ handler using HAL_NVIC_EnableIRQ() 
  43:Drivers/STM32L1xx_HAL_Driver/stm32l1xx_hal_dma.cpp ****           (+) Use HAL_DMA_Start_IT() to start DMA transfer after the configuration of  
  44:Drivers/STM32L1xx_HAL_Driver/stm32l1xx_hal_dma.cpp ****               Source address and destination address and the Length of data to be transferred. In t
  45:Drivers/STM32L1xx_HAL_Driver/stm32l1xx_hal_dma.cpp ****               case the DMA interrupt is configured 
  46:Drivers/STM32L1xx_HAL_Driver/stm32l1xx_hal_dma.cpp ****           (+) Use HAL_DMA_IRQHandler() called under DMA_IRQHandler() Interrupt subroutine
  47:Drivers/STM32L1xx_HAL_Driver/stm32l1xx_hal_dma.cpp ****           (+) At the end of data transfer HAL_DMA_IRQHandler() function is executed and user can 
  48:Drivers/STM32L1xx_HAL_Driver/stm32l1xx_hal_dma.cpp ****               add his own function by customization of function pointer XferCpltCallback and 
  49:Drivers/STM32L1xx_HAL_Driver/stm32l1xx_hal_dma.cpp ****               XferErrorCallback (i.e a member of DMA handle structure). 
  50:Drivers/STM32L1xx_HAL_Driver/stm32l1xx_hal_dma.cpp ****                 
  51:Drivers/STM32L1xx_HAL_Driver/stm32l1xx_hal_dma.cpp ****      (#) Use HAL_DMA_GetState() function to return the DMA state and HAL_DMA_GetError() in case of 
ARM GAS  /tmp/ccg3UWOM.s 			page 3


  52:Drivers/STM32L1xx_HAL_Driver/stm32l1xx_hal_dma.cpp ****          detection.
  53:Drivers/STM32L1xx_HAL_Driver/stm32l1xx_hal_dma.cpp ****                       
  54:Drivers/STM32L1xx_HAL_Driver/stm32l1xx_hal_dma.cpp ****      (#) Use HAL_DMA_Abort() function to abort the current transfer
  55:Drivers/STM32L1xx_HAL_Driver/stm32l1xx_hal_dma.cpp ****                      
  56:Drivers/STM32L1xx_HAL_Driver/stm32l1xx_hal_dma.cpp ****      -@-   In Memory-to-Memory transfer mode, Circular mode is not allowed.
  57:Drivers/STM32L1xx_HAL_Driver/stm32l1xx_hal_dma.cpp ****                    
  58:Drivers/STM32L1xx_HAL_Driver/stm32l1xx_hal_dma.cpp ****      *** DMA HAL driver macros list ***
  59:Drivers/STM32L1xx_HAL_Driver/stm32l1xx_hal_dma.cpp ****      ============================================= 
  60:Drivers/STM32L1xx_HAL_Driver/stm32l1xx_hal_dma.cpp ****      [..]
  61:Drivers/STM32L1xx_HAL_Driver/stm32l1xx_hal_dma.cpp ****        Below the list of most used macros in DMA HAL driver.
  62:Drivers/STM32L1xx_HAL_Driver/stm32l1xx_hal_dma.cpp ****     
  63:Drivers/STM32L1xx_HAL_Driver/stm32l1xx_hal_dma.cpp ****       (+) __HAL_DMA_ENABLE: Enable the specified DMA Channel.
  64:Drivers/STM32L1xx_HAL_Driver/stm32l1xx_hal_dma.cpp ****       (+) __HAL_DMA_DISABLE: Disable the specified DMA Channel.
  65:Drivers/STM32L1xx_HAL_Driver/stm32l1xx_hal_dma.cpp ****       (+) __HAL_DMA_GET_FLAG: Get the DMA Channel pending flags.
  66:Drivers/STM32L1xx_HAL_Driver/stm32l1xx_hal_dma.cpp ****       (+) __HAL_DMA_CLEAR_FLAG: Clear the DMA Channel pending flags.
  67:Drivers/STM32L1xx_HAL_Driver/stm32l1xx_hal_dma.cpp ****       (+) __HAL_DMA_ENABLE_IT: Enable the specified DMA Channel interrupts.
  68:Drivers/STM32L1xx_HAL_Driver/stm32l1xx_hal_dma.cpp ****       (+) __HAL_DMA_DISABLE_IT: Disable the specified DMA Channel interrupts.
  69:Drivers/STM32L1xx_HAL_Driver/stm32l1xx_hal_dma.cpp ****       (+) __HAL_DMA_GET_IT_SOURCE: Check whether the specified DMA Channel interrupt has occurred o
  70:Drivers/STM32L1xx_HAL_Driver/stm32l1xx_hal_dma.cpp ****       
  71:Drivers/STM32L1xx_HAL_Driver/stm32l1xx_hal_dma.cpp ****      [..] 
  72:Drivers/STM32L1xx_HAL_Driver/stm32l1xx_hal_dma.cpp ****       (@) You can refer to the DMA HAL driver header file for more useful macros  
  73:Drivers/STM32L1xx_HAL_Driver/stm32l1xx_hal_dma.cpp ****   
  74:Drivers/STM32L1xx_HAL_Driver/stm32l1xx_hal_dma.cpp ****   @endverbatim
  75:Drivers/STM32L1xx_HAL_Driver/stm32l1xx_hal_dma.cpp ****   ******************************************************************************
  76:Drivers/STM32L1xx_HAL_Driver/stm32l1xx_hal_dma.cpp ****   * @attention
  77:Drivers/STM32L1xx_HAL_Driver/stm32l1xx_hal_dma.cpp ****   *
  78:Drivers/STM32L1xx_HAL_Driver/stm32l1xx_hal_dma.cpp ****   * <h2><center>&copy; COPYRIGHT(c) 2014 STMicroelectronics</center></h2>
  79:Drivers/STM32L1xx_HAL_Driver/stm32l1xx_hal_dma.cpp ****   *
  80:Drivers/STM32L1xx_HAL_Driver/stm32l1xx_hal_dma.cpp ****   * Redistribution and use in source and binary forms, with or without modification,
  81:Drivers/STM32L1xx_HAL_Driver/stm32l1xx_hal_dma.cpp ****   * are permitted provided that the following conditions are met:
  82:Drivers/STM32L1xx_HAL_Driver/stm32l1xx_hal_dma.cpp ****   *   1. Redistributions of source code must retain the above copyright notice,
  83:Drivers/STM32L1xx_HAL_Driver/stm32l1xx_hal_dma.cpp ****   *      this list of conditions and the following disclaimer.
  84:Drivers/STM32L1xx_HAL_Driver/stm32l1xx_hal_dma.cpp ****   *   2. Redistributions in binary form must reproduce the above copyright notice,
  85:Drivers/STM32L1xx_HAL_Driver/stm32l1xx_hal_dma.cpp ****   *      this list of conditions and the following disclaimer in the documentation
  86:Drivers/STM32L1xx_HAL_Driver/stm32l1xx_hal_dma.cpp ****   *      and/or other materials provided with the distribution.
  87:Drivers/STM32L1xx_HAL_Driver/stm32l1xx_hal_dma.cpp ****   *   3. Neither the name of STMicroelectronics nor the names of its contributors
  88:Drivers/STM32L1xx_HAL_Driver/stm32l1xx_hal_dma.cpp ****   *      may be used to endorse or promote products derived from this software
  89:Drivers/STM32L1xx_HAL_Driver/stm32l1xx_hal_dma.cpp ****   *      without specific prior written permission.
  90:Drivers/STM32L1xx_HAL_Driver/stm32l1xx_hal_dma.cpp ****   *
  91:Drivers/STM32L1xx_HAL_Driver/stm32l1xx_hal_dma.cpp ****   * THIS SOFTWARE IS PROVIDED BY THE COPYRIGHT HOLDERS AND CONTRIBUTORS "AS IS"
  92:Drivers/STM32L1xx_HAL_Driver/stm32l1xx_hal_dma.cpp ****   * AND ANY EXPRESS OR IMPLIED WARRANTIES, INCLUDING, BUT NOT LIMITED TO, THE
  93:Drivers/STM32L1xx_HAL_Driver/stm32l1xx_hal_dma.cpp ****   * IMPLIED WARRANTIES OF MERCHANTABILITY AND FITNESS FOR A PARTICULAR PURPOSE ARE
  94:Drivers/STM32L1xx_HAL_Driver/stm32l1xx_hal_dma.cpp ****   * DISCLAIMED. IN NO EVENT SHALL THE COPYRIGHT HOLDER OR CONTRIBUTORS BE LIABLE
  95:Drivers/STM32L1xx_HAL_Driver/stm32l1xx_hal_dma.cpp ****   * FOR ANY DIRECT, INDIRECT, INCIDENTAL, SPECIAL, EXEMPLARY, OR CONSEQUENTIAL
  96:Drivers/STM32L1xx_HAL_Driver/stm32l1xx_hal_dma.cpp ****   * DAMAGES (INCLUDING, BUT NOT LIMITED TO, PROCUREMENT OF SUBSTITUTE GOODS OR
  97:Drivers/STM32L1xx_HAL_Driver/stm32l1xx_hal_dma.cpp ****   * SERVICES; LOSS OF USE, DATA, OR PROFITS; OR BUSINESS INTERRUPTION) HOWEVER
  98:Drivers/STM32L1xx_HAL_Driver/stm32l1xx_hal_dma.cpp ****   * CAUSED AND ON ANY THEORY OF LIABILITY, WHETHER IN CONTRACT, STRICT LIABILITY,
  99:Drivers/STM32L1xx_HAL_Driver/stm32l1xx_hal_dma.cpp ****   * OR TORT (INCLUDING NEGLIGENCE OR OTHERWISE) ARISING IN ANY WAY OUT OF THE USE
 100:Drivers/STM32L1xx_HAL_Driver/stm32l1xx_hal_dma.cpp ****   * OF THIS SOFTWARE, EVEN IF ADVISED OF THE POSSIBILITY OF SUCH DAMAGE.
 101:Drivers/STM32L1xx_HAL_Driver/stm32l1xx_hal_dma.cpp ****   *
 102:Drivers/STM32L1xx_HAL_Driver/stm32l1xx_hal_dma.cpp ****   ******************************************************************************
 103:Drivers/STM32L1xx_HAL_Driver/stm32l1xx_hal_dma.cpp ****   */ 
 104:Drivers/STM32L1xx_HAL_Driver/stm32l1xx_hal_dma.cpp **** 
 105:Drivers/STM32L1xx_HAL_Driver/stm32l1xx_hal_dma.cpp **** /* Includes ------------------------------------------------------------------*/
 106:Drivers/STM32L1xx_HAL_Driver/stm32l1xx_hal_dma.cpp **** #include "stm32l1xx_hal.h"
 107:Drivers/STM32L1xx_HAL_Driver/stm32l1xx_hal_dma.cpp **** 
 108:Drivers/STM32L1xx_HAL_Driver/stm32l1xx_hal_dma.cpp **** /** @addtogroup STM32L1xx_HAL_Driver
ARM GAS  /tmp/ccg3UWOM.s 			page 4


 109:Drivers/STM32L1xx_HAL_Driver/stm32l1xx_hal_dma.cpp ****   * @{
 110:Drivers/STM32L1xx_HAL_Driver/stm32l1xx_hal_dma.cpp ****   */
 111:Drivers/STM32L1xx_HAL_Driver/stm32l1xx_hal_dma.cpp **** 
 112:Drivers/STM32L1xx_HAL_Driver/stm32l1xx_hal_dma.cpp **** /** @defgroup DMA DMA
 113:Drivers/STM32L1xx_HAL_Driver/stm32l1xx_hal_dma.cpp ****   * @brief DMA HAL module driver
 114:Drivers/STM32L1xx_HAL_Driver/stm32l1xx_hal_dma.cpp ****   * @{
 115:Drivers/STM32L1xx_HAL_Driver/stm32l1xx_hal_dma.cpp ****   */
 116:Drivers/STM32L1xx_HAL_Driver/stm32l1xx_hal_dma.cpp **** 
 117:Drivers/STM32L1xx_HAL_Driver/stm32l1xx_hal_dma.cpp **** #ifdef HAL_DMA_MODULE_ENABLED
 118:Drivers/STM32L1xx_HAL_Driver/stm32l1xx_hal_dma.cpp **** 
 119:Drivers/STM32L1xx_HAL_Driver/stm32l1xx_hal_dma.cpp **** /* Private typedef -----------------------------------------------------------*/
 120:Drivers/STM32L1xx_HAL_Driver/stm32l1xx_hal_dma.cpp **** /* Private define ------------------------------------------------------------*/
 121:Drivers/STM32L1xx_HAL_Driver/stm32l1xx_hal_dma.cpp **** /** @defgroup DMA_Private_Constants DMA Private Constants
 122:Drivers/STM32L1xx_HAL_Driver/stm32l1xx_hal_dma.cpp **** * @{
 123:Drivers/STM32L1xx_HAL_Driver/stm32l1xx_hal_dma.cpp **** */
 124:Drivers/STM32L1xx_HAL_Driver/stm32l1xx_hal_dma.cpp **** #define HAL_TIMEOUT_DMA_ABORT    ((uint32_t)1000)  /* 1s  */
 125:Drivers/STM32L1xx_HAL_Driver/stm32l1xx_hal_dma.cpp **** /**
 126:Drivers/STM32L1xx_HAL_Driver/stm32l1xx_hal_dma.cpp ****   * @}
 127:Drivers/STM32L1xx_HAL_Driver/stm32l1xx_hal_dma.cpp ****   */
 128:Drivers/STM32L1xx_HAL_Driver/stm32l1xx_hal_dma.cpp **** 
 129:Drivers/STM32L1xx_HAL_Driver/stm32l1xx_hal_dma.cpp **** 
 130:Drivers/STM32L1xx_HAL_Driver/stm32l1xx_hal_dma.cpp **** /* Private macro -------------------------------------------------------------*/
 131:Drivers/STM32L1xx_HAL_Driver/stm32l1xx_hal_dma.cpp **** /* Private variables ---------------------------------------------------------*/
 132:Drivers/STM32L1xx_HAL_Driver/stm32l1xx_hal_dma.cpp **** /* Private function prototypes -----------------------------------------------*/
 133:Drivers/STM32L1xx_HAL_Driver/stm32l1xx_hal_dma.cpp **** /** @defgroup DMA_Private_Functions DMA Private Functions
 134:Drivers/STM32L1xx_HAL_Driver/stm32l1xx_hal_dma.cpp **** * @{
 135:Drivers/STM32L1xx_HAL_Driver/stm32l1xx_hal_dma.cpp **** */
 136:Drivers/STM32L1xx_HAL_Driver/stm32l1xx_hal_dma.cpp **** static void DMA_SetConfig(DMA_HandleTypeDef *hdma, uint32_t SrcAddress, uint32_t DstAddress, uint32
 137:Drivers/STM32L1xx_HAL_Driver/stm32l1xx_hal_dma.cpp **** /**
 138:Drivers/STM32L1xx_HAL_Driver/stm32l1xx_hal_dma.cpp ****   * @}
 139:Drivers/STM32L1xx_HAL_Driver/stm32l1xx_hal_dma.cpp ****   */
 140:Drivers/STM32L1xx_HAL_Driver/stm32l1xx_hal_dma.cpp **** 
 141:Drivers/STM32L1xx_HAL_Driver/stm32l1xx_hal_dma.cpp **** /* Private functions ---------------------------------------------------------*/
 142:Drivers/STM32L1xx_HAL_Driver/stm32l1xx_hal_dma.cpp **** 
 143:Drivers/STM32L1xx_HAL_Driver/stm32l1xx_hal_dma.cpp **** /** @defgroup DMA_Exported_Functions DMA Exported Functions
 144:Drivers/STM32L1xx_HAL_Driver/stm32l1xx_hal_dma.cpp ****   * @{
 145:Drivers/STM32L1xx_HAL_Driver/stm32l1xx_hal_dma.cpp ****   */
 146:Drivers/STM32L1xx_HAL_Driver/stm32l1xx_hal_dma.cpp **** 
 147:Drivers/STM32L1xx_HAL_Driver/stm32l1xx_hal_dma.cpp **** /** @defgroup DMA_Group1 Initialization and de-initialization functions
 148:Drivers/STM32L1xx_HAL_Driver/stm32l1xx_hal_dma.cpp ****  *  @brief   Initialization and de-initialization functions 
 149:Drivers/STM32L1xx_HAL_Driver/stm32l1xx_hal_dma.cpp ****  *
 150:Drivers/STM32L1xx_HAL_Driver/stm32l1xx_hal_dma.cpp **** @verbatim   
 151:Drivers/STM32L1xx_HAL_Driver/stm32l1xx_hal_dma.cpp ****  ===============================================================================
 152:Drivers/STM32L1xx_HAL_Driver/stm32l1xx_hal_dma.cpp ****              ##### Initialization and de-initialization functions  #####
 153:Drivers/STM32L1xx_HAL_Driver/stm32l1xx_hal_dma.cpp ****  ===============================================================================  
 154:Drivers/STM32L1xx_HAL_Driver/stm32l1xx_hal_dma.cpp ****     [..]
 155:Drivers/STM32L1xx_HAL_Driver/stm32l1xx_hal_dma.cpp ****     This section provides functions allowing to initialize the DMA Channel source
 156:Drivers/STM32L1xx_HAL_Driver/stm32l1xx_hal_dma.cpp ****     and destination addresses, incrementation and data sizes, transfer direction, 
 157:Drivers/STM32L1xx_HAL_Driver/stm32l1xx_hal_dma.cpp ****     circular/normal mode selection, memory-to-memory mode selection and Channel priority value.
 158:Drivers/STM32L1xx_HAL_Driver/stm32l1xx_hal_dma.cpp ****     [..]
 159:Drivers/STM32L1xx_HAL_Driver/stm32l1xx_hal_dma.cpp ****     The HAL_DMA_Init() function follows the DMA configuration procedures as described in
 160:Drivers/STM32L1xx_HAL_Driver/stm32l1xx_hal_dma.cpp ****     reference manual.  
 161:Drivers/STM32L1xx_HAL_Driver/stm32l1xx_hal_dma.cpp **** 
 162:Drivers/STM32L1xx_HAL_Driver/stm32l1xx_hal_dma.cpp **** @endverbatim
 163:Drivers/STM32L1xx_HAL_Driver/stm32l1xx_hal_dma.cpp ****   * @{
 164:Drivers/STM32L1xx_HAL_Driver/stm32l1xx_hal_dma.cpp ****   */
 165:Drivers/STM32L1xx_HAL_Driver/stm32l1xx_hal_dma.cpp ****   
ARM GAS  /tmp/ccg3UWOM.s 			page 5


 166:Drivers/STM32L1xx_HAL_Driver/stm32l1xx_hal_dma.cpp **** /**
 167:Drivers/STM32L1xx_HAL_Driver/stm32l1xx_hal_dma.cpp ****   * @brief  Initializes the DMA according to the specified
 168:Drivers/STM32L1xx_HAL_Driver/stm32l1xx_hal_dma.cpp ****   *         parameters in the DMA_InitTypeDef and create the associated handle.
 169:Drivers/STM32L1xx_HAL_Driver/stm32l1xx_hal_dma.cpp ****   * @param  hdma: Pointer to a DMA_HandleTypeDef structure that contains
 170:Drivers/STM32L1xx_HAL_Driver/stm32l1xx_hal_dma.cpp ****   *               the configuration information for the specified DMA Channel.  
 171:Drivers/STM32L1xx_HAL_Driver/stm32l1xx_hal_dma.cpp ****   * @retval HAL status
 172:Drivers/STM32L1xx_HAL_Driver/stm32l1xx_hal_dma.cpp ****   */
 173:Drivers/STM32L1xx_HAL_Driver/stm32l1xx_hal_dma.cpp **** HAL_StatusTypeDef HAL_DMA_Init(DMA_HandleTypeDef *hdma)
 174:Drivers/STM32L1xx_HAL_Driver/stm32l1xx_hal_dma.cpp **** { 
  64              		.loc 1 174 0
  65              		.cfi_startproc
  66              		@ args = 0, pretend = 0, frame = 16
  67              		@ frame_needed = 1, uses_anonymous_args = 0
  68              		@ link register save eliminated.
  69 0000 80B4     		push	{r7}	@
  70              	.LCFI0:
  71              		.cfi_def_cfa_offset 4
  72              		.cfi_offset 7, -4
  73 0002 85B0     		sub	sp, sp, #20	@,,
  74              	.LCFI1:
  75              		.cfi_def_cfa_offset 24
  76 0004 00AF     		add	r7, sp, #0	@,,
  77              	.LCFI2:
  78              		.cfi_def_cfa_register 7
  79 0006 7860     		str	r0, [r7, #4]	@ hdma, hdma
  80              	.LBB2:
 175:Drivers/STM32L1xx_HAL_Driver/stm32l1xx_hal_dma.cpp ****   uint32_t tmp = 0;
  81              		.loc 1 175 0
  82 0008 4FF00003 		mov	r3, #0	@ tmp151,
  83 000c FB60     		str	r3, [r7, #12]	@ tmp151, tmp
 176:Drivers/STM32L1xx_HAL_Driver/stm32l1xx_hal_dma.cpp ****   
 177:Drivers/STM32L1xx_HAL_Driver/stm32l1xx_hal_dma.cpp ****   /* Check the DMA peripheral state */
 178:Drivers/STM32L1xx_HAL_Driver/stm32l1xx_hal_dma.cpp ****   if(hdma == NULL)
  84              		.loc 1 178 0
  85 000e 7B68     		ldr	r3, [r7, #4]	@ tmp152, hdma
  86 0010 002B     		cmp	r3, #0	@ tmp152,
  87 0012 02D1     		bne	.L2	@,
 179:Drivers/STM32L1xx_HAL_Driver/stm32l1xx_hal_dma.cpp ****   {
 180:Drivers/STM32L1xx_HAL_Driver/stm32l1xx_hal_dma.cpp ****     return HAL_ERROR;
  88              		.loc 1 180 0
  89 0014 4FF00103 		mov	r3, #1	@ D.6668,
  90 0018 34E0     		b	.L3	@
  91              	.L2:
 181:Drivers/STM32L1xx_HAL_Driver/stm32l1xx_hal_dma.cpp ****   }
 182:Drivers/STM32L1xx_HAL_Driver/stm32l1xx_hal_dma.cpp ****   
 183:Drivers/STM32L1xx_HAL_Driver/stm32l1xx_hal_dma.cpp ****   /* Check the parameters */
 184:Drivers/STM32L1xx_HAL_Driver/stm32l1xx_hal_dma.cpp ****   assert_param(IS_DMA_ALL_INSTANCE(hdma->Instance));
 185:Drivers/STM32L1xx_HAL_Driver/stm32l1xx_hal_dma.cpp ****   assert_param(IS_DMA_DIRECTION(hdma->Init.Direction));
 186:Drivers/STM32L1xx_HAL_Driver/stm32l1xx_hal_dma.cpp ****   assert_param(IS_DMA_PERIPHERAL_INC_STATE(hdma->Init.PeriphInc));
 187:Drivers/STM32L1xx_HAL_Driver/stm32l1xx_hal_dma.cpp ****   assert_param(IS_DMA_MEMORY_INC_STATE(hdma->Init.MemInc));
 188:Drivers/STM32L1xx_HAL_Driver/stm32l1xx_hal_dma.cpp ****   assert_param(IS_DMA_PERIPHERAL_DATA_SIZE(hdma->Init.PeriphDataAlignment));
 189:Drivers/STM32L1xx_HAL_Driver/stm32l1xx_hal_dma.cpp ****   assert_param(IS_DMA_MEMORY_DATA_SIZE(hdma->Init.MemDataAlignment));
 190:Drivers/STM32L1xx_HAL_Driver/stm32l1xx_hal_dma.cpp ****   assert_param(IS_DMA_MODE(hdma->Init.Mode));
 191:Drivers/STM32L1xx_HAL_Driver/stm32l1xx_hal_dma.cpp ****   assert_param(IS_DMA_PRIORITY(hdma->Init.Priority));
 192:Drivers/STM32L1xx_HAL_Driver/stm32l1xx_hal_dma.cpp ****   
 193:Drivers/STM32L1xx_HAL_Driver/stm32l1xx_hal_dma.cpp ****   /* Change DMA peripheral state */
 194:Drivers/STM32L1xx_HAL_Driver/stm32l1xx_hal_dma.cpp ****   hdma->State = HAL_DMA_STATE_BUSY;
ARM GAS  /tmp/ccg3UWOM.s 			page 6


  92              		.loc 1 194 0
  93 001a 7B68     		ldr	r3, [r7, #4]	@ tmp153, hdma
  94 001c 4FF00202 		mov	r2, #2	@ tmp154,
  95 0020 83F82120 		strb	r2, [r3, #33]	@ tmp155, hdma_3(D)->State
 195:Drivers/STM32L1xx_HAL_Driver/stm32l1xx_hal_dma.cpp **** 
 196:Drivers/STM32L1xx_HAL_Driver/stm32l1xx_hal_dma.cpp ****   /* Get the CR register value */
 197:Drivers/STM32L1xx_HAL_Driver/stm32l1xx_hal_dma.cpp ****   tmp = hdma->Instance->CCR;
  96              		.loc 1 197 0
  97 0024 7B68     		ldr	r3, [r7, #4]	@ tmp156, hdma
  98 0026 1B68     		ldr	r3, [r3, #0]	@ D.6669, hdma_3(D)->Instance
  99 0028 1B68     		ldr	r3, [r3, #0]	@ tmp157, D.6669_5->CCR
 100 002a FB60     		str	r3, [r7, #12]	@ tmp157, tmp
 198:Drivers/STM32L1xx_HAL_Driver/stm32l1xx_hal_dma.cpp ****   
 199:Drivers/STM32L1xx_HAL_Driver/stm32l1xx_hal_dma.cpp ****   /* Clear PL, MSIZE, PSIZE, MINC, PINC, CIRC, DIR bits */
 200:Drivers/STM32L1xx_HAL_Driver/stm32l1xx_hal_dma.cpp ****   tmp &= ((uint32_t)~(DMA_CCR_PL    | DMA_CCR_MSIZE  | DMA_CCR_PSIZE  | \
 201:Drivers/STM32L1xx_HAL_Driver/stm32l1xx_hal_dma.cpp ****                       DMA_CCR_MINC  | DMA_CCR_PINC   | DMA_CCR_CIRC   | \
 202:Drivers/STM32L1xx_HAL_Driver/stm32l1xx_hal_dma.cpp ****                       DMA_CCR_DIR));
 101              		.loc 1 202 0
 102 002c FB68     		ldr	r3, [r7, #12]	@ tmp159, tmp
 103 002e 23F47F53 		bic	r3, r3, #16320	@ tmp158, tmp159,
 104 0032 23F03003 		bic	r3, r3, #48	@ tmp158, tmp158,
 105 0036 FB60     		str	r3, [r7, #12]	@ tmp158, tmp
 203:Drivers/STM32L1xx_HAL_Driver/stm32l1xx_hal_dma.cpp ****   
 204:Drivers/STM32L1xx_HAL_Driver/stm32l1xx_hal_dma.cpp ****   /* Prepare the DMA Channel configuration */
 205:Drivers/STM32L1xx_HAL_Driver/stm32l1xx_hal_dma.cpp ****   tmp |=  hdma->Init.Direction        |
 206:Drivers/STM32L1xx_HAL_Driver/stm32l1xx_hal_dma.cpp ****           hdma->Init.PeriphInc           | hdma->Init.MemInc           |
 207:Drivers/STM32L1xx_HAL_Driver/stm32l1xx_hal_dma.cpp ****           hdma->Init.PeriphDataAlignment | hdma->Init.MemDataAlignment |
 208:Drivers/STM32L1xx_HAL_Driver/stm32l1xx_hal_dma.cpp ****           hdma->Init.Mode                | hdma->Init.Priority;
 106              		.loc 1 208 0
 107 0038 7B68     		ldr	r3, [r7, #4]	@ tmp160, hdma
 108 003a 5A68     		ldr	r2, [r3, #4]	@ D.6670, hdma_3(D)->Init.Direction
 109 003c 7B68     		ldr	r3, [r7, #4]	@ tmp161, hdma
 110 003e 9B68     		ldr	r3, [r3, #8]	@ D.6671, hdma_3(D)->Init.PeriphInc
 111 0040 1A43     		orrs	r2, r2, r3	@, D.6672, D.6670, D.6671
 112 0042 7B68     		ldr	r3, [r7, #4]	@ tmp162, hdma
 113 0044 DB68     		ldr	r3, [r3, #12]	@ D.6673, hdma_3(D)->Init.MemInc
 114 0046 1A43     		orrs	r2, r2, r3	@, D.6674, D.6672, D.6673
 115 0048 7B68     		ldr	r3, [r7, #4]	@ tmp163, hdma
 116 004a 1B69     		ldr	r3, [r3, #16]	@ D.6675, hdma_3(D)->Init.PeriphDataAlignment
 117 004c 1A43     		orrs	r2, r2, r3	@, D.6676, D.6674, D.6675
 118 004e 7B68     		ldr	r3, [r7, #4]	@ tmp164, hdma
 119 0050 5B69     		ldr	r3, [r3, #20]	@ D.6677, hdma_3(D)->Init.MemDataAlignment
 120 0052 1A43     		orrs	r2, r2, r3	@, D.6678, D.6676, D.6677
 121 0054 7B68     		ldr	r3, [r7, #4]	@ tmp165, hdma
 122 0056 9B69     		ldr	r3, [r3, #24]	@ D.6679, hdma_3(D)->Init.Mode
 123 0058 1A43     		orrs	r2, r2, r3	@, D.6680, D.6678, D.6679
 124 005a 7B68     		ldr	r3, [r7, #4]	@ tmp166, hdma
 125 005c DB69     		ldr	r3, [r3, #28]	@ D.6681, hdma_3(D)->Init.Priority
 126 005e 1343     		orrs	r3, r3, r2	@, D.6682, D.6681, D.6680
 127 0060 FA68     		ldr	r2, [r7, #12]	@ tmp168, tmp
 128 0062 1343     		orrs	r3, r3, r2	@, tmp167, D.6682, tmp168
 129 0064 FB60     		str	r3, [r7, #12]	@ tmp167, tmp
 209:Drivers/STM32L1xx_HAL_Driver/stm32l1xx_hal_dma.cpp **** 
 210:Drivers/STM32L1xx_HAL_Driver/stm32l1xx_hal_dma.cpp ****   /* Write to DMA Channel CR register */
 211:Drivers/STM32L1xx_HAL_Driver/stm32l1xx_hal_dma.cpp ****   hdma->Instance->CCR = tmp;  
 130              		.loc 1 211 0
 131 0066 7B68     		ldr	r3, [r7, #4]	@ tmp169, hdma
ARM GAS  /tmp/ccg3UWOM.s 			page 7


 132 0068 1B68     		ldr	r3, [r3, #0]	@ D.6683, hdma_3(D)->Instance
 133 006a FA68     		ldr	r2, [r7, #12]	@ tmp170, tmp
 134 006c 1A60     		str	r2, [r3, #0]	@ tmp170, D.6683_22->CCR
 212:Drivers/STM32L1xx_HAL_Driver/stm32l1xx_hal_dma.cpp ****   
 213:Drivers/STM32L1xx_HAL_Driver/stm32l1xx_hal_dma.cpp ****   /* Initialise the error code */
 214:Drivers/STM32L1xx_HAL_Driver/stm32l1xx_hal_dma.cpp ****   hdma->ErrorCode = HAL_DMA_ERROR_NONE;
 135              		.loc 1 214 0
 136 006e 7B68     		ldr	r3, [r7, #4]	@ tmp171, hdma
 137 0070 4FF00002 		mov	r2, #0	@ tmp172,
 138 0074 5A63     		str	r2, [r3, #52]	@ tmp172, hdma_3(D)->ErrorCode
 215:Drivers/STM32L1xx_HAL_Driver/stm32l1xx_hal_dma.cpp **** 
 216:Drivers/STM32L1xx_HAL_Driver/stm32l1xx_hal_dma.cpp ****   /* Initialize the DMA state*/
 217:Drivers/STM32L1xx_HAL_Driver/stm32l1xx_hal_dma.cpp ****   hdma->State  = HAL_DMA_STATE_READY;
 139              		.loc 1 217 0
 140 0076 7B68     		ldr	r3, [r7, #4]	@ tmp173, hdma
 141 0078 4FF00102 		mov	r2, #1	@ tmp174,
 142 007c 83F82120 		strb	r2, [r3, #33]	@ tmp175, hdma_3(D)->State
 218:Drivers/STM32L1xx_HAL_Driver/stm32l1xx_hal_dma.cpp ****   
 219:Drivers/STM32L1xx_HAL_Driver/stm32l1xx_hal_dma.cpp ****   return HAL_OK;
 143              		.loc 1 219 0
 144 0080 4FF00003 		mov	r3, #0	@ D.6668,
 145              	.L3:
 146              	.LBE2:
 220:Drivers/STM32L1xx_HAL_Driver/stm32l1xx_hal_dma.cpp **** }  
 147              		.loc 1 220 0
 148 0084 1846     		mov	r0, r3	@, <retval>
 149 0086 07F11407 		add	r7, r7, #20	@,,
 150 008a BD46     		mov	sp, r7
 151 008c 80BC     		pop	{r7}
 152 008e 7047     		bx	lr
 153              		.cfi_endproc
 154              	.LFE56:
 155              		.size	HAL_DMA_Init, .-HAL_DMA_Init
 156              		.section	.text.HAL_DMA_DeInit,"ax",%progbits
 157              		.align	2
 158              		.global	HAL_DMA_DeInit
 159              		.thumb
 160              		.thumb_func
 161              		.type	HAL_DMA_DeInit, %function
 162              	HAL_DMA_DeInit:
 163              	.LFB57:
 221:Drivers/STM32L1xx_HAL_Driver/stm32l1xx_hal_dma.cpp ****   
 222:Drivers/STM32L1xx_HAL_Driver/stm32l1xx_hal_dma.cpp **** /**
 223:Drivers/STM32L1xx_HAL_Driver/stm32l1xx_hal_dma.cpp ****   * @brief  DeInitializes the DMA peripheral 
 224:Drivers/STM32L1xx_HAL_Driver/stm32l1xx_hal_dma.cpp ****   * @param  hdma: pointer to a DMA_HandleTypeDef structure that contains
 225:Drivers/STM32L1xx_HAL_Driver/stm32l1xx_hal_dma.cpp ****   *               the configuration information for the specified DMA Channel.  
 226:Drivers/STM32L1xx_HAL_Driver/stm32l1xx_hal_dma.cpp ****   * @retval HAL status
 227:Drivers/STM32L1xx_HAL_Driver/stm32l1xx_hal_dma.cpp ****   */
 228:Drivers/STM32L1xx_HAL_Driver/stm32l1xx_hal_dma.cpp **** HAL_StatusTypeDef HAL_DMA_DeInit(DMA_HandleTypeDef *hdma)
 229:Drivers/STM32L1xx_HAL_Driver/stm32l1xx_hal_dma.cpp **** {
 164              		.loc 1 229 0
 165              		.cfi_startproc
 166              		@ args = 0, pretend = 0, frame = 8
 167              		@ frame_needed = 1, uses_anonymous_args = 0
 168              		@ link register save eliminated.
 169 0000 80B4     		push	{r7}	@
 170              	.LCFI3:
ARM GAS  /tmp/ccg3UWOM.s 			page 8


 171              		.cfi_def_cfa_offset 4
 172              		.cfi_offset 7, -4
 173 0002 83B0     		sub	sp, sp, #12	@,,
 174              	.LCFI4:
 175              		.cfi_def_cfa_offset 16
 176 0004 00AF     		add	r7, sp, #0	@,,
 177              	.LCFI5:
 178              		.cfi_def_cfa_register 7
 179 0006 7860     		str	r0, [r7, #4]	@ hdma, hdma
 230:Drivers/STM32L1xx_HAL_Driver/stm32l1xx_hal_dma.cpp ****   /* Check the DMA peripheral state */
 231:Drivers/STM32L1xx_HAL_Driver/stm32l1xx_hal_dma.cpp ****   if(hdma == NULL)
 180              		.loc 1 231 0
 181 0008 7B68     		ldr	r3, [r7, #4]	@ tmp202, hdma
 182 000a 002B     		cmp	r3, #0	@ tmp202,
 183 000c 02D1     		bne	.L5	@,
 232:Drivers/STM32L1xx_HAL_Driver/stm32l1xx_hal_dma.cpp ****   {
 233:Drivers/STM32L1xx_HAL_Driver/stm32l1xx_hal_dma.cpp ****     return HAL_ERROR;
 184              		.loc 1 233 0
 185 000e 4FF00103 		mov	r3, #1	@ D.6540,
 186 0012 20E1     		b	.L6	@
 187              	.L5:
 234:Drivers/STM32L1xx_HAL_Driver/stm32l1xx_hal_dma.cpp ****   }
 235:Drivers/STM32L1xx_HAL_Driver/stm32l1xx_hal_dma.cpp ****   
 236:Drivers/STM32L1xx_HAL_Driver/stm32l1xx_hal_dma.cpp ****   /* Check the DMA peripheral handle */
 237:Drivers/STM32L1xx_HAL_Driver/stm32l1xx_hal_dma.cpp ****   if(hdma->State == HAL_DMA_STATE_BUSY)
 188              		.loc 1 237 0
 189 0014 7B68     		ldr	r3, [r7, #4]	@ tmp203, hdma
 190 0016 93F82130 		ldrb	r3, [r3, #33]	@ zero_extendqisi2	@ D.6541, hdma_20(D)->State
 191 001a 022B     		cmp	r3, #2	@ D.6541,
 192 001c 02D1     		bne	.L7	@,
 238:Drivers/STM32L1xx_HAL_Driver/stm32l1xx_hal_dma.cpp ****   {
 239:Drivers/STM32L1xx_HAL_Driver/stm32l1xx_hal_dma.cpp ****      return HAL_ERROR;
 193              		.loc 1 239 0
 194 001e 4FF00103 		mov	r3, #1	@ D.6540,
 195 0022 18E1     		b	.L6	@
 196              	.L7:
 240:Drivers/STM32L1xx_HAL_Driver/stm32l1xx_hal_dma.cpp ****   }
 241:Drivers/STM32L1xx_HAL_Driver/stm32l1xx_hal_dma.cpp **** 
 242:Drivers/STM32L1xx_HAL_Driver/stm32l1xx_hal_dma.cpp ****   /* Disable the selected DMA Channelx */
 243:Drivers/STM32L1xx_HAL_Driver/stm32l1xx_hal_dma.cpp ****   __HAL_DMA_DISABLE(hdma);
 197              		.loc 1 243 0
 198 0024 7B68     		ldr	r3, [r7, #4]	@ tmp204, hdma
 199 0026 1B68     		ldr	r3, [r3, #0]	@ D.6544, hdma_20(D)->Instance
 200 0028 7A68     		ldr	r2, [r7, #4]	@ tmp205, hdma
 201 002a 1268     		ldr	r2, [r2, #0]	@ D.6545, hdma_20(D)->Instance
 202 002c 1268     		ldr	r2, [r2, #0]	@ D.6546, D.6545_25->CCR
 203 002e 22F00102 		bic	r2, r2, #1	@ D.6547, D.6546,
 204 0032 1A60     		str	r2, [r3, #0]	@ D.6547, D.6544_24->CCR
 244:Drivers/STM32L1xx_HAL_Driver/stm32l1xx_hal_dma.cpp ****   
 245:Drivers/STM32L1xx_HAL_Driver/stm32l1xx_hal_dma.cpp ****   /* Reset DMA Channel control register */
 246:Drivers/STM32L1xx_HAL_Driver/stm32l1xx_hal_dma.cpp ****   hdma->Instance->CCR  = 0;
 205              		.loc 1 246 0
 206 0034 7B68     		ldr	r3, [r7, #4]	@ tmp206, hdma
 207 0036 1B68     		ldr	r3, [r3, #0]	@ D.6548, hdma_20(D)->Instance
 208 0038 4FF00002 		mov	r2, #0	@ tmp207,
 209 003c 1A60     		str	r2, [r3, #0]	@ tmp207, D.6548_28->CCR
 247:Drivers/STM32L1xx_HAL_Driver/stm32l1xx_hal_dma.cpp ****   
ARM GAS  /tmp/ccg3UWOM.s 			page 9


 248:Drivers/STM32L1xx_HAL_Driver/stm32l1xx_hal_dma.cpp ****   /* Reset DMA Channel Number of Data to Transfer register */
 249:Drivers/STM32L1xx_HAL_Driver/stm32l1xx_hal_dma.cpp ****   hdma->Instance->CNDTR = 0;
 210              		.loc 1 249 0
 211 003e 7B68     		ldr	r3, [r7, #4]	@ tmp208, hdma
 212 0040 1B68     		ldr	r3, [r3, #0]	@ D.6549, hdma_20(D)->Instance
 213 0042 4FF00002 		mov	r2, #0	@ tmp209,
 214 0046 5A60     		str	r2, [r3, #4]	@ tmp209, D.6549_29->CNDTR
 250:Drivers/STM32L1xx_HAL_Driver/stm32l1xx_hal_dma.cpp ****   
 251:Drivers/STM32L1xx_HAL_Driver/stm32l1xx_hal_dma.cpp ****   /* Reset DMA Channel peripheral address register */
 252:Drivers/STM32L1xx_HAL_Driver/stm32l1xx_hal_dma.cpp ****   hdma->Instance->CPAR  = 0;
 215              		.loc 1 252 0
 216 0048 7B68     		ldr	r3, [r7, #4]	@ tmp210, hdma
 217 004a 1B68     		ldr	r3, [r3, #0]	@ D.6550, hdma_20(D)->Instance
 218 004c 4FF00002 		mov	r2, #0	@ tmp211,
 219 0050 9A60     		str	r2, [r3, #8]	@ tmp211, D.6550_30->CPAR
 253:Drivers/STM32L1xx_HAL_Driver/stm32l1xx_hal_dma.cpp ****   
 254:Drivers/STM32L1xx_HAL_Driver/stm32l1xx_hal_dma.cpp ****   /* Reset DMA Channel memory address register */
 255:Drivers/STM32L1xx_HAL_Driver/stm32l1xx_hal_dma.cpp ****   hdma->Instance->CMAR = 0;
 220              		.loc 1 255 0
 221 0052 7B68     		ldr	r3, [r7, #4]	@ tmp212, hdma
 222 0054 1B68     		ldr	r3, [r3, #0]	@ D.6551, hdma_20(D)->Instance
 223 0056 4FF00002 		mov	r2, #0	@ tmp213,
 224 005a DA60     		str	r2, [r3, #12]	@ tmp213, D.6551_31->CMAR
 256:Drivers/STM32L1xx_HAL_Driver/stm32l1xx_hal_dma.cpp **** 
 257:Drivers/STM32L1xx_HAL_Driver/stm32l1xx_hal_dma.cpp ****   /* Clear all flags */
 258:Drivers/STM32L1xx_HAL_Driver/stm32l1xx_hal_dma.cpp ****   __HAL_DMA_CLEAR_FLAG(hdma, __HAL_DMA_GET_TC_FLAG_INDEX(hdma));
 225              		.loc 1 258 0
 226 005c 4FF4C043 		mov	r3, #24576	@ D.6552,
 227 0060 C4F20203 		movt	r3, 16386	@ D.6552,
 228 0064 7A68     		ldr	r2, [r7, #4]	@ tmp214, hdma
 229 0066 1268     		ldr	r2, [r2, #0]	@ D.6554, hdma_20(D)->Instance
 230 0068 1146     		mov	r1, r2	@ D.6555, D.6554
 231 006a 46F20802 		movw	r2, #24584	@ tmp215,
 232 006e C4F20202 		movt	r2, 16386	@ tmp215,
 233 0072 9142     		cmp	r1, r2	@ D.6555, tmp215
 234 0074 3ED0     		beq	.L8	@,
 235              		.loc 1 258 0 is_stmt 0 discriminator 1
 236 0076 7A68     		ldr	r2, [r7, #4]	@ tmp216, hdma
 237 0078 1268     		ldr	r2, [r2, #0]	@ D.6559, hdma_20(D)->Instance
 238 007a 1146     		mov	r1, r2	@ D.6560, D.6559
 239 007c 46F21C02 		movw	r2, #24604	@ tmp217,
 240 0080 C4F20202 		movt	r2, 16386	@ tmp217,
 241 0084 9142     		cmp	r1, r2	@ D.6560, tmp217
 242 0086 32D0     		beq	.L9	@,
 243              		.loc 1 258 0 discriminator 3
 244 0088 7A68     		ldr	r2, [r7, #4]	@ tmp218, hdma
 245 008a 1268     		ldr	r2, [r2, #0]	@ D.6564, hdma_20(D)->Instance
 246 008c 1146     		mov	r1, r2	@ D.6565, D.6564
 247 008e 46F23002 		movw	r2, #24624	@ tmp219,
 248 0092 C4F20202 		movt	r2, 16386	@ tmp219,
 249 0096 9142     		cmp	r1, r2	@ D.6565, tmp219
 250 0098 26D0     		beq	.L10	@,
 251              		.loc 1 258 0 discriminator 5
 252 009a 7A68     		ldr	r2, [r7, #4]	@ tmp220, hdma
 253 009c 1268     		ldr	r2, [r2, #0]	@ D.6569, hdma_20(D)->Instance
 254 009e 1146     		mov	r1, r2	@ D.6570, D.6569
 255 00a0 46F24402 		movw	r2, #24644	@ tmp221,
ARM GAS  /tmp/ccg3UWOM.s 			page 10


 256 00a4 C4F20202 		movt	r2, 16386	@ tmp221,
 257 00a8 9142     		cmp	r1, r2	@ D.6570, tmp221
 258 00aa 1AD0     		beq	.L11	@,
 259              		.loc 1 258 0 discriminator 7
 260 00ac 7A68     		ldr	r2, [r7, #4]	@ tmp222, hdma
 261 00ae 1268     		ldr	r2, [r2, #0]	@ D.6574, hdma_20(D)->Instance
 262 00b0 1146     		mov	r1, r2	@ D.6575, D.6574
 263 00b2 46F25802 		movw	r2, #24664	@ tmp223,
 264 00b6 C4F20202 		movt	r2, 16386	@ tmp223,
 265 00ba 9142     		cmp	r1, r2	@ D.6575, tmp223
 266 00bc 0ED0     		beq	.L12	@,
 267              		.loc 1 258 0 discriminator 9
 268 00be 7A68     		ldr	r2, [r7, #4]	@ tmp224, hdma
 269 00c0 1268     		ldr	r2, [r2, #0]	@ D.6579, hdma_20(D)->Instance
 270 00c2 1146     		mov	r1, r2	@ D.6580, D.6579
 271 00c4 46F26C02 		movw	r2, #24684	@ tmp225,
 272 00c8 C4F20202 		movt	r2, 16386	@ tmp225,
 273 00cc 9142     		cmp	r1, r2	@ D.6580, tmp225
 274 00ce 02D1     		bne	.L13	@,
 275              		.loc 1 258 0 discriminator 11
 276 00d0 4FF40012 		mov	r2, #2097152	@ iftmp.91,
 277 00d4 01E0     		b	.L14	@
 278              	.L13:
 279              		.loc 1 258 0 discriminator 12
 280 00d6 4FF00072 		mov	r2, #33554432	@ iftmp.91,
 281              	.L14:
 282 00da 01E0     		b	.L15	@
 283              	.L12:
 284              		.loc 1 258 0 discriminator 10
 285 00dc 4FF40032 		mov	r2, #131072	@ iftmp.90,
 286              	.L15:
 287 00e0 01E0     		b	.L16	@
 288              	.L11:
 289              		.loc 1 258 0 discriminator 8
 290 00e2 4FF40052 		mov	r2, #8192	@ iftmp.89,
 291              	.L16:
 292 00e6 01E0     		b	.L17	@
 293              	.L10:
 294              		.loc 1 258 0 discriminator 6
 295 00e8 4FF40072 		mov	r2, #512	@ iftmp.88,
 296              	.L17:
 297 00ec 01E0     		b	.L18	@
 298              	.L9:
 299              		.loc 1 258 0 discriminator 4
 300 00ee 4FF02002 		mov	r2, #32	@ iftmp.87,
 301              	.L18:
 302 00f2 01E0     		b	.L19	@
 303              	.L8:
 304              		.loc 1 258 0 discriminator 2
 305 00f4 4FF00202 		mov	r2, #2	@ iftmp.86,
 306              	.L19:
 307              		.loc 1 258 0 discriminator 18
 308 00f8 5A60     		str	r2, [r3, #4]	@ iftmp.86, D.6552_32->IFCR
 259:Drivers/STM32L1xx_HAL_Driver/stm32l1xx_hal_dma.cpp ****   __HAL_DMA_CLEAR_FLAG(hdma, __HAL_DMA_GET_TE_FLAG_INDEX(hdma));
 309              		.loc 1 259 0 is_stmt 1 discriminator 18
 310 00fa 4FF4C043 		mov	r3, #24576	@ D.6589,
 311 00fe C4F20203 		movt	r3, 16386	@ D.6589,
ARM GAS  /tmp/ccg3UWOM.s 			page 11


 312 0102 7A68     		ldr	r2, [r7, #4]	@ tmp226, hdma
 313 0104 1268     		ldr	r2, [r2, #0]	@ D.6591, hdma_20(D)->Instance
 314 0106 1146     		mov	r1, r2	@ D.6592, D.6591
 315 0108 46F20802 		movw	r2, #24584	@ tmp227,
 316 010c C4F20202 		movt	r2, 16386	@ tmp227,
 317 0110 9142     		cmp	r1, r2	@ D.6592, tmp227
 318 0112 3ED0     		beq	.L20	@,
 319              		.loc 1 259 0 is_stmt 0 discriminator 1
 320 0114 7A68     		ldr	r2, [r7, #4]	@ tmp228, hdma
 321 0116 1268     		ldr	r2, [r2, #0]	@ D.6596, hdma_20(D)->Instance
 322 0118 1146     		mov	r1, r2	@ D.6597, D.6596
 323 011a 46F21C02 		movw	r2, #24604	@ tmp229,
 324 011e C4F20202 		movt	r2, 16386	@ tmp229,
 325 0122 9142     		cmp	r1, r2	@ D.6597, tmp229
 326 0124 32D0     		beq	.L21	@,
 327              		.loc 1 259 0 discriminator 3
 328 0126 7A68     		ldr	r2, [r7, #4]	@ tmp230, hdma
 329 0128 1268     		ldr	r2, [r2, #0]	@ D.6601, hdma_20(D)->Instance
 330 012a 1146     		mov	r1, r2	@ D.6602, D.6601
 331 012c 46F23002 		movw	r2, #24624	@ tmp231,
 332 0130 C4F20202 		movt	r2, 16386	@ tmp231,
 333 0134 9142     		cmp	r1, r2	@ D.6602, tmp231
 334 0136 26D0     		beq	.L22	@,
 335              		.loc 1 259 0 discriminator 5
 336 0138 7A68     		ldr	r2, [r7, #4]	@ tmp232, hdma
 337 013a 1268     		ldr	r2, [r2, #0]	@ D.6606, hdma_20(D)->Instance
 338 013c 1146     		mov	r1, r2	@ D.6607, D.6606
 339 013e 46F24402 		movw	r2, #24644	@ tmp233,
 340 0142 C4F20202 		movt	r2, 16386	@ tmp233,
 341 0146 9142     		cmp	r1, r2	@ D.6607, tmp233
 342 0148 1AD0     		beq	.L23	@,
 343              		.loc 1 259 0 discriminator 7
 344 014a 7A68     		ldr	r2, [r7, #4]	@ tmp234, hdma
 345 014c 1268     		ldr	r2, [r2, #0]	@ D.6611, hdma_20(D)->Instance
 346 014e 1146     		mov	r1, r2	@ D.6612, D.6611
 347 0150 46F25802 		movw	r2, #24664	@ tmp235,
 348 0154 C4F20202 		movt	r2, 16386	@ tmp235,
 349 0158 9142     		cmp	r1, r2	@ D.6612, tmp235
 350 015a 0ED0     		beq	.L24	@,
 351              		.loc 1 259 0 discriminator 9
 352 015c 7A68     		ldr	r2, [r7, #4]	@ tmp236, hdma
 353 015e 1268     		ldr	r2, [r2, #0]	@ D.6616, hdma_20(D)->Instance
 354 0160 1146     		mov	r1, r2	@ D.6617, D.6616
 355 0162 46F26C02 		movw	r2, #24684	@ tmp237,
 356 0166 C4F20202 		movt	r2, 16386	@ tmp237,
 357 016a 9142     		cmp	r1, r2	@ D.6617, tmp237
 358 016c 02D1     		bne	.L25	@,
 359              		.loc 1 259 0 discriminator 11
 360 016e 4FF40002 		mov	r2, #8388608	@ iftmp.97,
 361 0172 01E0     		b	.L26	@
 362              	.L25:
 363              		.loc 1 259 0 discriminator 12
 364 0174 4FF00062 		mov	r2, #134217728	@ iftmp.97,
 365              	.L26:
 366 0178 01E0     		b	.L27	@
 367              	.L24:
 368              		.loc 1 259 0 discriminator 10
ARM GAS  /tmp/ccg3UWOM.s 			page 12


 369 017a 4FF40022 		mov	r2, #524288	@ iftmp.96,
 370              	.L27:
 371 017e 01E0     		b	.L28	@
 372              	.L23:
 373              		.loc 1 259 0 discriminator 8
 374 0180 4FF40042 		mov	r2, #32768	@ iftmp.95,
 375              	.L28:
 376 0184 01E0     		b	.L29	@
 377              	.L22:
 378              		.loc 1 259 0 discriminator 6
 379 0186 4FF40062 		mov	r2, #2048	@ iftmp.94,
 380              	.L29:
 381 018a 01E0     		b	.L30	@
 382              	.L21:
 383              		.loc 1 259 0 discriminator 4
 384 018c 4FF08002 		mov	r2, #128	@ iftmp.93,
 385              	.L30:
 386 0190 01E0     		b	.L31	@
 387              	.L20:
 388              		.loc 1 259 0 discriminator 2
 389 0192 4FF00802 		mov	r2, #8	@ iftmp.92,
 390              	.L31:
 391              		.loc 1 259 0 discriminator 18
 392 0196 5A60     		str	r2, [r3, #4]	@ iftmp.92, D.6589_57->IFCR
 260:Drivers/STM32L1xx_HAL_Driver/stm32l1xx_hal_dma.cpp ****   __HAL_DMA_CLEAR_FLAG(hdma, __HAL_DMA_GET_HT_FLAG_INDEX(hdma));
 393              		.loc 1 260 0 is_stmt 1 discriminator 18
 394 0198 4FF4C043 		mov	r3, #24576	@ D.6626,
 395 019c C4F20203 		movt	r3, 16386	@ D.6626,
 396 01a0 7A68     		ldr	r2, [r7, #4]	@ tmp238, hdma
 397 01a2 1268     		ldr	r2, [r2, #0]	@ D.6628, hdma_20(D)->Instance
 398 01a4 1146     		mov	r1, r2	@ D.6629, D.6628
 399 01a6 46F20802 		movw	r2, #24584	@ tmp239,
 400 01aa C4F20202 		movt	r2, 16386	@ tmp239,
 401 01ae 9142     		cmp	r1, r2	@ D.6629, tmp239
 402 01b0 3ED0     		beq	.L32	@,
 403              		.loc 1 260 0 is_stmt 0 discriminator 1
 404 01b2 7A68     		ldr	r2, [r7, #4]	@ tmp240, hdma
 405 01b4 1268     		ldr	r2, [r2, #0]	@ D.6633, hdma_20(D)->Instance
 406 01b6 1146     		mov	r1, r2	@ D.6634, D.6633
 407 01b8 46F21C02 		movw	r2, #24604	@ tmp241,
 408 01bc C4F20202 		movt	r2, 16386	@ tmp241,
 409 01c0 9142     		cmp	r1, r2	@ D.6634, tmp241
 410 01c2 32D0     		beq	.L33	@,
 411              		.loc 1 260 0 discriminator 3
 412 01c4 7A68     		ldr	r2, [r7, #4]	@ tmp242, hdma
 413 01c6 1268     		ldr	r2, [r2, #0]	@ D.6638, hdma_20(D)->Instance
 414 01c8 1146     		mov	r1, r2	@ D.6639, D.6638
 415 01ca 46F23002 		movw	r2, #24624	@ tmp243,
 416 01ce C4F20202 		movt	r2, 16386	@ tmp243,
 417 01d2 9142     		cmp	r1, r2	@ D.6639, tmp243
 418 01d4 26D0     		beq	.L34	@,
 419              		.loc 1 260 0 discriminator 5
 420 01d6 7A68     		ldr	r2, [r7, #4]	@ tmp244, hdma
 421 01d8 1268     		ldr	r2, [r2, #0]	@ D.6643, hdma_20(D)->Instance
 422 01da 1146     		mov	r1, r2	@ D.6644, D.6643
 423 01dc 46F24402 		movw	r2, #24644	@ tmp245,
 424 01e0 C4F20202 		movt	r2, 16386	@ tmp245,
ARM GAS  /tmp/ccg3UWOM.s 			page 13


 425 01e4 9142     		cmp	r1, r2	@ D.6644, tmp245
 426 01e6 1AD0     		beq	.L35	@,
 427              		.loc 1 260 0 discriminator 7
 428 01e8 7A68     		ldr	r2, [r7, #4]	@ tmp246, hdma
 429 01ea 1268     		ldr	r2, [r2, #0]	@ D.6648, hdma_20(D)->Instance
 430 01ec 1146     		mov	r1, r2	@ D.6649, D.6648
 431 01ee 46F25802 		movw	r2, #24664	@ tmp247,
 432 01f2 C4F20202 		movt	r2, 16386	@ tmp247,
 433 01f6 9142     		cmp	r1, r2	@ D.6649, tmp247
 434 01f8 0ED0     		beq	.L36	@,
 435              		.loc 1 260 0 discriminator 9
 436 01fa 7A68     		ldr	r2, [r7, #4]	@ tmp248, hdma
 437 01fc 1268     		ldr	r2, [r2, #0]	@ D.6653, hdma_20(D)->Instance
 438 01fe 1146     		mov	r1, r2	@ D.6654, D.6653
 439 0200 46F26C02 		movw	r2, #24684	@ tmp249,
 440 0204 C4F20202 		movt	r2, 16386	@ tmp249,
 441 0208 9142     		cmp	r1, r2	@ D.6654, tmp249
 442 020a 02D1     		bne	.L37	@,
 443              		.loc 1 260 0 discriminator 11
 444 020c 4FF48002 		mov	r2, #4194304	@ iftmp.103,
 445 0210 01E0     		b	.L38	@
 446              	.L37:
 447              		.loc 1 260 0 discriminator 12
 448 0212 4FF08062 		mov	r2, #67108864	@ iftmp.103,
 449              	.L38:
 450 0216 01E0     		b	.L39	@
 451              	.L36:
 452              		.loc 1 260 0 discriminator 10
 453 0218 4FF48022 		mov	r2, #262144	@ iftmp.102,
 454              	.L39:
 455 021c 01E0     		b	.L40	@
 456              	.L35:
 457              		.loc 1 260 0 discriminator 8
 458 021e 4FF48042 		mov	r2, #16384	@ iftmp.101,
 459              	.L40:
 460 0222 01E0     		b	.L41	@
 461              	.L34:
 462              		.loc 1 260 0 discriminator 6
 463 0224 4FF48062 		mov	r2, #1024	@ iftmp.100,
 464              	.L41:
 465 0228 01E0     		b	.L42	@
 466              	.L33:
 467              		.loc 1 260 0 discriminator 4
 468 022a 4FF04002 		mov	r2, #64	@ iftmp.99,
 469              	.L42:
 470 022e 01E0     		b	.L43	@
 471              	.L32:
 472              		.loc 1 260 0 discriminator 2
 473 0230 4FF00402 		mov	r2, #4	@ iftmp.98,
 474              	.L43:
 475              		.loc 1 260 0 discriminator 18
 476 0234 5A60     		str	r2, [r3, #4]	@ iftmp.98, D.6626_82->IFCR
 261:Drivers/STM32L1xx_HAL_Driver/stm32l1xx_hal_dma.cpp ****   
 262:Drivers/STM32L1xx_HAL_Driver/stm32l1xx_hal_dma.cpp ****   /* Initialise the error code */
 263:Drivers/STM32L1xx_HAL_Driver/stm32l1xx_hal_dma.cpp ****   hdma->ErrorCode = HAL_DMA_ERROR_NONE;
 477              		.loc 1 263 0 is_stmt 1 discriminator 18
 478 0236 7B68     		ldr	r3, [r7, #4]	@ tmp250, hdma
ARM GAS  /tmp/ccg3UWOM.s 			page 14


 479 0238 4FF00002 		mov	r2, #0	@ tmp251,
 480 023c 5A63     		str	r2, [r3, #52]	@ tmp251, hdma_20(D)->ErrorCode
 264:Drivers/STM32L1xx_HAL_Driver/stm32l1xx_hal_dma.cpp **** 
 265:Drivers/STM32L1xx_HAL_Driver/stm32l1xx_hal_dma.cpp ****   /* Initialize the DMA state */
 266:Drivers/STM32L1xx_HAL_Driver/stm32l1xx_hal_dma.cpp ****   hdma->State = HAL_DMA_STATE_RESET;
 481              		.loc 1 266 0 discriminator 18
 482 023e 7B68     		ldr	r3, [r7, #4]	@ tmp252, hdma
 483 0240 4FF00002 		mov	r2, #0	@ tmp253,
 484 0244 83F82120 		strb	r2, [r3, #33]	@ tmp254, hdma_20(D)->State
 267:Drivers/STM32L1xx_HAL_Driver/stm32l1xx_hal_dma.cpp **** 
 268:Drivers/STM32L1xx_HAL_Driver/stm32l1xx_hal_dma.cpp ****   /* Release Lock */
 269:Drivers/STM32L1xx_HAL_Driver/stm32l1xx_hal_dma.cpp ****   __HAL_UNLOCK(hdma);
 485              		.loc 1 269 0 discriminator 18
 486 0248 7B68     		ldr	r3, [r7, #4]	@ tmp255, hdma
 487 024a 4FF00002 		mov	r2, #0	@ tmp256,
 488 024e 83F82020 		strb	r2, [r3, #32]	@ tmp257, hdma_20(D)->Lock
 270:Drivers/STM32L1xx_HAL_Driver/stm32l1xx_hal_dma.cpp **** 
 271:Drivers/STM32L1xx_HAL_Driver/stm32l1xx_hal_dma.cpp ****   return HAL_OK;
 489              		.loc 1 271 0 discriminator 18
 490 0252 4FF00003 		mov	r3, #0	@ D.6540,
 491              	.L6:
 272:Drivers/STM32L1xx_HAL_Driver/stm32l1xx_hal_dma.cpp **** }
 492              		.loc 1 272 0
 493 0256 1846     		mov	r0, r3	@, <retval>
 494 0258 07F10C07 		add	r7, r7, #12	@,,
 495 025c BD46     		mov	sp, r7
 496 025e 80BC     		pop	{r7}
 497 0260 7047     		bx	lr
 498              		.cfi_endproc
 499              	.LFE57:
 500              		.size	HAL_DMA_DeInit, .-HAL_DMA_DeInit
 501 0262 00BF     		.section	.text.HAL_DMA_Start,"ax",%progbits
 502              		.align	2
 503              		.global	HAL_DMA_Start
 504              		.thumb
 505              		.thumb_func
 506              		.type	HAL_DMA_Start, %function
 507              	HAL_DMA_Start:
 508              	.LFB58:
 273:Drivers/STM32L1xx_HAL_Driver/stm32l1xx_hal_dma.cpp **** 
 274:Drivers/STM32L1xx_HAL_Driver/stm32l1xx_hal_dma.cpp **** /**
 275:Drivers/STM32L1xx_HAL_Driver/stm32l1xx_hal_dma.cpp ****   * @}
 276:Drivers/STM32L1xx_HAL_Driver/stm32l1xx_hal_dma.cpp ****   */
 277:Drivers/STM32L1xx_HAL_Driver/stm32l1xx_hal_dma.cpp **** 
 278:Drivers/STM32L1xx_HAL_Driver/stm32l1xx_hal_dma.cpp **** /** @defgroup DMA_Group2 I/O operation functions 
 279:Drivers/STM32L1xx_HAL_Driver/stm32l1xx_hal_dma.cpp ****  *  @brief   I/O operation functions  
 280:Drivers/STM32L1xx_HAL_Driver/stm32l1xx_hal_dma.cpp ****  *
 281:Drivers/STM32L1xx_HAL_Driver/stm32l1xx_hal_dma.cpp **** @verbatim   
 282:Drivers/STM32L1xx_HAL_Driver/stm32l1xx_hal_dma.cpp ****  ===============================================================================
 283:Drivers/STM32L1xx_HAL_Driver/stm32l1xx_hal_dma.cpp ****                       #####  IO operation functions  #####
 284:Drivers/STM32L1xx_HAL_Driver/stm32l1xx_hal_dma.cpp ****  ===============================================================================  
 285:Drivers/STM32L1xx_HAL_Driver/stm32l1xx_hal_dma.cpp ****     [..]  This section provides functions allowing to:
 286:Drivers/STM32L1xx_HAL_Driver/stm32l1xx_hal_dma.cpp ****       (+) Configure the source, destination address and data length and Start DMA transfer
 287:Drivers/STM32L1xx_HAL_Driver/stm32l1xx_hal_dma.cpp ****       (+) Configure the source, destination address and data length and 
 288:Drivers/STM32L1xx_HAL_Driver/stm32l1xx_hal_dma.cpp ****           Start DMA transfer with interrupt
 289:Drivers/STM32L1xx_HAL_Driver/stm32l1xx_hal_dma.cpp ****       (+) Abort DMA transfer
 290:Drivers/STM32L1xx_HAL_Driver/stm32l1xx_hal_dma.cpp ****       (+) Poll for transfer complete
ARM GAS  /tmp/ccg3UWOM.s 			page 15


 291:Drivers/STM32L1xx_HAL_Driver/stm32l1xx_hal_dma.cpp ****       (+) Handle DMA interrupt request  
 292:Drivers/STM32L1xx_HAL_Driver/stm32l1xx_hal_dma.cpp **** 
 293:Drivers/STM32L1xx_HAL_Driver/stm32l1xx_hal_dma.cpp **** @endverbatim
 294:Drivers/STM32L1xx_HAL_Driver/stm32l1xx_hal_dma.cpp ****   * @{
 295:Drivers/STM32L1xx_HAL_Driver/stm32l1xx_hal_dma.cpp ****   */
 296:Drivers/STM32L1xx_HAL_Driver/stm32l1xx_hal_dma.cpp **** 
 297:Drivers/STM32L1xx_HAL_Driver/stm32l1xx_hal_dma.cpp **** /**
 298:Drivers/STM32L1xx_HAL_Driver/stm32l1xx_hal_dma.cpp ****   * @brief  Starts the DMA Transfer.
 299:Drivers/STM32L1xx_HAL_Driver/stm32l1xx_hal_dma.cpp ****   * @param  hdma      : pointer to a DMA_HandleTypeDef structure that contains
 300:Drivers/STM32L1xx_HAL_Driver/stm32l1xx_hal_dma.cpp ****   *                     the configuration information for the specified DMA Channel.  
 301:Drivers/STM32L1xx_HAL_Driver/stm32l1xx_hal_dma.cpp ****   * @param  SrcAddress: The source memory Buffer address
 302:Drivers/STM32L1xx_HAL_Driver/stm32l1xx_hal_dma.cpp ****   * @param  DstAddress: The destination memory Buffer address
 303:Drivers/STM32L1xx_HAL_Driver/stm32l1xx_hal_dma.cpp ****   * @param  DataLength: The length of data to be transferred from source to destination
 304:Drivers/STM32L1xx_HAL_Driver/stm32l1xx_hal_dma.cpp ****   * @retval HAL status
 305:Drivers/STM32L1xx_HAL_Driver/stm32l1xx_hal_dma.cpp ****   */
 306:Drivers/STM32L1xx_HAL_Driver/stm32l1xx_hal_dma.cpp **** HAL_StatusTypeDef HAL_DMA_Start(DMA_HandleTypeDef *hdma, uint32_t SrcAddress, uint32_t DstAddress, 
 307:Drivers/STM32L1xx_HAL_Driver/stm32l1xx_hal_dma.cpp **** { 
 509              		.loc 1 307 0
 510              		.cfi_startproc
 511              		@ args = 0, pretend = 0, frame = 16
 512              		@ frame_needed = 1, uses_anonymous_args = 0
 513 0000 80B5     		push	{r7, lr}	@
 514              	.LCFI6:
 515              		.cfi_def_cfa_offset 8
 516              		.cfi_offset 7, -8
 517              		.cfi_offset 14, -4
 518 0002 84B0     		sub	sp, sp, #16	@,,
 519              	.LCFI7:
 520              		.cfi_def_cfa_offset 24
 521 0004 00AF     		add	r7, sp, #0	@,,
 522              	.LCFI8:
 523              		.cfi_def_cfa_register 7
 524 0006 F860     		str	r0, [r7, #12]	@ hdma, hdma
 525 0008 B960     		str	r1, [r7, #8]	@ SrcAddress, SrcAddress
 526 000a 7A60     		str	r2, [r7, #4]	@ DstAddress, DstAddress
 527 000c 3B60     		str	r3, [r7, #0]	@ DataLength, DataLength
 308:Drivers/STM32L1xx_HAL_Driver/stm32l1xx_hal_dma.cpp ****   /* Process locked */
 309:Drivers/STM32L1xx_HAL_Driver/stm32l1xx_hal_dma.cpp ****   __HAL_LOCK(hdma);  
 528              		.loc 1 309 0
 529 000e FB68     		ldr	r3, [r7, #12]	@ tmp145, hdma
 530 0010 93F82030 		ldrb	r3, [r3, #32]	@ zero_extendqisi2	@ D.6525, hdma_2(D)->Lock
 531 0014 012B     		cmp	r3, #1	@ D.6525,
 532 0016 02D1     		bne	.L45	@,
 533              		.loc 1 309 0 is_stmt 0 discriminator 1
 534 0018 4FF00203 		mov	r3, #2	@ D.6528,
 535 001c 21E0     		b	.L46	@
 536              	.L45:
 537              		.loc 1 309 0 discriminator 2
 538 001e FB68     		ldr	r3, [r7, #12]	@ tmp146, hdma
 539 0020 4FF00102 		mov	r2, #1	@ tmp147,
 540 0024 83F82020 		strb	r2, [r3, #32]	@ tmp148, hdma_2(D)->Lock
 310:Drivers/STM32L1xx_HAL_Driver/stm32l1xx_hal_dma.cpp **** 
 311:Drivers/STM32L1xx_HAL_Driver/stm32l1xx_hal_dma.cpp ****   /* Change DMA peripheral state */  
 312:Drivers/STM32L1xx_HAL_Driver/stm32l1xx_hal_dma.cpp ****   hdma->State = HAL_DMA_STATE_BUSY;  
 541              		.loc 1 312 0 is_stmt 1 discriminator 2
 542 0028 FB68     		ldr	r3, [r7, #12]	@ tmp149, hdma
 543 002a 4FF00202 		mov	r2, #2	@ tmp150,
ARM GAS  /tmp/ccg3UWOM.s 			page 16


 544 002e 83F82120 		strb	r2, [r3, #33]	@ tmp151, hdma_2(D)->State
 313:Drivers/STM32L1xx_HAL_Driver/stm32l1xx_hal_dma.cpp **** 
 314:Drivers/STM32L1xx_HAL_Driver/stm32l1xx_hal_dma.cpp ****    /* Check the parameters */
 315:Drivers/STM32L1xx_HAL_Driver/stm32l1xx_hal_dma.cpp ****   assert_param(IS_DMA_BUFFER_SIZE(DataLength));
 316:Drivers/STM32L1xx_HAL_Driver/stm32l1xx_hal_dma.cpp ****   
 317:Drivers/STM32L1xx_HAL_Driver/stm32l1xx_hal_dma.cpp ****   /* Disable the peripheral */
 318:Drivers/STM32L1xx_HAL_Driver/stm32l1xx_hal_dma.cpp ****   __HAL_DMA_DISABLE(hdma);  
 545              		.loc 1 318 0 discriminator 2
 546 0032 FB68     		ldr	r3, [r7, #12]	@ tmp152, hdma
 547 0034 1B68     		ldr	r3, [r3, #0]	@ D.6529, hdma_2(D)->Instance
 548 0036 FA68     		ldr	r2, [r7, #12]	@ tmp153, hdma
 549 0038 1268     		ldr	r2, [r2, #0]	@ D.6530, hdma_2(D)->Instance
 550 003a 1268     		ldr	r2, [r2, #0]	@ D.6531, D.6530_6->CCR
 551 003c 22F00102 		bic	r2, r2, #1	@ D.6532, D.6531,
 552 0040 1A60     		str	r2, [r3, #0]	@ D.6532, D.6529_5->CCR
 319:Drivers/STM32L1xx_HAL_Driver/stm32l1xx_hal_dma.cpp ****   
 320:Drivers/STM32L1xx_HAL_Driver/stm32l1xx_hal_dma.cpp ****   /* Configure the source, destination address and the data length */
 321:Drivers/STM32L1xx_HAL_Driver/stm32l1xx_hal_dma.cpp ****   DMA_SetConfig(hdma, SrcAddress, DstAddress, DataLength);
 553              		.loc 1 321 0 discriminator 2
 554 0042 F868     		ldr	r0, [r7, #12]	@, hdma
 555 0044 B968     		ldr	r1, [r7, #8]	@, SrcAddress
 556 0046 7A68     		ldr	r2, [r7, #4]	@, DstAddress
 557 0048 3B68     		ldr	r3, [r7, #0]	@, DataLength
 558 004a FFF7FEFF 		bl	_ZL13DMA_SetConfigP19__DMA_HandleTypeDefmmm	@
 322:Drivers/STM32L1xx_HAL_Driver/stm32l1xx_hal_dma.cpp **** 
 323:Drivers/STM32L1xx_HAL_Driver/stm32l1xx_hal_dma.cpp ****   /* Enable the Peripheral */
 324:Drivers/STM32L1xx_HAL_Driver/stm32l1xx_hal_dma.cpp ****   __HAL_DMA_ENABLE(hdma);  
 559              		.loc 1 324 0 discriminator 2
 560 004e FB68     		ldr	r3, [r7, #12]	@ tmp154, hdma
 561 0050 1B68     		ldr	r3, [r3, #0]	@ D.6533, hdma_2(D)->Instance
 562 0052 FA68     		ldr	r2, [r7, #12]	@ tmp155, hdma
 563 0054 1268     		ldr	r2, [r2, #0]	@ D.6534, hdma_2(D)->Instance
 564 0056 1268     		ldr	r2, [r2, #0]	@ D.6535, D.6534_13->CCR
 565 0058 42F00102 		orr	r2, r2, #1	@ D.6536, D.6535,
 566 005c 1A60     		str	r2, [r3, #0]	@ D.6536, D.6533_12->CCR
 325:Drivers/STM32L1xx_HAL_Driver/stm32l1xx_hal_dma.cpp **** 
 326:Drivers/STM32L1xx_HAL_Driver/stm32l1xx_hal_dma.cpp ****   return HAL_OK; 
 567              		.loc 1 326 0 discriminator 2
 568 005e 4FF00003 		mov	r3, #0	@ D.6528,
 569              	.L46:
 327:Drivers/STM32L1xx_HAL_Driver/stm32l1xx_hal_dma.cpp **** } 
 570              		.loc 1 327 0
 571 0062 1846     		mov	r0, r3	@, <retval>
 572 0064 07F11007 		add	r7, r7, #16	@,,
 573 0068 BD46     		mov	sp, r7
 574 006a 80BD     		pop	{r7, pc}
 575              		.cfi_endproc
 576              	.LFE58:
 577              		.size	HAL_DMA_Start, .-HAL_DMA_Start
 578              		.section	.text.HAL_DMA_Start_IT,"ax",%progbits
 579              		.align	2
 580              		.global	HAL_DMA_Start_IT
 581              		.thumb
 582              		.thumb_func
 583              		.type	HAL_DMA_Start_IT, %function
 584              	HAL_DMA_Start_IT:
 585              	.LFB59:
ARM GAS  /tmp/ccg3UWOM.s 			page 17


 328:Drivers/STM32L1xx_HAL_Driver/stm32l1xx_hal_dma.cpp **** 
 329:Drivers/STM32L1xx_HAL_Driver/stm32l1xx_hal_dma.cpp **** /**
 330:Drivers/STM32L1xx_HAL_Driver/stm32l1xx_hal_dma.cpp ****   * @brief  Start the DMA Transfer with interrupt enabled.
 331:Drivers/STM32L1xx_HAL_Driver/stm32l1xx_hal_dma.cpp ****   * @param  hdma:       pointer to a DMA_HandleTypeDef structure that contains
 332:Drivers/STM32L1xx_HAL_Driver/stm32l1xx_hal_dma.cpp ****   *                     the configuration information for the specified DMA Channel.  
 333:Drivers/STM32L1xx_HAL_Driver/stm32l1xx_hal_dma.cpp ****   * @param  SrcAddress: The source memory Buffer address
 334:Drivers/STM32L1xx_HAL_Driver/stm32l1xx_hal_dma.cpp ****   * @param  DstAddress: The destination memory Buffer address
 335:Drivers/STM32L1xx_HAL_Driver/stm32l1xx_hal_dma.cpp ****   * @param  DataLength: The length of data to be transferred from source to destination
 336:Drivers/STM32L1xx_HAL_Driver/stm32l1xx_hal_dma.cpp ****   * @retval HAL status
 337:Drivers/STM32L1xx_HAL_Driver/stm32l1xx_hal_dma.cpp ****   */
 338:Drivers/STM32L1xx_HAL_Driver/stm32l1xx_hal_dma.cpp **** HAL_StatusTypeDef HAL_DMA_Start_IT(DMA_HandleTypeDef *hdma, uint32_t SrcAddress, uint32_t DstAddres
 339:Drivers/STM32L1xx_HAL_Driver/stm32l1xx_hal_dma.cpp **** {
 586              		.loc 1 339 0
 587              		.cfi_startproc
 588              		@ args = 0, pretend = 0, frame = 16
 589              		@ frame_needed = 1, uses_anonymous_args = 0
 590 0000 80B5     		push	{r7, lr}	@
 591              	.LCFI9:
 592              		.cfi_def_cfa_offset 8
 593              		.cfi_offset 7, -8
 594              		.cfi_offset 14, -4
 595 0002 84B0     		sub	sp, sp, #16	@,,
 596              	.LCFI10:
 597              		.cfi_def_cfa_offset 24
 598 0004 00AF     		add	r7, sp, #0	@,,
 599              	.LCFI11:
 600              		.cfi_def_cfa_register 7
 601 0006 F860     		str	r0, [r7, #12]	@ hdma, hdma
 602 0008 B960     		str	r1, [r7, #8]	@ SrcAddress, SrcAddress
 603 000a 7A60     		str	r2, [r7, #4]	@ DstAddress, DstAddress
 604 000c 3B60     		str	r3, [r7, #0]	@ DataLength, DataLength
 340:Drivers/STM32L1xx_HAL_Driver/stm32l1xx_hal_dma.cpp ****   /* Process locked */
 341:Drivers/STM32L1xx_HAL_Driver/stm32l1xx_hal_dma.cpp ****   __HAL_LOCK(hdma);
 605              		.loc 1 341 0
 606 000e FB68     		ldr	r3, [r7, #12]	@ tmp157, hdma
 607 0010 93F82030 		ldrb	r3, [r3, #32]	@ zero_extendqisi2	@ D.6498, hdma_2(D)->Lock
 608 0014 012B     		cmp	r3, #1	@ D.6498,
 609 0016 02D1     		bne	.L48	@,
 610              		.loc 1 341 0 is_stmt 0 discriminator 1
 611 0018 4FF00203 		mov	r3, #2	@ D.6501,
 612 001c 39E0     		b	.L49	@
 613              	.L48:
 614              		.loc 1 341 0 discriminator 2
 615 001e FB68     		ldr	r3, [r7, #12]	@ tmp158, hdma
 616 0020 4FF00102 		mov	r2, #1	@ tmp159,
 617 0024 83F82020 		strb	r2, [r3, #32]	@ tmp160, hdma_2(D)->Lock
 342:Drivers/STM32L1xx_HAL_Driver/stm32l1xx_hal_dma.cpp **** 
 343:Drivers/STM32L1xx_HAL_Driver/stm32l1xx_hal_dma.cpp ****   /* Change DMA peripheral state */  
 344:Drivers/STM32L1xx_HAL_Driver/stm32l1xx_hal_dma.cpp ****   hdma->State = HAL_DMA_STATE_BUSY;  
 618              		.loc 1 344 0 is_stmt 1 discriminator 2
 619 0028 FB68     		ldr	r3, [r7, #12]	@ tmp161, hdma
 620 002a 4FF00202 		mov	r2, #2	@ tmp162,
 621 002e 83F82120 		strb	r2, [r3, #33]	@ tmp163, hdma_2(D)->State
 345:Drivers/STM32L1xx_HAL_Driver/stm32l1xx_hal_dma.cpp **** 
 346:Drivers/STM32L1xx_HAL_Driver/stm32l1xx_hal_dma.cpp ****    /* Check the parameters */
 347:Drivers/STM32L1xx_HAL_Driver/stm32l1xx_hal_dma.cpp ****   assert_param(IS_DMA_BUFFER_SIZE(DataLength));
 348:Drivers/STM32L1xx_HAL_Driver/stm32l1xx_hal_dma.cpp ****   
ARM GAS  /tmp/ccg3UWOM.s 			page 18


 349:Drivers/STM32L1xx_HAL_Driver/stm32l1xx_hal_dma.cpp ****   /* Disable the peripheral */
 350:Drivers/STM32L1xx_HAL_Driver/stm32l1xx_hal_dma.cpp ****   __HAL_DMA_DISABLE(hdma);
 622              		.loc 1 350 0 discriminator 2
 623 0032 FB68     		ldr	r3, [r7, #12]	@ tmp164, hdma
 624 0034 1B68     		ldr	r3, [r3, #0]	@ D.6502, hdma_2(D)->Instance
 625 0036 FA68     		ldr	r2, [r7, #12]	@ tmp165, hdma
 626 0038 1268     		ldr	r2, [r2, #0]	@ D.6503, hdma_2(D)->Instance
 627 003a 1268     		ldr	r2, [r2, #0]	@ D.6504, D.6503_6->CCR
 628 003c 22F00102 		bic	r2, r2, #1	@ D.6505, D.6504,
 629 0040 1A60     		str	r2, [r3, #0]	@ D.6505, D.6502_5->CCR
 351:Drivers/STM32L1xx_HAL_Driver/stm32l1xx_hal_dma.cpp ****   
 352:Drivers/STM32L1xx_HAL_Driver/stm32l1xx_hal_dma.cpp ****   /* Configure the source, destination address and the data length */  
 353:Drivers/STM32L1xx_HAL_Driver/stm32l1xx_hal_dma.cpp ****   DMA_SetConfig(hdma, SrcAddress, DstAddress, DataLength);
 630              		.loc 1 353 0 discriminator 2
 631 0042 F868     		ldr	r0, [r7, #12]	@, hdma
 632 0044 B968     		ldr	r1, [r7, #8]	@, SrcAddress
 633 0046 7A68     		ldr	r2, [r7, #4]	@, DstAddress
 634 0048 3B68     		ldr	r3, [r7, #0]	@, DataLength
 635 004a FFF7FEFF 		bl	_ZL13DMA_SetConfigP19__DMA_HandleTypeDefmmm	@
 354:Drivers/STM32L1xx_HAL_Driver/stm32l1xx_hal_dma.cpp ****   
 355:Drivers/STM32L1xx_HAL_Driver/stm32l1xx_hal_dma.cpp ****   /* Enable the transfer complete interrupt */
 356:Drivers/STM32L1xx_HAL_Driver/stm32l1xx_hal_dma.cpp ****   __HAL_DMA_ENABLE_IT(hdma, DMA_IT_TC);
 636              		.loc 1 356 0 discriminator 2
 637 004e FB68     		ldr	r3, [r7, #12]	@ tmp166, hdma
 638 0050 1B68     		ldr	r3, [r3, #0]	@ D.6506, hdma_2(D)->Instance
 639 0052 FA68     		ldr	r2, [r7, #12]	@ tmp167, hdma
 640 0054 1268     		ldr	r2, [r2, #0]	@ D.6507, hdma_2(D)->Instance
 641 0056 1268     		ldr	r2, [r2, #0]	@ D.6508, D.6507_13->CCR
 642 0058 42F00202 		orr	r2, r2, #2	@ D.6509, D.6508,
 643 005c 1A60     		str	r2, [r3, #0]	@ D.6509, D.6506_12->CCR
 357:Drivers/STM32L1xx_HAL_Driver/stm32l1xx_hal_dma.cpp **** 
 358:Drivers/STM32L1xx_HAL_Driver/stm32l1xx_hal_dma.cpp ****   /* Enable the Half transfer complete interrupt */
 359:Drivers/STM32L1xx_HAL_Driver/stm32l1xx_hal_dma.cpp ****   __HAL_DMA_ENABLE_IT(hdma, DMA_IT_HT);  
 644              		.loc 1 359 0 discriminator 2
 645 005e FB68     		ldr	r3, [r7, #12]	@ tmp168, hdma
 646 0060 1B68     		ldr	r3, [r3, #0]	@ D.6510, hdma_2(D)->Instance
 647 0062 FA68     		ldr	r2, [r7, #12]	@ tmp169, hdma
 648 0064 1268     		ldr	r2, [r2, #0]	@ D.6511, hdma_2(D)->Instance
 649 0066 1268     		ldr	r2, [r2, #0]	@ D.6512, D.6511_17->CCR
 650 0068 42F00402 		orr	r2, r2, #4	@ D.6513, D.6512,
 651 006c 1A60     		str	r2, [r3, #0]	@ D.6513, D.6510_16->CCR
 360:Drivers/STM32L1xx_HAL_Driver/stm32l1xx_hal_dma.cpp **** 
 361:Drivers/STM32L1xx_HAL_Driver/stm32l1xx_hal_dma.cpp ****   /* Enable the transfer Error interrupt */
 362:Drivers/STM32L1xx_HAL_Driver/stm32l1xx_hal_dma.cpp ****   __HAL_DMA_ENABLE_IT(hdma, DMA_IT_TE);
 652              		.loc 1 362 0 discriminator 2
 653 006e FB68     		ldr	r3, [r7, #12]	@ tmp170, hdma
 654 0070 1B68     		ldr	r3, [r3, #0]	@ D.6514, hdma_2(D)->Instance
 655 0072 FA68     		ldr	r2, [r7, #12]	@ tmp171, hdma
 656 0074 1268     		ldr	r2, [r2, #0]	@ D.6515, hdma_2(D)->Instance
 657 0076 1268     		ldr	r2, [r2, #0]	@ D.6516, D.6515_21->CCR
 658 0078 42F00802 		orr	r2, r2, #8	@ D.6517, D.6516,
 659 007c 1A60     		str	r2, [r3, #0]	@ D.6517, D.6514_20->CCR
 363:Drivers/STM32L1xx_HAL_Driver/stm32l1xx_hal_dma.cpp ****   
 364:Drivers/STM32L1xx_HAL_Driver/stm32l1xx_hal_dma.cpp ****    /* Enable the Peripheral */
 365:Drivers/STM32L1xx_HAL_Driver/stm32l1xx_hal_dma.cpp ****   __HAL_DMA_ENABLE(hdma);   
 660              		.loc 1 365 0 discriminator 2
 661 007e FB68     		ldr	r3, [r7, #12]	@ tmp172, hdma
ARM GAS  /tmp/ccg3UWOM.s 			page 19


 662 0080 1B68     		ldr	r3, [r3, #0]	@ D.6518, hdma_2(D)->Instance
 663 0082 FA68     		ldr	r2, [r7, #12]	@ tmp173, hdma
 664 0084 1268     		ldr	r2, [r2, #0]	@ D.6519, hdma_2(D)->Instance
 665 0086 1268     		ldr	r2, [r2, #0]	@ D.6520, D.6519_25->CCR
 666 0088 42F00102 		orr	r2, r2, #1	@ D.6521, D.6520,
 667 008c 1A60     		str	r2, [r3, #0]	@ D.6521, D.6518_24->CCR
 366:Drivers/STM32L1xx_HAL_Driver/stm32l1xx_hal_dma.cpp ****   
 367:Drivers/STM32L1xx_HAL_Driver/stm32l1xx_hal_dma.cpp ****   return HAL_OK;    
 668              		.loc 1 367 0 discriminator 2
 669 008e 4FF00003 		mov	r3, #0	@ D.6501,
 670              	.L49:
 368:Drivers/STM32L1xx_HAL_Driver/stm32l1xx_hal_dma.cpp **** } 
 671              		.loc 1 368 0
 672 0092 1846     		mov	r0, r3	@, <retval>
 673 0094 07F11007 		add	r7, r7, #16	@,,
 674 0098 BD46     		mov	sp, r7
 675 009a 80BD     		pop	{r7, pc}
 676              		.cfi_endproc
 677              	.LFE59:
 678              		.size	HAL_DMA_Start_IT, .-HAL_DMA_Start_IT
 679              		.section	.text.HAL_DMA_Abort,"ax",%progbits
 680              		.align	2
 681              		.global	HAL_DMA_Abort
 682              		.thumb
 683              		.thumb_func
 684              		.type	HAL_DMA_Abort, %function
 685              	HAL_DMA_Abort:
 686              	.LFB60:
 369:Drivers/STM32L1xx_HAL_Driver/stm32l1xx_hal_dma.cpp **** 
 370:Drivers/STM32L1xx_HAL_Driver/stm32l1xx_hal_dma.cpp **** /**
 371:Drivers/STM32L1xx_HAL_Driver/stm32l1xx_hal_dma.cpp ****   * @brief  Aborts the DMA Transfer.
 372:Drivers/STM32L1xx_HAL_Driver/stm32l1xx_hal_dma.cpp ****   * @param  hdma  : pointer to a DMA_HandleTypeDef structure that contains
 373:Drivers/STM32L1xx_HAL_Driver/stm32l1xx_hal_dma.cpp ****   *                 the configuration information for the specified DMA Channel.
 374:Drivers/STM32L1xx_HAL_Driver/stm32l1xx_hal_dma.cpp ****   *                   
 375:Drivers/STM32L1xx_HAL_Driver/stm32l1xx_hal_dma.cpp ****   * @note  After disabling a DMA Channel, a check for wait until the DMA Channel is 
 376:Drivers/STM32L1xx_HAL_Driver/stm32l1xx_hal_dma.cpp ****   *        effectively disabled is added. If a Channel is disabled 
 377:Drivers/STM32L1xx_HAL_Driver/stm32l1xx_hal_dma.cpp ****   *        while a data transfer is ongoing, the current data will be transferred
 378:Drivers/STM32L1xx_HAL_Driver/stm32l1xx_hal_dma.cpp ****   *        and the Channel will be effectively disabled only after the transfer of
 379:Drivers/STM32L1xx_HAL_Driver/stm32l1xx_hal_dma.cpp ****   *        this single data is finished.  
 380:Drivers/STM32L1xx_HAL_Driver/stm32l1xx_hal_dma.cpp ****   * @retval HAL status
 381:Drivers/STM32L1xx_HAL_Driver/stm32l1xx_hal_dma.cpp ****   */
 382:Drivers/STM32L1xx_HAL_Driver/stm32l1xx_hal_dma.cpp **** HAL_StatusTypeDef HAL_DMA_Abort(DMA_HandleTypeDef *hdma)
 383:Drivers/STM32L1xx_HAL_Driver/stm32l1xx_hal_dma.cpp **** {
 687              		.loc 1 383 0
 688              		.cfi_startproc
 689              		@ args = 0, pretend = 0, frame = 16
 690              		@ frame_needed = 1, uses_anonymous_args = 0
 691 0000 80B5     		push	{r7, lr}	@
 692              	.LCFI12:
 693              		.cfi_def_cfa_offset 8
 694              		.cfi_offset 7, -8
 695              		.cfi_offset 14, -4
 696 0002 84B0     		sub	sp, sp, #16	@,,
 697              	.LCFI13:
 698              		.cfi_def_cfa_offset 24
 699 0004 00AF     		add	r7, sp, #0	@,,
 700              	.LCFI14:
ARM GAS  /tmp/ccg3UWOM.s 			page 20


 701              		.cfi_def_cfa_register 7
 702 0006 7860     		str	r0, [r7, #4]	@ hdma, hdma
 703              	.LBB3:
 384:Drivers/STM32L1xx_HAL_Driver/stm32l1xx_hal_dma.cpp ****   uint32_t tickstart = 0x00;
 704              		.loc 1 384 0
 705 0008 4FF00003 		mov	r3, #0	@ tmp149,
 706 000c FB60     		str	r3, [r7, #12]	@ tmp149, tickstart
 385:Drivers/STM32L1xx_HAL_Driver/stm32l1xx_hal_dma.cpp ****   
 386:Drivers/STM32L1xx_HAL_Driver/stm32l1xx_hal_dma.cpp ****   /* Disable the channel */
 387:Drivers/STM32L1xx_HAL_Driver/stm32l1xx_hal_dma.cpp ****   __HAL_DMA_DISABLE(hdma);
 707              		.loc 1 387 0
 708 000e 7B68     		ldr	r3, [r7, #4]	@ tmp150, hdma
 709 0010 1B68     		ldr	r3, [r3, #0]	@ D.6472, hdma_3(D)->Instance
 710 0012 7A68     		ldr	r2, [r7, #4]	@ tmp151, hdma
 711 0014 1268     		ldr	r2, [r2, #0]	@ D.6473, hdma_3(D)->Instance
 712 0016 1268     		ldr	r2, [r2, #0]	@ D.6474, D.6473_5->CCR
 713 0018 22F00102 		bic	r2, r2, #1	@ D.6475, D.6474,
 714 001c 1A60     		str	r2, [r3, #0]	@ D.6475, D.6472_4->CCR
 388:Drivers/STM32L1xx_HAL_Driver/stm32l1xx_hal_dma.cpp ****   
 389:Drivers/STM32L1xx_HAL_Driver/stm32l1xx_hal_dma.cpp ****   /* Get timeout */
 390:Drivers/STM32L1xx_HAL_Driver/stm32l1xx_hal_dma.cpp ****   tickstart = HAL_GetTick();
 715              		.loc 1 390 0
 716 001e FFF7FEFF 		bl	HAL_GetTick	@
 717 0022 F860     		str	r0, [r7, #12]	@, tickstart
 391:Drivers/STM32L1xx_HAL_Driver/stm32l1xx_hal_dma.cpp ****   
 392:Drivers/STM32L1xx_HAL_Driver/stm32l1xx_hal_dma.cpp ****   /* Check if the DMA Channel is effectively disabled */
 393:Drivers/STM32L1xx_HAL_Driver/stm32l1xx_hal_dma.cpp ****   while((hdma->Instance->CCR & DMA_CCR_EN) != 0) 
 718              		.loc 1 393 0
 719 0024 1FE0     		b	.L51	@
 720              	.L53:
 394:Drivers/STM32L1xx_HAL_Driver/stm32l1xx_hal_dma.cpp ****   {
 395:Drivers/STM32L1xx_HAL_Driver/stm32l1xx_hal_dma.cpp ****     /* Check for the Timeout */
 396:Drivers/STM32L1xx_HAL_Driver/stm32l1xx_hal_dma.cpp ****     if((HAL_GetTick() - tickstart ) > HAL_TIMEOUT_DMA_ABORT)
 721              		.loc 1 396 0
 722 0026 FFF7FEFF 		bl	HAL_GetTick	@
 723 002a 0246     		mov	r2, r0	@ D.6484,
 724 002c FB68     		ldr	r3, [r7, #12]	@ tmp152, tickstart
 725 002e D31A     		subs	r3, r2, r3	@ D.6485, D.6484, tmp152
 726 0030 B3F57A7F 		cmp	r3, #1000	@ D.6485,
 727 0034 94BF     		ite	ls	@
 728 0036 0023     		movls	r3, #0	@, tmp154
 729 0038 0123     		movhi	r3, #1	@, tmp154
 730 003a DBB2     		uxtb	r3, r3	@ retval.85, tmp153
 731 003c 002B     		cmp	r3, #0	@ retval.85,
 732 003e 12D0     		beq	.L51	@,
 397:Drivers/STM32L1xx_HAL_Driver/stm32l1xx_hal_dma.cpp ****     {
 398:Drivers/STM32L1xx_HAL_Driver/stm32l1xx_hal_dma.cpp ****       /* Update error code */
 399:Drivers/STM32L1xx_HAL_Driver/stm32l1xx_hal_dma.cpp ****       SET_BIT(hdma->ErrorCode, HAL_DMA_ERROR_TIMEOUT);
 733              		.loc 1 399 0
 734 0040 7B68     		ldr	r3, [r7, #4]	@ tmp155, hdma
 735 0042 5B6B     		ldr	r3, [r3, #52]	@ D.6488, hdma_3(D)->ErrorCode
 736 0044 43F02002 		orr	r2, r3, #32	@ D.6489, D.6488,
 737 0048 7B68     		ldr	r3, [r7, #4]	@ tmp156, hdma
 738 004a 5A63     		str	r2, [r3, #52]	@ D.6489, hdma_3(D)->ErrorCode
 400:Drivers/STM32L1xx_HAL_Driver/stm32l1xx_hal_dma.cpp **** 
 401:Drivers/STM32L1xx_HAL_Driver/stm32l1xx_hal_dma.cpp ****       /* Process Unlocked */
 402:Drivers/STM32L1xx_HAL_Driver/stm32l1xx_hal_dma.cpp ****       __HAL_UNLOCK(hdma);
ARM GAS  /tmp/ccg3UWOM.s 			page 21


 739              		.loc 1 402 0
 740 004c 7B68     		ldr	r3, [r7, #4]	@ tmp157, hdma
 741 004e 4FF00002 		mov	r2, #0	@ tmp158,
 742 0052 83F82020 		strb	r2, [r3, #32]	@ tmp159, hdma_3(D)->Lock
 403:Drivers/STM32L1xx_HAL_Driver/stm32l1xx_hal_dma.cpp ****       
 404:Drivers/STM32L1xx_HAL_Driver/stm32l1xx_hal_dma.cpp ****       /* Change the DMA state */
 405:Drivers/STM32L1xx_HAL_Driver/stm32l1xx_hal_dma.cpp ****       hdma->State = HAL_DMA_STATE_TIMEOUT;
 743              		.loc 1 405 0
 744 0056 7B68     		ldr	r3, [r7, #4]	@ tmp160, hdma
 745 0058 4FF00302 		mov	r2, #3	@ tmp161,
 746 005c 83F82120 		strb	r2, [r3, #33]	@ tmp162, hdma_3(D)->State
 406:Drivers/STM32L1xx_HAL_Driver/stm32l1xx_hal_dma.cpp **** 
 407:Drivers/STM32L1xx_HAL_Driver/stm32l1xx_hal_dma.cpp ****       return HAL_TIMEOUT;
 747              		.loc 1 407 0
 748 0060 4FF00303 		mov	r3, #3	@ D.6492,
 749 0064 17E0     		b	.L52	@
 750              	.L51:
 393:Drivers/STM32L1xx_HAL_Driver/stm32l1xx_hal_dma.cpp ****   while((hdma->Instance->CCR & DMA_CCR_EN) != 0) 
 751              		.loc 1 393 0 discriminator 1
 752 0066 7B68     		ldr	r3, [r7, #4]	@ tmp163, hdma
 753 0068 1B68     		ldr	r3, [r3, #0]	@ D.6480, hdma_3(D)->Instance
 754 006a 1B68     		ldr	r3, [r3, #0]	@ D.6481, D.6480_9->CCR
 755 006c 03F00103 		and	r3, r3, #1	@ D.6482, D.6481,
 756 0070 002B     		cmp	r3, #0	@ D.6482,
 757 0072 0CBF     		ite	eq	@
 758 0074 0023     		moveq	r3, #0	@, tmp165
 759 0076 0123     		movne	r3, #1	@, tmp165
 760 0078 DBB2     		uxtb	r3, r3	@ retval.84, tmp164
 761 007a 002B     		cmp	r3, #0	@ retval.84,
 762 007c D3D1     		bne	.L53	@,
 408:Drivers/STM32L1xx_HAL_Driver/stm32l1xx_hal_dma.cpp ****     }
 409:Drivers/STM32L1xx_HAL_Driver/stm32l1xx_hal_dma.cpp ****   }
 410:Drivers/STM32L1xx_HAL_Driver/stm32l1xx_hal_dma.cpp ****   /* Process Unlocked */
 411:Drivers/STM32L1xx_HAL_Driver/stm32l1xx_hal_dma.cpp ****   __HAL_UNLOCK(hdma);
 763              		.loc 1 411 0
 764 007e 7B68     		ldr	r3, [r7, #4]	@ tmp166, hdma
 765 0080 4FF00002 		mov	r2, #0	@ tmp167,
 766 0084 83F82020 		strb	r2, [r3, #32]	@ tmp168, hdma_3(D)->Lock
 412:Drivers/STM32L1xx_HAL_Driver/stm32l1xx_hal_dma.cpp ****   
 413:Drivers/STM32L1xx_HAL_Driver/stm32l1xx_hal_dma.cpp ****   /* Change the DMA state*/
 414:Drivers/STM32L1xx_HAL_Driver/stm32l1xx_hal_dma.cpp ****   hdma->State = HAL_DMA_STATE_READY; 
 767              		.loc 1 414 0
 768 0088 7B68     		ldr	r3, [r7, #4]	@ tmp169, hdma
 769 008a 4FF00102 		mov	r2, #1	@ tmp170,
 770 008e 83F82120 		strb	r2, [r3, #33]	@ tmp171, hdma_3(D)->State
 415:Drivers/STM32L1xx_HAL_Driver/stm32l1xx_hal_dma.cpp ****   
 416:Drivers/STM32L1xx_HAL_Driver/stm32l1xx_hal_dma.cpp ****   return HAL_OK; 
 771              		.loc 1 416 0
 772 0092 4FF00003 		mov	r3, #0	@ D.6492,
 773              	.L52:
 774              	.LBE3:
 417:Drivers/STM32L1xx_HAL_Driver/stm32l1xx_hal_dma.cpp **** }
 775              		.loc 1 417 0
 776 0096 1846     		mov	r0, r3	@, <retval>
 777 0098 07F11007 		add	r7, r7, #16	@,,
 778 009c BD46     		mov	sp, r7
 779 009e 80BD     		pop	{r7, pc}
ARM GAS  /tmp/ccg3UWOM.s 			page 22


 780              		.cfi_endproc
 781              	.LFE60:
 782              		.size	HAL_DMA_Abort, .-HAL_DMA_Abort
 783              		.section	.text.HAL_DMA_PollForTransfer,"ax",%progbits
 784              		.align	2
 785              		.global	HAL_DMA_PollForTransfer
 786              		.thumb
 787              		.thumb_func
 788              		.type	HAL_DMA_PollForTransfer, %function
 789              	HAL_DMA_PollForTransfer:
 790              	.LFB61:
 418:Drivers/STM32L1xx_HAL_Driver/stm32l1xx_hal_dma.cpp **** 
 419:Drivers/STM32L1xx_HAL_Driver/stm32l1xx_hal_dma.cpp **** /**
 420:Drivers/STM32L1xx_HAL_Driver/stm32l1xx_hal_dma.cpp ****   * @brief  Polling for transfer complete.
 421:Drivers/STM32L1xx_HAL_Driver/stm32l1xx_hal_dma.cpp ****   * @param  hdma:    pointer to a DMA_HandleTypeDef structure that contains
 422:Drivers/STM32L1xx_HAL_Driver/stm32l1xx_hal_dma.cpp ****   *                  the configuration information for the specified DMA Channel.
 423:Drivers/STM32L1xx_HAL_Driver/stm32l1xx_hal_dma.cpp ****   * @param  CompleteLevel: Specifies the DMA level complete.  
 424:Drivers/STM32L1xx_HAL_Driver/stm32l1xx_hal_dma.cpp ****   * @param  Timeout:       Timeout duration.
 425:Drivers/STM32L1xx_HAL_Driver/stm32l1xx_hal_dma.cpp ****   * @retval HAL status
 426:Drivers/STM32L1xx_HAL_Driver/stm32l1xx_hal_dma.cpp ****   */
 427:Drivers/STM32L1xx_HAL_Driver/stm32l1xx_hal_dma.cpp **** HAL_StatusTypeDef HAL_DMA_PollForTransfer(DMA_HandleTypeDef *hdma, uint32_t CompleteLevel, uint32_t
 428:Drivers/STM32L1xx_HAL_Driver/stm32l1xx_hal_dma.cpp **** {
 791              		.loc 1 428 0
 792              		.cfi_startproc
 793              		@ args = 0, pretend = 0, frame = 24
 794              		@ frame_needed = 1, uses_anonymous_args = 0
 795 0000 80B5     		push	{r7, lr}	@
 796              	.LCFI15:
 797              		.cfi_def_cfa_offset 8
 798              		.cfi_offset 7, -8
 799              		.cfi_offset 14, -4
 800 0002 86B0     		sub	sp, sp, #24	@,,
 801              	.LCFI16:
 802              		.cfi_def_cfa_offset 32
 803 0004 00AF     		add	r7, sp, #0	@,,
 804              	.LCFI17:
 805              		.cfi_def_cfa_register 7
 806 0006 F860     		str	r0, [r7, #12]	@ hdma, hdma
 807 0008 B960     		str	r1, [r7, #8]	@ CompleteLevel, CompleteLevel
 808 000a 7A60     		str	r2, [r7, #4]	@ Timeout, Timeout
 809              	.LBB4:
 429:Drivers/STM32L1xx_HAL_Driver/stm32l1xx_hal_dma.cpp ****   uint32_t temp;
 430:Drivers/STM32L1xx_HAL_Driver/stm32l1xx_hal_dma.cpp ****   uint32_t tickstart = 0x00;
 810              		.loc 1 430 0
 811 000c 4FF00003 		mov	r3, #0	@ tmp263,
 812 0010 3B61     		str	r3, [r7, #16]	@ tmp263, tickstart
 431:Drivers/STM32L1xx_HAL_Driver/stm32l1xx_hal_dma.cpp ****   
 432:Drivers/STM32L1xx_HAL_Driver/stm32l1xx_hal_dma.cpp ****   /* Get the level transfer complete flag */
 433:Drivers/STM32L1xx_HAL_Driver/stm32l1xx_hal_dma.cpp ****   if(CompleteLevel == HAL_DMA_FULL_TRANSFER)
 813              		.loc 1 433 0
 814 0012 BB68     		ldr	r3, [r7, #8]	@ tmp264, CompleteLevel
 815 0014 002B     		cmp	r3, #0	@ tmp264,
 816 0016 4BD1     		bne	.L55	@,
 434:Drivers/STM32L1xx_HAL_Driver/stm32l1xx_hal_dma.cpp ****   {
 435:Drivers/STM32L1xx_HAL_Driver/stm32l1xx_hal_dma.cpp ****     /* Transfer Complete flag */
 436:Drivers/STM32L1xx_HAL_Driver/stm32l1xx_hal_dma.cpp ****     temp = __HAL_DMA_GET_TC_FLAG_INDEX(hdma);
 817              		.loc 1 436 0
ARM GAS  /tmp/ccg3UWOM.s 			page 23


 818 0018 FB68     		ldr	r3, [r7, #12]	@ tmp265, hdma
 819 001a 1B68     		ldr	r3, [r3, #0]	@ D.6210, hdma_42(D)->Instance
 820 001c 1A46     		mov	r2, r3	@ D.6211, D.6210
 821 001e 46F20803 		movw	r3, #24584	@ tmp266,
 822 0022 C4F20203 		movt	r3, 16386	@ tmp266,
 823 0026 9A42     		cmp	r2, r3	@ D.6211, tmp266
 824 0028 3ED0     		beq	.L56	@,
 825              		.loc 1 436 0 is_stmt 0 discriminator 1
 826 002a FB68     		ldr	r3, [r7, #12]	@ tmp267, hdma
 827 002c 1B68     		ldr	r3, [r3, #0]	@ D.6215, hdma_42(D)->Instance
 828 002e 1A46     		mov	r2, r3	@ D.6216, D.6215
 829 0030 46F21C03 		movw	r3, #24604	@ tmp268,
 830 0034 C4F20203 		movt	r3, 16386	@ tmp268,
 831 0038 9A42     		cmp	r2, r3	@ D.6216, tmp268
 832 003a 32D0     		beq	.L57	@,
 833              		.loc 1 436 0 discriminator 3
 834 003c FB68     		ldr	r3, [r7, #12]	@ tmp269, hdma
 835 003e 1B68     		ldr	r3, [r3, #0]	@ D.6220, hdma_42(D)->Instance
 836 0040 1A46     		mov	r2, r3	@ D.6221, D.6220
 837 0042 46F23003 		movw	r3, #24624	@ tmp270,
 838 0046 C4F20203 		movt	r3, 16386	@ tmp270,
 839 004a 9A42     		cmp	r2, r3	@ D.6221, tmp270
 840 004c 26D0     		beq	.L58	@,
 841              		.loc 1 436 0 discriminator 5
 842 004e FB68     		ldr	r3, [r7, #12]	@ tmp271, hdma
 843 0050 1B68     		ldr	r3, [r3, #0]	@ D.6225, hdma_42(D)->Instance
 844 0052 1A46     		mov	r2, r3	@ D.6226, D.6225
 845 0054 46F24403 		movw	r3, #24644	@ tmp272,
 846 0058 C4F20203 		movt	r3, 16386	@ tmp272,
 847 005c 9A42     		cmp	r2, r3	@ D.6226, tmp272
 848 005e 1AD0     		beq	.L59	@,
 849              		.loc 1 436 0 discriminator 7
 850 0060 FB68     		ldr	r3, [r7, #12]	@ tmp273, hdma
 851 0062 1B68     		ldr	r3, [r3, #0]	@ D.6230, hdma_42(D)->Instance
 852 0064 1A46     		mov	r2, r3	@ D.6231, D.6230
 853 0066 46F25803 		movw	r3, #24664	@ tmp274,
 854 006a C4F20203 		movt	r3, 16386	@ tmp274,
 855 006e 9A42     		cmp	r2, r3	@ D.6231, tmp274
 856 0070 0ED0     		beq	.L60	@,
 857              		.loc 1 436 0 discriminator 9
 858 0072 FB68     		ldr	r3, [r7, #12]	@ tmp275, hdma
 859 0074 1B68     		ldr	r3, [r3, #0]	@ D.6235, hdma_42(D)->Instance
 860 0076 1A46     		mov	r2, r3	@ D.6236, D.6235
 861 0078 46F26C03 		movw	r3, #24684	@ tmp276,
 862 007c C4F20203 		movt	r3, 16386	@ tmp276,
 863 0080 9A42     		cmp	r2, r3	@ D.6236, tmp276
 864 0082 02D1     		bne	.L61	@,
 865              		.loc 1 436 0 discriminator 11
 866 0084 4FF40013 		mov	r3, #2097152	@ iftmp.49,
 867 0088 01E0     		b	.L62	@
 868              	.L61:
 869              		.loc 1 436 0 discriminator 12
 870 008a 4FF00073 		mov	r3, #33554432	@ iftmp.49,
 871              	.L62:
 872 008e 01E0     		b	.L63	@
 873              	.L60:
 874              		.loc 1 436 0 discriminator 10
ARM GAS  /tmp/ccg3UWOM.s 			page 24


 875 0090 4FF40033 		mov	r3, #131072	@ iftmp.48,
 876              	.L63:
 877 0094 01E0     		b	.L64	@
 878              	.L59:
 879              		.loc 1 436 0 discriminator 8
 880 0096 4FF40053 		mov	r3, #8192	@ iftmp.47,
 881              	.L64:
 882 009a 01E0     		b	.L65	@
 883              	.L58:
 884              		.loc 1 436 0 discriminator 6
 885 009c 4FF40073 		mov	r3, #512	@ iftmp.46,
 886              	.L65:
 887 00a0 01E0     		b	.L66	@
 888              	.L57:
 889              		.loc 1 436 0 discriminator 4
 890 00a2 4FF02003 		mov	r3, #32	@ iftmp.45,
 891              	.L66:
 892 00a6 01E0     		b	.L67	@
 893              	.L56:
 894              		.loc 1 436 0 discriminator 2
 895 00a8 4FF00203 		mov	r3, #2	@ iftmp.44,
 896              	.L67:
 897              		.loc 1 436 0 discriminator 18
 898 00ac 7B61     		str	r3, [r7, #20]	@ iftmp.44, temp
 899 00ae 4AE0     		b	.L68	@
 900              	.L55:
 437:Drivers/STM32L1xx_HAL_Driver/stm32l1xx_hal_dma.cpp ****   }
 438:Drivers/STM32L1xx_HAL_Driver/stm32l1xx_hal_dma.cpp ****   else
 439:Drivers/STM32L1xx_HAL_Driver/stm32l1xx_hal_dma.cpp ****   {
 440:Drivers/STM32L1xx_HAL_Driver/stm32l1xx_hal_dma.cpp ****     /* Half Transfer Complete flag */
 441:Drivers/STM32L1xx_HAL_Driver/stm32l1xx_hal_dma.cpp ****     temp = __HAL_DMA_GET_HT_FLAG_INDEX(hdma);
 901              		.loc 1 441 0 is_stmt 1
 902 00b0 FB68     		ldr	r3, [r7, #12]	@ tmp277, hdma
 903 00b2 1B68     		ldr	r3, [r3, #0]	@ D.6247, hdma_42(D)->Instance
 904 00b4 1A46     		mov	r2, r3	@ D.6248, D.6247
 905 00b6 46F20803 		movw	r3, #24584	@ tmp278,
 906 00ba C4F20203 		movt	r3, 16386	@ tmp278,
 907 00be 9A42     		cmp	r2, r3	@ D.6248, tmp278
 908 00c0 3ED0     		beq	.L69	@,
 909              		.loc 1 441 0 is_stmt 0 discriminator 1
 910 00c2 FB68     		ldr	r3, [r7, #12]	@ tmp279, hdma
 911 00c4 1B68     		ldr	r3, [r3, #0]	@ D.6252, hdma_42(D)->Instance
 912 00c6 1A46     		mov	r2, r3	@ D.6253, D.6252
 913 00c8 46F21C03 		movw	r3, #24604	@ tmp280,
 914 00cc C4F20203 		movt	r3, 16386	@ tmp280,
 915 00d0 9A42     		cmp	r2, r3	@ D.6253, tmp280
 916 00d2 32D0     		beq	.L70	@,
 917              		.loc 1 441 0 discriminator 3
 918 00d4 FB68     		ldr	r3, [r7, #12]	@ tmp281, hdma
 919 00d6 1B68     		ldr	r3, [r3, #0]	@ D.6257, hdma_42(D)->Instance
 920 00d8 1A46     		mov	r2, r3	@ D.6258, D.6257
 921 00da 46F23003 		movw	r3, #24624	@ tmp282,
 922 00de C4F20203 		movt	r3, 16386	@ tmp282,
 923 00e2 9A42     		cmp	r2, r3	@ D.6258, tmp282
 924 00e4 26D0     		beq	.L71	@,
 925              		.loc 1 441 0 discriminator 5
 926 00e6 FB68     		ldr	r3, [r7, #12]	@ tmp283, hdma
ARM GAS  /tmp/ccg3UWOM.s 			page 25


 927 00e8 1B68     		ldr	r3, [r3, #0]	@ D.6262, hdma_42(D)->Instance
 928 00ea 1A46     		mov	r2, r3	@ D.6263, D.6262
 929 00ec 46F24403 		movw	r3, #24644	@ tmp284,
 930 00f0 C4F20203 		movt	r3, 16386	@ tmp284,
 931 00f4 9A42     		cmp	r2, r3	@ D.6263, tmp284
 932 00f6 1AD0     		beq	.L72	@,
 933              		.loc 1 441 0 discriminator 7
 934 00f8 FB68     		ldr	r3, [r7, #12]	@ tmp285, hdma
 935 00fa 1B68     		ldr	r3, [r3, #0]	@ D.6267, hdma_42(D)->Instance
 936 00fc 1A46     		mov	r2, r3	@ D.6268, D.6267
 937 00fe 46F25803 		movw	r3, #24664	@ tmp286,
 938 0102 C4F20203 		movt	r3, 16386	@ tmp286,
 939 0106 9A42     		cmp	r2, r3	@ D.6268, tmp286
 940 0108 0ED0     		beq	.L73	@,
 941              		.loc 1 441 0 discriminator 9
 942 010a FB68     		ldr	r3, [r7, #12]	@ tmp287, hdma
 943 010c 1B68     		ldr	r3, [r3, #0]	@ D.6272, hdma_42(D)->Instance
 944 010e 1A46     		mov	r2, r3	@ D.6273, D.6272
 945 0110 46F26C03 		movw	r3, #24684	@ tmp288,
 946 0114 C4F20203 		movt	r3, 16386	@ tmp288,
 947 0118 9A42     		cmp	r2, r3	@ D.6273, tmp288
 948 011a 02D1     		bne	.L74	@,
 949              		.loc 1 441 0 discriminator 11
 950 011c 4FF48003 		mov	r3, #4194304	@ iftmp.55,
 951 0120 01E0     		b	.L75	@
 952              	.L74:
 953              		.loc 1 441 0 discriminator 12
 954 0122 4FF08063 		mov	r3, #67108864	@ iftmp.55,
 955              	.L75:
 956 0126 01E0     		b	.L76	@
 957              	.L73:
 958              		.loc 1 441 0 discriminator 10
 959 0128 4FF48023 		mov	r3, #262144	@ iftmp.54,
 960              	.L76:
 961 012c 01E0     		b	.L77	@
 962              	.L72:
 963              		.loc 1 441 0 discriminator 8
 964 012e 4FF48043 		mov	r3, #16384	@ iftmp.53,
 965              	.L77:
 966 0132 01E0     		b	.L78	@
 967              	.L71:
 968              		.loc 1 441 0 discriminator 6
 969 0134 4FF48063 		mov	r3, #1024	@ iftmp.52,
 970              	.L78:
 971 0138 01E0     		b	.L79	@
 972              	.L70:
 973              		.loc 1 441 0 discriminator 4
 974 013a 4FF04003 		mov	r3, #64	@ iftmp.51,
 975              	.L79:
 976 013e 01E0     		b	.L80	@
 977              	.L69:
 978              		.loc 1 441 0 discriminator 2
 979 0140 4FF00403 		mov	r3, #4	@ iftmp.50,
 980              	.L80:
 981              		.loc 1 441 0 discriminator 18
 982 0144 7B61     		str	r3, [r7, #20]	@ iftmp.50, temp
 983              	.L68:
ARM GAS  /tmp/ccg3UWOM.s 			page 26


 442:Drivers/STM32L1xx_HAL_Driver/stm32l1xx_hal_dma.cpp ****   } 
 443:Drivers/STM32L1xx_HAL_Driver/stm32l1xx_hal_dma.cpp ****   
 444:Drivers/STM32L1xx_HAL_Driver/stm32l1xx_hal_dma.cpp ****   /* Get timeout */
 445:Drivers/STM32L1xx_HAL_Driver/stm32l1xx_hal_dma.cpp ****   tickstart = HAL_GetTick();
 984              		.loc 1 445 0 is_stmt 1
 985 0146 FFF7FEFF 		bl	HAL_GetTick	@
 986 014a 3861     		str	r0, [r7, #16]	@, tickstart
 446:Drivers/STM32L1xx_HAL_Driver/stm32l1xx_hal_dma.cpp **** 
 447:Drivers/STM32L1xx_HAL_Driver/stm32l1xx_hal_dma.cpp ****   while(__HAL_DMA_GET_FLAG(hdma, temp) == RESET)
 987              		.loc 1 447 0
 988 014c E1E0     		b	.L81	@
 989              	.L111:
 448:Drivers/STM32L1xx_HAL_Driver/stm32l1xx_hal_dma.cpp ****   {
 449:Drivers/STM32L1xx_HAL_Driver/stm32l1xx_hal_dma.cpp ****     if((__HAL_DMA_GET_FLAG(hdma, __HAL_DMA_GET_TE_FLAG_INDEX(hdma)) != RESET))
 990              		.loc 1 449 0
 991 014e 4FF4C043 		mov	r3, #24576	@ D.6290,
 992 0152 C4F20203 		movt	r3, 16386	@ D.6290,
 993 0156 1A68     		ldr	r2, [r3, #0]	@ D.6291, D.6290_98->ISR
 994 0158 FB68     		ldr	r3, [r7, #12]	@ tmp289, hdma
 995 015a 1B68     		ldr	r3, [r3, #0]	@ D.6293, hdma_42(D)->Instance
 996 015c 1946     		mov	r1, r3	@ D.6294, D.6293
 997 015e 46F20803 		movw	r3, #24584	@ tmp290,
 998 0162 C4F20203 		movt	r3, 16386	@ tmp290,
 999 0166 9942     		cmp	r1, r3	@ D.6294, tmp290
 1000 0168 3ED0     		beq	.L82	@,
 1001              		.loc 1 449 0 is_stmt 0 discriminator 1
 1002 016a FB68     		ldr	r3, [r7, #12]	@ tmp291, hdma
 1003 016c 1B68     		ldr	r3, [r3, #0]	@ D.6298, hdma_42(D)->Instance
 1004 016e 1946     		mov	r1, r3	@ D.6299, D.6298
 1005 0170 46F21C03 		movw	r3, #24604	@ tmp292,
 1006 0174 C4F20203 		movt	r3, 16386	@ tmp292,
 1007 0178 9942     		cmp	r1, r3	@ D.6299, tmp292
 1008 017a 32D0     		beq	.L83	@,
 1009              		.loc 1 449 0 discriminator 3
 1010 017c FB68     		ldr	r3, [r7, #12]	@ tmp293, hdma
 1011 017e 1B68     		ldr	r3, [r3, #0]	@ D.6303, hdma_42(D)->Instance
 1012 0180 1946     		mov	r1, r3	@ D.6304, D.6303
 1013 0182 46F23003 		movw	r3, #24624	@ tmp294,
 1014 0186 C4F20203 		movt	r3, 16386	@ tmp294,
 1015 018a 9942     		cmp	r1, r3	@ D.6304, tmp294
 1016 018c 26D0     		beq	.L84	@,
 1017              		.loc 1 449 0 discriminator 5
 1018 018e FB68     		ldr	r3, [r7, #12]	@ tmp295, hdma
 1019 0190 1B68     		ldr	r3, [r3, #0]	@ D.6308, hdma_42(D)->Instance
 1020 0192 1946     		mov	r1, r3	@ D.6309, D.6308
 1021 0194 46F24403 		movw	r3, #24644	@ tmp296,
 1022 0198 C4F20203 		movt	r3, 16386	@ tmp296,
 1023 019c 9942     		cmp	r1, r3	@ D.6309, tmp296
 1024 019e 1AD0     		beq	.L85	@,
 1025              		.loc 1 449 0 discriminator 7
 1026 01a0 FB68     		ldr	r3, [r7, #12]	@ tmp297, hdma
 1027 01a2 1B68     		ldr	r3, [r3, #0]	@ D.6313, hdma_42(D)->Instance
 1028 01a4 1946     		mov	r1, r3	@ D.6314, D.6313
 1029 01a6 46F25803 		movw	r3, #24664	@ tmp298,
 1030 01aa C4F20203 		movt	r3, 16386	@ tmp298,
 1031 01ae 9942     		cmp	r1, r3	@ D.6314, tmp298
 1032 01b0 0ED0     		beq	.L86	@,
ARM GAS  /tmp/ccg3UWOM.s 			page 27


 1033              		.loc 1 449 0 discriminator 9
 1034 01b2 FB68     		ldr	r3, [r7, #12]	@ tmp299, hdma
 1035 01b4 1B68     		ldr	r3, [r3, #0]	@ D.6318, hdma_42(D)->Instance
 1036 01b6 1946     		mov	r1, r3	@ D.6319, D.6318
 1037 01b8 46F26C03 		movw	r3, #24684	@ tmp300,
 1038 01bc C4F20203 		movt	r3, 16386	@ tmp300,
 1039 01c0 9942     		cmp	r1, r3	@ D.6319, tmp300
 1040 01c2 02D1     		bne	.L87	@,
 1041              		.loc 1 449 0 discriminator 11
 1042 01c4 4FF40003 		mov	r3, #8388608	@ iftmp.63,
 1043 01c8 01E0     		b	.L88	@
 1044              	.L87:
 1045              		.loc 1 449 0 discriminator 12
 1046 01ca 4FF00063 		mov	r3, #134217728	@ iftmp.63,
 1047              	.L88:
 1048 01ce 01E0     		b	.L89	@
 1049              	.L86:
 1050              		.loc 1 449 0 discriminator 10
 1051 01d0 4FF40023 		mov	r3, #524288	@ iftmp.62,
 1052              	.L89:
 1053 01d4 01E0     		b	.L90	@
 1054              	.L85:
 1055              		.loc 1 449 0 discriminator 8
 1056 01d6 4FF40043 		mov	r3, #32768	@ iftmp.61,
 1057              	.L90:
 1058 01da 01E0     		b	.L91	@
 1059              	.L84:
 1060              		.loc 1 449 0 discriminator 6
 1061 01dc 4FF40063 		mov	r3, #2048	@ iftmp.60,
 1062              	.L91:
 1063 01e0 01E0     		b	.L92	@
 1064              	.L83:
 1065              		.loc 1 449 0 discriminator 4
 1066 01e2 4FF08003 		mov	r3, #128	@ iftmp.59,
 1067              	.L92:
 1068 01e6 01E0     		b	.L93	@
 1069              	.L82:
 1070              		.loc 1 449 0 discriminator 2
 1071 01e8 4FF00803 		mov	r3, #8	@ iftmp.58,
 1072              	.L93:
 1073              		.loc 1 449 0 discriminator 18
 1074 01ec 1340     		ands	r3, r3, r2	@, D.6328, iftmp.58, D.6291
 1075 01ee 002B     		cmp	r3, #0	@ D.6328,
 1076 01f0 0CBF     		ite	eq	@
 1077 01f2 0023     		moveq	r3, #0	@, tmp302
 1078 01f4 0123     		movne	r3, #1	@, tmp302
 1079 01f6 DBB2     		uxtb	r3, r3	@ retval.57, tmp301
 1080 01f8 002B     		cmp	r3, #0	@ retval.57,
 1081 01fa 61D0     		beq	.L94	@,
 450:Drivers/STM32L1xx_HAL_Driver/stm32l1xx_hal_dma.cpp ****     {      
 451:Drivers/STM32L1xx_HAL_Driver/stm32l1xx_hal_dma.cpp ****       /* Clear the transfer error flags */
 452:Drivers/STM32L1xx_HAL_Driver/stm32l1xx_hal_dma.cpp ****       __HAL_DMA_CLEAR_FLAG(hdma, __HAL_DMA_GET_TE_FLAG_INDEX(hdma));
 1082              		.loc 1 452 0 is_stmt 1
 1083 01fc 4FF4C043 		mov	r3, #24576	@ D.6331,
 1084 0200 C4F20203 		movt	r3, 16386	@ D.6331,
 1085 0204 FA68     		ldr	r2, [r7, #12]	@ tmp303, hdma
 1086 0206 1268     		ldr	r2, [r2, #0]	@ D.6333, hdma_42(D)->Instance
ARM GAS  /tmp/ccg3UWOM.s 			page 28


 1087 0208 1146     		mov	r1, r2	@ D.6334, D.6333
 1088 020a 46F20802 		movw	r2, #24584	@ tmp304,
 1089 020e C4F20202 		movt	r2, 16386	@ tmp304,
 1090 0212 9142     		cmp	r1, r2	@ D.6334, tmp304
 1091 0214 3ED0     		beq	.L95	@,
 1092              		.loc 1 452 0 is_stmt 0 discriminator 1
 1093 0216 FA68     		ldr	r2, [r7, #12]	@ tmp305, hdma
 1094 0218 1268     		ldr	r2, [r2, #0]	@ D.6338, hdma_42(D)->Instance
 1095 021a 1146     		mov	r1, r2	@ D.6339, D.6338
 1096 021c 46F21C02 		movw	r2, #24604	@ tmp306,
 1097 0220 C4F20202 		movt	r2, 16386	@ tmp306,
 1098 0224 9142     		cmp	r1, r2	@ D.6339, tmp306
 1099 0226 32D0     		beq	.L96	@,
 1100              		.loc 1 452 0 discriminator 3
 1101 0228 FA68     		ldr	r2, [r7, #12]	@ tmp307, hdma
 1102 022a 1268     		ldr	r2, [r2, #0]	@ D.6343, hdma_42(D)->Instance
 1103 022c 1146     		mov	r1, r2	@ D.6344, D.6343
 1104 022e 46F23002 		movw	r2, #24624	@ tmp308,
 1105 0232 C4F20202 		movt	r2, 16386	@ tmp308,
 1106 0236 9142     		cmp	r1, r2	@ D.6344, tmp308
 1107 0238 26D0     		beq	.L97	@,
 1108              		.loc 1 452 0 discriminator 5
 1109 023a FA68     		ldr	r2, [r7, #12]	@ tmp309, hdma
 1110 023c 1268     		ldr	r2, [r2, #0]	@ D.6348, hdma_42(D)->Instance
 1111 023e 1146     		mov	r1, r2	@ D.6349, D.6348
 1112 0240 46F24402 		movw	r2, #24644	@ tmp310,
 1113 0244 C4F20202 		movt	r2, 16386	@ tmp310,
 1114 0248 9142     		cmp	r1, r2	@ D.6349, tmp310
 1115 024a 1AD0     		beq	.L98	@,
 1116              		.loc 1 452 0 discriminator 7
 1117 024c FA68     		ldr	r2, [r7, #12]	@ tmp311, hdma
 1118 024e 1268     		ldr	r2, [r2, #0]	@ D.6353, hdma_42(D)->Instance
 1119 0250 1146     		mov	r1, r2	@ D.6354, D.6353
 1120 0252 46F25802 		movw	r2, #24664	@ tmp312,
 1121 0256 C4F20202 		movt	r2, 16386	@ tmp312,
 1122 025a 9142     		cmp	r1, r2	@ D.6354, tmp312
 1123 025c 0ED0     		beq	.L99	@,
 1124              		.loc 1 452 0 discriminator 9
 1125 025e FA68     		ldr	r2, [r7, #12]	@ tmp313, hdma
 1126 0260 1268     		ldr	r2, [r2, #0]	@ D.6358, hdma_42(D)->Instance
 1127 0262 1146     		mov	r1, r2	@ D.6359, D.6358
 1128 0264 46F26C02 		movw	r2, #24684	@ tmp314,
 1129 0268 C4F20202 		movt	r2, 16386	@ tmp314,
 1130 026c 9142     		cmp	r1, r2	@ D.6359, tmp314
 1131 026e 02D1     		bne	.L100	@,
 1132              		.loc 1 452 0 discriminator 11
 1133 0270 4FF40002 		mov	r2, #8388608	@ iftmp.69,
 1134 0274 01E0     		b	.L101	@
 1135              	.L100:
 1136              		.loc 1 452 0 discriminator 12
 1137 0276 4FF00062 		mov	r2, #134217728	@ iftmp.69,
 1138              	.L101:
 1139 027a 01E0     		b	.L102	@
 1140              	.L99:
 1141              		.loc 1 452 0 discriminator 10
 1142 027c 4FF40022 		mov	r2, #524288	@ iftmp.68,
 1143              	.L102:
ARM GAS  /tmp/ccg3UWOM.s 			page 29


 1144 0280 01E0     		b	.L103	@
 1145              	.L98:
 1146              		.loc 1 452 0 discriminator 8
 1147 0282 4FF40042 		mov	r2, #32768	@ iftmp.67,
 1148              	.L103:
 1149 0286 01E0     		b	.L104	@
 1150              	.L97:
 1151              		.loc 1 452 0 discriminator 6
 1152 0288 4FF40062 		mov	r2, #2048	@ iftmp.66,
 1153              	.L104:
 1154 028c 01E0     		b	.L105	@
 1155              	.L96:
 1156              		.loc 1 452 0 discriminator 4
 1157 028e 4FF08002 		mov	r2, #128	@ iftmp.65,
 1158              	.L105:
 1159 0292 01E0     		b	.L106	@
 1160              	.L95:
 1161              		.loc 1 452 0 discriminator 2
 1162 0294 4FF00802 		mov	r2, #8	@ iftmp.64,
 1163              	.L106:
 1164              		.loc 1 452 0 discriminator 18
 1165 0298 5A60     		str	r2, [r3, #4]	@ iftmp.64, D.6331_126->IFCR
 453:Drivers/STM32L1xx_HAL_Driver/stm32l1xx_hal_dma.cpp ****       
 454:Drivers/STM32L1xx_HAL_Driver/stm32l1xx_hal_dma.cpp ****       /* Update error code */
 455:Drivers/STM32L1xx_HAL_Driver/stm32l1xx_hal_dma.cpp ****       SET_BIT(hdma->ErrorCode, HAL_DMA_ERROR_TE);
 1166              		.loc 1 455 0 is_stmt 1 discriminator 18
 1167 029a FB68     		ldr	r3, [r7, #12]	@ tmp315, hdma
 1168 029c 5B6B     		ldr	r3, [r3, #52]	@ D.6368, hdma_42(D)->ErrorCode
 1169 029e 43F00102 		orr	r2, r3, #1	@ D.6369, D.6368,
 1170 02a2 FB68     		ldr	r3, [r7, #12]	@ tmp316, hdma
 1171 02a4 5A63     		str	r2, [r3, #52]	@ D.6369, hdma_42(D)->ErrorCode
 456:Drivers/STM32L1xx_HAL_Driver/stm32l1xx_hal_dma.cpp **** 
 457:Drivers/STM32L1xx_HAL_Driver/stm32l1xx_hal_dma.cpp ****       /* Change the DMA state */
 458:Drivers/STM32L1xx_HAL_Driver/stm32l1xx_hal_dma.cpp ****       hdma->State= HAL_DMA_STATE_ERROR;       
 1172              		.loc 1 458 0 discriminator 18
 1173 02a6 FB68     		ldr	r3, [r7, #12]	@ tmp317, hdma
 1174 02a8 4FF00402 		mov	r2, #4	@ tmp318,
 1175 02ac 83F82120 		strb	r2, [r3, #33]	@ tmp319, hdma_42(D)->State
 459:Drivers/STM32L1xx_HAL_Driver/stm32l1xx_hal_dma.cpp ****       
 460:Drivers/STM32L1xx_HAL_Driver/stm32l1xx_hal_dma.cpp ****       /* Process Unlocked */
 461:Drivers/STM32L1xx_HAL_Driver/stm32l1xx_hal_dma.cpp ****       __HAL_UNLOCK(hdma);
 1176              		.loc 1 461 0 discriminator 18
 1177 02b0 FB68     		ldr	r3, [r7, #12]	@ tmp320, hdma
 1178 02b2 4FF00002 		mov	r2, #0	@ tmp321,
 1179 02b6 83F82020 		strb	r2, [r3, #32]	@ tmp322, hdma_42(D)->Lock
 462:Drivers/STM32L1xx_HAL_Driver/stm32l1xx_hal_dma.cpp ****       
 463:Drivers/STM32L1xx_HAL_Driver/stm32l1xx_hal_dma.cpp ****       return HAL_ERROR;      
 1180              		.loc 1 463 0 discriminator 18
 1181 02ba 4FF00103 		mov	r3, #1	@ D.6372,
 1182 02be EFE0     		b	.L107	@
 1183              	.L94:
 464:Drivers/STM32L1xx_HAL_Driver/stm32l1xx_hal_dma.cpp ****     }      
 465:Drivers/STM32L1xx_HAL_Driver/stm32l1xx_hal_dma.cpp ****     /* Check for the Timeout */
 466:Drivers/STM32L1xx_HAL_Driver/stm32l1xx_hal_dma.cpp ****     if(Timeout != HAL_MAX_DELAY)
 1184              		.loc 1 466 0
 1185 02c0 7B68     		ldr	r3, [r7, #4]	@ tmp323, Timeout
 1186 02c2 B3F1FF3F 		cmp	r3, #-1	@ tmp323,
ARM GAS  /tmp/ccg3UWOM.s 			page 30


 1187 02c6 24D0     		beq	.L81	@,
 467:Drivers/STM32L1xx_HAL_Driver/stm32l1xx_hal_dma.cpp ****     {
 468:Drivers/STM32L1xx_HAL_Driver/stm32l1xx_hal_dma.cpp ****       if((Timeout == 0)||((HAL_GetTick() - tickstart ) > Timeout))
 1188              		.loc 1 468 0
 1189 02c8 7B68     		ldr	r3, [r7, #4]	@ tmp324, Timeout
 1190 02ca 002B     		cmp	r3, #0	@ tmp324,
 1191 02cc 07D0     		beq	.L108	@,
 1192              		.loc 1 468 0 is_stmt 0 discriminator 2
 1193 02ce FFF7FEFF 		bl	HAL_GetTick	@
 1194 02d2 0246     		mov	r2, r0	@ D.6381,
 1195 02d4 3B69     		ldr	r3, [r7, #16]	@ tmp325, tickstart
 1196 02d6 D21A     		subs	r2, r2, r3	@ D.6382, D.6381, tmp325
 1197 02d8 7B68     		ldr	r3, [r7, #4]	@ tmp326, Timeout
 1198 02da 9A42     		cmp	r2, r3	@ D.6382, tmp326
 1199 02dc 02D9     		bls	.L109	@,
 1200              	.L108:
 1201              		.loc 1 468 0 discriminator 1
 1202 02de 4FF00103 		mov	r3, #1	@ iftmp.71,
 1203 02e2 01E0     		b	.L110	@
 1204              	.L109:
 1205              		.loc 1 468 0 discriminator 3
 1206 02e4 4FF00003 		mov	r3, #0	@ iftmp.71,
 1207              	.L110:
 1208              		.loc 1 468 0 discriminator 4
 1209 02e8 002B     		cmp	r3, #0	@ retval.70,
 1210 02ea 12D0     		beq	.L81	@,
 469:Drivers/STM32L1xx_HAL_Driver/stm32l1xx_hal_dma.cpp ****       {
 470:Drivers/STM32L1xx_HAL_Driver/stm32l1xx_hal_dma.cpp ****         /* Update error code */
 471:Drivers/STM32L1xx_HAL_Driver/stm32l1xx_hal_dma.cpp ****         SET_BIT(hdma->ErrorCode, HAL_DMA_ERROR_TIMEOUT);
 1211              		.loc 1 471 0 is_stmt 1
 1212 02ec FB68     		ldr	r3, [r7, #12]	@ tmp327, hdma
 1213 02ee 5B6B     		ldr	r3, [r3, #52]	@ D.6385, hdma_42(D)->ErrorCode
 1214 02f0 43F02002 		orr	r2, r3, #32	@ D.6386, D.6385,
 1215 02f4 FB68     		ldr	r3, [r7, #12]	@ tmp328, hdma
 1216 02f6 5A63     		str	r2, [r3, #52]	@ D.6386, hdma_42(D)->ErrorCode
 472:Drivers/STM32L1xx_HAL_Driver/stm32l1xx_hal_dma.cpp ****         
 473:Drivers/STM32L1xx_HAL_Driver/stm32l1xx_hal_dma.cpp ****         /* Change the DMA state */
 474:Drivers/STM32L1xx_HAL_Driver/stm32l1xx_hal_dma.cpp ****         hdma->State= HAL_DMA_STATE_TIMEOUT;
 1217              		.loc 1 474 0
 1218 02f8 FB68     		ldr	r3, [r7, #12]	@ tmp329, hdma
 1219 02fa 4FF00302 		mov	r2, #3	@ tmp330,
 1220 02fe 83F82120 		strb	r2, [r3, #33]	@ tmp331, hdma_42(D)->State
 475:Drivers/STM32L1xx_HAL_Driver/stm32l1xx_hal_dma.cpp ****         
 476:Drivers/STM32L1xx_HAL_Driver/stm32l1xx_hal_dma.cpp ****         /* Process Unlocked */
 477:Drivers/STM32L1xx_HAL_Driver/stm32l1xx_hal_dma.cpp ****         __HAL_UNLOCK(hdma);
 1221              		.loc 1 477 0
 1222 0302 FB68     		ldr	r3, [r7, #12]	@ tmp332, hdma
 1223 0304 4FF00002 		mov	r2, #0	@ tmp333,
 1224 0308 83F82020 		strb	r2, [r3, #32]	@ tmp334, hdma_42(D)->Lock
 478:Drivers/STM32L1xx_HAL_Driver/stm32l1xx_hal_dma.cpp ****       
 479:Drivers/STM32L1xx_HAL_Driver/stm32l1xx_hal_dma.cpp ****         return HAL_TIMEOUT;
 1225              		.loc 1 479 0
 1226 030c 4FF00303 		mov	r3, #3	@ D.6372,
 1227 0310 C6E0     		b	.L107	@
 1228              	.L81:
 447:Drivers/STM32L1xx_HAL_Driver/stm32l1xx_hal_dma.cpp ****   while(__HAL_DMA_GET_FLAG(hdma, temp) == RESET)
 1229              		.loc 1 447 0 discriminator 1
ARM GAS  /tmp/ccg3UWOM.s 			page 31


 1230 0312 4FF4C043 		mov	r3, #24576	@ D.6286,
 1231 0316 C4F20203 		movt	r3, 16386	@ D.6286,
 1232 031a 1A68     		ldr	r2, [r3, #0]	@ D.6287, D.6286_94->ISR
 1233 031c 7B69     		ldr	r3, [r7, #20]	@ tmp335, temp
 1234 031e 1340     		ands	r3, r3, r2	@, D.6288, tmp335, D.6287
 1235 0320 002B     		cmp	r3, #0	@ D.6288,
 1236 0322 14BF     		ite	ne	@
 1237 0324 0023     		movne	r3, #0	@, tmp337
 1238 0326 0123     		moveq	r3, #1	@, tmp337
 1239 0328 DBB2     		uxtb	r3, r3	@ retval.56, tmp336
 1240 032a 002B     		cmp	r3, #0	@ retval.56,
 1241 032c 7FF40FAF 		bne	.L111	@,
 480:Drivers/STM32L1xx_HAL_Driver/stm32l1xx_hal_dma.cpp ****       }
 481:Drivers/STM32L1xx_HAL_Driver/stm32l1xx_hal_dma.cpp ****     }
 482:Drivers/STM32L1xx_HAL_Driver/stm32l1xx_hal_dma.cpp ****   }
 483:Drivers/STM32L1xx_HAL_Driver/stm32l1xx_hal_dma.cpp **** 
 484:Drivers/STM32L1xx_HAL_Driver/stm32l1xx_hal_dma.cpp ****   if(CompleteLevel == HAL_DMA_FULL_TRANSFER)
 1242              		.loc 1 484 0
 1243 0330 BB68     		ldr	r3, [r7, #8]	@ tmp338, CompleteLevel
 1244 0332 002B     		cmp	r3, #0	@ tmp338,
 1245 0334 59D1     		bne	.L112	@,
 485:Drivers/STM32L1xx_HAL_Driver/stm32l1xx_hal_dma.cpp ****   {
 486:Drivers/STM32L1xx_HAL_Driver/stm32l1xx_hal_dma.cpp ****     /* Clear the transfer complete flag */
 487:Drivers/STM32L1xx_HAL_Driver/stm32l1xx_hal_dma.cpp ****     __HAL_DMA_CLEAR_FLAG(hdma, __HAL_DMA_GET_TC_FLAG_INDEX(hdma));
 1246              		.loc 1 487 0
 1247 0336 4FF4C043 		mov	r3, #24576	@ D.6392,
 1248 033a C4F20203 		movt	r3, 16386	@ D.6392,
 1249 033e FA68     		ldr	r2, [r7, #12]	@ tmp339, hdma
 1250 0340 1268     		ldr	r2, [r2, #0]	@ D.6394, hdma_42(D)->Instance
 1251 0342 1146     		mov	r1, r2	@ D.6395, D.6394
 1252 0344 46F20802 		movw	r2, #24584	@ tmp340,
 1253 0348 C4F20202 		movt	r2, 16386	@ tmp340,
 1254 034c 9142     		cmp	r1, r2	@ D.6395, tmp340
 1255 034e 3ED0     		beq	.L113	@,
 1256              		.loc 1 487 0 is_stmt 0 discriminator 1
 1257 0350 FA68     		ldr	r2, [r7, #12]	@ tmp341, hdma
 1258 0352 1268     		ldr	r2, [r2, #0]	@ D.6399, hdma_42(D)->Instance
 1259 0354 1146     		mov	r1, r2	@ D.6400, D.6399
 1260 0356 46F21C02 		movw	r2, #24604	@ tmp342,
 1261 035a C4F20202 		movt	r2, 16386	@ tmp342,
 1262 035e 9142     		cmp	r1, r2	@ D.6400, tmp342
 1263 0360 32D0     		beq	.L114	@,
 1264              		.loc 1 487 0 discriminator 3
 1265 0362 FA68     		ldr	r2, [r7, #12]	@ tmp343, hdma
 1266 0364 1268     		ldr	r2, [r2, #0]	@ D.6404, hdma_42(D)->Instance
 1267 0366 1146     		mov	r1, r2	@ D.6405, D.6404
 1268 0368 46F23002 		movw	r2, #24624	@ tmp344,
 1269 036c C4F20202 		movt	r2, 16386	@ tmp344,
 1270 0370 9142     		cmp	r1, r2	@ D.6405, tmp344
 1271 0372 26D0     		beq	.L115	@,
 1272              		.loc 1 487 0 discriminator 5
 1273 0374 FA68     		ldr	r2, [r7, #12]	@ tmp345, hdma
 1274 0376 1268     		ldr	r2, [r2, #0]	@ D.6409, hdma_42(D)->Instance
 1275 0378 1146     		mov	r1, r2	@ D.6410, D.6409
 1276 037a 46F24402 		movw	r2, #24644	@ tmp346,
 1277 037e C4F20202 		movt	r2, 16386	@ tmp346,
 1278 0382 9142     		cmp	r1, r2	@ D.6410, tmp346
ARM GAS  /tmp/ccg3UWOM.s 			page 32


 1279 0384 1AD0     		beq	.L116	@,
 1280              		.loc 1 487 0 discriminator 7
 1281 0386 FA68     		ldr	r2, [r7, #12]	@ tmp347, hdma
 1282 0388 1268     		ldr	r2, [r2, #0]	@ D.6414, hdma_42(D)->Instance
 1283 038a 1146     		mov	r1, r2	@ D.6415, D.6414
 1284 038c 46F25802 		movw	r2, #24664	@ tmp348,
 1285 0390 C4F20202 		movt	r2, 16386	@ tmp348,
 1286 0394 9142     		cmp	r1, r2	@ D.6415, tmp348
 1287 0396 0ED0     		beq	.L117	@,
 1288              		.loc 1 487 0 discriminator 9
 1289 0398 FA68     		ldr	r2, [r7, #12]	@ tmp349, hdma
 1290 039a 1268     		ldr	r2, [r2, #0]	@ D.6419, hdma_42(D)->Instance
 1291 039c 1146     		mov	r1, r2	@ D.6420, D.6419
 1292 039e 46F26C02 		movw	r2, #24684	@ tmp350,
 1293 03a2 C4F20202 		movt	r2, 16386	@ tmp350,
 1294 03a6 9142     		cmp	r1, r2	@ D.6420, tmp350
 1295 03a8 02D1     		bne	.L118	@,
 1296              		.loc 1 487 0 discriminator 11
 1297 03aa 4FF40012 		mov	r2, #2097152	@ iftmp.77,
 1298 03ae 01E0     		b	.L119	@
 1299              	.L118:
 1300              		.loc 1 487 0 discriminator 12
 1301 03b0 4FF00072 		mov	r2, #33554432	@ iftmp.77,
 1302              	.L119:
 1303 03b4 01E0     		b	.L120	@
 1304              	.L117:
 1305              		.loc 1 487 0 discriminator 10
 1306 03b6 4FF40032 		mov	r2, #131072	@ iftmp.76,
 1307              	.L120:
 1308 03ba 01E0     		b	.L121	@
 1309              	.L116:
 1310              		.loc 1 487 0 discriminator 8
 1311 03bc 4FF40052 		mov	r2, #8192	@ iftmp.75,
 1312              	.L121:
 1313 03c0 01E0     		b	.L122	@
 1314              	.L115:
 1315              		.loc 1 487 0 discriminator 6
 1316 03c2 4FF40072 		mov	r2, #512	@ iftmp.74,
 1317              	.L122:
 1318 03c6 01E0     		b	.L123	@
 1319              	.L114:
 1320              		.loc 1 487 0 discriminator 4
 1321 03c8 4FF02002 		mov	r2, #32	@ iftmp.73,
 1322              	.L123:
 1323 03cc 01E0     		b	.L124	@
 1324              	.L113:
 1325              		.loc 1 487 0 discriminator 2
 1326 03ce 4FF00202 		mov	r2, #2	@ iftmp.72,
 1327              	.L124:
 1328              		.loc 1 487 0 discriminator 18
 1329 03d2 5A60     		str	r2, [r3, #4]	@ iftmp.72, D.6392_163->IFCR
 488:Drivers/STM32L1xx_HAL_Driver/stm32l1xx_hal_dma.cpp **** 
 489:Drivers/STM32L1xx_HAL_Driver/stm32l1xx_hal_dma.cpp ****     /* The selected Channelx EN bit is cleared (DMA is disabled and 
 490:Drivers/STM32L1xx_HAL_Driver/stm32l1xx_hal_dma.cpp ****     all transfers are complete) */
 491:Drivers/STM32L1xx_HAL_Driver/stm32l1xx_hal_dma.cpp ****     hdma->State = HAL_DMA_STATE_READY;
 1330              		.loc 1 491 0 is_stmt 1 discriminator 18
 1331 03d4 FB68     		ldr	r3, [r7, #12]	@ tmp351, hdma
ARM GAS  /tmp/ccg3UWOM.s 			page 33


 1332 03d6 4FF00102 		mov	r2, #1	@ tmp352,
 1333 03da 83F82120 		strb	r2, [r3, #33]	@ tmp353, hdma_42(D)->State
 492:Drivers/STM32L1xx_HAL_Driver/stm32l1xx_hal_dma.cpp ****   
 493:Drivers/STM32L1xx_HAL_Driver/stm32l1xx_hal_dma.cpp ****     /* Process unlocked */
 494:Drivers/STM32L1xx_HAL_Driver/stm32l1xx_hal_dma.cpp ****     __HAL_UNLOCK(hdma);  
 1334              		.loc 1 494 0 discriminator 18
 1335 03de FB68     		ldr	r3, [r7, #12]	@ tmp354, hdma
 1336 03e0 4FF00002 		mov	r2, #0	@ tmp355,
 1337 03e4 83F82020 		strb	r2, [r3, #32]	@ tmp356, hdma_42(D)->Lock
 1338 03e8 58E0     		b	.L125	@
 1339              	.L112:
 495:Drivers/STM32L1xx_HAL_Driver/stm32l1xx_hal_dma.cpp ****   }
 496:Drivers/STM32L1xx_HAL_Driver/stm32l1xx_hal_dma.cpp ****   else
 497:Drivers/STM32L1xx_HAL_Driver/stm32l1xx_hal_dma.cpp ****   { 
 498:Drivers/STM32L1xx_HAL_Driver/stm32l1xx_hal_dma.cpp ****     /* Clear the half transfer complete flag */
 499:Drivers/STM32L1xx_HAL_Driver/stm32l1xx_hal_dma.cpp ****     __HAL_DMA_CLEAR_FLAG(hdma, __HAL_DMA_GET_HT_FLAG_INDEX(hdma));
 1340              		.loc 1 499 0
 1341 03ea 4FF4C043 		mov	r3, #24576	@ D.6432,
 1342 03ee C4F20203 		movt	r3, 16386	@ D.6432,
 1343 03f2 FA68     		ldr	r2, [r7, #12]	@ tmp357, hdma
 1344 03f4 1268     		ldr	r2, [r2, #0]	@ D.6434, hdma_42(D)->Instance
 1345 03f6 1146     		mov	r1, r2	@ D.6435, D.6434
 1346 03f8 46F20802 		movw	r2, #24584	@ tmp358,
 1347 03fc C4F20202 		movt	r2, 16386	@ tmp358,
 1348 0400 9142     		cmp	r1, r2	@ D.6435, tmp358
 1349 0402 3ED0     		beq	.L126	@,
 1350              		.loc 1 499 0 is_stmt 0 discriminator 1
 1351 0404 FA68     		ldr	r2, [r7, #12]	@ tmp359, hdma
 1352 0406 1268     		ldr	r2, [r2, #0]	@ D.6439, hdma_42(D)->Instance
 1353 0408 1146     		mov	r1, r2	@ D.6440, D.6439
 1354 040a 46F21C02 		movw	r2, #24604	@ tmp360,
 1355 040e C4F20202 		movt	r2, 16386	@ tmp360,
 1356 0412 9142     		cmp	r1, r2	@ D.6440, tmp360
 1357 0414 32D0     		beq	.L127	@,
 1358              		.loc 1 499 0 discriminator 3
 1359 0416 FA68     		ldr	r2, [r7, #12]	@ tmp361, hdma
 1360 0418 1268     		ldr	r2, [r2, #0]	@ D.6444, hdma_42(D)->Instance
 1361 041a 1146     		mov	r1, r2	@ D.6445, D.6444
 1362 041c 46F23002 		movw	r2, #24624	@ tmp362,
 1363 0420 C4F20202 		movt	r2, 16386	@ tmp362,
 1364 0424 9142     		cmp	r1, r2	@ D.6445, tmp362
 1365 0426 26D0     		beq	.L128	@,
 1366              		.loc 1 499 0 discriminator 5
 1367 0428 FA68     		ldr	r2, [r7, #12]	@ tmp363, hdma
 1368 042a 1268     		ldr	r2, [r2, #0]	@ D.6449, hdma_42(D)->Instance
 1369 042c 1146     		mov	r1, r2	@ D.6450, D.6449
 1370 042e 46F24402 		movw	r2, #24644	@ tmp364,
 1371 0432 C4F20202 		movt	r2, 16386	@ tmp364,
 1372 0436 9142     		cmp	r1, r2	@ D.6450, tmp364
 1373 0438 1AD0     		beq	.L129	@,
 1374              		.loc 1 499 0 discriminator 7
 1375 043a FA68     		ldr	r2, [r7, #12]	@ tmp365, hdma
 1376 043c 1268     		ldr	r2, [r2, #0]	@ D.6454, hdma_42(D)->Instance
 1377 043e 1146     		mov	r1, r2	@ D.6455, D.6454
 1378 0440 46F25802 		movw	r2, #24664	@ tmp366,
 1379 0444 C4F20202 		movt	r2, 16386	@ tmp366,
 1380 0448 9142     		cmp	r1, r2	@ D.6455, tmp366
ARM GAS  /tmp/ccg3UWOM.s 			page 34


 1381 044a 0ED0     		beq	.L130	@,
 1382              		.loc 1 499 0 discriminator 9
 1383 044c FA68     		ldr	r2, [r7, #12]	@ tmp367, hdma
 1384 044e 1268     		ldr	r2, [r2, #0]	@ D.6459, hdma_42(D)->Instance
 1385 0450 1146     		mov	r1, r2	@ D.6460, D.6459
 1386 0452 46F26C02 		movw	r2, #24684	@ tmp368,
 1387 0456 C4F20202 		movt	r2, 16386	@ tmp368,
 1388 045a 9142     		cmp	r1, r2	@ D.6460, tmp368
 1389 045c 02D1     		bne	.L131	@,
 1390              		.loc 1 499 0 discriminator 11
 1391 045e 4FF48002 		mov	r2, #4194304	@ iftmp.83,
 1392 0462 01E0     		b	.L132	@
 1393              	.L131:
 1394              		.loc 1 499 0 discriminator 12
 1395 0464 4FF08062 		mov	r2, #67108864	@ iftmp.83,
 1396              	.L132:
 1397 0468 01E0     		b	.L133	@
 1398              	.L130:
 1399              		.loc 1 499 0 discriminator 10
 1400 046a 4FF48022 		mov	r2, #262144	@ iftmp.82,
 1401              	.L133:
 1402 046e 01E0     		b	.L134	@
 1403              	.L129:
 1404              		.loc 1 499 0 discriminator 8
 1405 0470 4FF48042 		mov	r2, #16384	@ iftmp.81,
 1406              	.L134:
 1407 0474 01E0     		b	.L135	@
 1408              	.L128:
 1409              		.loc 1 499 0 discriminator 6
 1410 0476 4FF48062 		mov	r2, #1024	@ iftmp.80,
 1411              	.L135:
 1412 047a 01E0     		b	.L136	@
 1413              	.L127:
 1414              		.loc 1 499 0 discriminator 4
 1415 047c 4FF04002 		mov	r2, #64	@ iftmp.79,
 1416              	.L136:
 1417 0480 01E0     		b	.L137	@
 1418              	.L126:
 1419              		.loc 1 499 0 discriminator 2
 1420 0482 4FF00402 		mov	r2, #4	@ iftmp.78,
 1421              	.L137:
 1422              		.loc 1 499 0 discriminator 18
 1423 0486 5A60     		str	r2, [r3, #4]	@ iftmp.78, D.6432_188->IFCR
 500:Drivers/STM32L1xx_HAL_Driver/stm32l1xx_hal_dma.cpp ****   
 501:Drivers/STM32L1xx_HAL_Driver/stm32l1xx_hal_dma.cpp ****     /* The selected Channelx EN bit is cleared (DMA is disabled and 
 502:Drivers/STM32L1xx_HAL_Driver/stm32l1xx_hal_dma.cpp ****   all transfers are complete) */
 503:Drivers/STM32L1xx_HAL_Driver/stm32l1xx_hal_dma.cpp ****     hdma->State = HAL_DMA_STATE_READY_HALF;
 1424              		.loc 1 503 0 is_stmt 1 discriminator 18
 1425 0488 FB68     		ldr	r3, [r7, #12]	@ tmp369, hdma
 1426 048a 4FF01102 		mov	r2, #17	@ tmp370,
 1427 048e 83F82120 		strb	r2, [r3, #33]	@ tmp371, hdma_42(D)->State
 504:Drivers/STM32L1xx_HAL_Driver/stm32l1xx_hal_dma.cpp ****       /* Process unlocked */
 505:Drivers/STM32L1xx_HAL_Driver/stm32l1xx_hal_dma.cpp ****     __HAL_UNLOCK(hdma);  
 1428              		.loc 1 505 0 discriminator 18
 1429 0492 FB68     		ldr	r3, [r7, #12]	@ tmp372, hdma
 1430 0494 4FF00002 		mov	r2, #0	@ tmp373,
 1431 0498 83F82020 		strb	r2, [r3, #32]	@ tmp374, hdma_42(D)->Lock
ARM GAS  /tmp/ccg3UWOM.s 			page 35


 1432              	.L125:
 506:Drivers/STM32L1xx_HAL_Driver/stm32l1xx_hal_dma.cpp ****   }
 507:Drivers/STM32L1xx_HAL_Driver/stm32l1xx_hal_dma.cpp ****   
 508:Drivers/STM32L1xx_HAL_Driver/stm32l1xx_hal_dma.cpp ****   return HAL_OK;
 1433              		.loc 1 508 0
 1434 049c 4FF00003 		mov	r3, #0	@ D.6372,
 1435              	.L107:
 1436              	.LBE4:
 509:Drivers/STM32L1xx_HAL_Driver/stm32l1xx_hal_dma.cpp **** }
 1437              		.loc 1 509 0
 1438 04a0 1846     		mov	r0, r3	@, <retval>
 1439 04a2 07F11807 		add	r7, r7, #24	@,,
 1440 04a6 BD46     		mov	sp, r7
 1441 04a8 80BD     		pop	{r7, pc}
 1442              		.cfi_endproc
 1443              	.LFE61:
 1444              		.size	HAL_DMA_PollForTransfer, .-HAL_DMA_PollForTransfer
 1445 04aa 00BF     		.section	.text.HAL_DMA_IRQHandler,"ax",%progbits
 1446              		.align	2
 1447              		.global	HAL_DMA_IRQHandler
 1448              		.thumb
 1449              		.thumb_func
 1450              		.type	HAL_DMA_IRQHandler, %function
 1451              	HAL_DMA_IRQHandler:
 1452              	.LFB62:
 510:Drivers/STM32L1xx_HAL_Driver/stm32l1xx_hal_dma.cpp **** 
 511:Drivers/STM32L1xx_HAL_Driver/stm32l1xx_hal_dma.cpp **** /**
 512:Drivers/STM32L1xx_HAL_Driver/stm32l1xx_hal_dma.cpp ****   * @brief  Handles DMA interrupt request.
 513:Drivers/STM32L1xx_HAL_Driver/stm32l1xx_hal_dma.cpp ****   * @param  hdma: pointer to a DMA_HandleTypeDef structure that contains
 514:Drivers/STM32L1xx_HAL_Driver/stm32l1xx_hal_dma.cpp ****   *               the configuration information for the specified DMA Channel.  
 515:Drivers/STM32L1xx_HAL_Driver/stm32l1xx_hal_dma.cpp ****   * @retval None
 516:Drivers/STM32L1xx_HAL_Driver/stm32l1xx_hal_dma.cpp ****   */
 517:Drivers/STM32L1xx_HAL_Driver/stm32l1xx_hal_dma.cpp **** void HAL_DMA_IRQHandler(DMA_HandleTypeDef *hdma)
 518:Drivers/STM32L1xx_HAL_Driver/stm32l1xx_hal_dma.cpp **** {        
 1453              		.loc 1 518 0
 1454              		.cfi_startproc
 1455              		@ args = 0, pretend = 0, frame = 8
 1456              		@ frame_needed = 1, uses_anonymous_args = 0
 1457 0000 80B5     		push	{r7, lr}	@
 1458              	.LCFI18:
 1459              		.cfi_def_cfa_offset 8
 1460              		.cfi_offset 7, -8
 1461              		.cfi_offset 14, -4
 1462 0002 82B0     		sub	sp, sp, #8	@,,
 1463              	.LCFI19:
 1464              		.cfi_def_cfa_offset 16
 1465 0004 00AF     		add	r7, sp, #0	@,,
 1466              	.LCFI20:
 1467              		.cfi_def_cfa_register 7
 1468 0006 7860     		str	r0, [r7, #4]	@ hdma, hdma
 519:Drivers/STM32L1xx_HAL_Driver/stm32l1xx_hal_dma.cpp ****   /* Transfer Error Interrupt management ***************************************/
 520:Drivers/STM32L1xx_HAL_Driver/stm32l1xx_hal_dma.cpp ****   if(__HAL_DMA_GET_FLAG(hdma, __HAL_DMA_GET_TE_FLAG_INDEX(hdma)) != RESET)
 1469              		.loc 1 520 0
 1470 0008 4FF4C043 		mov	r3, #24576	@ D.5899,
 1471 000c C4F20203 		movt	r3, 16386	@ D.5899,
 1472 0010 1A68     		ldr	r2, [r3, #0]	@ D.5900, D.5899_37->ISR
 1473 0012 7B68     		ldr	r3, [r7, #4]	@ tmp298, hdma
ARM GAS  /tmp/ccg3UWOM.s 			page 36


 1474 0014 1B68     		ldr	r3, [r3, #0]	@ D.5902, hdma_39(D)->Instance
 1475 0016 1946     		mov	r1, r3	@ D.5903, D.5902
 1476 0018 46F20803 		movw	r3, #24584	@ tmp299,
 1477 001c C4F20203 		movt	r3, 16386	@ tmp299,
 1478 0020 9942     		cmp	r1, r3	@ D.5903, tmp299
 1479 0022 3ED0     		beq	.L139	@,
 1480              		.loc 1 520 0 is_stmt 0 discriminator 1
 1481 0024 7B68     		ldr	r3, [r7, #4]	@ tmp300, hdma
 1482 0026 1B68     		ldr	r3, [r3, #0]	@ D.5907, hdma_39(D)->Instance
 1483 0028 1946     		mov	r1, r3	@ D.5908, D.5907
 1484 002a 46F21C03 		movw	r3, #24604	@ tmp301,
 1485 002e C4F20203 		movt	r3, 16386	@ tmp301,
 1486 0032 9942     		cmp	r1, r3	@ D.5908, tmp301
 1487 0034 32D0     		beq	.L140	@,
 1488              		.loc 1 520 0 discriminator 3
 1489 0036 7B68     		ldr	r3, [r7, #4]	@ tmp302, hdma
 1490 0038 1B68     		ldr	r3, [r3, #0]	@ D.5912, hdma_39(D)->Instance
 1491 003a 1946     		mov	r1, r3	@ D.5913, D.5912
 1492 003c 46F23003 		movw	r3, #24624	@ tmp303,
 1493 0040 C4F20203 		movt	r3, 16386	@ tmp303,
 1494 0044 9942     		cmp	r1, r3	@ D.5913, tmp303
 1495 0046 26D0     		beq	.L141	@,
 1496              		.loc 1 520 0 discriminator 5
 1497 0048 7B68     		ldr	r3, [r7, #4]	@ tmp304, hdma
 1498 004a 1B68     		ldr	r3, [r3, #0]	@ D.5917, hdma_39(D)->Instance
 1499 004c 1946     		mov	r1, r3	@ D.5918, D.5917
 1500 004e 46F24403 		movw	r3, #24644	@ tmp305,
 1501 0052 C4F20203 		movt	r3, 16386	@ tmp305,
 1502 0056 9942     		cmp	r1, r3	@ D.5918, tmp305
 1503 0058 1AD0     		beq	.L142	@,
 1504              		.loc 1 520 0 discriminator 7
 1505 005a 7B68     		ldr	r3, [r7, #4]	@ tmp306, hdma
 1506 005c 1B68     		ldr	r3, [r3, #0]	@ D.5922, hdma_39(D)->Instance
 1507 005e 1946     		mov	r1, r3	@ D.5923, D.5922
 1508 0060 46F25803 		movw	r3, #24664	@ tmp307,
 1509 0064 C4F20203 		movt	r3, 16386	@ tmp307,
 1510 0068 9942     		cmp	r1, r3	@ D.5923, tmp307
 1511 006a 0ED0     		beq	.L143	@,
 1512              		.loc 1 520 0 discriminator 9
 1513 006c 7B68     		ldr	r3, [r7, #4]	@ tmp308, hdma
 1514 006e 1B68     		ldr	r3, [r3, #0]	@ D.5927, hdma_39(D)->Instance
 1515 0070 1946     		mov	r1, r3	@ D.5928, D.5927
 1516 0072 46F26C03 		movw	r3, #24684	@ tmp309,
 1517 0076 C4F20203 		movt	r3, 16386	@ tmp309,
 1518 007a 9942     		cmp	r1, r3	@ D.5928, tmp309
 1519 007c 02D1     		bne	.L144	@,
 1520              		.loc 1 520 0 discriminator 11
 1521 007e 4FF40003 		mov	r3, #8388608	@ iftmp.6,
 1522 0082 01E0     		b	.L145	@
 1523              	.L144:
 1524              		.loc 1 520 0 discriminator 12
 1525 0084 4FF00063 		mov	r3, #134217728	@ iftmp.6,
 1526              	.L145:
 1527 0088 01E0     		b	.L146	@
 1528              	.L143:
 1529              		.loc 1 520 0 discriminator 10
 1530 008a 4FF40023 		mov	r3, #524288	@ iftmp.5,
ARM GAS  /tmp/ccg3UWOM.s 			page 37


 1531              	.L146:
 1532 008e 01E0     		b	.L147	@
 1533              	.L142:
 1534              		.loc 1 520 0 discriminator 8
 1535 0090 4FF40043 		mov	r3, #32768	@ iftmp.4,
 1536              	.L147:
 1537 0094 01E0     		b	.L148	@
 1538              	.L141:
 1539              		.loc 1 520 0 discriminator 6
 1540 0096 4FF40063 		mov	r3, #2048	@ iftmp.3,
 1541              	.L148:
 1542 009a 01E0     		b	.L149	@
 1543              	.L140:
 1544              		.loc 1 520 0 discriminator 4
 1545 009c 4FF08003 		mov	r3, #128	@ iftmp.2,
 1546              	.L149:
 1547 00a0 01E0     		b	.L150	@
 1548              	.L139:
 1549              		.loc 1 520 0 discriminator 2
 1550 00a2 4FF00803 		mov	r3, #8	@ iftmp.1,
 1551              	.L150:
 1552              		.loc 1 520 0 discriminator 18
 1553 00a6 1340     		ands	r3, r3, r2	@, D.5937, iftmp.1, D.5900
 1554 00a8 002B     		cmp	r3, #0	@ D.5937,
 1555 00aa 0CBF     		ite	eq	@
 1556 00ac 0023     		moveq	r3, #0	@, tmp311
 1557 00ae 0123     		movne	r3, #1	@, tmp311
 1558 00b0 DBB2     		uxtb	r3, r3	@ retval.0, tmp310
 1559 00b2 002B     		cmp	r3, #0	@ retval.0,
 1560 00b4 7AD0     		beq	.L151	@,
 521:Drivers/STM32L1xx_HAL_Driver/stm32l1xx_hal_dma.cpp ****   {
 522:Drivers/STM32L1xx_HAL_Driver/stm32l1xx_hal_dma.cpp ****     if(__HAL_DMA_GET_IT_SOURCE(hdma, DMA_IT_TE) != RESET)
 1561              		.loc 1 522 0 is_stmt 1
 1562 00b6 7B68     		ldr	r3, [r7, #4]	@ tmp312, hdma
 1563 00b8 1B68     		ldr	r3, [r3, #0]	@ D.5941, hdma_39(D)->Instance
 1564 00ba 1B68     		ldr	r3, [r3, #0]	@ D.5942, D.5941_66->CCR
 1565 00bc 03F00803 		and	r3, r3, #8	@ D.5943, D.5942,
 1566 00c0 002B     		cmp	r3, #0	@ D.5943,
 1567 00c2 0CBF     		ite	eq	@
 1568 00c4 0023     		moveq	r3, #0	@, tmp314
 1569 00c6 0123     		movne	r3, #1	@, tmp314
 1570 00c8 DBB2     		uxtb	r3, r3	@ retval.7, tmp313
 1571 00ca 002B     		cmp	r3, #0	@ retval.7,
 1572 00cc 6ED0     		beq	.L151	@,
 523:Drivers/STM32L1xx_HAL_Driver/stm32l1xx_hal_dma.cpp ****   {
 524:Drivers/STM32L1xx_HAL_Driver/stm32l1xx_hal_dma.cpp ****       /* Disable the transfer error interrupt */
 525:Drivers/STM32L1xx_HAL_Driver/stm32l1xx_hal_dma.cpp ****     __HAL_DMA_DISABLE_IT(hdma, DMA_IT_TE);
 1573              		.loc 1 525 0
 1574 00ce 7B68     		ldr	r3, [r7, #4]	@ tmp315, hdma
 1575 00d0 1B68     		ldr	r3, [r3, #0]	@ D.5946, hdma_39(D)->Instance
 1576 00d2 7A68     		ldr	r2, [r7, #4]	@ tmp316, hdma
 1577 00d4 1268     		ldr	r2, [r2, #0]	@ D.5947, hdma_39(D)->Instance
 1578 00d6 1268     		ldr	r2, [r2, #0]	@ D.5948, D.5947_71->CCR
 1579 00d8 22F00802 		bic	r2, r2, #8	@ D.5949, D.5948,
 1580 00dc 1A60     		str	r2, [r3, #0]	@ D.5949, D.5946_70->CCR
 526:Drivers/STM32L1xx_HAL_Driver/stm32l1xx_hal_dma.cpp ****     
 527:Drivers/STM32L1xx_HAL_Driver/stm32l1xx_hal_dma.cpp ****     /* Clear the transfer error flag */
ARM GAS  /tmp/ccg3UWOM.s 			page 38


 528:Drivers/STM32L1xx_HAL_Driver/stm32l1xx_hal_dma.cpp ****     __HAL_DMA_CLEAR_FLAG(hdma, __HAL_DMA_GET_TE_FLAG_INDEX(hdma));
 1581              		.loc 1 528 0
 1582 00de 4FF4C043 		mov	r3, #24576	@ D.5950,
 1583 00e2 C4F20203 		movt	r3, 16386	@ D.5950,
 1584 00e6 7A68     		ldr	r2, [r7, #4]	@ tmp317, hdma
 1585 00e8 1268     		ldr	r2, [r2, #0]	@ D.5952, hdma_39(D)->Instance
 1586 00ea 1146     		mov	r1, r2	@ D.5953, D.5952
 1587 00ec 46F20802 		movw	r2, #24584	@ tmp318,
 1588 00f0 C4F20202 		movt	r2, 16386	@ tmp318,
 1589 00f4 9142     		cmp	r1, r2	@ D.5953, tmp318
 1590 00f6 3ED0     		beq	.L152	@,
 1591              		.loc 1 528 0 is_stmt 0 discriminator 1
 1592 00f8 7A68     		ldr	r2, [r7, #4]	@ tmp319, hdma
 1593 00fa 1268     		ldr	r2, [r2, #0]	@ D.5957, hdma_39(D)->Instance
 1594 00fc 1146     		mov	r1, r2	@ D.5958, D.5957
 1595 00fe 46F21C02 		movw	r2, #24604	@ tmp320,
 1596 0102 C4F20202 		movt	r2, 16386	@ tmp320,
 1597 0106 9142     		cmp	r1, r2	@ D.5958, tmp320
 1598 0108 32D0     		beq	.L153	@,
 1599              		.loc 1 528 0 discriminator 3
 1600 010a 7A68     		ldr	r2, [r7, #4]	@ tmp321, hdma
 1601 010c 1268     		ldr	r2, [r2, #0]	@ D.5962, hdma_39(D)->Instance
 1602 010e 1146     		mov	r1, r2	@ D.5963, D.5962
 1603 0110 46F23002 		movw	r2, #24624	@ tmp322,
 1604 0114 C4F20202 		movt	r2, 16386	@ tmp322,
 1605 0118 9142     		cmp	r1, r2	@ D.5963, tmp322
 1606 011a 26D0     		beq	.L154	@,
 1607              		.loc 1 528 0 discriminator 5
 1608 011c 7A68     		ldr	r2, [r7, #4]	@ tmp323, hdma
 1609 011e 1268     		ldr	r2, [r2, #0]	@ D.5967, hdma_39(D)->Instance
 1610 0120 1146     		mov	r1, r2	@ D.5968, D.5967
 1611 0122 46F24402 		movw	r2, #24644	@ tmp324,
 1612 0126 C4F20202 		movt	r2, 16386	@ tmp324,
 1613 012a 9142     		cmp	r1, r2	@ D.5968, tmp324
 1614 012c 1AD0     		beq	.L155	@,
 1615              		.loc 1 528 0 discriminator 7
 1616 012e 7A68     		ldr	r2, [r7, #4]	@ tmp325, hdma
 1617 0130 1268     		ldr	r2, [r2, #0]	@ D.5972, hdma_39(D)->Instance
 1618 0132 1146     		mov	r1, r2	@ D.5973, D.5972
 1619 0134 46F25802 		movw	r2, #24664	@ tmp326,
 1620 0138 C4F20202 		movt	r2, 16386	@ tmp326,
 1621 013c 9142     		cmp	r1, r2	@ D.5973, tmp326
 1622 013e 0ED0     		beq	.L156	@,
 1623              		.loc 1 528 0 discriminator 9
 1624 0140 7A68     		ldr	r2, [r7, #4]	@ tmp327, hdma
 1625 0142 1268     		ldr	r2, [r2, #0]	@ D.5977, hdma_39(D)->Instance
 1626 0144 1146     		mov	r1, r2	@ D.5978, D.5977
 1627 0146 46F26C02 		movw	r2, #24684	@ tmp328,
 1628 014a C4F20202 		movt	r2, 16386	@ tmp328,
 1629 014e 9142     		cmp	r1, r2	@ D.5978, tmp328
 1630 0150 02D1     		bne	.L157	@,
 1631              		.loc 1 528 0 discriminator 11
 1632 0152 4FF40002 		mov	r2, #8388608	@ iftmp.13,
 1633 0156 01E0     		b	.L158	@
 1634              	.L157:
 1635              		.loc 1 528 0 discriminator 12
 1636 0158 4FF00062 		mov	r2, #134217728	@ iftmp.13,
ARM GAS  /tmp/ccg3UWOM.s 			page 39


 1637              	.L158:
 1638 015c 01E0     		b	.L159	@
 1639              	.L156:
 1640              		.loc 1 528 0 discriminator 10
 1641 015e 4FF40022 		mov	r2, #524288	@ iftmp.12,
 1642              	.L159:
 1643 0162 01E0     		b	.L160	@
 1644              	.L155:
 1645              		.loc 1 528 0 discriminator 8
 1646 0164 4FF40042 		mov	r2, #32768	@ iftmp.11,
 1647              	.L160:
 1648 0168 01E0     		b	.L161	@
 1649              	.L154:
 1650              		.loc 1 528 0 discriminator 6
 1651 016a 4FF40062 		mov	r2, #2048	@ iftmp.10,
 1652              	.L161:
 1653 016e 01E0     		b	.L162	@
 1654              	.L153:
 1655              		.loc 1 528 0 discriminator 4
 1656 0170 4FF08002 		mov	r2, #128	@ iftmp.9,
 1657              	.L162:
 1658 0174 01E0     		b	.L163	@
 1659              	.L152:
 1660              		.loc 1 528 0 discriminator 2
 1661 0176 4FF00802 		mov	r2, #8	@ iftmp.8,
 1662              	.L163:
 1663              		.loc 1 528 0 discriminator 18
 1664 017a 5A60     		str	r2, [r3, #4]	@ iftmp.8, D.5950_74->IFCR
 529:Drivers/STM32L1xx_HAL_Driver/stm32l1xx_hal_dma.cpp ****     
 530:Drivers/STM32L1xx_HAL_Driver/stm32l1xx_hal_dma.cpp ****       /* Update error code */
 531:Drivers/STM32L1xx_HAL_Driver/stm32l1xx_hal_dma.cpp ****       SET_BIT(hdma->ErrorCode, HAL_DMA_ERROR_TE);
 1665              		.loc 1 531 0 is_stmt 1 discriminator 18
 1666 017c 7B68     		ldr	r3, [r7, #4]	@ tmp329, hdma
 1667 017e 5B6B     		ldr	r3, [r3, #52]	@ D.5987, hdma_39(D)->ErrorCode
 1668 0180 43F00102 		orr	r2, r3, #1	@ D.5988, D.5987,
 1669 0184 7B68     		ldr	r3, [r7, #4]	@ tmp330, hdma
 1670 0186 5A63     		str	r2, [r3, #52]	@ D.5988, hdma_39(D)->ErrorCode
 532:Drivers/STM32L1xx_HAL_Driver/stm32l1xx_hal_dma.cpp **** 
 533:Drivers/STM32L1xx_HAL_Driver/stm32l1xx_hal_dma.cpp ****       /* Change the DMA state */
 534:Drivers/STM32L1xx_HAL_Driver/stm32l1xx_hal_dma.cpp ****     hdma->State = HAL_DMA_STATE_ERROR;    
 1671              		.loc 1 534 0 discriminator 18
 1672 0188 7B68     		ldr	r3, [r7, #4]	@ tmp331, hdma
 1673 018a 4FF00402 		mov	r2, #4	@ tmp332,
 1674 018e 83F82120 		strb	r2, [r3, #33]	@ tmp333, hdma_39(D)->State
 535:Drivers/STM32L1xx_HAL_Driver/stm32l1xx_hal_dma.cpp ****     
 536:Drivers/STM32L1xx_HAL_Driver/stm32l1xx_hal_dma.cpp ****       /* Process Unlocked */
 537:Drivers/STM32L1xx_HAL_Driver/stm32l1xx_hal_dma.cpp ****     __HAL_UNLOCK(hdma); 
 1675              		.loc 1 537 0 discriminator 18
 1676 0192 7B68     		ldr	r3, [r7, #4]	@ tmp334, hdma
 1677 0194 4FF00002 		mov	r2, #0	@ tmp335,
 1678 0198 83F82020 		strb	r2, [r3, #32]	@ tmp336, hdma_39(D)->Lock
 538:Drivers/STM32L1xx_HAL_Driver/stm32l1xx_hal_dma.cpp ****     
 539:Drivers/STM32L1xx_HAL_Driver/stm32l1xx_hal_dma.cpp ****     if (hdma->XferErrorCallback != NULL)
 1679              		.loc 1 539 0 discriminator 18
 1680 019c 7B68     		ldr	r3, [r7, #4]	@ tmp337, hdma
 1681 019e 1B6B     		ldr	r3, [r3, #48]	@ D.5991, hdma_39(D)->XferErrorCallback
 1682 01a0 002B     		cmp	r3, #0	@ D.5991,
ARM GAS  /tmp/ccg3UWOM.s 			page 40


 1683 01a2 03D0     		beq	.L151	@,
 540:Drivers/STM32L1xx_HAL_Driver/stm32l1xx_hal_dma.cpp ****     {
 541:Drivers/STM32L1xx_HAL_Driver/stm32l1xx_hal_dma.cpp ****         /* Transfer error callback */
 542:Drivers/STM32L1xx_HAL_Driver/stm32l1xx_hal_dma.cpp ****       hdma->XferErrorCallback(hdma);
 1684              		.loc 1 542 0
 1685 01a4 7B68     		ldr	r3, [r7, #4]	@ tmp338, hdma
 1686 01a6 1B6B     		ldr	r3, [r3, #48]	@ D.5994, hdma_39(D)->XferErrorCallback
 1687 01a8 7868     		ldr	r0, [r7, #4]	@, hdma
 1688 01aa 9847     		blx	r3	@ D.5994
 1689              	.L151:
 543:Drivers/STM32L1xx_HAL_Driver/stm32l1xx_hal_dma.cpp ****     }
 544:Drivers/STM32L1xx_HAL_Driver/stm32l1xx_hal_dma.cpp ****   }
 545:Drivers/STM32L1xx_HAL_Driver/stm32l1xx_hal_dma.cpp ****   }
 546:Drivers/STM32L1xx_HAL_Driver/stm32l1xx_hal_dma.cpp **** 
 547:Drivers/STM32L1xx_HAL_Driver/stm32l1xx_hal_dma.cpp ****   /* Half Transfer Complete Interrupt management ******************************/
 548:Drivers/STM32L1xx_HAL_Driver/stm32l1xx_hal_dma.cpp ****   if(__HAL_DMA_GET_FLAG(hdma, __HAL_DMA_GET_HT_FLAG_INDEX(hdma)) != RESET)
 1690              		.loc 1 548 0
 1691 01ac 4FF4C043 		mov	r3, #24576	@ D.5999,
 1692 01b0 C4F20203 		movt	r3, 16386	@ D.5999,
 1693 01b4 1A68     		ldr	r2, [r3, #0]	@ D.6000, D.5999_103->ISR
 1694 01b6 7B68     		ldr	r3, [r7, #4]	@ tmp339, hdma
 1695 01b8 1B68     		ldr	r3, [r3, #0]	@ D.6002, hdma_39(D)->Instance
 1696 01ba 1946     		mov	r1, r3	@ D.6003, D.6002
 1697 01bc 46F20803 		movw	r3, #24584	@ tmp340,
 1698 01c0 C4F20203 		movt	r3, 16386	@ tmp340,
 1699 01c4 9942     		cmp	r1, r3	@ D.6003, tmp340
 1700 01c6 3ED0     		beq	.L164	@,
 1701              		.loc 1 548 0 is_stmt 0 discriminator 1
 1702 01c8 7B68     		ldr	r3, [r7, #4]	@ tmp341, hdma
 1703 01ca 1B68     		ldr	r3, [r3, #0]	@ D.6007, hdma_39(D)->Instance
 1704 01cc 1946     		mov	r1, r3	@ D.6008, D.6007
 1705 01ce 46F21C03 		movw	r3, #24604	@ tmp342,
 1706 01d2 C4F20203 		movt	r3, 16386	@ tmp342,
 1707 01d6 9942     		cmp	r1, r3	@ D.6008, tmp342
 1708 01d8 32D0     		beq	.L165	@,
 1709              		.loc 1 548 0 discriminator 3
 1710 01da 7B68     		ldr	r3, [r7, #4]	@ tmp343, hdma
 1711 01dc 1B68     		ldr	r3, [r3, #0]	@ D.6012, hdma_39(D)->Instance
 1712 01de 1946     		mov	r1, r3	@ D.6013, D.6012
 1713 01e0 46F23003 		movw	r3, #24624	@ tmp344,
 1714 01e4 C4F20203 		movt	r3, 16386	@ tmp344,
 1715 01e8 9942     		cmp	r1, r3	@ D.6013, tmp344
 1716 01ea 26D0     		beq	.L166	@,
 1717              		.loc 1 548 0 discriminator 5
 1718 01ec 7B68     		ldr	r3, [r7, #4]	@ tmp345, hdma
 1719 01ee 1B68     		ldr	r3, [r3, #0]	@ D.6017, hdma_39(D)->Instance
 1720 01f0 1946     		mov	r1, r3	@ D.6018, D.6017
 1721 01f2 46F24403 		movw	r3, #24644	@ tmp346,
 1722 01f6 C4F20203 		movt	r3, 16386	@ tmp346,
 1723 01fa 9942     		cmp	r1, r3	@ D.6018, tmp346
 1724 01fc 1AD0     		beq	.L167	@,
 1725              		.loc 1 548 0 discriminator 7
 1726 01fe 7B68     		ldr	r3, [r7, #4]	@ tmp347, hdma
 1727 0200 1B68     		ldr	r3, [r3, #0]	@ D.6022, hdma_39(D)->Instance
 1728 0202 1946     		mov	r1, r3	@ D.6023, D.6022
 1729 0204 46F25803 		movw	r3, #24664	@ tmp348,
 1730 0208 C4F20203 		movt	r3, 16386	@ tmp348,
ARM GAS  /tmp/ccg3UWOM.s 			page 41


 1731 020c 9942     		cmp	r1, r3	@ D.6023, tmp348
 1732 020e 0ED0     		beq	.L168	@,
 1733              		.loc 1 548 0 discriminator 9
 1734 0210 7B68     		ldr	r3, [r7, #4]	@ tmp349, hdma
 1735 0212 1B68     		ldr	r3, [r3, #0]	@ D.6027, hdma_39(D)->Instance
 1736 0214 1946     		mov	r1, r3	@ D.6028, D.6027
 1737 0216 46F26C03 		movw	r3, #24684	@ tmp350,
 1738 021a C4F20203 		movt	r3, 16386	@ tmp350,
 1739 021e 9942     		cmp	r1, r3	@ D.6028, tmp350
 1740 0220 02D1     		bne	.L169	@,
 1741              		.loc 1 548 0 discriminator 11
 1742 0222 4FF48003 		mov	r3, #4194304	@ iftmp.20,
 1743 0226 01E0     		b	.L170	@
 1744              	.L169:
 1745              		.loc 1 548 0 discriminator 12
 1746 0228 4FF08063 		mov	r3, #67108864	@ iftmp.20,
 1747              	.L170:
 1748 022c 01E0     		b	.L171	@
 1749              	.L168:
 1750              		.loc 1 548 0 discriminator 10
 1751 022e 4FF48023 		mov	r3, #262144	@ iftmp.19,
 1752              	.L171:
 1753 0232 01E0     		b	.L172	@
 1754              	.L167:
 1755              		.loc 1 548 0 discriminator 8
 1756 0234 4FF48043 		mov	r3, #16384	@ iftmp.18,
 1757              	.L172:
 1758 0238 01E0     		b	.L173	@
 1759              	.L166:
 1760              		.loc 1 548 0 discriminator 6
 1761 023a 4FF48063 		mov	r3, #1024	@ iftmp.17,
 1762              	.L173:
 1763 023e 01E0     		b	.L174	@
 1764              	.L165:
 1765              		.loc 1 548 0 discriminator 4
 1766 0240 4FF04003 		mov	r3, #64	@ iftmp.16,
 1767              	.L174:
 1768 0244 01E0     		b	.L175	@
 1769              	.L164:
 1770              		.loc 1 548 0 discriminator 2
 1771 0246 4FF00403 		mov	r3, #4	@ iftmp.15,
 1772              	.L175:
 1773              		.loc 1 548 0 discriminator 18
 1774 024a 1340     		ands	r3, r3, r2	@, D.6037, iftmp.15, D.6000
 1775 024c 002B     		cmp	r3, #0	@ D.6037,
 1776 024e 0CBF     		ite	eq	@
 1777 0250 0023     		moveq	r3, #0	@, tmp352
 1778 0252 0123     		movne	r3, #1	@, tmp352
 1779 0254 DBB2     		uxtb	r3, r3	@ retval.14, tmp351
 1780 0256 002B     		cmp	r3, #0	@ retval.14,
 1781 0258 7BD0     		beq	.L176	@,
 549:Drivers/STM32L1xx_HAL_Driver/stm32l1xx_hal_dma.cpp ****   {
 550:Drivers/STM32L1xx_HAL_Driver/stm32l1xx_hal_dma.cpp ****     if(__HAL_DMA_GET_IT_SOURCE(hdma, DMA_IT_HT) != RESET)
 1782              		.loc 1 550 0 is_stmt 1
 1783 025a 7B68     		ldr	r3, [r7, #4]	@ tmp353, hdma
 1784 025c 1B68     		ldr	r3, [r3, #0]	@ D.6041, hdma_39(D)->Instance
 1785 025e 1B68     		ldr	r3, [r3, #0]	@ D.6042, D.6041_131->CCR
ARM GAS  /tmp/ccg3UWOM.s 			page 42


 1786 0260 03F00403 		and	r3, r3, #4	@ D.6043, D.6042,
 1787 0264 002B     		cmp	r3, #0	@ D.6043,
 1788 0266 0CBF     		ite	eq	@
 1789 0268 0023     		moveq	r3, #0	@, tmp355
 1790 026a 0123     		movne	r3, #1	@, tmp355
 1791 026c DBB2     		uxtb	r3, r3	@ retval.21, tmp354
 1792 026e 002B     		cmp	r3, #0	@ retval.21,
 1793 0270 6FD0     		beq	.L176	@,
 551:Drivers/STM32L1xx_HAL_Driver/stm32l1xx_hal_dma.cpp ****     { 
 552:Drivers/STM32L1xx_HAL_Driver/stm32l1xx_hal_dma.cpp ****       /* Disable the half transfer interrupt if the DMA mode is not CIRCULAR */
 553:Drivers/STM32L1xx_HAL_Driver/stm32l1xx_hal_dma.cpp ****       if((hdma->Instance->CCR & DMA_CCR_CIRC) == 0)
 1794              		.loc 1 553 0
 1795 0272 7B68     		ldr	r3, [r7, #4]	@ tmp356, hdma
 1796 0274 1B68     		ldr	r3, [r3, #0]	@ D.6047, hdma_39(D)->Instance
 1797 0276 1B68     		ldr	r3, [r3, #0]	@ D.6048, D.6047_135->CCR
 1798 0278 03F02003 		and	r3, r3, #32	@ D.6049, D.6048,
 1799 027c 002B     		cmp	r3, #0	@ D.6049,
 1800 027e 14BF     		ite	ne	@
 1801 0280 0023     		movne	r3, #0	@, tmp358
 1802 0282 0123     		moveq	r3, #1	@, tmp358
 1803 0284 DBB2     		uxtb	r3, r3	@ retval.22, tmp357
 1804 0286 002B     		cmp	r3, #0	@ retval.22,
 1805 0288 07D0     		beq	.L177	@,
 554:Drivers/STM32L1xx_HAL_Driver/stm32l1xx_hal_dma.cpp ****       {
 555:Drivers/STM32L1xx_HAL_Driver/stm32l1xx_hal_dma.cpp ****         /* Disable the half transfer interrupt */
 556:Drivers/STM32L1xx_HAL_Driver/stm32l1xx_hal_dma.cpp ****         __HAL_DMA_DISABLE_IT(hdma, DMA_IT_HT);
 1806              		.loc 1 556 0
 1807 028a 7B68     		ldr	r3, [r7, #4]	@ tmp359, hdma
 1808 028c 1B68     		ldr	r3, [r3, #0]	@ D.6052, hdma_39(D)->Instance
 1809 028e 7A68     		ldr	r2, [r7, #4]	@ tmp360, hdma
 1810 0290 1268     		ldr	r2, [r2, #0]	@ D.6053, hdma_39(D)->Instance
 1811 0292 1268     		ldr	r2, [r2, #0]	@ D.6054, D.6053_140->CCR
 1812 0294 22F00402 		bic	r2, r2, #4	@ D.6055, D.6054,
 1813 0298 1A60     		str	r2, [r3, #0]	@ D.6055, D.6052_139->CCR
 1814              	.L177:
 557:Drivers/STM32L1xx_HAL_Driver/stm32l1xx_hal_dma.cpp ****       }
 558:Drivers/STM32L1xx_HAL_Driver/stm32l1xx_hal_dma.cpp ****       /* Clear the half transfer complete flag */
 559:Drivers/STM32L1xx_HAL_Driver/stm32l1xx_hal_dma.cpp ****       __HAL_DMA_CLEAR_FLAG(hdma, __HAL_DMA_GET_HT_FLAG_INDEX(hdma));
 1815              		.loc 1 559 0
 1816 029a 4FF4C043 		mov	r3, #24576	@ D.6057,
 1817 029e C4F20203 		movt	r3, 16386	@ D.6057,
 1818 02a2 7A68     		ldr	r2, [r7, #4]	@ tmp361, hdma
 1819 02a4 1268     		ldr	r2, [r2, #0]	@ D.6059, hdma_39(D)->Instance
 1820 02a6 1146     		mov	r1, r2	@ D.6060, D.6059
 1821 02a8 46F20802 		movw	r2, #24584	@ tmp362,
 1822 02ac C4F20202 		movt	r2, 16386	@ tmp362,
 1823 02b0 9142     		cmp	r1, r2	@ D.6060, tmp362
 1824 02b2 3ED0     		beq	.L178	@,
 1825              		.loc 1 559 0 is_stmt 0 discriminator 1
 1826 02b4 7A68     		ldr	r2, [r7, #4]	@ tmp363, hdma
 1827 02b6 1268     		ldr	r2, [r2, #0]	@ D.6064, hdma_39(D)->Instance
 1828 02b8 1146     		mov	r1, r2	@ D.6065, D.6064
 1829 02ba 46F21C02 		movw	r2, #24604	@ tmp364,
 1830 02be C4F20202 		movt	r2, 16386	@ tmp364,
 1831 02c2 9142     		cmp	r1, r2	@ D.6065, tmp364
 1832 02c4 32D0     		beq	.L179	@,
 1833              		.loc 1 559 0 discriminator 3
ARM GAS  /tmp/ccg3UWOM.s 			page 43


 1834 02c6 7A68     		ldr	r2, [r7, #4]	@ tmp365, hdma
 1835 02c8 1268     		ldr	r2, [r2, #0]	@ D.6069, hdma_39(D)->Instance
 1836 02ca 1146     		mov	r1, r2	@ D.6070, D.6069
 1837 02cc 46F23002 		movw	r2, #24624	@ tmp366,
 1838 02d0 C4F20202 		movt	r2, 16386	@ tmp366,
 1839 02d4 9142     		cmp	r1, r2	@ D.6070, tmp366
 1840 02d6 26D0     		beq	.L180	@,
 1841              		.loc 1 559 0 discriminator 5
 1842 02d8 7A68     		ldr	r2, [r7, #4]	@ tmp367, hdma
 1843 02da 1268     		ldr	r2, [r2, #0]	@ D.6074, hdma_39(D)->Instance
 1844 02dc 1146     		mov	r1, r2	@ D.6075, D.6074
 1845 02de 46F24402 		movw	r2, #24644	@ tmp368,
 1846 02e2 C4F20202 		movt	r2, 16386	@ tmp368,
 1847 02e6 9142     		cmp	r1, r2	@ D.6075, tmp368
 1848 02e8 1AD0     		beq	.L181	@,
 1849              		.loc 1 559 0 discriminator 7
 1850 02ea 7A68     		ldr	r2, [r7, #4]	@ tmp369, hdma
 1851 02ec 1268     		ldr	r2, [r2, #0]	@ D.6079, hdma_39(D)->Instance
 1852 02ee 1146     		mov	r1, r2	@ D.6080, D.6079
 1853 02f0 46F25802 		movw	r2, #24664	@ tmp370,
 1854 02f4 C4F20202 		movt	r2, 16386	@ tmp370,
 1855 02f8 9142     		cmp	r1, r2	@ D.6080, tmp370
 1856 02fa 0ED0     		beq	.L182	@,
 1857              		.loc 1 559 0 discriminator 9
 1858 02fc 7A68     		ldr	r2, [r7, #4]	@ tmp371, hdma
 1859 02fe 1268     		ldr	r2, [r2, #0]	@ D.6084, hdma_39(D)->Instance
 1860 0300 1146     		mov	r1, r2	@ D.6085, D.6084
 1861 0302 46F26C02 		movw	r2, #24684	@ tmp372,
 1862 0306 C4F20202 		movt	r2, 16386	@ tmp372,
 1863 030a 9142     		cmp	r1, r2	@ D.6085, tmp372
 1864 030c 02D1     		bne	.L183	@,
 1865              		.loc 1 559 0 discriminator 11
 1866 030e 4FF48002 		mov	r2, #4194304	@ iftmp.28,
 1867 0312 01E0     		b	.L184	@
 1868              	.L183:
 1869              		.loc 1 559 0 discriminator 12
 1870 0314 4FF08062 		mov	r2, #67108864	@ iftmp.28,
 1871              	.L184:
 1872 0318 01E0     		b	.L185	@
 1873              	.L182:
 1874              		.loc 1 559 0 discriminator 10
 1875 031a 4FF48022 		mov	r2, #262144	@ iftmp.27,
 1876              	.L185:
 1877 031e 01E0     		b	.L186	@
 1878              	.L181:
 1879              		.loc 1 559 0 discriminator 8
 1880 0320 4FF48042 		mov	r2, #16384	@ iftmp.26,
 1881              	.L186:
 1882 0324 01E0     		b	.L187	@
 1883              	.L180:
 1884              		.loc 1 559 0 discriminator 6
 1885 0326 4FF48062 		mov	r2, #1024	@ iftmp.25,
 1886              	.L187:
 1887 032a 01E0     		b	.L188	@
 1888              	.L179:
 1889              		.loc 1 559 0 discriminator 4
 1890 032c 4FF04002 		mov	r2, #64	@ iftmp.24,
ARM GAS  /tmp/ccg3UWOM.s 			page 44


 1891              	.L188:
 1892 0330 01E0     		b	.L189	@
 1893              	.L178:
 1894              		.loc 1 559 0 discriminator 2
 1895 0332 4FF00402 		mov	r2, #4	@ iftmp.23,
 1896              	.L189:
 1897              		.loc 1 559 0 discriminator 18
 1898 0336 5A60     		str	r2, [r3, #4]	@ iftmp.23, D.6057_143->IFCR
 560:Drivers/STM32L1xx_HAL_Driver/stm32l1xx_hal_dma.cpp **** 
 561:Drivers/STM32L1xx_HAL_Driver/stm32l1xx_hal_dma.cpp ****       /* Change DMA peripheral state */
 562:Drivers/STM32L1xx_HAL_Driver/stm32l1xx_hal_dma.cpp ****       hdma->State = HAL_DMA_STATE_READY_HALF;
 1899              		.loc 1 562 0 is_stmt 1 discriminator 18
 1900 0338 7B68     		ldr	r3, [r7, #4]	@ tmp373, hdma
 1901 033a 4FF01102 		mov	r2, #17	@ tmp374,
 1902 033e 83F82120 		strb	r2, [r3, #33]	@ tmp375, hdma_39(D)->State
 563:Drivers/STM32L1xx_HAL_Driver/stm32l1xx_hal_dma.cpp **** 
 564:Drivers/STM32L1xx_HAL_Driver/stm32l1xx_hal_dma.cpp ****       if(hdma->XferHalfCpltCallback != NULL)
 1903              		.loc 1 564 0 discriminator 18
 1904 0342 7B68     		ldr	r3, [r7, #4]	@ tmp376, hdma
 1905 0344 DB6A     		ldr	r3, [r3, #44]	@ D.6094, hdma_39(D)->XferHalfCpltCallback
 1906 0346 002B     		cmp	r3, #0	@ D.6094,
 1907 0348 03D0     		beq	.L176	@,
 565:Drivers/STM32L1xx_HAL_Driver/stm32l1xx_hal_dma.cpp ****       {
 566:Drivers/STM32L1xx_HAL_Driver/stm32l1xx_hal_dma.cpp ****         /* Half transfer callback */
 567:Drivers/STM32L1xx_HAL_Driver/stm32l1xx_hal_dma.cpp ****         hdma->XferHalfCpltCallback(hdma);
 1908              		.loc 1 567 0
 1909 034a 7B68     		ldr	r3, [r7, #4]	@ tmp377, hdma
 1910 034c DB6A     		ldr	r3, [r3, #44]	@ D.6097, hdma_39(D)->XferHalfCpltCallback
 1911 034e 7868     		ldr	r0, [r7, #4]	@, hdma
 1912 0350 9847     		blx	r3	@ D.6097
 1913              	.L176:
 568:Drivers/STM32L1xx_HAL_Driver/stm32l1xx_hal_dma.cpp ****       }
 569:Drivers/STM32L1xx_HAL_Driver/stm32l1xx_hal_dma.cpp ****     }
 570:Drivers/STM32L1xx_HAL_Driver/stm32l1xx_hal_dma.cpp ****   }
 571:Drivers/STM32L1xx_HAL_Driver/stm32l1xx_hal_dma.cpp ****   
 572:Drivers/STM32L1xx_HAL_Driver/stm32l1xx_hal_dma.cpp ****   /* Transfer Complete Interrupt management ***********************************/
 573:Drivers/STM32L1xx_HAL_Driver/stm32l1xx_hal_dma.cpp ****   if(__HAL_DMA_GET_FLAG(hdma, __HAL_DMA_GET_TC_FLAG_INDEX(hdma)) != RESET)
 1914              		.loc 1 573 0
 1915 0352 4FF4C043 		mov	r3, #24576	@ D.6102,
 1916 0356 C4F20203 		movt	r3, 16386	@ D.6102,
 1917 035a 1A68     		ldr	r2, [r3, #0]	@ D.6103, D.6102_170->ISR
 1918 035c 7B68     		ldr	r3, [r7, #4]	@ tmp378, hdma
 1919 035e 1B68     		ldr	r3, [r3, #0]	@ D.6105, hdma_39(D)->Instance
 1920 0360 1946     		mov	r1, r3	@ D.6106, D.6105
 1921 0362 46F20803 		movw	r3, #24584	@ tmp379,
 1922 0366 C4F20203 		movt	r3, 16386	@ tmp379,
 1923 036a 9942     		cmp	r1, r3	@ D.6106, tmp379
 1924 036c 3ED0     		beq	.L190	@,
 1925              		.loc 1 573 0 is_stmt 0 discriminator 1
 1926 036e 7B68     		ldr	r3, [r7, #4]	@ tmp380, hdma
 1927 0370 1B68     		ldr	r3, [r3, #0]	@ D.6110, hdma_39(D)->Instance
 1928 0372 1946     		mov	r1, r3	@ D.6111, D.6110
 1929 0374 46F21C03 		movw	r3, #24604	@ tmp381,
 1930 0378 C4F20203 		movt	r3, 16386	@ tmp381,
 1931 037c 9942     		cmp	r1, r3	@ D.6111, tmp381
 1932 037e 32D0     		beq	.L191	@,
 1933              		.loc 1 573 0 discriminator 3
ARM GAS  /tmp/ccg3UWOM.s 			page 45


 1934 0380 7B68     		ldr	r3, [r7, #4]	@ tmp382, hdma
 1935 0382 1B68     		ldr	r3, [r3, #0]	@ D.6115, hdma_39(D)->Instance
 1936 0384 1946     		mov	r1, r3	@ D.6116, D.6115
 1937 0386 46F23003 		movw	r3, #24624	@ tmp383,
 1938 038a C4F20203 		movt	r3, 16386	@ tmp383,
 1939 038e 9942     		cmp	r1, r3	@ D.6116, tmp383
 1940 0390 26D0     		beq	.L192	@,
 1941              		.loc 1 573 0 discriminator 5
 1942 0392 7B68     		ldr	r3, [r7, #4]	@ tmp384, hdma
 1943 0394 1B68     		ldr	r3, [r3, #0]	@ D.6120, hdma_39(D)->Instance
 1944 0396 1946     		mov	r1, r3	@ D.6121, D.6120
 1945 0398 46F24403 		movw	r3, #24644	@ tmp385,
 1946 039c C4F20203 		movt	r3, 16386	@ tmp385,
 1947 03a0 9942     		cmp	r1, r3	@ D.6121, tmp385
 1948 03a2 1AD0     		beq	.L193	@,
 1949              		.loc 1 573 0 discriminator 7
 1950 03a4 7B68     		ldr	r3, [r7, #4]	@ tmp386, hdma
 1951 03a6 1B68     		ldr	r3, [r3, #0]	@ D.6125, hdma_39(D)->Instance
 1952 03a8 1946     		mov	r1, r3	@ D.6126, D.6125
 1953 03aa 46F25803 		movw	r3, #24664	@ tmp387,
 1954 03ae C4F20203 		movt	r3, 16386	@ tmp387,
 1955 03b2 9942     		cmp	r1, r3	@ D.6126, tmp387
 1956 03b4 0ED0     		beq	.L194	@,
 1957              		.loc 1 573 0 discriminator 9
 1958 03b6 7B68     		ldr	r3, [r7, #4]	@ tmp388, hdma
 1959 03b8 1B68     		ldr	r3, [r3, #0]	@ D.6130, hdma_39(D)->Instance
 1960 03ba 1946     		mov	r1, r3	@ D.6131, D.6130
 1961 03bc 46F26C03 		movw	r3, #24684	@ tmp389,
 1962 03c0 C4F20203 		movt	r3, 16386	@ tmp389,
 1963 03c4 9942     		cmp	r1, r3	@ D.6131, tmp389
 1964 03c6 02D1     		bne	.L195	@,
 1965              		.loc 1 573 0 discriminator 11
 1966 03c8 4FF40013 		mov	r3, #2097152	@ iftmp.35,
 1967 03cc 01E0     		b	.L196	@
 1968              	.L195:
 1969              		.loc 1 573 0 discriminator 12
 1970 03ce 4FF00073 		mov	r3, #33554432	@ iftmp.35,
 1971              	.L196:
 1972 03d2 01E0     		b	.L197	@
 1973              	.L194:
 1974              		.loc 1 573 0 discriminator 10
 1975 03d4 4FF40033 		mov	r3, #131072	@ iftmp.34,
 1976              	.L197:
 1977 03d8 01E0     		b	.L198	@
 1978              	.L193:
 1979              		.loc 1 573 0 discriminator 8
 1980 03da 4FF40053 		mov	r3, #8192	@ iftmp.33,
 1981              	.L198:
 1982 03de 01E0     		b	.L199	@
 1983              	.L192:
 1984              		.loc 1 573 0 discriminator 6
 1985 03e0 4FF40073 		mov	r3, #512	@ iftmp.32,
 1986              	.L199:
 1987 03e4 01E0     		b	.L200	@
 1988              	.L191:
 1989              		.loc 1 573 0 discriminator 4
 1990 03e6 4FF02003 		mov	r3, #32	@ iftmp.31,
ARM GAS  /tmp/ccg3UWOM.s 			page 46


 1991              	.L200:
 1992 03ea 01E0     		b	.L201	@
 1993              	.L190:
 1994              		.loc 1 573 0 discriminator 2
 1995 03ec 4FF00203 		mov	r3, #2	@ iftmp.30,
 1996              	.L201:
 1997              		.loc 1 573 0 discriminator 18
 1998 03f0 1340     		ands	r3, r3, r2	@, D.6140, iftmp.30, D.6103
 1999 03f2 002B     		cmp	r3, #0	@ D.6140,
 2000 03f4 0CBF     		ite	eq	@
 2001 03f6 0023     		moveq	r3, #0	@, tmp391
 2002 03f8 0123     		movne	r3, #1	@, tmp391
 2003 03fa DBB2     		uxtb	r3, r3	@ retval.29, tmp390
 2004 03fc 002B     		cmp	r3, #0	@ retval.29,
 2005 03fe 00F08580 		beq	.L138	@,
 574:Drivers/STM32L1xx_HAL_Driver/stm32l1xx_hal_dma.cpp ****   {
 575:Drivers/STM32L1xx_HAL_Driver/stm32l1xx_hal_dma.cpp ****     if(__HAL_DMA_GET_IT_SOURCE(hdma, DMA_IT_TC) != RESET)
 2006              		.loc 1 575 0 is_stmt 1
 2007 0402 7B68     		ldr	r3, [r7, #4]	@ tmp392, hdma
 2008 0404 1B68     		ldr	r3, [r3, #0]	@ D.6144, hdma_39(D)->Instance
 2009 0406 1B68     		ldr	r3, [r3, #0]	@ D.6145, D.6144_198->CCR
 2010 0408 03F00203 		and	r3, r3, #2	@ D.6146, D.6145,
 2011 040c 002B     		cmp	r3, #0	@ D.6146,
 2012 040e 0CBF     		ite	eq	@
 2013 0410 0023     		moveq	r3, #0	@, tmp394
 2014 0412 0123     		movne	r3, #1	@, tmp394
 2015 0414 DBB2     		uxtb	r3, r3	@ retval.36, tmp393
 2016 0416 002B     		cmp	r3, #0	@ retval.36,
 2017 0418 78D0     		beq	.L138	@,
 576:Drivers/STM32L1xx_HAL_Driver/stm32l1xx_hal_dma.cpp ****     {
 577:Drivers/STM32L1xx_HAL_Driver/stm32l1xx_hal_dma.cpp ****       if((hdma->Instance->CCR & DMA_CCR_CIRC) == 0)
 2018              		.loc 1 577 0
 2019 041a 7B68     		ldr	r3, [r7, #4]	@ tmp395, hdma
 2020 041c 1B68     		ldr	r3, [r3, #0]	@ D.6150, hdma_39(D)->Instance
 2021 041e 1B68     		ldr	r3, [r3, #0]	@ D.6151, D.6150_202->CCR
 2022 0420 03F02003 		and	r3, r3, #32	@ D.6152, D.6151,
 2023 0424 002B     		cmp	r3, #0	@ D.6152,
 2024 0426 14BF     		ite	ne	@
 2025 0428 0023     		movne	r3, #0	@, tmp397
 2026 042a 0123     		moveq	r3, #1	@, tmp397
 2027 042c DBB2     		uxtb	r3, r3	@ retval.37, tmp396
 2028 042e 002B     		cmp	r3, #0	@ retval.37,
 2029 0430 07D0     		beq	.L203	@,
 578:Drivers/STM32L1xx_HAL_Driver/stm32l1xx_hal_dma.cpp ****   { 
 579:Drivers/STM32L1xx_HAL_Driver/stm32l1xx_hal_dma.cpp ****     /* Disable the transfer complete interrupt */
 580:Drivers/STM32L1xx_HAL_Driver/stm32l1xx_hal_dma.cpp ****     __HAL_DMA_DISABLE_IT(hdma, DMA_IT_TC);
 2030              		.loc 1 580 0
 2031 0432 7B68     		ldr	r3, [r7, #4]	@ tmp398, hdma
 2032 0434 1B68     		ldr	r3, [r3, #0]	@ D.6155, hdma_39(D)->Instance
 2033 0436 7A68     		ldr	r2, [r7, #4]	@ tmp399, hdma
 2034 0438 1268     		ldr	r2, [r2, #0]	@ D.6156, hdma_39(D)->Instance
 2035 043a 1268     		ldr	r2, [r2, #0]	@ D.6157, D.6156_207->CCR
 2036 043c 22F00202 		bic	r2, r2, #2	@ D.6158, D.6157,
 2037 0440 1A60     		str	r2, [r3, #0]	@ D.6158, D.6155_206->CCR
 2038              	.L203:
 581:Drivers/STM32L1xx_HAL_Driver/stm32l1xx_hal_dma.cpp ****       }
 582:Drivers/STM32L1xx_HAL_Driver/stm32l1xx_hal_dma.cpp ****       /* Clear the transfer complete flag */
ARM GAS  /tmp/ccg3UWOM.s 			page 47


 583:Drivers/STM32L1xx_HAL_Driver/stm32l1xx_hal_dma.cpp ****       __HAL_DMA_CLEAR_FLAG(hdma, __HAL_DMA_GET_TC_FLAG_INDEX(hdma));
 2039              		.loc 1 583 0
 2040 0442 4FF4C043 		mov	r3, #24576	@ D.6160,
 2041 0446 C4F20203 		movt	r3, 16386	@ D.6160,
 2042 044a 7A68     		ldr	r2, [r7, #4]	@ tmp400, hdma
 2043 044c 1268     		ldr	r2, [r2, #0]	@ D.6162, hdma_39(D)->Instance
 2044 044e 1146     		mov	r1, r2	@ D.6163, D.6162
 2045 0450 46F20802 		movw	r2, #24584	@ tmp401,
 2046 0454 C4F20202 		movt	r2, 16386	@ tmp401,
 2047 0458 9142     		cmp	r1, r2	@ D.6163, tmp401
 2048 045a 3ED0     		beq	.L204	@,
 2049              		.loc 1 583 0 is_stmt 0 discriminator 1
 2050 045c 7A68     		ldr	r2, [r7, #4]	@ tmp402, hdma
 2051 045e 1268     		ldr	r2, [r2, #0]	@ D.6167, hdma_39(D)->Instance
 2052 0460 1146     		mov	r1, r2	@ D.6168, D.6167
 2053 0462 46F21C02 		movw	r2, #24604	@ tmp403,
 2054 0466 C4F20202 		movt	r2, 16386	@ tmp403,
 2055 046a 9142     		cmp	r1, r2	@ D.6168, tmp403
 2056 046c 32D0     		beq	.L205	@,
 2057              		.loc 1 583 0 discriminator 3
 2058 046e 7A68     		ldr	r2, [r7, #4]	@ tmp404, hdma
 2059 0470 1268     		ldr	r2, [r2, #0]	@ D.6172, hdma_39(D)->Instance
 2060 0472 1146     		mov	r1, r2	@ D.6173, D.6172
 2061 0474 46F23002 		movw	r2, #24624	@ tmp405,
 2062 0478 C4F20202 		movt	r2, 16386	@ tmp405,
 2063 047c 9142     		cmp	r1, r2	@ D.6173, tmp405
 2064 047e 26D0     		beq	.L206	@,
 2065              		.loc 1 583 0 discriminator 5
 2066 0480 7A68     		ldr	r2, [r7, #4]	@ tmp406, hdma
 2067 0482 1268     		ldr	r2, [r2, #0]	@ D.6177, hdma_39(D)->Instance
 2068 0484 1146     		mov	r1, r2	@ D.6178, D.6177
 2069 0486 46F24402 		movw	r2, #24644	@ tmp407,
 2070 048a C4F20202 		movt	r2, 16386	@ tmp407,
 2071 048e 9142     		cmp	r1, r2	@ D.6178, tmp407
 2072 0490 1AD0     		beq	.L207	@,
 2073              		.loc 1 583 0 discriminator 7
 2074 0492 7A68     		ldr	r2, [r7, #4]	@ tmp408, hdma
 2075 0494 1268     		ldr	r2, [r2, #0]	@ D.6182, hdma_39(D)->Instance
 2076 0496 1146     		mov	r1, r2	@ D.6183, D.6182
 2077 0498 46F25802 		movw	r2, #24664	@ tmp409,
 2078 049c C4F20202 		movt	r2, 16386	@ tmp409,
 2079 04a0 9142     		cmp	r1, r2	@ D.6183, tmp409
 2080 04a2 0ED0     		beq	.L208	@,
 2081              		.loc 1 583 0 discriminator 9
 2082 04a4 7A68     		ldr	r2, [r7, #4]	@ tmp410, hdma
 2083 04a6 1268     		ldr	r2, [r2, #0]	@ D.6187, hdma_39(D)->Instance
 2084 04a8 1146     		mov	r1, r2	@ D.6188, D.6187
 2085 04aa 46F26C02 		movw	r2, #24684	@ tmp411,
 2086 04ae C4F20202 		movt	r2, 16386	@ tmp411,
 2087 04b2 9142     		cmp	r1, r2	@ D.6188, tmp411
 2088 04b4 02D1     		bne	.L209	@,
 2089              		.loc 1 583 0 discriminator 11
 2090 04b6 4FF40012 		mov	r2, #2097152	@ iftmp.43,
 2091 04ba 01E0     		b	.L210	@
 2092              	.L209:
 2093              		.loc 1 583 0 discriminator 12
 2094 04bc 4FF00072 		mov	r2, #33554432	@ iftmp.43,
ARM GAS  /tmp/ccg3UWOM.s 			page 48


 2095              	.L210:
 2096 04c0 01E0     		b	.L211	@
 2097              	.L208:
 2098              		.loc 1 583 0 discriminator 10
 2099 04c2 4FF40032 		mov	r2, #131072	@ iftmp.42,
 2100              	.L211:
 2101 04c6 01E0     		b	.L212	@
 2102              	.L207:
 2103              		.loc 1 583 0 discriminator 8
 2104 04c8 4FF40052 		mov	r2, #8192	@ iftmp.41,
 2105              	.L212:
 2106 04cc 01E0     		b	.L213	@
 2107              	.L206:
 2108              		.loc 1 583 0 discriminator 6
 2109 04ce 4FF40072 		mov	r2, #512	@ iftmp.40,
 2110              	.L213:
 2111 04d2 01E0     		b	.L214	@
 2112              	.L205:
 2113              		.loc 1 583 0 discriminator 4
 2114 04d4 4FF02002 		mov	r2, #32	@ iftmp.39,
 2115              	.L214:
 2116 04d8 01E0     		b	.L215	@
 2117              	.L204:
 2118              		.loc 1 583 0 discriminator 2
 2119 04da 4FF00202 		mov	r2, #2	@ iftmp.38,
 2120              	.L215:
 2121              		.loc 1 583 0 discriminator 18
 2122 04de 5A60     		str	r2, [r3, #4]	@ iftmp.38, D.6160_210->IFCR
 584:Drivers/STM32L1xx_HAL_Driver/stm32l1xx_hal_dma.cpp ****     
 585:Drivers/STM32L1xx_HAL_Driver/stm32l1xx_hal_dma.cpp ****       /* Update error code */
 586:Drivers/STM32L1xx_HAL_Driver/stm32l1xx_hal_dma.cpp ****       SET_BIT(hdma->ErrorCode, HAL_DMA_ERROR_NONE);
 2123              		.loc 1 586 0 is_stmt 1 discriminator 18
 2124 04e0 7B68     		ldr	r3, [r7, #4]	@ tmp412, hdma
 2125 04e2 5A6B     		ldr	r2, [r3, #52]	@ D.6197, hdma_39(D)->ErrorCode
 2126 04e4 7B68     		ldr	r3, [r7, #4]	@ tmp413, hdma
 2127 04e6 5A63     		str	r2, [r3, #52]	@ D.6197, hdma_39(D)->ErrorCode
 587:Drivers/STM32L1xx_HAL_Driver/stm32l1xx_hal_dma.cpp **** 
 588:Drivers/STM32L1xx_HAL_Driver/stm32l1xx_hal_dma.cpp ****       /* Change the DMA state */
 589:Drivers/STM32L1xx_HAL_Driver/stm32l1xx_hal_dma.cpp ****     hdma->State = HAL_DMA_STATE_READY;    
 2128              		.loc 1 589 0 discriminator 18
 2129 04e8 7B68     		ldr	r3, [r7, #4]	@ tmp414, hdma
 2130 04ea 4FF00102 		mov	r2, #1	@ tmp415,
 2131 04ee 83F82120 		strb	r2, [r3, #33]	@ tmp416, hdma_39(D)->State
 590:Drivers/STM32L1xx_HAL_Driver/stm32l1xx_hal_dma.cpp ****     
 591:Drivers/STM32L1xx_HAL_Driver/stm32l1xx_hal_dma.cpp ****       /* Process Unlocked */
 592:Drivers/STM32L1xx_HAL_Driver/stm32l1xx_hal_dma.cpp ****     __HAL_UNLOCK(hdma);
 2132              		.loc 1 592 0 discriminator 18
 2133 04f2 7B68     		ldr	r3, [r7, #4]	@ tmp417, hdma
 2134 04f4 4FF00002 		mov	r2, #0	@ tmp418,
 2135 04f8 83F82020 		strb	r2, [r3, #32]	@ tmp419, hdma_39(D)->Lock
 593:Drivers/STM32L1xx_HAL_Driver/stm32l1xx_hal_dma.cpp ****     
 594:Drivers/STM32L1xx_HAL_Driver/stm32l1xx_hal_dma.cpp ****     if(hdma->XferCpltCallback != NULL)
 2136              		.loc 1 594 0 discriminator 18
 2137 04fc 7B68     		ldr	r3, [r7, #4]	@ tmp420, hdma
 2138 04fe 9B6A     		ldr	r3, [r3, #40]	@ D.6200, hdma_39(D)->XferCpltCallback
 2139 0500 002B     		cmp	r3, #0	@ D.6200,
 2140 0502 03D0     		beq	.L138	@,
ARM GAS  /tmp/ccg3UWOM.s 			page 49


 595:Drivers/STM32L1xx_HAL_Driver/stm32l1xx_hal_dma.cpp ****     {       
 596:Drivers/STM32L1xx_HAL_Driver/stm32l1xx_hal_dma.cpp ****         /* Transfer complete callback */
 597:Drivers/STM32L1xx_HAL_Driver/stm32l1xx_hal_dma.cpp ****       hdma->XferCpltCallback(hdma);
 2141              		.loc 1 597 0
 2142 0504 7B68     		ldr	r3, [r7, #4]	@ tmp421, hdma
 2143 0506 9B6A     		ldr	r3, [r3, #40]	@ D.6203, hdma_39(D)->XferCpltCallback
 2144 0508 7868     		ldr	r0, [r7, #4]	@, hdma
 2145 050a 9847     		blx	r3	@ D.6203
 2146              	.L138:
 598:Drivers/STM32L1xx_HAL_Driver/stm32l1xx_hal_dma.cpp ****     }
 599:Drivers/STM32L1xx_HAL_Driver/stm32l1xx_hal_dma.cpp ****   }
 600:Drivers/STM32L1xx_HAL_Driver/stm32l1xx_hal_dma.cpp **** }  
 601:Drivers/STM32L1xx_HAL_Driver/stm32l1xx_hal_dma.cpp **** }  
 2147              		.loc 1 601 0
 2148 050c 07F10807 		add	r7, r7, #8	@,,
 2149 0510 BD46     		mov	sp, r7
 2150 0512 80BD     		pop	{r7, pc}
 2151              		.cfi_endproc
 2152              	.LFE62:
 2153              		.size	HAL_DMA_IRQHandler, .-HAL_DMA_IRQHandler
 2154              		.section	.text.HAL_DMA_GetState,"ax",%progbits
 2155              		.align	2
 2156              		.global	HAL_DMA_GetState
 2157              		.thumb
 2158              		.thumb_func
 2159              		.type	HAL_DMA_GetState, %function
 2160              	HAL_DMA_GetState:
 2161              	.LFB63:
 602:Drivers/STM32L1xx_HAL_Driver/stm32l1xx_hal_dma.cpp **** 
 603:Drivers/STM32L1xx_HAL_Driver/stm32l1xx_hal_dma.cpp **** /**
 604:Drivers/STM32L1xx_HAL_Driver/stm32l1xx_hal_dma.cpp ****   * @}
 605:Drivers/STM32L1xx_HAL_Driver/stm32l1xx_hal_dma.cpp ****   */
 606:Drivers/STM32L1xx_HAL_Driver/stm32l1xx_hal_dma.cpp **** 
 607:Drivers/STM32L1xx_HAL_Driver/stm32l1xx_hal_dma.cpp **** /** @defgroup DMA_Group3 Peripheral State functions
 608:Drivers/STM32L1xx_HAL_Driver/stm32l1xx_hal_dma.cpp ****  *  @brief    Peripheral State functions 
 609:Drivers/STM32L1xx_HAL_Driver/stm32l1xx_hal_dma.cpp ****  *
 610:Drivers/STM32L1xx_HAL_Driver/stm32l1xx_hal_dma.cpp **** @verbatim   
 611:Drivers/STM32L1xx_HAL_Driver/stm32l1xx_hal_dma.cpp ****  ===============================================================================
 612:Drivers/STM32L1xx_HAL_Driver/stm32l1xx_hal_dma.cpp ****                     ##### State and Errors functions #####
 613:Drivers/STM32L1xx_HAL_Driver/stm32l1xx_hal_dma.cpp ****  ===============================================================================  
 614:Drivers/STM32L1xx_HAL_Driver/stm32l1xx_hal_dma.cpp ****     [..]
 615:Drivers/STM32L1xx_HAL_Driver/stm32l1xx_hal_dma.cpp ****     This subsection provides functions allowing to
 616:Drivers/STM32L1xx_HAL_Driver/stm32l1xx_hal_dma.cpp ****       (+) Check the DMA state
 617:Drivers/STM32L1xx_HAL_Driver/stm32l1xx_hal_dma.cpp ****       (+) Get error code
 618:Drivers/STM32L1xx_HAL_Driver/stm32l1xx_hal_dma.cpp **** 
 619:Drivers/STM32L1xx_HAL_Driver/stm32l1xx_hal_dma.cpp **** @endverbatim
 620:Drivers/STM32L1xx_HAL_Driver/stm32l1xx_hal_dma.cpp ****   * @{
 621:Drivers/STM32L1xx_HAL_Driver/stm32l1xx_hal_dma.cpp ****   */  
 622:Drivers/STM32L1xx_HAL_Driver/stm32l1xx_hal_dma.cpp **** 
 623:Drivers/STM32L1xx_HAL_Driver/stm32l1xx_hal_dma.cpp **** /**
 624:Drivers/STM32L1xx_HAL_Driver/stm32l1xx_hal_dma.cpp ****   * @brief  Returns the DMA state.
 625:Drivers/STM32L1xx_HAL_Driver/stm32l1xx_hal_dma.cpp ****   * @param  hdma: pointer to a DMA_HandleTypeDef structure that contains
 626:Drivers/STM32L1xx_HAL_Driver/stm32l1xx_hal_dma.cpp ****   *               the configuration information for the specified DMA Channel.  
 627:Drivers/STM32L1xx_HAL_Driver/stm32l1xx_hal_dma.cpp ****   * @retval HAL state
 628:Drivers/STM32L1xx_HAL_Driver/stm32l1xx_hal_dma.cpp ****   */
 629:Drivers/STM32L1xx_HAL_Driver/stm32l1xx_hal_dma.cpp **** HAL_DMA_StateTypeDef HAL_DMA_GetState(DMA_HandleTypeDef *hdma)
 630:Drivers/STM32L1xx_HAL_Driver/stm32l1xx_hal_dma.cpp **** {
ARM GAS  /tmp/ccg3UWOM.s 			page 50


 2162              		.loc 1 630 0
 2163              		.cfi_startproc
 2164              		@ args = 0, pretend = 0, frame = 8
 2165              		@ frame_needed = 1, uses_anonymous_args = 0
 2166              		@ link register save eliminated.
 2167 0000 80B4     		push	{r7}	@
 2168              	.LCFI21:
 2169              		.cfi_def_cfa_offset 4
 2170              		.cfi_offset 7, -4
 2171 0002 83B0     		sub	sp, sp, #12	@,,
 2172              	.LCFI22:
 2173              		.cfi_def_cfa_offset 16
 2174 0004 00AF     		add	r7, sp, #0	@,,
 2175              	.LCFI23:
 2176              		.cfi_def_cfa_register 7
 2177 0006 7860     		str	r0, [r7, #4]	@ hdma, hdma
 631:Drivers/STM32L1xx_HAL_Driver/stm32l1xx_hal_dma.cpp ****   return hdma->State;
 2178              		.loc 1 631 0
 2179 0008 7B68     		ldr	r3, [r7, #4]	@ tmp136, hdma
 2180 000a 93F82130 		ldrb	r3, [r3, #33]	@ zero_extendqisi2	@ D.5896, hdma_1(D)->State
 632:Drivers/STM32L1xx_HAL_Driver/stm32l1xx_hal_dma.cpp **** }
 2181              		.loc 1 632 0
 2182 000e 1846     		mov	r0, r3	@, <retval>
 2183 0010 07F10C07 		add	r7, r7, #12	@,,
 2184 0014 BD46     		mov	sp, r7
 2185 0016 80BC     		pop	{r7}
 2186 0018 7047     		bx	lr
 2187              		.cfi_endproc
 2188              	.LFE63:
 2189              		.size	HAL_DMA_GetState, .-HAL_DMA_GetState
 2190 001a 00BF     		.section	.text.HAL_DMA_GetError,"ax",%progbits
 2191              		.align	2
 2192              		.global	HAL_DMA_GetError
 2193              		.thumb
 2194              		.thumb_func
 2195              		.type	HAL_DMA_GetError, %function
 2196              	HAL_DMA_GetError:
 2197              	.LFB64:
 633:Drivers/STM32L1xx_HAL_Driver/stm32l1xx_hal_dma.cpp **** 
 634:Drivers/STM32L1xx_HAL_Driver/stm32l1xx_hal_dma.cpp **** /**
 635:Drivers/STM32L1xx_HAL_Driver/stm32l1xx_hal_dma.cpp ****   * @brief  Return the DMA error code
 636:Drivers/STM32L1xx_HAL_Driver/stm32l1xx_hal_dma.cpp ****   * @param  hdma : pointer to a DMA_HandleTypeDef structure that contains
 637:Drivers/STM32L1xx_HAL_Driver/stm32l1xx_hal_dma.cpp ****   *              the configuration information for the specified DMA Channel.
 638:Drivers/STM32L1xx_HAL_Driver/stm32l1xx_hal_dma.cpp ****   * @retval DMA Error Code
 639:Drivers/STM32L1xx_HAL_Driver/stm32l1xx_hal_dma.cpp ****   */
 640:Drivers/STM32L1xx_HAL_Driver/stm32l1xx_hal_dma.cpp **** uint32_t HAL_DMA_GetError(DMA_HandleTypeDef *hdma)
 641:Drivers/STM32L1xx_HAL_Driver/stm32l1xx_hal_dma.cpp **** {
 2198              		.loc 1 641 0
 2199              		.cfi_startproc
 2200              		@ args = 0, pretend = 0, frame = 8
 2201              		@ frame_needed = 1, uses_anonymous_args = 0
 2202              		@ link register save eliminated.
 2203 0000 80B4     		push	{r7}	@
 2204              	.LCFI24:
 2205              		.cfi_def_cfa_offset 4
 2206              		.cfi_offset 7, -4
 2207 0002 83B0     		sub	sp, sp, #12	@,,
ARM GAS  /tmp/ccg3UWOM.s 			page 51


 2208              	.LCFI25:
 2209              		.cfi_def_cfa_offset 16
 2210 0004 00AF     		add	r7, sp, #0	@,,
 2211              	.LCFI26:
 2212              		.cfi_def_cfa_register 7
 2213 0006 7860     		str	r0, [r7, #4]	@ hdma, hdma
 642:Drivers/STM32L1xx_HAL_Driver/stm32l1xx_hal_dma.cpp ****   return hdma->ErrorCode;
 2214              		.loc 1 642 0
 2215 0008 7B68     		ldr	r3, [r7, #4]	@ tmp136, hdma
 2216 000a 5B6B     		ldr	r3, [r3, #52]	@ D.5894, hdma_1(D)->ErrorCode
 643:Drivers/STM32L1xx_HAL_Driver/stm32l1xx_hal_dma.cpp **** }
 2217              		.loc 1 643 0
 2218 000c 1846     		mov	r0, r3	@, <retval>
 2219 000e 07F10C07 		add	r7, r7, #12	@,,
 2220 0012 BD46     		mov	sp, r7
 2221 0014 80BC     		pop	{r7}
 2222 0016 7047     		bx	lr
 2223              		.cfi_endproc
 2224              	.LFE64:
 2225              		.size	HAL_DMA_GetError, .-HAL_DMA_GetError
 2226              		.section	.text._ZL13DMA_SetConfigP19__DMA_HandleTypeDefmmm,"ax",%progbits
 2227              		.align	2
 2228              		.thumb
 2229              		.thumb_func
 2230              		.type	_ZL13DMA_SetConfigP19__DMA_HandleTypeDefmmm, %function
 2231              	_ZL13DMA_SetConfigP19__DMA_HandleTypeDefmmm:
 2232              	.LFB65:
 644:Drivers/STM32L1xx_HAL_Driver/stm32l1xx_hal_dma.cpp **** 
 645:Drivers/STM32L1xx_HAL_Driver/stm32l1xx_hal_dma.cpp **** /**
 646:Drivers/STM32L1xx_HAL_Driver/stm32l1xx_hal_dma.cpp ****   * @}
 647:Drivers/STM32L1xx_HAL_Driver/stm32l1xx_hal_dma.cpp ****   */
 648:Drivers/STM32L1xx_HAL_Driver/stm32l1xx_hal_dma.cpp **** 
 649:Drivers/STM32L1xx_HAL_Driver/stm32l1xx_hal_dma.cpp **** /**
 650:Drivers/STM32L1xx_HAL_Driver/stm32l1xx_hal_dma.cpp ****   * @}
 651:Drivers/STM32L1xx_HAL_Driver/stm32l1xx_hal_dma.cpp ****   */
 652:Drivers/STM32L1xx_HAL_Driver/stm32l1xx_hal_dma.cpp **** 
 653:Drivers/STM32L1xx_HAL_Driver/stm32l1xx_hal_dma.cpp **** /** @addtogroup DMA_Private_Functions
 654:Drivers/STM32L1xx_HAL_Driver/stm32l1xx_hal_dma.cpp **** * @{
 655:Drivers/STM32L1xx_HAL_Driver/stm32l1xx_hal_dma.cpp **** */
 656:Drivers/STM32L1xx_HAL_Driver/stm32l1xx_hal_dma.cpp **** 
 657:Drivers/STM32L1xx_HAL_Driver/stm32l1xx_hal_dma.cpp **** /**
 658:Drivers/STM32L1xx_HAL_Driver/stm32l1xx_hal_dma.cpp ****   * @brief  Sets the DMA Transfer parameter.
 659:Drivers/STM32L1xx_HAL_Driver/stm32l1xx_hal_dma.cpp ****   * @param  hdma:       pointer to a DMA_HandleTypeDef structure that contains
 660:Drivers/STM32L1xx_HAL_Driver/stm32l1xx_hal_dma.cpp ****   *                     the configuration information for the specified DMA Channel.  
 661:Drivers/STM32L1xx_HAL_Driver/stm32l1xx_hal_dma.cpp ****   * @param  SrcAddress: The source memory Buffer address
 662:Drivers/STM32L1xx_HAL_Driver/stm32l1xx_hal_dma.cpp ****   * @param  DstAddress: The destination memory Buffer address
 663:Drivers/STM32L1xx_HAL_Driver/stm32l1xx_hal_dma.cpp ****   * @param  DataLength: The length of data to be transferred from source to destination
 664:Drivers/STM32L1xx_HAL_Driver/stm32l1xx_hal_dma.cpp ****   * @retval HAL status
 665:Drivers/STM32L1xx_HAL_Driver/stm32l1xx_hal_dma.cpp ****   */
 666:Drivers/STM32L1xx_HAL_Driver/stm32l1xx_hal_dma.cpp **** static void DMA_SetConfig(DMA_HandleTypeDef *hdma, uint32_t SrcAddress, uint32_t DstAddress, uint32
 667:Drivers/STM32L1xx_HAL_Driver/stm32l1xx_hal_dma.cpp **** {  
 2233              		.loc 1 667 0
 2234              		.cfi_startproc
 2235              		@ args = 0, pretend = 0, frame = 16
 2236              		@ frame_needed = 1, uses_anonymous_args = 0
 2237              		@ link register save eliminated.
 2238 0000 80B4     		push	{r7}	@
ARM GAS  /tmp/ccg3UWOM.s 			page 52


 2239              	.LCFI27:
 2240              		.cfi_def_cfa_offset 4
 2241              		.cfi_offset 7, -4
 2242 0002 85B0     		sub	sp, sp, #20	@,,
 2243              	.LCFI28:
 2244              		.cfi_def_cfa_offset 24
 2245 0004 00AF     		add	r7, sp, #0	@,,
 2246              	.LCFI29:
 2247              		.cfi_def_cfa_register 7
 2248 0006 F860     		str	r0, [r7, #12]	@ hdma, hdma
 2249 0008 B960     		str	r1, [r7, #8]	@ SrcAddress, SrcAddress
 2250 000a 7A60     		str	r2, [r7, #4]	@ DstAddress, DstAddress
 2251 000c 3B60     		str	r3, [r7, #0]	@ DataLength, DataLength
 668:Drivers/STM32L1xx_HAL_Driver/stm32l1xx_hal_dma.cpp ****   /* Configure DMA Channel data length */
 669:Drivers/STM32L1xx_HAL_Driver/stm32l1xx_hal_dma.cpp ****   hdma->Instance->CNDTR = DataLength;
 2252              		.loc 1 669 0
 2253 000e FB68     		ldr	r3, [r7, #12]	@ tmp140, hdma
 2254 0010 1B68     		ldr	r3, [r3, #0]	@ D.5885, hdma_1(D)->Instance
 2255 0012 3A68     		ldr	r2, [r7, #0]	@ tmp141, DataLength
 2256 0014 5A60     		str	r2, [r3, #4]	@ tmp141, D.5885_2->CNDTR
 670:Drivers/STM32L1xx_HAL_Driver/stm32l1xx_hal_dma.cpp ****   
 671:Drivers/STM32L1xx_HAL_Driver/stm32l1xx_hal_dma.cpp ****   /* Peripheral to Memory */
 672:Drivers/STM32L1xx_HAL_Driver/stm32l1xx_hal_dma.cpp ****   if((hdma->Init.Direction) == DMA_MEMORY_TO_PERIPH)
 2257              		.loc 1 672 0
 2258 0016 FB68     		ldr	r3, [r7, #12]	@ tmp142, hdma
 2259 0018 5B68     		ldr	r3, [r3, #4]	@ D.5886, hdma_1(D)->Init.Direction
 2260 001a 102B     		cmp	r3, #16	@ D.5886,
 2261 001c 08D1     		bne	.L221	@,
 673:Drivers/STM32L1xx_HAL_Driver/stm32l1xx_hal_dma.cpp ****   {   
 674:Drivers/STM32L1xx_HAL_Driver/stm32l1xx_hal_dma.cpp ****     /* Configure DMA Channel destination address */
 675:Drivers/STM32L1xx_HAL_Driver/stm32l1xx_hal_dma.cpp ****     hdma->Instance->CPAR = DstAddress;
 2262              		.loc 1 675 0
 2263 001e FB68     		ldr	r3, [r7, #12]	@ tmp143, hdma
 2264 0020 1B68     		ldr	r3, [r3, #0]	@ D.5889, hdma_1(D)->Instance
 2265 0022 7A68     		ldr	r2, [r7, #4]	@ tmp144, DstAddress
 2266 0024 9A60     		str	r2, [r3, #8]	@ tmp144, D.5889_5->CPAR
 676:Drivers/STM32L1xx_HAL_Driver/stm32l1xx_hal_dma.cpp ****     
 677:Drivers/STM32L1xx_HAL_Driver/stm32l1xx_hal_dma.cpp ****     /* Configure DMA Channel source address */
 678:Drivers/STM32L1xx_HAL_Driver/stm32l1xx_hal_dma.cpp ****     hdma->Instance->CMAR = SrcAddress;
 2267              		.loc 1 678 0
 2268 0026 FB68     		ldr	r3, [r7, #12]	@ tmp145, hdma
 2269 0028 1B68     		ldr	r3, [r3, #0]	@ D.5890, hdma_1(D)->Instance
 2270 002a BA68     		ldr	r2, [r7, #8]	@ tmp146, SrcAddress
 2271 002c DA60     		str	r2, [r3, #12]	@ tmp146, D.5890_7->CMAR
 2272 002e 07E0     		b	.L220	@
 2273              	.L221:
 679:Drivers/STM32L1xx_HAL_Driver/stm32l1xx_hal_dma.cpp ****   }
 680:Drivers/STM32L1xx_HAL_Driver/stm32l1xx_hal_dma.cpp ****   /* Memory to Peripheral */
 681:Drivers/STM32L1xx_HAL_Driver/stm32l1xx_hal_dma.cpp ****   else
 682:Drivers/STM32L1xx_HAL_Driver/stm32l1xx_hal_dma.cpp ****   {
 683:Drivers/STM32L1xx_HAL_Driver/stm32l1xx_hal_dma.cpp ****     /* Configure DMA Channel source address */
 684:Drivers/STM32L1xx_HAL_Driver/stm32l1xx_hal_dma.cpp ****     hdma->Instance->CPAR = SrcAddress;
 2274              		.loc 1 684 0
 2275 0030 FB68     		ldr	r3, [r7, #12]	@ tmp147, hdma
 2276 0032 1B68     		ldr	r3, [r3, #0]	@ D.5892, hdma_1(D)->Instance
 2277 0034 BA68     		ldr	r2, [r7, #8]	@ tmp148, SrcAddress
 2278 0036 9A60     		str	r2, [r3, #8]	@ tmp148, D.5892_9->CPAR
ARM GAS  /tmp/ccg3UWOM.s 			page 53


 685:Drivers/STM32L1xx_HAL_Driver/stm32l1xx_hal_dma.cpp ****     
 686:Drivers/STM32L1xx_HAL_Driver/stm32l1xx_hal_dma.cpp ****     /* Configure DMA Channel destination address */
 687:Drivers/STM32L1xx_HAL_Driver/stm32l1xx_hal_dma.cpp ****     hdma->Instance->CMAR = DstAddress;
 2279              		.loc 1 687 0
 2280 0038 FB68     		ldr	r3, [r7, #12]	@ tmp149, hdma
 2281 003a 1B68     		ldr	r3, [r3, #0]	@ D.5893, hdma_1(D)->Instance
 2282 003c 7A68     		ldr	r2, [r7, #4]	@ tmp150, DstAddress
 2283 003e DA60     		str	r2, [r3, #12]	@ tmp150, D.5893_10->CMAR
 2284              	.L220:
 688:Drivers/STM32L1xx_HAL_Driver/stm32l1xx_hal_dma.cpp ****   }
 689:Drivers/STM32L1xx_HAL_Driver/stm32l1xx_hal_dma.cpp **** }
 2285              		.loc 1 689 0
 2286 0040 07F11407 		add	r7, r7, #20	@,,
 2287 0044 BD46     		mov	sp, r7
 2288 0046 80BC     		pop	{r7}
 2289 0048 7047     		bx	lr
 2290              		.cfi_endproc
 2291              	.LFE65:
 2292              		.size	_ZL13DMA_SetConfigP19__DMA_HandleTypeDefmmm, .-_ZL13DMA_SetConfigP19__DMA_HandleTypeDefmmm
 2293 004a 00BF     		.text
 2294              	.Letext0:
 2295              		.file 2 "/home/maciek/gcc-arm-none-eabi/gcc-arm-none-eabi-4_7-2013q1/bin/../lib/gcc/arm-none-eabi/
 2296              		.file 3 "Drivers/CMSIS/Device/ST/STM32L1xx/stm32l152xb.h"
 2297              		.file 4 "Drivers/CMSIS/Device/ST/STM32L1xx/stm32l1xx.h"
 2298              		.file 5 "Drivers/STM32L1xx_HAL_Driver/stm32l1xx_hal_def.h"
 2299              		.file 6 "Drivers/STM32L1xx_HAL_Driver/stm32l1xx_hal_dma.h"
 2300              		.file 7 "Drivers/CMSIS/Include/core_cm3.h"