ARM GAS  /tmp/ccn09EVD.s 			page 1


   1              		.syntax unified
   2              		.cpu cortex-m3
   3              		.fpu softvfp
   4              		.eabi_attribute 20, 1	@ Tag_ABI_FP_denormal
   5              		.eabi_attribute 21, 1	@ Tag_ABI_FP_exceptions
   6              		.eabi_attribute 23, 3	@ Tag_ABI_FP_number_model
   7              		.eabi_attribute 24, 1	@ Tag_ABI_align8_needed
   8              		.eabi_attribute 25, 1	@ Tag_ABI_align8_preserved
   9              		.eabi_attribute 26, 1	@ Tag_ABI_enum_size
  10              		.eabi_attribute 30, 6	@ Tag_ABI_optimization_goals
  11              		.eabi_attribute 34, 1	@ Tag_CPU_unaligned_access
  12              		.eabi_attribute 18, 4	@ Tag_ABI_PCS_wchar_t
  13              		.file	"stm32l1xx_hal_rcc.cpp"
  14              	@ GNU C++ (GNU Tools for ARM Embedded Processors) version 4.7.3 20130312 (release) [ARM/embedded-4_
  15              	@	compiled by GNU C version 4.3.6, GMP version 4.3.2, MPFR version 2.4.2, MPC version 0.8.1
  16              	@ GGC heuristics: --param ggc-min-expand=100 --param ggc-min-heapsize=131072
  17              	@ options passed:  -I . -I Src -I hdr -I Inc -I Middlewares
  18              	@ -I Middlewares/ST -I Middlewares/ST/STM32_USB_Device_Library/Class/CDC
  19              	@ -I Middlewares/ST/STM32_USB_Device_Library/Core -I Drivers
  20              	@ -I Drivers/CMSIS -I Drivers/CMSIS/Device/ST/STM32L1xx
  21              	@ -I Drivers/CMSIS/Include -I Drivers/STM32L1xx_HAL_Driver
  22              	@ -imultilib armv7-m
  23              	@ -iprefix /home/maciek/gcc-arm-none-eabi/gcc-arm-none-eabi-4_7-2013q1/bin/../lib/gcc/arm-none-eabi
  24              	@ -isysroot /home/maciek/gcc-arm-none-eabi/gcc-arm-none-eabi-4_7-2013q1/bin/../arm-none-eabi
  25              	@ -MD out/stm32l1xx_hal_rcc.d -MF out/stm32l1xx_hal_rcc.d -MP
  26              	@ -MQ out/stm32l1xx_hal_rcc.o -D__USES_INITFINI__ -D STM32L1XX_MD
  27              	@ Drivers/STM32L1xx_HAL_Driver/stm32l1xx_hal_rcc.cpp -mcpu=cortex-m3
  28              	@ -mthumb -auxbase-strip out/stm32l1xx_hal_rcc.o -g -ggdb3 -O0 -Wall
  29              	@ -Wextra -std=gnu++11 -ffunction-sections -fdata-sections -fno-rtti
  30              	@ -fno-exceptions -fverbose-asm
  31              	@ options enabled:  -fauto-inc-dec -fbranch-count-reg -fcommon
  32              	@ -fdata-sections -fdebug-types-section -fdelete-null-pointer-checks
  33              	@ -fdwarf2-cfi-asm -fearly-inlining -feliminate-unused-debug-types
  34              	@ -ffunction-cse -ffunction-sections -fgcse-lm -fgnu-runtime -fident
  35              	@ -finline-atomics -fira-share-save-slots -fira-share-spill-slots -fivopts
  36              	@ -fkeep-static-consts -fleading-underscore -fmath-errno
  37              	@ -fmerge-debug-strings -fmove-loop-invariants -fpeephole
  38              	@ -fprefetch-loop-arrays -freg-struct-return
  39              	@ -fsched-critical-path-heuristic -fsched-dep-count-heuristic
  40              	@ -fsched-group-heuristic -fsched-interblock -fsched-last-insn-heuristic
  41              	@ -fsched-rank-heuristic -fsched-spec -fsched-spec-insn-heuristic
  42              	@ -fsched-stalled-insns-dep -fshow-column -fsigned-zeros
  43              	@ -fsplit-ivs-in-unroller -fstrict-volatile-bitfields -ftrapping-math
  44              	@ -ftree-cselim -ftree-forwprop -ftree-loop-if-convert -ftree-loop-im
  45              	@ -ftree-loop-ivcanon -ftree-loop-optimize -ftree-parallelize-loops=
  46              	@ -ftree-phiprop -ftree-pta -ftree-reassoc -ftree-scev-cprop
  47              	@ -ftree-slp-vectorize -ftree-vect-loop-version -funit-at-a-time
  48              	@ -fverbose-asm -fzero-initialized-in-bss -mfix-cortex-m3-ldrd
  49              	@ -mlittle-endian -msched-prolog -mthumb -munaligned-access
  50              	@ -mvectorize-with-neon-quad
  51              	
  52              		.text
  53              	.Ltext0:
  54              		.cfi_sections	.debug_frame
  55              		.section	.text.HAL_RCC_DeInit,"ax",%progbits
  56              		.align	2
  57              		.global	HAL_RCC_DeInit
ARM GAS  /tmp/ccn09EVD.s 			page 2


  58              		.thumb
  59              		.thumb_func
  60              		.type	HAL_RCC_DeInit, %function
  61              	HAL_RCC_DeInit:
  62              	.LFB56:
  63              		.file 1 "Drivers/STM32L1xx_HAL_Driver/stm32l1xx_hal_rcc.cpp"
   1:Drivers/STM32L1xx_HAL_Driver/stm32l1xx_hal_rcc.cpp **** /**
   2:Drivers/STM32L1xx_HAL_Driver/stm32l1xx_hal_rcc.cpp ****   ******************************************************************************
   3:Drivers/STM32L1xx_HAL_Driver/stm32l1xx_hal_rcc.cpp ****   * @file    stm32l1xx_hal_rcc.c
   4:Drivers/STM32L1xx_HAL_Driver/stm32l1xx_hal_rcc.cpp ****   * @author  MCD Application Team
   5:Drivers/STM32L1xx_HAL_Driver/stm32l1xx_hal_rcc.cpp ****   * @version V1.0.0
   6:Drivers/STM32L1xx_HAL_Driver/stm32l1xx_hal_rcc.cpp ****   * @date    5-September-2014
   7:Drivers/STM32L1xx_HAL_Driver/stm32l1xx_hal_rcc.cpp ****   * @brief   RCC HAL module driver.
   8:Drivers/STM32L1xx_HAL_Driver/stm32l1xx_hal_rcc.cpp ****   *          This file provides firmware functions to manage the following 
   9:Drivers/STM32L1xx_HAL_Driver/stm32l1xx_hal_rcc.cpp ****   *          functionalities of the Reset and Clock Control (RCC) peripheral:
  10:Drivers/STM32L1xx_HAL_Driver/stm32l1xx_hal_rcc.cpp ****   *           + Initialization and de-initialization functions
  11:Drivers/STM32L1xx_HAL_Driver/stm32l1xx_hal_rcc.cpp ****   *           + Peripheral Control functions
  12:Drivers/STM32L1xx_HAL_Driver/stm32l1xx_hal_rcc.cpp ****   *       
  13:Drivers/STM32L1xx_HAL_Driver/stm32l1xx_hal_rcc.cpp ****   @verbatim                
  14:Drivers/STM32L1xx_HAL_Driver/stm32l1xx_hal_rcc.cpp ****   ==============================================================================
  15:Drivers/STM32L1xx_HAL_Driver/stm32l1xx_hal_rcc.cpp ****                       ##### RCC specific features #####
  16:Drivers/STM32L1xx_HAL_Driver/stm32l1xx_hal_rcc.cpp ****   ==============================================================================
  17:Drivers/STM32L1xx_HAL_Driver/stm32l1xx_hal_rcc.cpp ****     [..]  
  18:Drivers/STM32L1xx_HAL_Driver/stm32l1xx_hal_rcc.cpp ****       After reset the device is running from multispeed internal oscillator clock 
  19:Drivers/STM32L1xx_HAL_Driver/stm32l1xx_hal_rcc.cpp ****       (MSI 2.097MHz) with Flash 0 wait state and Flash prefetch buffer is disabled, 
  20:Drivers/STM32L1xx_HAL_Driver/stm32l1xx_hal_rcc.cpp ****       and all peripherals are off except internal SRAM, Flash and JTAG.
  21:Drivers/STM32L1xx_HAL_Driver/stm32l1xx_hal_rcc.cpp ****       (+) There is no prescaler on High speed (AHB) and Low speed (APB) busses;
  22:Drivers/STM32L1xx_HAL_Driver/stm32l1xx_hal_rcc.cpp ****           all peripherals mapped on these busses are running at MSI speed.
  23:Drivers/STM32L1xx_HAL_Driver/stm32l1xx_hal_rcc.cpp ****       (+) The clock for all peripherals is switched off, except the SRAM and FLASH.
  24:Drivers/STM32L1xx_HAL_Driver/stm32l1xx_hal_rcc.cpp ****       (+) All GPIOs are in input floating state, except the JTAG pins which
  25:Drivers/STM32L1xx_HAL_Driver/stm32l1xx_hal_rcc.cpp ****           are assigned to be used for debug purpose.
  26:Drivers/STM32L1xx_HAL_Driver/stm32l1xx_hal_rcc.cpp ****     [..] Once the device started from reset, the user application has to:
  27:Drivers/STM32L1xx_HAL_Driver/stm32l1xx_hal_rcc.cpp ****       (+) Configure the clock source to be used to drive the System clock
  28:Drivers/STM32L1xx_HAL_Driver/stm32l1xx_hal_rcc.cpp ****           (if the application needs higher frequency/performance)
  29:Drivers/STM32L1xx_HAL_Driver/stm32l1xx_hal_rcc.cpp ****       (+) Configure the System clock frequency and Flash settings  
  30:Drivers/STM32L1xx_HAL_Driver/stm32l1xx_hal_rcc.cpp ****       (+) Configure the AHB and APB busses prescalers
  31:Drivers/STM32L1xx_HAL_Driver/stm32l1xx_hal_rcc.cpp ****       (+) Enable the clock for the peripheral(s) to be used
  32:Drivers/STM32L1xx_HAL_Driver/stm32l1xx_hal_rcc.cpp ****       (+) Configure the clock source(s) for peripherals whose clocks are not
  33:Drivers/STM32L1xx_HAL_Driver/stm32l1xx_hal_rcc.cpp ****           derived from the System clock (I2S, RTC, ADC, USB OTG FS/SDIO/RNG) 
  34:Drivers/STM32L1xx_HAL_Driver/stm32l1xx_hal_rcc.cpp ****           (*) SDIO only for STM32L1xxxD devices
  35:Drivers/STM32L1xx_HAL_Driver/stm32l1xx_hal_rcc.cpp ****   @endverbatim
  36:Drivers/STM32L1xx_HAL_Driver/stm32l1xx_hal_rcc.cpp ****   ******************************************************************************
  37:Drivers/STM32L1xx_HAL_Driver/stm32l1xx_hal_rcc.cpp ****   * @attention
  38:Drivers/STM32L1xx_HAL_Driver/stm32l1xx_hal_rcc.cpp ****   *
  39:Drivers/STM32L1xx_HAL_Driver/stm32l1xx_hal_rcc.cpp ****   * <h2><center>&copy; COPYRIGHT(c) 2014 STMicroelectronics</center></h2>
  40:Drivers/STM32L1xx_HAL_Driver/stm32l1xx_hal_rcc.cpp ****   *
  41:Drivers/STM32L1xx_HAL_Driver/stm32l1xx_hal_rcc.cpp ****   * Redistribution and use in source and binary forms, with or without modification,
  42:Drivers/STM32L1xx_HAL_Driver/stm32l1xx_hal_rcc.cpp ****   * are permitted provided that the following conditions are met:
  43:Drivers/STM32L1xx_HAL_Driver/stm32l1xx_hal_rcc.cpp ****   *   1. Redistributions of source code must retain the above copyright notice,
  44:Drivers/STM32L1xx_HAL_Driver/stm32l1xx_hal_rcc.cpp ****   *      this list of conditions and the following disclaimer.
  45:Drivers/STM32L1xx_HAL_Driver/stm32l1xx_hal_rcc.cpp ****   *   2. Redistributions in binary form must reproduce the above copyright notice,
  46:Drivers/STM32L1xx_HAL_Driver/stm32l1xx_hal_rcc.cpp ****   *      this list of conditions and the following disclaimer in the documentation
  47:Drivers/STM32L1xx_HAL_Driver/stm32l1xx_hal_rcc.cpp ****   *      and/or other materials provided with the distribution.
  48:Drivers/STM32L1xx_HAL_Driver/stm32l1xx_hal_rcc.cpp ****   *   3. Neither the name of STMicroelectronics nor the names of its contributors
  49:Drivers/STM32L1xx_HAL_Driver/stm32l1xx_hal_rcc.cpp ****   *      may be used to endorse or promote products derived from this software
  50:Drivers/STM32L1xx_HAL_Driver/stm32l1xx_hal_rcc.cpp ****   *      without specific prior written permission.
  51:Drivers/STM32L1xx_HAL_Driver/stm32l1xx_hal_rcc.cpp ****   *
ARM GAS  /tmp/ccn09EVD.s 			page 3


  52:Drivers/STM32L1xx_HAL_Driver/stm32l1xx_hal_rcc.cpp ****   * THIS SOFTWARE IS PROVIDED BY THE COPYRIGHT HOLDERS AND CONTRIBUTORS "AS IS"
  53:Drivers/STM32L1xx_HAL_Driver/stm32l1xx_hal_rcc.cpp ****   * AND ANY EXPRESS OR IMPLIED WARRANTIES, INCLUDING, BUT NOT LIMITED TO, THE
  54:Drivers/STM32L1xx_HAL_Driver/stm32l1xx_hal_rcc.cpp ****   * IMPLIED WARRANTIES OF MERCHANTABILITY AND FITNESS FOR A PARTICULAR PURPOSE ARE
  55:Drivers/STM32L1xx_HAL_Driver/stm32l1xx_hal_rcc.cpp ****   * DISCLAIMED. IN NO EVENT SHALL THE COPYRIGHT HOLDER OR CONTRIBUTORS BE LIABLE
  56:Drivers/STM32L1xx_HAL_Driver/stm32l1xx_hal_rcc.cpp ****   * FOR ANY DIRECT, INDIRECT, INCIDENTAL, SPECIAL, EXEMPLARY, OR CONSEQUENTIAL
  57:Drivers/STM32L1xx_HAL_Driver/stm32l1xx_hal_rcc.cpp ****   * DAMAGES (INCLUDING, BUT NOT LIMITED TO, PROCUREMENT OF SUBSTITUTE GOODS OR
  58:Drivers/STM32L1xx_HAL_Driver/stm32l1xx_hal_rcc.cpp ****   * SERVICES; LOSS OF USE, DATA, OR PROFITS; OR BUSINESS INTERRUPTION) HOWEVER
  59:Drivers/STM32L1xx_HAL_Driver/stm32l1xx_hal_rcc.cpp ****   * CAUSED AND ON ANY THEORY OF LIABILITY, WHETHER IN CONTRACT, STRICT LIABILITY,
  60:Drivers/STM32L1xx_HAL_Driver/stm32l1xx_hal_rcc.cpp ****   * OR TORT (INCLUDING NEGLIGENCE OR OTHERWISE) ARISING IN ANY WAY OUT OF THE USE
  61:Drivers/STM32L1xx_HAL_Driver/stm32l1xx_hal_rcc.cpp ****   * OF THIS SOFTWARE, EVEN IF ADVISED OF THE POSSIBILITY OF SUCH DAMAGE.
  62:Drivers/STM32L1xx_HAL_Driver/stm32l1xx_hal_rcc.cpp ****   *
  63:Drivers/STM32L1xx_HAL_Driver/stm32l1xx_hal_rcc.cpp ****   ******************************************************************************  
  64:Drivers/STM32L1xx_HAL_Driver/stm32l1xx_hal_rcc.cpp **** */ 
  65:Drivers/STM32L1xx_HAL_Driver/stm32l1xx_hal_rcc.cpp **** 
  66:Drivers/STM32L1xx_HAL_Driver/stm32l1xx_hal_rcc.cpp **** /* Includes ------------------------------------------------------------------*/
  67:Drivers/STM32L1xx_HAL_Driver/stm32l1xx_hal_rcc.cpp **** #include "stm32l1xx_hal.h"
  68:Drivers/STM32L1xx_HAL_Driver/stm32l1xx_hal_rcc.cpp **** 
  69:Drivers/STM32L1xx_HAL_Driver/stm32l1xx_hal_rcc.cpp **** /** @addtogroup STM32L1xx_HAL_Driver
  70:Drivers/STM32L1xx_HAL_Driver/stm32l1xx_hal_rcc.cpp ****   * @{
  71:Drivers/STM32L1xx_HAL_Driver/stm32l1xx_hal_rcc.cpp ****   */
  72:Drivers/STM32L1xx_HAL_Driver/stm32l1xx_hal_rcc.cpp **** 
  73:Drivers/STM32L1xx_HAL_Driver/stm32l1xx_hal_rcc.cpp **** /** @defgroup RCC RCC
  74:Drivers/STM32L1xx_HAL_Driver/stm32l1xx_hal_rcc.cpp **** * @brief RCC HAL module driver
  75:Drivers/STM32L1xx_HAL_Driver/stm32l1xx_hal_rcc.cpp ****   * @{
  76:Drivers/STM32L1xx_HAL_Driver/stm32l1xx_hal_rcc.cpp ****   */
  77:Drivers/STM32L1xx_HAL_Driver/stm32l1xx_hal_rcc.cpp **** 
  78:Drivers/STM32L1xx_HAL_Driver/stm32l1xx_hal_rcc.cpp **** #ifdef HAL_RCC_MODULE_ENABLED
  79:Drivers/STM32L1xx_HAL_Driver/stm32l1xx_hal_rcc.cpp **** 
  80:Drivers/STM32L1xx_HAL_Driver/stm32l1xx_hal_rcc.cpp **** /* Private typedef -----------------------------------------------------------*/
  81:Drivers/STM32L1xx_HAL_Driver/stm32l1xx_hal_rcc.cpp **** /* Private define ------------------------------------------------------------*/
  82:Drivers/STM32L1xx_HAL_Driver/stm32l1xx_hal_rcc.cpp **** /** @defgroup RCC_Private_Defines RCC Private Defines
  83:Drivers/STM32L1xx_HAL_Driver/stm32l1xx_hal_rcc.cpp ****   * @{
  84:Drivers/STM32L1xx_HAL_Driver/stm32l1xx_hal_rcc.cpp ****   */
  85:Drivers/STM32L1xx_HAL_Driver/stm32l1xx_hal_rcc.cpp **** 
  86:Drivers/STM32L1xx_HAL_Driver/stm32l1xx_hal_rcc.cpp **** #define HSE_TIMEOUT_VALUE          HSE_STARTUP_TIMEOUT
  87:Drivers/STM32L1xx_HAL_Driver/stm32l1xx_hal_rcc.cpp **** #define MSI_TIMEOUT_VALUE          ((uint32_t)100)  /* 100 ms */
  88:Drivers/STM32L1xx_HAL_Driver/stm32l1xx_hal_rcc.cpp **** #define HSI_TIMEOUT_VALUE          ((uint32_t)100)  /* 100 ms */
  89:Drivers/STM32L1xx_HAL_Driver/stm32l1xx_hal_rcc.cpp **** #define LSI_TIMEOUT_VALUE          ((uint32_t)100)  /* 100 ms */
  90:Drivers/STM32L1xx_HAL_Driver/stm32l1xx_hal_rcc.cpp **** #define PLL_TIMEOUT_VALUE          ((uint32_t)100)  /* 100 ms */
  91:Drivers/STM32L1xx_HAL_Driver/stm32l1xx_hal_rcc.cpp **** #define CLOCKSWITCH_TIMEOUT_VALUE  ((uint32_t)5000) /* 5 s    */
  92:Drivers/STM32L1xx_HAL_Driver/stm32l1xx_hal_rcc.cpp **** 
  93:Drivers/STM32L1xx_HAL_Driver/stm32l1xx_hal_rcc.cpp **** /**
  94:Drivers/STM32L1xx_HAL_Driver/stm32l1xx_hal_rcc.cpp ****   * @}
  95:Drivers/STM32L1xx_HAL_Driver/stm32l1xx_hal_rcc.cpp ****   */
  96:Drivers/STM32L1xx_HAL_Driver/stm32l1xx_hal_rcc.cpp **** 
  97:Drivers/STM32L1xx_HAL_Driver/stm32l1xx_hal_rcc.cpp **** /* Private macro -------------------------------------------------------------*/
  98:Drivers/STM32L1xx_HAL_Driver/stm32l1xx_hal_rcc.cpp **** /** @defgroup RCC_Private_Macros RCC Private Macros
  99:Drivers/STM32L1xx_HAL_Driver/stm32l1xx_hal_rcc.cpp ****   * @{
 100:Drivers/STM32L1xx_HAL_Driver/stm32l1xx_hal_rcc.cpp ****   */
 101:Drivers/STM32L1xx_HAL_Driver/stm32l1xx_hal_rcc.cpp **** 
 102:Drivers/STM32L1xx_HAL_Driver/stm32l1xx_hal_rcc.cpp **** #define __MCO1_CLK_ENABLE()   __GPIOA_CLK_ENABLE()
 103:Drivers/STM32L1xx_HAL_Driver/stm32l1xx_hal_rcc.cpp **** #define MCO1_GPIO_PORT        GPIOA
 104:Drivers/STM32L1xx_HAL_Driver/stm32l1xx_hal_rcc.cpp **** #define MCO1_PIN              GPIO_PIN_8
 105:Drivers/STM32L1xx_HAL_Driver/stm32l1xx_hal_rcc.cpp **** 
 106:Drivers/STM32L1xx_HAL_Driver/stm32l1xx_hal_rcc.cpp **** /**
 107:Drivers/STM32L1xx_HAL_Driver/stm32l1xx_hal_rcc.cpp ****   * @}
 108:Drivers/STM32L1xx_HAL_Driver/stm32l1xx_hal_rcc.cpp ****   */
ARM GAS  /tmp/ccn09EVD.s 			page 4


 109:Drivers/STM32L1xx_HAL_Driver/stm32l1xx_hal_rcc.cpp **** 
 110:Drivers/STM32L1xx_HAL_Driver/stm32l1xx_hal_rcc.cpp **** /* Private variables ---------------------------------------------------------*/
 111:Drivers/STM32L1xx_HAL_Driver/stm32l1xx_hal_rcc.cpp **** /** @defgroup RCC_Private_Variables RCC Private Variables
 112:Drivers/STM32L1xx_HAL_Driver/stm32l1xx_hal_rcc.cpp ****   * @{
 113:Drivers/STM32L1xx_HAL_Driver/stm32l1xx_hal_rcc.cpp ****   */
 114:Drivers/STM32L1xx_HAL_Driver/stm32l1xx_hal_rcc.cpp **** const uint8_t aAPBAHBPrescTable[16]       = {0, 0, 0, 0, 1, 2, 3, 4, 1, 2, 3, 4, 6, 7, 8, 9};
 115:Drivers/STM32L1xx_HAL_Driver/stm32l1xx_hal_rcc.cpp **** const uint8_t aPLLDivisionFactorTable[4]  = {1, 2, 3, 4};
 116:Drivers/STM32L1xx_HAL_Driver/stm32l1xx_hal_rcc.cpp **** const uint8_t aPLLMulFactorTable[9]       = {3, 4, 6, 8, 12, 16, 24, 32, 48};
 117:Drivers/STM32L1xx_HAL_Driver/stm32l1xx_hal_rcc.cpp **** 
 118:Drivers/STM32L1xx_HAL_Driver/stm32l1xx_hal_rcc.cpp **** /**
 119:Drivers/STM32L1xx_HAL_Driver/stm32l1xx_hal_rcc.cpp ****   * @}
 120:Drivers/STM32L1xx_HAL_Driver/stm32l1xx_hal_rcc.cpp ****   */
 121:Drivers/STM32L1xx_HAL_Driver/stm32l1xx_hal_rcc.cpp **** 
 122:Drivers/STM32L1xx_HAL_Driver/stm32l1xx_hal_rcc.cpp **** /* Private function prototypes -----------------------------------------------*/
 123:Drivers/STM32L1xx_HAL_Driver/stm32l1xx_hal_rcc.cpp **** /* Private functions ---------------------------------------------------------*/
 124:Drivers/STM32L1xx_HAL_Driver/stm32l1xx_hal_rcc.cpp **** 
 125:Drivers/STM32L1xx_HAL_Driver/stm32l1xx_hal_rcc.cpp **** /** @defgroup RCC_Private_Functions RCC Exported Functions
 126:Drivers/STM32L1xx_HAL_Driver/stm32l1xx_hal_rcc.cpp ****   * @{
 127:Drivers/STM32L1xx_HAL_Driver/stm32l1xx_hal_rcc.cpp ****   */
 128:Drivers/STM32L1xx_HAL_Driver/stm32l1xx_hal_rcc.cpp **** 
 129:Drivers/STM32L1xx_HAL_Driver/stm32l1xx_hal_rcc.cpp **** /** @defgroup RCC_Exported_Functions_Group1 Initialization and de-initialization functions 
 130:Drivers/STM32L1xx_HAL_Driver/stm32l1xx_hal_rcc.cpp ****   *  @brief    Initialization and Configuration functions 
 131:Drivers/STM32L1xx_HAL_Driver/stm32l1xx_hal_rcc.cpp ****   *
 132:Drivers/STM32L1xx_HAL_Driver/stm32l1xx_hal_rcc.cpp ****   @verbatim    
 133:Drivers/STM32L1xx_HAL_Driver/stm32l1xx_hal_rcc.cpp ****   ===============================================================================
 134:Drivers/STM32L1xx_HAL_Driver/stm32l1xx_hal_rcc.cpp **** ##### Initialization and de-initialization functions #####
 135:Drivers/STM32L1xx_HAL_Driver/stm32l1xx_hal_rcc.cpp ****   ===============================================================================
 136:Drivers/STM32L1xx_HAL_Driver/stm32l1xx_hal_rcc.cpp ****     [..]
 137:Drivers/STM32L1xx_HAL_Driver/stm32l1xx_hal_rcc.cpp ****       This section provides functions allowing to configure the internal/external oscillators
 138:Drivers/STM32L1xx_HAL_Driver/stm32l1xx_hal_rcc.cpp ****       (MSI, HSE, HSI, LSE, LSI, PLL, CSS and MCO) and the System busses clocks (SYSCLK, AHB, APB1 
 139:Drivers/STM32L1xx_HAL_Driver/stm32l1xx_hal_rcc.cpp ****       and APB2).
 140:Drivers/STM32L1xx_HAL_Driver/stm32l1xx_hal_rcc.cpp **** 
 141:Drivers/STM32L1xx_HAL_Driver/stm32l1xx_hal_rcc.cpp ****     [..] Internal/external clock and PLL configuration
 142:Drivers/STM32L1xx_HAL_Driver/stm32l1xx_hal_rcc.cpp ****       (#) MSI (Multispeed internal), Seven frequency ranges are available: 65.536 kHz, 
 143:Drivers/STM32L1xx_HAL_Driver/stm32l1xx_hal_rcc.cpp ****           131.072 kHz, 262.144 kHz, 524.288 kHz, 1.048 MHz, 2.097 MHz (default value) and 4.194 MHz
 144:Drivers/STM32L1xx_HAL_Driver/stm32l1xx_hal_rcc.cpp **** 
 145:Drivers/STM32L1xx_HAL_Driver/stm32l1xx_hal_rcc.cpp ****       (#) HSI (high-speed internal), 16 MHz factory-trimmed RC used directly or through
 146:Drivers/STM32L1xx_HAL_Driver/stm32l1xx_hal_rcc.cpp ****           the PLL as System clock source.
 147:Drivers/STM32L1xx_HAL_Driver/stm32l1xx_hal_rcc.cpp **** 
 148:Drivers/STM32L1xx_HAL_Driver/stm32l1xx_hal_rcc.cpp ****       (#) LSI (low-speed internal), ~37 KHz low consumption RC used as IWDG and/or RTC
 149:Drivers/STM32L1xx_HAL_Driver/stm32l1xx_hal_rcc.cpp ****           clock source.
 150:Drivers/STM32L1xx_HAL_Driver/stm32l1xx_hal_rcc.cpp **** 
 151:Drivers/STM32L1xx_HAL_Driver/stm32l1xx_hal_rcc.cpp ****       (#) HSE (high-speed external), 1 to 24 MHz crystal oscillator used directly or
 152:Drivers/STM32L1xx_HAL_Driver/stm32l1xx_hal_rcc.cpp ****           through the PLL as System clock source. Can be used also as RTC clock source.
 153:Drivers/STM32L1xx_HAL_Driver/stm32l1xx_hal_rcc.cpp **** 
 154:Drivers/STM32L1xx_HAL_Driver/stm32l1xx_hal_rcc.cpp ****       (#) LSE (low-speed external), 32 KHz oscillator used as RTC clock source.   
 155:Drivers/STM32L1xx_HAL_Driver/stm32l1xx_hal_rcc.cpp **** 
 156:Drivers/STM32L1xx_HAL_Driver/stm32l1xx_hal_rcc.cpp ****       (#) PLL (clocked by HSI or HSE), featuring two different output clocks:
 157:Drivers/STM32L1xx_HAL_Driver/stm32l1xx_hal_rcc.cpp ****         (++) The first output is used to generate the high speed system clock (up to 32 MHz)
 158:Drivers/STM32L1xx_HAL_Driver/stm32l1xx_hal_rcc.cpp ****         (++) The second output is used to generate the clock for the USB OTG FS (48 MHz)
 159:Drivers/STM32L1xx_HAL_Driver/stm32l1xx_hal_rcc.cpp **** 
 160:Drivers/STM32L1xx_HAL_Driver/stm32l1xx_hal_rcc.cpp ****       (#) CSS (Clock security system), once enable using the macro __HAL_RCC_CSS_ENABLE()
 161:Drivers/STM32L1xx_HAL_Driver/stm32l1xx_hal_rcc.cpp ****           and if a HSE clock failure occurs(HSE used directly or through PLL as System 
 162:Drivers/STM32L1xx_HAL_Driver/stm32l1xx_hal_rcc.cpp ****           clock source), the System clockis automatically switched to MSI and an interrupt
 163:Drivers/STM32L1xx_HAL_Driver/stm32l1xx_hal_rcc.cpp ****           is generated if enabled. The interrupt is linked to the Cortex-M3 NMI 
 164:Drivers/STM32L1xx_HAL_Driver/stm32l1xx_hal_rcc.cpp ****           (Non-Maskable Interrupt) exception vector.   
 165:Drivers/STM32L1xx_HAL_Driver/stm32l1xx_hal_rcc.cpp **** 
ARM GAS  /tmp/ccn09EVD.s 			page 5


 166:Drivers/STM32L1xx_HAL_Driver/stm32l1xx_hal_rcc.cpp ****       (#) MCO1 (microcontroller clock output), used to output SYSCLK, HSI, LSI, MSI, LSE, 
 167:Drivers/STM32L1xx_HAL_Driver/stm32l1xx_hal_rcc.cpp ****           HSE or PLL clock (through a configurable prescaler) on PA8 pin.
 168:Drivers/STM32L1xx_HAL_Driver/stm32l1xx_hal_rcc.cpp **** 
 169:Drivers/STM32L1xx_HAL_Driver/stm32l1xx_hal_rcc.cpp ****     [..] System, AHB and APB busses clocks configuration  
 170:Drivers/STM32L1xx_HAL_Driver/stm32l1xx_hal_rcc.cpp ****       (#) Several clock sources can be used to drive the System clock (SYSCLK): MSI, HSI,
 171:Drivers/STM32L1xx_HAL_Driver/stm32l1xx_hal_rcc.cpp ****           HSE and PLL.
 172:Drivers/STM32L1xx_HAL_Driver/stm32l1xx_hal_rcc.cpp ****           The AHB clock (HCLK) is derived from System clock through configurable 
 173:Drivers/STM32L1xx_HAL_Driver/stm32l1xx_hal_rcc.cpp ****           prescaler and used to clock the CPU, memory and peripherals mapped 
 174:Drivers/STM32L1xx_HAL_Driver/stm32l1xx_hal_rcc.cpp ****           on AHB bus (DMA, GPIO...). APB1 (PCLK1) and APB2 (PCLK2) clocks are derived 
 175:Drivers/STM32L1xx_HAL_Driver/stm32l1xx_hal_rcc.cpp ****           from AHB clock through configurable prescalers and used to clock 
 176:Drivers/STM32L1xx_HAL_Driver/stm32l1xx_hal_rcc.cpp ****           the peripherals mapped on these busses. You can use 
 177:Drivers/STM32L1xx_HAL_Driver/stm32l1xx_hal_rcc.cpp ****           "HAL_RCC_GetSysClockFreq()" function to retrieve the frequencies of these clocks.  
 178:Drivers/STM32L1xx_HAL_Driver/stm32l1xx_hal_rcc.cpp **** 
 179:Drivers/STM32L1xx_HAL_Driver/stm32l1xx_hal_rcc.cpp ****       -@- All the peripheral clocks are derived from the System clock (SYSCLK) except:
 180:Drivers/STM32L1xx_HAL_Driver/stm32l1xx_hal_rcc.cpp ****           (+@) RTC: RTC clock can be derived either from the LSI, LSE or HSE clock
 181:Drivers/STM32L1xx_HAL_Driver/stm32l1xx_hal_rcc.cpp ****               divided by 2 to 16. You have to use __HAL_RCC_RTC_CONFIG() and __HAL_RCC_RTC_ENABLE()
 182:Drivers/STM32L1xx_HAL_Driver/stm32l1xx_hal_rcc.cpp ****               macros to configure this clock. 
 183:Drivers/STM32L1xx_HAL_Driver/stm32l1xx_hal_rcc.cpp ****           (+@) LCD: LCD clock can be derived either from the LSI, LSE or HSE clock
 184:Drivers/STM32L1xx_HAL_Driver/stm32l1xx_hal_rcc.cpp ****               divided by 2 to 16. You have to use __HAL_RCC_LCD_CONFIG()
 185:Drivers/STM32L1xx_HAL_Driver/stm32l1xx_hal_rcc.cpp ****               macros to configure this clock. 
 186:Drivers/STM32L1xx_HAL_Driver/stm32l1xx_hal_rcc.cpp ****           (+@) USB OTG FS and RTC: USB OTG FS require a frequency equal to 48 MHz
 187:Drivers/STM32L1xx_HAL_Driver/stm32l1xx_hal_rcc.cpp ****               to work correctly. This clock is derived of the main PLL through PLL Multiplier.
 188:Drivers/STM32L1xx_HAL_Driver/stm32l1xx_hal_rcc.cpp ****           (+@) IWDG clock which is always the LSI clock.
 189:Drivers/STM32L1xx_HAL_Driver/stm32l1xx_hal_rcc.cpp **** 
 190:Drivers/STM32L1xx_HAL_Driver/stm32l1xx_hal_rcc.cpp ****       (#) The maximum frequency of the SYSCLK and HCLK is 32 MHz, PCLK2 32 MHz 
 191:Drivers/STM32L1xx_HAL_Driver/stm32l1xx_hal_rcc.cpp ****           and PCLK1 32 MHz. Depending on the device voltage range, the maximum 
 192:Drivers/STM32L1xx_HAL_Driver/stm32l1xx_hal_rcc.cpp ****           frequency should be adapted accordingly:
 193:Drivers/STM32L1xx_HAL_Driver/stm32l1xx_hal_rcc.cpp ****   +----------------------------------------------------------------------+     
 194:Drivers/STM32L1xx_HAL_Driver/stm32l1xx_hal_rcc.cpp ****   | Latency       |                HCLK clock frequency (MHz)            |
 195:Drivers/STM32L1xx_HAL_Driver/stm32l1xx_hal_rcc.cpp ****   |               |------------------------------------------------------|     
 196:Drivers/STM32L1xx_HAL_Driver/stm32l1xx_hal_rcc.cpp ****   |               | voltage range 1  | voltage range 2 | voltage range 3 |
 197:Drivers/STM32L1xx_HAL_Driver/stm32l1xx_hal_rcc.cpp ****   |               |      1.8 V       |     1.5 V       |      1.2 V      |
 198:Drivers/STM32L1xx_HAL_Driver/stm32l1xx_hal_rcc.cpp ****   |---------------|------------------|-----------------|-----------------|              
 199:Drivers/STM32L1xx_HAL_Driver/stm32l1xx_hal_rcc.cpp ****   |0WS(1CPU cycle)| 0 < HCLK <= 16   | 0 < HCLK <= 8   | 0 < HCLK <= 2   |
 200:Drivers/STM32L1xx_HAL_Driver/stm32l1xx_hal_rcc.cpp ****   |---------------|------------------|-----------------|-----------------| 
 201:Drivers/STM32L1xx_HAL_Driver/stm32l1xx_hal_rcc.cpp ****   |1WS(2CPU cycle)| 16 < HCLK <= 32  | 8 < HCLK <= 16  | 2 < HCLK <= 4   | 
 202:Drivers/STM32L1xx_HAL_Driver/stm32l1xx_hal_rcc.cpp ****   +----------------------------------------------------------------------+     
 203:Drivers/STM32L1xx_HAL_Driver/stm32l1xx_hal_rcc.cpp ****       (#) The following table gives the different clock source frequencies depending on the product
 204:Drivers/STM32L1xx_HAL_Driver/stm32l1xx_hal_rcc.cpp ****       voltage range:
 205:Drivers/STM32L1xx_HAL_Driver/stm32l1xx_hal_rcc.cpp ****   +------------------------------------------------------------------------------------------+     
 206:Drivers/STM32L1xx_HAL_Driver/stm32l1xx_hal_rcc.cpp ****   | Product voltage |                    Clock frequency                                     |
 207:Drivers/STM32L1xx_HAL_Driver/stm32l1xx_hal_rcc.cpp ****   |                 |------------------|-----------------------------|-----------------------|     
 208:Drivers/STM32L1xx_HAL_Driver/stm32l1xx_hal_rcc.cpp ****   |      range      |   MSI   |   HSI  |              HSE            |          PLL          |
 209:Drivers/STM32L1xx_HAL_Driver/stm32l1xx_hal_rcc.cpp ****   |-----------------|---------|--------|-----------------------------|-----------------------|     
 210:Drivers/STM32L1xx_HAL_Driver/stm32l1xx_hal_rcc.cpp ****   | Range 1 (1.8 V) | 4.2 MHz | 16 MHz | HSE 32 MHz (external clock) |         32 MHz        |
 211:Drivers/STM32L1xx_HAL_Driver/stm32l1xx_hal_rcc.cpp ****   |                 |         |        |      or 24 MHz (crystal)    | (PLLVCO max = 96 MHz) |
 212:Drivers/STM32L1xx_HAL_Driver/stm32l1xx_hal_rcc.cpp ****   |-----------------|---------|--------|-----------------------------|-----------------------|     
 213:Drivers/STM32L1xx_HAL_Driver/stm32l1xx_hal_rcc.cpp ****   | Range 2 (1.5 V) | 4.2 MHz | 16 MHz |         16 MHz              |         16 MHz        |
 214:Drivers/STM32L1xx_HAL_Driver/stm32l1xx_hal_rcc.cpp ****   |                 |         |        |                             | (PLLVCO max = 48 MHz) |
 215:Drivers/STM32L1xx_HAL_Driver/stm32l1xx_hal_rcc.cpp ****   |-----------------|---------|--------|-----------------------------|-----------------------|     
 216:Drivers/STM32L1xx_HAL_Driver/stm32l1xx_hal_rcc.cpp ****   | Range 3 (1.2 V) | 4.2 MHz |   NA   |         8 MHz               |           4 MHz       |
 217:Drivers/STM32L1xx_HAL_Driver/stm32l1xx_hal_rcc.cpp ****   |                 |         |        |                             | (PLLVCO max = 24 MHz) |
 218:Drivers/STM32L1xx_HAL_Driver/stm32l1xx_hal_rcc.cpp ****   +------------------------------------------------------------------------------------------+     
 219:Drivers/STM32L1xx_HAL_Driver/stm32l1xx_hal_rcc.cpp **** 
 220:Drivers/STM32L1xx_HAL_Driver/stm32l1xx_hal_rcc.cpp ****   @endverbatim
 221:Drivers/STM32L1xx_HAL_Driver/stm32l1xx_hal_rcc.cpp ****   * @{
 222:Drivers/STM32L1xx_HAL_Driver/stm32l1xx_hal_rcc.cpp ****   */
ARM GAS  /tmp/ccn09EVD.s 			page 6


 223:Drivers/STM32L1xx_HAL_Driver/stm32l1xx_hal_rcc.cpp **** 
 224:Drivers/STM32L1xx_HAL_Driver/stm32l1xx_hal_rcc.cpp **** /**
 225:Drivers/STM32L1xx_HAL_Driver/stm32l1xx_hal_rcc.cpp ****   * @brief  Resets the RCC clock configuration to the default reset state.
 226:Drivers/STM32L1xx_HAL_Driver/stm32l1xx_hal_rcc.cpp ****   * @note   The default reset state of the clock configuration is given below:
 227:Drivers/STM32L1xx_HAL_Driver/stm32l1xx_hal_rcc.cpp ****   *            - MSI ON and used as system clock source
 228:Drivers/STM32L1xx_HAL_Driver/stm32l1xx_hal_rcc.cpp ****   *            - HSI, HSE and PLL  OFF
 229:Drivers/STM32L1xx_HAL_Driver/stm32l1xx_hal_rcc.cpp ****   *            - AHB, APB1 and APB2 prescaler set to 1.
 230:Drivers/STM32L1xx_HAL_Driver/stm32l1xx_hal_rcc.cpp ****   *            - CSS and MCO1 OFF
 231:Drivers/STM32L1xx_HAL_Driver/stm32l1xx_hal_rcc.cpp ****   *            - All interrupts disabled
 232:Drivers/STM32L1xx_HAL_Driver/stm32l1xx_hal_rcc.cpp ****   * @note   This function doesn't modify the configuration of the
 233:Drivers/STM32L1xx_HAL_Driver/stm32l1xx_hal_rcc.cpp ****   *            - Peripheral clocks  
 234:Drivers/STM32L1xx_HAL_Driver/stm32l1xx_hal_rcc.cpp ****   *            - LSI, LSE and RTC clocks 
 235:Drivers/STM32L1xx_HAL_Driver/stm32l1xx_hal_rcc.cpp ****   * @retval None
 236:Drivers/STM32L1xx_HAL_Driver/stm32l1xx_hal_rcc.cpp ****   */
 237:Drivers/STM32L1xx_HAL_Driver/stm32l1xx_hal_rcc.cpp **** void HAL_RCC_DeInit(void)
 238:Drivers/STM32L1xx_HAL_Driver/stm32l1xx_hal_rcc.cpp **** {
  64              		.loc 1 238 0
  65              		.cfi_startproc
  66              		@ args = 0, pretend = 0, frame = 32
  67              		@ frame_needed = 1, uses_anonymous_args = 0
  68              		@ link register save eliminated.
  69 0000 90B4     		push	{r4, r7}	@
  70              	.LCFI0:
  71              		.cfi_def_cfa_offset 8
  72              		.cfi_offset 4, -8
  73              		.cfi_offset 7, -4
  74 0002 88B0     		sub	sp, sp, #32	@,,
  75              	.LCFI1:
  76              		.cfi_def_cfa_offset 40
  77 0004 00AF     		add	r7, sp, #0	@,,
  78              	.LCFI2:
  79              		.cfi_def_cfa_register 7
 239:Drivers/STM32L1xx_HAL_Driver/stm32l1xx_hal_rcc.cpp ****   /* Set MSION bit */
 240:Drivers/STM32L1xx_HAL_Driver/stm32l1xx_hal_rcc.cpp ****   SET_BIT(RCC->CR, RCC_CR_MSION);
  80              		.loc 1 240 0
  81 0006 4FF46053 		mov	r3, #14336	@ D.7335,
  82 000a C4F20203 		movt	r3, 16386	@ D.7335,
  83 000e 4FF46052 		mov	r2, #14336	@ D.7336,
  84 0012 C4F20202 		movt	r2, 16386	@ D.7336,
  85 0016 1268     		ldr	r2, [r2, #0]	@ D.7337, D.7336_2->CR
  86 0018 42F48072 		orr	r2, r2, #256	@ D.7338, D.7337,
  87 001c 1A60     		str	r2, [r3, #0]	@ D.7338, D.7335_1->CR
 241:Drivers/STM32L1xx_HAL_Driver/stm32l1xx_hal_rcc.cpp ****   
 242:Drivers/STM32L1xx_HAL_Driver/stm32l1xx_hal_rcc.cpp ****   /* Switch SYSCLK to MSI*/
 243:Drivers/STM32L1xx_HAL_Driver/stm32l1xx_hal_rcc.cpp ****   CLEAR_BIT(RCC->CFGR, RCC_CFGR_SW);
  88              		.loc 1 243 0
  89 001e 4FF46053 		mov	r3, #14336	@ D.7339,
  90 0022 C4F20203 		movt	r3, 16386	@ D.7339,
  91 0026 4FF46052 		mov	r2, #14336	@ D.7340,
  92 002a C4F20202 		movt	r2, 16386	@ D.7340,
  93 002e 9268     		ldr	r2, [r2, #8]	@ D.7341, D.7340_6->CFGR
  94 0030 22F00302 		bic	r2, r2, #3	@ D.7342, D.7341,
  95 0034 9A60     		str	r2, [r3, #8]	@ D.7342, D.7339_5->CFGR
 244:Drivers/STM32L1xx_HAL_Driver/stm32l1xx_hal_rcc.cpp ****   
 245:Drivers/STM32L1xx_HAL_Driver/stm32l1xx_hal_rcc.cpp ****   /* Reset HSION, HSEON, CSSON, HSEBYP & PLLON bits */
 246:Drivers/STM32L1xx_HAL_Driver/stm32l1xx_hal_rcc.cpp ****   CLEAR_BIT(RCC->CR, RCC_CR_HSION | RCC_CR_HSEON | RCC_CR_CSSON | RCC_CR_PLLON | RCC_CR_HSEBYP);
  96              		.loc 1 246 0
ARM GAS  /tmp/ccn09EVD.s 			page 7


  97 0036 4FF46052 		mov	r2, #14336	@ D.7343,
  98 003a C4F20202 		movt	r2, 16386	@ D.7343,
  99 003e 4FF46053 		mov	r3, #14336	@ D.7344,
 100 0042 C4F20203 		movt	r3, 16386	@ D.7344,
 101 0046 1968     		ldr	r1, [r3, #0]	@ D.7345, D.7344_10->CR
 102 0048 4FF6FE73 		movw	r3, #65534	@ D.7346,
 103 004c CEF6FA63 		movt	r3, 61178	@ D.7346,
 104 0050 0B40     		ands	r3, r3, r1	@, D.7346, D.7346, D.7345
 105 0052 1360     		str	r3, [r2, #0]	@ D.7346, D.7343_9->CR
 247:Drivers/STM32L1xx_HAL_Driver/stm32l1xx_hal_rcc.cpp ****   
 248:Drivers/STM32L1xx_HAL_Driver/stm32l1xx_hal_rcc.cpp ****   /* Reset CFGR register */
 249:Drivers/STM32L1xx_HAL_Driver/stm32l1xx_hal_rcc.cpp ****   CLEAR_REG(RCC->CFGR);
 106              		.loc 1 249 0
 107 0054 4FF46053 		mov	r3, #14336	@ D.7347,
 108 0058 C4F20203 		movt	r3, 16386	@ D.7347,
 109 005c 4FF00002 		mov	r2, #0	@ tmp171,
 110 0060 9A60     		str	r2, [r3, #8]	@ tmp171, D.7347_13->CFGR
 111 0062 4FF07F43 		mov	r3, #-16777216	@ tmp172,
 112 0066 FB61     		str	r3, [r7, #28]	@ tmp172, value
 113              	.LBB515:
 114              	.LBB516:
 115              	.LBB517:
 116              		.file 2 "Drivers/CMSIS/Include/core_cmInstr.h"
   1:Drivers/CMSIS/Include/core_cmInstr.h **** /**************************************************************************//**
   2:Drivers/CMSIS/Include/core_cmInstr.h ****  * @file     core_cmInstr.h
   3:Drivers/CMSIS/Include/core_cmInstr.h ****  * @brief    CMSIS Cortex-M Core Instruction Access Header File
   4:Drivers/CMSIS/Include/core_cmInstr.h ****  * @version  V3.20
   5:Drivers/CMSIS/Include/core_cmInstr.h ****  * @date     05. March 2013
   6:Drivers/CMSIS/Include/core_cmInstr.h ****  *
   7:Drivers/CMSIS/Include/core_cmInstr.h ****  * @note
   8:Drivers/CMSIS/Include/core_cmInstr.h ****  *
   9:Drivers/CMSIS/Include/core_cmInstr.h ****  ******************************************************************************/
  10:Drivers/CMSIS/Include/core_cmInstr.h **** /* Copyright (c) 2009 - 2013 ARM LIMITED
  11:Drivers/CMSIS/Include/core_cmInstr.h **** 
  12:Drivers/CMSIS/Include/core_cmInstr.h ****    All rights reserved.
  13:Drivers/CMSIS/Include/core_cmInstr.h ****    Redistribution and use in source and binary forms, with or without
  14:Drivers/CMSIS/Include/core_cmInstr.h ****    modification, are permitted provided that the following conditions are met:
  15:Drivers/CMSIS/Include/core_cmInstr.h ****    - Redistributions of source code must retain the above copyright
  16:Drivers/CMSIS/Include/core_cmInstr.h ****      notice, this list of conditions and the following disclaimer.
  17:Drivers/CMSIS/Include/core_cmInstr.h ****    - Redistributions in binary form must reproduce the above copyright
  18:Drivers/CMSIS/Include/core_cmInstr.h ****      notice, this list of conditions and the following disclaimer in the
  19:Drivers/CMSIS/Include/core_cmInstr.h ****      documentation and/or other materials provided with the distribution.
  20:Drivers/CMSIS/Include/core_cmInstr.h ****    - Neither the name of ARM nor the names of its contributors may be used
  21:Drivers/CMSIS/Include/core_cmInstr.h ****      to endorse or promote products derived from this software without
  22:Drivers/CMSIS/Include/core_cmInstr.h ****      specific prior written permission.
  23:Drivers/CMSIS/Include/core_cmInstr.h ****    *
  24:Drivers/CMSIS/Include/core_cmInstr.h ****    THIS SOFTWARE IS PROVIDED BY THE COPYRIGHT HOLDERS AND CONTRIBUTORS "AS IS"
  25:Drivers/CMSIS/Include/core_cmInstr.h ****    AND ANY EXPRESS OR IMPLIED WARRANTIES, INCLUDING, BUT NOT LIMITED TO, THE
  26:Drivers/CMSIS/Include/core_cmInstr.h ****    IMPLIED WARRANTIES OF MERCHANTABILITY AND FITNESS FOR A PARTICULAR PURPOSE
  27:Drivers/CMSIS/Include/core_cmInstr.h ****    ARE DISCLAIMED. IN NO EVENT SHALL COPYRIGHT HOLDERS AND CONTRIBUTORS BE
  28:Drivers/CMSIS/Include/core_cmInstr.h ****    LIABLE FOR ANY DIRECT, INDIRECT, INCIDENTAL, SPECIAL, EXEMPLARY, OR
  29:Drivers/CMSIS/Include/core_cmInstr.h ****    CONSEQUENTIAL DAMAGES (INCLUDING, BUT NOT LIMITED TO, PROCUREMENT OF
  30:Drivers/CMSIS/Include/core_cmInstr.h ****    SUBSTITUTE GOODS OR SERVICES; LOSS OF USE, DATA, OR PROFITS; OR BUSINESS
  31:Drivers/CMSIS/Include/core_cmInstr.h ****    INTERRUPTION) HOWEVER CAUSED AND ON ANY THEORY OF LIABILITY, WHETHER IN
  32:Drivers/CMSIS/Include/core_cmInstr.h ****    CONTRACT, STRICT LIABILITY, OR TORT (INCLUDING NEGLIGENCE OR OTHERWISE)
  33:Drivers/CMSIS/Include/core_cmInstr.h ****    ARISING IN ANY WAY OUT OF THE USE OF THIS SOFTWARE, EVEN IF ADVISED OF THE
  34:Drivers/CMSIS/Include/core_cmInstr.h ****    POSSIBILITY OF SUCH DAMAGE.
ARM GAS  /tmp/ccn09EVD.s 			page 8


  35:Drivers/CMSIS/Include/core_cmInstr.h ****    ---------------------------------------------------------------------------*/
  36:Drivers/CMSIS/Include/core_cmInstr.h **** 
  37:Drivers/CMSIS/Include/core_cmInstr.h **** 
  38:Drivers/CMSIS/Include/core_cmInstr.h **** #ifndef __CORE_CMINSTR_H
  39:Drivers/CMSIS/Include/core_cmInstr.h **** #define __CORE_CMINSTR_H
  40:Drivers/CMSIS/Include/core_cmInstr.h **** 
  41:Drivers/CMSIS/Include/core_cmInstr.h **** 
  42:Drivers/CMSIS/Include/core_cmInstr.h **** /* ##########################  Core Instruction Access  ######################### */
  43:Drivers/CMSIS/Include/core_cmInstr.h **** /** \defgroup CMSIS_Core_InstructionInterface CMSIS Core Instruction Interface
  44:Drivers/CMSIS/Include/core_cmInstr.h ****   Access to dedicated instructions
  45:Drivers/CMSIS/Include/core_cmInstr.h ****   @{
  46:Drivers/CMSIS/Include/core_cmInstr.h **** */
  47:Drivers/CMSIS/Include/core_cmInstr.h **** 
  48:Drivers/CMSIS/Include/core_cmInstr.h **** #if   defined ( __CC_ARM ) /*------------------RealView Compiler -----------------*/
  49:Drivers/CMSIS/Include/core_cmInstr.h **** /* ARM armcc specific functions */
  50:Drivers/CMSIS/Include/core_cmInstr.h **** 
  51:Drivers/CMSIS/Include/core_cmInstr.h **** #if (__ARMCC_VERSION < 400677)
  52:Drivers/CMSIS/Include/core_cmInstr.h ****   #error "Please use ARM Compiler Toolchain V4.0.677 or later!"
  53:Drivers/CMSIS/Include/core_cmInstr.h **** #endif
  54:Drivers/CMSIS/Include/core_cmInstr.h **** 
  55:Drivers/CMSIS/Include/core_cmInstr.h **** 
  56:Drivers/CMSIS/Include/core_cmInstr.h **** /** \brief  No Operation
  57:Drivers/CMSIS/Include/core_cmInstr.h **** 
  58:Drivers/CMSIS/Include/core_cmInstr.h ****     No Operation does nothing. This instruction can be used for code alignment purposes.
  59:Drivers/CMSIS/Include/core_cmInstr.h ****  */
  60:Drivers/CMSIS/Include/core_cmInstr.h **** #define __NOP                             __nop
  61:Drivers/CMSIS/Include/core_cmInstr.h **** 
  62:Drivers/CMSIS/Include/core_cmInstr.h **** 
  63:Drivers/CMSIS/Include/core_cmInstr.h **** /** \brief  Wait For Interrupt
  64:Drivers/CMSIS/Include/core_cmInstr.h **** 
  65:Drivers/CMSIS/Include/core_cmInstr.h ****     Wait For Interrupt is a hint instruction that suspends execution
  66:Drivers/CMSIS/Include/core_cmInstr.h ****     until one of a number of events occurs.
  67:Drivers/CMSIS/Include/core_cmInstr.h ****  */
  68:Drivers/CMSIS/Include/core_cmInstr.h **** #define __WFI                             __wfi
  69:Drivers/CMSIS/Include/core_cmInstr.h **** 
  70:Drivers/CMSIS/Include/core_cmInstr.h **** 
  71:Drivers/CMSIS/Include/core_cmInstr.h **** /** \brief  Wait For Event
  72:Drivers/CMSIS/Include/core_cmInstr.h **** 
  73:Drivers/CMSIS/Include/core_cmInstr.h ****     Wait For Event is a hint instruction that permits the processor to enter
  74:Drivers/CMSIS/Include/core_cmInstr.h ****     a low-power state until one of a number of events occurs.
  75:Drivers/CMSIS/Include/core_cmInstr.h ****  */
  76:Drivers/CMSIS/Include/core_cmInstr.h **** #define __WFE                             __wfe
  77:Drivers/CMSIS/Include/core_cmInstr.h **** 
  78:Drivers/CMSIS/Include/core_cmInstr.h **** 
  79:Drivers/CMSIS/Include/core_cmInstr.h **** /** \brief  Send Event
  80:Drivers/CMSIS/Include/core_cmInstr.h **** 
  81:Drivers/CMSIS/Include/core_cmInstr.h ****     Send Event is a hint instruction. It causes an event to be signaled to the CPU.
  82:Drivers/CMSIS/Include/core_cmInstr.h ****  */
  83:Drivers/CMSIS/Include/core_cmInstr.h **** #define __SEV                             __sev
  84:Drivers/CMSIS/Include/core_cmInstr.h **** 
  85:Drivers/CMSIS/Include/core_cmInstr.h **** 
  86:Drivers/CMSIS/Include/core_cmInstr.h **** /** \brief  Instruction Synchronization Barrier
  87:Drivers/CMSIS/Include/core_cmInstr.h **** 
  88:Drivers/CMSIS/Include/core_cmInstr.h ****     Instruction Synchronization Barrier flushes the pipeline in the processor,
  89:Drivers/CMSIS/Include/core_cmInstr.h ****     so that all instructions following the ISB are fetched from cache or
  90:Drivers/CMSIS/Include/core_cmInstr.h ****     memory, after the instruction has been completed.
  91:Drivers/CMSIS/Include/core_cmInstr.h ****  */
ARM GAS  /tmp/ccn09EVD.s 			page 9


  92:Drivers/CMSIS/Include/core_cmInstr.h **** #define __ISB()                           __isb(0xF)
  93:Drivers/CMSIS/Include/core_cmInstr.h **** 
  94:Drivers/CMSIS/Include/core_cmInstr.h **** 
  95:Drivers/CMSIS/Include/core_cmInstr.h **** /** \brief  Data Synchronization Barrier
  96:Drivers/CMSIS/Include/core_cmInstr.h **** 
  97:Drivers/CMSIS/Include/core_cmInstr.h ****     This function acts as a special kind of Data Memory Barrier.
  98:Drivers/CMSIS/Include/core_cmInstr.h ****     It completes when all explicit memory accesses before this instruction complete.
  99:Drivers/CMSIS/Include/core_cmInstr.h ****  */
 100:Drivers/CMSIS/Include/core_cmInstr.h **** #define __DSB()                           __dsb(0xF)
 101:Drivers/CMSIS/Include/core_cmInstr.h **** 
 102:Drivers/CMSIS/Include/core_cmInstr.h **** 
 103:Drivers/CMSIS/Include/core_cmInstr.h **** /** \brief  Data Memory Barrier
 104:Drivers/CMSIS/Include/core_cmInstr.h **** 
 105:Drivers/CMSIS/Include/core_cmInstr.h ****     This function ensures the apparent order of the explicit memory operations before
 106:Drivers/CMSIS/Include/core_cmInstr.h ****     and after the instruction, without ensuring their completion.
 107:Drivers/CMSIS/Include/core_cmInstr.h ****  */
 108:Drivers/CMSIS/Include/core_cmInstr.h **** #define __DMB()                           __dmb(0xF)
 109:Drivers/CMSIS/Include/core_cmInstr.h **** 
 110:Drivers/CMSIS/Include/core_cmInstr.h **** 
 111:Drivers/CMSIS/Include/core_cmInstr.h **** /** \brief  Reverse byte order (32 bit)
 112:Drivers/CMSIS/Include/core_cmInstr.h **** 
 113:Drivers/CMSIS/Include/core_cmInstr.h ****     This function reverses the byte order in integer value.
 114:Drivers/CMSIS/Include/core_cmInstr.h **** 
 115:Drivers/CMSIS/Include/core_cmInstr.h ****     \param [in]    value  Value to reverse
 116:Drivers/CMSIS/Include/core_cmInstr.h ****     \return               Reversed value
 117:Drivers/CMSIS/Include/core_cmInstr.h ****  */
 118:Drivers/CMSIS/Include/core_cmInstr.h **** #define __REV                             __rev
 119:Drivers/CMSIS/Include/core_cmInstr.h **** 
 120:Drivers/CMSIS/Include/core_cmInstr.h **** 
 121:Drivers/CMSIS/Include/core_cmInstr.h **** /** \brief  Reverse byte order (16 bit)
 122:Drivers/CMSIS/Include/core_cmInstr.h **** 
 123:Drivers/CMSIS/Include/core_cmInstr.h ****     This function reverses the byte order in two unsigned short values.
 124:Drivers/CMSIS/Include/core_cmInstr.h **** 
 125:Drivers/CMSIS/Include/core_cmInstr.h ****     \param [in]    value  Value to reverse
 126:Drivers/CMSIS/Include/core_cmInstr.h ****     \return               Reversed value
 127:Drivers/CMSIS/Include/core_cmInstr.h ****  */
 128:Drivers/CMSIS/Include/core_cmInstr.h **** #ifndef __NO_EMBEDDED_ASM
 129:Drivers/CMSIS/Include/core_cmInstr.h **** __attribute__((section(".rev16_text"))) __STATIC_INLINE __ASM uint32_t __REV16(uint32_t value)
 130:Drivers/CMSIS/Include/core_cmInstr.h **** {
 131:Drivers/CMSIS/Include/core_cmInstr.h ****   rev16 r0, r0
 132:Drivers/CMSIS/Include/core_cmInstr.h ****   bx lr
 133:Drivers/CMSIS/Include/core_cmInstr.h **** }
 134:Drivers/CMSIS/Include/core_cmInstr.h **** #endif
 135:Drivers/CMSIS/Include/core_cmInstr.h **** 
 136:Drivers/CMSIS/Include/core_cmInstr.h **** /** \brief  Reverse byte order in signed short value
 137:Drivers/CMSIS/Include/core_cmInstr.h **** 
 138:Drivers/CMSIS/Include/core_cmInstr.h ****     This function reverses the byte order in a signed short value with sign extension to integer.
 139:Drivers/CMSIS/Include/core_cmInstr.h **** 
 140:Drivers/CMSIS/Include/core_cmInstr.h ****     \param [in]    value  Value to reverse
 141:Drivers/CMSIS/Include/core_cmInstr.h ****     \return               Reversed value
 142:Drivers/CMSIS/Include/core_cmInstr.h ****  */
 143:Drivers/CMSIS/Include/core_cmInstr.h **** #ifndef __NO_EMBEDDED_ASM
 144:Drivers/CMSIS/Include/core_cmInstr.h **** __attribute__((section(".revsh_text"))) __STATIC_INLINE __ASM int32_t __REVSH(int32_t value)
 145:Drivers/CMSIS/Include/core_cmInstr.h **** {
 146:Drivers/CMSIS/Include/core_cmInstr.h ****   revsh r0, r0
 147:Drivers/CMSIS/Include/core_cmInstr.h ****   bx lr
 148:Drivers/CMSIS/Include/core_cmInstr.h **** }
ARM GAS  /tmp/ccn09EVD.s 			page 10


 149:Drivers/CMSIS/Include/core_cmInstr.h **** #endif
 150:Drivers/CMSIS/Include/core_cmInstr.h **** 
 151:Drivers/CMSIS/Include/core_cmInstr.h **** 
 152:Drivers/CMSIS/Include/core_cmInstr.h **** /** \brief  Rotate Right in unsigned value (32 bit)
 153:Drivers/CMSIS/Include/core_cmInstr.h **** 
 154:Drivers/CMSIS/Include/core_cmInstr.h ****     This function Rotate Right (immediate) provides the value of the contents of a register rotated
 155:Drivers/CMSIS/Include/core_cmInstr.h **** 
 156:Drivers/CMSIS/Include/core_cmInstr.h ****     \param [in]    value  Value to rotate
 157:Drivers/CMSIS/Include/core_cmInstr.h ****     \param [in]    value  Number of Bits to rotate
 158:Drivers/CMSIS/Include/core_cmInstr.h ****     \return               Rotated value
 159:Drivers/CMSIS/Include/core_cmInstr.h ****  */
 160:Drivers/CMSIS/Include/core_cmInstr.h **** #define __ROR                             __ror
 161:Drivers/CMSIS/Include/core_cmInstr.h **** 
 162:Drivers/CMSIS/Include/core_cmInstr.h **** 
 163:Drivers/CMSIS/Include/core_cmInstr.h **** /** \brief  Breakpoint
 164:Drivers/CMSIS/Include/core_cmInstr.h **** 
 165:Drivers/CMSIS/Include/core_cmInstr.h ****     This function causes the processor to enter Debug state.
 166:Drivers/CMSIS/Include/core_cmInstr.h ****     Debug tools can use this to investigate system state when the instruction at a particular addre
 167:Drivers/CMSIS/Include/core_cmInstr.h **** 
 168:Drivers/CMSIS/Include/core_cmInstr.h ****     \param [in]    value  is ignored by the processor.
 169:Drivers/CMSIS/Include/core_cmInstr.h ****                    If required, a debugger can use it to store additional information about the bre
 170:Drivers/CMSIS/Include/core_cmInstr.h ****  */
 171:Drivers/CMSIS/Include/core_cmInstr.h **** #define __BKPT(value)                       __breakpoint(value)
 172:Drivers/CMSIS/Include/core_cmInstr.h **** 
 173:Drivers/CMSIS/Include/core_cmInstr.h **** 
 174:Drivers/CMSIS/Include/core_cmInstr.h **** #if       (__CORTEX_M >= 0x03)
 175:Drivers/CMSIS/Include/core_cmInstr.h **** 
 176:Drivers/CMSIS/Include/core_cmInstr.h **** /** \brief  Reverse bit order of value
 177:Drivers/CMSIS/Include/core_cmInstr.h **** 
 178:Drivers/CMSIS/Include/core_cmInstr.h ****     This function reverses the bit order of the given value.
 179:Drivers/CMSIS/Include/core_cmInstr.h **** 
 180:Drivers/CMSIS/Include/core_cmInstr.h ****     \param [in]    value  Value to reverse
 181:Drivers/CMSIS/Include/core_cmInstr.h ****     \return               Reversed value
 182:Drivers/CMSIS/Include/core_cmInstr.h ****  */
 183:Drivers/CMSIS/Include/core_cmInstr.h **** #define __RBIT                            __rbit
 184:Drivers/CMSIS/Include/core_cmInstr.h **** 
 185:Drivers/CMSIS/Include/core_cmInstr.h **** 
 186:Drivers/CMSIS/Include/core_cmInstr.h **** /** \brief  LDR Exclusive (8 bit)
 187:Drivers/CMSIS/Include/core_cmInstr.h **** 
 188:Drivers/CMSIS/Include/core_cmInstr.h ****     This function performs a exclusive LDR command for 8 bit value.
 189:Drivers/CMSIS/Include/core_cmInstr.h **** 
 190:Drivers/CMSIS/Include/core_cmInstr.h ****     \param [in]    ptr  Pointer to data
 191:Drivers/CMSIS/Include/core_cmInstr.h ****     \return             value of type uint8_t at (*ptr)
 192:Drivers/CMSIS/Include/core_cmInstr.h ****  */
 193:Drivers/CMSIS/Include/core_cmInstr.h **** #define __LDREXB(ptr)                     ((uint8_t ) __ldrex(ptr))
 194:Drivers/CMSIS/Include/core_cmInstr.h **** 
 195:Drivers/CMSIS/Include/core_cmInstr.h **** 
 196:Drivers/CMSIS/Include/core_cmInstr.h **** /** \brief  LDR Exclusive (16 bit)
 197:Drivers/CMSIS/Include/core_cmInstr.h **** 
 198:Drivers/CMSIS/Include/core_cmInstr.h ****     This function performs a exclusive LDR command for 16 bit values.
 199:Drivers/CMSIS/Include/core_cmInstr.h **** 
 200:Drivers/CMSIS/Include/core_cmInstr.h ****     \param [in]    ptr  Pointer to data
 201:Drivers/CMSIS/Include/core_cmInstr.h ****     \return        value of type uint16_t at (*ptr)
 202:Drivers/CMSIS/Include/core_cmInstr.h ****  */
 203:Drivers/CMSIS/Include/core_cmInstr.h **** #define __LDREXH(ptr)                     ((uint16_t) __ldrex(ptr))
 204:Drivers/CMSIS/Include/core_cmInstr.h **** 
 205:Drivers/CMSIS/Include/core_cmInstr.h **** 
ARM GAS  /tmp/ccn09EVD.s 			page 11


 206:Drivers/CMSIS/Include/core_cmInstr.h **** /** \brief  LDR Exclusive (32 bit)
 207:Drivers/CMSIS/Include/core_cmInstr.h **** 
 208:Drivers/CMSIS/Include/core_cmInstr.h ****     This function performs a exclusive LDR command for 32 bit values.
 209:Drivers/CMSIS/Include/core_cmInstr.h **** 
 210:Drivers/CMSIS/Include/core_cmInstr.h ****     \param [in]    ptr  Pointer to data
 211:Drivers/CMSIS/Include/core_cmInstr.h ****     \return        value of type uint32_t at (*ptr)
 212:Drivers/CMSIS/Include/core_cmInstr.h ****  */
 213:Drivers/CMSIS/Include/core_cmInstr.h **** #define __LDREXW(ptr)                     ((uint32_t ) __ldrex(ptr))
 214:Drivers/CMSIS/Include/core_cmInstr.h **** 
 215:Drivers/CMSIS/Include/core_cmInstr.h **** 
 216:Drivers/CMSIS/Include/core_cmInstr.h **** /** \brief  STR Exclusive (8 bit)
 217:Drivers/CMSIS/Include/core_cmInstr.h **** 
 218:Drivers/CMSIS/Include/core_cmInstr.h ****     This function performs a exclusive STR command for 8 bit values.
 219:Drivers/CMSIS/Include/core_cmInstr.h **** 
 220:Drivers/CMSIS/Include/core_cmInstr.h ****     \param [in]  value  Value to store
 221:Drivers/CMSIS/Include/core_cmInstr.h ****     \param [in]    ptr  Pointer to location
 222:Drivers/CMSIS/Include/core_cmInstr.h ****     \return          0  Function succeeded
 223:Drivers/CMSIS/Include/core_cmInstr.h ****     \return          1  Function failed
 224:Drivers/CMSIS/Include/core_cmInstr.h ****  */
 225:Drivers/CMSIS/Include/core_cmInstr.h **** #define __STREXB(value, ptr)              __strex(value, ptr)
 226:Drivers/CMSIS/Include/core_cmInstr.h **** 
 227:Drivers/CMSIS/Include/core_cmInstr.h **** 
 228:Drivers/CMSIS/Include/core_cmInstr.h **** /** \brief  STR Exclusive (16 bit)
 229:Drivers/CMSIS/Include/core_cmInstr.h **** 
 230:Drivers/CMSIS/Include/core_cmInstr.h ****     This function performs a exclusive STR command for 16 bit values.
 231:Drivers/CMSIS/Include/core_cmInstr.h **** 
 232:Drivers/CMSIS/Include/core_cmInstr.h ****     \param [in]  value  Value to store
 233:Drivers/CMSIS/Include/core_cmInstr.h ****     \param [in]    ptr  Pointer to location
 234:Drivers/CMSIS/Include/core_cmInstr.h ****     \return          0  Function succeeded
 235:Drivers/CMSIS/Include/core_cmInstr.h ****     \return          1  Function failed
 236:Drivers/CMSIS/Include/core_cmInstr.h ****  */
 237:Drivers/CMSIS/Include/core_cmInstr.h **** #define __STREXH(value, ptr)              __strex(value, ptr)
 238:Drivers/CMSIS/Include/core_cmInstr.h **** 
 239:Drivers/CMSIS/Include/core_cmInstr.h **** 
 240:Drivers/CMSIS/Include/core_cmInstr.h **** /** \brief  STR Exclusive (32 bit)
 241:Drivers/CMSIS/Include/core_cmInstr.h **** 
 242:Drivers/CMSIS/Include/core_cmInstr.h ****     This function performs a exclusive STR command for 32 bit values.
 243:Drivers/CMSIS/Include/core_cmInstr.h **** 
 244:Drivers/CMSIS/Include/core_cmInstr.h ****     \param [in]  value  Value to store
 245:Drivers/CMSIS/Include/core_cmInstr.h ****     \param [in]    ptr  Pointer to location
 246:Drivers/CMSIS/Include/core_cmInstr.h ****     \return          0  Function succeeded
 247:Drivers/CMSIS/Include/core_cmInstr.h ****     \return          1  Function failed
 248:Drivers/CMSIS/Include/core_cmInstr.h ****  */
 249:Drivers/CMSIS/Include/core_cmInstr.h **** #define __STREXW(value, ptr)              __strex(value, ptr)
 250:Drivers/CMSIS/Include/core_cmInstr.h **** 
 251:Drivers/CMSIS/Include/core_cmInstr.h **** 
 252:Drivers/CMSIS/Include/core_cmInstr.h **** /** \brief  Remove the exclusive lock
 253:Drivers/CMSIS/Include/core_cmInstr.h **** 
 254:Drivers/CMSIS/Include/core_cmInstr.h ****     This function removes the exclusive lock which is created by LDREX.
 255:Drivers/CMSIS/Include/core_cmInstr.h **** 
 256:Drivers/CMSIS/Include/core_cmInstr.h ****  */
 257:Drivers/CMSIS/Include/core_cmInstr.h **** #define __CLREX                           __clrex
 258:Drivers/CMSIS/Include/core_cmInstr.h **** 
 259:Drivers/CMSIS/Include/core_cmInstr.h **** 
 260:Drivers/CMSIS/Include/core_cmInstr.h **** /** \brief  Signed Saturate
 261:Drivers/CMSIS/Include/core_cmInstr.h **** 
 262:Drivers/CMSIS/Include/core_cmInstr.h ****     This function saturates a signed value.
ARM GAS  /tmp/ccn09EVD.s 			page 12


 263:Drivers/CMSIS/Include/core_cmInstr.h **** 
 264:Drivers/CMSIS/Include/core_cmInstr.h ****     \param [in]  value  Value to be saturated
 265:Drivers/CMSIS/Include/core_cmInstr.h ****     \param [in]    sat  Bit position to saturate to (1..32)
 266:Drivers/CMSIS/Include/core_cmInstr.h ****     \return             Saturated value
 267:Drivers/CMSIS/Include/core_cmInstr.h ****  */
 268:Drivers/CMSIS/Include/core_cmInstr.h **** #define __SSAT                            __ssat
 269:Drivers/CMSIS/Include/core_cmInstr.h **** 
 270:Drivers/CMSIS/Include/core_cmInstr.h **** 
 271:Drivers/CMSIS/Include/core_cmInstr.h **** /** \brief  Unsigned Saturate
 272:Drivers/CMSIS/Include/core_cmInstr.h **** 
 273:Drivers/CMSIS/Include/core_cmInstr.h ****     This function saturates an unsigned value.
 274:Drivers/CMSIS/Include/core_cmInstr.h **** 
 275:Drivers/CMSIS/Include/core_cmInstr.h ****     \param [in]  value  Value to be saturated
 276:Drivers/CMSIS/Include/core_cmInstr.h ****     \param [in]    sat  Bit position to saturate to (0..31)
 277:Drivers/CMSIS/Include/core_cmInstr.h ****     \return             Saturated value
 278:Drivers/CMSIS/Include/core_cmInstr.h ****  */
 279:Drivers/CMSIS/Include/core_cmInstr.h **** #define __USAT                            __usat
 280:Drivers/CMSIS/Include/core_cmInstr.h **** 
 281:Drivers/CMSIS/Include/core_cmInstr.h **** 
 282:Drivers/CMSIS/Include/core_cmInstr.h **** /** \brief  Count leading zeros
 283:Drivers/CMSIS/Include/core_cmInstr.h **** 
 284:Drivers/CMSIS/Include/core_cmInstr.h ****     This function counts the number of leading zeros of a data value.
 285:Drivers/CMSIS/Include/core_cmInstr.h **** 
 286:Drivers/CMSIS/Include/core_cmInstr.h ****     \param [in]  value  Value to count the leading zeros
 287:Drivers/CMSIS/Include/core_cmInstr.h ****     \return             number of leading zeros in value
 288:Drivers/CMSIS/Include/core_cmInstr.h ****  */
 289:Drivers/CMSIS/Include/core_cmInstr.h **** #define __CLZ                             __clz
 290:Drivers/CMSIS/Include/core_cmInstr.h **** 
 291:Drivers/CMSIS/Include/core_cmInstr.h **** #endif /* (__CORTEX_M >= 0x03) */
 292:Drivers/CMSIS/Include/core_cmInstr.h **** 
 293:Drivers/CMSIS/Include/core_cmInstr.h **** 
 294:Drivers/CMSIS/Include/core_cmInstr.h **** 
 295:Drivers/CMSIS/Include/core_cmInstr.h **** #elif defined ( __ICCARM__ ) /*------------------ ICC Compiler -------------------*/
 296:Drivers/CMSIS/Include/core_cmInstr.h **** /* IAR iccarm specific functions */
 297:Drivers/CMSIS/Include/core_cmInstr.h **** 
 298:Drivers/CMSIS/Include/core_cmInstr.h **** #include <cmsis_iar.h>
 299:Drivers/CMSIS/Include/core_cmInstr.h **** 
 300:Drivers/CMSIS/Include/core_cmInstr.h **** 
 301:Drivers/CMSIS/Include/core_cmInstr.h **** #elif defined ( __TMS470__ ) /*---------------- TI CCS Compiler ------------------*/
 302:Drivers/CMSIS/Include/core_cmInstr.h **** /* TI CCS specific functions */
 303:Drivers/CMSIS/Include/core_cmInstr.h **** 
 304:Drivers/CMSIS/Include/core_cmInstr.h **** #include <cmsis_ccs.h>
 305:Drivers/CMSIS/Include/core_cmInstr.h **** 
 306:Drivers/CMSIS/Include/core_cmInstr.h **** 
 307:Drivers/CMSIS/Include/core_cmInstr.h **** #elif defined ( __GNUC__ ) /*------------------ GNU Compiler ---------------------*/
 308:Drivers/CMSIS/Include/core_cmInstr.h **** /* GNU gcc specific functions */
 309:Drivers/CMSIS/Include/core_cmInstr.h **** 
 310:Drivers/CMSIS/Include/core_cmInstr.h **** /* Define macros for porting to both thumb1 and thumb2.
 311:Drivers/CMSIS/Include/core_cmInstr.h ****  * For thumb1, use low register (r0-r7), specified by constrant "l"
 312:Drivers/CMSIS/Include/core_cmInstr.h ****  * Otherwise, use general registers, specified by constrant "r" */
 313:Drivers/CMSIS/Include/core_cmInstr.h **** #if defined (__thumb__) && !defined (__thumb2__)
 314:Drivers/CMSIS/Include/core_cmInstr.h **** #define __CMSIS_GCC_OUT_REG(r) "=l" (r)
 315:Drivers/CMSIS/Include/core_cmInstr.h **** #define __CMSIS_GCC_USE_REG(r) "l" (r)
 316:Drivers/CMSIS/Include/core_cmInstr.h **** #else
 317:Drivers/CMSIS/Include/core_cmInstr.h **** #define __CMSIS_GCC_OUT_REG(r) "=r" (r)
 318:Drivers/CMSIS/Include/core_cmInstr.h **** #define __CMSIS_GCC_USE_REG(r) "r" (r)
 319:Drivers/CMSIS/Include/core_cmInstr.h **** #endif
ARM GAS  /tmp/ccn09EVD.s 			page 13


 320:Drivers/CMSIS/Include/core_cmInstr.h **** 
 321:Drivers/CMSIS/Include/core_cmInstr.h **** /** \brief  No Operation
 322:Drivers/CMSIS/Include/core_cmInstr.h **** 
 323:Drivers/CMSIS/Include/core_cmInstr.h ****     No Operation does nothing. This instruction can be used for code alignment purposes.
 324:Drivers/CMSIS/Include/core_cmInstr.h ****  */
 325:Drivers/CMSIS/Include/core_cmInstr.h **** __attribute__( ( always_inline ) ) __STATIC_INLINE void __NOP(void)
 326:Drivers/CMSIS/Include/core_cmInstr.h **** {
 327:Drivers/CMSIS/Include/core_cmInstr.h ****   __ASM volatile ("nop");
 328:Drivers/CMSIS/Include/core_cmInstr.h **** }
 329:Drivers/CMSIS/Include/core_cmInstr.h **** 
 330:Drivers/CMSIS/Include/core_cmInstr.h **** 
 331:Drivers/CMSIS/Include/core_cmInstr.h **** /** \brief  Wait For Interrupt
 332:Drivers/CMSIS/Include/core_cmInstr.h **** 
 333:Drivers/CMSIS/Include/core_cmInstr.h ****     Wait For Interrupt is a hint instruction that suspends execution
 334:Drivers/CMSIS/Include/core_cmInstr.h ****     until one of a number of events occurs.
 335:Drivers/CMSIS/Include/core_cmInstr.h ****  */
 336:Drivers/CMSIS/Include/core_cmInstr.h **** __attribute__( ( always_inline ) ) __STATIC_INLINE void __WFI(void)
 337:Drivers/CMSIS/Include/core_cmInstr.h **** {
 338:Drivers/CMSIS/Include/core_cmInstr.h ****   __ASM volatile ("wfi");
 339:Drivers/CMSIS/Include/core_cmInstr.h **** }
 340:Drivers/CMSIS/Include/core_cmInstr.h **** 
 341:Drivers/CMSIS/Include/core_cmInstr.h **** 
 342:Drivers/CMSIS/Include/core_cmInstr.h **** /** \brief  Wait For Event
 343:Drivers/CMSIS/Include/core_cmInstr.h **** 
 344:Drivers/CMSIS/Include/core_cmInstr.h ****     Wait For Event is a hint instruction that permits the processor to enter
 345:Drivers/CMSIS/Include/core_cmInstr.h ****     a low-power state until one of a number of events occurs.
 346:Drivers/CMSIS/Include/core_cmInstr.h ****  */
 347:Drivers/CMSIS/Include/core_cmInstr.h **** __attribute__( ( always_inline ) ) __STATIC_INLINE void __WFE(void)
 348:Drivers/CMSIS/Include/core_cmInstr.h **** {
 349:Drivers/CMSIS/Include/core_cmInstr.h ****   __ASM volatile ("wfe");
 350:Drivers/CMSIS/Include/core_cmInstr.h **** }
 351:Drivers/CMSIS/Include/core_cmInstr.h **** 
 352:Drivers/CMSIS/Include/core_cmInstr.h **** 
 353:Drivers/CMSIS/Include/core_cmInstr.h **** /** \brief  Send Event
 354:Drivers/CMSIS/Include/core_cmInstr.h **** 
 355:Drivers/CMSIS/Include/core_cmInstr.h ****     Send Event is a hint instruction. It causes an event to be signaled to the CPU.
 356:Drivers/CMSIS/Include/core_cmInstr.h ****  */
 357:Drivers/CMSIS/Include/core_cmInstr.h **** __attribute__( ( always_inline ) ) __STATIC_INLINE void __SEV(void)
 358:Drivers/CMSIS/Include/core_cmInstr.h **** {
 359:Drivers/CMSIS/Include/core_cmInstr.h ****   __ASM volatile ("sev");
 360:Drivers/CMSIS/Include/core_cmInstr.h **** }
 361:Drivers/CMSIS/Include/core_cmInstr.h **** 
 362:Drivers/CMSIS/Include/core_cmInstr.h **** 
 363:Drivers/CMSIS/Include/core_cmInstr.h **** /** \brief  Instruction Synchronization Barrier
 364:Drivers/CMSIS/Include/core_cmInstr.h **** 
 365:Drivers/CMSIS/Include/core_cmInstr.h ****     Instruction Synchronization Barrier flushes the pipeline in the processor,
 366:Drivers/CMSIS/Include/core_cmInstr.h ****     so that all instructions following the ISB are fetched from cache or
 367:Drivers/CMSIS/Include/core_cmInstr.h ****     memory, after the instruction has been completed.
 368:Drivers/CMSIS/Include/core_cmInstr.h ****  */
 369:Drivers/CMSIS/Include/core_cmInstr.h **** __attribute__( ( always_inline ) ) __STATIC_INLINE void __ISB(void)
 370:Drivers/CMSIS/Include/core_cmInstr.h **** {
 371:Drivers/CMSIS/Include/core_cmInstr.h ****   __ASM volatile ("isb");
 372:Drivers/CMSIS/Include/core_cmInstr.h **** }
 373:Drivers/CMSIS/Include/core_cmInstr.h **** 
 374:Drivers/CMSIS/Include/core_cmInstr.h **** 
 375:Drivers/CMSIS/Include/core_cmInstr.h **** /** \brief  Data Synchronization Barrier
 376:Drivers/CMSIS/Include/core_cmInstr.h **** 
ARM GAS  /tmp/ccn09EVD.s 			page 14


 377:Drivers/CMSIS/Include/core_cmInstr.h ****     This function acts as a special kind of Data Memory Barrier.
 378:Drivers/CMSIS/Include/core_cmInstr.h ****     It completes when all explicit memory accesses before this instruction complete.
 379:Drivers/CMSIS/Include/core_cmInstr.h ****  */
 380:Drivers/CMSIS/Include/core_cmInstr.h **** __attribute__( ( always_inline ) ) __STATIC_INLINE void __DSB(void)
 381:Drivers/CMSIS/Include/core_cmInstr.h **** {
 382:Drivers/CMSIS/Include/core_cmInstr.h ****   __ASM volatile ("dsb");
 383:Drivers/CMSIS/Include/core_cmInstr.h **** }
 384:Drivers/CMSIS/Include/core_cmInstr.h **** 
 385:Drivers/CMSIS/Include/core_cmInstr.h **** 
 386:Drivers/CMSIS/Include/core_cmInstr.h **** /** \brief  Data Memory Barrier
 387:Drivers/CMSIS/Include/core_cmInstr.h **** 
 388:Drivers/CMSIS/Include/core_cmInstr.h ****     This function ensures the apparent order of the explicit memory operations before
 389:Drivers/CMSIS/Include/core_cmInstr.h ****     and after the instruction, without ensuring their completion.
 390:Drivers/CMSIS/Include/core_cmInstr.h ****  */
 391:Drivers/CMSIS/Include/core_cmInstr.h **** __attribute__( ( always_inline ) ) __STATIC_INLINE void __DMB(void)
 392:Drivers/CMSIS/Include/core_cmInstr.h **** {
 393:Drivers/CMSIS/Include/core_cmInstr.h ****   __ASM volatile ("dmb");
 394:Drivers/CMSIS/Include/core_cmInstr.h **** }
 395:Drivers/CMSIS/Include/core_cmInstr.h **** 
 396:Drivers/CMSIS/Include/core_cmInstr.h **** 
 397:Drivers/CMSIS/Include/core_cmInstr.h **** /** \brief  Reverse byte order (32 bit)
 398:Drivers/CMSIS/Include/core_cmInstr.h **** 
 399:Drivers/CMSIS/Include/core_cmInstr.h ****     This function reverses the byte order in integer value.
 400:Drivers/CMSIS/Include/core_cmInstr.h **** 
 401:Drivers/CMSIS/Include/core_cmInstr.h ****     \param [in]    value  Value to reverse
 402:Drivers/CMSIS/Include/core_cmInstr.h ****     \return               Reversed value
 403:Drivers/CMSIS/Include/core_cmInstr.h ****  */
 404:Drivers/CMSIS/Include/core_cmInstr.h **** __attribute__( ( always_inline ) ) __STATIC_INLINE uint32_t __REV(uint32_t value)
 405:Drivers/CMSIS/Include/core_cmInstr.h **** {
 406:Drivers/CMSIS/Include/core_cmInstr.h **** #if (__GNUC__ > 4) || (__GNUC__ == 4 && __GNUC_MINOR__ >= 5)
 407:Drivers/CMSIS/Include/core_cmInstr.h ****   return __builtin_bswap32(value);
 408:Drivers/CMSIS/Include/core_cmInstr.h **** #else
 409:Drivers/CMSIS/Include/core_cmInstr.h ****   uint32_t result;
 410:Drivers/CMSIS/Include/core_cmInstr.h **** 
 411:Drivers/CMSIS/Include/core_cmInstr.h ****   __ASM volatile ("rev %0, %1" : __CMSIS_GCC_OUT_REG (result) : __CMSIS_GCC_USE_REG (value) );
 412:Drivers/CMSIS/Include/core_cmInstr.h ****   return(result);
 413:Drivers/CMSIS/Include/core_cmInstr.h **** #endif
 414:Drivers/CMSIS/Include/core_cmInstr.h **** }
 415:Drivers/CMSIS/Include/core_cmInstr.h **** 
 416:Drivers/CMSIS/Include/core_cmInstr.h **** 
 417:Drivers/CMSIS/Include/core_cmInstr.h **** /** \brief  Reverse byte order (16 bit)
 418:Drivers/CMSIS/Include/core_cmInstr.h **** 
 419:Drivers/CMSIS/Include/core_cmInstr.h ****     This function reverses the byte order in two unsigned short values.
 420:Drivers/CMSIS/Include/core_cmInstr.h **** 
 421:Drivers/CMSIS/Include/core_cmInstr.h ****     \param [in]    value  Value to reverse
 422:Drivers/CMSIS/Include/core_cmInstr.h ****     \return               Reversed value
 423:Drivers/CMSIS/Include/core_cmInstr.h ****  */
 424:Drivers/CMSIS/Include/core_cmInstr.h **** __attribute__( ( always_inline ) ) __STATIC_INLINE uint32_t __REV16(uint32_t value)
 425:Drivers/CMSIS/Include/core_cmInstr.h **** {
 426:Drivers/CMSIS/Include/core_cmInstr.h ****   uint32_t result;
 427:Drivers/CMSIS/Include/core_cmInstr.h **** 
 428:Drivers/CMSIS/Include/core_cmInstr.h ****   __ASM volatile ("rev16 %0, %1" : __CMSIS_GCC_OUT_REG (result) : __CMSIS_GCC_USE_REG (value) );
 429:Drivers/CMSIS/Include/core_cmInstr.h ****   return(result);
 430:Drivers/CMSIS/Include/core_cmInstr.h **** }
 431:Drivers/CMSIS/Include/core_cmInstr.h **** 
 432:Drivers/CMSIS/Include/core_cmInstr.h **** 
 433:Drivers/CMSIS/Include/core_cmInstr.h **** /** \brief  Reverse byte order in signed short value
ARM GAS  /tmp/ccn09EVD.s 			page 15


 434:Drivers/CMSIS/Include/core_cmInstr.h **** 
 435:Drivers/CMSIS/Include/core_cmInstr.h ****     This function reverses the byte order in a signed short value with sign extension to integer.
 436:Drivers/CMSIS/Include/core_cmInstr.h **** 
 437:Drivers/CMSIS/Include/core_cmInstr.h ****     \param [in]    value  Value to reverse
 438:Drivers/CMSIS/Include/core_cmInstr.h ****     \return               Reversed value
 439:Drivers/CMSIS/Include/core_cmInstr.h ****  */
 440:Drivers/CMSIS/Include/core_cmInstr.h **** __attribute__( ( always_inline ) ) __STATIC_INLINE int32_t __REVSH(int32_t value)
 441:Drivers/CMSIS/Include/core_cmInstr.h **** {
 442:Drivers/CMSIS/Include/core_cmInstr.h **** #if (__GNUC__ > 4) || (__GNUC__ == 4 && __GNUC_MINOR__ >= 8)
 443:Drivers/CMSIS/Include/core_cmInstr.h ****   return (short)__builtin_bswap16(value);
 444:Drivers/CMSIS/Include/core_cmInstr.h **** #else
 445:Drivers/CMSIS/Include/core_cmInstr.h ****   uint32_t result;
 446:Drivers/CMSIS/Include/core_cmInstr.h **** 
 447:Drivers/CMSIS/Include/core_cmInstr.h ****   __ASM volatile ("revsh %0, %1" : __CMSIS_GCC_OUT_REG (result) : __CMSIS_GCC_USE_REG (value) );
 448:Drivers/CMSIS/Include/core_cmInstr.h ****   return(result);
 449:Drivers/CMSIS/Include/core_cmInstr.h **** #endif
 450:Drivers/CMSIS/Include/core_cmInstr.h **** }
 451:Drivers/CMSIS/Include/core_cmInstr.h **** 
 452:Drivers/CMSIS/Include/core_cmInstr.h **** 
 453:Drivers/CMSIS/Include/core_cmInstr.h **** /** \brief  Rotate Right in unsigned value (32 bit)
 454:Drivers/CMSIS/Include/core_cmInstr.h **** 
 455:Drivers/CMSIS/Include/core_cmInstr.h ****     This function Rotate Right (immediate) provides the value of the contents of a register rotated
 456:Drivers/CMSIS/Include/core_cmInstr.h **** 
 457:Drivers/CMSIS/Include/core_cmInstr.h ****     \param [in]    value  Value to rotate
 458:Drivers/CMSIS/Include/core_cmInstr.h ****     \param [in]    value  Number of Bits to rotate
 459:Drivers/CMSIS/Include/core_cmInstr.h ****     \return               Rotated value
 460:Drivers/CMSIS/Include/core_cmInstr.h ****  */
 461:Drivers/CMSIS/Include/core_cmInstr.h **** __attribute__( ( always_inline ) ) __STATIC_INLINE uint32_t __ROR(uint32_t op1, uint32_t op2)
 462:Drivers/CMSIS/Include/core_cmInstr.h **** {
 463:Drivers/CMSIS/Include/core_cmInstr.h ****   return (op1 >> op2) | (op1 << (32 - op2)); 
 464:Drivers/CMSIS/Include/core_cmInstr.h **** }
 465:Drivers/CMSIS/Include/core_cmInstr.h **** 
 466:Drivers/CMSIS/Include/core_cmInstr.h **** 
 467:Drivers/CMSIS/Include/core_cmInstr.h **** /** \brief  Breakpoint
 468:Drivers/CMSIS/Include/core_cmInstr.h **** 
 469:Drivers/CMSIS/Include/core_cmInstr.h ****     This function causes the processor to enter Debug state.
 470:Drivers/CMSIS/Include/core_cmInstr.h ****     Debug tools can use this to investigate system state when the instruction at a particular addre
 471:Drivers/CMSIS/Include/core_cmInstr.h **** 
 472:Drivers/CMSIS/Include/core_cmInstr.h ****     \param [in]    value  is ignored by the processor.
 473:Drivers/CMSIS/Include/core_cmInstr.h ****                    If required, a debugger can use it to store additional information about the bre
 474:Drivers/CMSIS/Include/core_cmInstr.h ****  */
 475:Drivers/CMSIS/Include/core_cmInstr.h **** #define __BKPT(value)                       __ASM volatile ("bkpt "#value)
 476:Drivers/CMSIS/Include/core_cmInstr.h **** 
 477:Drivers/CMSIS/Include/core_cmInstr.h **** 
 478:Drivers/CMSIS/Include/core_cmInstr.h **** #if       (__CORTEX_M >= 0x03)
 479:Drivers/CMSIS/Include/core_cmInstr.h **** 
 480:Drivers/CMSIS/Include/core_cmInstr.h **** /** \brief  Reverse bit order of value
 481:Drivers/CMSIS/Include/core_cmInstr.h **** 
 482:Drivers/CMSIS/Include/core_cmInstr.h ****     This function reverses the bit order of the given value.
 483:Drivers/CMSIS/Include/core_cmInstr.h **** 
 484:Drivers/CMSIS/Include/core_cmInstr.h ****     \param [in]    value  Value to reverse
 485:Drivers/CMSIS/Include/core_cmInstr.h ****     \return               Reversed value
 486:Drivers/CMSIS/Include/core_cmInstr.h ****  */
 487:Drivers/CMSIS/Include/core_cmInstr.h **** __attribute__( ( always_inline ) ) __STATIC_INLINE uint32_t __RBIT(uint32_t value)
 488:Drivers/CMSIS/Include/core_cmInstr.h **** {
 489:Drivers/CMSIS/Include/core_cmInstr.h ****   uint32_t result;
 490:Drivers/CMSIS/Include/core_cmInstr.h **** 
ARM GAS  /tmp/ccn09EVD.s 			page 16


 491:Drivers/CMSIS/Include/core_cmInstr.h ****    __ASM volatile ("rbit %0, %1" : "=r" (result) : "r" (value) );
 117              		.loc 2 491 0
 118 0068 FB69     		ldr	r3, [r7, #28]	@ tmp174, value
 119              	@ 491 "Drivers/CMSIS/Include/core_cmInstr.h" 1
 120 006a 93FAA3F4 		rbit r4, r3	@ result, tmp174
 121              	@ 0 "" 2
 122              		.thumb
 123 006e BC61     		str	r4, [r7, #24]	@ result, result
 492:Drivers/CMSIS/Include/core_cmInstr.h ****    return(result);
 124              		.loc 2 492 0
 125 0070 BB69     		ldr	r3, [r7, #24]	@ D.7370, result
 126 0072 7B61     		str	r3, [r7, #20]	@ D.7348, value
 127              	.LBE517:
 128              	.LBE516:
 129              	.LBE515:
 130              	.LBB518:
 131              	.LBB519:
 132              	.LBB520:
 493:Drivers/CMSIS/Include/core_cmInstr.h **** }
 494:Drivers/CMSIS/Include/core_cmInstr.h **** 
 495:Drivers/CMSIS/Include/core_cmInstr.h **** 
 496:Drivers/CMSIS/Include/core_cmInstr.h **** /** \brief  LDR Exclusive (8 bit)
 497:Drivers/CMSIS/Include/core_cmInstr.h **** 
 498:Drivers/CMSIS/Include/core_cmInstr.h ****     This function performs a exclusive LDR command for 8 bit value.
 499:Drivers/CMSIS/Include/core_cmInstr.h **** 
 500:Drivers/CMSIS/Include/core_cmInstr.h ****     \param [in]    ptr  Pointer to data
 501:Drivers/CMSIS/Include/core_cmInstr.h ****     \return             value of type uint8_t at (*ptr)
 502:Drivers/CMSIS/Include/core_cmInstr.h ****  */
 503:Drivers/CMSIS/Include/core_cmInstr.h **** __attribute__( ( always_inline ) ) __STATIC_INLINE uint8_t __LDREXB(volatile uint8_t *addr)
 504:Drivers/CMSIS/Include/core_cmInstr.h **** {
 505:Drivers/CMSIS/Include/core_cmInstr.h ****     uint32_t result;
 506:Drivers/CMSIS/Include/core_cmInstr.h **** 
 507:Drivers/CMSIS/Include/core_cmInstr.h **** #if (__GNUC__ > 4) || (__GNUC__ == 4 && __GNUC_MINOR__ >= 8)
 508:Drivers/CMSIS/Include/core_cmInstr.h ****    __ASM volatile ("ldrexb %0, %1" : "=r" (result) : "Q" (*addr) );
 509:Drivers/CMSIS/Include/core_cmInstr.h **** #else
 510:Drivers/CMSIS/Include/core_cmInstr.h ****     /* Prior to GCC 4.8, "Q" will be expanded to [rx, #0] which is not
 511:Drivers/CMSIS/Include/core_cmInstr.h ****        accepted by assembler. So has to use following less efficient pattern.
 512:Drivers/CMSIS/Include/core_cmInstr.h ****     */
 513:Drivers/CMSIS/Include/core_cmInstr.h ****    __ASM volatile ("ldrexb %0, [%1]" : "=r" (result) : "r" (addr) : "memory" );
 514:Drivers/CMSIS/Include/core_cmInstr.h **** #endif
 515:Drivers/CMSIS/Include/core_cmInstr.h ****    return(result);
 516:Drivers/CMSIS/Include/core_cmInstr.h **** }
 517:Drivers/CMSIS/Include/core_cmInstr.h **** 
 518:Drivers/CMSIS/Include/core_cmInstr.h **** 
 519:Drivers/CMSIS/Include/core_cmInstr.h **** /** \brief  LDR Exclusive (16 bit)
 520:Drivers/CMSIS/Include/core_cmInstr.h **** 
 521:Drivers/CMSIS/Include/core_cmInstr.h ****     This function performs a exclusive LDR command for 16 bit values.
 522:Drivers/CMSIS/Include/core_cmInstr.h **** 
 523:Drivers/CMSIS/Include/core_cmInstr.h ****     \param [in]    ptr  Pointer to data
 524:Drivers/CMSIS/Include/core_cmInstr.h ****     \return        value of type uint16_t at (*ptr)
 525:Drivers/CMSIS/Include/core_cmInstr.h ****  */
 526:Drivers/CMSIS/Include/core_cmInstr.h **** __attribute__( ( always_inline ) ) __STATIC_INLINE uint16_t __LDREXH(volatile uint16_t *addr)
 527:Drivers/CMSIS/Include/core_cmInstr.h **** {
 528:Drivers/CMSIS/Include/core_cmInstr.h ****     uint32_t result;
 529:Drivers/CMSIS/Include/core_cmInstr.h **** 
 530:Drivers/CMSIS/Include/core_cmInstr.h **** #if (__GNUC__ > 4) || (__GNUC__ == 4 && __GNUC_MINOR__ >= 8)
 531:Drivers/CMSIS/Include/core_cmInstr.h ****    __ASM volatile ("ldrexh %0, %1" : "=r" (result) : "Q" (*addr) );
ARM GAS  /tmp/ccn09EVD.s 			page 17


 532:Drivers/CMSIS/Include/core_cmInstr.h **** #else
 533:Drivers/CMSIS/Include/core_cmInstr.h ****     /* Prior to GCC 4.8, "Q" will be expanded to [rx, #0] which is not
 534:Drivers/CMSIS/Include/core_cmInstr.h ****        accepted by assembler. So has to use following less efficient pattern.
 535:Drivers/CMSIS/Include/core_cmInstr.h ****     */
 536:Drivers/CMSIS/Include/core_cmInstr.h ****    __ASM volatile ("ldrexh %0, [%1]" : "=r" (result) : "r" (addr) : "memory" );
 537:Drivers/CMSIS/Include/core_cmInstr.h **** #endif
 538:Drivers/CMSIS/Include/core_cmInstr.h ****    return(result);
 539:Drivers/CMSIS/Include/core_cmInstr.h **** }
 540:Drivers/CMSIS/Include/core_cmInstr.h **** 
 541:Drivers/CMSIS/Include/core_cmInstr.h **** 
 542:Drivers/CMSIS/Include/core_cmInstr.h **** /** \brief  LDR Exclusive (32 bit)
 543:Drivers/CMSIS/Include/core_cmInstr.h **** 
 544:Drivers/CMSIS/Include/core_cmInstr.h ****     This function performs a exclusive LDR command for 32 bit values.
 545:Drivers/CMSIS/Include/core_cmInstr.h **** 
 546:Drivers/CMSIS/Include/core_cmInstr.h ****     \param [in]    ptr  Pointer to data
 547:Drivers/CMSIS/Include/core_cmInstr.h ****     \return        value of type uint32_t at (*ptr)
 548:Drivers/CMSIS/Include/core_cmInstr.h ****  */
 549:Drivers/CMSIS/Include/core_cmInstr.h **** __attribute__( ( always_inline ) ) __STATIC_INLINE uint32_t __LDREXW(volatile uint32_t *addr)
 550:Drivers/CMSIS/Include/core_cmInstr.h **** {
 551:Drivers/CMSIS/Include/core_cmInstr.h ****     uint32_t result;
 552:Drivers/CMSIS/Include/core_cmInstr.h **** 
 553:Drivers/CMSIS/Include/core_cmInstr.h ****    __ASM volatile ("ldrex %0, %1" : "=r" (result) : "Q" (*addr) );
 554:Drivers/CMSIS/Include/core_cmInstr.h ****    return(result);
 555:Drivers/CMSIS/Include/core_cmInstr.h **** }
 556:Drivers/CMSIS/Include/core_cmInstr.h **** 
 557:Drivers/CMSIS/Include/core_cmInstr.h **** 
 558:Drivers/CMSIS/Include/core_cmInstr.h **** /** \brief  STR Exclusive (8 bit)
 559:Drivers/CMSIS/Include/core_cmInstr.h **** 
 560:Drivers/CMSIS/Include/core_cmInstr.h ****     This function performs a exclusive STR command for 8 bit values.
 561:Drivers/CMSIS/Include/core_cmInstr.h **** 
 562:Drivers/CMSIS/Include/core_cmInstr.h ****     \param [in]  value  Value to store
 563:Drivers/CMSIS/Include/core_cmInstr.h ****     \param [in]    ptr  Pointer to location
 564:Drivers/CMSIS/Include/core_cmInstr.h ****     \return          0  Function succeeded
 565:Drivers/CMSIS/Include/core_cmInstr.h ****     \return          1  Function failed
 566:Drivers/CMSIS/Include/core_cmInstr.h ****  */
 567:Drivers/CMSIS/Include/core_cmInstr.h **** __attribute__( ( always_inline ) ) __STATIC_INLINE uint32_t __STREXB(uint8_t value, volatile uint8_
 568:Drivers/CMSIS/Include/core_cmInstr.h **** {
 569:Drivers/CMSIS/Include/core_cmInstr.h ****    uint32_t result;
 570:Drivers/CMSIS/Include/core_cmInstr.h **** 
 571:Drivers/CMSIS/Include/core_cmInstr.h ****    __ASM volatile ("strexb %0, %2, %1" : "=&r" (result), "=Q" (*addr) : "r" (value) );
 572:Drivers/CMSIS/Include/core_cmInstr.h ****    return(result);
 573:Drivers/CMSIS/Include/core_cmInstr.h **** }
 574:Drivers/CMSIS/Include/core_cmInstr.h **** 
 575:Drivers/CMSIS/Include/core_cmInstr.h **** 
 576:Drivers/CMSIS/Include/core_cmInstr.h **** /** \brief  STR Exclusive (16 bit)
 577:Drivers/CMSIS/Include/core_cmInstr.h **** 
 578:Drivers/CMSIS/Include/core_cmInstr.h ****     This function performs a exclusive STR command for 16 bit values.
 579:Drivers/CMSIS/Include/core_cmInstr.h **** 
 580:Drivers/CMSIS/Include/core_cmInstr.h ****     \param [in]  value  Value to store
 581:Drivers/CMSIS/Include/core_cmInstr.h ****     \param [in]    ptr  Pointer to location
 582:Drivers/CMSIS/Include/core_cmInstr.h ****     \return          0  Function succeeded
 583:Drivers/CMSIS/Include/core_cmInstr.h ****     \return          1  Function failed
 584:Drivers/CMSIS/Include/core_cmInstr.h ****  */
 585:Drivers/CMSIS/Include/core_cmInstr.h **** __attribute__( ( always_inline ) ) __STATIC_INLINE uint32_t __STREXH(uint16_t value, volatile uint1
 586:Drivers/CMSIS/Include/core_cmInstr.h **** {
 587:Drivers/CMSIS/Include/core_cmInstr.h ****    uint32_t result;
 588:Drivers/CMSIS/Include/core_cmInstr.h **** 
ARM GAS  /tmp/ccn09EVD.s 			page 18


 589:Drivers/CMSIS/Include/core_cmInstr.h ****    __ASM volatile ("strexh %0, %2, %1" : "=&r" (result), "=Q" (*addr) : "r" (value) );
 590:Drivers/CMSIS/Include/core_cmInstr.h ****    return(result);
 591:Drivers/CMSIS/Include/core_cmInstr.h **** }
 592:Drivers/CMSIS/Include/core_cmInstr.h **** 
 593:Drivers/CMSIS/Include/core_cmInstr.h **** 
 594:Drivers/CMSIS/Include/core_cmInstr.h **** /** \brief  STR Exclusive (32 bit)
 595:Drivers/CMSIS/Include/core_cmInstr.h **** 
 596:Drivers/CMSIS/Include/core_cmInstr.h ****     This function performs a exclusive STR command for 32 bit values.
 597:Drivers/CMSIS/Include/core_cmInstr.h **** 
 598:Drivers/CMSIS/Include/core_cmInstr.h ****     \param [in]  value  Value to store
 599:Drivers/CMSIS/Include/core_cmInstr.h ****     \param [in]    ptr  Pointer to location
 600:Drivers/CMSIS/Include/core_cmInstr.h ****     \return          0  Function succeeded
 601:Drivers/CMSIS/Include/core_cmInstr.h ****     \return          1  Function failed
 602:Drivers/CMSIS/Include/core_cmInstr.h ****  */
 603:Drivers/CMSIS/Include/core_cmInstr.h **** __attribute__( ( always_inline ) ) __STATIC_INLINE uint32_t __STREXW(uint32_t value, volatile uint3
 604:Drivers/CMSIS/Include/core_cmInstr.h **** {
 605:Drivers/CMSIS/Include/core_cmInstr.h ****    uint32_t result;
 606:Drivers/CMSIS/Include/core_cmInstr.h **** 
 607:Drivers/CMSIS/Include/core_cmInstr.h ****    __ASM volatile ("strex %0, %2, %1" : "=&r" (result), "=Q" (*addr) : "r" (value) );
 608:Drivers/CMSIS/Include/core_cmInstr.h ****    return(result);
 609:Drivers/CMSIS/Include/core_cmInstr.h **** }
 610:Drivers/CMSIS/Include/core_cmInstr.h **** 
 611:Drivers/CMSIS/Include/core_cmInstr.h **** 
 612:Drivers/CMSIS/Include/core_cmInstr.h **** /** \brief  Remove the exclusive lock
 613:Drivers/CMSIS/Include/core_cmInstr.h **** 
 614:Drivers/CMSIS/Include/core_cmInstr.h ****     This function removes the exclusive lock which is created by LDREX.
 615:Drivers/CMSIS/Include/core_cmInstr.h **** 
 616:Drivers/CMSIS/Include/core_cmInstr.h ****  */
 617:Drivers/CMSIS/Include/core_cmInstr.h **** __attribute__( ( always_inline ) ) __STATIC_INLINE void __CLREX(void)
 618:Drivers/CMSIS/Include/core_cmInstr.h **** {
 619:Drivers/CMSIS/Include/core_cmInstr.h ****   __ASM volatile ("clrex" ::: "memory");
 620:Drivers/CMSIS/Include/core_cmInstr.h **** }
 621:Drivers/CMSIS/Include/core_cmInstr.h **** 
 622:Drivers/CMSIS/Include/core_cmInstr.h **** 
 623:Drivers/CMSIS/Include/core_cmInstr.h **** /** \brief  Signed Saturate
 624:Drivers/CMSIS/Include/core_cmInstr.h **** 
 625:Drivers/CMSIS/Include/core_cmInstr.h ****     This function saturates a signed value.
 626:Drivers/CMSIS/Include/core_cmInstr.h **** 
 627:Drivers/CMSIS/Include/core_cmInstr.h ****     \param [in]  value  Value to be saturated
 628:Drivers/CMSIS/Include/core_cmInstr.h ****     \param [in]    sat  Bit position to saturate to (1..32)
 629:Drivers/CMSIS/Include/core_cmInstr.h ****     \return             Saturated value
 630:Drivers/CMSIS/Include/core_cmInstr.h ****  */
 631:Drivers/CMSIS/Include/core_cmInstr.h **** #define __SSAT(ARG1,ARG2) \
 632:Drivers/CMSIS/Include/core_cmInstr.h **** ({                          \
 633:Drivers/CMSIS/Include/core_cmInstr.h ****   uint32_t __RES, __ARG1 = (ARG1); \
 634:Drivers/CMSIS/Include/core_cmInstr.h ****   __ASM ("ssat %0, %1, %2" : "=r" (__RES) :  "I" (ARG2), "r" (__ARG1) ); \
 635:Drivers/CMSIS/Include/core_cmInstr.h ****   __RES; \
 636:Drivers/CMSIS/Include/core_cmInstr.h ****  })
 637:Drivers/CMSIS/Include/core_cmInstr.h **** 
 638:Drivers/CMSIS/Include/core_cmInstr.h **** 
 639:Drivers/CMSIS/Include/core_cmInstr.h **** /** \brief  Unsigned Saturate
 640:Drivers/CMSIS/Include/core_cmInstr.h **** 
 641:Drivers/CMSIS/Include/core_cmInstr.h ****     This function saturates an unsigned value.
 642:Drivers/CMSIS/Include/core_cmInstr.h **** 
 643:Drivers/CMSIS/Include/core_cmInstr.h ****     \param [in]  value  Value to be saturated
 644:Drivers/CMSIS/Include/core_cmInstr.h ****     \param [in]    sat  Bit position to saturate to (0..31)
 645:Drivers/CMSIS/Include/core_cmInstr.h ****     \return             Saturated value
ARM GAS  /tmp/ccn09EVD.s 			page 19


 646:Drivers/CMSIS/Include/core_cmInstr.h ****  */
 647:Drivers/CMSIS/Include/core_cmInstr.h **** #define __USAT(ARG1,ARG2) \
 648:Drivers/CMSIS/Include/core_cmInstr.h **** ({                          \
 649:Drivers/CMSIS/Include/core_cmInstr.h ****   uint32_t __RES, __ARG1 = (ARG1); \
 650:Drivers/CMSIS/Include/core_cmInstr.h ****   __ASM ("usat %0, %1, %2" : "=r" (__RES) :  "I" (ARG2), "r" (__ARG1) ); \
 651:Drivers/CMSIS/Include/core_cmInstr.h ****   __RES; \
 652:Drivers/CMSIS/Include/core_cmInstr.h ****  })
 653:Drivers/CMSIS/Include/core_cmInstr.h **** 
 654:Drivers/CMSIS/Include/core_cmInstr.h **** 
 655:Drivers/CMSIS/Include/core_cmInstr.h **** /** \brief  Count leading zeros
 656:Drivers/CMSIS/Include/core_cmInstr.h **** 
 657:Drivers/CMSIS/Include/core_cmInstr.h ****     This function counts the number of leading zeros of a data value.
 658:Drivers/CMSIS/Include/core_cmInstr.h **** 
 659:Drivers/CMSIS/Include/core_cmInstr.h ****     \param [in]  value  Value to count the leading zeros
 660:Drivers/CMSIS/Include/core_cmInstr.h ****     \return             number of leading zeros in value
 661:Drivers/CMSIS/Include/core_cmInstr.h ****  */
 662:Drivers/CMSIS/Include/core_cmInstr.h **** __attribute__( ( always_inline ) ) __STATIC_INLINE uint8_t __CLZ(uint32_t value)
 663:Drivers/CMSIS/Include/core_cmInstr.h **** {
 664:Drivers/CMSIS/Include/core_cmInstr.h ****    uint32_t result;
 665:Drivers/CMSIS/Include/core_cmInstr.h **** 
 666:Drivers/CMSIS/Include/core_cmInstr.h ****   __ASM volatile ("clz %0, %1" : "=r" (result) : "r" (value) );
 133              		.loc 2 666 0
 134 0074 7B69     		ldr	r3, [r7, #20]	@ tmp176, value
 135              	@ 666 "Drivers/CMSIS/Include/core_cmInstr.h" 1
 136 0076 B3FA83F4 		clz r4, r3	@ result, tmp176
 137              	@ 0 "" 2
 138              		.thumb
 139 007a 3C61     		str	r4, [r7, #16]	@ result, result
 140              	.LBE520:
 141              	.LBE519:
 142              	.LBE518:
 250:Drivers/STM32L1xx_HAL_Driver/stm32l1xx_hal_rcc.cpp ****   
 251:Drivers/STM32L1xx_HAL_Driver/stm32l1xx_hal_rcc.cpp ****   /* Set MSIClockRange & MSITRIM[4:0] bits to the reset value */
 252:Drivers/STM32L1xx_HAL_Driver/stm32l1xx_hal_rcc.cpp ****   MODIFY_REG(RCC->ICSCR, (RCC_ICSCR_MSIRANGE | RCC_ICSCR_MSITRIM), (((uint32_t)0 << POSITION_VAL(RC
 143              		.loc 1 252 0
 144 007c 4FF46053 		mov	r3, #14336	@ D.7349,
 145 0080 C4F20203 		movt	r3, 16386	@ D.7349,
 146 0084 4FF46052 		mov	r2, #14336	@ D.7350,
 147 0088 C4F20202 		movt	r2, 16386	@ D.7350,
 148 008c 5268     		ldr	r2, [r2, #4]	@ D.7351, D.7350_16->ICSCR
 149 008e 22F07F42 		bic	r2, r2, #-16777216	@ D.7352, D.7351,
 150 0092 22F46042 		bic	r2, r2, #57344	@ D.7352, D.7352,
 151 0096 42F42042 		orr	r2, r2, #40960	@ D.7353, D.7352,
 152 009a 5A60     		str	r2, [r3, #4]	@ D.7353, D.7349_15->ICSCR
 253:Drivers/STM32L1xx_HAL_Driver/stm32l1xx_hal_rcc.cpp ****   
 254:Drivers/STM32L1xx_HAL_Driver/stm32l1xx_hal_rcc.cpp ****   /* Set HSITRIM bits to the reset value */
 255:Drivers/STM32L1xx_HAL_Driver/stm32l1xx_hal_rcc.cpp ****   MODIFY_REG(RCC->ICSCR, RCC_ICSCR_HSITRIM, ((uint32_t)0x10 << POSITION_VAL(RCC_ICSCR_HSITRIM)));
 153              		.loc 1 255 0
 154 009c 4FF46053 		mov	r3, #14336	@ D.7354,
 155 00a0 C4F20203 		movt	r3, 16386	@ D.7354,
 156 00a4 4FF46052 		mov	r2, #14336	@ D.7355,
 157 00a8 C4F20202 		movt	r2, 16386	@ D.7355,
 158 00ac 5268     		ldr	r2, [r2, #4]	@ D.7356, D.7355_21->ICSCR
 159 00ae 22F4F851 		bic	r1, r2, #7936	@ D.7357, D.7356,
 160 00b2 4FF4F852 		mov	r2, #7936	@ tmp178,
 161 00b6 FA60     		str	r2, [r7, #12]	@ tmp178, value
 162              	.LBB521:
ARM GAS  /tmp/ccn09EVD.s 			page 20


 163              	.LBB522:
 164              	.LBB523:
 491:Drivers/CMSIS/Include/core_cmInstr.h ****    __ASM volatile ("rbit %0, %1" : "=r" (result) : "r" (value) );
 165              		.loc 2 491 0
 166 00b8 FA68     		ldr	r2, [r7, #12]	@ tmp180, value
 167              	@ 491 "Drivers/CMSIS/Include/core_cmInstr.h" 1
 168 00ba 92FAA2F4 		rbit r4, r2	@ result, tmp180
 169              	@ 0 "" 2
 170              		.thumb
 171 00be BC60     		str	r4, [r7, #8]	@ result, result
 492:Drivers/CMSIS/Include/core_cmInstr.h ****    return(result);
 172              		.loc 2 492 0
 173 00c0 BA68     		ldr	r2, [r7, #8]	@ D.7380, result
 174 00c2 7A60     		str	r2, [r7, #4]	@ D.7358, value
 175              	.LBE523:
 176              	.LBE522:
 177              	.LBE521:
 178              	.LBB524:
 179              	.LBB525:
 180              	.LBB526:
 181              		.loc 2 666 0
 182 00c4 7A68     		ldr	r2, [r7, #4]	@ tmp182, value
 183              	@ 666 "Drivers/CMSIS/Include/core_cmInstr.h" 1
 184 00c6 B2FA82F4 		clz r4, r2	@ result, tmp182
 185              	@ 0 "" 2
 186              		.thumb
 187 00ca 3C60     		str	r4, [r7, #0]	@ result, result
 667:Drivers/CMSIS/Include/core_cmInstr.h ****   return(result);
 188              		.loc 2 667 0
 189 00cc 3A68     		ldr	r2, [r7, #0]	@ tmp183, result
 190 00ce D2B2     		uxtb	r2, r2	@ D.7385, tmp183
 191              	.LBE526:
 192              	.LBE525:
 193              	.LBE524:
 194              		.loc 1 255 0
 195 00d0 4FF01000 		mov	r0, #16	@ tmp184,
 196 00d4 00FA02F2 		lsl	r2, r0, r2	@ D.7361, tmp184, D.7360
 197 00d8 0A43     		orrs	r2, r2, r1	@, D.7362, D.7361, D.7357
 198 00da 5A60     		str	r2, [r3, #4]	@ D.7362, D.7354_20->ICSCR
 256:Drivers/STM32L1xx_HAL_Driver/stm32l1xx_hal_rcc.cpp ****   
 257:Drivers/STM32L1xx_HAL_Driver/stm32l1xx_hal_rcc.cpp ****   /* Disable all interrupts */
 258:Drivers/STM32L1xx_HAL_Driver/stm32l1xx_hal_rcc.cpp ****   CLEAR_REG(RCC->CIR);
 199              		.loc 1 258 0
 200 00dc 4FF46053 		mov	r3, #14336	@ D.7363,
 201 00e0 C4F20203 		movt	r3, 16386	@ D.7363,
 202 00e4 4FF00002 		mov	r2, #0	@ tmp185,
 203 00e8 DA60     		str	r2, [r3, #12]	@ tmp185, D.7363_29->CIR
 259:Drivers/STM32L1xx_HAL_Driver/stm32l1xx_hal_rcc.cpp **** }
 204              		.loc 1 259 0
 205 00ea 07F12007 		add	r7, r7, #32	@,,
 206 00ee BD46     		mov	sp, r7
 207 00f0 90BC     		pop	{r4, r7}
 208 00f2 7047     		bx	lr
 209              		.cfi_endproc
 210              	.LFE56:
 211              		.size	HAL_RCC_DeInit, .-HAL_RCC_DeInit
 212              		.section	.text.HAL_RCC_OscConfig,"ax",%progbits
ARM GAS  /tmp/ccn09EVD.s 			page 21


 213              		.align	2
 214              		.global	HAL_RCC_OscConfig
 215              		.thumb
 216              		.thumb_func
 217              		.type	HAL_RCC_OscConfig, %function
 218              	HAL_RCC_OscConfig:
 219              	.LFB57:
 260:Drivers/STM32L1xx_HAL_Driver/stm32l1xx_hal_rcc.cpp **** 
 261:Drivers/STM32L1xx_HAL_Driver/stm32l1xx_hal_rcc.cpp **** /**
 262:Drivers/STM32L1xx_HAL_Driver/stm32l1xx_hal_rcc.cpp ****   * @brief  Initializes the RCC Oscillators according to the specified parameters in the
 263:Drivers/STM32L1xx_HAL_Driver/stm32l1xx_hal_rcc.cpp ****   *         RCC_OscInitTypeDef.
 264:Drivers/STM32L1xx_HAL_Driver/stm32l1xx_hal_rcc.cpp ****   * @param  RCC_OscInitStruct: pointer to an RCC_OscInitTypeDef structure that
 265:Drivers/STM32L1xx_HAL_Driver/stm32l1xx_hal_rcc.cpp ****   *         contains the configuration information for the RCC Oscillators.
 266:Drivers/STM32L1xx_HAL_Driver/stm32l1xx_hal_rcc.cpp ****   * @note   The PLL is not disabled when used as system clock.
 267:Drivers/STM32L1xx_HAL_Driver/stm32l1xx_hal_rcc.cpp ****   * @retval HAL status
 268:Drivers/STM32L1xx_HAL_Driver/stm32l1xx_hal_rcc.cpp ****   */
 269:Drivers/STM32L1xx_HAL_Driver/stm32l1xx_hal_rcc.cpp **** HAL_StatusTypeDef HAL_RCC_OscConfig(RCC_OscInitTypeDef  *RCC_OscInitStruct)
 270:Drivers/STM32L1xx_HAL_Driver/stm32l1xx_hal_rcc.cpp **** {
 220              		.loc 1 270 0
 221              		.cfi_startproc
 222              		@ args = 0, pretend = 0, frame = 928
 223              		@ frame_needed = 1, uses_anonymous_args = 0
 224 0000 90B5     		push	{r4, r7, lr}	@
 225              	.LCFI3:
 226              		.cfi_def_cfa_offset 12
 227              		.cfi_offset 4, -12
 228              		.cfi_offset 7, -8
 229              		.cfi_offset 14, -4
 230 0002 ADF5697D 		sub	sp, sp, #932	@,,
 231              	.LCFI4:
 232              		.cfi_def_cfa_offset 944
 233 0006 00AF     		add	r7, sp, #0	@,,
 234              	.LCFI5:
 235              		.cfi_def_cfa_register 7
 236 0008 07F10403 		add	r3, r7, #4	@ tmp929,,
 237 000c 1860     		str	r0, [r3, #0]	@ RCC_OscInitStruct, RCC_OscInitStruct
 238              	.LBB527:
 271:Drivers/STM32L1xx_HAL_Driver/stm32l1xx_hal_rcc.cpp ****    uint32_t tickstart = 0;
 239              		.loc 1 271 0
 240 000e 4FF00003 		mov	r3, #0	@ tmp930,
 241 0012 C7F89C33 		str	r3, [r7, #924]	@ tmp930, tickstart
 272:Drivers/STM32L1xx_HAL_Driver/stm32l1xx_hal_rcc.cpp ****   
 273:Drivers/STM32L1xx_HAL_Driver/stm32l1xx_hal_rcc.cpp ****   /* Check the parameters */
 274:Drivers/STM32L1xx_HAL_Driver/stm32l1xx_hal_rcc.cpp ****   assert_param(IS_RCC_OSCILLATORTYPE(RCC_OscInitStruct->OscillatorType));
 275:Drivers/STM32L1xx_HAL_Driver/stm32l1xx_hal_rcc.cpp ****   
 276:Drivers/STM32L1xx_HAL_Driver/stm32l1xx_hal_rcc.cpp ****   /*------------------------------- HSE Configuration ------------------------*/ 
 277:Drivers/STM32L1xx_HAL_Driver/stm32l1xx_hal_rcc.cpp ****   if(((RCC_OscInitStruct->OscillatorType) & RCC_OSCILLATORTYPE_HSE) == RCC_OSCILLATORTYPE_HSE)
 242              		.loc 1 277 0
 243 0016 07F10403 		add	r3, r7, #4	@ tmp933,,
 244 001a 1B68     		ldr	r3, [r3, #0]	@ tmp931, RCC_OscInitStruct
 245 001c 1B68     		ldr	r3, [r3, #0]	@ D.6515, RCC_OscInitStruct_26(D)->OscillatorType
 246 001e 03F00103 		and	r3, r3, #1	@ D.6516, D.6515,
 247 0022 002B     		cmp	r3, #0	@ D.6516,
 248 0024 00F0C381 		beq	.L7	@,
 278:Drivers/STM32L1xx_HAL_Driver/stm32l1xx_hal_rcc.cpp ****   {
 279:Drivers/STM32L1xx_HAL_Driver/stm32l1xx_hal_rcc.cpp ****     /* Check the parameters */
 280:Drivers/STM32L1xx_HAL_Driver/stm32l1xx_hal_rcc.cpp ****     assert_param(IS_RCC_HSE(RCC_OscInitStruct->HSEState));
ARM GAS  /tmp/ccn09EVD.s 			page 22


 281:Drivers/STM32L1xx_HAL_Driver/stm32l1xx_hal_rcc.cpp ****     /* When the HSE is used as system clock or clock source for PLL in these cases it is not allowe
 282:Drivers/STM32L1xx_HAL_Driver/stm32l1xx_hal_rcc.cpp ****     if((__HAL_RCC_GET_SYSCLK_SOURCE() == RCC_CFGR_SWS_HSE) 
 249              		.loc 1 282 0
 250 0028 4FF46053 		mov	r3, #14336	@ D.6524,
 251 002c C4F20203 		movt	r3, 16386	@ D.6524,
 252 0030 9B68     		ldr	r3, [r3, #8]	@ D.6525, D.6524_29->CFGR
 253 0032 03F00C03 		and	r3, r3, #12	@ D.6526, D.6525,
 254 0036 082B     		cmp	r3, #8	@ D.6526,
 255 0038 11D0     		beq	.L8	@,
 256              		.loc 1 282 0 is_stmt 0 discriminator 2
 257 003a 4FF46053 		mov	r3, #14336	@ D.6528,
 258 003e C4F20203 		movt	r3, 16386	@ D.6528,
 259 0042 9B68     		ldr	r3, [r3, #8]	@ D.6529, D.6528_32->CFGR
 260 0044 03F00C03 		and	r3, r3, #12	@ D.6530, D.6529,
 261 0048 0C2B     		cmp	r3, #12	@ D.6530,
 262 004a 0BD1     		bne	.L9	@,
 263              		.loc 1 282 0 discriminator 3
 264 004c 4FF46053 		mov	r3, #14336	@ D.6532,
 265 0050 C4F20203 		movt	r3, 16386	@ D.6532,
 266 0054 9B68     		ldr	r3, [r3, #8]	@ D.6533, D.6532_35->CFGR
 267 0056 03F48033 		and	r3, r3, #65536	@ D.6534, D.6533,
 268 005a 002B     		cmp	r3, #0	@ D.6534,
 269 005c 02D0     		beq	.L9	@,
 270              	.L8:
 271              		.loc 1 282 0 discriminator 1
 272 005e 4FF00103 		mov	r3, #1	@ iftmp.47,
 273 0062 01E0     		b	.L10	@
 274              	.L9:
 275              		.loc 1 282 0 discriminator 4
 276 0064 4FF00003 		mov	r3, #0	@ iftmp.47,
 277              	.L10:
 278              		.loc 1 282 0 discriminator 5
 279 0068 002B     		cmp	r3, #0	@ retval.46,
 280 006a 59D0     		beq	.L11	@,
 281 006c 4FF40033 		mov	r3, #131072	@ tmp934,
 282 0070 C7F89833 		str	r3, [r7, #920]	@ tmp934, value
 283              	.LBB528:
 284              	.LBB529:
 285              	.LBB530:
 491:Drivers/CMSIS/Include/core_cmInstr.h ****    __ASM volatile ("rbit %0, %1" : "=r" (result) : "r" (value) );
 286              		.loc 2 491 0 is_stmt 1
 287 0074 D7F89833 		ldr	r3, [r7, #920]	@ tmp936, value
 288              	@ 491 "Drivers/CMSIS/Include/core_cmInstr.h" 1
 289 0078 93FAA3F4 		rbit r4, r3	@ result, tmp936
 290              	@ 0 "" 2
 291              		.thumb
 292 007c C7F89443 		str	r4, [r7, #916]	@ result, result
 492:Drivers/CMSIS/Include/core_cmInstr.h ****    return(result);
 293              		.loc 2 492 0
 294 0080 D7F89433 		ldr	r3, [r7, #916]	@ D.7391, result
 295 0084 C7F89033 		str	r3, [r7, #912]	@ D.6542, value
 296              	.LBE530:
 297              	.LBE529:
 298              	.LBE528:
 299              	.LBB531:
 300              	.LBB532:
 301              	.LBB533:
ARM GAS  /tmp/ccn09EVD.s 			page 23


 666:Drivers/CMSIS/Include/core_cmInstr.h ****   __ASM volatile ("clz %0, %1" : "=r" (result) : "r" (value) );
 302              		.loc 2 666 0
 303 0088 D7F89033 		ldr	r3, [r7, #912]	@ tmp938, value
 304              	@ 666 "Drivers/CMSIS/Include/core_cmInstr.h" 1
 305 008c B3FA83F4 		clz r4, r3	@ result, tmp938
 306              	@ 0 "" 2
 307              		.thumb
 308 0090 C7F88C43 		str	r4, [r7, #908]	@ result, result
 309              		.loc 2 667 0
 310 0094 D7F88C33 		ldr	r3, [r7, #908]	@ tmp939, result
 311 0098 DBB2     		uxtb	r3, r3	@ D.7396, tmp939
 312              	.LBE533:
 313              	.LBE532:
 314              	.LBE531:
 283:Drivers/STM32L1xx_HAL_Driver/stm32l1xx_hal_rcc.cpp ****        || ((__HAL_RCC_GET_SYSCLK_SOURCE() == RCC_CFGR_SWS_PLL) && (__HAL_RCC_GET_PLL_OSCSOURCE() ==
 284:Drivers/STM32L1xx_HAL_Driver/stm32l1xx_hal_rcc.cpp ****     {
 285:Drivers/STM32L1xx_HAL_Driver/stm32l1xx_hal_rcc.cpp ****       if((__HAL_RCC_GET_FLAG(RCC_FLAG_HSERDY) != RESET) && (RCC_OscInitStruct->HSEState != RCC_HSE_
 315              		.loc 1 285 0
 316 009a 43F02003 		orr	r3, r3, #32	@ tmp940, D.6543,
 317 009e DBB2     		uxtb	r3, r3	@ D.6544, tmp940
 318 00a0 4FEA6313 		asr	r3, r3, #5	@ D.6546, D.6545,
 319 00a4 012B     		cmp	r3, #1	@ D.6546,
 320 00a6 05D1     		bne	.L14	@,
 321              		.loc 1 285 0 is_stmt 0 discriminator 1
 322 00a8 4FF46053 		mov	r3, #14336	@ D.6549,
 323 00ac C4F20203 		movt	r3, 16386	@ D.6549,
 324 00b0 1B68     		ldr	r3, [r3, #0]	@ iftmp.50, D.6549_46->CR
 325 00b2 04E0     		b	.L15	@
 326              	.L14:
 327              		.loc 1 285 0 discriminator 2
 328 00b4 4FF46053 		mov	r3, #14336	@ D.6551,
 329 00b8 C4F20203 		movt	r3, 16386	@ D.6551,
 330 00bc 5B6B     		ldr	r3, [r3, #52]	@ iftmp.50, D.6551_48->CSR
 331              	.L15:
 332 00be 4FF40032 		mov	r2, #131072	@ tmp941,
 333 00c2 C7F88823 		str	r2, [r7, #904]	@ tmp941, value
 334              	.LBB534:
 335              	.LBB535:
 336              	.LBB536:
 491:Drivers/CMSIS/Include/core_cmInstr.h ****    __ASM volatile ("rbit %0, %1" : "=r" (result) : "r" (value) );
 337              		.loc 2 491 0 is_stmt 1 discriminator 3
 338 00c6 D7F88823 		ldr	r2, [r7, #904]	@ tmp943, value
 339              	@ 491 "Drivers/CMSIS/Include/core_cmInstr.h" 1
 340 00ca 92FAA2F4 		rbit r4, r2	@ result, tmp943
 341              	@ 0 "" 2
 342              		.thumb
 343 00ce C7F88443 		str	r4, [r7, #900]	@ result, result
 492:Drivers/CMSIS/Include/core_cmInstr.h ****    return(result);
 344              		.loc 2 492 0 discriminator 3
 345 00d2 D7F88423 		ldr	r2, [r7, #900]	@ D.7401, result
 346 00d6 C7F88023 		str	r2, [r7, #896]	@ D.6552, value
 347              	.LBE536:
 348              	.LBE535:
 349              	.LBE534:
 350              	.LBB537:
 351              	.LBB538:
 352              	.LBB539:
ARM GAS  /tmp/ccn09EVD.s 			page 24


 666:Drivers/CMSIS/Include/core_cmInstr.h ****   __ASM volatile ("clz %0, %1" : "=r" (result) : "r" (value) );
 353              		.loc 2 666 0 discriminator 3
 354 00da D7F88023 		ldr	r2, [r7, #896]	@ tmp945, value
 355              	@ 666 "Drivers/CMSIS/Include/core_cmInstr.h" 1
 356 00de B2FA82F4 		clz r4, r2	@ result, tmp945
 357              	@ 0 "" 2
 358              		.thumb
 359 00e2 C7F87C43 		str	r4, [r7, #892]	@ result, result
 360              		.loc 2 667 0 discriminator 3
 361 00e6 D7F87C23 		ldr	r2, [r7, #892]	@ tmp946, result
 362 00ea D2B2     		uxtb	r2, r2	@ D.7406, tmp946
 363              	.LBE539:
 364              	.LBE538:
 365              	.LBE537:
 366              		.loc 1 285 0 discriminator 3
 367 00ec 02F01F02 		and	r2, r2, #31	@ D.6555, D.6554,
 368 00f0 23FA02F3 		lsr	r3, r3, r2	@ D.6556, iftmp.50, D.6555
 369 00f4 03F00103 		and	r3, r3, #1	@ D.6557, D.6556,
 370 00f8 002B     		cmp	r3, #0	@ D.6557,
 371 00fa 08D0     		beq	.L18	@,
 372              		.loc 1 285 0 is_stmt 0 discriminator 4
 373 00fc 07F10403 		add	r3, r7, #4	@ tmp949,,
 374 0100 1B68     		ldr	r3, [r3, #0]	@ tmp947, RCC_OscInitStruct
 375 0102 5B68     		ldr	r3, [r3, #4]	@ D.6559, RCC_OscInitStruct_26(D)->HSEState
 376 0104 012B     		cmp	r3, #1	@ D.6559,
 377 0106 02D0     		beq	.L18	@,
 378              		.loc 1 285 0 discriminator 6
 379 0108 4FF00103 		mov	r3, #1	@ iftmp.49,
 380 010c 01E0     		b	.L19	@
 381              	.L18:
 382              		.loc 1 285 0 discriminator 5
 383 010e 4FF00003 		mov	r3, #0	@ iftmp.49,
 384              	.L19:
 385              		.loc 1 285 0 discriminator 7
 386 0112 002B     		cmp	r3, #0	@ retval.48,
 387 0114 00F04B81 		beq	.L7	@,
 286:Drivers/STM32L1xx_HAL_Driver/stm32l1xx_hal_rcc.cpp ****       {
 287:Drivers/STM32L1xx_HAL_Driver/stm32l1xx_hal_rcc.cpp ****         return HAL_ERROR;
 388              		.loc 1 287 0 is_stmt 1
 389 0118 4FF00103 		mov	r3, #1	@ D.6563,
 390 011c 01F001BC 		b	.L20	@
 391              	.L11:
 288:Drivers/STM32L1xx_HAL_Driver/stm32l1xx_hal_rcc.cpp ****       }
 289:Drivers/STM32L1xx_HAL_Driver/stm32l1xx_hal_rcc.cpp ****     }
 290:Drivers/STM32L1xx_HAL_Driver/stm32l1xx_hal_rcc.cpp ****     else
 291:Drivers/STM32L1xx_HAL_Driver/stm32l1xx_hal_rcc.cpp ****     {
 292:Drivers/STM32L1xx_HAL_Driver/stm32l1xx_hal_rcc.cpp ****       /* Reset HSEON and HSEBYP bits before configuring the HSE --------------*/
 293:Drivers/STM32L1xx_HAL_Driver/stm32l1xx_hal_rcc.cpp ****       __HAL_RCC_HSE_CONFIG(RCC_HSE_OFF);
 392              		.loc 1 293 0
 393 0120 43F60203 		movw	r3, #14338	@ D.6565,
 394 0124 C4F20203 		movt	r3, 16386	@ D.6565,
 395 0128 4FF00002 		mov	r2, #0	@ tmp950,
 396 012c 1A70     		strb	r2, [r3, #0]	@ tmp951, *D.6565_61
 294:Drivers/STM32L1xx_HAL_Driver/stm32l1xx_hal_rcc.cpp ****       
 295:Drivers/STM32L1xx_HAL_Driver/stm32l1xx_hal_rcc.cpp ****       /* Get Start Tick*/
 296:Drivers/STM32L1xx_HAL_Driver/stm32l1xx_hal_rcc.cpp ****       tickstart = HAL_GetTick();
 397              		.loc 1 296 0
ARM GAS  /tmp/ccn09EVD.s 			page 25


 398 012e FFF7FEFF 		bl	HAL_GetTick	@
 399 0132 C7F89C03 		str	r0, [r7, #924]	@, tickstart
 297:Drivers/STM32L1xx_HAL_Driver/stm32l1xx_hal_rcc.cpp ****       
 298:Drivers/STM32L1xx_HAL_Driver/stm32l1xx_hal_rcc.cpp ****       /* Wait till HSE is disabled */  
 299:Drivers/STM32L1xx_HAL_Driver/stm32l1xx_hal_rcc.cpp ****       while(__HAL_RCC_GET_FLAG(RCC_FLAG_HSERDY) != RESET)
 400              		.loc 1 299 0
 401 0136 12E0     		b	.L21	@
 402              	.L28:
 300:Drivers/STM32L1xx_HAL_Driver/stm32l1xx_hal_rcc.cpp ****       {
 301:Drivers/STM32L1xx_HAL_Driver/stm32l1xx_hal_rcc.cpp ****         if((HAL_GetTick() - tickstart ) > HSE_TIMEOUT_VALUE)
 403              		.loc 1 301 0
 404 0138 FFF7FEFF 		bl	HAL_GetTick	@
 405 013c 0246     		mov	r2, r0	@ D.6588,
 406 013e D7F89C33 		ldr	r3, [r7, #924]	@ tmp952, tickstart
 407 0142 D21A     		subs	r2, r2, r3	@ D.6589, D.6588, tmp952
 408 0144 41F28833 		movw	r3, #5000	@ tmp955,
 409 0148 9A42     		cmp	r2, r3	@ D.6589, tmp955
 410 014a 94BF     		ite	ls	@
 411 014c 0023     		movls	r3, #0	@, tmp954
 412 014e 0123     		movhi	r3, #1	@, tmp954
 413 0150 DBB2     		uxtb	r3, r3	@ retval.53, tmp953
 414 0152 002B     		cmp	r3, #0	@ retval.53,
 415 0154 03D0     		beq	.L21	@,
 302:Drivers/STM32L1xx_HAL_Driver/stm32l1xx_hal_rcc.cpp ****         {
 303:Drivers/STM32L1xx_HAL_Driver/stm32l1xx_hal_rcc.cpp ****           return HAL_TIMEOUT;
 416              		.loc 1 303 0
 417 0156 4FF00303 		mov	r3, #3	@ D.6563,
 418 015a 01F0E2BB 		b	.L20	@
 419              	.L21:
 420 015e 4FF40033 		mov	r3, #131072	@ tmp956,
 421 0162 C7F87833 		str	r3, [r7, #888]	@ tmp956, value
 422              	.LBB540:
 423              	.LBB541:
 424              	.LBB542:
 491:Drivers/CMSIS/Include/core_cmInstr.h ****    __ASM volatile ("rbit %0, %1" : "=r" (result) : "r" (value) );
 425              		.loc 2 491 0 discriminator 1
 426 0166 D7F87833 		ldr	r3, [r7, #888]	@ tmp958, value
 427              	@ 491 "Drivers/CMSIS/Include/core_cmInstr.h" 1
 428 016a 93FAA3F4 		rbit r4, r3	@ result, tmp958
 429              	@ 0 "" 2
 430              		.thumb
 431 016e C7F87443 		str	r4, [r7, #884]	@ result, result
 492:Drivers/CMSIS/Include/core_cmInstr.h ****    return(result);
 432              		.loc 2 492 0 discriminator 1
 433 0172 D7F87433 		ldr	r3, [r7, #884]	@ D.7411, result
 434 0176 C7F87033 		str	r3, [r7, #880]	@ D.6571, value
 435              	.LBE542:
 436              	.LBE541:
 437              	.LBE540:
 438              	.LBB543:
 439              	.LBB544:
 440              	.LBB545:
 666:Drivers/CMSIS/Include/core_cmInstr.h ****   __ASM volatile ("clz %0, %1" : "=r" (result) : "r" (value) );
 441              		.loc 2 666 0 discriminator 1
 442 017a D7F87033 		ldr	r3, [r7, #880]	@ tmp960, value
 443              	@ 666 "Drivers/CMSIS/Include/core_cmInstr.h" 1
 444 017e B3FA83F4 		clz r4, r3	@ result, tmp960
ARM GAS  /tmp/ccn09EVD.s 			page 26


 445              	@ 0 "" 2
 446              		.thumb
 447 0182 C7F86C43 		str	r4, [r7, #876]	@ result, result
 448              		.loc 2 667 0 discriminator 1
 449 0186 D7F86C33 		ldr	r3, [r7, #876]	@ tmp961, result
 450 018a DBB2     		uxtb	r3, r3	@ D.7416, tmp961
 451              	.LBE545:
 452              	.LBE544:
 453              	.LBE543:
 299:Drivers/STM32L1xx_HAL_Driver/stm32l1xx_hal_rcc.cpp ****       while(__HAL_RCC_GET_FLAG(RCC_FLAG_HSERDY) != RESET)
 454              		.loc 1 299 0 discriminator 1
 455 018c 43F02003 		orr	r3, r3, #32	@ tmp962, D.6572,
 456 0190 DBB2     		uxtb	r3, r3	@ D.6573, tmp962
 457 0192 4FEA6313 		asr	r3, r3, #5	@ D.6575, D.6574,
 458 0196 012B     		cmp	r3, #1	@ D.6575,
 459 0198 05D1     		bne	.L24	@,
 299:Drivers/STM32L1xx_HAL_Driver/stm32l1xx_hal_rcc.cpp ****       while(__HAL_RCC_GET_FLAG(RCC_FLAG_HSERDY) != RESET)
 460              		.loc 1 299 0 is_stmt 0 discriminator 2
 461 019a 4FF46053 		mov	r3, #14336	@ D.6578,
 462 019e C4F20203 		movt	r3, 16386	@ D.6578,
 463 01a2 1B68     		ldr	r3, [r3, #0]	@ iftmp.52, D.6578_68->CR
 464 01a4 04E0     		b	.L25	@
 465              	.L24:
 299:Drivers/STM32L1xx_HAL_Driver/stm32l1xx_hal_rcc.cpp ****       while(__HAL_RCC_GET_FLAG(RCC_FLAG_HSERDY) != RESET)
 466              		.loc 1 299 0 discriminator 3
 467 01a6 4FF46053 		mov	r3, #14336	@ D.6580,
 468 01aa C4F20203 		movt	r3, 16386	@ D.6580,
 469 01ae 5B6B     		ldr	r3, [r3, #52]	@ iftmp.52, D.6580_70->CSR
 470              	.L25:
 471 01b0 4FF40032 		mov	r2, #131072	@ tmp963,
 472 01b4 C7F86823 		str	r2, [r7, #872]	@ tmp963, value
 473              	.LBB546:
 474              	.LBB547:
 475              	.LBB548:
 491:Drivers/CMSIS/Include/core_cmInstr.h ****    __ASM volatile ("rbit %0, %1" : "=r" (result) : "r" (value) );
 476              		.loc 2 491 0 is_stmt 1 discriminator 4
 477 01b8 D7F86823 		ldr	r2, [r7, #872]	@ tmp965, value
 478              	@ 491 "Drivers/CMSIS/Include/core_cmInstr.h" 1
 479 01bc 92FAA2F4 		rbit r4, r2	@ result, tmp965
 480              	@ 0 "" 2
 481              		.thumb
 482 01c0 C7F86443 		str	r4, [r7, #868]	@ result, result
 492:Drivers/CMSIS/Include/core_cmInstr.h ****    return(result);
 483              		.loc 2 492 0 discriminator 4
 484 01c4 D7F86423 		ldr	r2, [r7, #868]	@ D.7421, result
 485 01c8 C7F86023 		str	r2, [r7, #864]	@ D.6581, value
 486              	.LBE548:
 487              	.LBE547:
 488              	.LBE546:
 489              	.LBB549:
 490              	.LBB550:
 491              	.LBB551:
 666:Drivers/CMSIS/Include/core_cmInstr.h ****   __ASM volatile ("clz %0, %1" : "=r" (result) : "r" (value) );
 492              		.loc 2 666 0 discriminator 4
 493 01cc D7F86023 		ldr	r2, [r7, #864]	@ tmp967, value
 494              	@ 666 "Drivers/CMSIS/Include/core_cmInstr.h" 1
 495 01d0 B2FA82F4 		clz r4, r2	@ result, tmp967
ARM GAS  /tmp/ccn09EVD.s 			page 27


 496              	@ 0 "" 2
 497              		.thumb
 498 01d4 C7F85C43 		str	r4, [r7, #860]	@ result, result
 499              		.loc 2 667 0 discriminator 4
 500 01d8 D7F85C23 		ldr	r2, [r7, #860]	@ tmp968, result
 501 01dc D2B2     		uxtb	r2, r2	@ D.7426, tmp968
 502              	.LBE551:
 503              	.LBE550:
 504              	.LBE549:
 299:Drivers/STM32L1xx_HAL_Driver/stm32l1xx_hal_rcc.cpp ****       while(__HAL_RCC_GET_FLAG(RCC_FLAG_HSERDY) != RESET)
 505              		.loc 1 299 0 discriminator 4
 506 01de 02F01F02 		and	r2, r2, #31	@ D.6584, D.6583,
 507 01e2 23FA02F3 		lsr	r3, r3, r2	@ D.6585, iftmp.52, D.6584
 508 01e6 03F00103 		and	r3, r3, #1	@ D.6586, D.6585,
 509 01ea 002B     		cmp	r3, #0	@ D.6586,
 510 01ec 0CBF     		ite	eq	@
 511 01ee 0023     		moveq	r3, #0	@, tmp970
 512 01f0 0123     		movne	r3, #1	@, tmp970
 513 01f2 DBB2     		uxtb	r3, r3	@ retval.51, tmp969
 514 01f4 002B     		cmp	r3, #0	@ retval.51,
 515 01f6 9FD1     		bne	.L28	@,
 304:Drivers/STM32L1xx_HAL_Driver/stm32l1xx_hal_rcc.cpp ****         }
 305:Drivers/STM32L1xx_HAL_Driver/stm32l1xx_hal_rcc.cpp ****       }
 306:Drivers/STM32L1xx_HAL_Driver/stm32l1xx_hal_rcc.cpp ****       
 307:Drivers/STM32L1xx_HAL_Driver/stm32l1xx_hal_rcc.cpp ****       /* Set the new HSE configuration ---------------------------------------*/
 308:Drivers/STM32L1xx_HAL_Driver/stm32l1xx_hal_rcc.cpp ****       __HAL_RCC_HSE_CONFIG(RCC_OscInitStruct->HSEState);
 516              		.loc 1 308 0
 517 01f8 43F60203 		movw	r3, #14338	@ D.6592,
 518 01fc C4F20203 		movt	r3, 16386	@ D.6592,
 519 0200 07F10402 		add	r2, r7, #4	@ tmp973,,
 520 0204 1268     		ldr	r2, [r2, #0]	@ tmp971, RCC_OscInitStruct
 521 0206 5268     		ldr	r2, [r2, #4]	@ D.6593, RCC_OscInitStruct_26(D)->HSEState
 522 0208 D2B2     		uxtb	r2, r2	@ D.6594, D.6593
 523 020a 1A70     		strb	r2, [r3, #0]	@ tmp974, *D.6592_83
 309:Drivers/STM32L1xx_HAL_Driver/stm32l1xx_hal_rcc.cpp ****       
 310:Drivers/STM32L1xx_HAL_Driver/stm32l1xx_hal_rcc.cpp ****       /* Check the HSE State */
 311:Drivers/STM32L1xx_HAL_Driver/stm32l1xx_hal_rcc.cpp ****       if(RCC_OscInitStruct->HSEState != RCC_HSE_OFF)
 524              		.loc 1 311 0
 525 020c 07F10403 		add	r3, r7, #4	@ tmp977,,
 526 0210 1B68     		ldr	r3, [r3, #0]	@ tmp975, RCC_OscInitStruct
 527 0212 5B68     		ldr	r3, [r3, #4]	@ D.6595, RCC_OscInitStruct_26(D)->HSEState
 528 0214 002B     		cmp	r3, #0	@ D.6595,
 529 0216 65D0     		beq	.L29	@,
 312:Drivers/STM32L1xx_HAL_Driver/stm32l1xx_hal_rcc.cpp ****       {
 313:Drivers/STM32L1xx_HAL_Driver/stm32l1xx_hal_rcc.cpp ****         /* Get Start Tick*/
 314:Drivers/STM32L1xx_HAL_Driver/stm32l1xx_hal_rcc.cpp ****         tickstart = HAL_GetTick();
 530              		.loc 1 314 0
 531 0218 FFF7FEFF 		bl	HAL_GetTick	@
 532 021c C7F89C03 		str	r0, [r7, #924]	@, tickstart
 315:Drivers/STM32L1xx_HAL_Driver/stm32l1xx_hal_rcc.cpp ****         
 316:Drivers/STM32L1xx_HAL_Driver/stm32l1xx_hal_rcc.cpp ****         /* Wait till HSE is ready */  
 317:Drivers/STM32L1xx_HAL_Driver/stm32l1xx_hal_rcc.cpp ****         while(__HAL_RCC_GET_FLAG(RCC_FLAG_HSERDY) == RESET)
 533              		.loc 1 317 0
 534 0220 12E0     		b	.L30	@
 535              	.L37:
 318:Drivers/STM32L1xx_HAL_Driver/stm32l1xx_hal_rcc.cpp ****         {
 319:Drivers/STM32L1xx_HAL_Driver/stm32l1xx_hal_rcc.cpp ****           if((HAL_GetTick() - tickstart ) > HSE_TIMEOUT_VALUE)
ARM GAS  /tmp/ccn09EVD.s 			page 28


 536              		.loc 1 319 0
 537 0222 FFF7FEFF 		bl	HAL_GetTick	@
 538 0226 0246     		mov	r2, r0	@ D.6620,
 539 0228 D7F89C33 		ldr	r3, [r7, #924]	@ tmp978, tickstart
 540 022c D21A     		subs	r2, r2, r3	@ D.6621, D.6620, tmp978
 541 022e 41F28833 		movw	r3, #5000	@ tmp981,
 542 0232 9A42     		cmp	r2, r3	@ D.6621, tmp981
 543 0234 94BF     		ite	ls	@
 544 0236 0023     		movls	r3, #0	@, tmp980
 545 0238 0123     		movhi	r3, #1	@, tmp980
 546 023a DBB2     		uxtb	r3, r3	@ retval.56, tmp979
 547 023c 002B     		cmp	r3, #0	@ retval.56,
 548 023e 03D0     		beq	.L30	@,
 320:Drivers/STM32L1xx_HAL_Driver/stm32l1xx_hal_rcc.cpp ****           {
 321:Drivers/STM32L1xx_HAL_Driver/stm32l1xx_hal_rcc.cpp ****             return HAL_TIMEOUT;
 549              		.loc 1 321 0
 550 0240 4FF00303 		mov	r3, #3	@ D.6563,
 551 0244 01F06DBB 		b	.L20	@
 552              	.L30:
 553 0248 4FF40033 		mov	r3, #131072	@ tmp982,
 554 024c C7F85833 		str	r3, [r7, #856]	@ tmp982, value
 555              	.LBB552:
 556              	.LBB553:
 557              	.LBB554:
 491:Drivers/CMSIS/Include/core_cmInstr.h ****    __ASM volatile ("rbit %0, %1" : "=r" (result) : "r" (value) );
 558              		.loc 2 491 0 discriminator 1
 559 0250 D7F85833 		ldr	r3, [r7, #856]	@ tmp984, value
 560              	@ 491 "Drivers/CMSIS/Include/core_cmInstr.h" 1
 561 0254 93FAA3F4 		rbit r4, r3	@ result, tmp984
 562              	@ 0 "" 2
 563              		.thumb
 564 0258 C7F85443 		str	r4, [r7, #852]	@ result, result
 492:Drivers/CMSIS/Include/core_cmInstr.h ****    return(result);
 565              		.loc 2 492 0 discriminator 1
 566 025c D7F85433 		ldr	r3, [r7, #852]	@ D.7431, result
 567 0260 C7F85033 		str	r3, [r7, #848]	@ D.6603, value
 568              	.LBE554:
 569              	.LBE553:
 570              	.LBE552:
 571              	.LBB555:
 572              	.LBB556:
 573              	.LBB557:
 666:Drivers/CMSIS/Include/core_cmInstr.h ****   __ASM volatile ("clz %0, %1" : "=r" (result) : "r" (value) );
 574              		.loc 2 666 0 discriminator 1
 575 0264 D7F85033 		ldr	r3, [r7, #848]	@ tmp986, value
 576              	@ 666 "Drivers/CMSIS/Include/core_cmInstr.h" 1
 577 0268 B3FA83F4 		clz r4, r3	@ result, tmp986
 578              	@ 0 "" 2
 579              		.thumb
 580 026c C7F84C43 		str	r4, [r7, #844]	@ result, result
 581              		.loc 2 667 0 discriminator 1
 582 0270 D7F84C33 		ldr	r3, [r7, #844]	@ tmp987, result
 583 0274 DBB2     		uxtb	r3, r3	@ D.7436, tmp987
 584              	.LBE557:
 585              	.LBE556:
 586              	.LBE555:
 317:Drivers/STM32L1xx_HAL_Driver/stm32l1xx_hal_rcc.cpp ****         while(__HAL_RCC_GET_FLAG(RCC_FLAG_HSERDY) == RESET)
ARM GAS  /tmp/ccn09EVD.s 			page 29


 587              		.loc 1 317 0 discriminator 1
 588 0276 43F02003 		orr	r3, r3, #32	@ tmp988, D.6604,
 589 027a DBB2     		uxtb	r3, r3	@ D.6605, tmp988
 590 027c 4FEA6313 		asr	r3, r3, #5	@ D.6607, D.6606,
 591 0280 012B     		cmp	r3, #1	@ D.6607,
 592 0282 05D1     		bne	.L33	@,
 317:Drivers/STM32L1xx_HAL_Driver/stm32l1xx_hal_rcc.cpp ****         while(__HAL_RCC_GET_FLAG(RCC_FLAG_HSERDY) == RESET)
 593              		.loc 1 317 0 is_stmt 0 discriminator 2
 594 0284 4FF46053 		mov	r3, #14336	@ D.6610,
 595 0288 C4F20203 		movt	r3, 16386	@ D.6610,
 596 028c 1B68     		ldr	r3, [r3, #0]	@ iftmp.55, D.6610_93->CR
 597 028e 04E0     		b	.L34	@
 598              	.L33:
 317:Drivers/STM32L1xx_HAL_Driver/stm32l1xx_hal_rcc.cpp ****         while(__HAL_RCC_GET_FLAG(RCC_FLAG_HSERDY) == RESET)
 599              		.loc 1 317 0 discriminator 3
 600 0290 4FF46053 		mov	r3, #14336	@ D.6612,
 601 0294 C4F20203 		movt	r3, 16386	@ D.6612,
 602 0298 5B6B     		ldr	r3, [r3, #52]	@ iftmp.55, D.6612_95->CSR
 603              	.L34:
 604 029a 4FF40032 		mov	r2, #131072	@ tmp989,
 605 029e C7F84823 		str	r2, [r7, #840]	@ tmp989, value
 606              	.LBB558:
 607              	.LBB559:
 608              	.LBB560:
 491:Drivers/CMSIS/Include/core_cmInstr.h ****    __ASM volatile ("rbit %0, %1" : "=r" (result) : "r" (value) );
 609              		.loc 2 491 0 is_stmt 1 discriminator 4
 610 02a2 D7F84823 		ldr	r2, [r7, #840]	@ tmp991, value
 611              	@ 491 "Drivers/CMSIS/Include/core_cmInstr.h" 1
 612 02a6 92FAA2F4 		rbit r4, r2	@ result, tmp991
 613              	@ 0 "" 2
 614              		.thumb
 615 02aa C7F84443 		str	r4, [r7, #836]	@ result, result
 492:Drivers/CMSIS/Include/core_cmInstr.h ****    return(result);
 616              		.loc 2 492 0 discriminator 4
 617 02ae D7F84423 		ldr	r2, [r7, #836]	@ D.7441, result
 618 02b2 C7F84023 		str	r2, [r7, #832]	@ D.6613, value
 619              	.LBE560:
 620              	.LBE559:
 621              	.LBE558:
 622              	.LBB561:
 623              	.LBB562:
 624              	.LBB563:
 666:Drivers/CMSIS/Include/core_cmInstr.h ****   __ASM volatile ("clz %0, %1" : "=r" (result) : "r" (value) );
 625              		.loc 2 666 0 discriminator 4
 626 02b6 D7F84023 		ldr	r2, [r7, #832]	@ tmp993, value
 627              	@ 666 "Drivers/CMSIS/Include/core_cmInstr.h" 1
 628 02ba B2FA82F4 		clz r4, r2	@ result, tmp993
 629              	@ 0 "" 2
 630              		.thumb
 631 02be C7F83C43 		str	r4, [r7, #828]	@ result, result
 632              		.loc 2 667 0 discriminator 4
 633 02c2 D7F83C23 		ldr	r2, [r7, #828]	@ tmp994, result
 634 02c6 D2B2     		uxtb	r2, r2	@ D.7446, tmp994
 635              	.LBE563:
 636              	.LBE562:
 637              	.LBE561:
 317:Drivers/STM32L1xx_HAL_Driver/stm32l1xx_hal_rcc.cpp ****         while(__HAL_RCC_GET_FLAG(RCC_FLAG_HSERDY) == RESET)
ARM GAS  /tmp/ccn09EVD.s 			page 30


 638              		.loc 1 317 0 discriminator 4
 639 02c8 02F01F02 		and	r2, r2, #31	@ D.6616, D.6615,
 640 02cc 23FA02F3 		lsr	r3, r3, r2	@ D.6617, iftmp.55, D.6616
 641 02d0 03F00103 		and	r3, r3, #1	@ D.6618, D.6617,
 642 02d4 002B     		cmp	r3, #0	@ D.6618,
 643 02d6 14BF     		ite	ne	@
 644 02d8 0023     		movne	r3, #0	@, tmp996
 645 02da 0123     		moveq	r3, #1	@, tmp996
 646 02dc DBB2     		uxtb	r3, r3	@ retval.54, tmp995
 647 02de 002B     		cmp	r3, #0	@ retval.54,
 648 02e0 9FD1     		bne	.L37	@,
 317:Drivers/STM32L1xx_HAL_Driver/stm32l1xx_hal_rcc.cpp ****         while(__HAL_RCC_GET_FLAG(RCC_FLAG_HSERDY) == RESET)
 649              		.loc 1 317 0 is_stmt 0
 650 02e2 64E0     		b	.L7	@
 651              	.L29:
 322:Drivers/STM32L1xx_HAL_Driver/stm32l1xx_hal_rcc.cpp ****           }
 323:Drivers/STM32L1xx_HAL_Driver/stm32l1xx_hal_rcc.cpp ****         }
 324:Drivers/STM32L1xx_HAL_Driver/stm32l1xx_hal_rcc.cpp ****       }
 325:Drivers/STM32L1xx_HAL_Driver/stm32l1xx_hal_rcc.cpp ****       else
 326:Drivers/STM32L1xx_HAL_Driver/stm32l1xx_hal_rcc.cpp ****       {
 327:Drivers/STM32L1xx_HAL_Driver/stm32l1xx_hal_rcc.cpp ****         /* Get Start Tick*/
 328:Drivers/STM32L1xx_HAL_Driver/stm32l1xx_hal_rcc.cpp ****         tickstart = HAL_GetTick();
 652              		.loc 1 328 0 is_stmt 1
 653 02e4 FFF7FEFF 		bl	HAL_GetTick	@
 654 02e8 C7F89C03 		str	r0, [r7, #924]	@, tickstart
 329:Drivers/STM32L1xx_HAL_Driver/stm32l1xx_hal_rcc.cpp ****         
 330:Drivers/STM32L1xx_HAL_Driver/stm32l1xx_hal_rcc.cpp ****         /* Wait till HSE is bypassed or disabled */
 331:Drivers/STM32L1xx_HAL_Driver/stm32l1xx_hal_rcc.cpp ****         while(__HAL_RCC_GET_FLAG(RCC_FLAG_HSERDY) != RESET)
 655              		.loc 1 331 0
 656 02ec 12E0     		b	.L38	@
 657              	.L45:
 332:Drivers/STM32L1xx_HAL_Driver/stm32l1xx_hal_rcc.cpp ****         {
 333:Drivers/STM32L1xx_HAL_Driver/stm32l1xx_hal_rcc.cpp ****            if((HAL_GetTick() - tickstart ) > HSE_TIMEOUT_VALUE)
 658              		.loc 1 333 0
 659 02ee FFF7FEFF 		bl	HAL_GetTick	@
 660 02f2 0246     		mov	r2, r0	@ D.6647,
 661 02f4 D7F89C33 		ldr	r3, [r7, #924]	@ tmp997, tickstart
 662 02f8 D21A     		subs	r2, r2, r3	@ D.6648, D.6647, tmp997
 663 02fa 41F28833 		movw	r3, #5000	@ tmp1000,
 664 02fe 9A42     		cmp	r2, r3	@ D.6648, tmp1000
 665 0300 94BF     		ite	ls	@
 666 0302 0023     		movls	r3, #0	@, tmp999
 667 0304 0123     		movhi	r3, #1	@, tmp999
 668 0306 DBB2     		uxtb	r3, r3	@ retval.59, tmp998
 669 0308 002B     		cmp	r3, #0	@ retval.59,
 670 030a 03D0     		beq	.L38	@,
 334:Drivers/STM32L1xx_HAL_Driver/stm32l1xx_hal_rcc.cpp ****           {
 335:Drivers/STM32L1xx_HAL_Driver/stm32l1xx_hal_rcc.cpp ****             return HAL_TIMEOUT;
 671              		.loc 1 335 0
 672 030c 4FF00303 		mov	r3, #3	@ D.6563,
 673 0310 01F007BB 		b	.L20	@
 674              	.L38:
 675 0314 4FF40033 		mov	r3, #131072	@ tmp1001,
 676 0318 C7F83833 		str	r3, [r7, #824]	@ tmp1001, value
 677              	.LBB564:
 678              	.LBB565:
 679              	.LBB566:
ARM GAS  /tmp/ccn09EVD.s 			page 31


 491:Drivers/CMSIS/Include/core_cmInstr.h ****    __ASM volatile ("rbit %0, %1" : "=r" (result) : "r" (value) );
 680              		.loc 2 491 0 discriminator 1
 681 031c D7F83833 		ldr	r3, [r7, #824]	@ tmp1003, value
 682              	@ 491 "Drivers/CMSIS/Include/core_cmInstr.h" 1
 683 0320 93FAA3F4 		rbit r4, r3	@ result, tmp1003
 684              	@ 0 "" 2
 685              		.thumb
 686 0324 C7F83443 		str	r4, [r7, #820]	@ result, result
 492:Drivers/CMSIS/Include/core_cmInstr.h ****    return(result);
 687              		.loc 2 492 0 discriminator 1
 688 0328 D7F83433 		ldr	r3, [r7, #820]	@ D.7451, result
 689 032c C7F83033 		str	r3, [r7, #816]	@ D.6630, value
 690              	.LBE566:
 691              	.LBE565:
 692              	.LBE564:
 693              	.LBB567:
 694              	.LBB568:
 695              	.LBB569:
 666:Drivers/CMSIS/Include/core_cmInstr.h ****   __ASM volatile ("clz %0, %1" : "=r" (result) : "r" (value) );
 696              		.loc 2 666 0 discriminator 1
 697 0330 D7F83033 		ldr	r3, [r7, #816]	@ tmp1005, value
 698              	@ 666 "Drivers/CMSIS/Include/core_cmInstr.h" 1
 699 0334 B3FA83F4 		clz r4, r3	@ result, tmp1005
 700              	@ 0 "" 2
 701              		.thumb
 702 0338 C7F82C43 		str	r4, [r7, #812]	@ result, result
 703              		.loc 2 667 0 discriminator 1
 704 033c D7F82C33 		ldr	r3, [r7, #812]	@ tmp1006, result
 705 0340 DBB2     		uxtb	r3, r3	@ D.7456, tmp1006
 706              	.LBE569:
 707              	.LBE568:
 708              	.LBE567:
 331:Drivers/STM32L1xx_HAL_Driver/stm32l1xx_hal_rcc.cpp ****         while(__HAL_RCC_GET_FLAG(RCC_FLAG_HSERDY) != RESET)
 709              		.loc 1 331 0 discriminator 1
 710 0342 43F02003 		orr	r3, r3, #32	@ tmp1007, D.6631,
 711 0346 DBB2     		uxtb	r3, r3	@ D.6632, tmp1007
 712 0348 4FEA6313 		asr	r3, r3, #5	@ D.6634, D.6633,
 713 034c 012B     		cmp	r3, #1	@ D.6634,
 714 034e 05D1     		bne	.L41	@,
 331:Drivers/STM32L1xx_HAL_Driver/stm32l1xx_hal_rcc.cpp ****         while(__HAL_RCC_GET_FLAG(RCC_FLAG_HSERDY) != RESET)
 715              		.loc 1 331 0 is_stmt 0 discriminator 2
 716 0350 4FF46053 		mov	r3, #14336	@ D.6637,
 717 0354 C4F20203 		movt	r3, 16386	@ D.6637,
 718 0358 1B68     		ldr	r3, [r3, #0]	@ iftmp.58, D.6637_114->CR
 719 035a 04E0     		b	.L42	@
 720              	.L41:
 331:Drivers/STM32L1xx_HAL_Driver/stm32l1xx_hal_rcc.cpp ****         while(__HAL_RCC_GET_FLAG(RCC_FLAG_HSERDY) != RESET)
 721              		.loc 1 331 0 discriminator 3
 722 035c 4FF46053 		mov	r3, #14336	@ D.6639,
 723 0360 C4F20203 		movt	r3, 16386	@ D.6639,
 724 0364 5B6B     		ldr	r3, [r3, #52]	@ iftmp.58, D.6639_116->CSR
 725              	.L42:
 726 0366 4FF40032 		mov	r2, #131072	@ tmp1008,
 727 036a C7F82823 		str	r2, [r7, #808]	@ tmp1008, value
 728              	.LBB570:
 729              	.LBB571:
 730              	.LBB572:
ARM GAS  /tmp/ccn09EVD.s 			page 32


 491:Drivers/CMSIS/Include/core_cmInstr.h ****    __ASM volatile ("rbit %0, %1" : "=r" (result) : "r" (value) );
 731              		.loc 2 491 0 is_stmt 1 discriminator 4
 732 036e D7F82823 		ldr	r2, [r7, #808]	@ tmp1010, value
 733              	@ 491 "Drivers/CMSIS/Include/core_cmInstr.h" 1
 734 0372 92FAA2F4 		rbit r4, r2	@ result, tmp1010
 735              	@ 0 "" 2
 736              		.thumb
 737 0376 C7F82443 		str	r4, [r7, #804]	@ result, result
 492:Drivers/CMSIS/Include/core_cmInstr.h ****    return(result);
 738              		.loc 2 492 0 discriminator 4
 739 037a D7F82423 		ldr	r2, [r7, #804]	@ D.7461, result
 740 037e C7F82023 		str	r2, [r7, #800]	@ D.6640, value
 741              	.LBE572:
 742              	.LBE571:
 743              	.LBE570:
 744              	.LBB573:
 745              	.LBB574:
 746              	.LBB575:
 666:Drivers/CMSIS/Include/core_cmInstr.h ****   __ASM volatile ("clz %0, %1" : "=r" (result) : "r" (value) );
 747              		.loc 2 666 0 discriminator 4
 748 0382 D7F82023 		ldr	r2, [r7, #800]	@ tmp1012, value
 749              	@ 666 "Drivers/CMSIS/Include/core_cmInstr.h" 1
 750 0386 B2FA82F4 		clz r4, r2	@ result, tmp1012
 751              	@ 0 "" 2
 752              		.thumb
 753 038a C7F81C43 		str	r4, [r7, #796]	@ result, result
 754              		.loc 2 667 0 discriminator 4
 755 038e D7F81C23 		ldr	r2, [r7, #796]	@ tmp1013, result
 756 0392 D2B2     		uxtb	r2, r2	@ D.7466, tmp1013
 757              	.LBE575:
 758              	.LBE574:
 759              	.LBE573:
 331:Drivers/STM32L1xx_HAL_Driver/stm32l1xx_hal_rcc.cpp ****         while(__HAL_RCC_GET_FLAG(RCC_FLAG_HSERDY) != RESET)
 760              		.loc 1 331 0 discriminator 4
 761 0394 02F01F02 		and	r2, r2, #31	@ D.6643, D.6642,
 762 0398 23FA02F3 		lsr	r3, r3, r2	@ D.6644, iftmp.58, D.6643
 763 039c 03F00103 		and	r3, r3, #1	@ D.6645, D.6644,
 764 03a0 002B     		cmp	r3, #0	@ D.6645,
 765 03a2 0CBF     		ite	eq	@
 766 03a4 0023     		moveq	r3, #0	@, tmp1015
 767 03a6 0123     		movne	r3, #1	@, tmp1015
 768 03a8 DBB2     		uxtb	r3, r3	@ retval.57, tmp1014
 769 03aa 002B     		cmp	r3, #0	@ retval.57,
 770 03ac 9FD1     		bne	.L45	@,
 771              	.L7:
 336:Drivers/STM32L1xx_HAL_Driver/stm32l1xx_hal_rcc.cpp ****           }
 337:Drivers/STM32L1xx_HAL_Driver/stm32l1xx_hal_rcc.cpp ****         }
 338:Drivers/STM32L1xx_HAL_Driver/stm32l1xx_hal_rcc.cpp ****       }
 339:Drivers/STM32L1xx_HAL_Driver/stm32l1xx_hal_rcc.cpp ****     }
 340:Drivers/STM32L1xx_HAL_Driver/stm32l1xx_hal_rcc.cpp ****   }
 341:Drivers/STM32L1xx_HAL_Driver/stm32l1xx_hal_rcc.cpp ****   /*----------------------------- HSI Configuration --------------------------*/ 
 342:Drivers/STM32L1xx_HAL_Driver/stm32l1xx_hal_rcc.cpp ****   if(((RCC_OscInitStruct->OscillatorType) & RCC_OSCILLATORTYPE_HSI) == RCC_OSCILLATORTYPE_HSI)
 772              		.loc 1 342 0
 773 03ae 07F10403 		add	r3, r7, #4	@ tmp1018,,
 774 03b2 1B68     		ldr	r3, [r3, #0]	@ tmp1016, RCC_OscInitStruct
 775 03b4 1B68     		ldr	r3, [r3, #0]	@ D.6652, RCC_OscInitStruct_26(D)->OscillatorType
 776 03b6 03F00203 		and	r3, r3, #2	@ D.6653, D.6652,
ARM GAS  /tmp/ccn09EVD.s 			page 33


 777 03ba 002B     		cmp	r3, #0	@ D.6653,
 778 03bc 00F0F681 		beq	.L46	@,
 343:Drivers/STM32L1xx_HAL_Driver/stm32l1xx_hal_rcc.cpp ****   {
 344:Drivers/STM32L1xx_HAL_Driver/stm32l1xx_hal_rcc.cpp ****     /* Check the parameters */
 345:Drivers/STM32L1xx_HAL_Driver/stm32l1xx_hal_rcc.cpp ****     assert_param(IS_RCC_HSI(RCC_OscInitStruct->HSIState));
 346:Drivers/STM32L1xx_HAL_Driver/stm32l1xx_hal_rcc.cpp ****     assert_param(IS_RCC_CALIBRATION_VALUE(RCC_OscInitStruct->HSICalibrationValue));
 347:Drivers/STM32L1xx_HAL_Driver/stm32l1xx_hal_rcc.cpp ****     
 348:Drivers/STM32L1xx_HAL_Driver/stm32l1xx_hal_rcc.cpp ****     /* Check if HSI is used as system clock or as PLL source when PLL is selected as system clock *
 349:Drivers/STM32L1xx_HAL_Driver/stm32l1xx_hal_rcc.cpp ****     if((__HAL_RCC_GET_SYSCLK_SOURCE() == RCC_CFGR_SWS_HSI) 
 779              		.loc 1 349 0
 780 03c0 4FF46053 		mov	r3, #14336	@ D.6661,
 781 03c4 C4F20203 		movt	r3, 16386	@ D.6661,
 782 03c8 9B68     		ldr	r3, [r3, #8]	@ D.6662, D.6661_131->CFGR
 783 03ca 03F00C03 		and	r3, r3, #12	@ D.6663, D.6662,
 784 03ce 042B     		cmp	r3, #4	@ D.6663,
 785 03d0 11D0     		beq	.L47	@,
 786              		.loc 1 349 0 is_stmt 0 discriminator 2
 787 03d2 4FF46053 		mov	r3, #14336	@ D.6665,
 788 03d6 C4F20203 		movt	r3, 16386	@ D.6665,
 789 03da 9B68     		ldr	r3, [r3, #8]	@ D.6666, D.6665_134->CFGR
 790 03dc 03F00C03 		and	r3, r3, #12	@ D.6667, D.6666,
 791 03e0 0C2B     		cmp	r3, #12	@ D.6667,
 792 03e2 0BD1     		bne	.L48	@,
 793              		.loc 1 349 0 discriminator 3
 794 03e4 4FF46053 		mov	r3, #14336	@ D.6669,
 795 03e8 C4F20203 		movt	r3, 16386	@ D.6669,
 796 03ec 9B68     		ldr	r3, [r3, #8]	@ D.6670, D.6669_137->CFGR
 797 03ee 03F48033 		and	r3, r3, #65536	@ D.6671, D.6670,
 798 03f2 002B     		cmp	r3, #0	@ D.6671,
 799 03f4 02D1     		bne	.L48	@,
 800              	.L47:
 801              		.loc 1 349 0 discriminator 1
 802 03f6 4FF00103 		mov	r3, #1	@ iftmp.61,
 803 03fa 01E0     		b	.L49	@
 804              	.L48:
 805              		.loc 1 349 0 discriminator 4
 806 03fc 4FF00003 		mov	r3, #0	@ iftmp.61,
 807              	.L49:
 808              		.loc 1 349 0 discriminator 5
 809 0400 002B     		cmp	r3, #0	@ retval.60,
 810 0402 00F08480 		beq	.L50	@,
 811 0406 4FF00203 		mov	r3, #2	@ tmp1019,
 812 040a C7F81833 		str	r3, [r7, #792]	@ tmp1019, value
 813              	.LBB576:
 814              	.LBB577:
 815              	.LBB578:
 491:Drivers/CMSIS/Include/core_cmInstr.h ****    __ASM volatile ("rbit %0, %1" : "=r" (result) : "r" (value) );
 816              		.loc 2 491 0 is_stmt 1
 817 040e D7F81833 		ldr	r3, [r7, #792]	@ tmp1021, value
 818              	@ 491 "Drivers/CMSIS/Include/core_cmInstr.h" 1
 819 0412 93FAA3F4 		rbit r4, r3	@ result, tmp1021
 820              	@ 0 "" 2
 821              		.thumb
 822 0416 C7F81443 		str	r4, [r7, #788]	@ result, result
 492:Drivers/CMSIS/Include/core_cmInstr.h ****    return(result);
 823              		.loc 2 492 0
 824 041a D7F81433 		ldr	r3, [r7, #788]	@ D.7471, result
ARM GAS  /tmp/ccn09EVD.s 			page 34


 825 041e C7F81033 		str	r3, [r7, #784]	@ D.6679, value
 826              	.LBE578:
 827              	.LBE577:
 828              	.LBE576:
 829              	.LBB579:
 830              	.LBB580:
 831              	.LBB581:
 666:Drivers/CMSIS/Include/core_cmInstr.h ****   __ASM volatile ("clz %0, %1" : "=r" (result) : "r" (value) );
 832              		.loc 2 666 0
 833 0422 D7F81033 		ldr	r3, [r7, #784]	@ tmp1023, value
 834              	@ 666 "Drivers/CMSIS/Include/core_cmInstr.h" 1
 835 0426 B3FA83F4 		clz r4, r3	@ result, tmp1023
 836              	@ 0 "" 2
 837              		.thumb
 838 042a C7F80C43 		str	r4, [r7, #780]	@ result, result
 839              		.loc 2 667 0
 840 042e D7F80C33 		ldr	r3, [r7, #780]	@ tmp1024, result
 841 0432 DBB2     		uxtb	r3, r3	@ D.7476, tmp1024
 842              	.LBE581:
 843              	.LBE580:
 844              	.LBE579:
 350:Drivers/STM32L1xx_HAL_Driver/stm32l1xx_hal_rcc.cpp ****        || ((__HAL_RCC_GET_SYSCLK_SOURCE() == RCC_CFGR_SWS_PLL) && (__HAL_RCC_GET_PLL_OSCSOURCE() ==
 351:Drivers/STM32L1xx_HAL_Driver/stm32l1xx_hal_rcc.cpp ****     {
 352:Drivers/STM32L1xx_HAL_Driver/stm32l1xx_hal_rcc.cpp ****       /* When HSI is used as system clock it will not disabled */
 353:Drivers/STM32L1xx_HAL_Driver/stm32l1xx_hal_rcc.cpp ****       if((__HAL_RCC_GET_FLAG(RCC_FLAG_HSIRDY) != RESET) && (RCC_OscInitStruct->HSIState != RCC_HSI_
 845              		.loc 1 353 0
 846 0434 43F02003 		orr	r3, r3, #32	@ tmp1025, D.6680,
 847 0438 DBB2     		uxtb	r3, r3	@ D.6681, tmp1025
 848 043a 4FEA6313 		asr	r3, r3, #5	@ D.6683, D.6682,
 849 043e 012B     		cmp	r3, #1	@ D.6683,
 850 0440 05D1     		bne	.L53	@,
 851              		.loc 1 353 0 is_stmt 0 discriminator 1
 852 0442 4FF46053 		mov	r3, #14336	@ D.6686,
 853 0446 C4F20203 		movt	r3, 16386	@ D.6686,
 854 044a 1B68     		ldr	r3, [r3, #0]	@ iftmp.64, D.6686_148->CR
 855 044c 04E0     		b	.L54	@
 856              	.L53:
 857              		.loc 1 353 0 discriminator 2
 858 044e 4FF46053 		mov	r3, #14336	@ D.6688,
 859 0452 C4F20203 		movt	r3, 16386	@ D.6688,
 860 0456 5B6B     		ldr	r3, [r3, #52]	@ iftmp.64, D.6688_150->CSR
 861              	.L54:
 862 0458 4FF00202 		mov	r2, #2	@ tmp1026,
 863 045c C7F80823 		str	r2, [r7, #776]	@ tmp1026, value
 864              	.LBB582:
 865              	.LBB583:
 866              	.LBB584:
 491:Drivers/CMSIS/Include/core_cmInstr.h ****    __ASM volatile ("rbit %0, %1" : "=r" (result) : "r" (value) );
 867              		.loc 2 491 0 is_stmt 1 discriminator 3
 868 0460 D7F80823 		ldr	r2, [r7, #776]	@ tmp1028, value
 869              	@ 491 "Drivers/CMSIS/Include/core_cmInstr.h" 1
 870 0464 92FAA2F4 		rbit r4, r2	@ result, tmp1028
 871              	@ 0 "" 2
 872              		.thumb
 873 0468 C7F80443 		str	r4, [r7, #772]	@ result, result
 492:Drivers/CMSIS/Include/core_cmInstr.h ****    return(result);
 874              		.loc 2 492 0 discriminator 3
ARM GAS  /tmp/ccn09EVD.s 			page 35


 875 046c D7F80423 		ldr	r2, [r7, #772]	@ D.7481, result
 876 0470 C7F80023 		str	r2, [r7, #768]	@ D.6689, value
 877              	.LBE584:
 878              	.LBE583:
 879              	.LBE582:
 880              	.LBB585:
 881              	.LBB586:
 882              	.LBB587:
 666:Drivers/CMSIS/Include/core_cmInstr.h ****   __ASM volatile ("clz %0, %1" : "=r" (result) : "r" (value) );
 883              		.loc 2 666 0 discriminator 3
 884 0474 D7F80023 		ldr	r2, [r7, #768]	@ tmp1030, value
 885              	@ 666 "Drivers/CMSIS/Include/core_cmInstr.h" 1
 886 0478 B2FA82F4 		clz r4, r2	@ result, tmp1030
 887              	@ 0 "" 2
 888              		.thumb
 889 047c C7F8FC42 		str	r4, [r7, #764]	@ result, result
 890              		.loc 2 667 0 discriminator 3
 891 0480 D7F8FC22 		ldr	r2, [r7, #764]	@ tmp1031, result
 892 0484 D2B2     		uxtb	r2, r2	@ D.7486, tmp1031
 893              	.LBE587:
 894              	.LBE586:
 895              	.LBE585:
 896              		.loc 1 353 0 discriminator 3
 897 0486 02F01F02 		and	r2, r2, #31	@ D.6692, D.6691,
 898 048a 23FA02F3 		lsr	r3, r3, r2	@ D.6693, iftmp.64, D.6692
 899 048e 03F00103 		and	r3, r3, #1	@ D.6694, D.6693,
 900 0492 002B     		cmp	r3, #0	@ D.6694,
 901 0494 08D0     		beq	.L57	@,
 902              		.loc 1 353 0 is_stmt 0 discriminator 4
 903 0496 07F10403 		add	r3, r7, #4	@ tmp1034,,
 904 049a 1B68     		ldr	r3, [r3, #0]	@ tmp1032, RCC_OscInitStruct
 905 049c DB68     		ldr	r3, [r3, #12]	@ D.6696, RCC_OscInitStruct_26(D)->HSIState
 906 049e 012B     		cmp	r3, #1	@ D.6696,
 907 04a0 02D0     		beq	.L57	@,
 908              		.loc 1 353 0 discriminator 6
 909 04a2 4FF00103 		mov	r3, #1	@ iftmp.63,
 910 04a6 01E0     		b	.L58	@
 911              	.L57:
 912              		.loc 1 353 0 discriminator 5
 913 04a8 4FF00003 		mov	r3, #0	@ iftmp.63,
 914              	.L58:
 915              		.loc 1 353 0 discriminator 7
 916 04ac 002B     		cmp	r3, #0	@ retval.62,
 917 04ae 03D0     		beq	.L59	@,
 354:Drivers/STM32L1xx_HAL_Driver/stm32l1xx_hal_rcc.cpp ****       {
 355:Drivers/STM32L1xx_HAL_Driver/stm32l1xx_hal_rcc.cpp ****         return HAL_ERROR;
 918              		.loc 1 355 0 is_stmt 1
 919 04b0 4FF00103 		mov	r3, #1	@ D.6563,
 920 04b4 01F035BA 		b	.L20	@
 921              	.L59:
 356:Drivers/STM32L1xx_HAL_Driver/stm32l1xx_hal_rcc.cpp ****       }
 357:Drivers/STM32L1xx_HAL_Driver/stm32l1xx_hal_rcc.cpp ****       /* Otherwise, just the calibration is allowed */
 358:Drivers/STM32L1xx_HAL_Driver/stm32l1xx_hal_rcc.cpp ****       else
 359:Drivers/STM32L1xx_HAL_Driver/stm32l1xx_hal_rcc.cpp ****       {
 360:Drivers/STM32L1xx_HAL_Driver/stm32l1xx_hal_rcc.cpp ****         /* Adjusts the Internal High Speed oscillator (HSI) calibration value.*/
 361:Drivers/STM32L1xx_HAL_Driver/stm32l1xx_hal_rcc.cpp ****         __HAL_RCC_HSI_CALIBRATIONVALUE_ADJUST(RCC_OscInitStruct->HSICalibrationValue);
 922              		.loc 1 361 0
ARM GAS  /tmp/ccn09EVD.s 			page 36


 923 04b8 4FF46053 		mov	r3, #14336	@ D.6700,
 924 04bc C4F20203 		movt	r3, 16386	@ D.6700,
 925 04c0 4FF46052 		mov	r2, #14336	@ D.6701,
 926 04c4 C4F20202 		movt	r2, 16386	@ D.6701,
 927 04c8 5268     		ldr	r2, [r2, #4]	@ D.6702, D.6701_164->ICSCR
 928 04ca 22F4F851 		bic	r1, r2, #7936	@ D.6703, D.6702,
 929 04ce 07F10402 		add	r2, r7, #4	@ tmp1037,,
 930 04d2 1268     		ldr	r2, [r2, #0]	@ tmp1035, RCC_OscInitStruct
 931 04d4 1069     		ldr	r0, [r2, #16]	@ D.6704, RCC_OscInitStruct_26(D)->HSICalibrationValue
 932 04d6 4FF4F852 		mov	r2, #7936	@ tmp1038,
 933 04da C7F8F822 		str	r2, [r7, #760]	@ tmp1038, value
 934              	.LBB588:
 935              	.LBB589:
 936              	.LBB590:
 491:Drivers/CMSIS/Include/core_cmInstr.h ****    __ASM volatile ("rbit %0, %1" : "=r" (result) : "r" (value) );
 937              		.loc 2 491 0
 938 04de D7F8F822 		ldr	r2, [r7, #760]	@ tmp1040, value
 939              	@ 491 "Drivers/CMSIS/Include/core_cmInstr.h" 1
 940 04e2 92FAA2F4 		rbit r4, r2	@ result, tmp1040
 941              	@ 0 "" 2
 942              		.thumb
 943 04e6 C7F8F442 		str	r4, [r7, #756]	@ result, result
 492:Drivers/CMSIS/Include/core_cmInstr.h ****    return(result);
 944              		.loc 2 492 0
 945 04ea D7F8F422 		ldr	r2, [r7, #756]	@ D.7491, result
 946 04ee C7F8F022 		str	r2, [r7, #752]	@ D.6705, value
 947              	.LBE590:
 948              	.LBE589:
 949              	.LBE588:
 950              	.LBB591:
 951              	.LBB592:
 952              	.LBB593:
 666:Drivers/CMSIS/Include/core_cmInstr.h ****   __ASM volatile ("clz %0, %1" : "=r" (result) : "r" (value) );
 953              		.loc 2 666 0
 954 04f2 D7F8F022 		ldr	r2, [r7, #752]	@ tmp1042, value
 955              	@ 666 "Drivers/CMSIS/Include/core_cmInstr.h" 1
 956 04f6 B2FA82F4 		clz r4, r2	@ result, tmp1042
 957              	@ 0 "" 2
 958              		.thumb
 959 04fa C7F8EC42 		str	r4, [r7, #748]	@ result, result
 960              		.loc 2 667 0
 961 04fe D7F8EC22 		ldr	r2, [r7, #748]	@ tmp1043, result
 962 0502 D2B2     		uxtb	r2, r2	@ D.7496, tmp1043
 963              	.LBE593:
 964              	.LBE592:
 965              	.LBE591:
 966              		.loc 1 361 0
 967 0504 00FA02F2 		lsl	r2, r0, r2	@ D.6708, D.6704, D.6707
 968 0508 0A43     		orrs	r2, r2, r1	@, D.6709, D.6708, D.6703
 969 050a 5A60     		str	r2, [r3, #4]	@ D.6709, D.6700_163->ICSCR
 970 050c 4EE1     		b	.L46	@
 971              	.L50:
 362:Drivers/STM32L1xx_HAL_Driver/stm32l1xx_hal_rcc.cpp ****       }
 363:Drivers/STM32L1xx_HAL_Driver/stm32l1xx_hal_rcc.cpp ****     }
 364:Drivers/STM32L1xx_HAL_Driver/stm32l1xx_hal_rcc.cpp ****     else
 365:Drivers/STM32L1xx_HAL_Driver/stm32l1xx_hal_rcc.cpp ****     {
 366:Drivers/STM32L1xx_HAL_Driver/stm32l1xx_hal_rcc.cpp ****       /* Check the HSI State */
ARM GAS  /tmp/ccn09EVD.s 			page 37


 367:Drivers/STM32L1xx_HAL_Driver/stm32l1xx_hal_rcc.cpp ****       if((RCC_OscInitStruct->HSIState)!= RCC_HSI_OFF)
 972              		.loc 1 367 0
 973 050e 07F10403 		add	r3, r7, #4	@ tmp1046,,
 974 0512 1B68     		ldr	r3, [r3, #0]	@ tmp1044, RCC_OscInitStruct
 975 0514 DB68     		ldr	r3, [r3, #12]	@ D.6711, RCC_OscInitStruct_26(D)->HSIState
 976 0516 002B     		cmp	r3, #0	@ D.6711,
 977 0518 00F0AE80 		beq	.L62	@,
 978 051c 4FF00103 		mov	r3, #1	@ tmp1047,
 979 0520 C7F8E832 		str	r3, [r7, #744]	@ tmp1047, value
 980              	.LBB594:
 981              	.LBB595:
 982              	.LBB596:
 491:Drivers/CMSIS/Include/core_cmInstr.h ****    __ASM volatile ("rbit %0, %1" : "=r" (result) : "r" (value) );
 983              		.loc 2 491 0
 984 0524 D7F8E832 		ldr	r3, [r7, #744]	@ tmp1049, value
 985              	@ 491 "Drivers/CMSIS/Include/core_cmInstr.h" 1
 986 0528 93FAA3F4 		rbit r4, r3	@ result, tmp1049
 987              	@ 0 "" 2
 988              		.thumb
 989 052c C7F8E442 		str	r4, [r7, #740]	@ result, result
 492:Drivers/CMSIS/Include/core_cmInstr.h ****    return(result);
 990              		.loc 2 492 0
 991 0530 D7F8E432 		ldr	r3, [r7, #740]	@ D.7501, result
 992 0534 C7F8E032 		str	r3, [r7, #736]	@ D.6714, value
 993              	.LBE596:
 994              	.LBE595:
 995              	.LBE594:
 996              	.LBB597:
 997              	.LBB598:
 998              	.LBB599:
 666:Drivers/CMSIS/Include/core_cmInstr.h ****   __ASM volatile ("clz %0, %1" : "=r" (result) : "r" (value) );
 999              		.loc 2 666 0
 1000 0538 D7F8E032 		ldr	r3, [r7, #736]	@ tmp1051, value
 1001              	@ 666 "Drivers/CMSIS/Include/core_cmInstr.h" 1
 1002 053c B3FA83F4 		clz r4, r3	@ result, tmp1051
 1003              	@ 0 "" 2
 1004              		.thumb
 1005 0540 C7F8DC42 		str	r4, [r7, #732]	@ result, result
 1006              		.loc 2 667 0
 1007 0544 D7F8DC32 		ldr	r3, [r7, #732]	@ tmp1052, result
 1008 0548 DBB2     		uxtb	r3, r3	@ D.7506, tmp1052
 1009              	.LBE599:
 1010              	.LBE598:
 1011              	.LBE597:
 368:Drivers/STM32L1xx_HAL_Driver/stm32l1xx_hal_rcc.cpp ****       {
 369:Drivers/STM32L1xx_HAL_Driver/stm32l1xx_hal_rcc.cpp ****         /* Enable the Internal High Speed oscillator (HSI). */
 370:Drivers/STM32L1xx_HAL_Driver/stm32l1xx_hal_rcc.cpp ****         __HAL_RCC_HSI_ENABLE();
 1012              		.loc 1 370 0
 1013 054a 4FEA8303 		lsl	r3, r3, #2	@ D.6717, D.6716,
 1014 054e 03F18443 		add	r3, r3, #1107296256	@ D.6719, D.6718,
 1015 0552 03F58E03 		add	r3, r3, #4653056	@ D.6719, D.6719,
 1016 0556 4FF00102 		mov	r2, #1	@ tmp1053,
 1017 055a 1A60     		str	r2, [r3, #0]	@ tmp1053, *D.6720_180
 371:Drivers/STM32L1xx_HAL_Driver/stm32l1xx_hal_rcc.cpp ****         
 372:Drivers/STM32L1xx_HAL_Driver/stm32l1xx_hal_rcc.cpp ****         /* Get Start Tick*/
 373:Drivers/STM32L1xx_HAL_Driver/stm32l1xx_hal_rcc.cpp ****         tickstart = HAL_GetTick();
 1018              		.loc 1 373 0
ARM GAS  /tmp/ccn09EVD.s 			page 38


 1019 055c FFF7FEFF 		bl	HAL_GetTick	@
 1020 0560 C7F89C03 		str	r0, [r7, #924]	@, tickstart
 374:Drivers/STM32L1xx_HAL_Driver/stm32l1xx_hal_rcc.cpp ****         
 375:Drivers/STM32L1xx_HAL_Driver/stm32l1xx_hal_rcc.cpp ****         /* Wait till HSI is ready */  
 376:Drivers/STM32L1xx_HAL_Driver/stm32l1xx_hal_rcc.cpp ****         while(__HAL_RCC_GET_FLAG(RCC_FLAG_HSIRDY) == RESET)
 1021              		.loc 1 376 0
 1022 0564 10E0     		b	.L65	@
 1023              	.L72:
 377:Drivers/STM32L1xx_HAL_Driver/stm32l1xx_hal_rcc.cpp ****         {
 378:Drivers/STM32L1xx_HAL_Driver/stm32l1xx_hal_rcc.cpp ****           if((HAL_GetTick() - tickstart ) > HSI_TIMEOUT_VALUE)
 1024              		.loc 1 378 0
 1025 0566 FFF7FEFF 		bl	HAL_GetTick	@
 1026 056a 0246     		mov	r2, r0	@ D.6743,
 1027 056c D7F89C33 		ldr	r3, [r7, #924]	@ tmp1054, tickstart
 1028 0570 D31A     		subs	r3, r2, r3	@ D.6744, D.6743, tmp1054
 1029 0572 642B     		cmp	r3, #100	@ D.6744,
 1030 0574 94BF     		ite	ls	@
 1031 0576 0023     		movls	r3, #0	@, tmp1056
 1032 0578 0123     		movhi	r3, #1	@, tmp1056
 1033 057a DBB2     		uxtb	r3, r3	@ retval.67, tmp1055
 1034 057c 002B     		cmp	r3, #0	@ retval.67,
 1035 057e 03D0     		beq	.L65	@,
 379:Drivers/STM32L1xx_HAL_Driver/stm32l1xx_hal_rcc.cpp ****           {
 380:Drivers/STM32L1xx_HAL_Driver/stm32l1xx_hal_rcc.cpp ****             return HAL_TIMEOUT;
 1036              		.loc 1 380 0
 1037 0580 4FF00303 		mov	r3, #3	@ D.6563,
 1038 0584 01F0CDB9 		b	.L20	@
 1039              	.L65:
 1040 0588 4FF00203 		mov	r3, #2	@ tmp1057,
 1041 058c C7F8D832 		str	r3, [r7, #728]	@ tmp1057, value
 1042              	.LBB600:
 1043              	.LBB601:
 1044              	.LBB602:
 491:Drivers/CMSIS/Include/core_cmInstr.h ****    __ASM volatile ("rbit %0, %1" : "=r" (result) : "r" (value) );
 1045              		.loc 2 491 0 discriminator 1
 1046 0590 D7F8D832 		ldr	r3, [r7, #728]	@ tmp1059, value
 1047              	@ 491 "Drivers/CMSIS/Include/core_cmInstr.h" 1
 1048 0594 93FAA3F4 		rbit r4, r3	@ result, tmp1059
 1049              	@ 0 "" 2
 1050              		.thumb
 1051 0598 C7F8D442 		str	r4, [r7, #724]	@ result, result
 492:Drivers/CMSIS/Include/core_cmInstr.h ****    return(result);
 1052              		.loc 2 492 0 discriminator 1
 1053 059c D7F8D432 		ldr	r3, [r7, #724]	@ D.7511, result
 1054 05a0 C7F8D032 		str	r3, [r7, #720]	@ D.6726, value
 1055              	.LBE602:
 1056              	.LBE601:
 1057              	.LBE600:
 1058              	.LBB603:
 1059              	.LBB604:
 1060              	.LBB605:
 666:Drivers/CMSIS/Include/core_cmInstr.h ****   __ASM volatile ("clz %0, %1" : "=r" (result) : "r" (value) );
 1061              		.loc 2 666 0 discriminator 1
 1062 05a4 D7F8D032 		ldr	r3, [r7, #720]	@ tmp1061, value
 1063              	@ 666 "Drivers/CMSIS/Include/core_cmInstr.h" 1
 1064 05a8 B3FA83F4 		clz r4, r3	@ result, tmp1061
 1065              	@ 0 "" 2
ARM GAS  /tmp/ccn09EVD.s 			page 39


 1066              		.thumb
 1067 05ac C7F8CC42 		str	r4, [r7, #716]	@ result, result
 1068              		.loc 2 667 0 discriminator 1
 1069 05b0 D7F8CC32 		ldr	r3, [r7, #716]	@ tmp1062, result
 1070 05b4 DBB2     		uxtb	r3, r3	@ D.7516, tmp1062
 1071              	.LBE605:
 1072              	.LBE604:
 1073              	.LBE603:
 376:Drivers/STM32L1xx_HAL_Driver/stm32l1xx_hal_rcc.cpp ****         while(__HAL_RCC_GET_FLAG(RCC_FLAG_HSIRDY) == RESET)
 1074              		.loc 1 376 0 discriminator 1
 1075 05b6 43F02003 		orr	r3, r3, #32	@ tmp1063, D.6727,
 1076 05ba DBB2     		uxtb	r3, r3	@ D.6728, tmp1063
 1077 05bc 4FEA6313 		asr	r3, r3, #5	@ D.6730, D.6729,
 1078 05c0 012B     		cmp	r3, #1	@ D.6730,
 1079 05c2 05D1     		bne	.L68	@,
 376:Drivers/STM32L1xx_HAL_Driver/stm32l1xx_hal_rcc.cpp ****         while(__HAL_RCC_GET_FLAG(RCC_FLAG_HSIRDY) == RESET)
 1080              		.loc 1 376 0 is_stmt 0 discriminator 2
 1081 05c4 4FF46053 		mov	r3, #14336	@ D.6733,
 1082 05c8 C4F20203 		movt	r3, 16386	@ D.6733,
 1083 05cc 1B68     		ldr	r3, [r3, #0]	@ iftmp.66, D.6733_187->CR
 1084 05ce 04E0     		b	.L69	@
 1085              	.L68:
 376:Drivers/STM32L1xx_HAL_Driver/stm32l1xx_hal_rcc.cpp ****         while(__HAL_RCC_GET_FLAG(RCC_FLAG_HSIRDY) == RESET)
 1086              		.loc 1 376 0 discriminator 3
 1087 05d0 4FF46053 		mov	r3, #14336	@ D.6735,
 1088 05d4 C4F20203 		movt	r3, 16386	@ D.6735,
 1089 05d8 5B6B     		ldr	r3, [r3, #52]	@ iftmp.66, D.6735_189->CSR
 1090              	.L69:
 1091 05da 4FF00202 		mov	r2, #2	@ tmp1064,
 1092 05de C7F8C822 		str	r2, [r7, #712]	@ tmp1064, value
 1093              	.LBB606:
 1094              	.LBB607:
 1095              	.LBB608:
 491:Drivers/CMSIS/Include/core_cmInstr.h ****    __ASM volatile ("rbit %0, %1" : "=r" (result) : "r" (value) );
 1096              		.loc 2 491 0 is_stmt 1 discriminator 4
 1097 05e2 D7F8C822 		ldr	r2, [r7, #712]	@ tmp1066, value
 1098              	@ 491 "Drivers/CMSIS/Include/core_cmInstr.h" 1
 1099 05e6 92FAA2F4 		rbit r4, r2	@ result, tmp1066
 1100              	@ 0 "" 2
 1101              		.thumb
 1102 05ea C7F8C442 		str	r4, [r7, #708]	@ result, result
 492:Drivers/CMSIS/Include/core_cmInstr.h ****    return(result);
 1103              		.loc 2 492 0 discriminator 4
 1104 05ee D7F8C422 		ldr	r2, [r7, #708]	@ D.7521, result
 1105 05f2 C7F8C022 		str	r2, [r7, #704]	@ D.6736, value
 1106              	.LBE608:
 1107              	.LBE607:
 1108              	.LBE606:
 1109              	.LBB609:
 1110              	.LBB610:
 1111              	.LBB611:
 666:Drivers/CMSIS/Include/core_cmInstr.h ****   __ASM volatile ("clz %0, %1" : "=r" (result) : "r" (value) );
 1112              		.loc 2 666 0 discriminator 4
 1113 05f6 D7F8C022 		ldr	r2, [r7, #704]	@ tmp1068, value
 1114              	@ 666 "Drivers/CMSIS/Include/core_cmInstr.h" 1
 1115 05fa B2FA82F4 		clz r4, r2	@ result, tmp1068
 1116              	@ 0 "" 2
ARM GAS  /tmp/ccn09EVD.s 			page 40


 1117              		.thumb
 1118 05fe C7F8BC42 		str	r4, [r7, #700]	@ result, result
 1119              		.loc 2 667 0 discriminator 4
 1120 0602 D7F8BC22 		ldr	r2, [r7, #700]	@ tmp1069, result
 1121 0606 D2B2     		uxtb	r2, r2	@ D.7526, tmp1069
 1122              	.LBE611:
 1123              	.LBE610:
 1124              	.LBE609:
 376:Drivers/STM32L1xx_HAL_Driver/stm32l1xx_hal_rcc.cpp ****         while(__HAL_RCC_GET_FLAG(RCC_FLAG_HSIRDY) == RESET)
 1125              		.loc 1 376 0 discriminator 4
 1126 0608 02F01F02 		and	r2, r2, #31	@ D.6739, D.6738,
 1127 060c 23FA02F3 		lsr	r3, r3, r2	@ D.6740, iftmp.66, D.6739
 1128 0610 03F00103 		and	r3, r3, #1	@ D.6741, D.6740,
 1129 0614 002B     		cmp	r3, #0	@ D.6741,
 1130 0616 14BF     		ite	ne	@
 1131 0618 0023     		movne	r3, #0	@, tmp1071
 1132 061a 0123     		moveq	r3, #1	@, tmp1071
 1133 061c DBB2     		uxtb	r3, r3	@ retval.65, tmp1070
 1134 061e 002B     		cmp	r3, #0	@ retval.65,
 1135 0620 A1D1     		bne	.L72	@,
 381:Drivers/STM32L1xx_HAL_Driver/stm32l1xx_hal_rcc.cpp ****           }
 382:Drivers/STM32L1xx_HAL_Driver/stm32l1xx_hal_rcc.cpp ****         }
 383:Drivers/STM32L1xx_HAL_Driver/stm32l1xx_hal_rcc.cpp ****                 
 384:Drivers/STM32L1xx_HAL_Driver/stm32l1xx_hal_rcc.cpp ****         /* Adjusts the Internal High Speed oscillator (HSI) calibration value.*/
 385:Drivers/STM32L1xx_HAL_Driver/stm32l1xx_hal_rcc.cpp ****         __HAL_RCC_HSI_CALIBRATIONVALUE_ADJUST(RCC_OscInitStruct->HSICalibrationValue);
 1136              		.loc 1 385 0
 1137 0622 4FF46053 		mov	r3, #14336	@ D.6747,
 1138 0626 C4F20203 		movt	r3, 16386	@ D.6747,
 1139 062a 4FF46052 		mov	r2, #14336	@ D.6748,
 1140 062e C4F20202 		movt	r2, 16386	@ D.6748,
 1141 0632 5268     		ldr	r2, [r2, #4]	@ D.6749, D.6748_203->ICSCR
 1142 0634 22F4F851 		bic	r1, r2, #7936	@ D.6750, D.6749,
 1143 0638 07F10402 		add	r2, r7, #4	@ tmp1074,,
 1144 063c 1268     		ldr	r2, [r2, #0]	@ tmp1072, RCC_OscInitStruct
 1145 063e 1069     		ldr	r0, [r2, #16]	@ D.6751, RCC_OscInitStruct_26(D)->HSICalibrationValue
 1146 0640 4FF4F852 		mov	r2, #7936	@ tmp1075,
 1147 0644 C7F8B822 		str	r2, [r7, #696]	@ tmp1075, value
 1148              	.LBB612:
 1149              	.LBB613:
 1150              	.LBB614:
 491:Drivers/CMSIS/Include/core_cmInstr.h ****    __ASM volatile ("rbit %0, %1" : "=r" (result) : "r" (value) );
 1151              		.loc 2 491 0
 1152 0648 D7F8B822 		ldr	r2, [r7, #696]	@ tmp1077, value
 1153              	@ 491 "Drivers/CMSIS/Include/core_cmInstr.h" 1
 1154 064c 92FAA2F4 		rbit r4, r2	@ result, tmp1077
 1155              	@ 0 "" 2
 1156              		.thumb
 1157 0650 C7F8B442 		str	r4, [r7, #692]	@ result, result
 492:Drivers/CMSIS/Include/core_cmInstr.h ****    return(result);
 1158              		.loc 2 492 0
 1159 0654 D7F8B422 		ldr	r2, [r7, #692]	@ D.7531, result
 1160 0658 C7F8B022 		str	r2, [r7, #688]	@ D.6752, value
 1161              	.LBE614:
 1162              	.LBE613:
 1163              	.LBE612:
 1164              	.LBB615:
 1165              	.LBB616:
ARM GAS  /tmp/ccn09EVD.s 			page 41


 1166              	.LBB617:
 666:Drivers/CMSIS/Include/core_cmInstr.h ****   __ASM volatile ("clz %0, %1" : "=r" (result) : "r" (value) );
 1167              		.loc 2 666 0
 1168 065c D7F8B022 		ldr	r2, [r7, #688]	@ tmp1079, value
 1169              	@ 666 "Drivers/CMSIS/Include/core_cmInstr.h" 1
 1170 0660 B2FA82F4 		clz r4, r2	@ result, tmp1079
 1171              	@ 0 "" 2
 1172              		.thumb
 1173 0664 C7F8AC42 		str	r4, [r7, #684]	@ result, result
 1174              		.loc 2 667 0
 1175 0668 D7F8AC22 		ldr	r2, [r7, #684]	@ tmp1080, result
 1176 066c D2B2     		uxtb	r2, r2	@ D.7536, tmp1080
 1177              	.LBE617:
 1178              	.LBE616:
 1179              	.LBE615:
 1180              		.loc 1 385 0
 1181 066e 00FA02F2 		lsl	r2, r0, r2	@ D.6755, D.6751, D.6754
 1182 0672 0A43     		orrs	r2, r2, r1	@, D.6756, D.6755, D.6750
 1183 0674 5A60     		str	r2, [r3, #4]	@ D.6756, D.6747_202->ICSCR
 1184 0676 99E0     		b	.L46	@
 1185              	.L62:
 1186 0678 4FF00103 		mov	r3, #1	@ tmp1081,
 1187 067c C7F8A832 		str	r3, [r7, #680]	@ tmp1081, value
 1188              	.LBB618:
 1189              	.LBB619:
 1190              	.LBB620:
 491:Drivers/CMSIS/Include/core_cmInstr.h ****    __ASM volatile ("rbit %0, %1" : "=r" (result) : "r" (value) );
 1191              		.loc 2 491 0
 1192 0680 D7F8A832 		ldr	r3, [r7, #680]	@ tmp1083, value
 1193              	@ 491 "Drivers/CMSIS/Include/core_cmInstr.h" 1
 1194 0684 93FAA3F4 		rbit r4, r3	@ result, tmp1083
 1195              	@ 0 "" 2
 1196              		.thumb
 1197 0688 C7F8A442 		str	r4, [r7, #676]	@ result, result
 492:Drivers/CMSIS/Include/core_cmInstr.h ****    return(result);
 1198              		.loc 2 492 0
 1199 068c D7F8A432 		ldr	r3, [r7, #676]	@ D.7541, result
 1200              	.LBE620:
 1201              	.LBE619:
 386:Drivers/STM32L1xx_HAL_Driver/stm32l1xx_hal_rcc.cpp ****       }
 387:Drivers/STM32L1xx_HAL_Driver/stm32l1xx_hal_rcc.cpp ****       else
 388:Drivers/STM32L1xx_HAL_Driver/stm32l1xx_hal_rcc.cpp ****       {
 389:Drivers/STM32L1xx_HAL_Driver/stm32l1xx_hal_rcc.cpp ****         /* Disable the Internal High Speed oscillator (HSI). */
 390:Drivers/STM32L1xx_HAL_Driver/stm32l1xx_hal_rcc.cpp ****         __HAL_RCC_HSI_DISABLE();
 1202              		.loc 1 390 0
 1203 0690 1A46     		mov	r2, r3	@ D.6758, D.7540
 1204 0692 07F52873 		add	r3, r7, #672	@ tmp1085,,
 1205 0696 1A60     		str	r2, [r3, #0]	@ D.6758, value
 1206              	.LBE618:
 1207              	.LBB621:
 1208              	.LBB622:
 1209              	.LBB623:
 666:Drivers/CMSIS/Include/core_cmInstr.h ****   __ASM volatile ("clz %0, %1" : "=r" (result) : "r" (value) );
 1210              		.loc 2 666 0
 1211 0698 07F52873 		add	r3, r7, #672	@ tmp1088,,
 1212 069c 1B68     		ldr	r3, [r3, #0]	@ tmp1089, value
 1213              	@ 666 "Drivers/CMSIS/Include/core_cmInstr.h" 1
ARM GAS  /tmp/ccn09EVD.s 			page 42


 1214 069e B3FA83F4 		clz r4, r3	@ result, tmp1089
 1215              	@ 0 "" 2
 1216              		.thumb
 1217 06a2 07F52773 		add	r3, r7, #668	@ tmp1091,,
 1218 06a6 1C60     		str	r4, [r3, #0]	@ result, result
 1219              		.loc 2 667 0
 1220 06a8 07F52773 		add	r3, r7, #668	@ tmp1093,,
 1221 06ac 1B68     		ldr	r3, [r3, #0]	@ tmp1094, result
 1222 06ae DBB2     		uxtb	r3, r3	@ D.7546, tmp1094
 1223              	.LBE623:
 1224              	.LBE622:
 1225              	.LBE621:
 1226              		.loc 1 390 0
 1227 06b0 4FEA8303 		lsl	r3, r3, #2	@ D.6761, D.6760,
 1228 06b4 03F18443 		add	r3, r3, #1107296256	@ D.6763, D.6762,
 1229 06b8 03F58E03 		add	r3, r3, #4653056	@ D.6763, D.6763,
 1230 06bc 4FF00002 		mov	r2, #0	@ tmp1095,
 1231 06c0 1A60     		str	r2, [r3, #0]	@ tmp1095, *D.6764_218
 391:Drivers/STM32L1xx_HAL_Driver/stm32l1xx_hal_rcc.cpp ****         
 392:Drivers/STM32L1xx_HAL_Driver/stm32l1xx_hal_rcc.cpp ****         /* Get Start Tick*/
 393:Drivers/STM32L1xx_HAL_Driver/stm32l1xx_hal_rcc.cpp ****         tickstart = HAL_GetTick();
 1232              		.loc 1 393 0
 1233 06c2 FFF7FEFF 		bl	HAL_GetTick	@
 1234 06c6 C7F89C03 		str	r0, [r7, #924]	@, tickstart
 394:Drivers/STM32L1xx_HAL_Driver/stm32l1xx_hal_rcc.cpp ****         
 395:Drivers/STM32L1xx_HAL_Driver/stm32l1xx_hal_rcc.cpp ****         /* Wait till HSI is ready */  
 396:Drivers/STM32L1xx_HAL_Driver/stm32l1xx_hal_rcc.cpp ****         while(__HAL_RCC_GET_FLAG(RCC_FLAG_HSIRDY) != RESET)
 1235              		.loc 1 396 0
 1236 06ca 10E0     		b	.L77	@
 1237              	.L84:
 397:Drivers/STM32L1xx_HAL_Driver/stm32l1xx_hal_rcc.cpp ****         {
 398:Drivers/STM32L1xx_HAL_Driver/stm32l1xx_hal_rcc.cpp ****           if((HAL_GetTick() - tickstart ) > HSI_TIMEOUT_VALUE)
 1238              		.loc 1 398 0
 1239 06cc FFF7FEFF 		bl	HAL_GetTick	@
 1240 06d0 0246     		mov	r2, r0	@ D.6787,
 1241 06d2 D7F89C33 		ldr	r3, [r7, #924]	@ tmp1096, tickstart
 1242 06d6 D31A     		subs	r3, r2, r3	@ D.6788, D.6787, tmp1096
 1243 06d8 642B     		cmp	r3, #100	@ D.6788,
 1244 06da 94BF     		ite	ls	@
 1245 06dc 0023     		movls	r3, #0	@, tmp1098
 1246 06de 0123     		movhi	r3, #1	@, tmp1098
 1247 06e0 DBB2     		uxtb	r3, r3	@ retval.70, tmp1097
 1248 06e2 002B     		cmp	r3, #0	@ retval.70,
 1249 06e4 03D0     		beq	.L77	@,
 399:Drivers/STM32L1xx_HAL_Driver/stm32l1xx_hal_rcc.cpp ****           {
 400:Drivers/STM32L1xx_HAL_Driver/stm32l1xx_hal_rcc.cpp ****             return HAL_TIMEOUT;
 1250              		.loc 1 400 0
 1251 06e6 4FF00303 		mov	r3, #3	@ D.6563,
 1252 06ea 01F01AB9 		b	.L20	@
 1253              	.L77:
 1254 06ee 07F52673 		add	r3, r7, #664	@ tmp1100,,
 1255 06f2 4FF00202 		mov	r2, #2	@ tmp1101,
 1256 06f6 1A60     		str	r2, [r3, #0]	@ tmp1101, value
 1257              	.LBB624:
 1258              	.LBB625:
 1259              	.LBB626:
 491:Drivers/CMSIS/Include/core_cmInstr.h ****    __ASM volatile ("rbit %0, %1" : "=r" (result) : "r" (value) );
ARM GAS  /tmp/ccn09EVD.s 			page 43


 1260              		.loc 2 491 0 discriminator 1
 1261 06f8 07F52673 		add	r3, r7, #664	@ tmp1104,,
 1262 06fc 1B68     		ldr	r3, [r3, #0]	@ tmp1105, value
 1263              	@ 491 "Drivers/CMSIS/Include/core_cmInstr.h" 1
 1264 06fe 93FAA3F4 		rbit r4, r3	@ result, tmp1105
 1265              	@ 0 "" 2
 1266              		.thumb
 1267 0702 07F52573 		add	r3, r7, #660	@ tmp1107,,
 1268 0706 1C60     		str	r4, [r3, #0]	@ result, result
 492:Drivers/CMSIS/Include/core_cmInstr.h ****    return(result);
 1269              		.loc 2 492 0 discriminator 1
 1270 0708 07F52573 		add	r3, r7, #660	@ tmp1109,,
 1271 070c 1B68     		ldr	r3, [r3, #0]	@ D.7551, result
 1272              	.LBE626:
 1273              	.LBE625:
 396:Drivers/STM32L1xx_HAL_Driver/stm32l1xx_hal_rcc.cpp ****         while(__HAL_RCC_GET_FLAG(RCC_FLAG_HSIRDY) != RESET)
 1274              		.loc 1 396 0 discriminator 1
 1275 070e 1A46     		mov	r2, r3	@ D.6770, D.7550
 1276 0710 07F52473 		add	r3, r7, #656	@ tmp1111,,
 1277 0714 1A60     		str	r2, [r3, #0]	@ D.6770, value
 1278              	.LBE624:
 1279              	.LBB627:
 1280              	.LBB628:
 1281              	.LBB629:
 666:Drivers/CMSIS/Include/core_cmInstr.h ****   __ASM volatile ("clz %0, %1" : "=r" (result) : "r" (value) );
 1282              		.loc 2 666 0 discriminator 1
 1283 0716 07F52473 		add	r3, r7, #656	@ tmp1114,,
 1284 071a 1B68     		ldr	r3, [r3, #0]	@ tmp1115, value
 1285              	@ 666 "Drivers/CMSIS/Include/core_cmInstr.h" 1
 1286 071c B3FA83F4 		clz r4, r3	@ result, tmp1115
 1287              	@ 0 "" 2
 1288              		.thumb
 1289 0720 07F52373 		add	r3, r7, #652	@ tmp1117,,
 1290 0724 1C60     		str	r4, [r3, #0]	@ result, result
 1291              		.loc 2 667 0 discriminator 1
 1292 0726 07F52373 		add	r3, r7, #652	@ tmp1119,,
 1293 072a 1B68     		ldr	r3, [r3, #0]	@ tmp1120, result
 1294 072c DBB2     		uxtb	r3, r3	@ D.7556, tmp1120
 1295              	.LBE629:
 1296              	.LBE628:
 1297              	.LBE627:
 396:Drivers/STM32L1xx_HAL_Driver/stm32l1xx_hal_rcc.cpp ****         while(__HAL_RCC_GET_FLAG(RCC_FLAG_HSIRDY) != RESET)
 1298              		.loc 1 396 0 discriminator 1
 1299 072e 43F02003 		orr	r3, r3, #32	@ tmp1121, D.6771,
 1300 0732 DBB2     		uxtb	r3, r3	@ D.6772, tmp1121
 1301 0734 4FEA6313 		asr	r3, r3, #5	@ D.6774, D.6773,
 1302 0738 012B     		cmp	r3, #1	@ D.6774,
 1303 073a 05D1     		bne	.L80	@,
 396:Drivers/STM32L1xx_HAL_Driver/stm32l1xx_hal_rcc.cpp ****         while(__HAL_RCC_GET_FLAG(RCC_FLAG_HSIRDY) != RESET)
 1304              		.loc 1 396 0 is_stmt 0 discriminator 2
 1305 073c 4FF46053 		mov	r3, #14336	@ D.6777,
 1306 0740 C4F20203 		movt	r3, 16386	@ D.6777,
 1307 0744 1B68     		ldr	r3, [r3, #0]	@ iftmp.69, D.6777_225->CR
 1308 0746 04E0     		b	.L81	@
 1309              	.L80:
 396:Drivers/STM32L1xx_HAL_Driver/stm32l1xx_hal_rcc.cpp ****         while(__HAL_RCC_GET_FLAG(RCC_FLAG_HSIRDY) != RESET)
 1310              		.loc 1 396 0 discriminator 3
ARM GAS  /tmp/ccn09EVD.s 			page 44


 1311 0748 4FF46053 		mov	r3, #14336	@ D.6779,
 1312 074c C4F20203 		movt	r3, 16386	@ D.6779,
 1313 0750 5B6B     		ldr	r3, [r3, #52]	@ iftmp.69, D.6779_227->CSR
 1314              	.L81:
 1315 0752 07F52272 		add	r2, r7, #648	@ tmp1123,,
 1316 0756 4FF00201 		mov	r1, #2	@ tmp1124,
 1317 075a 1160     		str	r1, [r2, #0]	@ tmp1124, value
 1318              	.LBB630:
 1319              	.LBB631:
 1320              	.LBB632:
 491:Drivers/CMSIS/Include/core_cmInstr.h ****    __ASM volatile ("rbit %0, %1" : "=r" (result) : "r" (value) );
 1321              		.loc 2 491 0 is_stmt 1 discriminator 4
 1322 075c 07F52272 		add	r2, r7, #648	@ tmp1127,,
 1323 0760 1268     		ldr	r2, [r2, #0]	@ tmp1128, value
 1324              	@ 491 "Drivers/CMSIS/Include/core_cmInstr.h" 1
 1325 0762 92FAA2F4 		rbit r4, r2	@ result, tmp1128
 1326              	@ 0 "" 2
 1327              		.thumb
 1328 0766 07F52172 		add	r2, r7, #644	@ tmp1130,,
 1329 076a 1460     		str	r4, [r2, #0]	@ result, result
 492:Drivers/CMSIS/Include/core_cmInstr.h ****    return(result);
 1330              		.loc 2 492 0 discriminator 4
 1331 076c 07F52172 		add	r2, r7, #644	@ tmp1132,,
 1332 0770 1268     		ldr	r2, [r2, #0]	@ D.7561, result
 1333              	.LBE632:
 1334              	.LBE631:
 396:Drivers/STM32L1xx_HAL_Driver/stm32l1xx_hal_rcc.cpp ****         while(__HAL_RCC_GET_FLAG(RCC_FLAG_HSIRDY) != RESET)
 1335              		.loc 1 396 0 discriminator 4
 1336 0772 1146     		mov	r1, r2	@ D.6780, D.7560
 1337 0774 07F52072 		add	r2, r7, #640	@ tmp1134,,
 1338 0778 1160     		str	r1, [r2, #0]	@ D.6780, value
 1339              	.LBE630:
 1340              	.LBB633:
 1341              	.LBB634:
 1342              	.LBB635:
 666:Drivers/CMSIS/Include/core_cmInstr.h ****   __ASM volatile ("clz %0, %1" : "=r" (result) : "r" (value) );
 1343              		.loc 2 666 0 discriminator 4
 1344 077a 07F52072 		add	r2, r7, #640	@ tmp1137,,
 1345 077e 1268     		ldr	r2, [r2, #0]	@ tmp1138, value
 1346              	@ 666 "Drivers/CMSIS/Include/core_cmInstr.h" 1
 1347 0780 B2FA82F4 		clz r4, r2	@ result, tmp1138
 1348              	@ 0 "" 2
 1349              		.thumb
 1350 0784 07F51F72 		add	r2, r7, #636	@ tmp1140,,
 1351 0788 1460     		str	r4, [r2, #0]	@ result, result
 1352              		.loc 2 667 0 discriminator 4
 1353 078a 07F51F72 		add	r2, r7, #636	@ tmp1142,,
 1354 078e 1268     		ldr	r2, [r2, #0]	@ tmp1143, result
 1355 0790 D2B2     		uxtb	r2, r2	@ D.7566, tmp1143
 1356              	.LBE635:
 1357              	.LBE634:
 1358              	.LBE633:
 396:Drivers/STM32L1xx_HAL_Driver/stm32l1xx_hal_rcc.cpp ****         while(__HAL_RCC_GET_FLAG(RCC_FLAG_HSIRDY) != RESET)
 1359              		.loc 1 396 0 discriminator 4
 1360 0792 02F01F02 		and	r2, r2, #31	@ D.6783, D.6782,
 1361 0796 23FA02F3 		lsr	r3, r3, r2	@ D.6784, iftmp.69, D.6783
 1362 079a 03F00103 		and	r3, r3, #1	@ D.6785, D.6784,
ARM GAS  /tmp/ccn09EVD.s 			page 45


 1363 079e 002B     		cmp	r3, #0	@ D.6785,
 1364 07a0 0CBF     		ite	eq	@
 1365 07a2 0023     		moveq	r3, #0	@, tmp1145
 1366 07a4 0123     		movne	r3, #1	@, tmp1145
 1367 07a6 DBB2     		uxtb	r3, r3	@ retval.68, tmp1144
 1368 07a8 002B     		cmp	r3, #0	@ retval.68,
 1369 07aa 8FD1     		bne	.L84	@,
 1370              	.L46:
 401:Drivers/STM32L1xx_HAL_Driver/stm32l1xx_hal_rcc.cpp ****           }
 402:Drivers/STM32L1xx_HAL_Driver/stm32l1xx_hal_rcc.cpp ****         }
 403:Drivers/STM32L1xx_HAL_Driver/stm32l1xx_hal_rcc.cpp ****       }
 404:Drivers/STM32L1xx_HAL_Driver/stm32l1xx_hal_rcc.cpp ****     }
 405:Drivers/STM32L1xx_HAL_Driver/stm32l1xx_hal_rcc.cpp ****   }
 406:Drivers/STM32L1xx_HAL_Driver/stm32l1xx_hal_rcc.cpp ****   /*----------------------------- MSI Configuration --------------------------*/ 
 407:Drivers/STM32L1xx_HAL_Driver/stm32l1xx_hal_rcc.cpp ****   if(((RCC_OscInitStruct->OscillatorType) & RCC_OSCILLATORTYPE_MSI) == RCC_OSCILLATORTYPE_MSI)
 1371              		.loc 1 407 0
 1372 07ac 07F10403 		add	r3, r7, #4	@ tmp1148,,
 1373 07b0 1B68     		ldr	r3, [r3, #0]	@ tmp1146, RCC_OscInitStruct
 1374 07b2 1B68     		ldr	r3, [r3, #0]	@ D.6792, RCC_OscInitStruct_26(D)->OscillatorType
 1375 07b4 03F01003 		and	r3, r3, #16	@ D.6793, D.6792,
 1376 07b8 002B     		cmp	r3, #0	@ D.6793,
 1377 07ba 00F03682 		beq	.L85	@,
 408:Drivers/STM32L1xx_HAL_Driver/stm32l1xx_hal_rcc.cpp ****   {
 409:Drivers/STM32L1xx_HAL_Driver/stm32l1xx_hal_rcc.cpp ****     /* Check the parameters */
 410:Drivers/STM32L1xx_HAL_Driver/stm32l1xx_hal_rcc.cpp ****     assert_param(IS_RCC_MSI(RCC_OscInitStruct->MSIState));
 411:Drivers/STM32L1xx_HAL_Driver/stm32l1xx_hal_rcc.cpp ****     assert_param(IS_RCC_MSIRANGE(RCC_OscInitStruct->MSIClockRange));
 412:Drivers/STM32L1xx_HAL_Driver/stm32l1xx_hal_rcc.cpp ****     
 413:Drivers/STM32L1xx_HAL_Driver/stm32l1xx_hal_rcc.cpp ****     /* Configures the Internal Multi Speed oscillator (MSI) clock range. */
 414:Drivers/STM32L1xx_HAL_Driver/stm32l1xx_hal_rcc.cpp ****     __HAL_RCC_MSI_RANGE_CONFIG(RCC_OscInitStruct->MSIClockRange);
 1378              		.loc 1 414 0
 1379 07be 4FF46053 		mov	r3, #14336	@ D.6796,
 1380 07c2 C4F20203 		movt	r3, 16386	@ D.6796,
 1381 07c6 4FF46052 		mov	r2, #14336	@ D.6797,
 1382 07ca C4F20202 		movt	r2, 16386	@ D.6797,
 1383 07ce 5268     		ldr	r2, [r2, #4]	@ D.6798, D.6797_243->ICSCR
 1384 07d0 22F46041 		bic	r1, r2, #57344	@ D.6799, D.6798,
 1385 07d4 07F10402 		add	r2, r7, #4	@ tmp1151,,
 1386 07d8 1268     		ldr	r2, [r2, #0]	@ tmp1149, RCC_OscInitStruct
 1387 07da 126A     		ldr	r2, [r2, #32]	@ D.6800, RCC_OscInitStruct_26(D)->MSIClockRange
 1388 07dc 0A43     		orrs	r2, r2, r1	@, D.6801, D.6800, D.6799
 1389 07de 5A60     		str	r2, [r3, #4]	@ D.6801, D.6796_242->ICSCR
 415:Drivers/STM32L1xx_HAL_Driver/stm32l1xx_hal_rcc.cpp ****     
 416:Drivers/STM32L1xx_HAL_Driver/stm32l1xx_hal_rcc.cpp ****     /* Check if MSI is used as system clock */
 417:Drivers/STM32L1xx_HAL_Driver/stm32l1xx_hal_rcc.cpp ****     if((__HAL_RCC_GET_SYSCLK_SOURCE() == RCC_CFGR_SWS_MSI))
 1390              		.loc 1 417 0
 1391 07e0 4FF46053 		mov	r3, #14336	@ D.6803,
 1392 07e4 C4F20203 		movt	r3, 16386	@ D.6803,
 1393 07e8 9B68     		ldr	r3, [r3, #8]	@ D.6804, D.6803_248->CFGR
 1394 07ea 03F00C03 		and	r3, r3, #12	@ D.6805, D.6804,
 1395 07ee 002B     		cmp	r3, #0	@ D.6805,
 1396 07f0 14BF     		ite	ne	@
 1397 07f2 0023     		movne	r3, #0	@, tmp1153
 1398 07f4 0123     		moveq	r3, #1	@, tmp1153
 1399 07f6 DBB2     		uxtb	r3, r3	@ retval.71, tmp1152
 1400 07f8 002B     		cmp	r3, #0	@ retval.71,
 1401 07fa 00F09F80 		beq	.L86	@,
 1402 07fe 07F51E73 		add	r3, r7, #632	@ tmp1155,,
ARM GAS  /tmp/ccn09EVD.s 			page 46


 1403 0802 4FF40072 		mov	r2, #512	@ tmp1156,
 1404 0806 1A60     		str	r2, [r3, #0]	@ tmp1156, value
 1405              	.LBB636:
 1406              	.LBB637:
 1407              	.LBB638:
 491:Drivers/CMSIS/Include/core_cmInstr.h ****    __ASM volatile ("rbit %0, %1" : "=r" (result) : "r" (value) );
 1408              		.loc 2 491 0
 1409 0808 07F51E73 		add	r3, r7, #632	@ tmp1159,,
 1410 080c 1B68     		ldr	r3, [r3, #0]	@ tmp1160, value
 1411              	@ 491 "Drivers/CMSIS/Include/core_cmInstr.h" 1
 1412 080e 93FAA3F4 		rbit r4, r3	@ result, tmp1160
 1413              	@ 0 "" 2
 1414              		.thumb
 1415 0812 07F51D73 		add	r3, r7, #628	@ tmp1162,,
 1416 0816 1C60     		str	r4, [r3, #0]	@ result, result
 492:Drivers/CMSIS/Include/core_cmInstr.h ****    return(result);
 1417              		.loc 2 492 0
 1418 0818 07F51D73 		add	r3, r7, #628	@ tmp1164,,
 1419 081c 1B68     		ldr	r3, [r3, #0]	@ D.7571, result
 1420              	.LBE638:
 1421              	.LBE637:
 418:Drivers/STM32L1xx_HAL_Driver/stm32l1xx_hal_rcc.cpp ****     {
 419:Drivers/STM32L1xx_HAL_Driver/stm32l1xx_hal_rcc.cpp ****       /* When MSI is used as system clock it will not disabled */
 420:Drivers/STM32L1xx_HAL_Driver/stm32l1xx_hal_rcc.cpp ****       if((__HAL_RCC_GET_FLAG(RCC_FLAG_MSIRDY) != RESET) && (RCC_OscInitStruct->MSIState != RCC_MSI_
 1422              		.loc 1 420 0
 1423 081e 1A46     		mov	r2, r3	@ D.6813, D.7570
 1424 0820 07F51C73 		add	r3, r7, #624	@ tmp1166,,
 1425 0824 1A60     		str	r2, [r3, #0]	@ D.6813, value
 1426              	.LBE636:
 1427              	.LBB639:
 1428              	.LBB640:
 1429              	.LBB641:
 666:Drivers/CMSIS/Include/core_cmInstr.h ****   __ASM volatile ("clz %0, %1" : "=r" (result) : "r" (value) );
 1430              		.loc 2 666 0
 1431 0826 07F51C73 		add	r3, r7, #624	@ tmp1169,,
 1432 082a 1B68     		ldr	r3, [r3, #0]	@ tmp1170, value
 1433              	@ 666 "Drivers/CMSIS/Include/core_cmInstr.h" 1
 1434 082c B3FA83F4 		clz r4, r3	@ result, tmp1170
 1435              	@ 0 "" 2
 1436              		.thumb
 1437 0830 07F51B73 		add	r3, r7, #620	@ tmp1172,,
 1438 0834 1C60     		str	r4, [r3, #0]	@ result, result
 1439              		.loc 2 667 0
 1440 0836 07F51B73 		add	r3, r7, #620	@ tmp1174,,
 1441 083a 1B68     		ldr	r3, [r3, #0]	@ tmp1175, result
 1442 083c DBB2     		uxtb	r3, r3	@ D.7576, tmp1175
 1443              	.LBE641:
 1444              	.LBE640:
 1445              	.LBE639:
 1446              		.loc 1 420 0
 1447 083e 43F02003 		orr	r3, r3, #32	@ tmp1176, D.6814,
 1448 0842 DBB2     		uxtb	r3, r3	@ D.6815, tmp1176
 1449 0844 4FEA6313 		asr	r3, r3, #5	@ D.6817, D.6816,
 1450 0848 012B     		cmp	r3, #1	@ D.6817,
 1451 084a 05D1     		bne	.L89	@,
 1452              		.loc 1 420 0 is_stmt 0 discriminator 1
 1453 084c 4FF46053 		mov	r3, #14336	@ D.6820,
ARM GAS  /tmp/ccn09EVD.s 			page 47


 1454 0850 C4F20203 		movt	r3, 16386	@ D.6820,
 1455 0854 1B68     		ldr	r3, [r3, #0]	@ iftmp.74, D.6820_257->CR
 1456 0856 04E0     		b	.L90	@
 1457              	.L89:
 1458              		.loc 1 420 0 discriminator 2
 1459 0858 4FF46053 		mov	r3, #14336	@ D.6822,
 1460 085c C4F20203 		movt	r3, 16386	@ D.6822,
 1461 0860 5B6B     		ldr	r3, [r3, #52]	@ iftmp.74, D.6822_259->CSR
 1462              	.L90:
 1463 0862 07F51A72 		add	r2, r7, #616	@ tmp1178,,
 1464 0866 4FF40071 		mov	r1, #512	@ tmp1179,
 1465 086a 1160     		str	r1, [r2, #0]	@ tmp1179, value
 1466              	.LBB642:
 1467              	.LBB643:
 1468              	.LBB644:
 491:Drivers/CMSIS/Include/core_cmInstr.h ****    __ASM volatile ("rbit %0, %1" : "=r" (result) : "r" (value) );
 1469              		.loc 2 491 0 is_stmt 1 discriminator 3
 1470 086c 07F51A72 		add	r2, r7, #616	@ tmp1182,,
 1471 0870 1268     		ldr	r2, [r2, #0]	@ tmp1183, value
 1472              	@ 491 "Drivers/CMSIS/Include/core_cmInstr.h" 1
 1473 0872 92FAA2F4 		rbit r4, r2	@ result, tmp1183
 1474              	@ 0 "" 2
 1475              		.thumb
 1476 0876 07F51972 		add	r2, r7, #612	@ tmp1185,,
 1477 087a 1460     		str	r4, [r2, #0]	@ result, result
 492:Drivers/CMSIS/Include/core_cmInstr.h ****    return(result);
 1478              		.loc 2 492 0 discriminator 3
 1479 087c 07F51972 		add	r2, r7, #612	@ tmp1187,,
 1480 0880 1268     		ldr	r2, [r2, #0]	@ D.7581, result
 1481              	.LBE644:
 1482              	.LBE643:
 1483              		.loc 1 420 0 discriminator 3
 1484 0882 1146     		mov	r1, r2	@ D.6823, D.7580
 1485 0884 07F51872 		add	r2, r7, #608	@ tmp1189,,
 1486 0888 1160     		str	r1, [r2, #0]	@ D.6823, value
 1487              	.LBE642:
 1488              	.LBB645:
 1489              	.LBB646:
 1490              	.LBB647:
 666:Drivers/CMSIS/Include/core_cmInstr.h ****   __ASM volatile ("clz %0, %1" : "=r" (result) : "r" (value) );
 1491              		.loc 2 666 0 discriminator 3
 1492 088a 07F51872 		add	r2, r7, #608	@ tmp1192,,
 1493 088e 1268     		ldr	r2, [r2, #0]	@ tmp1193, value
 1494              	@ 666 "Drivers/CMSIS/Include/core_cmInstr.h" 1
 1495 0890 B2FA82F4 		clz r4, r2	@ result, tmp1193
 1496              	@ 0 "" 2
 1497              		.thumb
 1498 0894 07F51772 		add	r2, r7, #604	@ tmp1195,,
 1499 0898 1460     		str	r4, [r2, #0]	@ result, result
 1500              		.loc 2 667 0 discriminator 3
 1501 089a 07F51772 		add	r2, r7, #604	@ tmp1197,,
 1502 089e 1268     		ldr	r2, [r2, #0]	@ tmp1198, result
 1503 08a0 D2B2     		uxtb	r2, r2	@ D.7586, tmp1198
 1504              	.LBE647:
 1505              	.LBE646:
 1506              	.LBE645:
 1507              		.loc 1 420 0 discriminator 3
ARM GAS  /tmp/ccn09EVD.s 			page 48


 1508 08a2 02F01F02 		and	r2, r2, #31	@ D.6826, D.6825,
 1509 08a6 23FA02F3 		lsr	r3, r3, r2	@ D.6827, iftmp.74, D.6826
 1510 08aa 03F00103 		and	r3, r3, #1	@ D.6828, D.6827,
 1511 08ae 002B     		cmp	r3, #0	@ D.6828,
 1512 08b0 08D0     		beq	.L93	@,
 1513              		.loc 1 420 0 is_stmt 0 discriminator 4
 1514 08b2 07F10403 		add	r3, r7, #4	@ tmp1201,,
 1515 08b6 1B68     		ldr	r3, [r3, #0]	@ tmp1199, RCC_OscInitStruct
 1516 08b8 9B69     		ldr	r3, [r3, #24]	@ D.6830, RCC_OscInitStruct_26(D)->MSIState
 1517 08ba 012B     		cmp	r3, #1	@ D.6830,
 1518 08bc 02D0     		beq	.L93	@,
 1519              		.loc 1 420 0 discriminator 6
 1520 08be 4FF00103 		mov	r3, #1	@ iftmp.73,
 1521 08c2 01E0     		b	.L94	@
 1522              	.L93:
 1523              		.loc 1 420 0 discriminator 5
 1524 08c4 4FF00003 		mov	r3, #0	@ iftmp.73,
 1525              	.L94:
 1526              		.loc 1 420 0 discriminator 7
 1527 08c8 002B     		cmp	r3, #0	@ retval.72,
 1528 08ca 03D0     		beq	.L95	@,
 421:Drivers/STM32L1xx_HAL_Driver/stm32l1xx_hal_rcc.cpp ****       {
 422:Drivers/STM32L1xx_HAL_Driver/stm32l1xx_hal_rcc.cpp ****         return HAL_ERROR;
 1529              		.loc 1 422 0 is_stmt 1
 1530 08cc 4FF00103 		mov	r3, #1	@ D.6563,
 1531 08d0 01F027B8 		b	.L20	@
 1532              	.L95:
 423:Drivers/STM32L1xx_HAL_Driver/stm32l1xx_hal_rcc.cpp ****       }
 424:Drivers/STM32L1xx_HAL_Driver/stm32l1xx_hal_rcc.cpp ****       /* Otherwise, just the calibration is allowed */
 425:Drivers/STM32L1xx_HAL_Driver/stm32l1xx_hal_rcc.cpp ****       else
 426:Drivers/STM32L1xx_HAL_Driver/stm32l1xx_hal_rcc.cpp ****       {
 427:Drivers/STM32L1xx_HAL_Driver/stm32l1xx_hal_rcc.cpp ****         /* Adjusts the Multi Speed oscillator (MSI) calibration value. */
 428:Drivers/STM32L1xx_HAL_Driver/stm32l1xx_hal_rcc.cpp ****         __HAL_RCC_MSI_CALIBRATIONVALUE_ADJUST(RCC_OscInitStruct->MSICalibrationValue);
 1533              		.loc 1 428 0
 1534 08d4 4FF46053 		mov	r3, #14336	@ D.6834,
 1535 08d8 C4F20203 		movt	r3, 16386	@ D.6834,
 1536 08dc 4FF46052 		mov	r2, #14336	@ D.6835,
 1537 08e0 C4F20202 		movt	r2, 16386	@ D.6835,
 1538 08e4 5268     		ldr	r2, [r2, #4]	@ D.6836, D.6835_273->ICSCR
 1539 08e6 22F07F41 		bic	r1, r2, #-16777216	@ D.6837, D.6836,
 1540 08ea 07F10402 		add	r2, r7, #4	@ tmp1204,,
 1541 08ee 1268     		ldr	r2, [r2, #0]	@ tmp1202, RCC_OscInitStruct
 1542 08f0 D069     		ldr	r0, [r2, #28]	@ D.6838, RCC_OscInitStruct_26(D)->MSICalibrationValue
 1543 08f2 07F51672 		add	r2, r7, #600	@ tmp1206,,
 1544 08f6 4FF07F44 		mov	r4, #-16777216	@ tmp1207,
 1545 08fa 1460     		str	r4, [r2, #0]	@ tmp1207, value
 1546              	.LBB648:
 1547              	.LBB649:
 1548              	.LBB650:
 491:Drivers/CMSIS/Include/core_cmInstr.h ****    __ASM volatile ("rbit %0, %1" : "=r" (result) : "r" (value) );
 1549              		.loc 2 491 0
 1550 08fc 07F51672 		add	r2, r7, #600	@ tmp1210,,
 1551 0900 1268     		ldr	r2, [r2, #0]	@ tmp1211, value
 1552              	@ 491 "Drivers/CMSIS/Include/core_cmInstr.h" 1
 1553 0902 92FAA2F4 		rbit r4, r2	@ result, tmp1211
 1554              	@ 0 "" 2
 1555              		.thumb
ARM GAS  /tmp/ccn09EVD.s 			page 49


 1556 0906 07F51572 		add	r2, r7, #596	@ tmp1213,,
 1557 090a 1460     		str	r4, [r2, #0]	@ result, result
 492:Drivers/CMSIS/Include/core_cmInstr.h ****    return(result);
 1558              		.loc 2 492 0
 1559 090c 07F51572 		add	r2, r7, #596	@ tmp1215,,
 1560 0910 1268     		ldr	r2, [r2, #0]	@ D.7591, result
 1561              	.LBE650:
 1562              	.LBE649:
 1563              		.loc 1 428 0
 1564 0912 1446     		mov	r4, r2	@ D.6839, D.7590
 1565 0914 07F51472 		add	r2, r7, #592	@ tmp1217,,
 1566 0918 1460     		str	r4, [r2, #0]	@ D.6839, value
 1567              	.LBE648:
 1568              	.LBB651:
 1569              	.LBB652:
 1570              	.LBB653:
 666:Drivers/CMSIS/Include/core_cmInstr.h ****   __ASM volatile ("clz %0, %1" : "=r" (result) : "r" (value) );
 1571              		.loc 2 666 0
 1572 091a 07F51472 		add	r2, r7, #592	@ tmp1220,,
 1573 091e 1268     		ldr	r2, [r2, #0]	@ tmp1221, value
 1574              	@ 666 "Drivers/CMSIS/Include/core_cmInstr.h" 1
 1575 0920 B2FA82F4 		clz r4, r2	@ result, tmp1221
 1576              	@ 0 "" 2
 1577              		.thumb
 1578 0924 07F51372 		add	r2, r7, #588	@ tmp1223,,
 1579 0928 1460     		str	r4, [r2, #0]	@ result, result
 1580              		.loc 2 667 0
 1581 092a 07F51372 		add	r2, r7, #588	@ tmp1225,,
 1582 092e 1268     		ldr	r2, [r2, #0]	@ tmp1226, result
 1583 0930 D2B2     		uxtb	r2, r2	@ D.7596, tmp1226
 1584              	.LBE653:
 1585              	.LBE652:
 1586              	.LBE651:
 1587              		.loc 1 428 0
 1588 0932 00FA02F2 		lsl	r2, r0, r2	@ D.6842, D.6838, D.6841
 1589 0936 0A43     		orrs	r2, r2, r1	@, D.6843, D.6842, D.6837
 1590 0938 5A60     		str	r2, [r3, #4]	@ D.6843, D.6834_272->ICSCR
 1591 093a 76E1     		b	.L85	@
 1592              	.L86:
 429:Drivers/STM32L1xx_HAL_Driver/stm32l1xx_hal_rcc.cpp ****       }
 430:Drivers/STM32L1xx_HAL_Driver/stm32l1xx_hal_rcc.cpp ****     }
 431:Drivers/STM32L1xx_HAL_Driver/stm32l1xx_hal_rcc.cpp ****     else
 432:Drivers/STM32L1xx_HAL_Driver/stm32l1xx_hal_rcc.cpp ****     {
 433:Drivers/STM32L1xx_HAL_Driver/stm32l1xx_hal_rcc.cpp ****       /* Check the MSI State */
 434:Drivers/STM32L1xx_HAL_Driver/stm32l1xx_hal_rcc.cpp ****       if((RCC_OscInitStruct->MSIState)!= RCC_MSI_OFF)
 1593              		.loc 1 434 0
 1594 093c 07F10403 		add	r3, r7, #4	@ tmp1229,,
 1595 0940 1B68     		ldr	r3, [r3, #0]	@ tmp1227, RCC_OscInitStruct
 1596 0942 9B69     		ldr	r3, [r3, #24]	@ D.6845, RCC_OscInitStruct_26(D)->MSIState
 1597 0944 002B     		cmp	r3, #0	@ D.6845,
 1598 0946 00F0D280 		beq	.L98	@,
 1599 094a 07F51273 		add	r3, r7, #584	@ tmp1231,,
 1600 094e 4FF48072 		mov	r2, #256	@ tmp1232,
 1601 0952 1A60     		str	r2, [r3, #0]	@ tmp1232, value
 1602              	.LBB654:
 1603              	.LBB655:
 1604              	.LBB656:
ARM GAS  /tmp/ccn09EVD.s 			page 50


 491:Drivers/CMSIS/Include/core_cmInstr.h ****    __ASM volatile ("rbit %0, %1" : "=r" (result) : "r" (value) );
 1605              		.loc 2 491 0
 1606 0954 07F51273 		add	r3, r7, #584	@ tmp1235,,
 1607 0958 1B68     		ldr	r3, [r3, #0]	@ tmp1236, value
 1608              	@ 491 "Drivers/CMSIS/Include/core_cmInstr.h" 1
 1609 095a 93FAA3F4 		rbit r4, r3	@ result, tmp1236
 1610              	@ 0 "" 2
 1611              		.thumb
 1612 095e 07F51173 		add	r3, r7, #580	@ tmp1238,,
 1613 0962 1C60     		str	r4, [r3, #0]	@ result, result
 492:Drivers/CMSIS/Include/core_cmInstr.h ****    return(result);
 1614              		.loc 2 492 0
 1615 0964 07F51173 		add	r3, r7, #580	@ tmp1240,,
 1616 0968 1B68     		ldr	r3, [r3, #0]	@ D.7601, result
 1617              	.LBE656:
 1618              	.LBE655:
 435:Drivers/STM32L1xx_HAL_Driver/stm32l1xx_hal_rcc.cpp ****       {
 436:Drivers/STM32L1xx_HAL_Driver/stm32l1xx_hal_rcc.cpp ****         /* Enable the Multi Speed oscillator (MSI). */
 437:Drivers/STM32L1xx_HAL_Driver/stm32l1xx_hal_rcc.cpp ****         __HAL_RCC_MSI_ENABLE();
 1619              		.loc 1 437 0
 1620 096a 1A46     		mov	r2, r3	@ D.6848, D.7600
 1621 096c 07F51073 		add	r3, r7, #576	@ tmp1242,,
 1622 0970 1A60     		str	r2, [r3, #0]	@ D.6848, value
 1623              	.LBE654:
 1624              	.LBB657:
 1625              	.LBB658:
 1626              	.LBB659:
 666:Drivers/CMSIS/Include/core_cmInstr.h ****   __ASM volatile ("clz %0, %1" : "=r" (result) : "r" (value) );
 1627              		.loc 2 666 0
 1628 0972 07F51073 		add	r3, r7, #576	@ tmp1245,,
 1629 0976 1B68     		ldr	r3, [r3, #0]	@ tmp1246, value
 1630              	@ 666 "Drivers/CMSIS/Include/core_cmInstr.h" 1
 1631 0978 B3FA83F4 		clz r4, r3	@ result, tmp1246
 1632              	@ 0 "" 2
 1633              		.thumb
 1634 097c 07F50F73 		add	r3, r7, #572	@ tmp1248,,
 1635 0980 1C60     		str	r4, [r3, #0]	@ result, result
 1636              		.loc 2 667 0
 1637 0982 07F50F73 		add	r3, r7, #572	@ tmp1250,,
 1638 0986 1B68     		ldr	r3, [r3, #0]	@ tmp1251, result
 1639 0988 DBB2     		uxtb	r3, r3	@ D.7606, tmp1251
 1640              	.LBE659:
 1641              	.LBE658:
 1642              	.LBE657:
 1643              		.loc 1 437 0
 1644 098a 4FEA8303 		lsl	r3, r3, #2	@ D.6851, D.6850,
 1645 098e 03F18443 		add	r3, r3, #1107296256	@ D.6853, D.6852,
 1646 0992 03F58E03 		add	r3, r3, #4653056	@ D.6853, D.6853,
 1647 0996 4FF00102 		mov	r2, #1	@ tmp1252,
 1648 099a 1A60     		str	r2, [r3, #0]	@ tmp1252, *D.6854_289
 438:Drivers/STM32L1xx_HAL_Driver/stm32l1xx_hal_rcc.cpp ****         
 439:Drivers/STM32L1xx_HAL_Driver/stm32l1xx_hal_rcc.cpp ****         /* Get Start Tick*/
 440:Drivers/STM32L1xx_HAL_Driver/stm32l1xx_hal_rcc.cpp ****         tickstart = HAL_GetTick();
 1649              		.loc 1 440 0
 1650 099c FFF7FEFF 		bl	HAL_GetTick	@
 1651 09a0 C7F89C03 		str	r0, [r7, #924]	@, tickstart
 441:Drivers/STM32L1xx_HAL_Driver/stm32l1xx_hal_rcc.cpp ****         
ARM GAS  /tmp/ccn09EVD.s 			page 51


 442:Drivers/STM32L1xx_HAL_Driver/stm32l1xx_hal_rcc.cpp ****         /* Wait till MSI is ready */  
 443:Drivers/STM32L1xx_HAL_Driver/stm32l1xx_hal_rcc.cpp ****         while(__HAL_RCC_GET_FLAG(RCC_FLAG_MSIRDY) == RESET)
 1652              		.loc 1 443 0
 1653 09a4 10E0     		b	.L101	@
 1654              	.L108:
 444:Drivers/STM32L1xx_HAL_Driver/stm32l1xx_hal_rcc.cpp ****         {
 445:Drivers/STM32L1xx_HAL_Driver/stm32l1xx_hal_rcc.cpp ****           if((HAL_GetTick() - tickstart ) > MSI_TIMEOUT_VALUE)
 1655              		.loc 1 445 0
 1656 09a6 FFF7FEFF 		bl	HAL_GetTick	@
 1657 09aa 0246     		mov	r2, r0	@ D.6877,
 1658 09ac D7F89C33 		ldr	r3, [r7, #924]	@ tmp1253, tickstart
 1659 09b0 D31A     		subs	r3, r2, r3	@ D.6878, D.6877, tmp1253
 1660 09b2 642B     		cmp	r3, #100	@ D.6878,
 1661 09b4 94BF     		ite	ls	@
 1662 09b6 0023     		movls	r3, #0	@, tmp1255
 1663 09b8 0123     		movhi	r3, #1	@, tmp1255
 1664 09ba DBB2     		uxtb	r3, r3	@ retval.77, tmp1254
 1665 09bc 002B     		cmp	r3, #0	@ retval.77,
 1666 09be 03D0     		beq	.L101	@,
 446:Drivers/STM32L1xx_HAL_Driver/stm32l1xx_hal_rcc.cpp ****           {
 447:Drivers/STM32L1xx_HAL_Driver/stm32l1xx_hal_rcc.cpp ****             return HAL_TIMEOUT;
 1667              		.loc 1 447 0
 1668 09c0 4FF00303 		mov	r3, #3	@ D.6563,
 1669 09c4 00F0ADBF 		b	.L20	@
 1670              	.L101:
 1671 09c8 07F50E73 		add	r3, r7, #568	@ tmp1257,,
 1672 09cc 4FF40072 		mov	r2, #512	@ tmp1258,
 1673 09d0 1A60     		str	r2, [r3, #0]	@ tmp1258, value
 1674              	.LBB660:
 1675              	.LBB661:
 1676              	.LBB662:
 491:Drivers/CMSIS/Include/core_cmInstr.h ****    __ASM volatile ("rbit %0, %1" : "=r" (result) : "r" (value) );
 1677              		.loc 2 491 0 discriminator 1
 1678 09d2 07F50E73 		add	r3, r7, #568	@ tmp1261,,
 1679 09d6 1B68     		ldr	r3, [r3, #0]	@ tmp1262, value
 1680              	@ 491 "Drivers/CMSIS/Include/core_cmInstr.h" 1
 1681 09d8 93FAA3F4 		rbit r4, r3	@ result, tmp1262
 1682              	@ 0 "" 2
 1683              		.thumb
 1684 09dc 07F50D73 		add	r3, r7, #564	@ tmp1264,,
 1685 09e0 1C60     		str	r4, [r3, #0]	@ result, result
 492:Drivers/CMSIS/Include/core_cmInstr.h ****    return(result);
 1686              		.loc 2 492 0 discriminator 1
 1687 09e2 07F50D73 		add	r3, r7, #564	@ tmp1266,,
 1688 09e6 1B68     		ldr	r3, [r3, #0]	@ D.7611, result
 1689              	.LBE662:
 1690              	.LBE661:
 443:Drivers/STM32L1xx_HAL_Driver/stm32l1xx_hal_rcc.cpp ****         while(__HAL_RCC_GET_FLAG(RCC_FLAG_MSIRDY) == RESET)
 1691              		.loc 1 443 0 discriminator 1
 1692 09e8 1A46     		mov	r2, r3	@ D.6860, D.7610
 1693 09ea 07F50C73 		add	r3, r7, #560	@ tmp1268,,
 1694 09ee 1A60     		str	r2, [r3, #0]	@ D.6860, value
 1695              	.LBE660:
 1696              	.LBB663:
 1697              	.LBB664:
 1698              	.LBB665:
 666:Drivers/CMSIS/Include/core_cmInstr.h ****   __ASM volatile ("clz %0, %1" : "=r" (result) : "r" (value) );
ARM GAS  /tmp/ccn09EVD.s 			page 52


 1699              		.loc 2 666 0 discriminator 1
 1700 09f0 07F50C73 		add	r3, r7, #560	@ tmp1271,,
 1701 09f4 1B68     		ldr	r3, [r3, #0]	@ tmp1272, value
 1702              	@ 666 "Drivers/CMSIS/Include/core_cmInstr.h" 1
 1703 09f6 B3FA83F4 		clz r4, r3	@ result, tmp1272
 1704              	@ 0 "" 2
 1705              		.thumb
 1706 09fa 07F50B73 		add	r3, r7, #556	@ tmp1274,,
 1707 09fe 1C60     		str	r4, [r3, #0]	@ result, result
 1708              		.loc 2 667 0 discriminator 1
 1709 0a00 07F50B73 		add	r3, r7, #556	@ tmp1276,,
 1710 0a04 1B68     		ldr	r3, [r3, #0]	@ tmp1277, result
 1711 0a06 DBB2     		uxtb	r3, r3	@ D.7616, tmp1277
 1712              	.LBE665:
 1713              	.LBE664:
 1714              	.LBE663:
 443:Drivers/STM32L1xx_HAL_Driver/stm32l1xx_hal_rcc.cpp ****         while(__HAL_RCC_GET_FLAG(RCC_FLAG_MSIRDY) == RESET)
 1715              		.loc 1 443 0 discriminator 1
 1716 0a08 43F02003 		orr	r3, r3, #32	@ tmp1278, D.6861,
 1717 0a0c DBB2     		uxtb	r3, r3	@ D.6862, tmp1278
 1718 0a0e 4FEA6313 		asr	r3, r3, #5	@ D.6864, D.6863,
 1719 0a12 012B     		cmp	r3, #1	@ D.6864,
 1720 0a14 05D1     		bne	.L104	@,
 443:Drivers/STM32L1xx_HAL_Driver/stm32l1xx_hal_rcc.cpp ****         while(__HAL_RCC_GET_FLAG(RCC_FLAG_MSIRDY) == RESET)
 1721              		.loc 1 443 0 is_stmt 0 discriminator 2
 1722 0a16 4FF46053 		mov	r3, #14336	@ D.6867,
 1723 0a1a C4F20203 		movt	r3, 16386	@ D.6867,
 1724 0a1e 1B68     		ldr	r3, [r3, #0]	@ iftmp.76, D.6867_296->CR
 1725 0a20 04E0     		b	.L105	@
 1726              	.L104:
 443:Drivers/STM32L1xx_HAL_Driver/stm32l1xx_hal_rcc.cpp ****         while(__HAL_RCC_GET_FLAG(RCC_FLAG_MSIRDY) == RESET)
 1727              		.loc 1 443 0 discriminator 3
 1728 0a22 4FF46053 		mov	r3, #14336	@ D.6869,
 1729 0a26 C4F20203 		movt	r3, 16386	@ D.6869,
 1730 0a2a 5B6B     		ldr	r3, [r3, #52]	@ iftmp.76, D.6869_298->CSR
 1731              	.L105:
 1732 0a2c 07F50A72 		add	r2, r7, #552	@ tmp1280,,
 1733 0a30 4FF40071 		mov	r1, #512	@ tmp1281,
 1734 0a34 1160     		str	r1, [r2, #0]	@ tmp1281, value
 1735              	.LBB666:
 1736              	.LBB667:
 1737              	.LBB668:
 491:Drivers/CMSIS/Include/core_cmInstr.h ****    __ASM volatile ("rbit %0, %1" : "=r" (result) : "r" (value) );
 1738              		.loc 2 491 0 is_stmt 1 discriminator 4
 1739 0a36 07F50A72 		add	r2, r7, #552	@ tmp1284,,
 1740 0a3a 1268     		ldr	r2, [r2, #0]	@ tmp1285, value
 1741              	@ 491 "Drivers/CMSIS/Include/core_cmInstr.h" 1
 1742 0a3c 92FAA2F4 		rbit r4, r2	@ result, tmp1285
 1743              	@ 0 "" 2
 1744              		.thumb
 1745 0a40 07F50972 		add	r2, r7, #548	@ tmp1287,,
 1746 0a44 1460     		str	r4, [r2, #0]	@ result, result
 492:Drivers/CMSIS/Include/core_cmInstr.h ****    return(result);
 1747              		.loc 2 492 0 discriminator 4
 1748 0a46 07F50972 		add	r2, r7, #548	@ tmp1289,,
 1749 0a4a 1268     		ldr	r2, [r2, #0]	@ D.7621, result
 1750              	.LBE668:
ARM GAS  /tmp/ccn09EVD.s 			page 53


 1751              	.LBE667:
 443:Drivers/STM32L1xx_HAL_Driver/stm32l1xx_hal_rcc.cpp ****         while(__HAL_RCC_GET_FLAG(RCC_FLAG_MSIRDY) == RESET)
 1752              		.loc 1 443 0 discriminator 4
 1753 0a4c 1146     		mov	r1, r2	@ D.6870, D.7620
 1754 0a4e 07F50872 		add	r2, r7, #544	@ tmp1291,,
 1755 0a52 1160     		str	r1, [r2, #0]	@ D.6870, value
 1756              	.LBE666:
 1757              	.LBB669:
 1758              	.LBB670:
 1759              	.LBB671:
 666:Drivers/CMSIS/Include/core_cmInstr.h ****   __ASM volatile ("clz %0, %1" : "=r" (result) : "r" (value) );
 1760              		.loc 2 666 0 discriminator 4
 1761 0a54 07F50872 		add	r2, r7, #544	@ tmp1294,,
 1762 0a58 1268     		ldr	r2, [r2, #0]	@ tmp1295, value
 1763              	@ 666 "Drivers/CMSIS/Include/core_cmInstr.h" 1
 1764 0a5a B2FA82F4 		clz r4, r2	@ result, tmp1295
 1765              	@ 0 "" 2
 1766              		.thumb
 1767 0a5e 07F50772 		add	r2, r7, #540	@ tmp1297,,
 1768 0a62 1460     		str	r4, [r2, #0]	@ result, result
 1769              		.loc 2 667 0 discriminator 4
 1770 0a64 07F50772 		add	r2, r7, #540	@ tmp1299,,
 1771 0a68 1268     		ldr	r2, [r2, #0]	@ tmp1300, result
 1772 0a6a D2B2     		uxtb	r2, r2	@ D.7626, tmp1300
 1773              	.LBE671:
 1774              	.LBE670:
 1775              	.LBE669:
 443:Drivers/STM32L1xx_HAL_Driver/stm32l1xx_hal_rcc.cpp ****         while(__HAL_RCC_GET_FLAG(RCC_FLAG_MSIRDY) == RESET)
 1776              		.loc 1 443 0 discriminator 4
 1777 0a6c 02F01F02 		and	r2, r2, #31	@ D.6873, D.6872,
 1778 0a70 23FA02F3 		lsr	r3, r3, r2	@ D.6874, iftmp.76, D.6873
 1779 0a74 03F00103 		and	r3, r3, #1	@ D.6875, D.6874,
 1780 0a78 002B     		cmp	r3, #0	@ D.6875,
 1781 0a7a 14BF     		ite	ne	@
 1782 0a7c 0023     		movne	r3, #0	@, tmp1302
 1783 0a7e 0123     		moveq	r3, #1	@, tmp1302
 1784 0a80 DBB2     		uxtb	r3, r3	@ retval.75, tmp1301
 1785 0a82 002B     		cmp	r3, #0	@ retval.75,
 1786 0a84 8FD1     		bne	.L108	@,
 448:Drivers/STM32L1xx_HAL_Driver/stm32l1xx_hal_rcc.cpp ****           }
 449:Drivers/STM32L1xx_HAL_Driver/stm32l1xx_hal_rcc.cpp ****         }
 450:Drivers/STM32L1xx_HAL_Driver/stm32l1xx_hal_rcc.cpp ****         
 451:Drivers/STM32L1xx_HAL_Driver/stm32l1xx_hal_rcc.cpp ****         /* Adjusts the Multi Speed oscillator (MSI) calibration value. */
 452:Drivers/STM32L1xx_HAL_Driver/stm32l1xx_hal_rcc.cpp ****         __HAL_RCC_MSI_CALIBRATIONVALUE_ADJUST(RCC_OscInitStruct->MSICalibrationValue);
 1787              		.loc 1 452 0
 1788 0a86 4FF46053 		mov	r3, #14336	@ D.6881,
 1789 0a8a C4F20203 		movt	r3, 16386	@ D.6881,
 1790 0a8e 4FF46052 		mov	r2, #14336	@ D.6882,
 1791 0a92 C4F20202 		movt	r2, 16386	@ D.6882,
 1792 0a96 5268     		ldr	r2, [r2, #4]	@ D.6883, D.6882_312->ICSCR
 1793 0a98 22F07F41 		bic	r1, r2, #-16777216	@ D.6884, D.6883,
 1794 0a9c 07F10402 		add	r2, r7, #4	@ tmp1305,,
 1795 0aa0 1268     		ldr	r2, [r2, #0]	@ tmp1303, RCC_OscInitStruct
 1796 0aa2 D069     		ldr	r0, [r2, #28]	@ D.6885, RCC_OscInitStruct_26(D)->MSICalibrationValue
 1797 0aa4 07F50672 		add	r2, r7, #536	@ tmp1307,,
 1798 0aa8 4FF07F44 		mov	r4, #-16777216	@ tmp1308,
 1799 0aac 1460     		str	r4, [r2, #0]	@ tmp1308, value
ARM GAS  /tmp/ccn09EVD.s 			page 54


 1800              	.LBB672:
 1801              	.LBB673:
 1802              	.LBB674:
 491:Drivers/CMSIS/Include/core_cmInstr.h ****    __ASM volatile ("rbit %0, %1" : "=r" (result) : "r" (value) );
 1803              		.loc 2 491 0
 1804 0aae 07F50672 		add	r2, r7, #536	@ tmp1311,,
 1805 0ab2 1268     		ldr	r2, [r2, #0]	@ tmp1312, value
 1806              	@ 491 "Drivers/CMSIS/Include/core_cmInstr.h" 1
 1807 0ab4 92FAA2F4 		rbit r4, r2	@ result, tmp1312
 1808              	@ 0 "" 2
 1809              		.thumb
 1810 0ab8 07F50572 		add	r2, r7, #532	@ tmp1314,,
 1811 0abc 1460     		str	r4, [r2, #0]	@ result, result
 492:Drivers/CMSIS/Include/core_cmInstr.h ****    return(result);
 1812              		.loc 2 492 0
 1813 0abe 07F50572 		add	r2, r7, #532	@ tmp1316,,
 1814 0ac2 1268     		ldr	r2, [r2, #0]	@ D.7631, result
 1815              	.LBE674:
 1816              	.LBE673:
 1817              		.loc 1 452 0
 1818 0ac4 1446     		mov	r4, r2	@ D.6886, D.7630
 1819 0ac6 07F50472 		add	r2, r7, #528	@ tmp1318,,
 1820 0aca 1460     		str	r4, [r2, #0]	@ D.6886, value
 1821              	.LBE672:
 1822              	.LBB675:
 1823              	.LBB676:
 1824              	.LBB677:
 666:Drivers/CMSIS/Include/core_cmInstr.h ****   __ASM volatile ("clz %0, %1" : "=r" (result) : "r" (value) );
 1825              		.loc 2 666 0
 1826 0acc 07F50472 		add	r2, r7, #528	@ tmp1321,,
 1827 0ad0 1268     		ldr	r2, [r2, #0]	@ tmp1322, value
 1828              	@ 666 "Drivers/CMSIS/Include/core_cmInstr.h" 1
 1829 0ad2 B2FA82F4 		clz r4, r2	@ result, tmp1322
 1830              	@ 0 "" 2
 1831              		.thumb
 1832 0ad6 07F50372 		add	r2, r7, #524	@ tmp1324,,
 1833 0ada 1460     		str	r4, [r2, #0]	@ result, result
 1834              		.loc 2 667 0
 1835 0adc 07F50372 		add	r2, r7, #524	@ tmp1326,,
 1836 0ae0 1268     		ldr	r2, [r2, #0]	@ tmp1327, result
 1837 0ae2 D2B2     		uxtb	r2, r2	@ D.7636, tmp1327
 1838              	.LBE677:
 1839              	.LBE676:
 1840              	.LBE675:
 1841              		.loc 1 452 0
 1842 0ae4 00FA02F2 		lsl	r2, r0, r2	@ D.6889, D.6885, D.6888
 1843 0ae8 0A43     		orrs	r2, r2, r1	@, D.6890, D.6889, D.6884
 1844 0aea 5A60     		str	r2, [r3, #4]	@ D.6890, D.6881_311->ICSCR
 1845 0aec 9DE0     		b	.L85	@
 1846              	.L98:
 1847 0aee 07F50273 		add	r3, r7, #520	@ tmp1329,,
 1848 0af2 4FF48072 		mov	r2, #256	@ tmp1330,
 1849 0af6 1A60     		str	r2, [r3, #0]	@ tmp1330, value
 1850              	.LBB678:
 1851              	.LBB679:
 1852              	.LBB680:
 491:Drivers/CMSIS/Include/core_cmInstr.h ****    __ASM volatile ("rbit %0, %1" : "=r" (result) : "r" (value) );
ARM GAS  /tmp/ccn09EVD.s 			page 55


 1853              		.loc 2 491 0
 1854 0af8 07F50273 		add	r3, r7, #520	@ tmp1333,,
 1855 0afc 1B68     		ldr	r3, [r3, #0]	@ tmp1334, value
 1856              	@ 491 "Drivers/CMSIS/Include/core_cmInstr.h" 1
 1857 0afe 93FAA3F4 		rbit r4, r3	@ result, tmp1334
 1858              	@ 0 "" 2
 1859              		.thumb
 1860 0b02 07F50173 		add	r3, r7, #516	@ tmp1336,,
 1861 0b06 1C60     		str	r4, [r3, #0]	@ result, result
 492:Drivers/CMSIS/Include/core_cmInstr.h ****    return(result);
 1862              		.loc 2 492 0
 1863 0b08 07F50173 		add	r3, r7, #516	@ tmp1338,,
 1864 0b0c 1B68     		ldr	r3, [r3, #0]	@ D.7641, result
 1865              	.LBE680:
 1866              	.LBE679:
 453:Drivers/STM32L1xx_HAL_Driver/stm32l1xx_hal_rcc.cpp ****       }
 454:Drivers/STM32L1xx_HAL_Driver/stm32l1xx_hal_rcc.cpp ****       else
 455:Drivers/STM32L1xx_HAL_Driver/stm32l1xx_hal_rcc.cpp ****       {
 456:Drivers/STM32L1xx_HAL_Driver/stm32l1xx_hal_rcc.cpp ****         /* Disable the Multi Speed oscillator (MSI). */
 457:Drivers/STM32L1xx_HAL_Driver/stm32l1xx_hal_rcc.cpp ****         __HAL_RCC_MSI_DISABLE();
 1867              		.loc 1 457 0
 1868 0b0e 1A46     		mov	r2, r3	@ D.6892, D.7640
 1869 0b10 07F50073 		add	r3, r7, #512	@ tmp1340,,
 1870 0b14 1A60     		str	r2, [r3, #0]	@ D.6892, value
 1871              	.LBE678:
 1872              	.LBB681:
 1873              	.LBB682:
 1874              	.LBB683:
 666:Drivers/CMSIS/Include/core_cmInstr.h ****   __ASM volatile ("clz %0, %1" : "=r" (result) : "r" (value) );
 1875              		.loc 2 666 0
 1876 0b16 07F50073 		add	r3, r7, #512	@ tmp1343,,
 1877 0b1a 1B68     		ldr	r3, [r3, #0]	@ tmp1344, value
 1878              	@ 666 "Drivers/CMSIS/Include/core_cmInstr.h" 1
 1879 0b1c B3FA83F4 		clz r4, r3	@ result, tmp1344
 1880              	@ 0 "" 2
 1881              		.thumb
 1882 0b20 07F5FE73 		add	r3, r7, #508	@ tmp1346,,
 1883 0b24 1C60     		str	r4, [r3, #0]	@ result, result
 1884              		.loc 2 667 0
 1885 0b26 07F5FE73 		add	r3, r7, #508	@ tmp1348,,
 1886 0b2a 1B68     		ldr	r3, [r3, #0]	@ tmp1349, result
 1887 0b2c DBB2     		uxtb	r3, r3	@ D.7646, tmp1349
 1888              	.LBE683:
 1889              	.LBE682:
 1890              	.LBE681:
 1891              		.loc 1 457 0
 1892 0b2e 4FEA8303 		lsl	r3, r3, #2	@ D.6895, D.6894,
 1893 0b32 03F18443 		add	r3, r3, #1107296256	@ D.6897, D.6896,
 1894 0b36 03F58E03 		add	r3, r3, #4653056	@ D.6897, D.6897,
 1895 0b3a 4FF00002 		mov	r2, #0	@ tmp1350,
 1896 0b3e 1A60     		str	r2, [r3, #0]	@ tmp1350, *D.6898_327
 458:Drivers/STM32L1xx_HAL_Driver/stm32l1xx_hal_rcc.cpp ****         
 459:Drivers/STM32L1xx_HAL_Driver/stm32l1xx_hal_rcc.cpp ****         /* Get Start Tick*/
 460:Drivers/STM32L1xx_HAL_Driver/stm32l1xx_hal_rcc.cpp ****         tickstart = HAL_GetTick();
 1897              		.loc 1 460 0
 1898 0b40 FFF7FEFF 		bl	HAL_GetTick	@
 1899 0b44 C7F89C03 		str	r0, [r7, #924]	@, tickstart
ARM GAS  /tmp/ccn09EVD.s 			page 56


 461:Drivers/STM32L1xx_HAL_Driver/stm32l1xx_hal_rcc.cpp ****         
 462:Drivers/STM32L1xx_HAL_Driver/stm32l1xx_hal_rcc.cpp ****         /* Wait till MSI is ready */  
 463:Drivers/STM32L1xx_HAL_Driver/stm32l1xx_hal_rcc.cpp ****         while(__HAL_RCC_GET_FLAG(RCC_FLAG_MSIRDY) != RESET)
 1900              		.loc 1 463 0
 1901 0b48 10E0     		b	.L113	@
 1902              	.L120:
 464:Drivers/STM32L1xx_HAL_Driver/stm32l1xx_hal_rcc.cpp ****         {
 465:Drivers/STM32L1xx_HAL_Driver/stm32l1xx_hal_rcc.cpp ****           if((HAL_GetTick() - tickstart ) > MSI_TIMEOUT_VALUE)
 1903              		.loc 1 465 0
 1904 0b4a FFF7FEFF 		bl	HAL_GetTick	@
 1905 0b4e 0246     		mov	r2, r0	@ D.6921,
 1906 0b50 D7F89C33 		ldr	r3, [r7, #924]	@ tmp1351, tickstart
 1907 0b54 D31A     		subs	r3, r2, r3	@ D.6922, D.6921, tmp1351
 1908 0b56 642B     		cmp	r3, #100	@ D.6922,
 1909 0b58 94BF     		ite	ls	@
 1910 0b5a 0023     		movls	r3, #0	@, tmp1353
 1911 0b5c 0123     		movhi	r3, #1	@, tmp1353
 1912 0b5e DBB2     		uxtb	r3, r3	@ retval.80, tmp1352
 1913 0b60 002B     		cmp	r3, #0	@ retval.80,
 1914 0b62 03D0     		beq	.L113	@,
 466:Drivers/STM32L1xx_HAL_Driver/stm32l1xx_hal_rcc.cpp ****           {
 467:Drivers/STM32L1xx_HAL_Driver/stm32l1xx_hal_rcc.cpp ****             return HAL_TIMEOUT;
 1915              		.loc 1 467 0
 1916 0b64 4FF00303 		mov	r3, #3	@ D.6563,
 1917 0b68 00F0DBBE 		b	.L20	@
 1918              	.L113:
 1919 0b6c 07F5FC73 		add	r3, r7, #504	@ tmp1355,,
 1920 0b70 4FF40072 		mov	r2, #512	@ tmp1356,
 1921 0b74 1A60     		str	r2, [r3, #0]	@ tmp1356, value
 1922              	.LBB684:
 1923              	.LBB685:
 1924              	.LBB686:
 491:Drivers/CMSIS/Include/core_cmInstr.h ****    __ASM volatile ("rbit %0, %1" : "=r" (result) : "r" (value) );
 1925              		.loc 2 491 0 discriminator 1
 1926 0b76 07F5FC73 		add	r3, r7, #504	@ tmp1359,,
 1927 0b7a 1B68     		ldr	r3, [r3, #0]	@ tmp1360, value
 1928              	@ 491 "Drivers/CMSIS/Include/core_cmInstr.h" 1
 1929 0b7c 93FAA3F4 		rbit r4, r3	@ result, tmp1360
 1930              	@ 0 "" 2
 1931              		.thumb
 1932 0b80 07F5FA73 		add	r3, r7, #500	@ tmp1362,,
 1933 0b84 1C60     		str	r4, [r3, #0]	@ result, result
 492:Drivers/CMSIS/Include/core_cmInstr.h ****    return(result);
 1934              		.loc 2 492 0 discriminator 1
 1935 0b86 07F5FA73 		add	r3, r7, #500	@ tmp1364,,
 1936 0b8a 1B68     		ldr	r3, [r3, #0]	@ D.7651, result
 1937              	.LBE686:
 1938              	.LBE685:
 463:Drivers/STM32L1xx_HAL_Driver/stm32l1xx_hal_rcc.cpp ****         while(__HAL_RCC_GET_FLAG(RCC_FLAG_MSIRDY) != RESET)
 1939              		.loc 1 463 0 discriminator 1
 1940 0b8c 1A46     		mov	r2, r3	@ D.6904, D.7650
 1941 0b8e 07F5F873 		add	r3, r7, #496	@ tmp1366,,
 1942 0b92 1A60     		str	r2, [r3, #0]	@ D.6904, value
 1943              	.LBE684:
 1944              	.LBB687:
 1945              	.LBB688:
 1946              	.LBB689:
ARM GAS  /tmp/ccn09EVD.s 			page 57


 666:Drivers/CMSIS/Include/core_cmInstr.h ****   __ASM volatile ("clz %0, %1" : "=r" (result) : "r" (value) );
 1947              		.loc 2 666 0 discriminator 1
 1948 0b94 07F5F873 		add	r3, r7, #496	@ tmp1369,,
 1949 0b98 1B68     		ldr	r3, [r3, #0]	@ tmp1370, value
 1950              	@ 666 "Drivers/CMSIS/Include/core_cmInstr.h" 1
 1951 0b9a B3FA83F4 		clz r4, r3	@ result, tmp1370
 1952              	@ 0 "" 2
 1953              		.thumb
 1954 0b9e 07F5F673 		add	r3, r7, #492	@ tmp1372,,
 1955 0ba2 1C60     		str	r4, [r3, #0]	@ result, result
 1956              		.loc 2 667 0 discriminator 1
 1957 0ba4 07F5F673 		add	r3, r7, #492	@ tmp1374,,
 1958 0ba8 1B68     		ldr	r3, [r3, #0]	@ tmp1375, result
 1959 0baa DBB2     		uxtb	r3, r3	@ D.7656, tmp1375
 1960              	.LBE689:
 1961              	.LBE688:
 1962              	.LBE687:
 463:Drivers/STM32L1xx_HAL_Driver/stm32l1xx_hal_rcc.cpp ****         while(__HAL_RCC_GET_FLAG(RCC_FLAG_MSIRDY) != RESET)
 1963              		.loc 1 463 0 discriminator 1
 1964 0bac 43F02003 		orr	r3, r3, #32	@ tmp1376, D.6905,
 1965 0bb0 DBB2     		uxtb	r3, r3	@ D.6906, tmp1376
 1966 0bb2 4FEA6313 		asr	r3, r3, #5	@ D.6908, D.6907,
 1967 0bb6 012B     		cmp	r3, #1	@ D.6908,
 1968 0bb8 05D1     		bne	.L116	@,
 463:Drivers/STM32L1xx_HAL_Driver/stm32l1xx_hal_rcc.cpp ****         while(__HAL_RCC_GET_FLAG(RCC_FLAG_MSIRDY) != RESET)
 1969              		.loc 1 463 0 is_stmt 0 discriminator 2
 1970 0bba 4FF46053 		mov	r3, #14336	@ D.6911,
 1971 0bbe C4F20203 		movt	r3, 16386	@ D.6911,
 1972 0bc2 1B68     		ldr	r3, [r3, #0]	@ iftmp.79, D.6911_334->CR
 1973 0bc4 04E0     		b	.L117	@
 1974              	.L116:
 463:Drivers/STM32L1xx_HAL_Driver/stm32l1xx_hal_rcc.cpp ****         while(__HAL_RCC_GET_FLAG(RCC_FLAG_MSIRDY) != RESET)
 1975              		.loc 1 463 0 discriminator 3
 1976 0bc6 4FF46053 		mov	r3, #14336	@ D.6913,
 1977 0bca C4F20203 		movt	r3, 16386	@ D.6913,
 1978 0bce 5B6B     		ldr	r3, [r3, #52]	@ iftmp.79, D.6913_336->CSR
 1979              	.L117:
 1980 0bd0 07F5F472 		add	r2, r7, #488	@ tmp1378,,
 1981 0bd4 4FF40071 		mov	r1, #512	@ tmp1379,
 1982 0bd8 1160     		str	r1, [r2, #0]	@ tmp1379, value
 1983              	.LBB690:
 1984              	.LBB691:
 1985              	.LBB692:
 491:Drivers/CMSIS/Include/core_cmInstr.h ****    __ASM volatile ("rbit %0, %1" : "=r" (result) : "r" (value) );
 1986              		.loc 2 491 0 is_stmt 1 discriminator 4
 1987 0bda 07F5F472 		add	r2, r7, #488	@ tmp1382,,
 1988 0bde 1268     		ldr	r2, [r2, #0]	@ tmp1383, value
 1989              	@ 491 "Drivers/CMSIS/Include/core_cmInstr.h" 1
 1990 0be0 92FAA2F4 		rbit r4, r2	@ result, tmp1383
 1991              	@ 0 "" 2
 1992              		.thumb
 1993 0be4 07F5F272 		add	r2, r7, #484	@ tmp1385,,
 1994 0be8 1460     		str	r4, [r2, #0]	@ result, result
 492:Drivers/CMSIS/Include/core_cmInstr.h ****    return(result);
 1995              		.loc 2 492 0 discriminator 4
 1996 0bea 07F5F272 		add	r2, r7, #484	@ tmp1387,,
 1997 0bee 1268     		ldr	r2, [r2, #0]	@ D.7661, result
ARM GAS  /tmp/ccn09EVD.s 			page 58


 1998              	.LBE692:
 1999              	.LBE691:
 463:Drivers/STM32L1xx_HAL_Driver/stm32l1xx_hal_rcc.cpp ****         while(__HAL_RCC_GET_FLAG(RCC_FLAG_MSIRDY) != RESET)
 2000              		.loc 1 463 0 discriminator 4
 2001 0bf0 1146     		mov	r1, r2	@ D.6914, D.7660
 2002 0bf2 07F5F072 		add	r2, r7, #480	@ tmp1389,,
 2003 0bf6 1160     		str	r1, [r2, #0]	@ D.6914, value
 2004              	.LBE690:
 2005              	.LBB693:
 2006              	.LBB694:
 2007              	.LBB695:
 666:Drivers/CMSIS/Include/core_cmInstr.h ****   __ASM volatile ("clz %0, %1" : "=r" (result) : "r" (value) );
 2008              		.loc 2 666 0 discriminator 4
 2009 0bf8 07F5F072 		add	r2, r7, #480	@ tmp1392,,
 2010 0bfc 1268     		ldr	r2, [r2, #0]	@ tmp1393, value
 2011              	@ 666 "Drivers/CMSIS/Include/core_cmInstr.h" 1
 2012 0bfe B2FA82F4 		clz r4, r2	@ result, tmp1393
 2013              	@ 0 "" 2
 2014              		.thumb
 2015 0c02 07F5EE72 		add	r2, r7, #476	@ tmp1395,,
 2016 0c06 1460     		str	r4, [r2, #0]	@ result, result
 2017              		.loc 2 667 0 discriminator 4
 2018 0c08 07F5EE72 		add	r2, r7, #476	@ tmp1397,,
 2019 0c0c 1268     		ldr	r2, [r2, #0]	@ tmp1398, result
 2020 0c0e D2B2     		uxtb	r2, r2	@ D.7666, tmp1398
 2021              	.LBE695:
 2022              	.LBE694:
 2023              	.LBE693:
 463:Drivers/STM32L1xx_HAL_Driver/stm32l1xx_hal_rcc.cpp ****         while(__HAL_RCC_GET_FLAG(RCC_FLAG_MSIRDY) != RESET)
 2024              		.loc 1 463 0 discriminator 4
 2025 0c10 02F01F02 		and	r2, r2, #31	@ D.6917, D.6916,
 2026 0c14 23FA02F3 		lsr	r3, r3, r2	@ D.6918, iftmp.79, D.6917
 2027 0c18 03F00103 		and	r3, r3, #1	@ D.6919, D.6918,
 2028 0c1c 002B     		cmp	r3, #0	@ D.6919,
 2029 0c1e 0CBF     		ite	eq	@
 2030 0c20 0023     		moveq	r3, #0	@, tmp1400
 2031 0c22 0123     		movne	r3, #1	@, tmp1400
 2032 0c24 DBB2     		uxtb	r3, r3	@ retval.78, tmp1399
 2033 0c26 002B     		cmp	r3, #0	@ retval.78,
 2034 0c28 8FD1     		bne	.L120	@,
 2035              	.L85:
 468:Drivers/STM32L1xx_HAL_Driver/stm32l1xx_hal_rcc.cpp ****           }
 469:Drivers/STM32L1xx_HAL_Driver/stm32l1xx_hal_rcc.cpp ****         } 
 470:Drivers/STM32L1xx_HAL_Driver/stm32l1xx_hal_rcc.cpp ****       }
 471:Drivers/STM32L1xx_HAL_Driver/stm32l1xx_hal_rcc.cpp ****     }
 472:Drivers/STM32L1xx_HAL_Driver/stm32l1xx_hal_rcc.cpp ****   }  
 473:Drivers/STM32L1xx_HAL_Driver/stm32l1xx_hal_rcc.cpp ****   /*------------------------------ LSI Configuration -------------------------*/ 
 474:Drivers/STM32L1xx_HAL_Driver/stm32l1xx_hal_rcc.cpp ****   if(((RCC_OscInitStruct->OscillatorType) & RCC_OSCILLATORTYPE_LSI) == RCC_OSCILLATORTYPE_LSI)
 2036              		.loc 1 474 0
 2037 0c2a 07F10403 		add	r3, r7, #4	@ tmp1403,,
 2038 0c2e 1B68     		ldr	r3, [r3, #0]	@ tmp1401, RCC_OscInitStruct
 2039 0c30 1B68     		ldr	r3, [r3, #0]	@ D.6926, RCC_OscInitStruct_26(D)->OscillatorType
 2040 0c32 03F00803 		and	r3, r3, #8	@ D.6927, D.6926,
 2041 0c36 002B     		cmp	r3, #0	@ D.6927,
 2042 0c38 00F04881 		beq	.L121	@,
 475:Drivers/STM32L1xx_HAL_Driver/stm32l1xx_hal_rcc.cpp ****   {
 476:Drivers/STM32L1xx_HAL_Driver/stm32l1xx_hal_rcc.cpp ****     /* Check the parameters */
ARM GAS  /tmp/ccn09EVD.s 			page 59


 477:Drivers/STM32L1xx_HAL_Driver/stm32l1xx_hal_rcc.cpp ****     assert_param(IS_RCC_LSI(RCC_OscInitStruct->LSIState));
 478:Drivers/STM32L1xx_HAL_Driver/stm32l1xx_hal_rcc.cpp ****     
 479:Drivers/STM32L1xx_HAL_Driver/stm32l1xx_hal_rcc.cpp ****     /* Check the LSI State */
 480:Drivers/STM32L1xx_HAL_Driver/stm32l1xx_hal_rcc.cpp ****     if((RCC_OscInitStruct->LSIState)!= RCC_LSI_OFF)
 2043              		.loc 1 480 0
 2044 0c3c 07F10403 		add	r3, r7, #4	@ tmp1406,,
 2045 0c40 1B68     		ldr	r3, [r3, #0]	@ tmp1404, RCC_OscInitStruct
 2046 0c42 5B69     		ldr	r3, [r3, #20]	@ D.6930, RCC_OscInitStruct_26(D)->LSIState
 2047 0c44 002B     		cmp	r3, #0	@ D.6930,
 2048 0c46 00F0A180 		beq	.L122	@,
 2049 0c4a 07F5EC73 		add	r3, r7, #472	@ tmp1408,,
 2050 0c4e 4FF00102 		mov	r2, #1	@ tmp1409,
 2051 0c52 1A60     		str	r2, [r3, #0]	@ tmp1409, value
 2052              	.LBB696:
 2053              	.LBB697:
 2054              	.LBB698:
 491:Drivers/CMSIS/Include/core_cmInstr.h ****    __ASM volatile ("rbit %0, %1" : "=r" (result) : "r" (value) );
 2055              		.loc 2 491 0
 2056 0c54 07F5EC73 		add	r3, r7, #472	@ tmp1412,,
 2057 0c58 1B68     		ldr	r3, [r3, #0]	@ tmp1413, value
 2058              	@ 491 "Drivers/CMSIS/Include/core_cmInstr.h" 1
 2059 0c5a 93FAA3F4 		rbit r4, r3	@ result, tmp1413
 2060              	@ 0 "" 2
 2061              		.thumb
 2062 0c5e 07F5EA73 		add	r3, r7, #468	@ tmp1415,,
 2063 0c62 1C60     		str	r4, [r3, #0]	@ result, result
 492:Drivers/CMSIS/Include/core_cmInstr.h ****    return(result);
 2064              		.loc 2 492 0
 2065 0c64 07F5EA73 		add	r3, r7, #468	@ tmp1417,,
 2066 0c68 1B68     		ldr	r3, [r3, #0]	@ D.7671, result
 2067              	.LBE698:
 2068              	.LBE697:
 481:Drivers/STM32L1xx_HAL_Driver/stm32l1xx_hal_rcc.cpp ****     {
 482:Drivers/STM32L1xx_HAL_Driver/stm32l1xx_hal_rcc.cpp ****       /* Enable the Internal Low Speed oscillator (LSI). */
 483:Drivers/STM32L1xx_HAL_Driver/stm32l1xx_hal_rcc.cpp ****       __HAL_RCC_LSI_ENABLE();
 2069              		.loc 1 483 0
 2070 0c6a 1A46     		mov	r2, r3	@ D.6933, D.7670
 2071 0c6c 07F5E873 		add	r3, r7, #464	@ tmp1419,,
 2072 0c70 1A60     		str	r2, [r3, #0]	@ D.6933, value
 2073              	.LBE696:
 2074              	.LBB699:
 2075              	.LBB700:
 2076              	.LBB701:
 666:Drivers/CMSIS/Include/core_cmInstr.h ****   __ASM volatile ("clz %0, %1" : "=r" (result) : "r" (value) );
 2077              		.loc 2 666 0
 2078 0c72 07F5E873 		add	r3, r7, #464	@ tmp1422,,
 2079 0c76 1B68     		ldr	r3, [r3, #0]	@ tmp1423, value
 2080              	@ 666 "Drivers/CMSIS/Include/core_cmInstr.h" 1
 2081 0c78 B3FA83F4 		clz r4, r3	@ result, tmp1423
 2082              	@ 0 "" 2
 2083              		.thumb
 2084 0c7c 07F5E673 		add	r3, r7, #460	@ tmp1425,,
 2085 0c80 1C60     		str	r4, [r3, #0]	@ result, result
 2086              		.loc 2 667 0
 2087 0c82 07F5E673 		add	r3, r7, #460	@ tmp1427,,
 2088 0c86 1B68     		ldr	r3, [r3, #0]	@ tmp1428, result
 2089 0c88 DBB2     		uxtb	r3, r3	@ D.7676, tmp1428
ARM GAS  /tmp/ccn09EVD.s 			page 60


 2090              	.LBE701:
 2091              	.LBE700:
 2092              	.LBE699:
 2093              		.loc 1 483 0
 2094 0c8a 4FEA8303 		lsl	r3, r3, #2	@ D.6936, D.6935,
 2095 0c8e 1A46     		mov	r2, r3	@ D.6937, D.6936
 2096 0c90 4FF4D063 		mov	r3, #1664	@ D.6938,
 2097 0c94 C4F24723 		movt	r3, 16967	@ D.6938,
 2098 0c98 D318     		adds	r3, r2, r3	@ D.6938, D.6937, D.6938
 2099 0c9a 4FF00102 		mov	r2, #1	@ tmp1429,
 2100 0c9e 1A60     		str	r2, [r3, #0]	@ tmp1429, *D.6939_358
 484:Drivers/STM32L1xx_HAL_Driver/stm32l1xx_hal_rcc.cpp ****       
 485:Drivers/STM32L1xx_HAL_Driver/stm32l1xx_hal_rcc.cpp ****       /* Get Start Tick*/
 486:Drivers/STM32L1xx_HAL_Driver/stm32l1xx_hal_rcc.cpp ****       tickstart = HAL_GetTick();
 2101              		.loc 1 486 0
 2102 0ca0 FFF7FEFF 		bl	HAL_GetTick	@
 2103 0ca4 C7F89C03 		str	r0, [r7, #924]	@, tickstart
 487:Drivers/STM32L1xx_HAL_Driver/stm32l1xx_hal_rcc.cpp ****       
 488:Drivers/STM32L1xx_HAL_Driver/stm32l1xx_hal_rcc.cpp ****       /* Wait till LSI is ready */  
 489:Drivers/STM32L1xx_HAL_Driver/stm32l1xx_hal_rcc.cpp ****       while(__HAL_RCC_GET_FLAG(RCC_FLAG_LSIRDY) == RESET)
 2104              		.loc 1 489 0
 2105 0ca8 10E0     		b	.L125	@
 2106              	.L132:
 490:Drivers/STM32L1xx_HAL_Driver/stm32l1xx_hal_rcc.cpp ****       {
 491:Drivers/STM32L1xx_HAL_Driver/stm32l1xx_hal_rcc.cpp ****         if((HAL_GetTick() - tickstart ) > LSI_TIMEOUT_VALUE)
 2107              		.loc 1 491 0
 2108 0caa FFF7FEFF 		bl	HAL_GetTick	@
 2109 0cae 0246     		mov	r2, r0	@ D.6962,
 2110 0cb0 D7F89C33 		ldr	r3, [r7, #924]	@ tmp1430, tickstart
 2111 0cb4 D31A     		subs	r3, r2, r3	@ D.6963, D.6962, tmp1430
 2112 0cb6 642B     		cmp	r3, #100	@ D.6963,
 2113 0cb8 94BF     		ite	ls	@
 2114 0cba 0023     		movls	r3, #0	@, tmp1432
 2115 0cbc 0123     		movhi	r3, #1	@, tmp1432
 2116 0cbe DBB2     		uxtb	r3, r3	@ retval.83, tmp1431
 2117 0cc0 002B     		cmp	r3, #0	@ retval.83,
 2118 0cc2 03D0     		beq	.L125	@,
 492:Drivers/STM32L1xx_HAL_Driver/stm32l1xx_hal_rcc.cpp ****         {
 493:Drivers/STM32L1xx_HAL_Driver/stm32l1xx_hal_rcc.cpp ****           return HAL_TIMEOUT;
 2119              		.loc 1 493 0
 2120 0cc4 4FF00303 		mov	r3, #3	@ D.6563,
 2121 0cc8 00F02BBE 		b	.L20	@
 2122              	.L125:
 2123 0ccc 07F5E473 		add	r3, r7, #456	@ tmp1434,,
 2124 0cd0 4FF00202 		mov	r2, #2	@ tmp1435,
 2125 0cd4 1A60     		str	r2, [r3, #0]	@ tmp1435, value
 2126              	.LBB702:
 2127              	.LBB703:
 2128              	.LBB704:
 491:Drivers/CMSIS/Include/core_cmInstr.h ****    __ASM volatile ("rbit %0, %1" : "=r" (result) : "r" (value) );
 2129              		.loc 2 491 0 discriminator 1
 2130 0cd6 07F5E473 		add	r3, r7, #456	@ tmp1438,,
 2131 0cda 1B68     		ldr	r3, [r3, #0]	@ tmp1439, value
 2132              	@ 491 "Drivers/CMSIS/Include/core_cmInstr.h" 1
 2133 0cdc 93FAA3F4 		rbit r4, r3	@ result, tmp1439
 2134              	@ 0 "" 2
 2135              		.thumb
ARM GAS  /tmp/ccn09EVD.s 			page 61


 2136 0ce0 07F5E273 		add	r3, r7, #452	@ tmp1441,,
 2137 0ce4 1C60     		str	r4, [r3, #0]	@ result, result
 492:Drivers/CMSIS/Include/core_cmInstr.h ****    return(result);
 2138              		.loc 2 492 0 discriminator 1
 2139 0ce6 07F5E273 		add	r3, r7, #452	@ tmp1443,,
 2140 0cea 1B68     		ldr	r3, [r3, #0]	@ D.7681, result
 2141              	.LBE704:
 2142              	.LBE703:
 489:Drivers/STM32L1xx_HAL_Driver/stm32l1xx_hal_rcc.cpp ****       while(__HAL_RCC_GET_FLAG(RCC_FLAG_LSIRDY) == RESET)
 2143              		.loc 1 489 0 discriminator 1
 2144 0cec 1A46     		mov	r2, r3	@ D.6945, D.7680
 2145 0cee 07F5E073 		add	r3, r7, #448	@ tmp1445,,
 2146 0cf2 1A60     		str	r2, [r3, #0]	@ D.6945, value
 2147              	.LBE702:
 2148              	.LBB705:
 2149              	.LBB706:
 2150              	.LBB707:
 666:Drivers/CMSIS/Include/core_cmInstr.h ****   __ASM volatile ("clz %0, %1" : "=r" (result) : "r" (value) );
 2151              		.loc 2 666 0 discriminator 1
 2152 0cf4 07F5E073 		add	r3, r7, #448	@ tmp1448,,
 2153 0cf8 1B68     		ldr	r3, [r3, #0]	@ tmp1449, value
 2154              	@ 666 "Drivers/CMSIS/Include/core_cmInstr.h" 1
 2155 0cfa B3FA83F4 		clz r4, r3	@ result, tmp1449
 2156              	@ 0 "" 2
 2157              		.thumb
 2158 0cfe 07F5DE73 		add	r3, r7, #444	@ tmp1451,,
 2159 0d02 1C60     		str	r4, [r3, #0]	@ result, result
 2160              		.loc 2 667 0 discriminator 1
 2161 0d04 07F5DE73 		add	r3, r7, #444	@ tmp1453,,
 2162 0d08 1B68     		ldr	r3, [r3, #0]	@ tmp1454, result
 2163 0d0a DBB2     		uxtb	r3, r3	@ D.7686, tmp1454
 2164              	.LBE707:
 2165              	.LBE706:
 2166              	.LBE705:
 489:Drivers/STM32L1xx_HAL_Driver/stm32l1xx_hal_rcc.cpp ****       while(__HAL_RCC_GET_FLAG(RCC_FLAG_LSIRDY) == RESET)
 2167              		.loc 1 489 0 discriminator 1
 2168 0d0c 43F06003 		orr	r3, r3, #96	@ tmp1455, D.6946,
 2169 0d10 DBB2     		uxtb	r3, r3	@ D.6947, tmp1455
 2170 0d12 4FEA6313 		asr	r3, r3, #5	@ D.6949, D.6948,
 2171 0d16 012B     		cmp	r3, #1	@ D.6949,
 2172 0d18 05D1     		bne	.L128	@,
 489:Drivers/STM32L1xx_HAL_Driver/stm32l1xx_hal_rcc.cpp ****       while(__HAL_RCC_GET_FLAG(RCC_FLAG_LSIRDY) == RESET)
 2173              		.loc 1 489 0 is_stmt 0 discriminator 2
 2174 0d1a 4FF46053 		mov	r3, #14336	@ D.6952,
 2175 0d1e C4F20203 		movt	r3, 16386	@ D.6952,
 2176 0d22 1B68     		ldr	r3, [r3, #0]	@ iftmp.82, D.6952_365->CR
 2177 0d24 04E0     		b	.L129	@
 2178              	.L128:
 489:Drivers/STM32L1xx_HAL_Driver/stm32l1xx_hal_rcc.cpp ****       while(__HAL_RCC_GET_FLAG(RCC_FLAG_LSIRDY) == RESET)
 2179              		.loc 1 489 0 discriminator 3
 2180 0d26 4FF46053 		mov	r3, #14336	@ D.6954,
 2181 0d2a C4F20203 		movt	r3, 16386	@ D.6954,
 2182 0d2e 5B6B     		ldr	r3, [r3, #52]	@ iftmp.82, D.6954_367->CSR
 2183              	.L129:
 2184 0d30 07F5DC72 		add	r2, r7, #440	@ tmp1457,,
 2185 0d34 4FF00201 		mov	r1, #2	@ tmp1458,
 2186 0d38 1160     		str	r1, [r2, #0]	@ tmp1458, value
ARM GAS  /tmp/ccn09EVD.s 			page 62


 2187              	.LBB708:
 2188              	.LBB709:
 2189              	.LBB710:
 491:Drivers/CMSIS/Include/core_cmInstr.h ****    __ASM volatile ("rbit %0, %1" : "=r" (result) : "r" (value) );
 2190              		.loc 2 491 0 is_stmt 1 discriminator 4
 2191 0d3a 07F5DC72 		add	r2, r7, #440	@ tmp1461,,
 2192 0d3e 1268     		ldr	r2, [r2, #0]	@ tmp1462, value
 2193              	@ 491 "Drivers/CMSIS/Include/core_cmInstr.h" 1
 2194 0d40 92FAA2F4 		rbit r4, r2	@ result, tmp1462
 2195              	@ 0 "" 2
 2196              		.thumb
 2197 0d44 07F5DA72 		add	r2, r7, #436	@ tmp1464,,
 2198 0d48 1460     		str	r4, [r2, #0]	@ result, result
 492:Drivers/CMSIS/Include/core_cmInstr.h ****    return(result);
 2199              		.loc 2 492 0 discriminator 4
 2200 0d4a 07F5DA72 		add	r2, r7, #436	@ tmp1466,,
 2201 0d4e 1268     		ldr	r2, [r2, #0]	@ D.7691, result
 2202              	.LBE710:
 2203              	.LBE709:
 489:Drivers/STM32L1xx_HAL_Driver/stm32l1xx_hal_rcc.cpp ****       while(__HAL_RCC_GET_FLAG(RCC_FLAG_LSIRDY) == RESET)
 2204              		.loc 1 489 0 discriminator 4
 2205 0d50 1146     		mov	r1, r2	@ D.6955, D.7690
 2206 0d52 07F5D872 		add	r2, r7, #432	@ tmp1468,,
 2207 0d56 1160     		str	r1, [r2, #0]	@ D.6955, value
 2208              	.LBE708:
 2209              	.LBB711:
 2210              	.LBB712:
 2211              	.LBB713:
 666:Drivers/CMSIS/Include/core_cmInstr.h ****   __ASM volatile ("clz %0, %1" : "=r" (result) : "r" (value) );
 2212              		.loc 2 666 0 discriminator 4
 2213 0d58 07F5D872 		add	r2, r7, #432	@ tmp1471,,
 2214 0d5c 1268     		ldr	r2, [r2, #0]	@ tmp1472, value
 2215              	@ 666 "Drivers/CMSIS/Include/core_cmInstr.h" 1
 2216 0d5e B2FA82F4 		clz r4, r2	@ result, tmp1472
 2217              	@ 0 "" 2
 2218              		.thumb
 2219 0d62 07F5D672 		add	r2, r7, #428	@ tmp1474,,
 2220 0d66 1460     		str	r4, [r2, #0]	@ result, result
 2221              		.loc 2 667 0 discriminator 4
 2222 0d68 07F5D672 		add	r2, r7, #428	@ tmp1476,,
 2223 0d6c 1268     		ldr	r2, [r2, #0]	@ tmp1477, result
 2224 0d6e D2B2     		uxtb	r2, r2	@ D.7696, tmp1477
 2225              	.LBE713:
 2226              	.LBE712:
 2227              	.LBE711:
 489:Drivers/STM32L1xx_HAL_Driver/stm32l1xx_hal_rcc.cpp ****       while(__HAL_RCC_GET_FLAG(RCC_FLAG_LSIRDY) == RESET)
 2228              		.loc 1 489 0 discriminator 4
 2229 0d70 02F01F02 		and	r2, r2, #31	@ D.6958, D.6957,
 2230 0d74 23FA02F3 		lsr	r3, r3, r2	@ D.6959, iftmp.82, D.6958
 2231 0d78 03F00103 		and	r3, r3, #1	@ D.6960, D.6959,
 2232 0d7c 002B     		cmp	r3, #0	@ D.6960,
 2233 0d7e 14BF     		ite	ne	@
 2234 0d80 0023     		movne	r3, #0	@, tmp1479
 2235 0d82 0123     		moveq	r3, #1	@, tmp1479
 2236 0d84 DBB2     		uxtb	r3, r3	@ retval.81, tmp1478
 2237 0d86 002B     		cmp	r3, #0	@ retval.81,
 2238 0d88 8FD1     		bne	.L132	@,
ARM GAS  /tmp/ccn09EVD.s 			page 63


 489:Drivers/STM32L1xx_HAL_Driver/stm32l1xx_hal_rcc.cpp ****       while(__HAL_RCC_GET_FLAG(RCC_FLAG_LSIRDY) == RESET)
 2239              		.loc 1 489 0 is_stmt 0
 2240 0d8a 9FE0     		b	.L121	@
 2241              	.L122:
 2242 0d8c 07F5D473 		add	r3, r7, #424	@ tmp1481,,
 2243 0d90 4FF00102 		mov	r2, #1	@ tmp1482,
 2244 0d94 1A60     		str	r2, [r3, #0]	@ tmp1482, value
 2245              	.LBB714:
 2246              	.LBB715:
 2247              	.LBB716:
 491:Drivers/CMSIS/Include/core_cmInstr.h ****    __ASM volatile ("rbit %0, %1" : "=r" (result) : "r" (value) );
 2248              		.loc 2 491 0 is_stmt 1
 2249 0d96 07F5D473 		add	r3, r7, #424	@ tmp1485,,
 2250 0d9a 1B68     		ldr	r3, [r3, #0]	@ tmp1486, value
 2251              	@ 491 "Drivers/CMSIS/Include/core_cmInstr.h" 1
 2252 0d9c 93FAA3F4 		rbit r4, r3	@ result, tmp1486
 2253              	@ 0 "" 2
 2254              		.thumb
 2255 0da0 07F5D273 		add	r3, r7, #420	@ tmp1488,,
 2256 0da4 1C60     		str	r4, [r3, #0]	@ result, result
 492:Drivers/CMSIS/Include/core_cmInstr.h ****    return(result);
 2257              		.loc 2 492 0
 2258 0da6 07F5D273 		add	r3, r7, #420	@ tmp1490,,
 2259 0daa 1B68     		ldr	r3, [r3, #0]	@ D.7701, result
 2260              	.LBE716:
 2261              	.LBE715:
 494:Drivers/STM32L1xx_HAL_Driver/stm32l1xx_hal_rcc.cpp ****         }
 495:Drivers/STM32L1xx_HAL_Driver/stm32l1xx_hal_rcc.cpp ****       }
 496:Drivers/STM32L1xx_HAL_Driver/stm32l1xx_hal_rcc.cpp ****     }
 497:Drivers/STM32L1xx_HAL_Driver/stm32l1xx_hal_rcc.cpp ****     else
 498:Drivers/STM32L1xx_HAL_Driver/stm32l1xx_hal_rcc.cpp ****     {
 499:Drivers/STM32L1xx_HAL_Driver/stm32l1xx_hal_rcc.cpp ****       /* Disable the Internal Low Speed oscillator (LSI). */
 500:Drivers/STM32L1xx_HAL_Driver/stm32l1xx_hal_rcc.cpp ****       __HAL_RCC_LSI_DISABLE();
 2262              		.loc 1 500 0
 2263 0dac 1A46     		mov	r2, r3	@ D.6967, D.7700
 2264 0dae 07F5D073 		add	r3, r7, #416	@ tmp1492,,
 2265 0db2 1A60     		str	r2, [r3, #0]	@ D.6967, value
 2266              	.LBE714:
 2267              	.LBB717:
 2268              	.LBB718:
 2269              	.LBB719:
 666:Drivers/CMSIS/Include/core_cmInstr.h ****   __ASM volatile ("clz %0, %1" : "=r" (result) : "r" (value) );
 2270              		.loc 2 666 0
 2271 0db4 07F5D073 		add	r3, r7, #416	@ tmp1495,,
 2272 0db8 1B68     		ldr	r3, [r3, #0]	@ tmp1496, value
 2273              	@ 666 "Drivers/CMSIS/Include/core_cmInstr.h" 1
 2274 0dba B3FA83F4 		clz r4, r3	@ result, tmp1496
 2275              	@ 0 "" 2
 2276              		.thumb
 2277 0dbe 07F5CE73 		add	r3, r7, #412	@ tmp1498,,
 2278 0dc2 1C60     		str	r4, [r3, #0]	@ result, result
 2279              		.loc 2 667 0
 2280 0dc4 07F5CE73 		add	r3, r7, #412	@ tmp1500,,
 2281 0dc8 1B68     		ldr	r3, [r3, #0]	@ tmp1501, result
 2282 0dca DBB2     		uxtb	r3, r3	@ D.7706, tmp1501
 2283              	.LBE719:
 2284              	.LBE718:
ARM GAS  /tmp/ccn09EVD.s 			page 64


 2285              	.LBE717:
 2286              		.loc 1 500 0
 2287 0dcc 4FEA8303 		lsl	r3, r3, #2	@ D.6970, D.6969,
 2288 0dd0 1A46     		mov	r2, r3	@ D.6971, D.6970
 2289 0dd2 4FF4D063 		mov	r3, #1664	@ D.6972,
 2290 0dd6 C4F24723 		movt	r3, 16967	@ D.6972,
 2291 0dda D318     		adds	r3, r2, r3	@ D.6972, D.6971, D.6972
 2292 0ddc 4FF00002 		mov	r2, #0	@ tmp1502,
 2293 0de0 1A60     		str	r2, [r3, #0]	@ tmp1502, *D.6973_386
 501:Drivers/STM32L1xx_HAL_Driver/stm32l1xx_hal_rcc.cpp ****       
 502:Drivers/STM32L1xx_HAL_Driver/stm32l1xx_hal_rcc.cpp ****       /* Get Start Tick*/
 503:Drivers/STM32L1xx_HAL_Driver/stm32l1xx_hal_rcc.cpp ****       tickstart = HAL_GetTick();
 2294              		.loc 1 503 0
 2295 0de2 FFF7FEFF 		bl	HAL_GetTick	@
 2296 0de6 C7F89C03 		str	r0, [r7, #924]	@, tickstart
 504:Drivers/STM32L1xx_HAL_Driver/stm32l1xx_hal_rcc.cpp ****       
 505:Drivers/STM32L1xx_HAL_Driver/stm32l1xx_hal_rcc.cpp ****       /* Wait till LSI is ready */  
 506:Drivers/STM32L1xx_HAL_Driver/stm32l1xx_hal_rcc.cpp ****       while(__HAL_RCC_GET_FLAG(RCC_FLAG_LSIRDY) != RESET)
 2297              		.loc 1 506 0
 2298 0dea 10E0     		b	.L135	@
 2299              	.L142:
 507:Drivers/STM32L1xx_HAL_Driver/stm32l1xx_hal_rcc.cpp ****       {
 508:Drivers/STM32L1xx_HAL_Driver/stm32l1xx_hal_rcc.cpp ****         if((HAL_GetTick() - tickstart ) > LSI_TIMEOUT_VALUE)
 2300              		.loc 1 508 0
 2301 0dec FFF7FEFF 		bl	HAL_GetTick	@
 2302 0df0 0246     		mov	r2, r0	@ D.6996,
 2303 0df2 D7F89C33 		ldr	r3, [r7, #924]	@ tmp1503, tickstart
 2304 0df6 D31A     		subs	r3, r2, r3	@ D.6997, D.6996, tmp1503
 2305 0df8 642B     		cmp	r3, #100	@ D.6997,
 2306 0dfa 94BF     		ite	ls	@
 2307 0dfc 0023     		movls	r3, #0	@, tmp1505
 2308 0dfe 0123     		movhi	r3, #1	@, tmp1505
 2309 0e00 DBB2     		uxtb	r3, r3	@ retval.86, tmp1504
 2310 0e02 002B     		cmp	r3, #0	@ retval.86,
 2311 0e04 03D0     		beq	.L135	@,
 509:Drivers/STM32L1xx_HAL_Driver/stm32l1xx_hal_rcc.cpp ****         {
 510:Drivers/STM32L1xx_HAL_Driver/stm32l1xx_hal_rcc.cpp ****           return HAL_TIMEOUT;
 2312              		.loc 1 510 0
 2313 0e06 4FF00303 		mov	r3, #3	@ D.6563,
 2314 0e0a 00F08ABD 		b	.L20	@
 2315              	.L135:
 2316 0e0e 07F5CC73 		add	r3, r7, #408	@ tmp1507,,
 2317 0e12 4FF00202 		mov	r2, #2	@ tmp1508,
 2318 0e16 1A60     		str	r2, [r3, #0]	@ tmp1508, value
 2319              	.LBB720:
 2320              	.LBB721:
 2321              	.LBB722:
 491:Drivers/CMSIS/Include/core_cmInstr.h ****    __ASM volatile ("rbit %0, %1" : "=r" (result) : "r" (value) );
 2322              		.loc 2 491 0 discriminator 1
 2323 0e18 07F5CC73 		add	r3, r7, #408	@ tmp1511,,
 2324 0e1c 1B68     		ldr	r3, [r3, #0]	@ tmp1512, value
 2325              	@ 491 "Drivers/CMSIS/Include/core_cmInstr.h" 1
 2326 0e1e 93FAA3F4 		rbit r4, r3	@ result, tmp1512
 2327              	@ 0 "" 2
 2328              		.thumb
 2329 0e22 07F5CA73 		add	r3, r7, #404	@ tmp1514,,
 2330 0e26 1C60     		str	r4, [r3, #0]	@ result, result
ARM GAS  /tmp/ccn09EVD.s 			page 65


 492:Drivers/CMSIS/Include/core_cmInstr.h ****    return(result);
 2331              		.loc 2 492 0 discriminator 1
 2332 0e28 07F5CA73 		add	r3, r7, #404	@ tmp1516,,
 2333 0e2c 1B68     		ldr	r3, [r3, #0]	@ D.7711, result
 2334              	.LBE722:
 2335              	.LBE721:
 506:Drivers/STM32L1xx_HAL_Driver/stm32l1xx_hal_rcc.cpp ****       while(__HAL_RCC_GET_FLAG(RCC_FLAG_LSIRDY) != RESET)
 2336              		.loc 1 506 0 discriminator 1
 2337 0e2e 1A46     		mov	r2, r3	@ D.6979, D.7710
 2338 0e30 07F5C873 		add	r3, r7, #400	@ tmp1518,,
 2339 0e34 1A60     		str	r2, [r3, #0]	@ D.6979, value
 2340              	.LBE720:
 2341              	.LBB723:
 2342              	.LBB724:
 2343              	.LBB725:
 666:Drivers/CMSIS/Include/core_cmInstr.h ****   __ASM volatile ("clz %0, %1" : "=r" (result) : "r" (value) );
 2344              		.loc 2 666 0 discriminator 1
 2345 0e36 07F5C873 		add	r3, r7, #400	@ tmp1521,,
 2346 0e3a 1B68     		ldr	r3, [r3, #0]	@ tmp1522, value
 2347              	@ 666 "Drivers/CMSIS/Include/core_cmInstr.h" 1
 2348 0e3c B3FA83F4 		clz r4, r3	@ result, tmp1522
 2349              	@ 0 "" 2
 2350              		.thumb
 2351 0e40 07F5C673 		add	r3, r7, #396	@ tmp1524,,
 2352 0e44 1C60     		str	r4, [r3, #0]	@ result, result
 2353              		.loc 2 667 0 discriminator 1
 2354 0e46 07F5C673 		add	r3, r7, #396	@ tmp1526,,
 2355 0e4a 1B68     		ldr	r3, [r3, #0]	@ tmp1527, result
 2356 0e4c DBB2     		uxtb	r3, r3	@ D.7716, tmp1527
 2357              	.LBE725:
 2358              	.LBE724:
 2359              	.LBE723:
 506:Drivers/STM32L1xx_HAL_Driver/stm32l1xx_hal_rcc.cpp ****       while(__HAL_RCC_GET_FLAG(RCC_FLAG_LSIRDY) != RESET)
 2360              		.loc 1 506 0 discriminator 1
 2361 0e4e 43F06003 		orr	r3, r3, #96	@ tmp1528, D.6980,
 2362 0e52 DBB2     		uxtb	r3, r3	@ D.6981, tmp1528
 2363 0e54 4FEA6313 		asr	r3, r3, #5	@ D.6983, D.6982,
 2364 0e58 012B     		cmp	r3, #1	@ D.6983,
 2365 0e5a 05D1     		bne	.L138	@,
 506:Drivers/STM32L1xx_HAL_Driver/stm32l1xx_hal_rcc.cpp ****       while(__HAL_RCC_GET_FLAG(RCC_FLAG_LSIRDY) != RESET)
 2366              		.loc 1 506 0 is_stmt 0 discriminator 2
 2367 0e5c 4FF46053 		mov	r3, #14336	@ D.6986,
 2368 0e60 C4F20203 		movt	r3, 16386	@ D.6986,
 2369 0e64 1B68     		ldr	r3, [r3, #0]	@ iftmp.85, D.6986_393->CR
 2370 0e66 04E0     		b	.L139	@
 2371              	.L138:
 506:Drivers/STM32L1xx_HAL_Driver/stm32l1xx_hal_rcc.cpp ****       while(__HAL_RCC_GET_FLAG(RCC_FLAG_LSIRDY) != RESET)
 2372              		.loc 1 506 0 discriminator 3
 2373 0e68 4FF46053 		mov	r3, #14336	@ D.6988,
 2374 0e6c C4F20203 		movt	r3, 16386	@ D.6988,
 2375 0e70 5B6B     		ldr	r3, [r3, #52]	@ iftmp.85, D.6988_395->CSR
 2376              	.L139:
 2377 0e72 07F5C472 		add	r2, r7, #392	@ tmp1530,,
 2378 0e76 4FF00201 		mov	r1, #2	@ tmp1531,
 2379 0e7a 1160     		str	r1, [r2, #0]	@ tmp1531, value
 2380              	.LBB726:
 2381              	.LBB727:
ARM GAS  /tmp/ccn09EVD.s 			page 66


 2382              	.LBB728:
 491:Drivers/CMSIS/Include/core_cmInstr.h ****    __ASM volatile ("rbit %0, %1" : "=r" (result) : "r" (value) );
 2383              		.loc 2 491 0 is_stmt 1 discriminator 4
 2384 0e7c 07F5C472 		add	r2, r7, #392	@ tmp1534,,
 2385 0e80 1268     		ldr	r2, [r2, #0]	@ tmp1535, value
 2386              	@ 491 "Drivers/CMSIS/Include/core_cmInstr.h" 1
 2387 0e82 92FAA2F4 		rbit r4, r2	@ result, tmp1535
 2388              	@ 0 "" 2
 2389              		.thumb
 2390 0e86 07F5C272 		add	r2, r7, #388	@ tmp1537,,
 2391 0e8a 1460     		str	r4, [r2, #0]	@ result, result
 492:Drivers/CMSIS/Include/core_cmInstr.h ****    return(result);
 2392              		.loc 2 492 0 discriminator 4
 2393 0e8c 07F5C272 		add	r2, r7, #388	@ tmp1539,,
 2394 0e90 1268     		ldr	r2, [r2, #0]	@ D.7721, result
 2395              	.LBE728:
 2396              	.LBE727:
 506:Drivers/STM32L1xx_HAL_Driver/stm32l1xx_hal_rcc.cpp ****       while(__HAL_RCC_GET_FLAG(RCC_FLAG_LSIRDY) != RESET)
 2397              		.loc 1 506 0 discriminator 4
 2398 0e92 1146     		mov	r1, r2	@ D.6989, D.7720
 2399 0e94 07F5C072 		add	r2, r7, #384	@ tmp1541,,
 2400 0e98 1160     		str	r1, [r2, #0]	@ D.6989, value
 2401              	.LBE726:
 2402              	.LBB729:
 2403              	.LBB730:
 2404              	.LBB731:
 666:Drivers/CMSIS/Include/core_cmInstr.h ****   __ASM volatile ("clz %0, %1" : "=r" (result) : "r" (value) );
 2405              		.loc 2 666 0 discriminator 4
 2406 0e9a 07F5C072 		add	r2, r7, #384	@ tmp1544,,
 2407 0e9e 1268     		ldr	r2, [r2, #0]	@ tmp1545, value
 2408              	@ 666 "Drivers/CMSIS/Include/core_cmInstr.h" 1
 2409 0ea0 B2FA82F4 		clz r4, r2	@ result, tmp1545
 2410              	@ 0 "" 2
 2411              		.thumb
 2412 0ea4 07F5BE72 		add	r2, r7, #380	@ tmp1547,,
 2413 0ea8 1460     		str	r4, [r2, #0]	@ result, result
 2414              		.loc 2 667 0 discriminator 4
 2415 0eaa 07F5BE72 		add	r2, r7, #380	@ tmp1549,,
 2416 0eae 1268     		ldr	r2, [r2, #0]	@ tmp1550, result
 2417 0eb0 D2B2     		uxtb	r2, r2	@ D.7726, tmp1550
 2418              	.LBE731:
 2419              	.LBE730:
 2420              	.LBE729:
 506:Drivers/STM32L1xx_HAL_Driver/stm32l1xx_hal_rcc.cpp ****       while(__HAL_RCC_GET_FLAG(RCC_FLAG_LSIRDY) != RESET)
 2421              		.loc 1 506 0 discriminator 4
 2422 0eb2 02F01F02 		and	r2, r2, #31	@ D.6992, D.6991,
 2423 0eb6 23FA02F3 		lsr	r3, r3, r2	@ D.6993, iftmp.85, D.6992
 2424 0eba 03F00103 		and	r3, r3, #1	@ D.6994, D.6993,
 2425 0ebe 002B     		cmp	r3, #0	@ D.6994,
 2426 0ec0 0CBF     		ite	eq	@
 2427 0ec2 0023     		moveq	r3, #0	@, tmp1552
 2428 0ec4 0123     		movne	r3, #1	@, tmp1552
 2429 0ec6 DBB2     		uxtb	r3, r3	@ retval.84, tmp1551
 2430 0ec8 002B     		cmp	r3, #0	@ retval.84,
 2431 0eca 8FD1     		bne	.L142	@,
 2432              	.L121:
 511:Drivers/STM32L1xx_HAL_Driver/stm32l1xx_hal_rcc.cpp ****         }
ARM GAS  /tmp/ccn09EVD.s 			page 67


 512:Drivers/STM32L1xx_HAL_Driver/stm32l1xx_hal_rcc.cpp ****       }
 513:Drivers/STM32L1xx_HAL_Driver/stm32l1xx_hal_rcc.cpp ****     }
 514:Drivers/STM32L1xx_HAL_Driver/stm32l1xx_hal_rcc.cpp ****   }
 515:Drivers/STM32L1xx_HAL_Driver/stm32l1xx_hal_rcc.cpp ****   /*------------------------------ LSE Configuration -------------------------*/ 
 516:Drivers/STM32L1xx_HAL_Driver/stm32l1xx_hal_rcc.cpp ****   if(((RCC_OscInitStruct->OscillatorType) & RCC_OSCILLATORTYPE_LSE) == RCC_OSCILLATORTYPE_LSE)
 2433              		.loc 1 516 0
 2434 0ecc 07F10403 		add	r3, r7, #4	@ tmp1555,,
 2435 0ed0 1B68     		ldr	r3, [r3, #0]	@ tmp1553, RCC_OscInitStruct
 2436 0ed2 1B68     		ldr	r3, [r3, #0]	@ D.7001, RCC_OscInitStruct_26(D)->OscillatorType
 2437 0ed4 03F00403 		and	r3, r3, #4	@ D.7002, D.7001,
 2438 0ed8 002B     		cmp	r3, #0	@ D.7002,
 2439 0eda 00F00C83 		beq	.L143	@,
 517:Drivers/STM32L1xx_HAL_Driver/stm32l1xx_hal_rcc.cpp ****   {
 518:Drivers/STM32L1xx_HAL_Driver/stm32l1xx_hal_rcc.cpp ****     /* Check the parameters */
 519:Drivers/STM32L1xx_HAL_Driver/stm32l1xx_hal_rcc.cpp ****     assert_param(IS_RCC_LSE(RCC_OscInitStruct->LSEState));
 520:Drivers/STM32L1xx_HAL_Driver/stm32l1xx_hal_rcc.cpp ****     
 521:Drivers/STM32L1xx_HAL_Driver/stm32l1xx_hal_rcc.cpp ****     /* Enable Power Clock*/
 522:Drivers/STM32L1xx_HAL_Driver/stm32l1xx_hal_rcc.cpp ****     __PWR_CLK_ENABLE();
 2440              		.loc 1 522 0
 2441 0ede 4FF46053 		mov	r3, #14336	@ D.7005,
 2442 0ee2 C4F20203 		movt	r3, 16386	@ D.7005,
 2443 0ee6 4FF46052 		mov	r2, #14336	@ D.7006,
 2444 0eea C4F20202 		movt	r2, 16386	@ D.7006,
 2445 0eee 526A     		ldr	r2, [r2, #36]	@ D.7007, D.7006_411->APB1ENR
 2446 0ef0 42F08052 		orr	r2, r2, #268435456	@ D.7008, D.7007,
 2447 0ef4 5A62     		str	r2, [r3, #36]	@ D.7008, D.7005_410->APB1ENR
 523:Drivers/STM32L1xx_HAL_Driver/stm32l1xx_hal_rcc.cpp ****     
 524:Drivers/STM32L1xx_HAL_Driver/stm32l1xx_hal_rcc.cpp ****     /* Enable write access to Backup domain */
 525:Drivers/STM32L1xx_HAL_Driver/stm32l1xx_hal_rcc.cpp ****     SET_BIT(PWR->CR, PWR_CR_DBP);
 2448              		.loc 1 525 0
 2449 0ef6 4FF4E043 		mov	r3, #28672	@ D.7009,
 2450 0efa C4F20003 		movt	r3, 16384	@ D.7009,
 2451 0efe 4FF4E042 		mov	r2, #28672	@ D.7010,
 2452 0f02 C4F20002 		movt	r2, 16384	@ D.7010,
 2453 0f06 1268     		ldr	r2, [r2, #0]	@ D.7011, D.7010_415->CR
 2454 0f08 42F48072 		orr	r2, r2, #256	@ D.7012, D.7011,
 2455 0f0c 1A60     		str	r2, [r3, #0]	@ D.7012, D.7009_414->CR
 526:Drivers/STM32L1xx_HAL_Driver/stm32l1xx_hal_rcc.cpp **** 
 527:Drivers/STM32L1xx_HAL_Driver/stm32l1xx_hal_rcc.cpp ****     /* Wait for Backup domain Write protection disable */
 528:Drivers/STM32L1xx_HAL_Driver/stm32l1xx_hal_rcc.cpp ****     tickstart = HAL_GetTick();
 2456              		.loc 1 528 0
 2457 0f0e FFF7FEFF 		bl	HAL_GetTick	@
 2458 0f12 C7F89C03 		str	r0, [r7, #924]	@, tickstart
 529:Drivers/STM32L1xx_HAL_Driver/stm32l1xx_hal_rcc.cpp ****     
 530:Drivers/STM32L1xx_HAL_Driver/stm32l1xx_hal_rcc.cpp ****     while((PWR->CR & PWR_CR_DBP) == RESET)
 2459              		.loc 1 530 0
 2460 0f16 10E0     		b	.L144	@
 2461              	.L145:
 531:Drivers/STM32L1xx_HAL_Driver/stm32l1xx_hal_rcc.cpp ****     {
 532:Drivers/STM32L1xx_HAL_Driver/stm32l1xx_hal_rcc.cpp ****       if((HAL_GetTick() - tickstart ) > DBP_TIMEOUT_VALUE)
 2462              		.loc 1 532 0
 2463 0f18 FFF7FEFF 		bl	HAL_GetTick	@
 2464 0f1c 0246     		mov	r2, r0	@ D.7021,
 2465 0f1e D7F89C33 		ldr	r3, [r7, #924]	@ tmp1556, tickstart
 2466 0f22 D31A     		subs	r3, r2, r3	@ D.7022, D.7021, tmp1556
 2467 0f24 642B     		cmp	r3, #100	@ D.7022,
 2468 0f26 94BF     		ite	ls	@
ARM GAS  /tmp/ccn09EVD.s 			page 68


 2469 0f28 0023     		movls	r3, #0	@, tmp1558
 2470 0f2a 0123     		movhi	r3, #1	@, tmp1558
 2471 0f2c DBB2     		uxtb	r3, r3	@ retval.88, tmp1557
 2472 0f2e 002B     		cmp	r3, #0	@ retval.88,
 2473 0f30 03D0     		beq	.L144	@,
 533:Drivers/STM32L1xx_HAL_Driver/stm32l1xx_hal_rcc.cpp ****       {
 534:Drivers/STM32L1xx_HAL_Driver/stm32l1xx_hal_rcc.cpp ****         return HAL_TIMEOUT;
 2474              		.loc 1 534 0
 2475 0f32 4FF00303 		mov	r3, #3	@ D.6563,
 2476 0f36 00F0F4BC 		b	.L20	@
 2477              	.L144:
 530:Drivers/STM32L1xx_HAL_Driver/stm32l1xx_hal_rcc.cpp ****     while((PWR->CR & PWR_CR_DBP) == RESET)
 2478              		.loc 1 530 0 discriminator 1
 2479 0f3a 4FF4E043 		mov	r3, #28672	@ D.7017,
 2480 0f3e C4F20003 		movt	r3, 16384	@ D.7017,
 2481 0f42 1B68     		ldr	r3, [r3, #0]	@ D.7018, D.7017_419->CR
 2482 0f44 03F48073 		and	r3, r3, #256	@ D.7019, D.7018,
 2483 0f48 002B     		cmp	r3, #0	@ D.7019,
 2484 0f4a 14BF     		ite	ne	@
 2485 0f4c 0023     		movne	r3, #0	@, tmp1560
 2486 0f4e 0123     		moveq	r3, #1	@, tmp1560
 2487 0f50 DBB2     		uxtb	r3, r3	@ retval.87, tmp1559
 2488 0f52 002B     		cmp	r3, #0	@ retval.87,
 2489 0f54 E0D1     		bne	.L145	@,
 2490 0f56 07F5BC73 		add	r3, r7, #376	@ tmp1562,,
 2491 0f5a 4FF48072 		mov	r2, #256	@ tmp1563,
 2492 0f5e 1A60     		str	r2, [r3, #0]	@ tmp1563, value
 2493              	.LBB732:
 2494              	.LBB733:
 2495              	.LBB734:
 491:Drivers/CMSIS/Include/core_cmInstr.h ****    __ASM volatile ("rbit %0, %1" : "=r" (result) : "r" (value) );
 2496              		.loc 2 491 0 discriminator 1
 2497 0f60 07F5BC73 		add	r3, r7, #376	@ tmp1566,,
 2498 0f64 1B68     		ldr	r3, [r3, #0]	@ tmp1567, value
 2499              	@ 491 "Drivers/CMSIS/Include/core_cmInstr.h" 1
 2500 0f66 93FAA3F4 		rbit r4, r3	@ result, tmp1567
 2501              	@ 0 "" 2
 2502              		.thumb
 2503 0f6a 07F5BA73 		add	r3, r7, #372	@ tmp1569,,
 2504 0f6e 1C60     		str	r4, [r3, #0]	@ result, result
 492:Drivers/CMSIS/Include/core_cmInstr.h ****    return(result);
 2505              		.loc 2 492 0 discriminator 1
 2506 0f70 07F5BA73 		add	r3, r7, #372	@ tmp1571,,
 2507 0f74 1B68     		ldr	r3, [r3, #0]	@ D.7731, result
 2508              	.LBE734:
 2509              	.LBE733:
 535:Drivers/STM32L1xx_HAL_Driver/stm32l1xx_hal_rcc.cpp ****       }      
 536:Drivers/STM32L1xx_HAL_Driver/stm32l1xx_hal_rcc.cpp ****     }
 537:Drivers/STM32L1xx_HAL_Driver/stm32l1xx_hal_rcc.cpp ****     
 538:Drivers/STM32L1xx_HAL_Driver/stm32l1xx_hal_rcc.cpp ****     /* Reset LSEON and LSEBYP bits before configuring the LSE ----------------*/
 539:Drivers/STM32L1xx_HAL_Driver/stm32l1xx_hal_rcc.cpp ****     __HAL_RCC_LSE_CONFIG(RCC_LSE_OFF);
 2510              		.loc 1 539 0 discriminator 1
 2511 0f76 1A46     		mov	r2, r3	@ D.7029, D.7730
 2512 0f78 07F5B873 		add	r3, r7, #368	@ tmp1573,,
 2513 0f7c 1A60     		str	r2, [r3, #0]	@ D.7029, value
 2514              	.LBE732:
 2515              	.LBB735:
ARM GAS  /tmp/ccn09EVD.s 			page 69


 2516              	.LBB736:
 2517              	.LBB737:
 666:Drivers/CMSIS/Include/core_cmInstr.h ****   __ASM volatile ("clz %0, %1" : "=r" (result) : "r" (value) );
 2518              		.loc 2 666 0 discriminator 1
 2519 0f7e 07F5B873 		add	r3, r7, #368	@ tmp1576,,
 2520 0f82 1B68     		ldr	r3, [r3, #0]	@ tmp1577, value
 2521              	@ 666 "Drivers/CMSIS/Include/core_cmInstr.h" 1
 2522 0f84 B3FA83F4 		clz r4, r3	@ result, tmp1577
 2523              	@ 0 "" 2
 2524              		.thumb
 2525 0f88 07F5B673 		add	r3, r7, #364	@ tmp1579,,
 2526 0f8c 1C60     		str	r4, [r3, #0]	@ result, result
 2527              		.loc 2 667 0 discriminator 1
 2528 0f8e 07F5B673 		add	r3, r7, #364	@ tmp1581,,
 2529 0f92 1B68     		ldr	r3, [r3, #0]	@ tmp1582, result
 2530 0f94 DBB2     		uxtb	r3, r3	@ D.7736, tmp1582
 2531              	.LBE737:
 2532              	.LBE736:
 2533              	.LBE735:
 2534              		.loc 1 539 0 discriminator 1
 2535 0f96 4FEA8303 		lsl	r3, r3, #2	@ D.7032, D.7031,
 2536 0f9a 1A46     		mov	r2, r3	@ D.7033, D.7032
 2537 0f9c 4FF4D063 		mov	r3, #1664	@ D.7034,
 2538 0fa0 C4F24723 		movt	r3, 16967	@ D.7034,
 2539 0fa4 D318     		adds	r3, r2, r3	@ D.7034, D.7033, D.7034
 2540 0fa6 4FF00002 		mov	r2, #0	@ tmp1583,
 2541 0faa 1A60     		str	r2, [r3, #0]	@ tmp1583, *D.7035_433
 2542 0fac 07F5B473 		add	r3, r7, #360	@ tmp1585,,
 2543 0fb0 4FF48062 		mov	r2, #1024	@ tmp1586,
 2544 0fb4 1A60     		str	r2, [r3, #0]	@ tmp1586, value
 2545              	.LBB738:
 2546              	.LBB739:
 2547              	.LBB740:
 491:Drivers/CMSIS/Include/core_cmInstr.h ****    __ASM volatile ("rbit %0, %1" : "=r" (result) : "r" (value) );
 2548              		.loc 2 491 0 discriminator 1
 2549 0fb6 07F5B473 		add	r3, r7, #360	@ tmp1589,,
 2550 0fba 1B68     		ldr	r3, [r3, #0]	@ tmp1590, value
 2551              	@ 491 "Drivers/CMSIS/Include/core_cmInstr.h" 1
 2552 0fbc 93FAA3F4 		rbit r4, r3	@ result, tmp1590
 2553              	@ 0 "" 2
 2554              		.thumb
 2555 0fc0 07F5B273 		add	r3, r7, #356	@ tmp1592,,
 2556 0fc4 1C60     		str	r4, [r3, #0]	@ result, result
 492:Drivers/CMSIS/Include/core_cmInstr.h ****    return(result);
 2557              		.loc 2 492 0 discriminator 1
 2558 0fc6 07F5B273 		add	r3, r7, #356	@ tmp1594,,
 2559 0fca 1B68     		ldr	r3, [r3, #0]	@ D.7741, result
 2560              	.LBE740:
 2561              	.LBE739:
 2562              		.loc 1 539 0 discriminator 1
 2563 0fcc 1A46     		mov	r2, r3	@ D.7036, D.7740
 2564 0fce 07F5B073 		add	r3, r7, #352	@ tmp1596,,
 2565 0fd2 1A60     		str	r2, [r3, #0]	@ D.7036, value
 2566              	.LBE738:
 2567              	.LBB741:
 2568              	.LBB742:
 2569              	.LBB743:
ARM GAS  /tmp/ccn09EVD.s 			page 70


 666:Drivers/CMSIS/Include/core_cmInstr.h ****   __ASM volatile ("clz %0, %1" : "=r" (result) : "r" (value) );
 2570              		.loc 2 666 0 discriminator 1
 2571 0fd4 07F5B073 		add	r3, r7, #352	@ tmp1599,,
 2572 0fd8 1B68     		ldr	r3, [r3, #0]	@ tmp1600, value
 2573              	@ 666 "Drivers/CMSIS/Include/core_cmInstr.h" 1
 2574 0fda B3FA83F4 		clz r4, r3	@ result, tmp1600
 2575              	@ 0 "" 2
 2576              		.thumb
 2577 0fde 07F5AE73 		add	r3, r7, #348	@ tmp1602,,
 2578 0fe2 1C60     		str	r4, [r3, #0]	@ result, result
 2579              		.loc 2 667 0 discriminator 1
 2580 0fe4 07F5AE73 		add	r3, r7, #348	@ tmp1604,,
 2581 0fe8 1B68     		ldr	r3, [r3, #0]	@ tmp1605, result
 2582 0fea DBB2     		uxtb	r3, r3	@ D.7746, tmp1605
 2583              	.LBE743:
 2584              	.LBE742:
 2585              	.LBE741:
 2586              		.loc 1 539 0 discriminator 1
 2587 0fec 4FEA8303 		lsl	r3, r3, #2	@ D.7039, D.7038,
 2588 0ff0 1A46     		mov	r2, r3	@ D.7040, D.7039
 2589 0ff2 4FF4D063 		mov	r3, #1664	@ D.7041,
 2590 0ff6 C4F24723 		movt	r3, 16967	@ D.7041,
 2591 0ffa D318     		adds	r3, r2, r3	@ D.7041, D.7040, D.7041
 2592 0ffc 4FF00002 		mov	r2, #0	@ tmp1606,
 2593 1000 1A60     		str	r2, [r3, #0]	@ tmp1606, *D.7042_440
 540:Drivers/STM32L1xx_HAL_Driver/stm32l1xx_hal_rcc.cpp ****     
 541:Drivers/STM32L1xx_HAL_Driver/stm32l1xx_hal_rcc.cpp ****     /* Get Start Tick*/
 542:Drivers/STM32L1xx_HAL_Driver/stm32l1xx_hal_rcc.cpp ****     tickstart = HAL_GetTick();
 2594              		.loc 1 542 0 discriminator 1
 2595 1002 FFF7FEFF 		bl	HAL_GetTick	@
 2596 1006 C7F89C03 		str	r0, [r7, #924]	@, tickstart
 543:Drivers/STM32L1xx_HAL_Driver/stm32l1xx_hal_rcc.cpp ****     
 544:Drivers/STM32L1xx_HAL_Driver/stm32l1xx_hal_rcc.cpp ****     /* Wait till LSE is ready */  
 545:Drivers/STM32L1xx_HAL_Driver/stm32l1xx_hal_rcc.cpp ****     while(__HAL_RCC_GET_FLAG(RCC_FLAG_LSERDY) != RESET)
 2597              		.loc 1 545 0 discriminator 1
 2598 100a 12E0     		b	.L150	@
 2599              	.L157:
 546:Drivers/STM32L1xx_HAL_Driver/stm32l1xx_hal_rcc.cpp ****     {
 547:Drivers/STM32L1xx_HAL_Driver/stm32l1xx_hal_rcc.cpp ****       if((HAL_GetTick() - tickstart ) > LSE_TIMEOUT_VALUE)
 2600              		.loc 1 547 0
 2601 100c FFF7FEFF 		bl	HAL_GetTick	@
 2602 1010 0246     		mov	r2, r0	@ D.7097,
 2603 1012 D7F89C33 		ldr	r3, [r7, #924]	@ tmp1607, tickstart
 2604 1016 D21A     		subs	r2, r2, r3	@ D.7098, D.7097, tmp1607
 2605 1018 41F28833 		movw	r3, #5000	@ tmp1610,
 2606 101c 9A42     		cmp	r2, r3	@ D.7098, tmp1610
 2607 101e 94BF     		ite	ls	@
 2608 1020 0023     		movls	r3, #0	@, tmp1609
 2609 1022 0123     		movhi	r3, #1	@, tmp1609
 2610 1024 DBB2     		uxtb	r3, r3	@ retval.91, tmp1608
 2611 1026 002B     		cmp	r3, #0	@ retval.91,
 2612 1028 03D0     		beq	.L150	@,
 548:Drivers/STM32L1xx_HAL_Driver/stm32l1xx_hal_rcc.cpp ****       {
 549:Drivers/STM32L1xx_HAL_Driver/stm32l1xx_hal_rcc.cpp ****         return HAL_TIMEOUT;
 2613              		.loc 1 549 0
 2614 102a 4FF00303 		mov	r3, #3	@ D.6563,
 2615 102e 00F078BC 		b	.L20	@
ARM GAS  /tmp/ccn09EVD.s 			page 71


 2616              	.L150:
 2617 1032 07F5AC73 		add	r3, r7, #344	@ tmp1612,,
 2618 1036 4FF40072 		mov	r2, #512	@ tmp1613,
 2619 103a 1A60     		str	r2, [r3, #0]	@ tmp1613, value
 2620              	.LBB744:
 2621              	.LBB745:
 2622              	.LBB746:
 491:Drivers/CMSIS/Include/core_cmInstr.h ****    __ASM volatile ("rbit %0, %1" : "=r" (result) : "r" (value) );
 2623              		.loc 2 491 0 discriminator 1
 2624 103c 07F5AC73 		add	r3, r7, #344	@ tmp1616,,
 2625 1040 1B68     		ldr	r3, [r3, #0]	@ tmp1617, value
 2626              	@ 491 "Drivers/CMSIS/Include/core_cmInstr.h" 1
 2627 1042 93FAA3F4 		rbit r4, r3	@ result, tmp1617
 2628              	@ 0 "" 2
 2629              		.thumb
 2630 1046 07F5AA73 		add	r3, r7, #340	@ tmp1619,,
 2631 104a 1C60     		str	r4, [r3, #0]	@ result, result
 492:Drivers/CMSIS/Include/core_cmInstr.h ****    return(result);
 2632              		.loc 2 492 0 discriminator 1
 2633 104c 07F5AA73 		add	r3, r7, #340	@ tmp1621,,
 2634 1050 1B68     		ldr	r3, [r3, #0]	@ D.7751, result
 2635              	.LBE746:
 2636              	.LBE745:
 545:Drivers/STM32L1xx_HAL_Driver/stm32l1xx_hal_rcc.cpp ****     while(__HAL_RCC_GET_FLAG(RCC_FLAG_LSERDY) != RESET)
 2637              		.loc 1 545 0 discriminator 1
 2638 1052 1A46     		mov	r2, r3	@ D.7080, D.7750
 2639 1054 07F5A873 		add	r3, r7, #336	@ tmp1623,,
 2640 1058 1A60     		str	r2, [r3, #0]	@ D.7080, value
 2641              	.LBE744:
 2642              	.LBB747:
 2643              	.LBB748:
 2644              	.LBB749:
 666:Drivers/CMSIS/Include/core_cmInstr.h ****   __ASM volatile ("clz %0, %1" : "=r" (result) : "r" (value) );
 2645              		.loc 2 666 0 discriminator 1
 2646 105a 07F5A873 		add	r3, r7, #336	@ tmp1626,,
 2647 105e 1B68     		ldr	r3, [r3, #0]	@ tmp1627, value
 2648              	@ 666 "Drivers/CMSIS/Include/core_cmInstr.h" 1
 2649 1060 B3FA83F4 		clz r4, r3	@ result, tmp1627
 2650              	@ 0 "" 2
 2651              		.thumb
 2652 1064 07F5A673 		add	r3, r7, #332	@ tmp1629,,
 2653 1068 1C60     		str	r4, [r3, #0]	@ result, result
 2654              		.loc 2 667 0 discriminator 1
 2655 106a 07F5A673 		add	r3, r7, #332	@ tmp1631,,
 2656 106e 1B68     		ldr	r3, [r3, #0]	@ tmp1632, result
 2657 1070 DBB2     		uxtb	r3, r3	@ D.7756, tmp1632
 2658              	.LBE749:
 2659              	.LBE748:
 2660              	.LBE747:
 545:Drivers/STM32L1xx_HAL_Driver/stm32l1xx_hal_rcc.cpp ****     while(__HAL_RCC_GET_FLAG(RCC_FLAG_LSERDY) != RESET)
 2661              		.loc 1 545 0 discriminator 1
 2662 1072 43F06003 		orr	r3, r3, #96	@ tmp1633, D.7081,
 2663 1076 DBB2     		uxtb	r3, r3	@ D.7082, tmp1633
 2664 1078 4FEA6313 		asr	r3, r3, #5	@ D.7084, D.7083,
 2665 107c 012B     		cmp	r3, #1	@ D.7084,
 2666 107e 05D1     		bne	.L153	@,
 545:Drivers/STM32L1xx_HAL_Driver/stm32l1xx_hal_rcc.cpp ****     while(__HAL_RCC_GET_FLAG(RCC_FLAG_LSERDY) != RESET)
ARM GAS  /tmp/ccn09EVD.s 			page 72


 2667              		.loc 1 545 0 is_stmt 0 discriminator 2
 2668 1080 4FF46053 		mov	r3, #14336	@ D.7087,
 2669 1084 C4F20203 		movt	r3, 16386	@ D.7087,
 2670 1088 1B68     		ldr	r3, [r3, #0]	@ iftmp.90, D.7087_447->CR
 2671 108a 04E0     		b	.L154	@
 2672              	.L153:
 545:Drivers/STM32L1xx_HAL_Driver/stm32l1xx_hal_rcc.cpp ****     while(__HAL_RCC_GET_FLAG(RCC_FLAG_LSERDY) != RESET)
 2673              		.loc 1 545 0 discriminator 3
 2674 108c 4FF46053 		mov	r3, #14336	@ D.7089,
 2675 1090 C4F20203 		movt	r3, 16386	@ D.7089,
 2676 1094 5B6B     		ldr	r3, [r3, #52]	@ iftmp.90, D.7089_449->CSR
 2677              	.L154:
 2678 1096 07F5A472 		add	r2, r7, #328	@ tmp1635,,
 2679 109a 4FF40071 		mov	r1, #512	@ tmp1636,
 2680 109e 1160     		str	r1, [r2, #0]	@ tmp1636, value
 2681              	.LBB750:
 2682              	.LBB751:
 2683              	.LBB752:
 491:Drivers/CMSIS/Include/core_cmInstr.h ****    __ASM volatile ("rbit %0, %1" : "=r" (result) : "r" (value) );
 2684              		.loc 2 491 0 is_stmt 1 discriminator 4
 2685 10a0 07F5A472 		add	r2, r7, #328	@ tmp1639,,
 2686 10a4 1268     		ldr	r2, [r2, #0]	@ tmp1640, value
 2687              	@ 491 "Drivers/CMSIS/Include/core_cmInstr.h" 1
 2688 10a6 92FAA2F4 		rbit r4, r2	@ result, tmp1640
 2689              	@ 0 "" 2
 2690              		.thumb
 2691 10aa 07F5A272 		add	r2, r7, #324	@ tmp1642,,
 2692 10ae 1460     		str	r4, [r2, #0]	@ result, result
 492:Drivers/CMSIS/Include/core_cmInstr.h ****    return(result);
 2693              		.loc 2 492 0 discriminator 4
 2694 10b0 07F5A272 		add	r2, r7, #324	@ tmp1644,,
 2695 10b4 1268     		ldr	r2, [r2, #0]	@ D.7761, result
 2696              	.LBE752:
 2697              	.LBE751:
 545:Drivers/STM32L1xx_HAL_Driver/stm32l1xx_hal_rcc.cpp ****     while(__HAL_RCC_GET_FLAG(RCC_FLAG_LSERDY) != RESET)
 2698              		.loc 1 545 0 discriminator 4
 2699 10b6 1146     		mov	r1, r2	@ D.7090, D.7760
 2700 10b8 07F5A072 		add	r2, r7, #320	@ tmp1646,,
 2701 10bc 1160     		str	r1, [r2, #0]	@ D.7090, value
 2702              	.LBE750:
 2703              	.LBB753:
 2704              	.LBB754:
 2705              	.LBB755:
 666:Drivers/CMSIS/Include/core_cmInstr.h ****   __ASM volatile ("clz %0, %1" : "=r" (result) : "r" (value) );
 2706              		.loc 2 666 0 discriminator 4
 2707 10be 07F5A072 		add	r2, r7, #320	@ tmp1649,,
 2708 10c2 1268     		ldr	r2, [r2, #0]	@ tmp1650, value
 2709              	@ 666 "Drivers/CMSIS/Include/core_cmInstr.h" 1
 2710 10c4 B2FA82F4 		clz r4, r2	@ result, tmp1650
 2711              	@ 0 "" 2
 2712              		.thumb
 2713 10c8 07F59E72 		add	r2, r7, #316	@ tmp1652,,
 2714 10cc 1460     		str	r4, [r2, #0]	@ result, result
 2715              		.loc 2 667 0 discriminator 4
 2716 10ce 07F59E72 		add	r2, r7, #316	@ tmp1654,,
 2717 10d2 1268     		ldr	r2, [r2, #0]	@ tmp1655, result
 2718 10d4 D2B2     		uxtb	r2, r2	@ D.7766, tmp1655
ARM GAS  /tmp/ccn09EVD.s 			page 73


 2719              	.LBE755:
 2720              	.LBE754:
 2721              	.LBE753:
 545:Drivers/STM32L1xx_HAL_Driver/stm32l1xx_hal_rcc.cpp ****     while(__HAL_RCC_GET_FLAG(RCC_FLAG_LSERDY) != RESET)
 2722              		.loc 1 545 0 discriminator 4
 2723 10d6 02F01F02 		and	r2, r2, #31	@ D.7093, D.7092,
 2724 10da 23FA02F3 		lsr	r3, r3, r2	@ D.7094, iftmp.90, D.7093
 2725 10de 03F00103 		and	r3, r3, #1	@ D.7095, D.7094,
 2726 10e2 002B     		cmp	r3, #0	@ D.7095,
 2727 10e4 0CBF     		ite	eq	@
 2728 10e6 0023     		moveq	r3, #0	@, tmp1657
 2729 10e8 0123     		movne	r3, #1	@, tmp1657
 2730 10ea DBB2     		uxtb	r3, r3	@ retval.89, tmp1656
 2731 10ec 002B     		cmp	r3, #0	@ retval.89,
 2732 10ee 8DD1     		bne	.L157	@,
 550:Drivers/STM32L1xx_HAL_Driver/stm32l1xx_hal_rcc.cpp ****       }
 551:Drivers/STM32L1xx_HAL_Driver/stm32l1xx_hal_rcc.cpp ****     }
 552:Drivers/STM32L1xx_HAL_Driver/stm32l1xx_hal_rcc.cpp ****     
 553:Drivers/STM32L1xx_HAL_Driver/stm32l1xx_hal_rcc.cpp ****     /* Set the new LSE configuration -----------------------------------------*/
 554:Drivers/STM32L1xx_HAL_Driver/stm32l1xx_hal_rcc.cpp ****     __HAL_RCC_LSE_CONFIG(RCC_OscInitStruct->LSEState);
 2733              		.loc 1 554 0
 2734 10f0 07F10403 		add	r3, r7, #4	@ tmp1660,,
