ARM GAS  /tmp/ccIAVpNs.s 			page 1


   1              		.syntax unified
   2              		.cpu cortex-m3
   3              		.fpu softvfp
   4              		.eabi_attribute 20, 1	@ Tag_ABI_FP_denormal
   5              		.eabi_attribute 21, 1	@ Tag_ABI_FP_exceptions
   6              		.eabi_attribute 23, 3	@ Tag_ABI_FP_number_model
   7              		.eabi_attribute 24, 1	@ Tag_ABI_align8_needed
   8              		.eabi_attribute 25, 1	@ Tag_ABI_align8_preserved
   9              		.eabi_attribute 26, 1	@ Tag_ABI_enum_size
  10              		.eabi_attribute 30, 6	@ Tag_ABI_optimization_goals
  11              		.eabi_attribute 34, 1	@ Tag_CPU_unaligned_access
  12              		.eabi_attribute 18, 4	@ Tag_ABI_PCS_wchar_t
  13              		.file	"stm32l1xx_hal_pwr_ex.cpp"
  14              	@ GNU C++ (GNU Tools for ARM Embedded Processors) version 4.7.3 20130312 (release) [ARM/embedded-4_
  15              	@	compiled by GNU C version 4.3.6, GMP version 4.3.2, MPFR version 2.4.2, MPC version 0.8.1
  16              	@ GGC heuristics: --param ggc-min-expand=100 --param ggc-min-heapsize=131072
  17              	@ options passed:  -I . -I Src -I hdr -I Inc -I Middlewares
  18              	@ -I Middlewares/ST -I Middlewares/ST/STM32_USB_Device_Library/Class/CDC
  19              	@ -I Middlewares/ST/STM32_USB_Device_Library/Core -I Drivers
  20              	@ -I Drivers/CMSIS -I Drivers/CMSIS/Device/ST/STM32L1xx
  21              	@ -I Drivers/CMSIS/Include -I Drivers/STM32L1xx_HAL_Driver
  22              	@ -imultilib armv7-m
  23              	@ -iprefix /home/maciek/gcc-arm-none-eabi/gcc-arm-none-eabi-4_7-2013q1/bin/../lib/gcc/arm-none-eabi
  24              	@ -isysroot /home/maciek/gcc-arm-none-eabi/gcc-arm-none-eabi-4_7-2013q1/bin/../arm-none-eabi
  25              	@ -MD out/stm32l1xx_hal_pwr_ex.d -MF out/stm32l1xx_hal_pwr_ex.d -MP
  26              	@ -MQ out/stm32l1xx_hal_pwr_ex.o -D__USES_INITFINI__ -D STM32L1XX_MD
  27              	@ Drivers/STM32L1xx_HAL_Driver/stm32l1xx_hal_pwr_ex.cpp -mcpu=cortex-m3
  28              	@ -mthumb -auxbase-strip out/stm32l1xx_hal_pwr_ex.o -g -ggdb3 -O0 -Wall
  29              	@ -Wextra -std=gnu++11 -ffunction-sections -fdata-sections -fno-rtti
  30              	@ -fno-exceptions -fverbose-asm
  31              	@ options enabled:  -fauto-inc-dec -fbranch-count-reg -fcommon
  32              	@ -fdata-sections -fdebug-types-section -fdelete-null-pointer-checks
  33              	@ -fdwarf2-cfi-asm -fearly-inlining -feliminate-unused-debug-types
  34              	@ -ffunction-cse -ffunction-sections -fgcse-lm -fgnu-runtime -fident
  35              	@ -finline-atomics -fira-share-save-slots -fira-share-spill-slots -fivopts
  36              	@ -fkeep-static-consts -fleading-underscore -fmath-errno
  37              	@ -fmerge-debug-strings -fmove-loop-invariants -fpeephole
  38              	@ -fprefetch-loop-arrays -freg-struct-return
  39              	@ -fsched-critical-path-heuristic -fsched-dep-count-heuristic
  40              	@ -fsched-group-heuristic -fsched-interblock -fsched-last-insn-heuristic
  41              	@ -fsched-rank-heuristic -fsched-spec -fsched-spec-insn-heuristic
  42              	@ -fsched-stalled-insns-dep -fshow-column -fsigned-zeros
  43              	@ -fsplit-ivs-in-unroller -fstrict-volatile-bitfields -ftrapping-math
  44              	@ -ftree-cselim -ftree-forwprop -ftree-loop-if-convert -ftree-loop-im
  45              	@ -ftree-loop-ivcanon -ftree-loop-optimize -ftree-parallelize-loops=
  46              	@ -ftree-phiprop -ftree-pta -ftree-reassoc -ftree-scev-cprop
  47              	@ -ftree-slp-vectorize -ftree-vect-loop-version -funit-at-a-time
  48              	@ -fverbose-asm -fzero-initialized-in-bss -mfix-cortex-m3-ldrd
  49              	@ -mlittle-endian -msched-prolog -mthumb -munaligned-access
  50              	@ -mvectorize-with-neon-quad
  51              	
  52              		.text
  53              	.Ltext0:
  54              		.cfi_sections	.debug_frame
  55              		.section	.text.HAL_PWREx_EnableFastWakeUp,"ax",%progbits
  56              		.align	2
  57              		.global	HAL_PWREx_EnableFastWakeUp
ARM GAS  /tmp/ccIAVpNs.s 			page 2


  58              		.thumb
  59              		.thumb_func
  60              		.type	HAL_PWREx_EnableFastWakeUp, %function
  61              	HAL_PWREx_EnableFastWakeUp:
  62              	.LFB56:
  63              		.file 1 "Drivers/STM32L1xx_HAL_Driver/stm32l1xx_hal_pwr_ex.cpp"
   1:Drivers/STM32L1xx_HAL_Driver/stm32l1xx_hal_pwr_ex.cpp **** /**
   2:Drivers/STM32L1xx_HAL_Driver/stm32l1xx_hal_pwr_ex.cpp ****   ******************************************************************************
   3:Drivers/STM32L1xx_HAL_Driver/stm32l1xx_hal_pwr_ex.cpp ****   * @file    stm32l1xx_hal_pwr_ex.c
   4:Drivers/STM32L1xx_HAL_Driver/stm32l1xx_hal_pwr_ex.cpp ****   * @author  MCD Application Team
   5:Drivers/STM32L1xx_HAL_Driver/stm32l1xx_hal_pwr_ex.cpp ****   * @version V1.0.0
   6:Drivers/STM32L1xx_HAL_Driver/stm32l1xx_hal_pwr_ex.cpp ****   * @date    5-September-2014
   7:Drivers/STM32L1xx_HAL_Driver/stm32l1xx_hal_pwr_ex.cpp ****   * @brief   Extended PWR HAL module driver.
   8:Drivers/STM32L1xx_HAL_Driver/stm32l1xx_hal_pwr_ex.cpp ****   *          This file provides firmware functions to manage the following
   9:Drivers/STM32L1xx_HAL_Driver/stm32l1xx_hal_pwr_ex.cpp ****   *          functionalities of the Power Controller (PWR) peripheral:
  10:Drivers/STM32L1xx_HAL_Driver/stm32l1xx_hal_pwr_ex.cpp ****   *           + Extended Initialization and de-initialization functions
  11:Drivers/STM32L1xx_HAL_Driver/stm32l1xx_hal_pwr_ex.cpp ****   *           + Extended Peripheral Control functions
  12:Drivers/STM32L1xx_HAL_Driver/stm32l1xx_hal_pwr_ex.cpp ****   *         
  13:Drivers/STM32L1xx_HAL_Driver/stm32l1xx_hal_pwr_ex.cpp ****   ******************************************************************************
  14:Drivers/STM32L1xx_HAL_Driver/stm32l1xx_hal_pwr_ex.cpp ****   * @attention
  15:Drivers/STM32L1xx_HAL_Driver/stm32l1xx_hal_pwr_ex.cpp ****   *
  16:Drivers/STM32L1xx_HAL_Driver/stm32l1xx_hal_pwr_ex.cpp ****   * <h2><center>&copy; COPYRIGHT(c) 2014 STMicroelectronics</center></h2>
  17:Drivers/STM32L1xx_HAL_Driver/stm32l1xx_hal_pwr_ex.cpp ****   *
  18:Drivers/STM32L1xx_HAL_Driver/stm32l1xx_hal_pwr_ex.cpp ****   * Redistribution and use in source and binary forms, with or without modification,
  19:Drivers/STM32L1xx_HAL_Driver/stm32l1xx_hal_pwr_ex.cpp ****   * are permitted provided that the following conditions are met:
  20:Drivers/STM32L1xx_HAL_Driver/stm32l1xx_hal_pwr_ex.cpp ****   *   1. Redistributions of source code must retain the above copyright notice,
  21:Drivers/STM32L1xx_HAL_Driver/stm32l1xx_hal_pwr_ex.cpp ****   *      this list of conditions and the following disclaimer.
  22:Drivers/STM32L1xx_HAL_Driver/stm32l1xx_hal_pwr_ex.cpp ****   *   2. Redistributions in binary form must reproduce the above copyright notice,
  23:Drivers/STM32L1xx_HAL_Driver/stm32l1xx_hal_pwr_ex.cpp ****   *      this list of conditions and the following disclaimer in the documentation
  24:Drivers/STM32L1xx_HAL_Driver/stm32l1xx_hal_pwr_ex.cpp ****   *      and/or other materials provided with the distribution.
  25:Drivers/STM32L1xx_HAL_Driver/stm32l1xx_hal_pwr_ex.cpp ****   *   3. Neither the name of STMicroelectronics nor the names of its contributors
  26:Drivers/STM32L1xx_HAL_Driver/stm32l1xx_hal_pwr_ex.cpp ****   *      may be used to endorse or promote products derived from this software
  27:Drivers/STM32L1xx_HAL_Driver/stm32l1xx_hal_pwr_ex.cpp ****   *      without specific prior written permission.
  28:Drivers/STM32L1xx_HAL_Driver/stm32l1xx_hal_pwr_ex.cpp ****   *
  29:Drivers/STM32L1xx_HAL_Driver/stm32l1xx_hal_pwr_ex.cpp ****   * THIS SOFTWARE IS PROVIDED BY THE COPYRIGHT HOLDERS AND CONTRIBUTORS "AS IS"
  30:Drivers/STM32L1xx_HAL_Driver/stm32l1xx_hal_pwr_ex.cpp ****   * AND ANY EXPRESS OR IMPLIED WARRANTIES, INCLUDING, BUT NOT LIMITED TO, THE
  31:Drivers/STM32L1xx_HAL_Driver/stm32l1xx_hal_pwr_ex.cpp ****   * IMPLIED WARRANTIES OF MERCHANTABILITY AND FITNESS FOR A PARTICULAR PURPOSE ARE
  32:Drivers/STM32L1xx_HAL_Driver/stm32l1xx_hal_pwr_ex.cpp ****   * DISCLAIMED. IN NO EVENT SHALL THE COPYRIGHT HOLDER OR CONTRIBUTORS BE LIABLE
  33:Drivers/STM32L1xx_HAL_Driver/stm32l1xx_hal_pwr_ex.cpp ****   * FOR ANY DIRECT, INDIRECT, INCIDENTAL, SPECIAL, EXEMPLARY, OR CONSEQUENTIAL
  34:Drivers/STM32L1xx_HAL_Driver/stm32l1xx_hal_pwr_ex.cpp ****   * DAMAGES (INCLUDING, BUT NOT LIMITED TO, PROCUREMENT OF SUBSTITUTE GOODS OR
  35:Drivers/STM32L1xx_HAL_Driver/stm32l1xx_hal_pwr_ex.cpp ****   * SERVICES; LOSS OF USE, DATA, OR PROFITS; OR BUSINESS INTERRUPTION) HOWEVER
  36:Drivers/STM32L1xx_HAL_Driver/stm32l1xx_hal_pwr_ex.cpp ****   * CAUSED AND ON ANY THEORY OF LIABILITY, WHETHER IN CONTRACT, STRICT LIABILITY,
  37:Drivers/STM32L1xx_HAL_Driver/stm32l1xx_hal_pwr_ex.cpp ****   * OR TORT (INCLUDING NEGLIGENCE OR OTHERWISE) ARISING IN ANY WAY OUT OF THE USE
  38:Drivers/STM32L1xx_HAL_Driver/stm32l1xx_hal_pwr_ex.cpp ****   * OF THIS SOFTWARE, EVEN IF ADVISED OF THE POSSIBILITY OF SUCH DAMAGE.
  39:Drivers/STM32L1xx_HAL_Driver/stm32l1xx_hal_pwr_ex.cpp ****   *
  40:Drivers/STM32L1xx_HAL_Driver/stm32l1xx_hal_pwr_ex.cpp ****   ******************************************************************************
  41:Drivers/STM32L1xx_HAL_Driver/stm32l1xx_hal_pwr_ex.cpp ****   */
  42:Drivers/STM32L1xx_HAL_Driver/stm32l1xx_hal_pwr_ex.cpp **** 
  43:Drivers/STM32L1xx_HAL_Driver/stm32l1xx_hal_pwr_ex.cpp **** /* Includes ------------------------------------------------------------------*/
  44:Drivers/STM32L1xx_HAL_Driver/stm32l1xx_hal_pwr_ex.cpp **** #include "stm32l1xx_hal.h"
  45:Drivers/STM32L1xx_HAL_Driver/stm32l1xx_hal_pwr_ex.cpp **** 
  46:Drivers/STM32L1xx_HAL_Driver/stm32l1xx_hal_pwr_ex.cpp **** /** @addtogroup STM32L1xx_HAL_Driver
  47:Drivers/STM32L1xx_HAL_Driver/stm32l1xx_hal_pwr_ex.cpp ****   * @{
  48:Drivers/STM32L1xx_HAL_Driver/stm32l1xx_hal_pwr_ex.cpp ****   */
  49:Drivers/STM32L1xx_HAL_Driver/stm32l1xx_hal_pwr_ex.cpp **** 
  50:Drivers/STM32L1xx_HAL_Driver/stm32l1xx_hal_pwr_ex.cpp **** /** @defgroup PWREx PWREx
  51:Drivers/STM32L1xx_HAL_Driver/stm32l1xx_hal_pwr_ex.cpp ****   * @brief    PWR HAL module driver
ARM GAS  /tmp/ccIAVpNs.s 			page 3


  52:Drivers/STM32L1xx_HAL_Driver/stm32l1xx_hal_pwr_ex.cpp ****   * @{
  53:Drivers/STM32L1xx_HAL_Driver/stm32l1xx_hal_pwr_ex.cpp ****   */
  54:Drivers/STM32L1xx_HAL_Driver/stm32l1xx_hal_pwr_ex.cpp **** 
  55:Drivers/STM32L1xx_HAL_Driver/stm32l1xx_hal_pwr_ex.cpp **** #ifdef HAL_PWR_MODULE_ENABLED
  56:Drivers/STM32L1xx_HAL_Driver/stm32l1xx_hal_pwr_ex.cpp **** 
  57:Drivers/STM32L1xx_HAL_Driver/stm32l1xx_hal_pwr_ex.cpp **** /* Private typedef -----------------------------------------------------------*/
  58:Drivers/STM32L1xx_HAL_Driver/stm32l1xx_hal_pwr_ex.cpp **** /* Private define ------------------------------------------------------------*/
  59:Drivers/STM32L1xx_HAL_Driver/stm32l1xx_hal_pwr_ex.cpp **** /* Private macro -------------------------------------------------------------*/
  60:Drivers/STM32L1xx_HAL_Driver/stm32l1xx_hal_pwr_ex.cpp **** /* Private variables ---------------------------------------------------------*/
  61:Drivers/STM32L1xx_HAL_Driver/stm32l1xx_hal_pwr_ex.cpp **** /* Private function prototypes -----------------------------------------------*/
  62:Drivers/STM32L1xx_HAL_Driver/stm32l1xx_hal_pwr_ex.cpp **** /* Private functions ---------------------------------------------------------*/
  63:Drivers/STM32L1xx_HAL_Driver/stm32l1xx_hal_pwr_ex.cpp **** 
  64:Drivers/STM32L1xx_HAL_Driver/stm32l1xx_hal_pwr_ex.cpp **** /** @defgroup PWREx_Exported_Functions PWREx Exported Functions
  65:Drivers/STM32L1xx_HAL_Driver/stm32l1xx_hal_pwr_ex.cpp ****   * @{
  66:Drivers/STM32L1xx_HAL_Driver/stm32l1xx_hal_pwr_ex.cpp ****   */
  67:Drivers/STM32L1xx_HAL_Driver/stm32l1xx_hal_pwr_ex.cpp **** 
  68:Drivers/STM32L1xx_HAL_Driver/stm32l1xx_hal_pwr_ex.cpp **** /** @defgroup PWREx_Exported_Functions_Group1 Peripheral Extended Features Functions
  69:Drivers/STM32L1xx_HAL_Driver/stm32l1xx_hal_pwr_ex.cpp ****   * @brief    Low Power modes configuration functions
  70:Drivers/STM32L1xx_HAL_Driver/stm32l1xx_hal_pwr_ex.cpp ****   *
  71:Drivers/STM32L1xx_HAL_Driver/stm32l1xx_hal_pwr_ex.cpp **** @verbatim
  72:Drivers/STM32L1xx_HAL_Driver/stm32l1xx_hal_pwr_ex.cpp **** 
  73:Drivers/STM32L1xx_HAL_Driver/stm32l1xx_hal_pwr_ex.cpp ****  ===============================================================================
  74:Drivers/STM32L1xx_HAL_Driver/stm32l1xx_hal_pwr_ex.cpp ****                  ##### Peripheral extended features functions #####
  75:Drivers/STM32L1xx_HAL_Driver/stm32l1xx_hal_pwr_ex.cpp ****  ===============================================================================
  76:Drivers/STM32L1xx_HAL_Driver/stm32l1xx_hal_pwr_ex.cpp **** @endverbatim
  77:Drivers/STM32L1xx_HAL_Driver/stm32l1xx_hal_pwr_ex.cpp ****   * @{
  78:Drivers/STM32L1xx_HAL_Driver/stm32l1xx_hal_pwr_ex.cpp ****   */
  79:Drivers/STM32L1xx_HAL_Driver/stm32l1xx_hal_pwr_ex.cpp **** 
  80:Drivers/STM32L1xx_HAL_Driver/stm32l1xx_hal_pwr_ex.cpp **** /**
  81:Drivers/STM32L1xx_HAL_Driver/stm32l1xx_hal_pwr_ex.cpp ****   * @brief  Enables the Fast WakeUp from Ultra Low Power mode.
  82:Drivers/STM32L1xx_HAL_Driver/stm32l1xx_hal_pwr_ex.cpp ****   * @note   This bit works in conjunction with ULP bit. 
  83:Drivers/STM32L1xx_HAL_Driver/stm32l1xx_hal_pwr_ex.cpp ****   *         Means, when ULP = 1 and FWU = 1 :VREFINT startup time is ignored when 
  84:Drivers/STM32L1xx_HAL_Driver/stm32l1xx_hal_pwr_ex.cpp ****   *         exiting from low power mode.
  85:Drivers/STM32L1xx_HAL_Driver/stm32l1xx_hal_pwr_ex.cpp ****   * @retval None
  86:Drivers/STM32L1xx_HAL_Driver/stm32l1xx_hal_pwr_ex.cpp ****   */
  87:Drivers/STM32L1xx_HAL_Driver/stm32l1xx_hal_pwr_ex.cpp **** void HAL_PWREx_EnableFastWakeUp(void)
  88:Drivers/STM32L1xx_HAL_Driver/stm32l1xx_hal_pwr_ex.cpp **** {
  64              		.loc 1 88 0
  65              		.cfi_startproc
  66              		@ args = 0, pretend = 0, frame = 16
  67              		@ frame_needed = 1, uses_anonymous_args = 0
  68              		@ link register save eliminated.
  69 0000 90B4     		push	{r4, r7}	@
  70              	.LCFI0:
  71              		.cfi_def_cfa_offset 8
  72              		.cfi_offset 4, -8
  73              		.cfi_offset 7, -4
  74 0002 84B0     		sub	sp, sp, #16	@,,
  75              	.LCFI1:
  76              		.cfi_def_cfa_offset 24
  77 0004 00AF     		add	r7, sp, #0	@,,
  78              	.LCFI2:
  79              		.cfi_def_cfa_register 7
  80 0006 4FF48063 		mov	r3, #1024	@ tmp145,
  81 000a FB60     		str	r3, [r7, #12]	@ tmp145, value
  82              	.LBB50:
  83              	.LBB51:
ARM GAS  /tmp/ccIAVpNs.s 			page 4


  84              	.LBB52:
  85              		.file 2 "Drivers/CMSIS/Include/core_cmInstr.h"
   1:Drivers/CMSIS/Include/core_cmInstr.h **** /**************************************************************************//**
   2:Drivers/CMSIS/Include/core_cmInstr.h ****  * @file     core_cmInstr.h
   3:Drivers/CMSIS/Include/core_cmInstr.h ****  * @brief    CMSIS Cortex-M Core Instruction Access Header File
   4:Drivers/CMSIS/Include/core_cmInstr.h ****  * @version  V3.20
   5:Drivers/CMSIS/Include/core_cmInstr.h ****  * @date     05. March 2013
   6:Drivers/CMSIS/Include/core_cmInstr.h ****  *
   7:Drivers/CMSIS/Include/core_cmInstr.h ****  * @note
   8:Drivers/CMSIS/Include/core_cmInstr.h ****  *
   9:Drivers/CMSIS/Include/core_cmInstr.h ****  ******************************************************************************/
  10:Drivers/CMSIS/Include/core_cmInstr.h **** /* Copyright (c) 2009 - 2013 ARM LIMITED
  11:Drivers/CMSIS/Include/core_cmInstr.h **** 
  12:Drivers/CMSIS/Include/core_cmInstr.h ****    All rights reserved.
  13:Drivers/CMSIS/Include/core_cmInstr.h ****    Redistribution and use in source and binary forms, with or without
  14:Drivers/CMSIS/Include/core_cmInstr.h ****    modification, are permitted provided that the following conditions are met:
  15:Drivers/CMSIS/Include/core_cmInstr.h ****    - Redistributions of source code must retain the above copyright
  16:Drivers/CMSIS/Include/core_cmInstr.h ****      notice, this list of conditions and the following disclaimer.
  17:Drivers/CMSIS/Include/core_cmInstr.h ****    - Redistributions in binary form must reproduce the above copyright
  18:Drivers/CMSIS/Include/core_cmInstr.h ****      notice, this list of conditions and the following disclaimer in the
  19:Drivers/CMSIS/Include/core_cmInstr.h ****      documentation and/or other materials provided with the distribution.
  20:Drivers/CMSIS/Include/core_cmInstr.h ****    - Neither the name of ARM nor the names of its contributors may be used
  21:Drivers/CMSIS/Include/core_cmInstr.h ****      to endorse or promote products derived from this software without
  22:Drivers/CMSIS/Include/core_cmInstr.h ****      specific prior written permission.
  23:Drivers/CMSIS/Include/core_cmInstr.h ****    *
  24:Drivers/CMSIS/Include/core_cmInstr.h ****    THIS SOFTWARE IS PROVIDED BY THE COPYRIGHT HOLDERS AND CONTRIBUTORS "AS IS"
  25:Drivers/CMSIS/Include/core_cmInstr.h ****    AND ANY EXPRESS OR IMPLIED WARRANTIES, INCLUDING, BUT NOT LIMITED TO, THE
  26:Drivers/CMSIS/Include/core_cmInstr.h ****    IMPLIED WARRANTIES OF MERCHANTABILITY AND FITNESS FOR A PARTICULAR PURPOSE
  27:Drivers/CMSIS/Include/core_cmInstr.h ****    ARE DISCLAIMED. IN NO EVENT SHALL COPYRIGHT HOLDERS AND CONTRIBUTORS BE
  28:Drivers/CMSIS/Include/core_cmInstr.h ****    LIABLE FOR ANY DIRECT, INDIRECT, INCIDENTAL, SPECIAL, EXEMPLARY, OR
  29:Drivers/CMSIS/Include/core_cmInstr.h ****    CONSEQUENTIAL DAMAGES (INCLUDING, BUT NOT LIMITED TO, PROCUREMENT OF
  30:Drivers/CMSIS/Include/core_cmInstr.h ****    SUBSTITUTE GOODS OR SERVICES; LOSS OF USE, DATA, OR PROFITS; OR BUSINESS
  31:Drivers/CMSIS/Include/core_cmInstr.h ****    INTERRUPTION) HOWEVER CAUSED AND ON ANY THEORY OF LIABILITY, WHETHER IN
  32:Drivers/CMSIS/Include/core_cmInstr.h ****    CONTRACT, STRICT LIABILITY, OR TORT (INCLUDING NEGLIGENCE OR OTHERWISE)
  33:Drivers/CMSIS/Include/core_cmInstr.h ****    ARISING IN ANY WAY OUT OF THE USE OF THIS SOFTWARE, EVEN IF ADVISED OF THE
  34:Drivers/CMSIS/Include/core_cmInstr.h ****    POSSIBILITY OF SUCH DAMAGE.
  35:Drivers/CMSIS/Include/core_cmInstr.h ****    ---------------------------------------------------------------------------*/
  36:Drivers/CMSIS/Include/core_cmInstr.h **** 
  37:Drivers/CMSIS/Include/core_cmInstr.h **** 
  38:Drivers/CMSIS/Include/core_cmInstr.h **** #ifndef __CORE_CMINSTR_H
  39:Drivers/CMSIS/Include/core_cmInstr.h **** #define __CORE_CMINSTR_H
  40:Drivers/CMSIS/Include/core_cmInstr.h **** 
  41:Drivers/CMSIS/Include/core_cmInstr.h **** 
  42:Drivers/CMSIS/Include/core_cmInstr.h **** /* ##########################  Core Instruction Access  ######################### */
  43:Drivers/CMSIS/Include/core_cmInstr.h **** /** \defgroup CMSIS_Core_InstructionInterface CMSIS Core Instruction Interface
  44:Drivers/CMSIS/Include/core_cmInstr.h ****   Access to dedicated instructions
  45:Drivers/CMSIS/Include/core_cmInstr.h ****   @{
  46:Drivers/CMSIS/Include/core_cmInstr.h **** */
  47:Drivers/CMSIS/Include/core_cmInstr.h **** 
  48:Drivers/CMSIS/Include/core_cmInstr.h **** #if   defined ( __CC_ARM ) /*------------------RealView Compiler -----------------*/
  49:Drivers/CMSIS/Include/core_cmInstr.h **** /* ARM armcc specific functions */
  50:Drivers/CMSIS/Include/core_cmInstr.h **** 
  51:Drivers/CMSIS/Include/core_cmInstr.h **** #if (__ARMCC_VERSION < 400677)
  52:Drivers/CMSIS/Include/core_cmInstr.h ****   #error "Please use ARM Compiler Toolchain V4.0.677 or later!"
  53:Drivers/CMSIS/Include/core_cmInstr.h **** #endif
  54:Drivers/CMSIS/Include/core_cmInstr.h **** 
  55:Drivers/CMSIS/Include/core_cmInstr.h **** 
ARM GAS  /tmp/ccIAVpNs.s 			page 5


  56:Drivers/CMSIS/Include/core_cmInstr.h **** /** \brief  No Operation
  57:Drivers/CMSIS/Include/core_cmInstr.h **** 
  58:Drivers/CMSIS/Include/core_cmInstr.h ****     No Operation does nothing. This instruction can be used for code alignment purposes.
  59:Drivers/CMSIS/Include/core_cmInstr.h ****  */
  60:Drivers/CMSIS/Include/core_cmInstr.h **** #define __NOP                             __nop
  61:Drivers/CMSIS/Include/core_cmInstr.h **** 
  62:Drivers/CMSIS/Include/core_cmInstr.h **** 
  63:Drivers/CMSIS/Include/core_cmInstr.h **** /** \brief  Wait For Interrupt
  64:Drivers/CMSIS/Include/core_cmInstr.h **** 
  65:Drivers/CMSIS/Include/core_cmInstr.h ****     Wait For Interrupt is a hint instruction that suspends execution
  66:Drivers/CMSIS/Include/core_cmInstr.h ****     until one of a number of events occurs.
  67:Drivers/CMSIS/Include/core_cmInstr.h ****  */
  68:Drivers/CMSIS/Include/core_cmInstr.h **** #define __WFI                             __wfi
  69:Drivers/CMSIS/Include/core_cmInstr.h **** 
  70:Drivers/CMSIS/Include/core_cmInstr.h **** 
  71:Drivers/CMSIS/Include/core_cmInstr.h **** /** \brief  Wait For Event
  72:Drivers/CMSIS/Include/core_cmInstr.h **** 
  73:Drivers/CMSIS/Include/core_cmInstr.h ****     Wait For Event is a hint instruction that permits the processor to enter
  74:Drivers/CMSIS/Include/core_cmInstr.h ****     a low-power state until one of a number of events occurs.
  75:Drivers/CMSIS/Include/core_cmInstr.h ****  */
  76:Drivers/CMSIS/Include/core_cmInstr.h **** #define __WFE                             __wfe
  77:Drivers/CMSIS/Include/core_cmInstr.h **** 
  78:Drivers/CMSIS/Include/core_cmInstr.h **** 
  79:Drivers/CMSIS/Include/core_cmInstr.h **** /** \brief  Send Event
  80:Drivers/CMSIS/Include/core_cmInstr.h **** 
  81:Drivers/CMSIS/Include/core_cmInstr.h ****     Send Event is a hint instruction. It causes an event to be signaled to the CPU.
  82:Drivers/CMSIS/Include/core_cmInstr.h ****  */
  83:Drivers/CMSIS/Include/core_cmInstr.h **** #define __SEV                             __sev
  84:Drivers/CMSIS/Include/core_cmInstr.h **** 
  85:Drivers/CMSIS/Include/core_cmInstr.h **** 
  86:Drivers/CMSIS/Include/core_cmInstr.h **** /** \brief  Instruction Synchronization Barrier
  87:Drivers/CMSIS/Include/core_cmInstr.h **** 
  88:Drivers/CMSIS/Include/core_cmInstr.h ****     Instruction Synchronization Barrier flushes the pipeline in the processor,
  89:Drivers/CMSIS/Include/core_cmInstr.h ****     so that all instructions following the ISB are fetched from cache or
  90:Drivers/CMSIS/Include/core_cmInstr.h ****     memory, after the instruction has been completed.
  91:Drivers/CMSIS/Include/core_cmInstr.h ****  */
  92:Drivers/CMSIS/Include/core_cmInstr.h **** #define __ISB()                           __isb(0xF)
  93:Drivers/CMSIS/Include/core_cmInstr.h **** 
  94:Drivers/CMSIS/Include/core_cmInstr.h **** 
  95:Drivers/CMSIS/Include/core_cmInstr.h **** /** \brief  Data Synchronization Barrier
  96:Drivers/CMSIS/Include/core_cmInstr.h **** 
  97:Drivers/CMSIS/Include/core_cmInstr.h ****     This function acts as a special kind of Data Memory Barrier.
  98:Drivers/CMSIS/Include/core_cmInstr.h ****     It completes when all explicit memory accesses before this instruction complete.
  99:Drivers/CMSIS/Include/core_cmInstr.h ****  */
 100:Drivers/CMSIS/Include/core_cmInstr.h **** #define __DSB()                           __dsb(0xF)
 101:Drivers/CMSIS/Include/core_cmInstr.h **** 
 102:Drivers/CMSIS/Include/core_cmInstr.h **** 
 103:Drivers/CMSIS/Include/core_cmInstr.h **** /** \brief  Data Memory Barrier
 104:Drivers/CMSIS/Include/core_cmInstr.h **** 
 105:Drivers/CMSIS/Include/core_cmInstr.h ****     This function ensures the apparent order of the explicit memory operations before
 106:Drivers/CMSIS/Include/core_cmInstr.h ****     and after the instruction, without ensuring their completion.
 107:Drivers/CMSIS/Include/core_cmInstr.h ****  */
 108:Drivers/CMSIS/Include/core_cmInstr.h **** #define __DMB()                           __dmb(0xF)
 109:Drivers/CMSIS/Include/core_cmInstr.h **** 
 110:Drivers/CMSIS/Include/core_cmInstr.h **** 
 111:Drivers/CMSIS/Include/core_cmInstr.h **** /** \brief  Reverse byte order (32 bit)
 112:Drivers/CMSIS/Include/core_cmInstr.h **** 
ARM GAS  /tmp/ccIAVpNs.s 			page 6


 113:Drivers/CMSIS/Include/core_cmInstr.h ****     This function reverses the byte order in integer value.
 114:Drivers/CMSIS/Include/core_cmInstr.h **** 
 115:Drivers/CMSIS/Include/core_cmInstr.h ****     \param [in]    value  Value to reverse
 116:Drivers/CMSIS/Include/core_cmInstr.h ****     \return               Reversed value
 117:Drivers/CMSIS/Include/core_cmInstr.h ****  */
 118:Drivers/CMSIS/Include/core_cmInstr.h **** #define __REV                             __rev
 119:Drivers/CMSIS/Include/core_cmInstr.h **** 
 120:Drivers/CMSIS/Include/core_cmInstr.h **** 
 121:Drivers/CMSIS/Include/core_cmInstr.h **** /** \brief  Reverse byte order (16 bit)
 122:Drivers/CMSIS/Include/core_cmInstr.h **** 
 123:Drivers/CMSIS/Include/core_cmInstr.h ****     This function reverses the byte order in two unsigned short values.
 124:Drivers/CMSIS/Include/core_cmInstr.h **** 
 125:Drivers/CMSIS/Include/core_cmInstr.h ****     \param [in]    value  Value to reverse
 126:Drivers/CMSIS/Include/core_cmInstr.h ****     \return               Reversed value
 127:Drivers/CMSIS/Include/core_cmInstr.h ****  */
 128:Drivers/CMSIS/Include/core_cmInstr.h **** #ifndef __NO_EMBEDDED_ASM
 129:Drivers/CMSIS/Include/core_cmInstr.h **** __attribute__((section(".rev16_text"))) __STATIC_INLINE __ASM uint32_t __REV16(uint32_t value)
 130:Drivers/CMSIS/Include/core_cmInstr.h **** {
 131:Drivers/CMSIS/Include/core_cmInstr.h ****   rev16 r0, r0
 132:Drivers/CMSIS/Include/core_cmInstr.h ****   bx lr
 133:Drivers/CMSIS/Include/core_cmInstr.h **** }
 134:Drivers/CMSIS/Include/core_cmInstr.h **** #endif
 135:Drivers/CMSIS/Include/core_cmInstr.h **** 
 136:Drivers/CMSIS/Include/core_cmInstr.h **** /** \brief  Reverse byte order in signed short value
 137:Drivers/CMSIS/Include/core_cmInstr.h **** 
 138:Drivers/CMSIS/Include/core_cmInstr.h ****     This function reverses the byte order in a signed short value with sign extension to integer.
 139:Drivers/CMSIS/Include/core_cmInstr.h **** 
 140:Drivers/CMSIS/Include/core_cmInstr.h ****     \param [in]    value  Value to reverse
 141:Drivers/CMSIS/Include/core_cmInstr.h ****     \return               Reversed value
 142:Drivers/CMSIS/Include/core_cmInstr.h ****  */
 143:Drivers/CMSIS/Include/core_cmInstr.h **** #ifndef __NO_EMBEDDED_ASM
 144:Drivers/CMSIS/Include/core_cmInstr.h **** __attribute__((section(".revsh_text"))) __STATIC_INLINE __ASM int32_t __REVSH(int32_t value)
 145:Drivers/CMSIS/Include/core_cmInstr.h **** {
 146:Drivers/CMSIS/Include/core_cmInstr.h ****   revsh r0, r0
 147:Drivers/CMSIS/Include/core_cmInstr.h ****   bx lr
 148:Drivers/CMSIS/Include/core_cmInstr.h **** }
 149:Drivers/CMSIS/Include/core_cmInstr.h **** #endif
 150:Drivers/CMSIS/Include/core_cmInstr.h **** 
 151:Drivers/CMSIS/Include/core_cmInstr.h **** 
 152:Drivers/CMSIS/Include/core_cmInstr.h **** /** \brief  Rotate Right in unsigned value (32 bit)
 153:Drivers/CMSIS/Include/core_cmInstr.h **** 
 154:Drivers/CMSIS/Include/core_cmInstr.h ****     This function Rotate Right (immediate) provides the value of the contents of a register rotated
 155:Drivers/CMSIS/Include/core_cmInstr.h **** 
 156:Drivers/CMSIS/Include/core_cmInstr.h ****     \param [in]    value  Value to rotate
 157:Drivers/CMSIS/Include/core_cmInstr.h ****     \param [in]    value  Number of Bits to rotate
 158:Drivers/CMSIS/Include/core_cmInstr.h ****     \return               Rotated value
 159:Drivers/CMSIS/Include/core_cmInstr.h ****  */
 160:Drivers/CMSIS/Include/core_cmInstr.h **** #define __ROR                             __ror
 161:Drivers/CMSIS/Include/core_cmInstr.h **** 
 162:Drivers/CMSIS/Include/core_cmInstr.h **** 
 163:Drivers/CMSIS/Include/core_cmInstr.h **** /** \brief  Breakpoint
 164:Drivers/CMSIS/Include/core_cmInstr.h **** 
 165:Drivers/CMSIS/Include/core_cmInstr.h ****     This function causes the processor to enter Debug state.
 166:Drivers/CMSIS/Include/core_cmInstr.h ****     Debug tools can use this to investigate system state when the instruction at a particular addre
 167:Drivers/CMSIS/Include/core_cmInstr.h **** 
 168:Drivers/CMSIS/Include/core_cmInstr.h ****     \param [in]    value  is ignored by the processor.
 169:Drivers/CMSIS/Include/core_cmInstr.h ****                    If required, a debugger can use it to store additional information about the bre
ARM GAS  /tmp/ccIAVpNs.s 			page 7


 170:Drivers/CMSIS/Include/core_cmInstr.h ****  */
 171:Drivers/CMSIS/Include/core_cmInstr.h **** #define __BKPT(value)                       __breakpoint(value)
 172:Drivers/CMSIS/Include/core_cmInstr.h **** 
 173:Drivers/CMSIS/Include/core_cmInstr.h **** 
 174:Drivers/CMSIS/Include/core_cmInstr.h **** #if       (__CORTEX_M >= 0x03)
 175:Drivers/CMSIS/Include/core_cmInstr.h **** 
 176:Drivers/CMSIS/Include/core_cmInstr.h **** /** \brief  Reverse bit order of value
 177:Drivers/CMSIS/Include/core_cmInstr.h **** 
 178:Drivers/CMSIS/Include/core_cmInstr.h ****     This function reverses the bit order of the given value.
 179:Drivers/CMSIS/Include/core_cmInstr.h **** 
 180:Drivers/CMSIS/Include/core_cmInstr.h ****     \param [in]    value  Value to reverse
 181:Drivers/CMSIS/Include/core_cmInstr.h ****     \return               Reversed value
 182:Drivers/CMSIS/Include/core_cmInstr.h ****  */
 183:Drivers/CMSIS/Include/core_cmInstr.h **** #define __RBIT                            __rbit
 184:Drivers/CMSIS/Include/core_cmInstr.h **** 
 185:Drivers/CMSIS/Include/core_cmInstr.h **** 
 186:Drivers/CMSIS/Include/core_cmInstr.h **** /** \brief  LDR Exclusive (8 bit)
 187:Drivers/CMSIS/Include/core_cmInstr.h **** 
 188:Drivers/CMSIS/Include/core_cmInstr.h ****     This function performs a exclusive LDR command for 8 bit value.
 189:Drivers/CMSIS/Include/core_cmInstr.h **** 
 190:Drivers/CMSIS/Include/core_cmInstr.h ****     \param [in]    ptr  Pointer to data
 191:Drivers/CMSIS/Include/core_cmInstr.h ****     \return             value of type uint8_t at (*ptr)
 192:Drivers/CMSIS/Include/core_cmInstr.h ****  */
 193:Drivers/CMSIS/Include/core_cmInstr.h **** #define __LDREXB(ptr)                     ((uint8_t ) __ldrex(ptr))
 194:Drivers/CMSIS/Include/core_cmInstr.h **** 
 195:Drivers/CMSIS/Include/core_cmInstr.h **** 
 196:Drivers/CMSIS/Include/core_cmInstr.h **** /** \brief  LDR Exclusive (16 bit)
 197:Drivers/CMSIS/Include/core_cmInstr.h **** 
 198:Drivers/CMSIS/Include/core_cmInstr.h ****     This function performs a exclusive LDR command for 16 bit values.
 199:Drivers/CMSIS/Include/core_cmInstr.h **** 
 200:Drivers/CMSIS/Include/core_cmInstr.h ****     \param [in]    ptr  Pointer to data
 201:Drivers/CMSIS/Include/core_cmInstr.h ****     \return        value of type uint16_t at (*ptr)
 202:Drivers/CMSIS/Include/core_cmInstr.h ****  */
 203:Drivers/CMSIS/Include/core_cmInstr.h **** #define __LDREXH(ptr)                     ((uint16_t) __ldrex(ptr))
 204:Drivers/CMSIS/Include/core_cmInstr.h **** 
 205:Drivers/CMSIS/Include/core_cmInstr.h **** 
 206:Drivers/CMSIS/Include/core_cmInstr.h **** /** \brief  LDR Exclusive (32 bit)
 207:Drivers/CMSIS/Include/core_cmInstr.h **** 
 208:Drivers/CMSIS/Include/core_cmInstr.h ****     This function performs a exclusive LDR command for 32 bit values.
 209:Drivers/CMSIS/Include/core_cmInstr.h **** 
 210:Drivers/CMSIS/Include/core_cmInstr.h ****     \param [in]    ptr  Pointer to data
 211:Drivers/CMSIS/Include/core_cmInstr.h ****     \return        value of type uint32_t at (*ptr)
 212:Drivers/CMSIS/Include/core_cmInstr.h ****  */
 213:Drivers/CMSIS/Include/core_cmInstr.h **** #define __LDREXW(ptr)                     ((uint32_t ) __ldrex(ptr))
 214:Drivers/CMSIS/Include/core_cmInstr.h **** 
 215:Drivers/CMSIS/Include/core_cmInstr.h **** 
 216:Drivers/CMSIS/Include/core_cmInstr.h **** /** \brief  STR Exclusive (8 bit)
 217:Drivers/CMSIS/Include/core_cmInstr.h **** 
 218:Drivers/CMSIS/Include/core_cmInstr.h ****     This function performs a exclusive STR command for 8 bit values.
 219:Drivers/CMSIS/Include/core_cmInstr.h **** 
 220:Drivers/CMSIS/Include/core_cmInstr.h ****     \param [in]  value  Value to store
 221:Drivers/CMSIS/Include/core_cmInstr.h ****     \param [in]    ptr  Pointer to location
 222:Drivers/CMSIS/Include/core_cmInstr.h ****     \return          0  Function succeeded
 223:Drivers/CMSIS/Include/core_cmInstr.h ****     \return          1  Function failed
 224:Drivers/CMSIS/Include/core_cmInstr.h ****  */
 225:Drivers/CMSIS/Include/core_cmInstr.h **** #define __STREXB(value, ptr)              __strex(value, ptr)
 226:Drivers/CMSIS/Include/core_cmInstr.h **** 
ARM GAS  /tmp/ccIAVpNs.s 			page 8


 227:Drivers/CMSIS/Include/core_cmInstr.h **** 
 228:Drivers/CMSIS/Include/core_cmInstr.h **** /** \brief  STR Exclusive (16 bit)
 229:Drivers/CMSIS/Include/core_cmInstr.h **** 
 230:Drivers/CMSIS/Include/core_cmInstr.h ****     This function performs a exclusive STR command for 16 bit values.
 231:Drivers/CMSIS/Include/core_cmInstr.h **** 
 232:Drivers/CMSIS/Include/core_cmInstr.h ****     \param [in]  value  Value to store
 233:Drivers/CMSIS/Include/core_cmInstr.h ****     \param [in]    ptr  Pointer to location
 234:Drivers/CMSIS/Include/core_cmInstr.h ****     \return          0  Function succeeded
 235:Drivers/CMSIS/Include/core_cmInstr.h ****     \return          1  Function failed
 236:Drivers/CMSIS/Include/core_cmInstr.h ****  */
 237:Drivers/CMSIS/Include/core_cmInstr.h **** #define __STREXH(value, ptr)              __strex(value, ptr)
 238:Drivers/CMSIS/Include/core_cmInstr.h **** 
 239:Drivers/CMSIS/Include/core_cmInstr.h **** 
 240:Drivers/CMSIS/Include/core_cmInstr.h **** /** \brief  STR Exclusive (32 bit)
 241:Drivers/CMSIS/Include/core_cmInstr.h **** 
 242:Drivers/CMSIS/Include/core_cmInstr.h ****     This function performs a exclusive STR command for 32 bit values.
 243:Drivers/CMSIS/Include/core_cmInstr.h **** 
 244:Drivers/CMSIS/Include/core_cmInstr.h ****     \param [in]  value  Value to store
 245:Drivers/CMSIS/Include/core_cmInstr.h ****     \param [in]    ptr  Pointer to location
 246:Drivers/CMSIS/Include/core_cmInstr.h ****     \return          0  Function succeeded
 247:Drivers/CMSIS/Include/core_cmInstr.h ****     \return          1  Function failed
 248:Drivers/CMSIS/Include/core_cmInstr.h ****  */
 249:Drivers/CMSIS/Include/core_cmInstr.h **** #define __STREXW(value, ptr)              __strex(value, ptr)
 250:Drivers/CMSIS/Include/core_cmInstr.h **** 
 251:Drivers/CMSIS/Include/core_cmInstr.h **** 
 252:Drivers/CMSIS/Include/core_cmInstr.h **** /** \brief  Remove the exclusive lock
 253:Drivers/CMSIS/Include/core_cmInstr.h **** 
 254:Drivers/CMSIS/Include/core_cmInstr.h ****     This function removes the exclusive lock which is created by LDREX.
 255:Drivers/CMSIS/Include/core_cmInstr.h **** 
 256:Drivers/CMSIS/Include/core_cmInstr.h ****  */
 257:Drivers/CMSIS/Include/core_cmInstr.h **** #define __CLREX                           __clrex
 258:Drivers/CMSIS/Include/core_cmInstr.h **** 
 259:Drivers/CMSIS/Include/core_cmInstr.h **** 
 260:Drivers/CMSIS/Include/core_cmInstr.h **** /** \brief  Signed Saturate
 261:Drivers/CMSIS/Include/core_cmInstr.h **** 
 262:Drivers/CMSIS/Include/core_cmInstr.h ****     This function saturates a signed value.
 263:Drivers/CMSIS/Include/core_cmInstr.h **** 
 264:Drivers/CMSIS/Include/core_cmInstr.h ****     \param [in]  value  Value to be saturated
 265:Drivers/CMSIS/Include/core_cmInstr.h ****     \param [in]    sat  Bit position to saturate to (1..32)
 266:Drivers/CMSIS/Include/core_cmInstr.h ****     \return             Saturated value
 267:Drivers/CMSIS/Include/core_cmInstr.h ****  */
 268:Drivers/CMSIS/Include/core_cmInstr.h **** #define __SSAT                            __ssat
 269:Drivers/CMSIS/Include/core_cmInstr.h **** 
 270:Drivers/CMSIS/Include/core_cmInstr.h **** 
 271:Drivers/CMSIS/Include/core_cmInstr.h **** /** \brief  Unsigned Saturate
 272:Drivers/CMSIS/Include/core_cmInstr.h **** 
 273:Drivers/CMSIS/Include/core_cmInstr.h ****     This function saturates an unsigned value.
 274:Drivers/CMSIS/Include/core_cmInstr.h **** 
 275:Drivers/CMSIS/Include/core_cmInstr.h ****     \param [in]  value  Value to be saturated
 276:Drivers/CMSIS/Include/core_cmInstr.h ****     \param [in]    sat  Bit position to saturate to (0..31)
 277:Drivers/CMSIS/Include/core_cmInstr.h ****     \return             Saturated value
 278:Drivers/CMSIS/Include/core_cmInstr.h ****  */
 279:Drivers/CMSIS/Include/core_cmInstr.h **** #define __USAT                            __usat
 280:Drivers/CMSIS/Include/core_cmInstr.h **** 
 281:Drivers/CMSIS/Include/core_cmInstr.h **** 
 282:Drivers/CMSIS/Include/core_cmInstr.h **** /** \brief  Count leading zeros
 283:Drivers/CMSIS/Include/core_cmInstr.h **** 
ARM GAS  /tmp/ccIAVpNs.s 			page 9


 284:Drivers/CMSIS/Include/core_cmInstr.h ****     This function counts the number of leading zeros of a data value.
 285:Drivers/CMSIS/Include/core_cmInstr.h **** 
 286:Drivers/CMSIS/Include/core_cmInstr.h ****     \param [in]  value  Value to count the leading zeros
 287:Drivers/CMSIS/Include/core_cmInstr.h ****     \return             number of leading zeros in value
 288:Drivers/CMSIS/Include/core_cmInstr.h ****  */
 289:Drivers/CMSIS/Include/core_cmInstr.h **** #define __CLZ                             __clz
 290:Drivers/CMSIS/Include/core_cmInstr.h **** 
 291:Drivers/CMSIS/Include/core_cmInstr.h **** #endif /* (__CORTEX_M >= 0x03) */
 292:Drivers/CMSIS/Include/core_cmInstr.h **** 
 293:Drivers/CMSIS/Include/core_cmInstr.h **** 
 294:Drivers/CMSIS/Include/core_cmInstr.h **** 
 295:Drivers/CMSIS/Include/core_cmInstr.h **** #elif defined ( __ICCARM__ ) /*------------------ ICC Compiler -------------------*/
 296:Drivers/CMSIS/Include/core_cmInstr.h **** /* IAR iccarm specific functions */
 297:Drivers/CMSIS/Include/core_cmInstr.h **** 
 298:Drivers/CMSIS/Include/core_cmInstr.h **** #include <cmsis_iar.h>
 299:Drivers/CMSIS/Include/core_cmInstr.h **** 
 300:Drivers/CMSIS/Include/core_cmInstr.h **** 
 301:Drivers/CMSIS/Include/core_cmInstr.h **** #elif defined ( __TMS470__ ) /*---------------- TI CCS Compiler ------------------*/
 302:Drivers/CMSIS/Include/core_cmInstr.h **** /* TI CCS specific functions */
 303:Drivers/CMSIS/Include/core_cmInstr.h **** 
 304:Drivers/CMSIS/Include/core_cmInstr.h **** #include <cmsis_ccs.h>
 305:Drivers/CMSIS/Include/core_cmInstr.h **** 
 306:Drivers/CMSIS/Include/core_cmInstr.h **** 
 307:Drivers/CMSIS/Include/core_cmInstr.h **** #elif defined ( __GNUC__ ) /*------------------ GNU Compiler ---------------------*/
 308:Drivers/CMSIS/Include/core_cmInstr.h **** /* GNU gcc specific functions */
 309:Drivers/CMSIS/Include/core_cmInstr.h **** 
 310:Drivers/CMSIS/Include/core_cmInstr.h **** /* Define macros for porting to both thumb1 and thumb2.
 311:Drivers/CMSIS/Include/core_cmInstr.h ****  * For thumb1, use low register (r0-r7), specified by constrant "l"
 312:Drivers/CMSIS/Include/core_cmInstr.h ****  * Otherwise, use general registers, specified by constrant "r" */
 313:Drivers/CMSIS/Include/core_cmInstr.h **** #if defined (__thumb__) && !defined (__thumb2__)
 314:Drivers/CMSIS/Include/core_cmInstr.h **** #define __CMSIS_GCC_OUT_REG(r) "=l" (r)
 315:Drivers/CMSIS/Include/core_cmInstr.h **** #define __CMSIS_GCC_USE_REG(r) "l" (r)
 316:Drivers/CMSIS/Include/core_cmInstr.h **** #else
 317:Drivers/CMSIS/Include/core_cmInstr.h **** #define __CMSIS_GCC_OUT_REG(r) "=r" (r)
 318:Drivers/CMSIS/Include/core_cmInstr.h **** #define __CMSIS_GCC_USE_REG(r) "r" (r)
 319:Drivers/CMSIS/Include/core_cmInstr.h **** #endif
 320:Drivers/CMSIS/Include/core_cmInstr.h **** 
 321:Drivers/CMSIS/Include/core_cmInstr.h **** /** \brief  No Operation
 322:Drivers/CMSIS/Include/core_cmInstr.h **** 
 323:Drivers/CMSIS/Include/core_cmInstr.h ****     No Operation does nothing. This instruction can be used for code alignment purposes.
 324:Drivers/CMSIS/Include/core_cmInstr.h ****  */
 325:Drivers/CMSIS/Include/core_cmInstr.h **** __attribute__( ( always_inline ) ) __STATIC_INLINE void __NOP(void)
 326:Drivers/CMSIS/Include/core_cmInstr.h **** {
 327:Drivers/CMSIS/Include/core_cmInstr.h ****   __ASM volatile ("nop");
 328:Drivers/CMSIS/Include/core_cmInstr.h **** }
 329:Drivers/CMSIS/Include/core_cmInstr.h **** 
 330:Drivers/CMSIS/Include/core_cmInstr.h **** 
 331:Drivers/CMSIS/Include/core_cmInstr.h **** /** \brief  Wait For Interrupt
 332:Drivers/CMSIS/Include/core_cmInstr.h **** 
 333:Drivers/CMSIS/Include/core_cmInstr.h ****     Wait For Interrupt is a hint instruction that suspends execution
 334:Drivers/CMSIS/Include/core_cmInstr.h ****     until one of a number of events occurs.
 335:Drivers/CMSIS/Include/core_cmInstr.h ****  */
 336:Drivers/CMSIS/Include/core_cmInstr.h **** __attribute__( ( always_inline ) ) __STATIC_INLINE void __WFI(void)
 337:Drivers/CMSIS/Include/core_cmInstr.h **** {
 338:Drivers/CMSIS/Include/core_cmInstr.h ****   __ASM volatile ("wfi");
 339:Drivers/CMSIS/Include/core_cmInstr.h **** }
 340:Drivers/CMSIS/Include/core_cmInstr.h **** 
ARM GAS  /tmp/ccIAVpNs.s 			page 10


 341:Drivers/CMSIS/Include/core_cmInstr.h **** 
 342:Drivers/CMSIS/Include/core_cmInstr.h **** /** \brief  Wait For Event
 343:Drivers/CMSIS/Include/core_cmInstr.h **** 
 344:Drivers/CMSIS/Include/core_cmInstr.h ****     Wait For Event is a hint instruction that permits the processor to enter
 345:Drivers/CMSIS/Include/core_cmInstr.h ****     a low-power state until one of a number of events occurs.
 346:Drivers/CMSIS/Include/core_cmInstr.h ****  */
 347:Drivers/CMSIS/Include/core_cmInstr.h **** __attribute__( ( always_inline ) ) __STATIC_INLINE void __WFE(void)
 348:Drivers/CMSIS/Include/core_cmInstr.h **** {
 349:Drivers/CMSIS/Include/core_cmInstr.h ****   __ASM volatile ("wfe");
 350:Drivers/CMSIS/Include/core_cmInstr.h **** }
 351:Drivers/CMSIS/Include/core_cmInstr.h **** 
 352:Drivers/CMSIS/Include/core_cmInstr.h **** 
 353:Drivers/CMSIS/Include/core_cmInstr.h **** /** \brief  Send Event
 354:Drivers/CMSIS/Include/core_cmInstr.h **** 
 355:Drivers/CMSIS/Include/core_cmInstr.h ****     Send Event is a hint instruction. It causes an event to be signaled to the CPU.
 356:Drivers/CMSIS/Include/core_cmInstr.h ****  */
 357:Drivers/CMSIS/Include/core_cmInstr.h **** __attribute__( ( always_inline ) ) __STATIC_INLINE void __SEV(void)
 358:Drivers/CMSIS/Include/core_cmInstr.h **** {
 359:Drivers/CMSIS/Include/core_cmInstr.h ****   __ASM volatile ("sev");
 360:Drivers/CMSIS/Include/core_cmInstr.h **** }
 361:Drivers/CMSIS/Include/core_cmInstr.h **** 
 362:Drivers/CMSIS/Include/core_cmInstr.h **** 
 363:Drivers/CMSIS/Include/core_cmInstr.h **** /** \brief  Instruction Synchronization Barrier
 364:Drivers/CMSIS/Include/core_cmInstr.h **** 
 365:Drivers/CMSIS/Include/core_cmInstr.h ****     Instruction Synchronization Barrier flushes the pipeline in the processor,
 366:Drivers/CMSIS/Include/core_cmInstr.h ****     so that all instructions following the ISB are fetched from cache or
 367:Drivers/CMSIS/Include/core_cmInstr.h ****     memory, after the instruction has been completed.
 368:Drivers/CMSIS/Include/core_cmInstr.h ****  */
 369:Drivers/CMSIS/Include/core_cmInstr.h **** __attribute__( ( always_inline ) ) __STATIC_INLINE void __ISB(void)
 370:Drivers/CMSIS/Include/core_cmInstr.h **** {
 371:Drivers/CMSIS/Include/core_cmInstr.h ****   __ASM volatile ("isb");
 372:Drivers/CMSIS/Include/core_cmInstr.h **** }
 373:Drivers/CMSIS/Include/core_cmInstr.h **** 
 374:Drivers/CMSIS/Include/core_cmInstr.h **** 
 375:Drivers/CMSIS/Include/core_cmInstr.h **** /** \brief  Data Synchronization Barrier
 376:Drivers/CMSIS/Include/core_cmInstr.h **** 
 377:Drivers/CMSIS/Include/core_cmInstr.h ****     This function acts as a special kind of Data Memory Barrier.
 378:Drivers/CMSIS/Include/core_cmInstr.h ****     It completes when all explicit memory accesses before this instruction complete.
 379:Drivers/CMSIS/Include/core_cmInstr.h ****  */
 380:Drivers/CMSIS/Include/core_cmInstr.h **** __attribute__( ( always_inline ) ) __STATIC_INLINE void __DSB(void)
 381:Drivers/CMSIS/Include/core_cmInstr.h **** {
 382:Drivers/CMSIS/Include/core_cmInstr.h ****   __ASM volatile ("dsb");
 383:Drivers/CMSIS/Include/core_cmInstr.h **** }
 384:Drivers/CMSIS/Include/core_cmInstr.h **** 
 385:Drivers/CMSIS/Include/core_cmInstr.h **** 
 386:Drivers/CMSIS/Include/core_cmInstr.h **** /** \brief  Data Memory Barrier
 387:Drivers/CMSIS/Include/core_cmInstr.h **** 
 388:Drivers/CMSIS/Include/core_cmInstr.h ****     This function ensures the apparent order of the explicit memory operations before
 389:Drivers/CMSIS/Include/core_cmInstr.h ****     and after the instruction, without ensuring their completion.
 390:Drivers/CMSIS/Include/core_cmInstr.h ****  */
 391:Drivers/CMSIS/Include/core_cmInstr.h **** __attribute__( ( always_inline ) ) __STATIC_INLINE void __DMB(void)
 392:Drivers/CMSIS/Include/core_cmInstr.h **** {
 393:Drivers/CMSIS/Include/core_cmInstr.h ****   __ASM volatile ("dmb");
 394:Drivers/CMSIS/Include/core_cmInstr.h **** }
 395:Drivers/CMSIS/Include/core_cmInstr.h **** 
 396:Drivers/CMSIS/Include/core_cmInstr.h **** 
 397:Drivers/CMSIS/Include/core_cmInstr.h **** /** \brief  Reverse byte order (32 bit)
ARM GAS  /tmp/ccIAVpNs.s 			page 11


 398:Drivers/CMSIS/Include/core_cmInstr.h **** 
 399:Drivers/CMSIS/Include/core_cmInstr.h ****     This function reverses the byte order in integer value.
 400:Drivers/CMSIS/Include/core_cmInstr.h **** 
 401:Drivers/CMSIS/Include/core_cmInstr.h ****     \param [in]    value  Value to reverse
 402:Drivers/CMSIS/Include/core_cmInstr.h ****     \return               Reversed value
 403:Drivers/CMSIS/Include/core_cmInstr.h ****  */
 404:Drivers/CMSIS/Include/core_cmInstr.h **** __attribute__( ( always_inline ) ) __STATIC_INLINE uint32_t __REV(uint32_t value)
 405:Drivers/CMSIS/Include/core_cmInstr.h **** {
 406:Drivers/CMSIS/Include/core_cmInstr.h **** #if (__GNUC__ > 4) || (__GNUC__ == 4 && __GNUC_MINOR__ >= 5)
 407:Drivers/CMSIS/Include/core_cmInstr.h ****   return __builtin_bswap32(value);
 408:Drivers/CMSIS/Include/core_cmInstr.h **** #else
 409:Drivers/CMSIS/Include/core_cmInstr.h ****   uint32_t result;
 410:Drivers/CMSIS/Include/core_cmInstr.h **** 
 411:Drivers/CMSIS/Include/core_cmInstr.h ****   __ASM volatile ("rev %0, %1" : __CMSIS_GCC_OUT_REG (result) : __CMSIS_GCC_USE_REG (value) );
 412:Drivers/CMSIS/Include/core_cmInstr.h ****   return(result);
 413:Drivers/CMSIS/Include/core_cmInstr.h **** #endif
 414:Drivers/CMSIS/Include/core_cmInstr.h **** }
 415:Drivers/CMSIS/Include/core_cmInstr.h **** 
 416:Drivers/CMSIS/Include/core_cmInstr.h **** 
 417:Drivers/CMSIS/Include/core_cmInstr.h **** /** \brief  Reverse byte order (16 bit)
 418:Drivers/CMSIS/Include/core_cmInstr.h **** 
 419:Drivers/CMSIS/Include/core_cmInstr.h ****     This function reverses the byte order in two unsigned short values.
 420:Drivers/CMSIS/Include/core_cmInstr.h **** 
 421:Drivers/CMSIS/Include/core_cmInstr.h ****     \param [in]    value  Value to reverse
 422:Drivers/CMSIS/Include/core_cmInstr.h ****     \return               Reversed value
 423:Drivers/CMSIS/Include/core_cmInstr.h ****  */
 424:Drivers/CMSIS/Include/core_cmInstr.h **** __attribute__( ( always_inline ) ) __STATIC_INLINE uint32_t __REV16(uint32_t value)
 425:Drivers/CMSIS/Include/core_cmInstr.h **** {
 426:Drivers/CMSIS/Include/core_cmInstr.h ****   uint32_t result;
 427:Drivers/CMSIS/Include/core_cmInstr.h **** 
 428:Drivers/CMSIS/Include/core_cmInstr.h ****   __ASM volatile ("rev16 %0, %1" : __CMSIS_GCC_OUT_REG (result) : __CMSIS_GCC_USE_REG (value) );
 429:Drivers/CMSIS/Include/core_cmInstr.h ****   return(result);
 430:Drivers/CMSIS/Include/core_cmInstr.h **** }
 431:Drivers/CMSIS/Include/core_cmInstr.h **** 
 432:Drivers/CMSIS/Include/core_cmInstr.h **** 
 433:Drivers/CMSIS/Include/core_cmInstr.h **** /** \brief  Reverse byte order in signed short value
 434:Drivers/CMSIS/Include/core_cmInstr.h **** 
 435:Drivers/CMSIS/Include/core_cmInstr.h ****     This function reverses the byte order in a signed short value with sign extension to integer.
 436:Drivers/CMSIS/Include/core_cmInstr.h **** 
 437:Drivers/CMSIS/Include/core_cmInstr.h ****     \param [in]    value  Value to reverse
 438:Drivers/CMSIS/Include/core_cmInstr.h ****     \return               Reversed value
 439:Drivers/CMSIS/Include/core_cmInstr.h ****  */
 440:Drivers/CMSIS/Include/core_cmInstr.h **** __attribute__( ( always_inline ) ) __STATIC_INLINE int32_t __REVSH(int32_t value)
 441:Drivers/CMSIS/Include/core_cmInstr.h **** {
 442:Drivers/CMSIS/Include/core_cmInstr.h **** #if (__GNUC__ > 4) || (__GNUC__ == 4 && __GNUC_MINOR__ >= 8)
 443:Drivers/CMSIS/Include/core_cmInstr.h ****   return (short)__builtin_bswap16(value);
 444:Drivers/CMSIS/Include/core_cmInstr.h **** #else
 445:Drivers/CMSIS/Include/core_cmInstr.h ****   uint32_t result;
 446:Drivers/CMSIS/Include/core_cmInstr.h **** 
 447:Drivers/CMSIS/Include/core_cmInstr.h ****   __ASM volatile ("revsh %0, %1" : __CMSIS_GCC_OUT_REG (result) : __CMSIS_GCC_USE_REG (value) );
 448:Drivers/CMSIS/Include/core_cmInstr.h ****   return(result);
 449:Drivers/CMSIS/Include/core_cmInstr.h **** #endif
 450:Drivers/CMSIS/Include/core_cmInstr.h **** }
 451:Drivers/CMSIS/Include/core_cmInstr.h **** 
 452:Drivers/CMSIS/Include/core_cmInstr.h **** 
 453:Drivers/CMSIS/Include/core_cmInstr.h **** /** \brief  Rotate Right in unsigned value (32 bit)
 454:Drivers/CMSIS/Include/core_cmInstr.h **** 
ARM GAS  /tmp/ccIAVpNs.s 			page 12


 455:Drivers/CMSIS/Include/core_cmInstr.h ****     This function Rotate Right (immediate) provides the value of the contents of a register rotated
 456:Drivers/CMSIS/Include/core_cmInstr.h **** 
 457:Drivers/CMSIS/Include/core_cmInstr.h ****     \param [in]    value  Value to rotate
 458:Drivers/CMSIS/Include/core_cmInstr.h ****     \param [in]    value  Number of Bits to rotate
 459:Drivers/CMSIS/Include/core_cmInstr.h ****     \return               Rotated value
 460:Drivers/CMSIS/Include/core_cmInstr.h ****  */
 461:Drivers/CMSIS/Include/core_cmInstr.h **** __attribute__( ( always_inline ) ) __STATIC_INLINE uint32_t __ROR(uint32_t op1, uint32_t op2)
 462:Drivers/CMSIS/Include/core_cmInstr.h **** {
 463:Drivers/CMSIS/Include/core_cmInstr.h ****   return (op1 >> op2) | (op1 << (32 - op2)); 
 464:Drivers/CMSIS/Include/core_cmInstr.h **** }
 465:Drivers/CMSIS/Include/core_cmInstr.h **** 
 466:Drivers/CMSIS/Include/core_cmInstr.h **** 
 467:Drivers/CMSIS/Include/core_cmInstr.h **** /** \brief  Breakpoint
 468:Drivers/CMSIS/Include/core_cmInstr.h **** 
 469:Drivers/CMSIS/Include/core_cmInstr.h ****     This function causes the processor to enter Debug state.
 470:Drivers/CMSIS/Include/core_cmInstr.h ****     Debug tools can use this to investigate system state when the instruction at a particular addre
 471:Drivers/CMSIS/Include/core_cmInstr.h **** 
 472:Drivers/CMSIS/Include/core_cmInstr.h ****     \param [in]    value  is ignored by the processor.
 473:Drivers/CMSIS/Include/core_cmInstr.h ****                    If required, a debugger can use it to store additional information about the bre
 474:Drivers/CMSIS/Include/core_cmInstr.h ****  */
 475:Drivers/CMSIS/Include/core_cmInstr.h **** #define __BKPT(value)                       __ASM volatile ("bkpt "#value)
 476:Drivers/CMSIS/Include/core_cmInstr.h **** 
 477:Drivers/CMSIS/Include/core_cmInstr.h **** 
 478:Drivers/CMSIS/Include/core_cmInstr.h **** #if       (__CORTEX_M >= 0x03)
 479:Drivers/CMSIS/Include/core_cmInstr.h **** 
 480:Drivers/CMSIS/Include/core_cmInstr.h **** /** \brief  Reverse bit order of value
 481:Drivers/CMSIS/Include/core_cmInstr.h **** 
 482:Drivers/CMSIS/Include/core_cmInstr.h ****     This function reverses the bit order of the given value.
 483:Drivers/CMSIS/Include/core_cmInstr.h **** 
 484:Drivers/CMSIS/Include/core_cmInstr.h ****     \param [in]    value  Value to reverse
 485:Drivers/CMSIS/Include/core_cmInstr.h ****     \return               Reversed value
 486:Drivers/CMSIS/Include/core_cmInstr.h ****  */
 487:Drivers/CMSIS/Include/core_cmInstr.h **** __attribute__( ( always_inline ) ) __STATIC_INLINE uint32_t __RBIT(uint32_t value)
 488:Drivers/CMSIS/Include/core_cmInstr.h **** {
 489:Drivers/CMSIS/Include/core_cmInstr.h ****   uint32_t result;
 490:Drivers/CMSIS/Include/core_cmInstr.h **** 
 491:Drivers/CMSIS/Include/core_cmInstr.h ****    __ASM volatile ("rbit %0, %1" : "=r" (result) : "r" (value) );
  86              		.loc 2 491 0
  87 000c FB68     		ldr	r3, [r7, #12]	@ tmp147, value
  88              	@ 491 "Drivers/CMSIS/Include/core_cmInstr.h" 1
  89 000e 93FAA3F4 		rbit r4, r3	@ result, tmp147
  90              	@ 0 "" 2
  91              		.thumb
  92 0012 BC60     		str	r4, [r7, #8]	@ result, result
 492:Drivers/CMSIS/Include/core_cmInstr.h ****    return(result);
  93              		.loc 2 492 0
  94 0014 BB68     		ldr	r3, [r7, #8]	@ D.5913, result
  95 0016 7B60     		str	r3, [r7, #4]	@ D.5900, value
  96              	.LBE52:
  97              	.LBE51:
  98              	.LBE50:
  99              	.LBB53:
 100              	.LBB54:
 101              	.LBB55:
 493:Drivers/CMSIS/Include/core_cmInstr.h **** }
 494:Drivers/CMSIS/Include/core_cmInstr.h **** 
 495:Drivers/CMSIS/Include/core_cmInstr.h **** 
ARM GAS  /tmp/ccIAVpNs.s 			page 13


 496:Drivers/CMSIS/Include/core_cmInstr.h **** /** \brief  LDR Exclusive (8 bit)
 497:Drivers/CMSIS/Include/core_cmInstr.h **** 
 498:Drivers/CMSIS/Include/core_cmInstr.h ****     This function performs a exclusive LDR command for 8 bit value.
 499:Drivers/CMSIS/Include/core_cmInstr.h **** 
 500:Drivers/CMSIS/Include/core_cmInstr.h ****     \param [in]    ptr  Pointer to data
 501:Drivers/CMSIS/Include/core_cmInstr.h ****     \return             value of type uint8_t at (*ptr)
 502:Drivers/CMSIS/Include/core_cmInstr.h ****  */
 503:Drivers/CMSIS/Include/core_cmInstr.h **** __attribute__( ( always_inline ) ) __STATIC_INLINE uint8_t __LDREXB(volatile uint8_t *addr)
 504:Drivers/CMSIS/Include/core_cmInstr.h **** {
 505:Drivers/CMSIS/Include/core_cmInstr.h ****     uint32_t result;
 506:Drivers/CMSIS/Include/core_cmInstr.h **** 
 507:Drivers/CMSIS/Include/core_cmInstr.h **** #if (__GNUC__ > 4) || (__GNUC__ == 4 && __GNUC_MINOR__ >= 8)
 508:Drivers/CMSIS/Include/core_cmInstr.h ****    __ASM volatile ("ldrexb %0, %1" : "=r" (result) : "Q" (*addr) );
 509:Drivers/CMSIS/Include/core_cmInstr.h **** #else
 510:Drivers/CMSIS/Include/core_cmInstr.h ****     /* Prior to GCC 4.8, "Q" will be expanded to [rx, #0] which is not
 511:Drivers/CMSIS/Include/core_cmInstr.h ****        accepted by assembler. So has to use following less efficient pattern.
 512:Drivers/CMSIS/Include/core_cmInstr.h ****     */
 513:Drivers/CMSIS/Include/core_cmInstr.h ****    __ASM volatile ("ldrexb %0, [%1]" : "=r" (result) : "r" (addr) : "memory" );
 514:Drivers/CMSIS/Include/core_cmInstr.h **** #endif
 515:Drivers/CMSIS/Include/core_cmInstr.h ****    return(result);
 516:Drivers/CMSIS/Include/core_cmInstr.h **** }
 517:Drivers/CMSIS/Include/core_cmInstr.h **** 
 518:Drivers/CMSIS/Include/core_cmInstr.h **** 
 519:Drivers/CMSIS/Include/core_cmInstr.h **** /** \brief  LDR Exclusive (16 bit)
 520:Drivers/CMSIS/Include/core_cmInstr.h **** 
 521:Drivers/CMSIS/Include/core_cmInstr.h ****     This function performs a exclusive LDR command for 16 bit values.
 522:Drivers/CMSIS/Include/core_cmInstr.h **** 
 523:Drivers/CMSIS/Include/core_cmInstr.h ****     \param [in]    ptr  Pointer to data
 524:Drivers/CMSIS/Include/core_cmInstr.h ****     \return        value of type uint16_t at (*ptr)
 525:Drivers/CMSIS/Include/core_cmInstr.h ****  */
 526:Drivers/CMSIS/Include/core_cmInstr.h **** __attribute__( ( always_inline ) ) __STATIC_INLINE uint16_t __LDREXH(volatile uint16_t *addr)
 527:Drivers/CMSIS/Include/core_cmInstr.h **** {
 528:Drivers/CMSIS/Include/core_cmInstr.h ****     uint32_t result;
 529:Drivers/CMSIS/Include/core_cmInstr.h **** 
 530:Drivers/CMSIS/Include/core_cmInstr.h **** #if (__GNUC__ > 4) || (__GNUC__ == 4 && __GNUC_MINOR__ >= 8)
 531:Drivers/CMSIS/Include/core_cmInstr.h ****    __ASM volatile ("ldrexh %0, %1" : "=r" (result) : "Q" (*addr) );
 532:Drivers/CMSIS/Include/core_cmInstr.h **** #else
 533:Drivers/CMSIS/Include/core_cmInstr.h ****     /* Prior to GCC 4.8, "Q" will be expanded to [rx, #0] which is not
 534:Drivers/CMSIS/Include/core_cmInstr.h ****        accepted by assembler. So has to use following less efficient pattern.
 535:Drivers/CMSIS/Include/core_cmInstr.h ****     */
 536:Drivers/CMSIS/Include/core_cmInstr.h ****    __ASM volatile ("ldrexh %0, [%1]" : "=r" (result) : "r" (addr) : "memory" );
 537:Drivers/CMSIS/Include/core_cmInstr.h **** #endif
 538:Drivers/CMSIS/Include/core_cmInstr.h ****    return(result);
 539:Drivers/CMSIS/Include/core_cmInstr.h **** }
 540:Drivers/CMSIS/Include/core_cmInstr.h **** 
 541:Drivers/CMSIS/Include/core_cmInstr.h **** 
 542:Drivers/CMSIS/Include/core_cmInstr.h **** /** \brief  LDR Exclusive (32 bit)
 543:Drivers/CMSIS/Include/core_cmInstr.h **** 
 544:Drivers/CMSIS/Include/core_cmInstr.h ****     This function performs a exclusive LDR command for 32 bit values.
 545:Drivers/CMSIS/Include/core_cmInstr.h **** 
 546:Drivers/CMSIS/Include/core_cmInstr.h ****     \param [in]    ptr  Pointer to data
 547:Drivers/CMSIS/Include/core_cmInstr.h ****     \return        value of type uint32_t at (*ptr)
 548:Drivers/CMSIS/Include/core_cmInstr.h ****  */
 549:Drivers/CMSIS/Include/core_cmInstr.h **** __attribute__( ( always_inline ) ) __STATIC_INLINE uint32_t __LDREXW(volatile uint32_t *addr)
 550:Drivers/CMSIS/Include/core_cmInstr.h **** {
 551:Drivers/CMSIS/Include/core_cmInstr.h ****     uint32_t result;
 552:Drivers/CMSIS/Include/core_cmInstr.h **** 
ARM GAS  /tmp/ccIAVpNs.s 			page 14


 553:Drivers/CMSIS/Include/core_cmInstr.h ****    __ASM volatile ("ldrex %0, %1" : "=r" (result) : "Q" (*addr) );
 554:Drivers/CMSIS/Include/core_cmInstr.h ****    return(result);
 555:Drivers/CMSIS/Include/core_cmInstr.h **** }
 556:Drivers/CMSIS/Include/core_cmInstr.h **** 
 557:Drivers/CMSIS/Include/core_cmInstr.h **** 
 558:Drivers/CMSIS/Include/core_cmInstr.h **** /** \brief  STR Exclusive (8 bit)
 559:Drivers/CMSIS/Include/core_cmInstr.h **** 
 560:Drivers/CMSIS/Include/core_cmInstr.h ****     This function performs a exclusive STR command for 8 bit values.
 561:Drivers/CMSIS/Include/core_cmInstr.h **** 
 562:Drivers/CMSIS/Include/core_cmInstr.h ****     \param [in]  value  Value to store
 563:Drivers/CMSIS/Include/core_cmInstr.h ****     \param [in]    ptr  Pointer to location
 564:Drivers/CMSIS/Include/core_cmInstr.h ****     \return          0  Function succeeded
 565:Drivers/CMSIS/Include/core_cmInstr.h ****     \return          1  Function failed
 566:Drivers/CMSIS/Include/core_cmInstr.h ****  */
 567:Drivers/CMSIS/Include/core_cmInstr.h **** __attribute__( ( always_inline ) ) __STATIC_INLINE uint32_t __STREXB(uint8_t value, volatile uint8_
 568:Drivers/CMSIS/Include/core_cmInstr.h **** {
 569:Drivers/CMSIS/Include/core_cmInstr.h ****    uint32_t result;
 570:Drivers/CMSIS/Include/core_cmInstr.h **** 
 571:Drivers/CMSIS/Include/core_cmInstr.h ****    __ASM volatile ("strexb %0, %2, %1" : "=&r" (result), "=Q" (*addr) : "r" (value) );
 572:Drivers/CMSIS/Include/core_cmInstr.h ****    return(result);
 573:Drivers/CMSIS/Include/core_cmInstr.h **** }
 574:Drivers/CMSIS/Include/core_cmInstr.h **** 
 575:Drivers/CMSIS/Include/core_cmInstr.h **** 
 576:Drivers/CMSIS/Include/core_cmInstr.h **** /** \brief  STR Exclusive (16 bit)
 577:Drivers/CMSIS/Include/core_cmInstr.h **** 
 578:Drivers/CMSIS/Include/core_cmInstr.h ****     This function performs a exclusive STR command for 16 bit values.
 579:Drivers/CMSIS/Include/core_cmInstr.h **** 
 580:Drivers/CMSIS/Include/core_cmInstr.h ****     \param [in]  value  Value to store
 581:Drivers/CMSIS/Include/core_cmInstr.h ****     \param [in]    ptr  Pointer to location
 582:Drivers/CMSIS/Include/core_cmInstr.h ****     \return          0  Function succeeded
 583:Drivers/CMSIS/Include/core_cmInstr.h ****     \return          1  Function failed
 584:Drivers/CMSIS/Include/core_cmInstr.h ****  */
 585:Drivers/CMSIS/Include/core_cmInstr.h **** __attribute__( ( always_inline ) ) __STATIC_INLINE uint32_t __STREXH(uint16_t value, volatile uint1
 586:Drivers/CMSIS/Include/core_cmInstr.h **** {
 587:Drivers/CMSIS/Include/core_cmInstr.h ****    uint32_t result;
 588:Drivers/CMSIS/Include/core_cmInstr.h **** 
 589:Drivers/CMSIS/Include/core_cmInstr.h ****    __ASM volatile ("strexh %0, %2, %1" : "=&r" (result), "=Q" (*addr) : "r" (value) );
 590:Drivers/CMSIS/Include/core_cmInstr.h ****    return(result);
 591:Drivers/CMSIS/Include/core_cmInstr.h **** }
 592:Drivers/CMSIS/Include/core_cmInstr.h **** 
 593:Drivers/CMSIS/Include/core_cmInstr.h **** 
 594:Drivers/CMSIS/Include/core_cmInstr.h **** /** \brief  STR Exclusive (32 bit)
 595:Drivers/CMSIS/Include/core_cmInstr.h **** 
 596:Drivers/CMSIS/Include/core_cmInstr.h ****     This function performs a exclusive STR command for 32 bit values.
 597:Drivers/CMSIS/Include/core_cmInstr.h **** 
 598:Drivers/CMSIS/Include/core_cmInstr.h ****     \param [in]  value  Value to store
 599:Drivers/CMSIS/Include/core_cmInstr.h ****     \param [in]    ptr  Pointer to location
 600:Drivers/CMSIS/Include/core_cmInstr.h ****     \return          0  Function succeeded
 601:Drivers/CMSIS/Include/core_cmInstr.h ****     \return          1  Function failed
 602:Drivers/CMSIS/Include/core_cmInstr.h ****  */
 603:Drivers/CMSIS/Include/core_cmInstr.h **** __attribute__( ( always_inline ) ) __STATIC_INLINE uint32_t __STREXW(uint32_t value, volatile uint3
 604:Drivers/CMSIS/Include/core_cmInstr.h **** {
 605:Drivers/CMSIS/Include/core_cmInstr.h ****    uint32_t result;
 606:Drivers/CMSIS/Include/core_cmInstr.h **** 
 607:Drivers/CMSIS/Include/core_cmInstr.h ****    __ASM volatile ("strex %0, %2, %1" : "=&r" (result), "=Q" (*addr) : "r" (value) );
 608:Drivers/CMSIS/Include/core_cmInstr.h ****    return(result);
 609:Drivers/CMSIS/Include/core_cmInstr.h **** }
ARM GAS  /tmp/ccIAVpNs.s 			page 15


 610:Drivers/CMSIS/Include/core_cmInstr.h **** 
 611:Drivers/CMSIS/Include/core_cmInstr.h **** 
 612:Drivers/CMSIS/Include/core_cmInstr.h **** /** \brief  Remove the exclusive lock
 613:Drivers/CMSIS/Include/core_cmInstr.h **** 
 614:Drivers/CMSIS/Include/core_cmInstr.h ****     This function removes the exclusive lock which is created by LDREX.
 615:Drivers/CMSIS/Include/core_cmInstr.h **** 
 616:Drivers/CMSIS/Include/core_cmInstr.h ****  */
 617:Drivers/CMSIS/Include/core_cmInstr.h **** __attribute__( ( always_inline ) ) __STATIC_INLINE void __CLREX(void)
 618:Drivers/CMSIS/Include/core_cmInstr.h **** {
 619:Drivers/CMSIS/Include/core_cmInstr.h ****   __ASM volatile ("clrex" ::: "memory");
 620:Drivers/CMSIS/Include/core_cmInstr.h **** }
 621:Drivers/CMSIS/Include/core_cmInstr.h **** 
 622:Drivers/CMSIS/Include/core_cmInstr.h **** 
 623:Drivers/CMSIS/Include/core_cmInstr.h **** /** \brief  Signed Saturate
 624:Drivers/CMSIS/Include/core_cmInstr.h **** 
 625:Drivers/CMSIS/Include/core_cmInstr.h ****     This function saturates a signed value.
 626:Drivers/CMSIS/Include/core_cmInstr.h **** 
 627:Drivers/CMSIS/Include/core_cmInstr.h ****     \param [in]  value  Value to be saturated
 628:Drivers/CMSIS/Include/core_cmInstr.h ****     \param [in]    sat  Bit position to saturate to (1..32)
 629:Drivers/CMSIS/Include/core_cmInstr.h ****     \return             Saturated value
 630:Drivers/CMSIS/Include/core_cmInstr.h ****  */
 631:Drivers/CMSIS/Include/core_cmInstr.h **** #define __SSAT(ARG1,ARG2) \
 632:Drivers/CMSIS/Include/core_cmInstr.h **** ({                          \
 633:Drivers/CMSIS/Include/core_cmInstr.h ****   uint32_t __RES, __ARG1 = (ARG1); \
 634:Drivers/CMSIS/Include/core_cmInstr.h ****   __ASM ("ssat %0, %1, %2" : "=r" (__RES) :  "I" (ARG2), "r" (__ARG1) ); \
 635:Drivers/CMSIS/Include/core_cmInstr.h ****   __RES; \
 636:Drivers/CMSIS/Include/core_cmInstr.h ****  })
 637:Drivers/CMSIS/Include/core_cmInstr.h **** 
 638:Drivers/CMSIS/Include/core_cmInstr.h **** 
 639:Drivers/CMSIS/Include/core_cmInstr.h **** /** \brief  Unsigned Saturate
 640:Drivers/CMSIS/Include/core_cmInstr.h **** 
 641:Drivers/CMSIS/Include/core_cmInstr.h ****     This function saturates an unsigned value.
 642:Drivers/CMSIS/Include/core_cmInstr.h **** 
 643:Drivers/CMSIS/Include/core_cmInstr.h ****     \param [in]  value  Value to be saturated
 644:Drivers/CMSIS/Include/core_cmInstr.h ****     \param [in]    sat  Bit position to saturate to (0..31)
 645:Drivers/CMSIS/Include/core_cmInstr.h ****     \return             Saturated value
 646:Drivers/CMSIS/Include/core_cmInstr.h ****  */
 647:Drivers/CMSIS/Include/core_cmInstr.h **** #define __USAT(ARG1,ARG2) \
 648:Drivers/CMSIS/Include/core_cmInstr.h **** ({                          \
 649:Drivers/CMSIS/Include/core_cmInstr.h ****   uint32_t __RES, __ARG1 = (ARG1); \
 650:Drivers/CMSIS/Include/core_cmInstr.h ****   __ASM ("usat %0, %1, %2" : "=r" (__RES) :  "I" (ARG2), "r" (__ARG1) ); \
 651:Drivers/CMSIS/Include/core_cmInstr.h ****   __RES; \
 652:Drivers/CMSIS/Include/core_cmInstr.h ****  })
 653:Drivers/CMSIS/Include/core_cmInstr.h **** 
 654:Drivers/CMSIS/Include/core_cmInstr.h **** 
 655:Drivers/CMSIS/Include/core_cmInstr.h **** /** \brief  Count leading zeros
 656:Drivers/CMSIS/Include/core_cmInstr.h **** 
 657:Drivers/CMSIS/Include/core_cmInstr.h ****     This function counts the number of leading zeros of a data value.
 658:Drivers/CMSIS/Include/core_cmInstr.h **** 
 659:Drivers/CMSIS/Include/core_cmInstr.h ****     \param [in]  value  Value to count the leading zeros
 660:Drivers/CMSIS/Include/core_cmInstr.h ****     \return             number of leading zeros in value
 661:Drivers/CMSIS/Include/core_cmInstr.h ****  */
 662:Drivers/CMSIS/Include/core_cmInstr.h **** __attribute__( ( always_inline ) ) __STATIC_INLINE uint8_t __CLZ(uint32_t value)
 663:Drivers/CMSIS/Include/core_cmInstr.h **** {
 664:Drivers/CMSIS/Include/core_cmInstr.h ****    uint32_t result;
 665:Drivers/CMSIS/Include/core_cmInstr.h **** 
 666:Drivers/CMSIS/Include/core_cmInstr.h ****   __ASM volatile ("clz %0, %1" : "=r" (result) : "r" (value) );
ARM GAS  /tmp/ccIAVpNs.s 			page 16


 102              		.loc 2 666 0
 103 0018 7B68     		ldr	r3, [r7, #4]	@ tmp149, value
 104              	@ 666 "Drivers/CMSIS/Include/core_cmInstr.h" 1
 105 001a B3FA83F4 		clz r4, r3	@ result, tmp149
 106              	@ 0 "" 2
 107              		.thumb
 108 001e 3C60     		str	r4, [r7, #0]	@ result, result
 667:Drivers/CMSIS/Include/core_cmInstr.h ****   return(result);
 109              		.loc 2 667 0
 110 0020 3B68     		ldr	r3, [r7, #0]	@ tmp150, result
 111 0022 DBB2     		uxtb	r3, r3	@ D.5918, tmp150
 112              	.LBE55:
 113              	.LBE54:
 114              	.LBE53:
  89:Drivers/STM32L1xx_HAL_Driver/stm32l1xx_hal_pwr_ex.cpp ****   /* Enable the fast wake up */
  90:Drivers/STM32L1xx_HAL_Driver/stm32l1xx_hal_pwr_ex.cpp ****   *(__IO uint32_t *) CR_FWU_BB = (uint32_t)ENABLE;
 115              		.loc 1 90 0
 116 0024 4FEA8303 		lsl	r3, r3, #2	@ D.5903, D.5902,
 117 0028 03F18443 		add	r3, r3, #1107296256	@ D.5905, D.5904,
 118 002c 03F56023 		add	r3, r3, #917504	@ D.5905, D.5905,
 119 0030 4FF00102 		mov	r2, #1	@ tmp151,
 120 0034 1A60     		str	r2, [r3, #0]	@ tmp151, *D.5906_7
  91:Drivers/STM32L1xx_HAL_Driver/stm32l1xx_hal_pwr_ex.cpp **** }
 121              		.loc 1 91 0
 122 0036 07F11007 		add	r7, r7, #16	@,,
 123 003a BD46     		mov	sp, r7
 124 003c 90BC     		pop	{r4, r7}
 125 003e 7047     		bx	lr
 126              		.cfi_endproc
 127              	.LFE56:
 128              		.size	HAL_PWREx_EnableFastWakeUp, .-HAL_PWREx_EnableFastWakeUp
 129              		.section	.text.HAL_PWREx_DisableFastWakeUp,"ax",%progbits
 130              		.align	2
 131              		.global	HAL_PWREx_DisableFastWakeUp
 132              		.thumb
 133              		.thumb_func
 134              		.type	HAL_PWREx_DisableFastWakeUp, %function
 135              	HAL_PWREx_DisableFastWakeUp:
 136              	.LFB57:
  92:Drivers/STM32L1xx_HAL_Driver/stm32l1xx_hal_pwr_ex.cpp **** 
  93:Drivers/STM32L1xx_HAL_Driver/stm32l1xx_hal_pwr_ex.cpp **** /**
  94:Drivers/STM32L1xx_HAL_Driver/stm32l1xx_hal_pwr_ex.cpp ****   * @brief  Disables the Fast WakeUp from Ultra Low Power mode.
  95:Drivers/STM32L1xx_HAL_Driver/stm32l1xx_hal_pwr_ex.cpp ****   * @retval None
  96:Drivers/STM32L1xx_HAL_Driver/stm32l1xx_hal_pwr_ex.cpp ****   */
  97:Drivers/STM32L1xx_HAL_Driver/stm32l1xx_hal_pwr_ex.cpp **** void HAL_PWREx_DisableFastWakeUp(void)
  98:Drivers/STM32L1xx_HAL_Driver/stm32l1xx_hal_pwr_ex.cpp **** {
 137              		.loc 1 98 0
 138              		.cfi_startproc
 139              		@ args = 0, pretend = 0, frame = 16
 140              		@ frame_needed = 1, uses_anonymous_args = 0
 141              		@ link register save eliminated.
 142 0000 90B4     		push	{r4, r7}	@
 143              	.LCFI3:
 144              		.cfi_def_cfa_offset 8
 145              		.cfi_offset 4, -8
 146              		.cfi_offset 7, -4
 147 0002 84B0     		sub	sp, sp, #16	@,,
ARM GAS  /tmp/ccIAVpNs.s 			page 17


 148              	.LCFI4:
 149              		.cfi_def_cfa_offset 24
 150 0004 00AF     		add	r7, sp, #0	@,,
 151              	.LCFI5:
 152              		.cfi_def_cfa_register 7
 153 0006 4FF48063 		mov	r3, #1024	@ tmp145,
 154 000a FB60     		str	r3, [r7, #12]	@ tmp145, value
 155              	.LBB56:
 156              	.LBB57:
 157              	.LBB58:
 491:Drivers/CMSIS/Include/core_cmInstr.h ****    __ASM volatile ("rbit %0, %1" : "=r" (result) : "r" (value) );
 158              		.loc 2 491 0
 159 000c FB68     		ldr	r3, [r7, #12]	@ tmp147, value
 160              	@ 491 "Drivers/CMSIS/Include/core_cmInstr.h" 1
 161 000e 93FAA3F4 		rbit r4, r3	@ result, tmp147
 162              	@ 0 "" 2
 163              		.thumb
 164 0012 BC60     		str	r4, [r7, #8]	@ result, result
 492:Drivers/CMSIS/Include/core_cmInstr.h ****    return(result);
 165              		.loc 2 492 0
 166 0014 BB68     		ldr	r3, [r7, #8]	@ D.5924, result
 167 0016 7B60     		str	r3, [r7, #4]	@ D.5893, value
 168              	.LBE58:
 169              	.LBE57:
 170              	.LBE56:
 171              	.LBB59:
 172              	.LBB60:
 173              	.LBB61:
 666:Drivers/CMSIS/Include/core_cmInstr.h ****   __ASM volatile ("clz %0, %1" : "=r" (result) : "r" (value) );
 174              		.loc 2 666 0
 175 0018 7B68     		ldr	r3, [r7, #4]	@ tmp149, value
 176              	@ 666 "Drivers/CMSIS/Include/core_cmInstr.h" 1
 177 001a B3FA83F4 		clz r4, r3	@ result, tmp149
 178              	@ 0 "" 2
 179              		.thumb
 180 001e 3C60     		str	r4, [r7, #0]	@ result, result
 181              		.loc 2 667 0
 182 0020 3B68     		ldr	r3, [r7, #0]	@ tmp150, result
 183 0022 DBB2     		uxtb	r3, r3	@ D.5929, tmp150
 184              	.LBE61:
 185              	.LBE60:
 186              	.LBE59:
  99:Drivers/STM32L1xx_HAL_Driver/stm32l1xx_hal_pwr_ex.cpp ****   /* Disable the fast wake up */
 100:Drivers/STM32L1xx_HAL_Driver/stm32l1xx_hal_pwr_ex.cpp ****   *(__IO uint32_t *) CR_FWU_BB = (uint32_t)DISABLE;
 187              		.loc 1 100 0
 188 0024 4FEA8303 		lsl	r3, r3, #2	@ D.5896, D.5895,
 189 0028 03F18443 		add	r3, r3, #1107296256	@ D.5898, D.5897,
 190 002c 03F56023 		add	r3, r3, #917504	@ D.5898, D.5898,
 191 0030 4FF00002 		mov	r2, #0	@ tmp151,
 192 0034 1A60     		str	r2, [r3, #0]	@ tmp151, *D.5899_7
 101:Drivers/STM32L1xx_HAL_Driver/stm32l1xx_hal_pwr_ex.cpp **** }
 193              		.loc 1 101 0
 194 0036 07F11007 		add	r7, r7, #16	@,,
 195 003a BD46     		mov	sp, r7
 196 003c 90BC     		pop	{r4, r7}
 197 003e 7047     		bx	lr
 198              		.cfi_endproc
ARM GAS  /tmp/ccIAVpNs.s 			page 18


 199              	.LFE57:
 200              		.size	HAL_PWREx_DisableFastWakeUp, .-HAL_PWREx_DisableFastWakeUp
 201              		.section	.text.HAL_PWREx_EnableUltraLowPower,"ax",%progbits
 202              		.align	2
 203              		.global	HAL_PWREx_EnableUltraLowPower
 204              		.thumb
 205              		.thumb_func
 206              		.type	HAL_PWREx_EnableUltraLowPower, %function
 207              	HAL_PWREx_EnableUltraLowPower:
 208              	.LFB58:
 102:Drivers/STM32L1xx_HAL_Driver/stm32l1xx_hal_pwr_ex.cpp **** 
 103:Drivers/STM32L1xx_HAL_Driver/stm32l1xx_hal_pwr_ex.cpp **** /**
 104:Drivers/STM32L1xx_HAL_Driver/stm32l1xx_hal_pwr_ex.cpp ****   * @brief  Enables the Ultra Low Power mode
 105:Drivers/STM32L1xx_HAL_Driver/stm32l1xx_hal_pwr_ex.cpp ****   * @retval None
 106:Drivers/STM32L1xx_HAL_Driver/stm32l1xx_hal_pwr_ex.cpp ****   */
 107:Drivers/STM32L1xx_HAL_Driver/stm32l1xx_hal_pwr_ex.cpp **** void HAL_PWREx_EnableUltraLowPower(void)
 108:Drivers/STM32L1xx_HAL_Driver/stm32l1xx_hal_pwr_ex.cpp **** {
 209              		.loc 1 108 0
 210              		.cfi_startproc
 211              		@ args = 0, pretend = 0, frame = 16
 212              		@ frame_needed = 1, uses_anonymous_args = 0
 213              		@ link register save eliminated.
 214 0000 90B4     		push	{r4, r7}	@
 215              	.LCFI6:
 216              		.cfi_def_cfa_offset 8
 217              		.cfi_offset 4, -8
 218              		.cfi_offset 7, -4
 219 0002 84B0     		sub	sp, sp, #16	@,,
 220              	.LCFI7:
 221              		.cfi_def_cfa_offset 24
 222 0004 00AF     		add	r7, sp, #0	@,,
 223              	.LCFI8:
 224              		.cfi_def_cfa_register 7
 225 0006 4FF40073 		mov	r3, #512	@ tmp145,
 226 000a FB60     		str	r3, [r7, #12]	@ tmp145, value
 227              	.LBB62:
 228              	.LBB63:
 229              	.LBB64:
 491:Drivers/CMSIS/Include/core_cmInstr.h ****    __ASM volatile ("rbit %0, %1" : "=r" (result) : "r" (value) );
 230              		.loc 2 491 0
 231 000c FB68     		ldr	r3, [r7, #12]	@ tmp147, value
 232              	@ 491 "Drivers/CMSIS/Include/core_cmInstr.h" 1
 233 000e 93FAA3F4 		rbit r4, r3	@ result, tmp147
 234              	@ 0 "" 2
 235              		.thumb
 236 0012 BC60     		str	r4, [r7, #8]	@ result, result
 492:Drivers/CMSIS/Include/core_cmInstr.h ****    return(result);
 237              		.loc 2 492 0
 238 0014 BB68     		ldr	r3, [r7, #8]	@ D.5935, result
 239 0016 7B60     		str	r3, [r7, #4]	@ D.5886, value
 240              	.LBE64:
 241              	.LBE63:
 242              	.LBE62:
 243              	.LBB65:
 244              	.LBB66:
 245              	.LBB67:
 666:Drivers/CMSIS/Include/core_cmInstr.h ****   __ASM volatile ("clz %0, %1" : "=r" (result) : "r" (value) );
ARM GAS  /tmp/ccIAVpNs.s 			page 19


 246              		.loc 2 666 0
 247 0018 7B68     		ldr	r3, [r7, #4]	@ tmp149, value
 248              	@ 666 "Drivers/CMSIS/Include/core_cmInstr.h" 1
 249 001a B3FA83F4 		clz r4, r3	@ result, tmp149
 250              	@ 0 "" 2
 251              		.thumb
 252 001e 3C60     		str	r4, [r7, #0]	@ result, result
 253              		.loc 2 667 0
 254 0020 3B68     		ldr	r3, [r7, #0]	@ tmp150, result
 255 0022 DBB2     		uxtb	r3, r3	@ D.5940, tmp150
 256              	.LBE67:
 257              	.LBE66:
 258              	.LBE65:
 109:Drivers/STM32L1xx_HAL_Driver/stm32l1xx_hal_pwr_ex.cpp ****   /* Enable the Ultra Low Power mode */
 110:Drivers/STM32L1xx_HAL_Driver/stm32l1xx_hal_pwr_ex.cpp ****   *(__IO uint32_t *) CR_ULP_BB = (uint32_t)ENABLE;
 259              		.loc 1 110 0
 260 0024 4FEA8303 		lsl	r3, r3, #2	@ D.5889, D.5888,
 261 0028 03F18443 		add	r3, r3, #1107296256	@ D.5891, D.5890,
 262 002c 03F56023 		add	r3, r3, #917504	@ D.5891, D.5891,
 263 0030 4FF00102 		mov	r2, #1	@ tmp151,
 264 0034 1A60     		str	r2, [r3, #0]	@ tmp151, *D.5892_7
 111:Drivers/STM32L1xx_HAL_Driver/stm32l1xx_hal_pwr_ex.cpp **** }
 265              		.loc 1 111 0
 266 0036 07F11007 		add	r7, r7, #16	@,,
 267 003a BD46     		mov	sp, r7
 268 003c 90BC     		pop	{r4, r7}
 269 003e 7047     		bx	lr
 270              		.cfi_endproc
 271              	.LFE58:
 272              		.size	HAL_PWREx_EnableUltraLowPower, .-HAL_PWREx_EnableUltraLowPower
 273              		.section	.text.HAL_PWREx_DisableUltraLowPower,"ax",%progbits
 274              		.align	2
 275              		.global	HAL_PWREx_DisableUltraLowPower
 276              		.thumb
 277              		.thumb_func
 278              		.type	HAL_PWREx_DisableUltraLowPower, %function
 279              	HAL_PWREx_DisableUltraLowPower:
 280              	.LFB59:
 112:Drivers/STM32L1xx_HAL_Driver/stm32l1xx_hal_pwr_ex.cpp **** 
 113:Drivers/STM32L1xx_HAL_Driver/stm32l1xx_hal_pwr_ex.cpp **** /**
 114:Drivers/STM32L1xx_HAL_Driver/stm32l1xx_hal_pwr_ex.cpp ****   * @brief  Disables the Ultra Low Power mode
 115:Drivers/STM32L1xx_HAL_Driver/stm32l1xx_hal_pwr_ex.cpp ****   * @retval None
 116:Drivers/STM32L1xx_HAL_Driver/stm32l1xx_hal_pwr_ex.cpp ****   */
 117:Drivers/STM32L1xx_HAL_Driver/stm32l1xx_hal_pwr_ex.cpp **** void HAL_PWREx_DisableUltraLowPower(void)
 118:Drivers/STM32L1xx_HAL_Driver/stm32l1xx_hal_pwr_ex.cpp **** {
 281              		.loc 1 118 0
 282              		.cfi_startproc
 283              		@ args = 0, pretend = 0, frame = 16
 284              		@ frame_needed = 1, uses_anonymous_args = 0
 285              		@ link register save eliminated.
 286 0000 90B4     		push	{r4, r7}	@
 287              	.LCFI9:
 288              		.cfi_def_cfa_offset 8
 289              		.cfi_offset 4, -8
 290              		.cfi_offset 7, -4
 291 0002 84B0     		sub	sp, sp, #16	@,,
 292              	.LCFI10:
ARM GAS  /tmp/ccIAVpNs.s 			page 20


 293              		.cfi_def_cfa_offset 24
 294 0004 00AF     		add	r7, sp, #0	@,,
 295              	.LCFI11:
 296              		.cfi_def_cfa_register 7
 297 0006 4FF40073 		mov	r3, #512	@ tmp145,
 298 000a FB60     		str	r3, [r7, #12]	@ tmp145, value
 299              	.LBB68:
 300              	.LBB69:
 301              	.LBB70:
 491:Drivers/CMSIS/Include/core_cmInstr.h ****    __ASM volatile ("rbit %0, %1" : "=r" (result) : "r" (value) );
 302              		.loc 2 491 0
 303 000c FB68     		ldr	r3, [r7, #12]	@ tmp147, value
 304              	@ 491 "Drivers/CMSIS/Include/core_cmInstr.h" 1
 305 000e 93FAA3F4 		rbit r4, r3	@ result, tmp147
 306              	@ 0 "" 2
 307              		.thumb
 308 0012 BC60     		str	r4, [r7, #8]	@ result, result
 492:Drivers/CMSIS/Include/core_cmInstr.h ****    return(result);
 309              		.loc 2 492 0
 310 0014 BB68     		ldr	r3, [r7, #8]	@ D.5946, result
 311 0016 7B60     		str	r3, [r7, #4]	@ D.5879, value
 312              	.LBE70:
 313              	.LBE69:
 314              	.LBE68:
 315              	.LBB71:
 316              	.LBB72:
 317              	.LBB73:
 666:Drivers/CMSIS/Include/core_cmInstr.h ****   __ASM volatile ("clz %0, %1" : "=r" (result) : "r" (value) );
 318              		.loc 2 666 0
 319 0018 7B68     		ldr	r3, [r7, #4]	@ tmp149, value
 320              	@ 666 "Drivers/CMSIS/Include/core_cmInstr.h" 1
 321 001a B3FA83F4 		clz r4, r3	@ result, tmp149
 322              	@ 0 "" 2
 323              		.thumb
 324 001e 3C60     		str	r4, [r7, #0]	@ result, result
 325              		.loc 2 667 0
 326 0020 3B68     		ldr	r3, [r7, #0]	@ tmp150, result
 327 0022 DBB2     		uxtb	r3, r3	@ D.5951, tmp150
 328              	.LBE73:
 329              	.LBE72:
 330              	.LBE71:
 119:Drivers/STM32L1xx_HAL_Driver/stm32l1xx_hal_pwr_ex.cpp ****   /* Disable the Ultra Low Power mode */
 120:Drivers/STM32L1xx_HAL_Driver/stm32l1xx_hal_pwr_ex.cpp ****   *(__IO uint32_t *) CR_ULP_BB = (uint32_t)DISABLE;
 331              		.loc 1 120 0
 332 0024 4FEA8303 		lsl	r3, r3, #2	@ D.5882, D.5881,
 333 0028 03F18443 		add	r3, r3, #1107296256	@ D.5884, D.5883,
 334 002c 03F56023 		add	r3, r3, #917504	@ D.5884, D.5884,
 335 0030 4FF00002 		mov	r2, #0	@ tmp151,
 336 0034 1A60     		str	r2, [r3, #0]	@ tmp151, *D.5885_7
 121:Drivers/STM32L1xx_HAL_Driver/stm32l1xx_hal_pwr_ex.cpp **** }
 337              		.loc 1 121 0
 338 0036 07F11007 		add	r7, r7, #16	@,,
 339 003a BD46     		mov	sp, r7
 340 003c 90BC     		pop	{r4, r7}
 341 003e 7047     		bx	lr
 342              		.cfi_endproc
 343              	.LFE59:
ARM GAS  /tmp/ccIAVpNs.s 			page 21


 344              		.size	HAL_PWREx_DisableUltraLowPower, .-HAL_PWREx_DisableUltraLowPower
 345              		.section	.text.HAL_PWREx_EnableLowPowerRunMode,"ax",%progbits
 346              		.align	2
 347              		.global	HAL_PWREx_EnableLowPowerRunMode
 348              		.thumb
 349              		.thumb_func
 350              		.type	HAL_PWREx_EnableLowPowerRunMode, %function
 351              	HAL_PWREx_EnableLowPowerRunMode:
 352              	.LFB60:
 122:Drivers/STM32L1xx_HAL_Driver/stm32l1xx_hal_pwr_ex.cpp **** 
 123:Drivers/STM32L1xx_HAL_Driver/stm32l1xx_hal_pwr_ex.cpp **** /**
 124:Drivers/STM32L1xx_HAL_Driver/stm32l1xx_hal_pwr_ex.cpp ****   * @brief  Enters the Low Power Run mode.
 125:Drivers/STM32L1xx_HAL_Driver/stm32l1xx_hal_pwr_ex.cpp ****   * @note   Low power run mode can only be entered when VCORE is in range 2.
 126:Drivers/STM32L1xx_HAL_Driver/stm32l1xx_hal_pwr_ex.cpp ****   *         In addition, the dynamic voltage scaling must not be used when Low
 127:Drivers/STM32L1xx_HAL_Driver/stm32l1xx_hal_pwr_ex.cpp ****   *         power run mode is selected. Only Stop and Sleep modes with regulator
 128:Drivers/STM32L1xx_HAL_Driver/stm32l1xx_hal_pwr_ex.cpp ****   *         configured in Low power mode is allowed when Low power run mode is 
 129:Drivers/STM32L1xx_HAL_Driver/stm32l1xx_hal_pwr_ex.cpp ****   *         selected.
 130:Drivers/STM32L1xx_HAL_Driver/stm32l1xx_hal_pwr_ex.cpp ****   * @note   In Low power run mode, all I/O pins keep the same state as in Run mode.
 131:Drivers/STM32L1xx_HAL_Driver/stm32l1xx_hal_pwr_ex.cpp ****   * @retval None
 132:Drivers/STM32L1xx_HAL_Driver/stm32l1xx_hal_pwr_ex.cpp ****   */
 133:Drivers/STM32L1xx_HAL_Driver/stm32l1xx_hal_pwr_ex.cpp **** void HAL_PWREx_EnableLowPowerRunMode(void)
 134:Drivers/STM32L1xx_HAL_Driver/stm32l1xx_hal_pwr_ex.cpp **** {
 353              		.loc 1 134 0
 354              		.cfi_startproc
 355              		@ args = 0, pretend = 0, frame = 32
 356              		@ frame_needed = 1, uses_anonymous_args = 0
 357              		@ link register save eliminated.
 358 0000 90B4     		push	{r4, r7}	@
 359              	.LCFI12:
 360              		.cfi_def_cfa_offset 8
 361              		.cfi_offset 4, -8
 362              		.cfi_offset 7, -4
 363 0002 88B0     		sub	sp, sp, #32	@,,
 364              	.LCFI13:
 365              		.cfi_def_cfa_offset 40
 366 0004 00AF     		add	r7, sp, #0	@,,
 367              	.LCFI14:
 368              		.cfi_def_cfa_register 7
 369 0006 4FF00103 		mov	r3, #1	@ tmp156,
 370 000a FB61     		str	r3, [r7, #28]	@ tmp156, value
 371              	.LBB74:
 372              	.LBB75:
 373              	.LBB76:
 491:Drivers/CMSIS/Include/core_cmInstr.h ****    __ASM volatile ("rbit %0, %1" : "=r" (result) : "r" (value) );
 374              		.loc 2 491 0
 375 000c FB69     		ldr	r3, [r7, #28]	@ tmp158, value
 376              	@ 491 "Drivers/CMSIS/Include/core_cmInstr.h" 1
 377 000e 93FAA3F4 		rbit r4, r3	@ result, tmp158
 378              	@ 0 "" 2
 379              		.thumb
 380 0012 BC61     		str	r4, [r7, #24]	@ result, result
 492:Drivers/CMSIS/Include/core_cmInstr.h ****    return(result);
 381              		.loc 2 492 0
 382 0014 BB69     		ldr	r3, [r7, #24]	@ D.5957, result
 383 0016 7B61     		str	r3, [r7, #20]	@ D.5865, value
 384              	.LBE76:
 385              	.LBE75:
ARM GAS  /tmp/ccIAVpNs.s 			page 22


 386              	.LBE74:
 387              	.LBB77:
 388              	.LBB78:
 389              	.LBB79:
 666:Drivers/CMSIS/Include/core_cmInstr.h ****   __ASM volatile ("clz %0, %1" : "=r" (result) : "r" (value) );
 390              		.loc 2 666 0
 391 0018 7B69     		ldr	r3, [r7, #20]	@ tmp160, value
 392              	@ 666 "Drivers/CMSIS/Include/core_cmInstr.h" 1
 393 001a B3FA83F4 		clz r4, r3	@ result, tmp160
 394              	@ 0 "" 2
 395              		.thumb
 396 001e 3C61     		str	r4, [r7, #16]	@ result, result
 397              		.loc 2 667 0
 398 0020 3B69     		ldr	r3, [r7, #16]	@ tmp161, result
 399 0022 DBB2     		uxtb	r3, r3	@ D.5962, tmp161
 400              	.LBE79:
 401              	.LBE78:
 402              	.LBE77:
 135:Drivers/STM32L1xx_HAL_Driver/stm32l1xx_hal_pwr_ex.cpp ****   /* Enters the Low Power Run mode */
 136:Drivers/STM32L1xx_HAL_Driver/stm32l1xx_hal_pwr_ex.cpp ****   *(__IO uint32_t *) CR_LPSDSR_BB = (uint32_t)ENABLE;
 403              		.loc 1 136 0
 404 0024 4FEA8303 		lsl	r3, r3, #2	@ D.5868, D.5867,
 405 0028 03F18443 		add	r3, r3, #1107296256	@ D.5870, D.5869,
 406 002c 03F56023 		add	r3, r3, #917504	@ D.5870, D.5870,
 407 0030 4FF00102 		mov	r2, #1	@ tmp162,
 408 0034 1A60     		str	r2, [r3, #0]	@ tmp162, *D.5871_7
 409 0036 4FF48043 		mov	r3, #16384	@ tmp163,
 410 003a FB60     		str	r3, [r7, #12]	@ tmp163, value
 411              	.LBB80:
 412              	.LBB81:
 413              	.LBB82:
 491:Drivers/CMSIS/Include/core_cmInstr.h ****    __ASM volatile ("rbit %0, %1" : "=r" (result) : "r" (value) );
 414              		.loc 2 491 0
 415 003c FB68     		ldr	r3, [r7, #12]	@ tmp165, value
 416              	@ 491 "Drivers/CMSIS/Include/core_cmInstr.h" 1
 417 003e 93FAA3F4 		rbit r4, r3	@ result, tmp165
 418              	@ 0 "" 2
 419              		.thumb
 420 0042 BC60     		str	r4, [r7, #8]	@ result, result
 492:Drivers/CMSIS/Include/core_cmInstr.h ****    return(result);
 421              		.loc 2 492 0
 422 0044 BB68     		ldr	r3, [r7, #8]	@ D.5967, result
 423 0046 7B60     		str	r3, [r7, #4]	@ D.5872, value
 424              	.LBE82:
 425              	.LBE81:
 426              	.LBE80:
 427              	.LBB83:
 428              	.LBB84:
 429              	.LBB85:
 666:Drivers/CMSIS/Include/core_cmInstr.h ****   __ASM volatile ("clz %0, %1" : "=r" (result) : "r" (value) );
 430              		.loc 2 666 0
 431 0048 7B68     		ldr	r3, [r7, #4]	@ tmp167, value
 432              	@ 666 "Drivers/CMSIS/Include/core_cmInstr.h" 1
 433 004a B3FA83F4 		clz r4, r3	@ result, tmp167
 434              	@ 0 "" 2
 435              		.thumb
 436 004e 3C60     		str	r4, [r7, #0]	@ result, result
ARM GAS  /tmp/ccIAVpNs.s 			page 23


 437              		.loc 2 667 0
 438 0050 3B68     		ldr	r3, [r7, #0]	@ tmp168, result
 439 0052 DBB2     		uxtb	r3, r3	@ D.5972, tmp168
 440              	.LBE85:
 441              	.LBE84:
 442              	.LBE83:
 137:Drivers/STM32L1xx_HAL_Driver/stm32l1xx_hal_pwr_ex.cpp ****   *(__IO uint32_t *) CR_LPRUN_BB  = (uint32_t)ENABLE;
 443              		.loc 1 137 0
 444 0054 4FEA8303 		lsl	r3, r3, #2	@ D.5875, D.5874,
 445 0058 03F18443 		add	r3, r3, #1107296256	@ D.5877, D.5876,
 446 005c 03F56023 		add	r3, r3, #917504	@ D.5877, D.5877,
 447 0060 4FF00102 		mov	r2, #1	@ tmp169,
 448 0064 1A60     		str	r2, [r3, #0]	@ tmp169, *D.5878_14
 138:Drivers/STM32L1xx_HAL_Driver/stm32l1xx_hal_pwr_ex.cpp **** }
 449              		.loc 1 138 0
 450 0066 07F12007 		add	r7, r7, #32	@,,
 451 006a BD46     		mov	sp, r7
 452 006c 90BC     		pop	{r4, r7}
 453 006e 7047     		bx	lr
 454              		.cfi_endproc
 455              	.LFE60:
 456              		.size	HAL_PWREx_EnableLowPowerRunMode, .-HAL_PWREx_EnableLowPowerRunMode
 457              		.section	.text.HAL_PWREx_DisableLowPowerRunMode,"ax",%progbits
 458              		.align	2
 459              		.global	HAL_PWREx_DisableLowPowerRunMode
 460              		.thumb
 461              		.thumb_func
 462              		.type	HAL_PWREx_DisableLowPowerRunMode, %function
 463              	HAL_PWREx_DisableLowPowerRunMode:
 464              	.LFB61:
 139:Drivers/STM32L1xx_HAL_Driver/stm32l1xx_hal_pwr_ex.cpp **** 
 140:Drivers/STM32L1xx_HAL_Driver/stm32l1xx_hal_pwr_ex.cpp **** /**
 141:Drivers/STM32L1xx_HAL_Driver/stm32l1xx_hal_pwr_ex.cpp ****   * @brief  Exits the Low Power Run mode.
 142:Drivers/STM32L1xx_HAL_Driver/stm32l1xx_hal_pwr_ex.cpp ****   * @retval None
 143:Drivers/STM32L1xx_HAL_Driver/stm32l1xx_hal_pwr_ex.cpp ****   */
 144:Drivers/STM32L1xx_HAL_Driver/stm32l1xx_hal_pwr_ex.cpp **** void HAL_PWREx_DisableLowPowerRunMode(void)
 145:Drivers/STM32L1xx_HAL_Driver/stm32l1xx_hal_pwr_ex.cpp **** {
 465              		.loc 1 145 0
 466              		.cfi_startproc
 467              		@ args = 0, pretend = 0, frame = 32
 468              		@ frame_needed = 1, uses_anonymous_args = 0
 469              		@ link register save eliminated.
 470 0000 90B4     		push	{r4, r7}	@
 471              	.LCFI15:
 472              		.cfi_def_cfa_offset 8
 473              		.cfi_offset 4, -8
 474              		.cfi_offset 7, -4
 475 0002 88B0     		sub	sp, sp, #32	@,,
 476              	.LCFI16:
 477              		.cfi_def_cfa_offset 40
 478 0004 00AF     		add	r7, sp, #0	@,,
 479              	.LCFI17:
 480              		.cfi_def_cfa_register 7
 481 0006 4FF48043 		mov	r3, #16384	@ tmp156,
 482 000a FB61     		str	r3, [r7, #28]	@ tmp156, value
 483              	.LBB86:
 484              	.LBB87:
ARM GAS  /tmp/ccIAVpNs.s 			page 24


 485              	.LBB88:
 491:Drivers/CMSIS/Include/core_cmInstr.h ****    __ASM volatile ("rbit %0, %1" : "=r" (result) : "r" (value) );
 486              		.loc 2 491 0
 487 000c FB69     		ldr	r3, [r7, #28]	@ tmp158, value
 488              	@ 491 "Drivers/CMSIS/Include/core_cmInstr.h" 1
 489 000e 93FAA3F4 		rbit r4, r3	@ result, tmp158
 490              	@ 0 "" 2
 491              		.thumb
 492 0012 BC61     		str	r4, [r7, #24]	@ result, result
 492:Drivers/CMSIS/Include/core_cmInstr.h ****    return(result);
 493              		.loc 2 492 0
 494 0014 BB69     		ldr	r3, [r7, #24]	@ D.5978, result
 495 0016 7B61     		str	r3, [r7, #20]	@ D.5847, value
 496              	.LBE88:
 497              	.LBE87:
 498              	.LBE86:
 499              	.LBB89:
 500              	.LBB90:
 501              	.LBB91:
 666:Drivers/CMSIS/Include/core_cmInstr.h ****   __ASM volatile ("clz %0, %1" : "=r" (result) : "r" (value) );
 502              		.loc 2 666 0
 503 0018 7B69     		ldr	r3, [r7, #20]	@ tmp160, value
 504              	@ 666 "Drivers/CMSIS/Include/core_cmInstr.h" 1
 505 001a B3FA83F4 		clz r4, r3	@ result, tmp160
 506              	@ 0 "" 2
 507              		.thumb
 508 001e 3C61     		str	r4, [r7, #16]	@ result, result
 509              		.loc 2 667 0
 510 0020 3B69     		ldr	r3, [r7, #16]	@ tmp161, result
 511 0022 DBB2     		uxtb	r3, r3	@ D.5983, tmp161
 512              	.LBE91:
 513              	.LBE90:
 514              	.LBE89:
 146:Drivers/STM32L1xx_HAL_Driver/stm32l1xx_hal_pwr_ex.cpp ****   /* Exits the Low Power Run mode */
 147:Drivers/STM32L1xx_HAL_Driver/stm32l1xx_hal_pwr_ex.cpp ****   *(__IO uint32_t *) CR_LPRUN_BB  = (uint32_t)DISABLE;
 515              		.loc 1 147 0
 516 0024 4FEA8303 		lsl	r3, r3, #2	@ D.5850, D.5849,
 517 0028 03F18443 		add	r3, r3, #1107296256	@ D.5852, D.5851,
 518 002c 03F56023 		add	r3, r3, #917504	@ D.5852, D.5852,
 519 0030 4FF00002 		mov	r2, #0	@ tmp162,
 520 0034 1A60     		str	r2, [r3, #0]	@ tmp162, *D.5853_7
 521 0036 4FF00103 		mov	r3, #1	@ tmp163,
 522 003a FB60     		str	r3, [r7, #12]	@ tmp163, value
 523              	.LBB92:
 524              	.LBB93:
 525              	.LBB94:
 491:Drivers/CMSIS/Include/core_cmInstr.h ****    __ASM volatile ("rbit %0, %1" : "=r" (result) : "r" (value) );
 526              		.loc 2 491 0
 527 003c FB68     		ldr	r3, [r7, #12]	@ tmp165, value
 528              	@ 491 "Drivers/CMSIS/Include/core_cmInstr.h" 1
 529 003e 93FAA3F4 		rbit r4, r3	@ result, tmp165
 530              	@ 0 "" 2
 531              		.thumb
 532 0042 BC60     		str	r4, [r7, #8]	@ result, result
 492:Drivers/CMSIS/Include/core_cmInstr.h ****    return(result);
 533              		.loc 2 492 0
 534 0044 BB68     		ldr	r3, [r7, #8]	@ D.5988, result
ARM GAS  /tmp/ccIAVpNs.s 			page 25


 535 0046 7B60     		str	r3, [r7, #4]	@ D.5854, value
 536              	.LBE94:
 537              	.LBE93:
 538              	.LBE92:
 539              	.LBB95:
 540              	.LBB96:
 541              	.LBB97:
 666:Drivers/CMSIS/Include/core_cmInstr.h ****   __ASM volatile ("clz %0, %1" : "=r" (result) : "r" (value) );
 542              		.loc 2 666 0
 543 0048 7B68     		ldr	r3, [r7, #4]	@ tmp167, value
 544              	@ 666 "Drivers/CMSIS/Include/core_cmInstr.h" 1
 545 004a B3FA83F4 		clz r4, r3	@ result, tmp167
 546              	@ 0 "" 2
 547              		.thumb
 548 004e 3C60     		str	r4, [r7, #0]	@ result, result
 549              		.loc 2 667 0
 550 0050 3B68     		ldr	r3, [r7, #0]	@ tmp168, result
 551 0052 DBB2     		uxtb	r3, r3	@ D.5993, tmp168
 552              	.LBE97:
 553              	.LBE96:
 554              	.LBE95:
 148:Drivers/STM32L1xx_HAL_Driver/stm32l1xx_hal_pwr_ex.cpp ****   *(__IO uint32_t *) CR_LPSDSR_BB = (uint32_t)DISABLE;
 555              		.loc 1 148 0
 556 0054 4FEA8303 		lsl	r3, r3, #2	@ D.5857, D.5856,
 557 0058 03F18443 		add	r3, r3, #1107296256	@ D.5859, D.5858,
 558 005c 03F56023 		add	r3, r3, #917504	@ D.5859, D.5859,
 559 0060 4FF00002 		mov	r2, #0	@ tmp169,
 560 0064 1A60     		str	r2, [r3, #0]	@ tmp169, *D.5860_14
 149:Drivers/STM32L1xx_HAL_Driver/stm32l1xx_hal_pwr_ex.cpp **** }
 561              		.loc 1 149 0
 562 0066 07F12007 		add	r7, r7, #32	@,,
 563 006a BD46     		mov	sp, r7
 564 006c 90BC     		pop	{r4, r7}
 565 006e 7047     		bx	lr
 566              		.cfi_endproc
 567              	.LFE61:
 568              		.size	HAL_PWREx_DisableLowPowerRunMode, .-HAL_PWREx_DisableLowPowerRunMode
 569              		.text
 570              	.Letext0:
 571              		.file 3 "/home/maciek/gcc-arm-none-eabi/gcc-arm-none-eabi-4_7-2013q1/bin/../lib/gcc/arm-none-eabi/
 572              		.file 4 "Drivers/CMSIS/Device/ST/STM32L1xx/stm32l1xx.h"
 573              		.file 5 "Drivers/CMSIS/Include/core_cm3.h"