ARM GAS  /tmp/cczCLpdy.s 			page 1


   1              		.syntax unified
   2              		.cpu cortex-m3
   3              		.fpu softvfp
   4              		.eabi_attribute 20, 1	@ Tag_ABI_FP_denormal
   5              		.eabi_attribute 21, 1	@ Tag_ABI_FP_exceptions
   6              		.eabi_attribute 23, 3	@ Tag_ABI_FP_number_model
   7              		.eabi_attribute 24, 1	@ Tag_ABI_align8_needed
   8              		.eabi_attribute 25, 1	@ Tag_ABI_align8_preserved
   9              		.eabi_attribute 26, 1	@ Tag_ABI_enum_size
  10              		.eabi_attribute 30, 6	@ Tag_ABI_optimization_goals
  11              		.eabi_attribute 34, 1	@ Tag_CPU_unaligned_access
  12              		.eabi_attribute 18, 4	@ Tag_ABI_PCS_wchar_t
  13              		.file	"stm32l1xx_hal_gpio.cpp"
  14              	@ GNU C++ (GNU Tools for ARM Embedded Processors) version 4.7.3 20130312 (release) [ARM/embedded-4_
  15              	@	compiled by GNU C version 4.3.6, GMP version 4.3.2, MPFR version 2.4.2, MPC version 0.8.1
  16              	@ GGC heuristics: --param ggc-min-expand=100 --param ggc-min-heapsize=131072
  17              	@ options passed:  -I . -I Src -I hdr -I Inc -I Middlewares
  18              	@ -I Middlewares/ST -I Middlewares/ST/STM32_USB_Device_Library/Class/CDC
  19              	@ -I Middlewares/ST/STM32_USB_Device_Library/Core -I Drivers
  20              	@ -I Drivers/CMSIS -I Drivers/CMSIS/Device/ST/STM32L1xx
  21              	@ -I Drivers/CMSIS/Include -I Drivers/STM32L1xx_HAL_Driver
  22              	@ -imultilib armv7-m
  23              	@ -iprefix /home/maciek/gcc-arm-none-eabi/gcc-arm-none-eabi-4_7-2013q1/bin/../lib/gcc/arm-none-eabi
  24              	@ -isysroot /home/maciek/gcc-arm-none-eabi/gcc-arm-none-eabi-4_7-2013q1/bin/../arm-none-eabi
  25              	@ -MD out/stm32l1xx_hal_gpio.d -MF out/stm32l1xx_hal_gpio.d -MP
  26              	@ -MQ out/stm32l1xx_hal_gpio.o -D__USES_INITFINI__ -D STM32L1XX_MD
  27              	@ Drivers/STM32L1xx_HAL_Driver/stm32l1xx_hal_gpio.cpp -mcpu=cortex-m3
  28              	@ -mthumb -auxbase-strip out/stm32l1xx_hal_gpio.o -g -ggdb3 -O0 -Wall
  29              	@ -Wextra -std=gnu++11 -ffunction-sections -fdata-sections -fno-rtti
  30              	@ -fno-exceptions -fverbose-asm
  31              	@ options enabled:  -fauto-inc-dec -fbranch-count-reg -fcommon
  32              	@ -fdata-sections -fdebug-types-section -fdelete-null-pointer-checks
  33              	@ -fdwarf2-cfi-asm -fearly-inlining -feliminate-unused-debug-types
  34              	@ -ffunction-cse -ffunction-sections -fgcse-lm -fgnu-runtime -fident
  35              	@ -finline-atomics -fira-share-save-slots -fira-share-spill-slots -fivopts
  36              	@ -fkeep-static-consts -fleading-underscore -fmath-errno
  37              	@ -fmerge-debug-strings -fmove-loop-invariants -fpeephole
  38              	@ -fprefetch-loop-arrays -freg-struct-return
  39              	@ -fsched-critical-path-heuristic -fsched-dep-count-heuristic
  40              	@ -fsched-group-heuristic -fsched-interblock -fsched-last-insn-heuristic
  41              	@ -fsched-rank-heuristic -fsched-spec -fsched-spec-insn-heuristic
  42              	@ -fsched-stalled-insns-dep -fshow-column -fsigned-zeros
  43              	@ -fsplit-ivs-in-unroller -fstrict-volatile-bitfields -ftrapping-math
  44              	@ -ftree-cselim -ftree-forwprop -ftree-loop-if-convert -ftree-loop-im
  45              	@ -ftree-loop-ivcanon -ftree-loop-optimize -ftree-parallelize-loops=
  46              	@ -ftree-phiprop -ftree-pta -ftree-reassoc -ftree-scev-cprop
  47              	@ -ftree-slp-vectorize -ftree-vect-loop-version -funit-at-a-time
  48              	@ -fverbose-asm -fzero-initialized-in-bss -mfix-cortex-m3-ldrd
  49              	@ -mlittle-endian -msched-prolog -mthumb -munaligned-access
  50              	@ -mvectorize-with-neon-quad
  51              	
  52              		.text
  53              	.Ltext0:
  54              		.cfi_sections	.debug_frame
  55              		.section	.text.HAL_GPIO_Init,"ax",%progbits
  56              		.align	2
  57              		.global	HAL_GPIO_Init
ARM GAS  /tmp/cczCLpdy.s 			page 2


  58              		.thumb
  59              		.thumb_func
  60              		.type	HAL_GPIO_Init, %function
  61              	HAL_GPIO_Init:
  62              	.LFB56:
  63              		.file 1 "Drivers/STM32L1xx_HAL_Driver/stm32l1xx_hal_gpio.cpp"
   1:Drivers/STM32L1xx_HAL_Driver/stm32l1xx_hal_gpio.cpp **** /**
   2:Drivers/STM32L1xx_HAL_Driver/stm32l1xx_hal_gpio.cpp ****   ******************************************************************************
   3:Drivers/STM32L1xx_HAL_Driver/stm32l1xx_hal_gpio.cpp ****   * @file    stm32l1xx_hal_gpio.c
   4:Drivers/STM32L1xx_HAL_Driver/stm32l1xx_hal_gpio.cpp ****   * @author  MCD Application Team
   5:Drivers/STM32L1xx_HAL_Driver/stm32l1xx_hal_gpio.cpp ****   * @version V1.0.0
   6:Drivers/STM32L1xx_HAL_Driver/stm32l1xx_hal_gpio.cpp ****   * @date    5-September-2014
   7:Drivers/STM32L1xx_HAL_Driver/stm32l1xx_hal_gpio.cpp ****   * @brief   GPIO HAL module driver.
   8:Drivers/STM32L1xx_HAL_Driver/stm32l1xx_hal_gpio.cpp ****   *         This file provides firmware functions to manage the following 
   9:Drivers/STM32L1xx_HAL_Driver/stm32l1xx_hal_gpio.cpp ****   *          functionalities of the General Purpose Input/Output (GPIO) peripheral:
  10:Drivers/STM32L1xx_HAL_Driver/stm32l1xx_hal_gpio.cpp ****   *           + Initialization and de-initialization functions
  11:Drivers/STM32L1xx_HAL_Driver/stm32l1xx_hal_gpio.cpp ****   *           + IO operation functions
  12:Drivers/STM32L1xx_HAL_Driver/stm32l1xx_hal_gpio.cpp ****   *         
  13:Drivers/STM32L1xx_HAL_Driver/stm32l1xx_hal_gpio.cpp ****   @verbatim
  14:Drivers/STM32L1xx_HAL_Driver/stm32l1xx_hal_gpio.cpp ****   ==============================================================================
  15:Drivers/STM32L1xx_HAL_Driver/stm32l1xx_hal_gpio.cpp ****                     ##### GPIO Peripheral features #####
  16:Drivers/STM32L1xx_HAL_Driver/stm32l1xx_hal_gpio.cpp ****   ==============================================================================         
  17:Drivers/STM32L1xx_HAL_Driver/stm32l1xx_hal_gpio.cpp ****   [..] 
  18:Drivers/STM32L1xx_HAL_Driver/stm32l1xx_hal_gpio.cpp ****   Each port bit of the general-purpose I/O (GPIO) ports can be individually 
  19:Drivers/STM32L1xx_HAL_Driver/stm32l1xx_hal_gpio.cpp ****   configured by software in several modes:
  20:Drivers/STM32L1xx_HAL_Driver/stm32l1xx_hal_gpio.cpp ****   (+) Input mode 
  21:Drivers/STM32L1xx_HAL_Driver/stm32l1xx_hal_gpio.cpp ****   (+) Analog mode
  22:Drivers/STM32L1xx_HAL_Driver/stm32l1xx_hal_gpio.cpp ****   (+) Output mode
  23:Drivers/STM32L1xx_HAL_Driver/stm32l1xx_hal_gpio.cpp ****   (+) Alternate function mode
  24:Drivers/STM32L1xx_HAL_Driver/stm32l1xx_hal_gpio.cpp ****   (+) External interrupt/event lines
  25:Drivers/STM32L1xx_HAL_Driver/stm32l1xx_hal_gpio.cpp ****  
  26:Drivers/STM32L1xx_HAL_Driver/stm32l1xx_hal_gpio.cpp ****   [..]  
  27:Drivers/STM32L1xx_HAL_Driver/stm32l1xx_hal_gpio.cpp ****   During and just after reset, the alternate functions and external interrupt  
  28:Drivers/STM32L1xx_HAL_Driver/stm32l1xx_hal_gpio.cpp ****   lines are not active and the I/O ports are configured in input floating mode.
  29:Drivers/STM32L1xx_HAL_Driver/stm32l1xx_hal_gpio.cpp ****   
  30:Drivers/STM32L1xx_HAL_Driver/stm32l1xx_hal_gpio.cpp ****   [..]   
  31:Drivers/STM32L1xx_HAL_Driver/stm32l1xx_hal_gpio.cpp ****   All GPIO pins have weak internal pull-up and pull-down resistors, which can be 
  32:Drivers/STM32L1xx_HAL_Driver/stm32l1xx_hal_gpio.cpp ****   activated or not.
  33:Drivers/STM32L1xx_HAL_Driver/stm32l1xx_hal_gpio.cpp **** 
  34:Drivers/STM32L1xx_HAL_Driver/stm32l1xx_hal_gpio.cpp ****   [..]
  35:Drivers/STM32L1xx_HAL_Driver/stm32l1xx_hal_gpio.cpp ****   In Output or Alternate mode, each IO can be configured on open-drain or push-pull
  36:Drivers/STM32L1xx_HAL_Driver/stm32l1xx_hal_gpio.cpp ****   type and the IO speed can be selected depending on the VDD value.
  37:Drivers/STM32L1xx_HAL_Driver/stm32l1xx_hal_gpio.cpp ****   
  38:Drivers/STM32L1xx_HAL_Driver/stm32l1xx_hal_gpio.cpp ****   [..]
  39:Drivers/STM32L1xx_HAL_Driver/stm32l1xx_hal_gpio.cpp ****   The microcontroller IO pins are connected to onboard peripherals/modules through a 
  40:Drivers/STM32L1xx_HAL_Driver/stm32l1xx_hal_gpio.cpp ****   multiplexer that allows only one peripheral’s alternate function (AF) connected 
  41:Drivers/STM32L1xx_HAL_Driver/stm32l1xx_hal_gpio.cpp ****   to an IO pin at a time. In this way, there can be no conflict between peripherals 
  42:Drivers/STM32L1xx_HAL_Driver/stm32l1xx_hal_gpio.cpp ****   sharing the same IO pin. 
  43:Drivers/STM32L1xx_HAL_Driver/stm32l1xx_hal_gpio.cpp **** 
  44:Drivers/STM32L1xx_HAL_Driver/stm32l1xx_hal_gpio.cpp ****   [..]  
  45:Drivers/STM32L1xx_HAL_Driver/stm32l1xx_hal_gpio.cpp ****   All ports have external interrupt/event capability. To use external interrupt 
  46:Drivers/STM32L1xx_HAL_Driver/stm32l1xx_hal_gpio.cpp ****   lines, the port must be configured in input mode. All available GPIO pins are 
  47:Drivers/STM32L1xx_HAL_Driver/stm32l1xx_hal_gpio.cpp ****   connected to the 16 external interrupt/event lines from EXTI0 to EXTI15.
  48:Drivers/STM32L1xx_HAL_Driver/stm32l1xx_hal_gpio.cpp ****   
  49:Drivers/STM32L1xx_HAL_Driver/stm32l1xx_hal_gpio.cpp ****   [..]  
  50:Drivers/STM32L1xx_HAL_Driver/stm32l1xx_hal_gpio.cpp ****   The external interrupt/event controller consists of up to 23 edge detectors 
  51:Drivers/STM32L1xx_HAL_Driver/stm32l1xx_hal_gpio.cpp ****   (16 lines are connected to GPIO) for generating event/interrupt requests (each 
ARM GAS  /tmp/cczCLpdy.s 			page 3


  52:Drivers/STM32L1xx_HAL_Driver/stm32l1xx_hal_gpio.cpp ****   input line can be independently configured to select the type (interrupt or event) 
  53:Drivers/STM32L1xx_HAL_Driver/stm32l1xx_hal_gpio.cpp ****   and the corresponding trigger event (rising or falling or both). Each line can 
  54:Drivers/STM32L1xx_HAL_Driver/stm32l1xx_hal_gpio.cpp ****   also be masked independently. 
  55:Drivers/STM32L1xx_HAL_Driver/stm32l1xx_hal_gpio.cpp ****  
  56:Drivers/STM32L1xx_HAL_Driver/stm32l1xx_hal_gpio.cpp ****                      ##### How to use this driver #####
  57:Drivers/STM32L1xx_HAL_Driver/stm32l1xx_hal_gpio.cpp ****   ==============================================================================  
  58:Drivers/STM32L1xx_HAL_Driver/stm32l1xx_hal_gpio.cpp ****  [..]             
  59:Drivers/STM32L1xx_HAL_Driver/stm32l1xx_hal_gpio.cpp ****    (#) Enable the GPIO AHB clock using the following function : __GPIOx_CLK_ENABLE(). 
  60:Drivers/STM32L1xx_HAL_Driver/stm32l1xx_hal_gpio.cpp ****    
  61:Drivers/STM32L1xx_HAL_Driver/stm32l1xx_hal_gpio.cpp ****    (#) Configure the GPIO pin(s) using HAL_GPIO_Init().
  62:Drivers/STM32L1xx_HAL_Driver/stm32l1xx_hal_gpio.cpp ****        (++) Configure the IO mode using "Mode" member from GPIO_InitTypeDef structure
  63:Drivers/STM32L1xx_HAL_Driver/stm32l1xx_hal_gpio.cpp ****        (++) Activate Pull-up, Pull-down resistor using "Pull" member from GPIO_InitTypeDef 
  64:Drivers/STM32L1xx_HAL_Driver/stm32l1xx_hal_gpio.cpp ****             structure.
  65:Drivers/STM32L1xx_HAL_Driver/stm32l1xx_hal_gpio.cpp ****        (++) In case of Output or alternate function mode selection: the speed is 
  66:Drivers/STM32L1xx_HAL_Driver/stm32l1xx_hal_gpio.cpp ****             configured through "Speed" member from GPIO_InitTypeDef structure
  67:Drivers/STM32L1xx_HAL_Driver/stm32l1xx_hal_gpio.cpp ****        (++) If alternate mode is selected, the alternate function connected to the IO
  68:Drivers/STM32L1xx_HAL_Driver/stm32l1xx_hal_gpio.cpp ****             is configured through "Alternate" member from GPIO_InitTypeDef structure
  69:Drivers/STM32L1xx_HAL_Driver/stm32l1xx_hal_gpio.cpp ****        (++) Analog mode is required when a pin is to be used as ADC channel 
  70:Drivers/STM32L1xx_HAL_Driver/stm32l1xx_hal_gpio.cpp ****             or DAC output.
  71:Drivers/STM32L1xx_HAL_Driver/stm32l1xx_hal_gpio.cpp ****        (++) In case of external interrupt/event selection the "Mode" member from 
  72:Drivers/STM32L1xx_HAL_Driver/stm32l1xx_hal_gpio.cpp ****             GPIO_InitTypeDef structure select the type (interrupt or event) and 
  73:Drivers/STM32L1xx_HAL_Driver/stm32l1xx_hal_gpio.cpp ****             the corresponding trigger event (rising or falling or both).
  74:Drivers/STM32L1xx_HAL_Driver/stm32l1xx_hal_gpio.cpp ****    
  75:Drivers/STM32L1xx_HAL_Driver/stm32l1xx_hal_gpio.cpp ****    (#) In case of external interrupt/event mode selection, configure NVIC IRQ priority 
  76:Drivers/STM32L1xx_HAL_Driver/stm32l1xx_hal_gpio.cpp ****        mapped to the EXTI line using HAL_NVIC_SetPriority() and enable it using
  77:Drivers/STM32L1xx_HAL_Driver/stm32l1xx_hal_gpio.cpp ****        HAL_NVIC_EnableIRQ().
  78:Drivers/STM32L1xx_HAL_Driver/stm32l1xx_hal_gpio.cpp ****          
  79:Drivers/STM32L1xx_HAL_Driver/stm32l1xx_hal_gpio.cpp ****    (#) To get the level of a pin configured in input mode use HAL_GPIO_ReadPin().
  80:Drivers/STM32L1xx_HAL_Driver/stm32l1xx_hal_gpio.cpp ****             
  81:Drivers/STM32L1xx_HAL_Driver/stm32l1xx_hal_gpio.cpp ****    (#) To set/reset the level of a pin configured in output mode use 
  82:Drivers/STM32L1xx_HAL_Driver/stm32l1xx_hal_gpio.cpp ****        HAL_GPIO_WritePin()/HAL_GPIO_TogglePin().
  83:Drivers/STM32L1xx_HAL_Driver/stm32l1xx_hal_gpio.cpp ****   
  84:Drivers/STM32L1xx_HAL_Driver/stm32l1xx_hal_gpio.cpp ****    (#) To lock pin configuration until next reset use HAL_GPIO_LockPin().
  85:Drivers/STM32L1xx_HAL_Driver/stm32l1xx_hal_gpio.cpp ****                  
  86:Drivers/STM32L1xx_HAL_Driver/stm32l1xx_hal_gpio.cpp ****    (#) During and just after reset, the alternate functions are not 
  87:Drivers/STM32L1xx_HAL_Driver/stm32l1xx_hal_gpio.cpp ****        active and the GPIO pins are configured in input floating mode (except JTAG
  88:Drivers/STM32L1xx_HAL_Driver/stm32l1xx_hal_gpio.cpp ****        pins).
  89:Drivers/STM32L1xx_HAL_Driver/stm32l1xx_hal_gpio.cpp ****   
  90:Drivers/STM32L1xx_HAL_Driver/stm32l1xx_hal_gpio.cpp ****    (#) The LSE oscillator pins OSC32_IN and OSC32_OUT can be used as general purpose 
  91:Drivers/STM32L1xx_HAL_Driver/stm32l1xx_hal_gpio.cpp ****        (PC14 and PC15, respectively) when the LSE oscillator is off. The LSE has 
  92:Drivers/STM32L1xx_HAL_Driver/stm32l1xx_hal_gpio.cpp ****        priority over the GPIO function.
  93:Drivers/STM32L1xx_HAL_Driver/stm32l1xx_hal_gpio.cpp ****   
  94:Drivers/STM32L1xx_HAL_Driver/stm32l1xx_hal_gpio.cpp ****    (#) The HSE oscillator pins OSC_IN/OSC_OUT can be used as 
  95:Drivers/STM32L1xx_HAL_Driver/stm32l1xx_hal_gpio.cpp ****        general purpose PH0 and PH1, respectively, when the HSE oscillator is off. 
  96:Drivers/STM32L1xx_HAL_Driver/stm32l1xx_hal_gpio.cpp ****        The HSE has priority over the GPIO function.
  97:Drivers/STM32L1xx_HAL_Driver/stm32l1xx_hal_gpio.cpp ****   
  98:Drivers/STM32L1xx_HAL_Driver/stm32l1xx_hal_gpio.cpp ****   @endverbatim
  99:Drivers/STM32L1xx_HAL_Driver/stm32l1xx_hal_gpio.cpp ****   ******************************************************************************
 100:Drivers/STM32L1xx_HAL_Driver/stm32l1xx_hal_gpio.cpp ****   * @attention
 101:Drivers/STM32L1xx_HAL_Driver/stm32l1xx_hal_gpio.cpp ****   *
 102:Drivers/STM32L1xx_HAL_Driver/stm32l1xx_hal_gpio.cpp ****   * <h2><center>&copy; COPYRIGHT(c) 2014 STMicroelectronics</center></h2>
 103:Drivers/STM32L1xx_HAL_Driver/stm32l1xx_hal_gpio.cpp ****   *
 104:Drivers/STM32L1xx_HAL_Driver/stm32l1xx_hal_gpio.cpp ****   * Redistribution and use in source and binary forms, with or without modification,
 105:Drivers/STM32L1xx_HAL_Driver/stm32l1xx_hal_gpio.cpp ****   * are permitted provided that the following conditions are met:
 106:Drivers/STM32L1xx_HAL_Driver/stm32l1xx_hal_gpio.cpp ****   *   1. Redistributions of source code must retain the above copyright notice,
 107:Drivers/STM32L1xx_HAL_Driver/stm32l1xx_hal_gpio.cpp ****   *      this list of conditions and the following disclaimer.
 108:Drivers/STM32L1xx_HAL_Driver/stm32l1xx_hal_gpio.cpp ****   *   2. Redistributions in binary form must reproduce the above copyright notice,
ARM GAS  /tmp/cczCLpdy.s 			page 4


 109:Drivers/STM32L1xx_HAL_Driver/stm32l1xx_hal_gpio.cpp ****   *      this list of conditions and the following disclaimer in the documentation
 110:Drivers/STM32L1xx_HAL_Driver/stm32l1xx_hal_gpio.cpp ****   *      and/or other materials provided with the distribution.
 111:Drivers/STM32L1xx_HAL_Driver/stm32l1xx_hal_gpio.cpp ****   *   3. Neither the name of STMicroelectronics nor the names of its contributors
 112:Drivers/STM32L1xx_HAL_Driver/stm32l1xx_hal_gpio.cpp ****   *      may be used to endorse or promote products derived from this software
 113:Drivers/STM32L1xx_HAL_Driver/stm32l1xx_hal_gpio.cpp ****   *      without specific prior written permission.
 114:Drivers/STM32L1xx_HAL_Driver/stm32l1xx_hal_gpio.cpp ****   *
 115:Drivers/STM32L1xx_HAL_Driver/stm32l1xx_hal_gpio.cpp ****   * THIS SOFTWARE IS PROVIDED BY THE COPYRIGHT HOLDERS AND CONTRIBUTORS "AS IS"
 116:Drivers/STM32L1xx_HAL_Driver/stm32l1xx_hal_gpio.cpp ****   * AND ANY EXPRESS OR IMPLIED WARRANTIES, INCLUDING, BUT NOT LIMITED TO, THE
 117:Drivers/STM32L1xx_HAL_Driver/stm32l1xx_hal_gpio.cpp ****   * IMPLIED WARRANTIES OF MERCHANTABILITY AND FITNESS FOR A PARTICULAR PURPOSE ARE
 118:Drivers/STM32L1xx_HAL_Driver/stm32l1xx_hal_gpio.cpp ****   * DISCLAIMED. IN NO EVENT SHALL THE COPYRIGHT HOLDER OR CONTRIBUTORS BE LIABLE
 119:Drivers/STM32L1xx_HAL_Driver/stm32l1xx_hal_gpio.cpp ****   * FOR ANY DIRECT, INDIRECT, INCIDENTAL, SPECIAL, EXEMPLARY, OR CONSEQUENTIAL
 120:Drivers/STM32L1xx_HAL_Driver/stm32l1xx_hal_gpio.cpp ****   * DAMAGES (INCLUDING, BUT NOT LIMITED TO, PROCUREMENT OF SUBSTITUTE GOODS OR
 121:Drivers/STM32L1xx_HAL_Driver/stm32l1xx_hal_gpio.cpp ****   * SERVICES; LOSS OF USE, DATA, OR PROFITS; OR BUSINESS INTERRUPTION) HOWEVER
 122:Drivers/STM32L1xx_HAL_Driver/stm32l1xx_hal_gpio.cpp ****   * CAUSED AND ON ANY THEORY OF LIABILITY, WHETHER IN CONTRACT, STRICT LIABILITY,
 123:Drivers/STM32L1xx_HAL_Driver/stm32l1xx_hal_gpio.cpp ****   * OR TORT (INCLUDING NEGLIGENCE OR OTHERWISE) ARISING IN ANY WAY OUT OF THE USE
 124:Drivers/STM32L1xx_HAL_Driver/stm32l1xx_hal_gpio.cpp ****   * OF THIS SOFTWARE, EVEN IF ADVISED OF THE POSSIBILITY OF SUCH DAMAGE.
 125:Drivers/STM32L1xx_HAL_Driver/stm32l1xx_hal_gpio.cpp ****   *
 126:Drivers/STM32L1xx_HAL_Driver/stm32l1xx_hal_gpio.cpp ****   ******************************************************************************  
 127:Drivers/STM32L1xx_HAL_Driver/stm32l1xx_hal_gpio.cpp ****   */ 
 128:Drivers/STM32L1xx_HAL_Driver/stm32l1xx_hal_gpio.cpp **** 
 129:Drivers/STM32L1xx_HAL_Driver/stm32l1xx_hal_gpio.cpp **** /* Includes ------------------------------------------------------------------*/
 130:Drivers/STM32L1xx_HAL_Driver/stm32l1xx_hal_gpio.cpp **** #include "stm32l1xx_hal.h"
 131:Drivers/STM32L1xx_HAL_Driver/stm32l1xx_hal_gpio.cpp **** 
 132:Drivers/STM32L1xx_HAL_Driver/stm32l1xx_hal_gpio.cpp **** /** @addtogroup STM32L1xx_HAL_Driver
 133:Drivers/STM32L1xx_HAL_Driver/stm32l1xx_hal_gpio.cpp ****   * @{
 134:Drivers/STM32L1xx_HAL_Driver/stm32l1xx_hal_gpio.cpp ****   */
 135:Drivers/STM32L1xx_HAL_Driver/stm32l1xx_hal_gpio.cpp **** 
 136:Drivers/STM32L1xx_HAL_Driver/stm32l1xx_hal_gpio.cpp **** /** @defgroup GPIO GPIO
 137:Drivers/STM32L1xx_HAL_Driver/stm32l1xx_hal_gpio.cpp ****   * @brief GPIO HAL module driver
 138:Drivers/STM32L1xx_HAL_Driver/stm32l1xx_hal_gpio.cpp ****   * @{
 139:Drivers/STM32L1xx_HAL_Driver/stm32l1xx_hal_gpio.cpp ****   */
 140:Drivers/STM32L1xx_HAL_Driver/stm32l1xx_hal_gpio.cpp **** 
 141:Drivers/STM32L1xx_HAL_Driver/stm32l1xx_hal_gpio.cpp **** #ifdef HAL_GPIO_MODULE_ENABLED
 142:Drivers/STM32L1xx_HAL_Driver/stm32l1xx_hal_gpio.cpp **** 
 143:Drivers/STM32L1xx_HAL_Driver/stm32l1xx_hal_gpio.cpp **** /* Private typedef -----------------------------------------------------------*/
 144:Drivers/STM32L1xx_HAL_Driver/stm32l1xx_hal_gpio.cpp **** /* Private define ------------------------------------------------------------*/
 145:Drivers/STM32L1xx_HAL_Driver/stm32l1xx_hal_gpio.cpp **** /** @defgroup GPIO_Private_Constants GPIO Private Constants
 146:Drivers/STM32L1xx_HAL_Driver/stm32l1xx_hal_gpio.cpp ****   * @{
 147:Drivers/STM32L1xx_HAL_Driver/stm32l1xx_hal_gpio.cpp ****   */
 148:Drivers/STM32L1xx_HAL_Driver/stm32l1xx_hal_gpio.cpp **** 
 149:Drivers/STM32L1xx_HAL_Driver/stm32l1xx_hal_gpio.cpp **** #define GPIO_MODE             ((uint32_t)0x00000003)
 150:Drivers/STM32L1xx_HAL_Driver/stm32l1xx_hal_gpio.cpp **** #define EXTI_MODE             ((uint32_t)0x10000000)
 151:Drivers/STM32L1xx_HAL_Driver/stm32l1xx_hal_gpio.cpp **** #define GPIO_MODE_IT          ((uint32_t)0x00010000)
 152:Drivers/STM32L1xx_HAL_Driver/stm32l1xx_hal_gpio.cpp **** #define GPIO_MODE_EVT         ((uint32_t)0x00020000)
 153:Drivers/STM32L1xx_HAL_Driver/stm32l1xx_hal_gpio.cpp **** #define RISING_EDGE           ((uint32_t)0x00100000) 
 154:Drivers/STM32L1xx_HAL_Driver/stm32l1xx_hal_gpio.cpp **** #define FALLING_EDGE          ((uint32_t)0x00200000) 
 155:Drivers/STM32L1xx_HAL_Driver/stm32l1xx_hal_gpio.cpp **** #define GPIO_OUTPUT_TYPE      ((uint32_t)0x00000010) 
 156:Drivers/STM32L1xx_HAL_Driver/stm32l1xx_hal_gpio.cpp **** #define GPIO_NUMBER           ((uint32_t)16)
 157:Drivers/STM32L1xx_HAL_Driver/stm32l1xx_hal_gpio.cpp **** 
 158:Drivers/STM32L1xx_HAL_Driver/stm32l1xx_hal_gpio.cpp **** /**
 159:Drivers/STM32L1xx_HAL_Driver/stm32l1xx_hal_gpio.cpp ****   * @}
 160:Drivers/STM32L1xx_HAL_Driver/stm32l1xx_hal_gpio.cpp ****   */
 161:Drivers/STM32L1xx_HAL_Driver/stm32l1xx_hal_gpio.cpp **** 
 162:Drivers/STM32L1xx_HAL_Driver/stm32l1xx_hal_gpio.cpp **** /* Private macro -------------------------------------------------------------*/
 163:Drivers/STM32L1xx_HAL_Driver/stm32l1xx_hal_gpio.cpp **** /* Private variables ---------------------------------------------------------*/
 164:Drivers/STM32L1xx_HAL_Driver/stm32l1xx_hal_gpio.cpp **** /* Private function prototypes -----------------------------------------------*/
 165:Drivers/STM32L1xx_HAL_Driver/stm32l1xx_hal_gpio.cpp **** /* Private functions ---------------------------------------------------------*/
ARM GAS  /tmp/cczCLpdy.s 			page 5


 166:Drivers/STM32L1xx_HAL_Driver/stm32l1xx_hal_gpio.cpp **** 
 167:Drivers/STM32L1xx_HAL_Driver/stm32l1xx_hal_gpio.cpp **** /** @defgroup GPIO_Exported_Functions GPIO Exported Functions
 168:Drivers/STM32L1xx_HAL_Driver/stm32l1xx_hal_gpio.cpp ****   * @{
 169:Drivers/STM32L1xx_HAL_Driver/stm32l1xx_hal_gpio.cpp ****   */
 170:Drivers/STM32L1xx_HAL_Driver/stm32l1xx_hal_gpio.cpp **** 
 171:Drivers/STM32L1xx_HAL_Driver/stm32l1xx_hal_gpio.cpp **** /** @defgroup GPIO_Exported_Functions_Group1 Initialization/de-initialization functions 
 172:Drivers/STM32L1xx_HAL_Driver/stm32l1xx_hal_gpio.cpp ****  *  @brief    Initialization and Configuration functions 
 173:Drivers/STM32L1xx_HAL_Driver/stm32l1xx_hal_gpio.cpp ****  *
 174:Drivers/STM32L1xx_HAL_Driver/stm32l1xx_hal_gpio.cpp **** @verbatim    
 175:Drivers/STM32L1xx_HAL_Driver/stm32l1xx_hal_gpio.cpp ****  ===============================================================================
 176:Drivers/STM32L1xx_HAL_Driver/stm32l1xx_hal_gpio.cpp ****               ##### Initialization and de-initialization functions #####
 177:Drivers/STM32L1xx_HAL_Driver/stm32l1xx_hal_gpio.cpp ****  ===============================================================================
 178:Drivers/STM32L1xx_HAL_Driver/stm32l1xx_hal_gpio.cpp ****  
 179:Drivers/STM32L1xx_HAL_Driver/stm32l1xx_hal_gpio.cpp **** @endverbatim
 180:Drivers/STM32L1xx_HAL_Driver/stm32l1xx_hal_gpio.cpp ****   * @{
 181:Drivers/STM32L1xx_HAL_Driver/stm32l1xx_hal_gpio.cpp ****   */
 182:Drivers/STM32L1xx_HAL_Driver/stm32l1xx_hal_gpio.cpp **** 
 183:Drivers/STM32L1xx_HAL_Driver/stm32l1xx_hal_gpio.cpp **** /**
 184:Drivers/STM32L1xx_HAL_Driver/stm32l1xx_hal_gpio.cpp ****   * @brief  Initializes the GPIOx peripheral according to the specified parameters in the GPIO_Init
 185:Drivers/STM32L1xx_HAL_Driver/stm32l1xx_hal_gpio.cpp ****   * @param  GPIOx: where x can be (A..G depending on device used) to select the GPIO peripheral for
 186:Drivers/STM32L1xx_HAL_Driver/stm32l1xx_hal_gpio.cpp ****   * @param  GPIO_Init: pointer to a GPIO_InitTypeDef structure that contains
 187:Drivers/STM32L1xx_HAL_Driver/stm32l1xx_hal_gpio.cpp ****   *         the configuration information for the specified GPIO peripheral.
 188:Drivers/STM32L1xx_HAL_Driver/stm32l1xx_hal_gpio.cpp ****   * @retval None
 189:Drivers/STM32L1xx_HAL_Driver/stm32l1xx_hal_gpio.cpp ****   */
 190:Drivers/STM32L1xx_HAL_Driver/stm32l1xx_hal_gpio.cpp **** void HAL_GPIO_Init(GPIO_TypeDef  *GPIOx, GPIO_InitTypeDef *GPIO_Init)
 191:Drivers/STM32L1xx_HAL_Driver/stm32l1xx_hal_gpio.cpp **** {
  64              		.loc 1 191 0
  65              		.cfi_startproc
  66              		@ args = 0, pretend = 0, frame = 24
  67              		@ frame_needed = 1, uses_anonymous_args = 0
  68              		@ link register save eliminated.
  69 0000 80B4     		push	{r7}	@
  70              	.LCFI0:
  71              		.cfi_def_cfa_offset 4
  72              		.cfi_offset 7, -4
  73 0002 87B0     		sub	sp, sp, #28	@,,
  74              	.LCFI1:
  75              		.cfi_def_cfa_offset 32
  76 0004 00AF     		add	r7, sp, #0	@,,
  77              	.LCFI2:
  78              		.cfi_def_cfa_register 7
  79 0006 7860     		str	r0, [r7, #4]	@ GPIOx, GPIOx
  80 0008 3960     		str	r1, [r7, #0]	@ GPIO_Init, GPIO_Init
  81              	.LBB2:
 192:Drivers/STM32L1xx_HAL_Driver/stm32l1xx_hal_gpio.cpp ****   uint32_t position;
 193:Drivers/STM32L1xx_HAL_Driver/stm32l1xx_hal_gpio.cpp ****   uint32_t ioposition = 0x00;
  82              		.loc 1 193 0
  83 000a 4FF00003 		mov	r3, #0	@ tmp233,
  84 000e FB60     		str	r3, [r7, #12]	@ tmp233, ioposition
 194:Drivers/STM32L1xx_HAL_Driver/stm32l1xx_hal_gpio.cpp ****   uint32_t iocurrent = 0x00;
  85              		.loc 1 194 0
  86 0010 4FF00003 		mov	r3, #0	@ tmp234,
  87 0014 BB60     		str	r3, [r7, #8]	@ tmp234, iocurrent
 195:Drivers/STM32L1xx_HAL_Driver/stm32l1xx_hal_gpio.cpp ****   uint32_t temp = 0x00;
  88              		.loc 1 195 0
  89 0016 4FF00003 		mov	r3, #0	@ tmp235,
  90 001a 3B61     		str	r3, [r7, #16]	@ tmp235, temp
ARM GAS  /tmp/cczCLpdy.s 			page 6


 196:Drivers/STM32L1xx_HAL_Driver/stm32l1xx_hal_gpio.cpp ****   
 197:Drivers/STM32L1xx_HAL_Driver/stm32l1xx_hal_gpio.cpp ****   /* Check the parameters */
 198:Drivers/STM32L1xx_HAL_Driver/stm32l1xx_hal_gpio.cpp ****   assert_param(IS_GPIO_ALL_INSTANCE(GPIOx));
 199:Drivers/STM32L1xx_HAL_Driver/stm32l1xx_hal_gpio.cpp ****   assert_param(IS_GPIO_PIN(GPIO_Init->Pin));
 200:Drivers/STM32L1xx_HAL_Driver/stm32l1xx_hal_gpio.cpp ****   assert_param(IS_GPIO_MODE(GPIO_Init->Mode));
 201:Drivers/STM32L1xx_HAL_Driver/stm32l1xx_hal_gpio.cpp ****   assert_param(IS_GPIO_PULL(GPIO_Init->Pull)); 
 202:Drivers/STM32L1xx_HAL_Driver/stm32l1xx_hal_gpio.cpp **** 
 203:Drivers/STM32L1xx_HAL_Driver/stm32l1xx_hal_gpio.cpp ****   /* Configure the port pins */
 204:Drivers/STM32L1xx_HAL_Driver/stm32l1xx_hal_gpio.cpp ****   for (position = 0; position < GPIO_NUMBER; position++)
  91              		.loc 1 204 0
  92 001c 4FF00003 		mov	r3, #0	@ tmp236,
  93 0020 7B61     		str	r3, [r7, #20]	@ tmp236, position
  94 0022 BAE1     		b	.L2	@
  95              	.L24:
 205:Drivers/STM32L1xx_HAL_Driver/stm32l1xx_hal_gpio.cpp ****   {
 206:Drivers/STM32L1xx_HAL_Driver/stm32l1xx_hal_gpio.cpp ****     /* Get the IO position */
 207:Drivers/STM32L1xx_HAL_Driver/stm32l1xx_hal_gpio.cpp ****     ioposition = ((uint32_t)0x01) << position;
  96              		.loc 1 207 0
  97 0024 7B69     		ldr	r3, [r7, #20]	@ position.10, position
  98 0026 4FF00102 		mov	r2, #1	@ tmp238,
  99 002a 02FA03F3 		lsl	r3, r2, r3	@ tmp237, tmp238, position.10
 100 002e FB60     		str	r3, [r7, #12]	@ tmp237, ioposition
 208:Drivers/STM32L1xx_HAL_Driver/stm32l1xx_hal_gpio.cpp ****     /* Get the current IO position */
 209:Drivers/STM32L1xx_HAL_Driver/stm32l1xx_hal_gpio.cpp ****     iocurrent = (uint32_t)(GPIO_Init->Pin) & ioposition;
 101              		.loc 1 209 0
 102 0030 3B68     		ldr	r3, [r7, #0]	@ tmp239, GPIO_Init
 103 0032 1A68     		ldr	r2, [r3, #0]	@ D.5995, GPIO_Init_19(D)->Pin
 104 0034 FB68     		ldr	r3, [r7, #12]	@ tmp241, ioposition
 105 0036 1340     		ands	r3, r3, r2	@, tmp240, tmp241, D.5995
 106 0038 BB60     		str	r3, [r7, #8]	@ tmp240, iocurrent
 210:Drivers/STM32L1xx_HAL_Driver/stm32l1xx_hal_gpio.cpp **** 
 211:Drivers/STM32L1xx_HAL_Driver/stm32l1xx_hal_gpio.cpp ****     if (iocurrent == ioposition)
 107              		.loc 1 211 0
 108 003a BA68     		ldr	r2, [r7, #8]	@ tmp242, iocurrent
 109 003c FB68     		ldr	r3, [r7, #12]	@ tmp243, ioposition
 110 003e 9A42     		cmp	r2, r3	@ tmp242, tmp243
 111 0040 40F0A781 		bne	.L3	@,
 212:Drivers/STM32L1xx_HAL_Driver/stm32l1xx_hal_gpio.cpp ****     {
 213:Drivers/STM32L1xx_HAL_Driver/stm32l1xx_hal_gpio.cpp ****       /*--------------------- GPIO Mode Configuration ------------------------*/
 214:Drivers/STM32L1xx_HAL_Driver/stm32l1xx_hal_gpio.cpp ****       /* In case of Alternate function mode selection */
 215:Drivers/STM32L1xx_HAL_Driver/stm32l1xx_hal_gpio.cpp ****       if((GPIO_Init->Mode == GPIO_MODE_AF_PP) || (GPIO_Init->Mode == GPIO_MODE_AF_OD)) 
 112              		.loc 1 215 0
 113 0044 3B68     		ldr	r3, [r7, #0]	@ tmp244, GPIO_Init
 114 0046 5B68     		ldr	r3, [r3, #4]	@ D.6000, GPIO_Init_19(D)->Mode
 115 0048 022B     		cmp	r3, #2	@ D.6000,
 116 004a 03D0     		beq	.L4	@,
 117              		.loc 1 215 0 is_stmt 0 discriminator 1
 118 004c 3B68     		ldr	r3, [r7, #0]	@ tmp245, GPIO_Init
 119 004e 5B68     		ldr	r3, [r3, #4]	@ D.6002, GPIO_Init_19(D)->Mode
 120 0050 122B     		cmp	r3, #18	@ D.6002,
 121 0052 2BD1     		bne	.L5	@,
 122              	.L4:
 216:Drivers/STM32L1xx_HAL_Driver/stm32l1xx_hal_gpio.cpp ****       {
 217:Drivers/STM32L1xx_HAL_Driver/stm32l1xx_hal_gpio.cpp ****         /* Check the Alternate function parameter */
 218:Drivers/STM32L1xx_HAL_Driver/stm32l1xx_hal_gpio.cpp ****         assert_param(IS_GPIO_AF(GPIO_Init->Alternate));
 219:Drivers/STM32L1xx_HAL_Driver/stm32l1xx_hal_gpio.cpp ****         /* Configure Alternate function mapped with the current IO */ 
 220:Drivers/STM32L1xx_HAL_Driver/stm32l1xx_hal_gpio.cpp ****         /* Identify AFRL or AFRH register based on IO position*/
ARM GAS  /tmp/cczCLpdy.s 			page 7


 221:Drivers/STM32L1xx_HAL_Driver/stm32l1xx_hal_gpio.cpp ****         temp = GPIOx->AFR[position >> 3];
 123              		.loc 1 221 0 is_stmt 1
 124 0054 7B69     		ldr	r3, [r7, #20]	@ tmp246, position
 125 0056 4FEAD302 		lsr	r2, r3, #3	@ D.6003, tmp246,
 126 005a 7B68     		ldr	r3, [r7, #4]	@ tmp247, GPIOx
 127 005c 02F10802 		add	r2, r2, #8	@ tmp248, D.6003,
 128 0060 53F82230 		ldr	r3, [r3, r2, lsl #2]	@ tmp249, GPIOx_25(D)->AFR
 129 0064 3B61     		str	r3, [r7, #16]	@ tmp249, temp
 222:Drivers/STM32L1xx_HAL_Driver/stm32l1xx_hal_gpio.cpp ****         CLEAR_BIT(temp, (uint32_t)0xF << ((uint32_t)(position & (uint32_t)0x07) * 4)) ;      
 130              		.loc 1 222 0
 131 0066 7B69     		ldr	r3, [r7, #20]	@ tmp250, position
 132 0068 03F00703 		and	r3, r3, #7	@ D.6004, tmp250,
 133 006c 4FEA8303 		lsl	r3, r3, #2	@ D.6005, D.6004,
 134 0070 4FF00F02 		mov	r2, #15	@ tmp251,
 135 0074 02FA03F3 		lsl	r3, r2, r3	@ D.6007, tmp251, D.6006
 136 0078 6FEA0303 		mvn	r3, r3	@ D.6008, D.6007
 137 007c 3A69     		ldr	r2, [r7, #16]	@ tmp253, temp
 138 007e 1340     		ands	r3, r3, r2	@, tmp252, D.6008, tmp253
 139 0080 3B61     		str	r3, [r7, #16]	@ tmp252, temp
 223:Drivers/STM32L1xx_HAL_Driver/stm32l1xx_hal_gpio.cpp ****         SET_BIT(temp, (uint32_t)(GPIO_Init->Alternate) << (((uint32_t)position & (uint32_t)0x07) * 
 140              		.loc 1 223 0
 141 0082 3B68     		ldr	r3, [r7, #0]	@ tmp254, GPIO_Init
 142 0084 1A69     		ldr	r2, [r3, #16]	@ D.6009, GPIO_Init_19(D)->Alternate
 143 0086 7B69     		ldr	r3, [r7, #20]	@ tmp255, position
 144 0088 03F00703 		and	r3, r3, #7	@ D.6010, tmp255,
 145 008c 4FEA8303 		lsl	r3, r3, #2	@ D.6011, D.6010,
 146 0090 02FA03F3 		lsl	r3, r2, r3	@ D.6013, D.6009, D.6012
 147 0094 3A69     		ldr	r2, [r7, #16]	@ tmp257, temp
 148 0096 1343     		orrs	r3, r3, r2	@, tmp256, D.6013, tmp257
 149 0098 3B61     		str	r3, [r7, #16]	@ tmp256, temp
 224:Drivers/STM32L1xx_HAL_Driver/stm32l1xx_hal_gpio.cpp ****         GPIOx->AFR[position >> 3] = temp;
 150              		.loc 1 224 0
 151 009a 7B69     		ldr	r3, [r7, #20]	@ tmp258, position
 152 009c 4FEAD302 		lsr	r2, r3, #3	@ D.6014, tmp258,
 153 00a0 7B68     		ldr	r3, [r7, #4]	@ tmp259, GPIOx
 154 00a2 02F10802 		add	r2, r2, #8	@ tmp260, D.6014,
 155 00a6 3969     		ldr	r1, [r7, #16]	@ tmp261, temp
 156 00a8 43F82210 		str	r1, [r3, r2, lsl #2]	@ tmp261, GPIOx_25(D)->AFR
 157              	.L5:
 225:Drivers/STM32L1xx_HAL_Driver/stm32l1xx_hal_gpio.cpp ****       } 
 226:Drivers/STM32L1xx_HAL_Driver/stm32l1xx_hal_gpio.cpp **** 
 227:Drivers/STM32L1xx_HAL_Driver/stm32l1xx_hal_gpio.cpp ****       /* Configure IO Direction mode (Input, Output, Alternate or Analog) */
 228:Drivers/STM32L1xx_HAL_Driver/stm32l1xx_hal_gpio.cpp ****       temp = GPIOx->MODER;
 158              		.loc 1 228 0
 159 00ac 7B68     		ldr	r3, [r7, #4]	@ tmp262, GPIOx
 160 00ae 1B68     		ldr	r3, [r3, #0]	@ tmp263, GPIOx_25(D)->MODER
 161 00b0 3B61     		str	r3, [r7, #16]	@ tmp263, temp
 229:Drivers/STM32L1xx_HAL_Driver/stm32l1xx_hal_gpio.cpp ****       CLEAR_BIT(temp, GPIO_MODER_MODER0 << (position * 2));   
 162              		.loc 1 229 0
 163 00b2 7B69     		ldr	r3, [r7, #20]	@ tmp264, position
 164 00b4 4FEA4303 		lsl	r3, r3, #1	@ D.6015, tmp264,
 165 00b8 4FF00302 		mov	r2, #3	@ tmp265,
 166 00bc 02FA03F3 		lsl	r3, r2, r3	@ D.6017, tmp265, D.6016
 167 00c0 6FEA0303 		mvn	r3, r3	@ D.6018, D.6017
 168 00c4 3A69     		ldr	r2, [r7, #16]	@ tmp267, temp
 169 00c6 1340     		ands	r3, r3, r2	@, tmp266, D.6018, tmp267
 170 00c8 3B61     		str	r3, [r7, #16]	@ tmp266, temp
ARM GAS  /tmp/cczCLpdy.s 			page 8


 230:Drivers/STM32L1xx_HAL_Driver/stm32l1xx_hal_gpio.cpp ****       SET_BIT(temp, (GPIO_Init->Mode & GPIO_MODE) << (position * 2));
 171              		.loc 1 230 0
 172 00ca 3B68     		ldr	r3, [r7, #0]	@ tmp268, GPIO_Init
 173 00cc 5B68     		ldr	r3, [r3, #4]	@ D.6019, GPIO_Init_19(D)->Mode
 174 00ce 03F00302 		and	r2, r3, #3	@ D.6020, D.6019,
 175 00d2 7B69     		ldr	r3, [r7, #20]	@ tmp269, position
 176 00d4 4FEA4303 		lsl	r3, r3, #1	@ D.6021, tmp269,
 177 00d8 02FA03F3 		lsl	r3, r2, r3	@ D.6023, D.6020, D.6022
 178 00dc 3A69     		ldr	r2, [r7, #16]	@ tmp271, temp
 179 00de 1343     		orrs	r3, r3, r2	@, tmp270, D.6023, tmp271
 180 00e0 3B61     		str	r3, [r7, #16]	@ tmp270, temp
 231:Drivers/STM32L1xx_HAL_Driver/stm32l1xx_hal_gpio.cpp ****       GPIOx->MODER = temp;
 181              		.loc 1 231 0
 182 00e2 7B68     		ldr	r3, [r7, #4]	@ tmp272, GPIOx
 183 00e4 3A69     		ldr	r2, [r7, #16]	@ tmp273, temp
 184 00e6 1A60     		str	r2, [r3, #0]	@ tmp273, GPIOx_25(D)->MODER
 232:Drivers/STM32L1xx_HAL_Driver/stm32l1xx_hal_gpio.cpp **** 
 233:Drivers/STM32L1xx_HAL_Driver/stm32l1xx_hal_gpio.cpp ****       /* In case of Output or Alternate function mode selection */
 234:Drivers/STM32L1xx_HAL_Driver/stm32l1xx_hal_gpio.cpp ****       if ((GPIO_Init->Mode == GPIO_MODE_OUTPUT_PP) || (GPIO_Init->Mode == GPIO_MODE_AF_PP) ||
 185              		.loc 1 234 0
 186 00e8 3B68     		ldr	r3, [r7, #0]	@ tmp274, GPIO_Init
 187 00ea 5B68     		ldr	r3, [r3, #4]	@ D.6026, GPIO_Init_19(D)->Mode
 188 00ec 012B     		cmp	r3, #1	@ D.6026,
 189 00ee 0BD0     		beq	.L6	@,
 190              		.loc 1 234 0 is_stmt 0 discriminator 1
 191 00f0 3B68     		ldr	r3, [r7, #0]	@ tmp275, GPIO_Init
 192 00f2 5B68     		ldr	r3, [r3, #4]	@ D.6028, GPIO_Init_19(D)->Mode
 193 00f4 022B     		cmp	r3, #2	@ D.6028,
 194 00f6 07D0     		beq	.L6	@,
 195              		.loc 1 234 0 discriminator 2
 196 00f8 3B68     		ldr	r3, [r7, #0]	@ tmp276, GPIO_Init
 197 00fa 5B68     		ldr	r3, [r3, #4]	@ D.6030, GPIO_Init_19(D)->Mode
 198 00fc 112B     		cmp	r3, #17	@ D.6030,
 199 00fe 03D0     		beq	.L6	@,
 200              		.loc 1 234 0 discriminator 3
 201 0100 3B68     		ldr	r3, [r7, #0]	@ tmp277, GPIO_Init
 202 0102 5B68     		ldr	r3, [r3, #4]	@ D.6032, GPIO_Init_19(D)->Mode
 203 0104 122B     		cmp	r3, #18	@ D.6032,
 204 0106 37D1     		bne	.L7	@,
 205              	.L6:
 235:Drivers/STM32L1xx_HAL_Driver/stm32l1xx_hal_gpio.cpp ****           (GPIO_Init->Mode == GPIO_MODE_OUTPUT_OD) || (GPIO_Init->Mode == GPIO_MODE_AF_OD))
 236:Drivers/STM32L1xx_HAL_Driver/stm32l1xx_hal_gpio.cpp ****       {
 237:Drivers/STM32L1xx_HAL_Driver/stm32l1xx_hal_gpio.cpp ****         /* Check the Speed parameter */
 238:Drivers/STM32L1xx_HAL_Driver/stm32l1xx_hal_gpio.cpp ****         assert_param(IS_GPIO_SPEED(GPIO_Init->Speed));
 239:Drivers/STM32L1xx_HAL_Driver/stm32l1xx_hal_gpio.cpp ****         /* Configure the IO Speed */
 240:Drivers/STM32L1xx_HAL_Driver/stm32l1xx_hal_gpio.cpp ****         temp = GPIOx->OSPEEDR; 
 206              		.loc 1 240 0 is_stmt 1
 207 0108 7B68     		ldr	r3, [r7, #4]	@ tmp278, GPIOx
 208 010a 9B68     		ldr	r3, [r3, #8]	@ tmp279, GPIOx_25(D)->OSPEEDR
 209 010c 3B61     		str	r3, [r7, #16]	@ tmp279, temp
 241:Drivers/STM32L1xx_HAL_Driver/stm32l1xx_hal_gpio.cpp ****         CLEAR_BIT(temp, GPIO_OSPEEDER_OSPEEDR0 << (position * 2));
 210              		.loc 1 241 0
 211 010e 7B69     		ldr	r3, [r7, #20]	@ tmp280, position
 212 0110 4FEA4303 		lsl	r3, r3, #1	@ D.6033, tmp280,
 213 0114 4FF00302 		mov	r2, #3	@ tmp281,
 214 0118 02FA03F3 		lsl	r3, r2, r3	@ D.6035, tmp281, D.6034
 215 011c 6FEA0303 		mvn	r3, r3	@ D.6036, D.6035
ARM GAS  /tmp/cczCLpdy.s 			page 9


 216 0120 3A69     		ldr	r2, [r7, #16]	@ tmp283, temp
 217 0122 1340     		ands	r3, r3, r2	@, tmp282, D.6036, tmp283
 218 0124 3B61     		str	r3, [r7, #16]	@ tmp282, temp
 242:Drivers/STM32L1xx_HAL_Driver/stm32l1xx_hal_gpio.cpp ****         SET_BIT(temp, GPIO_Init->Speed << (position * 2));
 219              		.loc 1 242 0
 220 0126 3B68     		ldr	r3, [r7, #0]	@ tmp284, GPIO_Init
 221 0128 DA68     		ldr	r2, [r3, #12]	@ D.6037, GPIO_Init_19(D)->Speed
 222 012a 7B69     		ldr	r3, [r7, #20]	@ tmp285, position
 223 012c 4FEA4303 		lsl	r3, r3, #1	@ D.6038, tmp285,
 224 0130 02FA03F3 		lsl	r3, r2, r3	@ D.6040, D.6037, D.6039
 225 0134 3A69     		ldr	r2, [r7, #16]	@ tmp287, temp
 226 0136 1343     		orrs	r3, r3, r2	@, tmp286, D.6040, tmp287
 227 0138 3B61     		str	r3, [r7, #16]	@ tmp286, temp
 243:Drivers/STM32L1xx_HAL_Driver/stm32l1xx_hal_gpio.cpp ****         GPIOx->OSPEEDR = temp;
 228              		.loc 1 243 0
 229 013a 7B68     		ldr	r3, [r7, #4]	@ tmp288, GPIOx
 230 013c 3A69     		ldr	r2, [r7, #16]	@ tmp289, temp
 231 013e 9A60     		str	r2, [r3, #8]	@ tmp289, GPIOx_25(D)->OSPEEDR
 244:Drivers/STM32L1xx_HAL_Driver/stm32l1xx_hal_gpio.cpp **** 
 245:Drivers/STM32L1xx_HAL_Driver/stm32l1xx_hal_gpio.cpp ****         /* Configure the IO Output Type */
 246:Drivers/STM32L1xx_HAL_Driver/stm32l1xx_hal_gpio.cpp ****         temp = GPIOx->OTYPER;
 232              		.loc 1 246 0
 233 0140 7B68     		ldr	r3, [r7, #4]	@ tmp290, GPIOx
 234 0142 5B68     		ldr	r3, [r3, #4]	@ tmp291, GPIOx_25(D)->OTYPER
 235 0144 3B61     		str	r3, [r7, #16]	@ tmp291, temp
 247:Drivers/STM32L1xx_HAL_Driver/stm32l1xx_hal_gpio.cpp ****         CLEAR_BIT(temp, GPIO_OTYPER_OT_0 << position) ;
 236              		.loc 1 247 0
 237 0146 7B69     		ldr	r3, [r7, #20]	@ position.11, position
 238 0148 4FF00102 		mov	r2, #1	@ tmp292,
 239 014c 02FA03F3 		lsl	r3, r2, r3	@ D.6042, tmp292, position.11
 240 0150 6FEA0303 		mvn	r3, r3	@ D.6043, D.6042
 241 0154 3A69     		ldr	r2, [r7, #16]	@ tmp294, temp
 242 0156 1340     		ands	r3, r3, r2	@, tmp293, D.6043, tmp294
 243 0158 3B61     		str	r3, [r7, #16]	@ tmp293, temp
 248:Drivers/STM32L1xx_HAL_Driver/stm32l1xx_hal_gpio.cpp ****         SET_BIT(temp, ((GPIO_Init->Mode & GPIO_OUTPUT_TYPE) >> 4) << position);
 244              		.loc 1 248 0
 245 015a 3B68     		ldr	r3, [r7, #0]	@ tmp295, GPIO_Init
 246 015c 5B68     		ldr	r3, [r3, #4]	@ D.6044, GPIO_Init_19(D)->Mode
 247 015e 03F01003 		and	r3, r3, #16	@ D.6045, D.6044,
 248 0162 4FEA1312 		lsr	r2, r3, #4	@ D.6046, D.6045,
 249 0166 7B69     		ldr	r3, [r7, #20]	@ position.12, position
 250 0168 02FA03F3 		lsl	r3, r2, r3	@ D.6048, D.6046, position.12
 251 016c 3A69     		ldr	r2, [r7, #16]	@ tmp297, temp
 252 016e 1343     		orrs	r3, r3, r2	@, tmp296, D.6048, tmp297
 253 0170 3B61     		str	r3, [r7, #16]	@ tmp296, temp
 249:Drivers/STM32L1xx_HAL_Driver/stm32l1xx_hal_gpio.cpp ****         GPIOx->OTYPER = temp;
 254              		.loc 1 249 0
 255 0172 7B68     		ldr	r3, [r7, #4]	@ tmp298, GPIOx
 256 0174 3A69     		ldr	r2, [r7, #16]	@ tmp299, temp
 257 0176 5A60     		str	r2, [r3, #4]	@ tmp299, GPIOx_25(D)->OTYPER
 258              	.L7:
 250:Drivers/STM32L1xx_HAL_Driver/stm32l1xx_hal_gpio.cpp ****       }
 251:Drivers/STM32L1xx_HAL_Driver/stm32l1xx_hal_gpio.cpp **** 
 252:Drivers/STM32L1xx_HAL_Driver/stm32l1xx_hal_gpio.cpp ****       /* Activate the Pull-up or Pull down resistor for the current IO */
 253:Drivers/STM32L1xx_HAL_Driver/stm32l1xx_hal_gpio.cpp ****       temp = GPIOx->PUPDR;
 259              		.loc 1 253 0
 260 0178 7B68     		ldr	r3, [r7, #4]	@ tmp300, GPIOx
ARM GAS  /tmp/cczCLpdy.s 			page 10


 261 017a DB68     		ldr	r3, [r3, #12]	@ tmp301, GPIOx_25(D)->PUPDR
 262 017c 3B61     		str	r3, [r7, #16]	@ tmp301, temp
 254:Drivers/STM32L1xx_HAL_Driver/stm32l1xx_hal_gpio.cpp ****       CLEAR_BIT(temp, GPIO_PUPDR_PUPDR0 << (position * 2));
 263              		.loc 1 254 0
 264 017e 7B69     		ldr	r3, [r7, #20]	@ tmp302, position
 265 0180 4FEA4303 		lsl	r3, r3, #1	@ D.6049, tmp302,
 266 0184 4FF00302 		mov	r2, #3	@ tmp303,
 267 0188 02FA03F3 		lsl	r3, r2, r3	@ D.6051, tmp303, D.6050
 268 018c 6FEA0303 		mvn	r3, r3	@ D.6052, D.6051
 269 0190 3A69     		ldr	r2, [r7, #16]	@ tmp305, temp
 270 0192 1340     		ands	r3, r3, r2	@, tmp304, D.6052, tmp305
 271 0194 3B61     		str	r3, [r7, #16]	@ tmp304, temp
 255:Drivers/STM32L1xx_HAL_Driver/stm32l1xx_hal_gpio.cpp ****       SET_BIT(temp, (GPIO_Init->Pull) << (position * 2));
 272              		.loc 1 255 0
 273 0196 3B68     		ldr	r3, [r7, #0]	@ tmp306, GPIO_Init
 274 0198 9A68     		ldr	r2, [r3, #8]	@ D.6053, GPIO_Init_19(D)->Pull
 275 019a 7B69     		ldr	r3, [r7, #20]	@ tmp307, position
 276 019c 4FEA4303 		lsl	r3, r3, #1	@ D.6054, tmp307,
 277 01a0 02FA03F3 		lsl	r3, r2, r3	@ D.6056, D.6053, D.6055
 278 01a4 3A69     		ldr	r2, [r7, #16]	@ tmp309, temp
 279 01a6 1343     		orrs	r3, r3, r2	@, tmp308, D.6056, tmp309
 280 01a8 3B61     		str	r3, [r7, #16]	@ tmp308, temp
 256:Drivers/STM32L1xx_HAL_Driver/stm32l1xx_hal_gpio.cpp ****       GPIOx->PUPDR = temp;
 281              		.loc 1 256 0
 282 01aa 7B68     		ldr	r3, [r7, #4]	@ tmp310, GPIOx
 283 01ac 3A69     		ldr	r2, [r7, #16]	@ tmp311, temp
 284 01ae DA60     		str	r2, [r3, #12]	@ tmp311, GPIOx_25(D)->PUPDR
 257:Drivers/STM32L1xx_HAL_Driver/stm32l1xx_hal_gpio.cpp ****       
 258:Drivers/STM32L1xx_HAL_Driver/stm32l1xx_hal_gpio.cpp ****       /*--------------------- EXTI Mode Configuration ------------------------*/
 259:Drivers/STM32L1xx_HAL_Driver/stm32l1xx_hal_gpio.cpp ****       /* Configure the External Interrupt or event for the current IO */
 260:Drivers/STM32L1xx_HAL_Driver/stm32l1xx_hal_gpio.cpp ****       if((GPIO_Init->Mode & EXTI_MODE) == EXTI_MODE) 
 285              		.loc 1 260 0
 286 01b0 3B68     		ldr	r3, [r7, #0]	@ tmp312, GPIO_Init
 287 01b2 5B68     		ldr	r3, [r3, #4]	@ D.6057, GPIO_Init_19(D)->Mode
 288 01b4 03F08053 		and	r3, r3, #268435456	@ D.6058, D.6057,
 289 01b8 002B     		cmp	r3, #0	@ D.6058,
 290 01ba 00F0EA80 		beq	.L3	@,
 261:Drivers/STM32L1xx_HAL_Driver/stm32l1xx_hal_gpio.cpp ****       {
 262:Drivers/STM32L1xx_HAL_Driver/stm32l1xx_hal_gpio.cpp ****         /* Enable SYSCFG Clock */
 263:Drivers/STM32L1xx_HAL_Driver/stm32l1xx_hal_gpio.cpp ****         __SYSCFG_CLK_ENABLE();
 291              		.loc 1 263 0
 292 01be 4FF46053 		mov	r3, #14336	@ D.6061,
 293 01c2 C4F20203 		movt	r3, 16386	@ D.6061,
 294 01c6 4FF46052 		mov	r2, #14336	@ D.6062,
 295 01ca C4F20202 		movt	r2, 16386	@ D.6062,
 296 01ce 126A     		ldr	r2, [r2, #32]	@ D.6063, D.6062_92->APB2ENR
 297 01d0 42F00102 		orr	r2, r2, #1	@ D.6064, D.6063,
 298 01d4 1A62     		str	r2, [r3, #32]	@ D.6064, D.6061_91->APB2ENR
 264:Drivers/STM32L1xx_HAL_Driver/stm32l1xx_hal_gpio.cpp ****         
 265:Drivers/STM32L1xx_HAL_Driver/stm32l1xx_hal_gpio.cpp ****         temp = SYSCFG->EXTICR[position >> 2];
 299              		.loc 1 265 0
 300 01d6 4FF00003 		mov	r3, #0	@ D.6065,
 301 01da C4F20103 		movt	r3, 16385	@ D.6065,
 302 01de 7A69     		ldr	r2, [r7, #20]	@ tmp313, position
 303 01e0 4FEA9202 		lsr	r2, r2, #2	@ D.6066, tmp313,
 304 01e4 02F10202 		add	r2, r2, #2	@ tmp314, D.6066,
 305 01e8 53F82230 		ldr	r3, [r3, r2, lsl #2]	@ tmp315, D.6065_95->EXTICR
ARM GAS  /tmp/cczCLpdy.s 			page 11


 306 01ec 3B61     		str	r3, [r7, #16]	@ tmp315, temp
 266:Drivers/STM32L1xx_HAL_Driver/stm32l1xx_hal_gpio.cpp ****         CLEAR_BIT(temp, ((uint32_t)0x0F) << (4 * (position & 0x03)));
 307              		.loc 1 266 0
 308 01ee 7B69     		ldr	r3, [r7, #20]	@ tmp316, position
 309 01f0 03F00303 		and	r3, r3, #3	@ D.6067, tmp316,
 310 01f4 4FEA8303 		lsl	r3, r3, #2	@ D.6068, D.6067,
 311 01f8 4FF00F02 		mov	r2, #15	@ tmp317,
 312 01fc 02FA03F3 		lsl	r3, r2, r3	@ D.6070, tmp317, D.6069
 313 0200 6FEA0303 		mvn	r3, r3	@ D.6071, D.6070
 314 0204 3A69     		ldr	r2, [r7, #16]	@ tmp319, temp
 315 0206 1340     		ands	r3, r3, r2	@, tmp318, D.6071, tmp319
 316 0208 3B61     		str	r3, [r7, #16]	@ tmp318, temp
 267:Drivers/STM32L1xx_HAL_Driver/stm32l1xx_hal_gpio.cpp ****         SET_BIT(temp, (GET_GPIO_INDEX(GPIOx)) << (4 * (position & 0x03)));
 317              		.loc 1 267 0
 318 020a 7A68     		ldr	r2, [r7, #4]	@ tmp320, GPIOx
 319 020c 4FF00003 		mov	r3, #0	@ tmp321,
 320 0210 C4F20203 		movt	r3, 16386	@ tmp321,
 321 0214 9A42     		cmp	r2, r3	@ tmp320, tmp321
 322 0216 34D0     		beq	.L8	@,
 323              		.loc 1 267 0 is_stmt 0 discriminator 1
 324 0218 7A68     		ldr	r2, [r7, #4]	@ tmp322, GPIOx
 325 021a 4FF48063 		mov	r3, #1024	@ tmp323,
 326 021e C4F20203 		movt	r3, 16386	@ tmp323,
 327 0222 9A42     		cmp	r2, r3	@ tmp322, tmp323
 328 0224 2AD0     		beq	.L9	@,
 329              		.loc 1 267 0 discriminator 3
 330 0226 7A68     		ldr	r2, [r7, #4]	@ tmp324, GPIOx
 331 0228 4FF40063 		mov	r3, #2048	@ tmp325,
 332 022c C4F20203 		movt	r3, 16386	@ tmp325,
 333 0230 9A42     		cmp	r2, r3	@ tmp324, tmp325
 334 0232 20D0     		beq	.L10	@,
 335              		.loc 1 267 0 discriminator 5
 336 0234 7A68     		ldr	r2, [r7, #4]	@ tmp326, GPIOx
 337 0236 4FF44063 		mov	r3, #3072	@ tmp327,
 338 023a C4F20203 		movt	r3, 16386	@ tmp327,
 339 023e 9A42     		cmp	r2, r3	@ tmp326, tmp327
 340 0240 16D0     		beq	.L11	@,
 341              		.loc 1 267 0 discriminator 7
 342 0242 7A68     		ldr	r2, [r7, #4]	@ tmp328, GPIOx
 343 0244 4FF48053 		mov	r3, #4096	@ tmp329,
 344 0248 C4F20203 		movt	r3, 16386	@ tmp329,
 345 024c 9A42     		cmp	r2, r3	@ tmp328, tmp329
 346 024e 0CD0     		beq	.L12	@,
 347              		.loc 1 267 0 discriminator 9
 348 0250 7A68     		ldr	r2, [r7, #4]	@ tmp330, GPIOx
 349 0252 4FF4A053 		mov	r3, #5120	@ tmp331,
 350 0256 C4F20203 		movt	r3, 16386	@ tmp331,
 351 025a 9A42     		cmp	r2, r3	@ tmp330, tmp331
 352 025c 02D1     		bne	.L13	@,
 353              		.loc 1 267 0 discriminator 11
 354 025e 4FF00703 		mov	r3, #7	@ iftmp.18,
 355 0262 01E0     		b	.L14	@
 356              	.L13:
 357              		.loc 1 267 0 discriminator 12
 358 0264 4FF00803 		mov	r3, #8	@ iftmp.18,
 359              	.L14:
 360 0268 01E0     		b	.L15	@
ARM GAS  /tmp/cczCLpdy.s 			page 12


 361              	.L12:
 362              		.loc 1 267 0 discriminator 10
 363 026a 4FF00403 		mov	r3, #4	@ iftmp.17,
 364              	.L15:
 365 026e 01E0     		b	.L16	@
 366              	.L11:
 367              		.loc 1 267 0 discriminator 8
 368 0270 4FF00303 		mov	r3, #3	@ iftmp.16,
 369              	.L16:
 370 0274 01E0     		b	.L17	@
 371              	.L10:
 372              		.loc 1 267 0 discriminator 6
 373 0276 4FF00203 		mov	r3, #2	@ iftmp.15,
 374              	.L17:
 375 027a 01E0     		b	.L18	@
 376              	.L9:
 377              		.loc 1 267 0 discriminator 4
 378 027c 4FF00103 		mov	r3, #1	@ iftmp.14,
 379              	.L18:
 380 0280 01E0     		b	.L19	@
 381              	.L8:
 382              		.loc 1 267 0 discriminator 2
 383 0282 4FF00003 		mov	r3, #0	@ iftmp.13,
 384              	.L19:
 385              		.loc 1 267 0 discriminator 18
 386 0286 7A69     		ldr	r2, [r7, #20]	@ tmp332, position
 387 0288 02F00302 		and	r2, r2, #3	@ D.6096, tmp332,
 388 028c 4FEA8202 		lsl	r2, r2, #2	@ D.6097, D.6096,
 389 0290 03FA02F3 		lsl	r3, r3, r2	@ D.6099, iftmp.13, D.6098
 390 0294 3A69     		ldr	r2, [r7, #16]	@ tmp334, temp
 391 0296 1343     		orrs	r3, r3, r2	@, tmp333, D.6099, tmp334
 392 0298 3B61     		str	r3, [r7, #16]	@ tmp333, temp
 268:Drivers/STM32L1xx_HAL_Driver/stm32l1xx_hal_gpio.cpp ****         SYSCFG->EXTICR[position >> 2] = temp;
 393              		.loc 1 268 0 is_stmt 1 discriminator 18
 394 029a 4FF00003 		mov	r3, #0	@ D.6100,
 395 029e C4F20103 		movt	r3, 16385	@ D.6100,
 396 02a2 7A69     		ldr	r2, [r7, #20]	@ tmp335, position
 397 02a4 4FEA9202 		lsr	r2, r2, #2	@ D.6101, tmp335,
 398 02a8 02F10202 		add	r2, r2, #2	@ tmp336, D.6101,
 399 02ac 3969     		ldr	r1, [r7, #16]	@ tmp337, temp
 400 02ae 43F82210 		str	r1, [r3, r2, lsl #2]	@ tmp337, D.6100_121->EXTICR
 269:Drivers/STM32L1xx_HAL_Driver/stm32l1xx_hal_gpio.cpp ****         
 270:Drivers/STM32L1xx_HAL_Driver/stm32l1xx_hal_gpio.cpp ****         /* Clear EXTI line configuration */
 271:Drivers/STM32L1xx_HAL_Driver/stm32l1xx_hal_gpio.cpp ****         temp = EXTI->IMR;
 401              		.loc 1 271 0 discriminator 18
 402 02b2 4FF48063 		mov	r3, #1024	@ D.6102,
 403 02b6 C4F20103 		movt	r3, 16385	@ D.6102,
 404 02ba 1B68     		ldr	r3, [r3, #0]	@ tmp338, D.6102_123->IMR
 405 02bc 3B61     		str	r3, [r7, #16]	@ tmp338, temp
 272:Drivers/STM32L1xx_HAL_Driver/stm32l1xx_hal_gpio.cpp ****         CLEAR_BIT(temp, (uint32_t)iocurrent);
 406              		.loc 1 272 0 discriminator 18
 407 02be BB68     		ldr	r3, [r7, #8]	@ tmp339, iocurrent
 408 02c0 6FEA0303 		mvn	r3, r3	@ D.6103, tmp339
 409 02c4 3A69     		ldr	r2, [r7, #16]	@ tmp341, temp
 410 02c6 1340     		ands	r3, r3, r2	@, tmp340, D.6103, tmp341
 411 02c8 3B61     		str	r3, [r7, #16]	@ tmp340, temp
 273:Drivers/STM32L1xx_HAL_Driver/stm32l1xx_hal_gpio.cpp ****         if((GPIO_Init->Mode & GPIO_MODE_IT) == GPIO_MODE_IT)
ARM GAS  /tmp/cczCLpdy.s 			page 13


 412              		.loc 1 273 0 discriminator 18
 413 02ca 3B68     		ldr	r3, [r7, #0]	@ tmp342, GPIO_Init
 414 02cc 5B68     		ldr	r3, [r3, #4]	@ D.6104, GPIO_Init_19(D)->Mode
 415 02ce 03F48033 		and	r3, r3, #65536	@ D.6105, D.6104,
 416 02d2 002B     		cmp	r3, #0	@ D.6105,
 417 02d4 03D0     		beq	.L20	@,
 274:Drivers/STM32L1xx_HAL_Driver/stm32l1xx_hal_gpio.cpp ****         {
 275:Drivers/STM32L1xx_HAL_Driver/stm32l1xx_hal_gpio.cpp ****           SET_BIT(temp, iocurrent); 
 418              		.loc 1 275 0
 419 02d6 3A69     		ldr	r2, [r7, #16]	@ tmp344, temp
 420 02d8 BB68     		ldr	r3, [r7, #8]	@ tmp345, iocurrent
 421 02da 1343     		orrs	r3, r3, r2	@, tmp343, tmp345, tmp344
 422 02dc 3B61     		str	r3, [r7, #16]	@ tmp343, temp
 423              	.L20:
 276:Drivers/STM32L1xx_HAL_Driver/stm32l1xx_hal_gpio.cpp ****         }
 277:Drivers/STM32L1xx_HAL_Driver/stm32l1xx_hal_gpio.cpp ****         EXTI->IMR = temp;
 424              		.loc 1 277 0
 425 02de 4FF48063 		mov	r3, #1024	@ D.6109,
 426 02e2 C4F20103 		movt	r3, 16385	@ D.6109,
 427 02e6 3A69     		ldr	r2, [r7, #16]	@ tmp346, temp
 428 02e8 1A60     		str	r2, [r3, #0]	@ tmp346, D.6109_130->IMR
 278:Drivers/STM32L1xx_HAL_Driver/stm32l1xx_hal_gpio.cpp **** 
 279:Drivers/STM32L1xx_HAL_Driver/stm32l1xx_hal_gpio.cpp ****         temp = EXTI->EMR;
 429              		.loc 1 279 0
 430 02ea 4FF48063 		mov	r3, #1024	@ D.6110,
 431 02ee C4F20103 		movt	r3, 16385	@ D.6110,
 432 02f2 5B68     		ldr	r3, [r3, #4]	@ tmp347, D.6110_131->EMR
 433 02f4 3B61     		str	r3, [r7, #16]	@ tmp347, temp
 280:Drivers/STM32L1xx_HAL_Driver/stm32l1xx_hal_gpio.cpp ****         CLEAR_BIT(temp, (uint32_t)iocurrent);      
 434              		.loc 1 280 0
 435 02f6 BB68     		ldr	r3, [r7, #8]	@ tmp348, iocurrent
 436 02f8 6FEA0303 		mvn	r3, r3	@ D.6111, tmp348
 437 02fc 3A69     		ldr	r2, [r7, #16]	@ tmp350, temp
 438 02fe 1340     		ands	r3, r3, r2	@, tmp349, D.6111, tmp350
 439 0300 3B61     		str	r3, [r7, #16]	@ tmp349, temp
 281:Drivers/STM32L1xx_HAL_Driver/stm32l1xx_hal_gpio.cpp ****         if((GPIO_Init->Mode & GPIO_MODE_EVT) == GPIO_MODE_EVT)
 440              		.loc 1 281 0
 441 0302 3B68     		ldr	r3, [r7, #0]	@ tmp351, GPIO_Init
 442 0304 5B68     		ldr	r3, [r3, #4]	@ D.6112, GPIO_Init_19(D)->Mode
 443 0306 03F40033 		and	r3, r3, #131072	@ D.6113, D.6112,
 444 030a 002B     		cmp	r3, #0	@ D.6113,
 445 030c 03D0     		beq	.L21	@,
 282:Drivers/STM32L1xx_HAL_Driver/stm32l1xx_hal_gpio.cpp ****         {
 283:Drivers/STM32L1xx_HAL_Driver/stm32l1xx_hal_gpio.cpp ****           SET_BIT(temp, iocurrent); 
 446              		.loc 1 283 0
 447 030e 3A69     		ldr	r2, [r7, #16]	@ tmp353, temp
 448 0310 BB68     		ldr	r3, [r7, #8]	@ tmp354, iocurrent
 449 0312 1343     		orrs	r3, r3, r2	@, tmp352, tmp354, tmp353
 450 0314 3B61     		str	r3, [r7, #16]	@ tmp352, temp
 451              	.L21:
 284:Drivers/STM32L1xx_HAL_Driver/stm32l1xx_hal_gpio.cpp ****         }
 285:Drivers/STM32L1xx_HAL_Driver/stm32l1xx_hal_gpio.cpp ****         EXTI->EMR = temp;
 452              		.loc 1 285 0
 453 0316 4FF48063 		mov	r3, #1024	@ D.6117,
 454 031a C4F20103 		movt	r3, 16385	@ D.6117,
 455 031e 3A69     		ldr	r2, [r7, #16]	@ tmp355, temp
 456 0320 5A60     		str	r2, [r3, #4]	@ tmp355, D.6117_138->EMR
ARM GAS  /tmp/cczCLpdy.s 			page 14


 286:Drivers/STM32L1xx_HAL_Driver/stm32l1xx_hal_gpio.cpp ****         
 287:Drivers/STM32L1xx_HAL_Driver/stm32l1xx_hal_gpio.cpp ****         /* Clear Rising Falling edge configuration */
 288:Drivers/STM32L1xx_HAL_Driver/stm32l1xx_hal_gpio.cpp ****         temp = EXTI->RTSR;
 457              		.loc 1 288 0
 458 0322 4FF48063 		mov	r3, #1024	@ D.6118,
 459 0326 C4F20103 		movt	r3, 16385	@ D.6118,
 460 032a 9B68     		ldr	r3, [r3, #8]	@ tmp356, D.6118_139->RTSR
 461 032c 3B61     		str	r3, [r7, #16]	@ tmp356, temp
 289:Drivers/STM32L1xx_HAL_Driver/stm32l1xx_hal_gpio.cpp ****         CLEAR_BIT(temp, (uint32_t)iocurrent); 
 462              		.loc 1 289 0
 463 032e BB68     		ldr	r3, [r7, #8]	@ tmp357, iocurrent
 464 0330 6FEA0303 		mvn	r3, r3	@ D.6119, tmp357
 465 0334 3A69     		ldr	r2, [r7, #16]	@ tmp359, temp
 466 0336 1340     		ands	r3, r3, r2	@, tmp358, D.6119, tmp359
 467 0338 3B61     		str	r3, [r7, #16]	@ tmp358, temp
 290:Drivers/STM32L1xx_HAL_Driver/stm32l1xx_hal_gpio.cpp ****         if((GPIO_Init->Mode & RISING_EDGE) == RISING_EDGE)
 468              		.loc 1 290 0
 469 033a 3B68     		ldr	r3, [r7, #0]	@ tmp360, GPIO_Init
 470 033c 5B68     		ldr	r3, [r3, #4]	@ D.6120, GPIO_Init_19(D)->Mode
 471 033e 03F48013 		and	r3, r3, #1048576	@ D.6121, D.6120,
 472 0342 002B     		cmp	r3, #0	@ D.6121,
 473 0344 03D0     		beq	.L22	@,
 291:Drivers/STM32L1xx_HAL_Driver/stm32l1xx_hal_gpio.cpp ****         {
 292:Drivers/STM32L1xx_HAL_Driver/stm32l1xx_hal_gpio.cpp ****           SET_BIT(temp, iocurrent); 
 474              		.loc 1 292 0
 475 0346 3A69     		ldr	r2, [r7, #16]	@ tmp362, temp
 476 0348 BB68     		ldr	r3, [r7, #8]	@ tmp363, iocurrent
 477 034a 1343     		orrs	r3, r3, r2	@, tmp361, tmp363, tmp362
 478 034c 3B61     		str	r3, [r7, #16]	@ tmp361, temp
 479              	.L22:
 293:Drivers/STM32L1xx_HAL_Driver/stm32l1xx_hal_gpio.cpp ****         }
 294:Drivers/STM32L1xx_HAL_Driver/stm32l1xx_hal_gpio.cpp ****         EXTI->RTSR = temp;
 480              		.loc 1 294 0
 481 034e 4FF48063 		mov	r3, #1024	@ D.6125,
 482 0352 C4F20103 		movt	r3, 16385	@ D.6125,
 483 0356 3A69     		ldr	r2, [r7, #16]	@ tmp364, temp
 484 0358 9A60     		str	r2, [r3, #8]	@ tmp364, D.6125_146->RTSR
 295:Drivers/STM32L1xx_HAL_Driver/stm32l1xx_hal_gpio.cpp **** 
 296:Drivers/STM32L1xx_HAL_Driver/stm32l1xx_hal_gpio.cpp ****         temp = EXTI->FTSR;
 485              		.loc 1 296 0
 486 035a 4FF48063 		mov	r3, #1024	@ D.6126,
 487 035e C4F20103 		movt	r3, 16385	@ D.6126,
 488 0362 DB68     		ldr	r3, [r3, #12]	@ tmp365, D.6126_147->FTSR
 489 0364 3B61     		str	r3, [r7, #16]	@ tmp365, temp
 297:Drivers/STM32L1xx_HAL_Driver/stm32l1xx_hal_gpio.cpp ****         CLEAR_BIT(temp, (uint32_t)iocurrent); 
 490              		.loc 1 297 0
 491 0366 BB68     		ldr	r3, [r7, #8]	@ tmp366, iocurrent
 492 0368 6FEA0303 		mvn	r3, r3	@ D.6127, tmp366
 493 036c 3A69     		ldr	r2, [r7, #16]	@ tmp368, temp
 494 036e 1340     		ands	r3, r3, r2	@, tmp367, D.6127, tmp368
 495 0370 3B61     		str	r3, [r7, #16]	@ tmp367, temp
 298:Drivers/STM32L1xx_HAL_Driver/stm32l1xx_hal_gpio.cpp ****         if((GPIO_Init->Mode & FALLING_EDGE) == FALLING_EDGE)
 496              		.loc 1 298 0
 497 0372 3B68     		ldr	r3, [r7, #0]	@ tmp369, GPIO_Init
 498 0374 5B68     		ldr	r3, [r3, #4]	@ D.6128, GPIO_Init_19(D)->Mode
 499 0376 03F40013 		and	r3, r3, #2097152	@ D.6129, D.6128,
 500 037a 002B     		cmp	r3, #0	@ D.6129,
ARM GAS  /tmp/cczCLpdy.s 			page 15


 501 037c 03D0     		beq	.L23	@,
 299:Drivers/STM32L1xx_HAL_Driver/stm32l1xx_hal_gpio.cpp ****         {
 300:Drivers/STM32L1xx_HAL_Driver/stm32l1xx_hal_gpio.cpp ****           SET_BIT(temp, iocurrent); 
 502              		.loc 1 300 0
 503 037e 3A69     		ldr	r2, [r7, #16]	@ tmp371, temp
 504 0380 BB68     		ldr	r3, [r7, #8]	@ tmp372, iocurrent
 505 0382 1343     		orrs	r3, r3, r2	@, tmp370, tmp372, tmp371
 506 0384 3B61     		str	r3, [r7, #16]	@ tmp370, temp
 507              	.L23:
 301:Drivers/STM32L1xx_HAL_Driver/stm32l1xx_hal_gpio.cpp ****         }
 302:Drivers/STM32L1xx_HAL_Driver/stm32l1xx_hal_gpio.cpp ****         EXTI->FTSR = temp;
 508              		.loc 1 302 0
 509 0386 4FF48063 		mov	r3, #1024	@ D.6133,
 510 038a C4F20103 		movt	r3, 16385	@ D.6133,
 511 038e 3A69     		ldr	r2, [r7, #16]	@ tmp373, temp
 512 0390 DA60     		str	r2, [r3, #12]	@ tmp373, D.6133_154->FTSR
 513              	.L3:
 204:Drivers/STM32L1xx_HAL_Driver/stm32l1xx_hal_gpio.cpp ****   for (position = 0; position < GPIO_NUMBER; position++)
 514              		.loc 1 204 0
 515 0392 7B69     		ldr	r3, [r7, #20]	@ tmp375, position
 516 0394 03F10103 		add	r3, r3, #1	@ tmp374, tmp375,
 517 0398 7B61     		str	r3, [r7, #20]	@ tmp374, position
 518              	.L2:
 204:Drivers/STM32L1xx_HAL_Driver/stm32l1xx_hal_gpio.cpp ****   for (position = 0; position < GPIO_NUMBER; position++)
 519              		.loc 1 204 0 is_stmt 0 discriminator 1
 520 039a 7B69     		ldr	r3, [r7, #20]	@ tmp377, position
 521 039c 0F2B     		cmp	r3, #15	@ tmp377,
 522 039e 8CBF     		ite	hi	@
 523 03a0 0023     		movhi	r3, #0	@, tmp378
 524 03a2 0123     		movls	r3, #1	@, tmp378
 525 03a4 DBB2     		uxtb	r3, r3	@ D.5992, tmp376
 526 03a6 002B     		cmp	r3, #0	@ D.5992,
 527 03a8 7FF43CAE 		bne	.L24	@,
 528              	.LBE2:
 303:Drivers/STM32L1xx_HAL_Driver/stm32l1xx_hal_gpio.cpp ****       }    
 304:Drivers/STM32L1xx_HAL_Driver/stm32l1xx_hal_gpio.cpp ****     }
 305:Drivers/STM32L1xx_HAL_Driver/stm32l1xx_hal_gpio.cpp ****   }
 306:Drivers/STM32L1xx_HAL_Driver/stm32l1xx_hal_gpio.cpp **** }
 529              		.loc 1 306 0 is_stmt 1
 530 03ac 07F11C07 		add	r7, r7, #28	@,,
 531 03b0 BD46     		mov	sp, r7
 532 03b2 80BC     		pop	{r7}
 533 03b4 7047     		bx	lr
 534              		.cfi_endproc
 535              	.LFE56:
 536              		.size	HAL_GPIO_Init, .-HAL_GPIO_Init
 537 03b6 00BF     		.section	.text.HAL_GPIO_DeInit,"ax",%progbits
 538              		.align	2
 539              		.global	HAL_GPIO_DeInit
 540              		.thumb
 541              		.thumb_func
 542              		.type	HAL_GPIO_DeInit, %function
 543              	HAL_GPIO_DeInit:
 544              	.LFB57:
 307:Drivers/STM32L1xx_HAL_Driver/stm32l1xx_hal_gpio.cpp **** 
 308:Drivers/STM32L1xx_HAL_Driver/stm32l1xx_hal_gpio.cpp **** /**
 309:Drivers/STM32L1xx_HAL_Driver/stm32l1xx_hal_gpio.cpp ****   * @brief  De-initializes the GPIOx peripheral registers to their default reset values.
ARM GAS  /tmp/cczCLpdy.s 			page 16


 310:Drivers/STM32L1xx_HAL_Driver/stm32l1xx_hal_gpio.cpp ****   * @param  GPIOx: where x can be (A..G depending on device used) to select the GPIO peripheral for
 311:Drivers/STM32L1xx_HAL_Driver/stm32l1xx_hal_gpio.cpp ****   * @param  GPIO_Pin: specifies the port bit to be written.
 312:Drivers/STM32L1xx_HAL_Driver/stm32l1xx_hal_gpio.cpp ****   *         This parameter can be one of GPIO_PIN_x where x can be (0..15).
 313:Drivers/STM32L1xx_HAL_Driver/stm32l1xx_hal_gpio.cpp ****   * @retval None
 314:Drivers/STM32L1xx_HAL_Driver/stm32l1xx_hal_gpio.cpp ****   */
 315:Drivers/STM32L1xx_HAL_Driver/stm32l1xx_hal_gpio.cpp **** void HAL_GPIO_DeInit(GPIO_TypeDef  *GPIOx, uint32_t GPIO_Pin)
 316:Drivers/STM32L1xx_HAL_Driver/stm32l1xx_hal_gpio.cpp **** { 
 545              		.loc 1 316 0
 546              		.cfi_startproc
 547              		@ args = 0, pretend = 0, frame = 24
 548              		@ frame_needed = 1, uses_anonymous_args = 0
 549              		@ link register save eliminated.
 550 0000 80B4     		push	{r7}	@
 551              	.LCFI3:
 552              		.cfi_def_cfa_offset 4
 553              		.cfi_offset 7, -4
 554 0002 87B0     		sub	sp, sp, #28	@,,
 555              	.LCFI4:
 556              		.cfi_def_cfa_offset 32
 557 0004 00AF     		add	r7, sp, #0	@,,
 558              	.LCFI5:
 559              		.cfi_def_cfa_register 7
 560 0006 7860     		str	r0, [r7, #4]	@ GPIOx, GPIOx
 561 0008 3960     		str	r1, [r7, #0]	@ GPIO_Pin, GPIO_Pin
 562              	.LBB3:
 317:Drivers/STM32L1xx_HAL_Driver/stm32l1xx_hal_gpio.cpp ****   uint32_t position;
 318:Drivers/STM32L1xx_HAL_Driver/stm32l1xx_hal_gpio.cpp ****   uint32_t ioposition = 0x00;
 563              		.loc 1 318 0
 564 000a 4FF00003 		mov	r3, #0	@ tmp198,
 565 000e 3B61     		str	r3, [r7, #16]	@ tmp198, ioposition
 319:Drivers/STM32L1xx_HAL_Driver/stm32l1xx_hal_gpio.cpp ****   uint32_t iocurrent = 0x00;
 566              		.loc 1 319 0
 567 0010 4FF00003 		mov	r3, #0	@ tmp199,
 568 0014 FB60     		str	r3, [r7, #12]	@ tmp199, iocurrent
 320:Drivers/STM32L1xx_HAL_Driver/stm32l1xx_hal_gpio.cpp ****   uint32_t tmp = 0x00;
 569              		.loc 1 320 0
 570 0016 4FF00003 		mov	r3, #0	@ tmp200,
 571 001a BB60     		str	r3, [r7, #8]	@ tmp200, tmp
 321:Drivers/STM32L1xx_HAL_Driver/stm32l1xx_hal_gpio.cpp ****  
 322:Drivers/STM32L1xx_HAL_Driver/stm32l1xx_hal_gpio.cpp ****   /* Check the parameters */
 323:Drivers/STM32L1xx_HAL_Driver/stm32l1xx_hal_gpio.cpp ****   assert_param(IS_GPIO_ALL_INSTANCE(GPIOx));
 324:Drivers/STM32L1xx_HAL_Driver/stm32l1xx_hal_gpio.cpp **** 
 325:Drivers/STM32L1xx_HAL_Driver/stm32l1xx_hal_gpio.cpp ****   /* Configure the port pins */
 326:Drivers/STM32L1xx_HAL_Driver/stm32l1xx_hal_gpio.cpp ****   for (position = 0; position < GPIO_NUMBER; position++)
 572              		.loc 1 326 0
 573 001c 4FF00003 		mov	r3, #0	@ tmp201,
 574 0020 7B61     		str	r3, [r7, #20]	@ tmp201, position
 575 0022 C0E0     		b	.L26	@
 576              	.L28:
 327:Drivers/STM32L1xx_HAL_Driver/stm32l1xx_hal_gpio.cpp ****   {
 328:Drivers/STM32L1xx_HAL_Driver/stm32l1xx_hal_gpio.cpp ****     /* Get the IO position */
 329:Drivers/STM32L1xx_HAL_Driver/stm32l1xx_hal_gpio.cpp ****     ioposition = ((uint32_t)0x01) << position;
 577              		.loc 1 329 0
 578 0024 7B69     		ldr	r3, [r7, #20]	@ position.8, position
 579 0026 4FF00102 		mov	r2, #1	@ tmp203,
 580 002a 02FA03F3 		lsl	r3, r2, r3	@ tmp202, tmp203, position.8
 581 002e 3B61     		str	r3, [r7, #16]	@ tmp202, ioposition
ARM GAS  /tmp/cczCLpdy.s 			page 17


 330:Drivers/STM32L1xx_HAL_Driver/stm32l1xx_hal_gpio.cpp ****     /* Get the current IO position */
 331:Drivers/STM32L1xx_HAL_Driver/stm32l1xx_hal_gpio.cpp ****     iocurrent = (GPIO_Pin) & ioposition;
 582              		.loc 1 331 0
 583 0030 3A68     		ldr	r2, [r7, #0]	@ tmp205, GPIO_Pin
 584 0032 3B69     		ldr	r3, [r7, #16]	@ tmp206, ioposition
 585 0034 1340     		ands	r3, r3, r2	@, tmp204, tmp206, tmp205
 586 0036 FB60     		str	r3, [r7, #12]	@ tmp204, iocurrent
 332:Drivers/STM32L1xx_HAL_Driver/stm32l1xx_hal_gpio.cpp **** 
 333:Drivers/STM32L1xx_HAL_Driver/stm32l1xx_hal_gpio.cpp ****     if (iocurrent == ioposition)
 587              		.loc 1 333 0
 588 0038 FA68     		ldr	r2, [r7, #12]	@ tmp207, iocurrent
 589 003a 3B69     		ldr	r3, [r7, #16]	@ tmp208, ioposition
 590 003c 9A42     		cmp	r2, r3	@ tmp207, tmp208
 591 003e 40F0AE80 		bne	.L27	@,
 334:Drivers/STM32L1xx_HAL_Driver/stm32l1xx_hal_gpio.cpp ****     {
 335:Drivers/STM32L1xx_HAL_Driver/stm32l1xx_hal_gpio.cpp ****       /*------------------------- GPIO Mode Configuration --------------------*/
 336:Drivers/STM32L1xx_HAL_Driver/stm32l1xx_hal_gpio.cpp ****       /* Configure IO Direction in Input Floting Mode */
 337:Drivers/STM32L1xx_HAL_Driver/stm32l1xx_hal_gpio.cpp ****       CLEAR_BIT(GPIOx->MODER, GPIO_MODER_MODER0 << (position * 2)); 
 592              		.loc 1 337 0
 593 0042 7B68     		ldr	r3, [r7, #4]	@ tmp209, GPIOx
 594 0044 1A68     		ldr	r2, [r3, #0]	@ D.5926, GPIOx_11(D)->MODER
 595 0046 7B69     		ldr	r3, [r7, #20]	@ tmp210, position
 596 0048 4FEA4303 		lsl	r3, r3, #1	@ D.5927, tmp210,
 597 004c 4FF00301 		mov	r1, #3	@ tmp211,
 598 0050 01FA03F3 		lsl	r3, r1, r3	@ D.5929, tmp211, D.5928
 599 0054 6FEA0303 		mvn	r3, r3	@ D.5930, D.5929
 600 0058 1A40     		ands	r2, r2, r3	@, D.5931, D.5926, D.5930
 601 005a 7B68     		ldr	r3, [r7, #4]	@ tmp212, GPIOx
 602 005c 1A60     		str	r2, [r3, #0]	@ D.5931, GPIOx_11(D)->MODER
 338:Drivers/STM32L1xx_HAL_Driver/stm32l1xx_hal_gpio.cpp ****     
 339:Drivers/STM32L1xx_HAL_Driver/stm32l1xx_hal_gpio.cpp ****       /* Configure the default Alternate Function in current IO */ 
 340:Drivers/STM32L1xx_HAL_Driver/stm32l1xx_hal_gpio.cpp ****       CLEAR_BIT(GPIOx->AFR[position >> 3], (uint32_t)0xF << ((uint32_t)(position & (uint32_t)0x07) 
 603              		.loc 1 340 0
 604 005e 7B69     		ldr	r3, [r7, #20]	@ tmp213, position
 605 0060 4FEAD302 		lsr	r2, r3, #3	@ D.5932, tmp213,
 606 0064 7B69     		ldr	r3, [r7, #20]	@ tmp214, position
 607 0066 4FEAD301 		lsr	r1, r3, #3	@ D.5933, tmp214,
 608 006a 7B68     		ldr	r3, [r7, #4]	@ tmp215, GPIOx
 609 006c 01F10801 		add	r1, r1, #8	@ tmp216, D.5933,
 610 0070 53F82110 		ldr	r1, [r3, r1, lsl #2]	@ D.5934, GPIOx_11(D)->AFR
 611 0074 7B69     		ldr	r3, [r7, #20]	@ tmp217, position
 612 0076 03F00703 		and	r3, r3, #7	@ D.5935, tmp217,
 613 007a 4FEA8303 		lsl	r3, r3, #2	@ D.5936, D.5935,
 614 007e 4FF00F00 		mov	r0, #15	@ tmp218,
 615 0082 00FA03F3 		lsl	r3, r0, r3	@ D.5938, tmp218, D.5937
 616 0086 6FEA0303 		mvn	r3, r3	@ D.5939, D.5938
 617 008a 1940     		ands	r1, r1, r3	@, D.5940, D.5934, D.5939
 618 008c 7B68     		ldr	r3, [r7, #4]	@ tmp219, GPIOx
 619 008e 02F10802 		add	r2, r2, #8	@ tmp220, D.5932,
 620 0092 43F82210 		str	r1, [r3, r2, lsl #2]	@ D.5940, GPIOx_11(D)->AFR
 341:Drivers/STM32L1xx_HAL_Driver/stm32l1xx_hal_gpio.cpp ****      
 342:Drivers/STM32L1xx_HAL_Driver/stm32l1xx_hal_gpio.cpp ****       /* Configure the default value for IO Speed */
 343:Drivers/STM32L1xx_HAL_Driver/stm32l1xx_hal_gpio.cpp ****       CLEAR_BIT(GPIOx->OSPEEDR, GPIO_OSPEEDER_OSPEEDR0 << (position * 2));
 621              		.loc 1 343 0
 622 0096 7B68     		ldr	r3, [r7, #4]	@ tmp221, GPIOx
 623 0098 9A68     		ldr	r2, [r3, #8]	@ D.5941, GPIOx_11(D)->OSPEEDR
 624 009a 7B69     		ldr	r3, [r7, #20]	@ tmp222, position
ARM GAS  /tmp/cczCLpdy.s 			page 18


 625 009c 4FEA4303 		lsl	r3, r3, #1	@ D.5942, tmp222,
 626 00a0 4FF00301 		mov	r1, #3	@ tmp223,
 627 00a4 01FA03F3 		lsl	r3, r1, r3	@ D.5944, tmp223, D.5943
 628 00a8 6FEA0303 		mvn	r3, r3	@ D.5945, D.5944
 629 00ac 1A40     		ands	r2, r2, r3	@, D.5946, D.5941, D.5945
 630 00ae 7B68     		ldr	r3, [r7, #4]	@ tmp224, GPIOx
 631 00b0 9A60     		str	r2, [r3, #8]	@ D.5946, GPIOx_11(D)->OSPEEDR
 344:Drivers/STM32L1xx_HAL_Driver/stm32l1xx_hal_gpio.cpp **** 
 345:Drivers/STM32L1xx_HAL_Driver/stm32l1xx_hal_gpio.cpp ****       /* Configure the default value IO Output Type */
 346:Drivers/STM32L1xx_HAL_Driver/stm32l1xx_hal_gpio.cpp ****       CLEAR_BIT(GPIOx->OTYPER, GPIO_OTYPER_OT_0 << position) ;
 632              		.loc 1 346 0
 633 00b2 7B68     		ldr	r3, [r7, #4]	@ tmp225, GPIOx
 634 00b4 5A68     		ldr	r2, [r3, #4]	@ D.5947, GPIOx_11(D)->OTYPER
 635 00b6 7B69     		ldr	r3, [r7, #20]	@ position.9, position
 636 00b8 4FF00101 		mov	r1, #1	@ tmp226,
 637 00bc 01FA03F3 		lsl	r3, r1, r3	@ D.5949, tmp226, position.9
 638 00c0 6FEA0303 		mvn	r3, r3	@ D.5950, D.5949
 639 00c4 1A40     		ands	r2, r2, r3	@, D.5951, D.5947, D.5950
 640 00c6 7B68     		ldr	r3, [r7, #4]	@ tmp227, GPIOx
 641 00c8 5A60     		str	r2, [r3, #4]	@ D.5951, GPIOx_11(D)->OTYPER
 347:Drivers/STM32L1xx_HAL_Driver/stm32l1xx_hal_gpio.cpp ****       
 348:Drivers/STM32L1xx_HAL_Driver/stm32l1xx_hal_gpio.cpp ****       /* Deactivate the Pull-up oand Pull-down resistor for the current IO */
 349:Drivers/STM32L1xx_HAL_Driver/stm32l1xx_hal_gpio.cpp ****       CLEAR_BIT(GPIOx->PUPDR, GPIO_PUPDR_PUPDR0 << (position * 2));
 642              		.loc 1 349 0
 643 00ca 7B68     		ldr	r3, [r7, #4]	@ tmp228, GPIOx
 644 00cc DA68     		ldr	r2, [r3, #12]	@ D.5952, GPIOx_11(D)->PUPDR
 645 00ce 7B69     		ldr	r3, [r7, #20]	@ tmp229, position
 646 00d0 4FEA4303 		lsl	r3, r3, #1	@ D.5953, tmp229,
 647 00d4 4FF00301 		mov	r1, #3	@ tmp230,
 648 00d8 01FA03F3 		lsl	r3, r1, r3	@ D.5955, tmp230, D.5954
 649 00dc 6FEA0303 		mvn	r3, r3	@ D.5956, D.5955
 650 00e0 1A40     		ands	r2, r2, r3	@, D.5957, D.5952, D.5956
 651 00e2 7B68     		ldr	r3, [r7, #4]	@ tmp231, GPIOx
 652 00e4 DA60     		str	r2, [r3, #12]	@ D.5957, GPIOx_11(D)->PUPDR
 350:Drivers/STM32L1xx_HAL_Driver/stm32l1xx_hal_gpio.cpp ****       
 351:Drivers/STM32L1xx_HAL_Driver/stm32l1xx_hal_gpio.cpp ****     
 352:Drivers/STM32L1xx_HAL_Driver/stm32l1xx_hal_gpio.cpp ****       /*------------------------- EXTI Mode Configuration --------------------*/
 353:Drivers/STM32L1xx_HAL_Driver/stm32l1xx_hal_gpio.cpp ****       /* Configure the External Interrupt or event for the current IO */
 354:Drivers/STM32L1xx_HAL_Driver/stm32l1xx_hal_gpio.cpp ****       tmp = ((uint32_t)0x0F) << (4 * (position & 0x03));
 653              		.loc 1 354 0
 654 00e6 7B69     		ldr	r3, [r7, #20]	@ tmp232, position
 655 00e8 03F00303 		and	r3, r3, #3	@ D.5958, tmp232,
 656 00ec 4FEA8303 		lsl	r3, r3, #2	@ D.5959, D.5958,
 657 00f0 4FF00F02 		mov	r2, #15	@ tmp234,
 658 00f4 02FA03F3 		lsl	r3, r2, r3	@ tmp233, tmp234, D.5960
 659 00f8 BB60     		str	r3, [r7, #8]	@ tmp233, tmp
 355:Drivers/STM32L1xx_HAL_Driver/stm32l1xx_hal_gpio.cpp ****       CLEAR_BIT(SYSCFG->EXTICR[position >> 2], tmp);
 660              		.loc 1 355 0
 661 00fa 4FF00003 		mov	r3, #0	@ D.5961,
 662 00fe C4F20103 		movt	r3, 16385	@ D.5961,
 663 0102 7A69     		ldr	r2, [r7, #20]	@ tmp235, position
 664 0104 4FEA9200 		lsr	r0, r2, #2	@ D.5962, tmp235,
 665 0108 4FF00002 		mov	r2, #0	@ D.5963,
 666 010c C4F20102 		movt	r2, 16385	@ D.5963,
 667 0110 7969     		ldr	r1, [r7, #20]	@ tmp236, position
 668 0112 4FEA9101 		lsr	r1, r1, #2	@ D.5964, tmp236,
 669 0116 01F10201 		add	r1, r1, #2	@ tmp237, D.5964,
ARM GAS  /tmp/cczCLpdy.s 			page 19


 670 011a 52F82110 		ldr	r1, [r2, r1, lsl #2]	@ D.5965, D.5963_50->EXTICR
 671 011e BA68     		ldr	r2, [r7, #8]	@ tmp238, tmp
 672 0120 6FEA0202 		mvn	r2, r2	@ D.5966, tmp238
 673 0124 1140     		ands	r1, r1, r2	@, D.5967, D.5965, D.5966
 674 0126 00F10202 		add	r2, r0, #2	@ tmp239, D.5962,
 675 012a 43F82210 		str	r1, [r3, r2, lsl #2]	@ D.5967, D.5961_48->EXTICR
 356:Drivers/STM32L1xx_HAL_Driver/stm32l1xx_hal_gpio.cpp ****          
 357:Drivers/STM32L1xx_HAL_Driver/stm32l1xx_hal_gpio.cpp ****       /* Clear EXTI line configuration */
 358:Drivers/STM32L1xx_HAL_Driver/stm32l1xx_hal_gpio.cpp ****       CLEAR_BIT(EXTI->IMR, (uint32_t)iocurrent);
 676              		.loc 1 358 0
 677 012e 4FF48063 		mov	r3, #1024	@ D.5968,
 678 0132 C4F20103 		movt	r3, 16385	@ D.5968,
 679 0136 4FF48062 		mov	r2, #1024	@ D.5969,
 680 013a C4F20102 		movt	r2, 16385	@ D.5969,
 681 013e 1168     		ldr	r1, [r2, #0]	@ D.5970, D.5969_56->IMR
 682 0140 FA68     		ldr	r2, [r7, #12]	@ tmp240, iocurrent
 683 0142 6FEA0202 		mvn	r2, r2	@ D.5971, tmp240
 684 0146 0A40     		ands	r2, r2, r1	@, D.5972, D.5971, D.5970
 685 0148 1A60     		str	r2, [r3, #0]	@ D.5972, D.5968_55->IMR
 359:Drivers/STM32L1xx_HAL_Driver/stm32l1xx_hal_gpio.cpp ****       CLEAR_BIT(EXTI->EMR, (uint32_t)iocurrent);
 686              		.loc 1 359 0
 687 014a 4FF48063 		mov	r3, #1024	@ D.5973,
 688 014e C4F20103 		movt	r3, 16385	@ D.5973,
 689 0152 4FF48062 		mov	r2, #1024	@ D.5974,
 690 0156 C4F20102 		movt	r2, 16385	@ D.5974,
 691 015a 5168     		ldr	r1, [r2, #4]	@ D.5975, D.5974_61->EMR
 692 015c FA68     		ldr	r2, [r7, #12]	@ tmp241, iocurrent
 693 015e 6FEA0202 		mvn	r2, r2	@ D.5976, tmp241
 694 0162 0A40     		ands	r2, r2, r1	@, D.5977, D.5976, D.5975
 695 0164 5A60     		str	r2, [r3, #4]	@ D.5977, D.5973_60->EMR
 360:Drivers/STM32L1xx_HAL_Driver/stm32l1xx_hal_gpio.cpp ****        
 361:Drivers/STM32L1xx_HAL_Driver/stm32l1xx_hal_gpio.cpp ****       /* Clear Rising Falling edge configuration */
 362:Drivers/STM32L1xx_HAL_Driver/stm32l1xx_hal_gpio.cpp ****       CLEAR_BIT(EXTI->RTSR, (uint32_t)iocurrent);
 696              		.loc 1 362 0
 697 0166 4FF48063 		mov	r3, #1024	@ D.5978,
 698 016a C4F20103 		movt	r3, 16385	@ D.5978,
 699 016e 4FF48062 		mov	r2, #1024	@ D.5979,
 700 0172 C4F20102 		movt	r2, 16385	@ D.5979,
 701 0176 9168     		ldr	r1, [r2, #8]	@ D.5980, D.5979_66->RTSR
 702 0178 FA68     		ldr	r2, [r7, #12]	@ tmp242, iocurrent
 703 017a 6FEA0202 		mvn	r2, r2	@ D.5981, tmp242
 704 017e 0A40     		ands	r2, r2, r1	@, D.5982, D.5981, D.5980
 705 0180 9A60     		str	r2, [r3, #8]	@ D.5982, D.5978_65->RTSR
 363:Drivers/STM32L1xx_HAL_Driver/stm32l1xx_hal_gpio.cpp ****       CLEAR_BIT(EXTI->FTSR, (uint32_t)iocurrent);
 706              		.loc 1 363 0
 707 0182 4FF48063 		mov	r3, #1024	@ D.5983,
 708 0186 C4F20103 		movt	r3, 16385	@ D.5983,
 709 018a 4FF48062 		mov	r2, #1024	@ D.5984,
 710 018e C4F20102 		movt	r2, 16385	@ D.5984,
 711 0192 D168     		ldr	r1, [r2, #12]	@ D.5985, D.5984_71->FTSR
 712 0194 FA68     		ldr	r2, [r7, #12]	@ tmp243, iocurrent
 713 0196 6FEA0202 		mvn	r2, r2	@ D.5986, tmp243
 714 019a 0A40     		ands	r2, r2, r1	@, D.5987, D.5986, D.5985
 715 019c DA60     		str	r2, [r3, #12]	@ D.5987, D.5983_70->FTSR
 716              	.L27:
 326:Drivers/STM32L1xx_HAL_Driver/stm32l1xx_hal_gpio.cpp ****   for (position = 0; position < GPIO_NUMBER; position++)
 717              		.loc 1 326 0
ARM GAS  /tmp/cczCLpdy.s 			page 20


 718 019e 7B69     		ldr	r3, [r7, #20]	@ tmp245, position
 719 01a0 03F10103 		add	r3, r3, #1	@ tmp244, tmp245,
 720 01a4 7B61     		str	r3, [r7, #20]	@ tmp244, position
 721              	.L26:
 326:Drivers/STM32L1xx_HAL_Driver/stm32l1xx_hal_gpio.cpp ****   for (position = 0; position < GPIO_NUMBER; position++)
 722              		.loc 1 326 0 is_stmt 0 discriminator 1
 723 01a6 7B69     		ldr	r3, [r7, #20]	@ tmp247, position
 724 01a8 0F2B     		cmp	r3, #15	@ tmp247,
 725 01aa 8CBF     		ite	hi	@
 726 01ac 0023     		movhi	r3, #0	@, tmp248
 727 01ae 0123     		movls	r3, #1	@, tmp248
 728 01b0 DBB2     		uxtb	r3, r3	@ D.5921, tmp246
 729 01b2 002B     		cmp	r3, #0	@ D.5921,
 730 01b4 7FF436AF 		bne	.L28	@,
 731              	.LBE3:
 364:Drivers/STM32L1xx_HAL_Driver/stm32l1xx_hal_gpio.cpp ****     }
 365:Drivers/STM32L1xx_HAL_Driver/stm32l1xx_hal_gpio.cpp ****   }
 366:Drivers/STM32L1xx_HAL_Driver/stm32l1xx_hal_gpio.cpp **** }
 732              		.loc 1 366 0 is_stmt 1
 733 01b8 07F11C07 		add	r7, r7, #28	@,,
 734 01bc BD46     		mov	sp, r7
 735 01be 80BC     		pop	{r7}
 736 01c0 7047     		bx	lr
 737              		.cfi_endproc
 738              	.LFE57:
 739              		.size	HAL_GPIO_DeInit, .-HAL_GPIO_DeInit
 740 01c2 00BF     		.section	.text.HAL_GPIO_ReadPin,"ax",%progbits
 741              		.align	2
 742              		.global	HAL_GPIO_ReadPin
 743              		.thumb
 744              		.thumb_func
 745              		.type	HAL_GPIO_ReadPin, %function
 746              	HAL_GPIO_ReadPin:
 747              	.LFB58:
 367:Drivers/STM32L1xx_HAL_Driver/stm32l1xx_hal_gpio.cpp **** 
 368:Drivers/STM32L1xx_HAL_Driver/stm32l1xx_hal_gpio.cpp **** /**
 369:Drivers/STM32L1xx_HAL_Driver/stm32l1xx_hal_gpio.cpp ****   * @}
 370:Drivers/STM32L1xx_HAL_Driver/stm32l1xx_hal_gpio.cpp ****   */
 371:Drivers/STM32L1xx_HAL_Driver/stm32l1xx_hal_gpio.cpp **** 
 372:Drivers/STM32L1xx_HAL_Driver/stm32l1xx_hal_gpio.cpp **** /** @defgroup GPIO_Exported_Functions_Group2 IO operation functions 
 373:Drivers/STM32L1xx_HAL_Driver/stm32l1xx_hal_gpio.cpp ****  *  @brief   GPIO Read and Write 
 374:Drivers/STM32L1xx_HAL_Driver/stm32l1xx_hal_gpio.cpp ****  *
 375:Drivers/STM32L1xx_HAL_Driver/stm32l1xx_hal_gpio.cpp **** @verbatim   
 376:Drivers/STM32L1xx_HAL_Driver/stm32l1xx_hal_gpio.cpp ****  ===============================================================================
 377:Drivers/STM32L1xx_HAL_Driver/stm32l1xx_hal_gpio.cpp ****                        ##### IO operation functions #####
 378:Drivers/STM32L1xx_HAL_Driver/stm32l1xx_hal_gpio.cpp ****  ===============================================================================  
 379:Drivers/STM32L1xx_HAL_Driver/stm32l1xx_hal_gpio.cpp **** 
 380:Drivers/STM32L1xx_HAL_Driver/stm32l1xx_hal_gpio.cpp **** @endverbatim
 381:Drivers/STM32L1xx_HAL_Driver/stm32l1xx_hal_gpio.cpp ****   * @{
 382:Drivers/STM32L1xx_HAL_Driver/stm32l1xx_hal_gpio.cpp ****   */
 383:Drivers/STM32L1xx_HAL_Driver/stm32l1xx_hal_gpio.cpp **** 
 384:Drivers/STM32L1xx_HAL_Driver/stm32l1xx_hal_gpio.cpp **** /**
 385:Drivers/STM32L1xx_HAL_Driver/stm32l1xx_hal_gpio.cpp ****   * @brief  Reads the specified input port pin.
 386:Drivers/STM32L1xx_HAL_Driver/stm32l1xx_hal_gpio.cpp ****   * @param  GPIOx: where x can be (A..G depending on device used) to select the GPIO peripheral for
 387:Drivers/STM32L1xx_HAL_Driver/stm32l1xx_hal_gpio.cpp ****   * @param  GPIO_Pin: specifies the port bit to read.
 388:Drivers/STM32L1xx_HAL_Driver/stm32l1xx_hal_gpio.cpp ****   *         This parameter can be GPIO_PIN_x where x can be (0..15).
 389:Drivers/STM32L1xx_HAL_Driver/stm32l1xx_hal_gpio.cpp ****   * @retval The input port pin value.
ARM GAS  /tmp/cczCLpdy.s 			page 21


 390:Drivers/STM32L1xx_HAL_Driver/stm32l1xx_hal_gpio.cpp ****   */
 391:Drivers/STM32L1xx_HAL_Driver/stm32l1xx_hal_gpio.cpp **** GPIO_PinState HAL_GPIO_ReadPin(GPIO_TypeDef* GPIOx, uint16_t GPIO_Pin)
 392:Drivers/STM32L1xx_HAL_Driver/stm32l1xx_hal_gpio.cpp **** {
 748              		.loc 1 392 0
 749              		.cfi_startproc
 750              		@ args = 0, pretend = 0, frame = 16
 751              		@ frame_needed = 1, uses_anonymous_args = 0
 752              		@ link register save eliminated.
 753 0000 80B4     		push	{r7}	@
 754              	.LCFI6:
 755              		.cfi_def_cfa_offset 4
 756              		.cfi_offset 7, -4
 757 0002 85B0     		sub	sp, sp, #20	@,,
 758              	.LCFI7:
 759              		.cfi_def_cfa_offset 24
 760 0004 00AF     		add	r7, sp, #0	@,,
 761              	.LCFI8:
 762              		.cfi_def_cfa_register 7
 763 0006 7860     		str	r0, [r7, #4]	@ GPIOx, GPIOx
 764 0008 0B46     		mov	r3, r1	@ tmp140, GPIO_Pin
 765 000a 7B80     		strh	r3, [r7, #2]	@ movhi	@ tmp141, GPIO_Pin
 766              	.LBB4:
 393:Drivers/STM32L1xx_HAL_Driver/stm32l1xx_hal_gpio.cpp ****   GPIO_PinState bitstatus;
 394:Drivers/STM32L1xx_HAL_Driver/stm32l1xx_hal_gpio.cpp **** 
 395:Drivers/STM32L1xx_HAL_Driver/stm32l1xx_hal_gpio.cpp ****   /* Check the parameters */
 396:Drivers/STM32L1xx_HAL_Driver/stm32l1xx_hal_gpio.cpp ****   assert_param(IS_GPIO_PIN(GPIO_Pin));
 397:Drivers/STM32L1xx_HAL_Driver/stm32l1xx_hal_gpio.cpp **** 
 398:Drivers/STM32L1xx_HAL_Driver/stm32l1xx_hal_gpio.cpp ****   if ((GPIOx->IDR & GPIO_Pin) != (uint32_t)GPIO_PIN_RESET)
 767              		.loc 1 398 0
 768 000c 7B68     		ldr	r3, [r7, #4]	@ tmp142, GPIOx
 769 000e 1A69     		ldr	r2, [r3, #16]	@ D.5910, GPIOx_2(D)->IDR
 770 0010 7B88     		ldrh	r3, [r7, #2]	@ D.5911, GPIO_Pin
 771 0012 1340     		ands	r3, r3, r2	@, D.5912, D.5911, D.5910
 772 0014 002B     		cmp	r3, #0	@ D.5912,
 773 0016 0CBF     		ite	eq	@
 774 0018 0023     		moveq	r3, #0	@, tmp144
 775 001a 0123     		movne	r3, #1	@, tmp144
 776 001c DBB2     		uxtb	r3, r3	@ retval.7, tmp143
 777 001e 002B     		cmp	r3, #0	@ retval.7,
 778 0020 03D0     		beq	.L30	@,
 399:Drivers/STM32L1xx_HAL_Driver/stm32l1xx_hal_gpio.cpp ****   {
 400:Drivers/STM32L1xx_HAL_Driver/stm32l1xx_hal_gpio.cpp ****     bitstatus = GPIO_PIN_SET;
 779              		.loc 1 400 0
 780 0022 4FF00103 		mov	r3, #1	@ tmp145,
 781 0026 FB73     		strb	r3, [r7, #15]	@ tmp146, bitstatus
 782 0028 02E0     		b	.L31	@
 783              	.L30:
 401:Drivers/STM32L1xx_HAL_Driver/stm32l1xx_hal_gpio.cpp ****   }
 402:Drivers/STM32L1xx_HAL_Driver/stm32l1xx_hal_gpio.cpp ****   else
 403:Drivers/STM32L1xx_HAL_Driver/stm32l1xx_hal_gpio.cpp ****   {
 404:Drivers/STM32L1xx_HAL_Driver/stm32l1xx_hal_gpio.cpp ****     bitstatus = GPIO_PIN_RESET;
 784              		.loc 1 404 0
 785 002a 4FF00003 		mov	r3, #0	@ tmp147,
 786 002e FB73     		strb	r3, [r7, #15]	@ tmp148, bitstatus
 787              	.L31:
 405:Drivers/STM32L1xx_HAL_Driver/stm32l1xx_hal_gpio.cpp ****   }
 406:Drivers/STM32L1xx_HAL_Driver/stm32l1xx_hal_gpio.cpp ****   return bitstatus;
ARM GAS  /tmp/cczCLpdy.s 			page 22


 788              		.loc 1 406 0
 789 0030 FB7B     		ldrb	r3, [r7, #15]	@ zero_extendqisi2	@ D.5916, bitstatus
 790              	.LBE4:
 407:Drivers/STM32L1xx_HAL_Driver/stm32l1xx_hal_gpio.cpp **** }
 791              		.loc 1 407 0
 792 0032 1846     		mov	r0, r3	@, <retval>
 793 0034 07F11407 		add	r7, r7, #20	@,,
 794 0038 BD46     		mov	sp, r7
 795 003a 80BC     		pop	{r7}
 796 003c 7047     		bx	lr
 797              		.cfi_endproc
 798              	.LFE58:
 799              		.size	HAL_GPIO_ReadPin, .-HAL_GPIO_ReadPin
 800 003e 00BF     		.section	.text.HAL_GPIO_WritePin,"ax",%progbits
 801              		.align	2
 802              		.global	HAL_GPIO_WritePin
 803              		.thumb
 804              		.thumb_func
 805              		.type	HAL_GPIO_WritePin, %function
 806              	HAL_GPIO_WritePin:
 807              	.LFB59:
 408:Drivers/STM32L1xx_HAL_Driver/stm32l1xx_hal_gpio.cpp **** 
 409:Drivers/STM32L1xx_HAL_Driver/stm32l1xx_hal_gpio.cpp **** /**
 410:Drivers/STM32L1xx_HAL_Driver/stm32l1xx_hal_gpio.cpp ****   * @brief  Sets or clears the selected data port bit.
 411:Drivers/STM32L1xx_HAL_Driver/stm32l1xx_hal_gpio.cpp ****   * 
 412:Drivers/STM32L1xx_HAL_Driver/stm32l1xx_hal_gpio.cpp ****   * @note   This function uses GPIOx_BSRR register to allow atomic read/modify 
 413:Drivers/STM32L1xx_HAL_Driver/stm32l1xx_hal_gpio.cpp ****   *         accesses. In this way, there is no risk of an IRQ occurring between
 414:Drivers/STM32L1xx_HAL_Driver/stm32l1xx_hal_gpio.cpp ****   *         the read and the modify access.
 415:Drivers/STM32L1xx_HAL_Driver/stm32l1xx_hal_gpio.cpp ****   *               
 416:Drivers/STM32L1xx_HAL_Driver/stm32l1xx_hal_gpio.cpp ****   * @param  GPIOx: where x can be (A..G depending on device used) to select the GPIO peripheral for
 417:Drivers/STM32L1xx_HAL_Driver/stm32l1xx_hal_gpio.cpp ****   * @param  GPIO_Pin: specifies the port bit to be written.
 418:Drivers/STM32L1xx_HAL_Driver/stm32l1xx_hal_gpio.cpp ****   *          This parameter can be one of GPIO_PIN_x where x can be (0..15).
 419:Drivers/STM32L1xx_HAL_Driver/stm32l1xx_hal_gpio.cpp ****   * @param  PinState: specifies the value to be written to the selected bit.
 420:Drivers/STM32L1xx_HAL_Driver/stm32l1xx_hal_gpio.cpp ****   *          This parameter can be one of the GPIO_PinState enum values:
 421:Drivers/STM32L1xx_HAL_Driver/stm32l1xx_hal_gpio.cpp ****   *            @arg GPIO_BIT_RESET: to clear the port pin
 422:Drivers/STM32L1xx_HAL_Driver/stm32l1xx_hal_gpio.cpp ****   *            @arg GPIO_BIT_SET: to set the port pin
 423:Drivers/STM32L1xx_HAL_Driver/stm32l1xx_hal_gpio.cpp ****   * @retval None
 424:Drivers/STM32L1xx_HAL_Driver/stm32l1xx_hal_gpio.cpp ****   */
 425:Drivers/STM32L1xx_HAL_Driver/stm32l1xx_hal_gpio.cpp **** void HAL_GPIO_WritePin(GPIO_TypeDef* GPIOx, uint16_t GPIO_Pin, GPIO_PinState PinState)
 426:Drivers/STM32L1xx_HAL_Driver/stm32l1xx_hal_gpio.cpp **** {
 808              		.loc 1 426 0
 809              		.cfi_startproc
 810              		@ args = 0, pretend = 0, frame = 8
 811              		@ frame_needed = 1, uses_anonymous_args = 0
 812              		@ link register save eliminated.
 813 0000 80B4     		push	{r7}	@
 814              	.LCFI9:
 815              		.cfi_def_cfa_offset 4
 816              		.cfi_offset 7, -4
 817 0002 83B0     		sub	sp, sp, #12	@,,
 818              	.LCFI10:
 819              		.cfi_def_cfa_offset 16
 820 0004 00AF     		add	r7, sp, #0	@,,
 821              	.LCFI11:
 822              		.cfi_def_cfa_register 7
 823 0006 7860     		str	r0, [r7, #4]	@ GPIOx, GPIOx
 824 0008 1346     		mov	r3, r2	@ tmp139, PinState
ARM GAS  /tmp/cczCLpdy.s 			page 23


 825 000a 0A46     		mov	r2, r1	@ movhi	@ tmp138, tmp137
 826 000c 7A80     		strh	r2, [r7, #2]	@ movhi	@ tmp138, GPIO_Pin
 827 000e 7B70     		strb	r3, [r7, #1]	@ tmp140, PinState
 427:Drivers/STM32L1xx_HAL_Driver/stm32l1xx_hal_gpio.cpp ****   /* Check the parameters */
 428:Drivers/STM32L1xx_HAL_Driver/stm32l1xx_hal_gpio.cpp ****   assert_param(IS_GPIO_PIN(GPIO_Pin));
 429:Drivers/STM32L1xx_HAL_Driver/stm32l1xx_hal_gpio.cpp ****   assert_param(IS_GPIO_PIN_ACTION(PinState));
 430:Drivers/STM32L1xx_HAL_Driver/stm32l1xx_hal_gpio.cpp **** 
 431:Drivers/STM32L1xx_HAL_Driver/stm32l1xx_hal_gpio.cpp ****   if(PinState != GPIO_PIN_RESET)
 828              		.loc 1 431 0
 829 0010 7B78     		ldrb	r3, [r7, #1]	@ zero_extendqisi2	@ tmp141, PinState
 830 0012 002B     		cmp	r3, #0	@ tmp141,
 831 0014 03D0     		beq	.L34	@,
 432:Drivers/STM32L1xx_HAL_Driver/stm32l1xx_hal_gpio.cpp ****   {
 433:Drivers/STM32L1xx_HAL_Driver/stm32l1xx_hal_gpio.cpp ****     GPIOx->BSRR = GPIO_Pin;
 832              		.loc 1 433 0
 833 0016 7A88     		ldrh	r2, [r7, #2]	@ D.5905, GPIO_Pin
 834 0018 7B68     		ldr	r3, [r7, #4]	@ tmp142, GPIOx
 835 001a 9A61     		str	r2, [r3, #24]	@ D.5905, GPIOx_4(D)->BSRR
 836 001c 04E0     		b	.L33	@
 837              	.L34:
 434:Drivers/STM32L1xx_HAL_Driver/stm32l1xx_hal_gpio.cpp ****   }
 435:Drivers/STM32L1xx_HAL_Driver/stm32l1xx_hal_gpio.cpp ****   else
 436:Drivers/STM32L1xx_HAL_Driver/stm32l1xx_hal_gpio.cpp ****   {
 437:Drivers/STM32L1xx_HAL_Driver/stm32l1xx_hal_gpio.cpp ****     GPIOx->BSRR = (uint32_t)GPIO_Pin << 16;
 838              		.loc 1 437 0
 839 001e 7B88     		ldrh	r3, [r7, #2]	@ D.5907, GPIO_Pin
 840 0020 4FEA0342 		lsl	r2, r3, #16	@ D.5908, D.5907,
 841 0024 7B68     		ldr	r3, [r7, #4]	@ tmp143, GPIOx
 842 0026 9A61     		str	r2, [r3, #24]	@ D.5908, GPIOx_4(D)->BSRR
 843              	.L33:
 438:Drivers/STM32L1xx_HAL_Driver/stm32l1xx_hal_gpio.cpp ****   }
 439:Drivers/STM32L1xx_HAL_Driver/stm32l1xx_hal_gpio.cpp **** }
 844              		.loc 1 439 0
 845 0028 07F10C07 		add	r7, r7, #12	@,,
 846 002c BD46     		mov	sp, r7
 847 002e 80BC     		pop	{r7}
 848 0030 7047     		bx	lr
 849              		.cfi_endproc
 850              	.LFE59:
 851              		.size	HAL_GPIO_WritePin, .-HAL_GPIO_WritePin
 852 0032 00BF     		.section	.text.HAL_GPIO_TogglePin,"ax",%progbits
 853              		.align	2
 854              		.global	HAL_GPIO_TogglePin
 855              		.thumb
 856              		.thumb_func
 857              		.type	HAL_GPIO_TogglePin, %function
 858              	HAL_GPIO_TogglePin:
 859              	.LFB60:
 440:Drivers/STM32L1xx_HAL_Driver/stm32l1xx_hal_gpio.cpp **** 
 441:Drivers/STM32L1xx_HAL_Driver/stm32l1xx_hal_gpio.cpp **** /**
 442:Drivers/STM32L1xx_HAL_Driver/stm32l1xx_hal_gpio.cpp ****   * @brief  Toggles the specified GPIO pin
 443:Drivers/STM32L1xx_HAL_Driver/stm32l1xx_hal_gpio.cpp ****   * @param  GPIOx: where x can be (A..Gdepending on device used) to select the GPIO peripheral for 
 444:Drivers/STM32L1xx_HAL_Driver/stm32l1xx_hal_gpio.cpp ****   * @param  GPIO_Pin: Specifies the pins to be toggled.
 445:Drivers/STM32L1xx_HAL_Driver/stm32l1xx_hal_gpio.cpp ****   * @retval None
 446:Drivers/STM32L1xx_HAL_Driver/stm32l1xx_hal_gpio.cpp ****   */
 447:Drivers/STM32L1xx_HAL_Driver/stm32l1xx_hal_gpio.cpp **** void HAL_GPIO_TogglePin(GPIO_TypeDef* GPIOx, uint16_t GPIO_Pin)
 448:Drivers/STM32L1xx_HAL_Driver/stm32l1xx_hal_gpio.cpp **** {
ARM GAS  /tmp/cczCLpdy.s 			page 24


 860              		.loc 1 448 0
 861              		.cfi_startproc
 862              		@ args = 0, pretend = 0, frame = 8
 863              		@ frame_needed = 1, uses_anonymous_args = 0
 864              		@ link register save eliminated.
 865 0000 80B4     		push	{r7}	@
 866              	.LCFI12:
 867              		.cfi_def_cfa_offset 4
 868              		.cfi_offset 7, -4
 869 0002 83B0     		sub	sp, sp, #12	@,,
 870              	.LCFI13:
 871              		.cfi_def_cfa_offset 16
 872 0004 00AF     		add	r7, sp, #0	@,,
 873              	.LCFI14:
 874              		.cfi_def_cfa_register 7
 875 0006 7860     		str	r0, [r7, #4]	@ GPIOx, GPIOx
 876 0008 0B46     		mov	r3, r1	@ tmp137, GPIO_Pin
 877 000a 7B80     		strh	r3, [r7, #2]	@ movhi	@ tmp138, GPIO_Pin
 449:Drivers/STM32L1xx_HAL_Driver/stm32l1xx_hal_gpio.cpp ****   /* Check the parameters */
 450:Drivers/STM32L1xx_HAL_Driver/stm32l1xx_hal_gpio.cpp ****   assert_param(IS_GPIO_PIN(GPIO_Pin));
 451:Drivers/STM32L1xx_HAL_Driver/stm32l1xx_hal_gpio.cpp **** 
 452:Drivers/STM32L1xx_HAL_Driver/stm32l1xx_hal_gpio.cpp ****   GPIOx->ODR ^= GPIO_Pin;
 878              		.loc 1 452 0
 879 000c 7B68     		ldr	r3, [r7, #4]	@ tmp139, GPIOx
 880 000e 5A69     		ldr	r2, [r3, #20]	@ D.5900, GPIOx_1(D)->ODR
 881 0010 7B88     		ldrh	r3, [r7, #2]	@ D.5901, GPIO_Pin
 882 0012 5A40     		eors	r2, r2, r3	@, D.5902, D.5900, D.5901
 883 0014 7B68     		ldr	r3, [r7, #4]	@ tmp140, GPIOx
 884 0016 5A61     		str	r2, [r3, #20]	@ D.5902, GPIOx_1(D)->ODR
 453:Drivers/STM32L1xx_HAL_Driver/stm32l1xx_hal_gpio.cpp **** }
 885              		.loc 1 453 0
 886 0018 07F10C07 		add	r7, r7, #12	@,,
 887 001c BD46     		mov	sp, r7
 888 001e 80BC     		pop	{r7}
 889 0020 7047     		bx	lr
 890              		.cfi_endproc
 891              	.LFE60:
 892              		.size	HAL_GPIO_TogglePin, .-HAL_GPIO_TogglePin
 893 0022 00BF     		.section	.text.HAL_GPIO_LockPin,"ax",%progbits
 894              		.align	2
 895              		.global	HAL_GPIO_LockPin
 896              		.thumb
 897              		.thumb_func
 898              		.type	HAL_GPIO_LockPin, %function
 899              	HAL_GPIO_LockPin:
 900              	.LFB61:
 454:Drivers/STM32L1xx_HAL_Driver/stm32l1xx_hal_gpio.cpp **** 
 455:Drivers/STM32L1xx_HAL_Driver/stm32l1xx_hal_gpio.cpp **** /**
 456:Drivers/STM32L1xx_HAL_Driver/stm32l1xx_hal_gpio.cpp **** * @brief  Locks GPIO Pins configuration registers.
 457:Drivers/STM32L1xx_HAL_Driver/stm32l1xx_hal_gpio.cpp **** * @note   The locked registers are GPIOx_MODER, GPIOx_OTYPER, GPIOx_OSPEEDR,
 458:Drivers/STM32L1xx_HAL_Driver/stm32l1xx_hal_gpio.cpp **** *         GPIOx_PUPDR, GPIOx_AFRL and GPIOx_AFRH.
 459:Drivers/STM32L1xx_HAL_Driver/stm32l1xx_hal_gpio.cpp **** * @note   The configuration of the locked GPIO pins can no longer be modified
 460:Drivers/STM32L1xx_HAL_Driver/stm32l1xx_hal_gpio.cpp **** *         until the next reset.
 461:Drivers/STM32L1xx_HAL_Driver/stm32l1xx_hal_gpio.cpp **** * @param  GPIOx: where x can be (A..G depending on device used) to select the GPIO peripheral for S
 462:Drivers/STM32L1xx_HAL_Driver/stm32l1xx_hal_gpio.cpp **** * @param  GPIO_Pin: specifies the port bit to be locked.
 463:Drivers/STM32L1xx_HAL_Driver/stm32l1xx_hal_gpio.cpp **** *         This parameter can be any combination of GPIO_Pin_x where x can be (0..15).
 464:Drivers/STM32L1xx_HAL_Driver/stm32l1xx_hal_gpio.cpp **** * @retval None
ARM GAS  /tmp/cczCLpdy.s 			page 25


 465:Drivers/STM32L1xx_HAL_Driver/stm32l1xx_hal_gpio.cpp **** */
 466:Drivers/STM32L1xx_HAL_Driver/stm32l1xx_hal_gpio.cpp **** HAL_StatusTypeDef HAL_GPIO_LockPin(GPIO_TypeDef* GPIOx, uint16_t GPIO_Pin)
 467:Drivers/STM32L1xx_HAL_Driver/stm32l1xx_hal_gpio.cpp **** {
 901              		.loc 1 467 0
 902              		.cfi_startproc
 903              		@ args = 0, pretend = 0, frame = 16
 904              		@ frame_needed = 1, uses_anonymous_args = 0
 905              		@ link register save eliminated.
 906 0000 80B4     		push	{r7}	@
 907              	.LCFI15:
 908              		.cfi_def_cfa_offset 4
 909              		.cfi_offset 7, -4
 910 0002 85B0     		sub	sp, sp, #20	@,,
 911              	.LCFI16:
 912              		.cfi_def_cfa_offset 24
 913 0004 00AF     		add	r7, sp, #0	@,,
 914              	.LCFI17:
 915              		.cfi_def_cfa_register 7
 916 0006 7860     		str	r0, [r7, #4]	@ GPIOx, GPIOx
 917 0008 0B46     		mov	r3, r1	@ tmp146, GPIO_Pin
 918 000a 7B80     		strh	r3, [r7, #2]	@ movhi	@ tmp147, GPIO_Pin
 919              	.LBB5:
 468:Drivers/STM32L1xx_HAL_Driver/stm32l1xx_hal_gpio.cpp ****   __IO uint32_t tmp = GPIO_LCKR_LCKK;
 920              		.loc 1 468 0
 921 000c 4FF48033 		mov	r3, #65536	@ tmp148,
 922 0010 FB60     		str	r3, [r7, #12]	@ tmp148, tmp
 469:Drivers/STM32L1xx_HAL_Driver/stm32l1xx_hal_gpio.cpp **** 
 470:Drivers/STM32L1xx_HAL_Driver/stm32l1xx_hal_gpio.cpp ****   /* Check the parameters */
 471:Drivers/STM32L1xx_HAL_Driver/stm32l1xx_hal_gpio.cpp ****   assert_param(IS_GPIO_LOCK_INSTANCE(GPIOx));
 472:Drivers/STM32L1xx_HAL_Driver/stm32l1xx_hal_gpio.cpp ****   assert_param(IS_GPIO_PIN(GPIO_Pin));
 473:Drivers/STM32L1xx_HAL_Driver/stm32l1xx_hal_gpio.cpp **** 
 474:Drivers/STM32L1xx_HAL_Driver/stm32l1xx_hal_gpio.cpp ****   /* Apply lock key write sequence */
 475:Drivers/STM32L1xx_HAL_Driver/stm32l1xx_hal_gpio.cpp ****   SET_BIT(tmp, GPIO_Pin);
 923              		.loc 1 475 0
 924 0012 7A88     		ldrh	r2, [r7, #2]	@ D.5886, GPIO_Pin
 925 0014 FB68     		ldr	r3, [r7, #12]	@ tmp.1, tmp
 926 0016 1343     		orrs	r3, r3, r2	@, tmp.2, tmp.1, D.5886
 927 0018 FB60     		str	r3, [r7, #12]	@ tmp.2, tmp
 476:Drivers/STM32L1xx_HAL_Driver/stm32l1xx_hal_gpio.cpp ****   /* Set LCKx bit(s): LCKK='1' + LCK[15-0] */
 477:Drivers/STM32L1xx_HAL_Driver/stm32l1xx_hal_gpio.cpp ****   GPIOx->LCKR = tmp;
 928              		.loc 1 477 0
 929 001a FA68     		ldr	r2, [r7, #12]	@ tmp.3, tmp
 930 001c 7B68     		ldr	r3, [r7, #4]	@ tmp149, GPIOx
 931 001e DA61     		str	r2, [r3, #28]	@ tmp.3, GPIOx_7(D)->LCKR
 478:Drivers/STM32L1xx_HAL_Driver/stm32l1xx_hal_gpio.cpp ****   /* Reset LCKx bit(s): LCKK='0' + LCK[15-0] */
 479:Drivers/STM32L1xx_HAL_Driver/stm32l1xx_hal_gpio.cpp ****   GPIOx->LCKR = GPIO_Pin;
 932              		.loc 1 479 0
 933 0020 7A88     		ldrh	r2, [r7, #2]	@ D.5890, GPIO_Pin
 934 0022 7B68     		ldr	r3, [r7, #4]	@ tmp150, GPIOx
 935 0024 DA61     		str	r2, [r3, #28]	@ D.5890, GPIOx_7(D)->LCKR
 480:Drivers/STM32L1xx_HAL_Driver/stm32l1xx_hal_gpio.cpp ****   /* Set LCKx bit(s): LCKK='1' + LCK[15-0] */
 481:Drivers/STM32L1xx_HAL_Driver/stm32l1xx_hal_gpio.cpp ****   GPIOx->LCKR = tmp;
 936              		.loc 1 481 0
 937 0026 FA68     		ldr	r2, [r7, #12]	@ tmp.4, tmp
 938 0028 7B68     		ldr	r3, [r7, #4]	@ tmp151, GPIOx
 939 002a DA61     		str	r2, [r3, #28]	@ tmp.4, GPIOx_7(D)->LCKR
 482:Drivers/STM32L1xx_HAL_Driver/stm32l1xx_hal_gpio.cpp ****   /* Read LCKK bit*/
ARM GAS  /tmp/cczCLpdy.s 			page 26


 483:Drivers/STM32L1xx_HAL_Driver/stm32l1xx_hal_gpio.cpp ****   tmp = GPIOx->LCKR;
 940              		.loc 1 483 0
 941 002c 7B68     		ldr	r3, [r7, #4]	@ tmp152, GPIOx
 942 002e DB69     		ldr	r3, [r3, #28]	@ tmp.5, GPIOx_7(D)->LCKR
 943 0030 FB60     		str	r3, [r7, #12]	@ tmp.5, tmp
 484:Drivers/STM32L1xx_HAL_Driver/stm32l1xx_hal_gpio.cpp **** 
 485:Drivers/STM32L1xx_HAL_Driver/stm32l1xx_hal_gpio.cpp ****   if((uint32_t)(GPIOx->LCKR & GPIO_LCKR_LCKK))
 944              		.loc 1 485 0
 945 0032 7B68     		ldr	r3, [r7, #4]	@ tmp153, GPIOx
 946 0034 DB69     		ldr	r3, [r3, #28]	@ D.5894, GPIOx_7(D)->LCKR
 947 0036 03F48033 		and	r3, r3, #65536	@ D.5895, D.5894,
 948 003a 002B     		cmp	r3, #0	@ D.5895,
 949 003c 0CBF     		ite	eq	@
 950 003e 0023     		moveq	r3, #0	@, tmp155
 951 0040 0123     		movne	r3, #1	@, tmp155
 952 0042 DBB2     		uxtb	r3, r3	@ retval.6, tmp154
 953 0044 002B     		cmp	r3, #0	@ retval.6,
 954 0046 02D0     		beq	.L38	@,
 486:Drivers/STM32L1xx_HAL_Driver/stm32l1xx_hal_gpio.cpp ****   {
 487:Drivers/STM32L1xx_HAL_Driver/stm32l1xx_hal_gpio.cpp ****     return HAL_OK;
 955              		.loc 1 487 0
 956 0048 4FF00003 		mov	r3, #0	@ D.5898,
 957 004c 01E0     		b	.L39	@
 958              	.L38:
 488:Drivers/STM32L1xx_HAL_Driver/stm32l1xx_hal_gpio.cpp ****   }
 489:Drivers/STM32L1xx_HAL_Driver/stm32l1xx_hal_gpio.cpp ****   else
 490:Drivers/STM32L1xx_HAL_Driver/stm32l1xx_hal_gpio.cpp ****   {
 491:Drivers/STM32L1xx_HAL_Driver/stm32l1xx_hal_gpio.cpp ****     return HAL_ERROR;
 959              		.loc 1 491 0
 960 004e 4FF00103 		mov	r3, #1	@ D.5898,
 961              	.L39:
 962              	.LBE5:
 492:Drivers/STM32L1xx_HAL_Driver/stm32l1xx_hal_gpio.cpp ****   }
 493:Drivers/STM32L1xx_HAL_Driver/stm32l1xx_hal_gpio.cpp **** }
 963              		.loc 1 493 0
 964 0052 1846     		mov	r0, r3	@, <retval>
 965 0054 07F11407 		add	r7, r7, #20	@,,
 966 0058 BD46     		mov	sp, r7
 967 005a 80BC     		pop	{r7}
 968 005c 7047     		bx	lr
 969              		.cfi_endproc
 970              	.LFE61:
 971              		.size	HAL_GPIO_LockPin, .-HAL_GPIO_LockPin
 972 005e 00BF     		.section	.text.HAL_GPIO_EXTI_IRQHandler,"ax",%progbits
 973              		.align	2
 974              		.global	HAL_GPIO_EXTI_IRQHandler
 975              		.thumb
 976              		.thumb_func
 977              		.type	HAL_GPIO_EXTI_IRQHandler, %function
 978              	HAL_GPIO_EXTI_IRQHandler:
 979              	.LFB62:
 494:Drivers/STM32L1xx_HAL_Driver/stm32l1xx_hal_gpio.cpp **** 
 495:Drivers/STM32L1xx_HAL_Driver/stm32l1xx_hal_gpio.cpp **** /**
 496:Drivers/STM32L1xx_HAL_Driver/stm32l1xx_hal_gpio.cpp ****   * @brief This function handles EXTI interrupt request.
 497:Drivers/STM32L1xx_HAL_Driver/stm32l1xx_hal_gpio.cpp ****   * @param GPIO_Pin: Specifies the pins connected EXTI line
 498:Drivers/STM32L1xx_HAL_Driver/stm32l1xx_hal_gpio.cpp ****   * @retval None
 499:Drivers/STM32L1xx_HAL_Driver/stm32l1xx_hal_gpio.cpp ****   */
ARM GAS  /tmp/cczCLpdy.s 			page 27


 500:Drivers/STM32L1xx_HAL_Driver/stm32l1xx_hal_gpio.cpp **** void HAL_GPIO_EXTI_IRQHandler(uint16_t GPIO_Pin)
 501:Drivers/STM32L1xx_HAL_Driver/stm32l1xx_hal_gpio.cpp **** {
 980              		.loc 1 501 0
 981              		.cfi_startproc
 982              		@ args = 0, pretend = 0, frame = 8
 983              		@ frame_needed = 1, uses_anonymous_args = 0
 984 0000 80B5     		push	{r7, lr}	@
 985              	.LCFI18:
 986              		.cfi_def_cfa_offset 8
 987              		.cfi_offset 7, -8
 988              		.cfi_offset 14, -4
 989 0002 82B0     		sub	sp, sp, #8	@,,
 990              	.LCFI19:
 991              		.cfi_def_cfa_offset 16
 992 0004 00AF     		add	r7, sp, #0	@,,
 993              	.LCFI20:
 994              		.cfi_def_cfa_register 7
 995 0006 0346     		mov	r3, r0	@ tmp141, GPIO_Pin
 996 0008 FB80     		strh	r3, [r7, #6]	@ movhi	@ tmp142, GPIO_Pin
 502:Drivers/STM32L1xx_HAL_Driver/stm32l1xx_hal_gpio.cpp ****   /* EXTI line interrupt detected */
 503:Drivers/STM32L1xx_HAL_Driver/stm32l1xx_hal_gpio.cpp ****   if(__HAL_GPIO_EXTI_GET_IT(GPIO_Pin) != RESET) 
 997              		.loc 1 503 0
 998 000a 4FF48063 		mov	r3, #1024	@ D.5877,
 999 000e C4F20103 		movt	r3, 16385	@ D.5877,
 1000 0012 5A69     		ldr	r2, [r3, #20]	@ D.5878, D.5877_1->PR
 1001 0014 FB88     		ldrh	r3, [r7, #6]	@ D.5879, GPIO_Pin
 1002 0016 1340     		ands	r3, r3, r2	@, D.5880, D.5879, D.5878
 1003 0018 002B     		cmp	r3, #0	@ D.5880,
 1004 001a 0CBF     		ite	eq	@
 1005 001c 0023     		moveq	r3, #0	@, tmp144
 1006 001e 0123     		movne	r3, #1	@, tmp144
 1007 0020 DBB2     		uxtb	r3, r3	@ retval.0, tmp143
 1008 0022 002B     		cmp	r3, #0	@ retval.0,
 1009 0024 09D0     		beq	.L40	@,
 504:Drivers/STM32L1xx_HAL_Driver/stm32l1xx_hal_gpio.cpp ****   { 
 505:Drivers/STM32L1xx_HAL_Driver/stm32l1xx_hal_gpio.cpp ****     __HAL_GPIO_EXTI_CLEAR_IT(GPIO_Pin);
 1010              		.loc 1 505 0
 1011 0026 4FF48063 		mov	r3, #1024	@ D.5883,
 1012 002a C4F20103 		movt	r3, 16385	@ D.5883,
 1013 002e FA88     		ldrh	r2, [r7, #6]	@ D.5884, GPIO_Pin
 1014 0030 5A61     		str	r2, [r3, #20]	@ D.5884, D.5883_7->PR
 506:Drivers/STM32L1xx_HAL_Driver/stm32l1xx_hal_gpio.cpp ****     HAL_GPIO_EXTI_Callback(GPIO_Pin);
 1015              		.loc 1 506 0
 1016 0032 FB88     		ldrh	r3, [r7, #6]	@ tmp145, GPIO_Pin
 1017 0034 1846     		mov	r0, r3	@, tmp145
 1018 0036 FFF7FEFF 		bl	HAL_GPIO_EXTI_Callback	@
 1019              	.L40:
 507:Drivers/STM32L1xx_HAL_Driver/stm32l1xx_hal_gpio.cpp ****   }
 508:Drivers/STM32L1xx_HAL_Driver/stm32l1xx_hal_gpio.cpp **** }
 1020              		.loc 1 508 0
 1021 003a 07F10807 		add	r7, r7, #8	@,,
 1022 003e BD46     		mov	sp, r7
 1023 0040 80BD     		pop	{r7, pc}
 1024              		.cfi_endproc
 1025              	.LFE62:
 1026              		.size	HAL_GPIO_EXTI_IRQHandler, .-HAL_GPIO_EXTI_IRQHandler
 1027 0042 00BF     		.section	.text.HAL_GPIO_EXTI_Callback,"ax",%progbits
ARM GAS  /tmp/cczCLpdy.s 			page 28


 1028              		.align	2
 1029              		.weak	HAL_GPIO_EXTI_Callback
 1030              		.thumb
 1031              		.thumb_func
 1032              		.type	HAL_GPIO_EXTI_Callback, %function
 1033              	HAL_GPIO_EXTI_Callback:
 1034              	.LFB63:
 509:Drivers/STM32L1xx_HAL_Driver/stm32l1xx_hal_gpio.cpp **** 
 510:Drivers/STM32L1xx_HAL_Driver/stm32l1xx_hal_gpio.cpp **** /**
 511:Drivers/STM32L1xx_HAL_Driver/stm32l1xx_hal_gpio.cpp ****   * @brief  EXTI line detection callback
 512:Drivers/STM32L1xx_HAL_Driver/stm32l1xx_hal_gpio.cpp ****   * @param GPIO_Pin: Specifies the pins connected EXTI line
 513:Drivers/STM32L1xx_HAL_Driver/stm32l1xx_hal_gpio.cpp ****   * @retval None
 514:Drivers/STM32L1xx_HAL_Driver/stm32l1xx_hal_gpio.cpp ****   */
 515:Drivers/STM32L1xx_HAL_Driver/stm32l1xx_hal_gpio.cpp **** __weak void HAL_GPIO_EXTI_Callback(uint16_t GPIO_Pin)
 516:Drivers/STM32L1xx_HAL_Driver/stm32l1xx_hal_gpio.cpp **** {
 1035              		.loc 1 516 0
 1036              		.cfi_startproc
 1037              		@ args = 0, pretend = 0, frame = 8
 1038              		@ frame_needed = 1, uses_anonymous_args = 0
 1039              		@ link register save eliminated.
 1040 0000 80B4     		push	{r7}	@
 1041              	.LCFI21:
 1042              		.cfi_def_cfa_offset 4
 1043              		.cfi_offset 7, -4
 1044 0002 83B0     		sub	sp, sp, #12	@,,
 1045              	.LCFI22:
 1046              		.cfi_def_cfa_offset 16
 1047 0004 00AF     		add	r7, sp, #0	@,,
 1048              	.LCFI23:
 1049              		.cfi_def_cfa_register 7
 1050 0006 0346     		mov	r3, r0	@ tmp134, GPIO_Pin
 1051 0008 FB80     		strh	r3, [r7, #6]	@ movhi	@ tmp135, GPIO_Pin
 517:Drivers/STM32L1xx_HAL_Driver/stm32l1xx_hal_gpio.cpp ****   /* NOTE : This function Should not be modified, when the callback is needed,
 518:Drivers/STM32L1xx_HAL_Driver/stm32l1xx_hal_gpio.cpp ****             the HAL_GPIO_EXTI_Callback could be implemented in the user file
 519:Drivers/STM32L1xx_HAL_Driver/stm32l1xx_hal_gpio.cpp ****    */ 
 520:Drivers/STM32L1xx_HAL_Driver/stm32l1xx_hal_gpio.cpp **** }
 1052              		.loc 1 520 0
 1053 000a 07F10C07 		add	r7, r7, #12	@,,
 1054 000e BD46     		mov	sp, r7
 1055 0010 80BC     		pop	{r7}
 1056 0012 7047     		bx	lr
 1057              		.cfi_endproc
 1058              	.LFE63:
 1059              		.size	HAL_GPIO_EXTI_Callback, .-HAL_GPIO_EXTI_Callback
 1060              		.text
 1061              	.Letext0:
 1062              		.file 2 "/home/maciek/gcc-arm-none-eabi/gcc-arm-none-eabi-4_7-2013q1/bin/../lib/gcc/arm-none-eabi/
 1063              		.file 3 "Drivers/CMSIS/Device/ST/STM32L1xx/stm32l152xb.h"
 1064              		.file 4 "Drivers/CMSIS/Device/ST/STM32L1xx/stm32l1xx.h"
 1065              		.file 5 "Drivers/STM32L1xx_HAL_Driver/stm32l1xx_hal_def.h"
 1066              		.file 6 "Drivers/STM32L1xx_HAL_Driver/stm32l1xx_hal_gpio.h"
 1067              		.file 7 "Drivers/CMSIS/Include/core_cm3.h"