ARM GAS  /tmp/ccwmM6Ug.s 			page 1


   1              		.syntax unified
   2              		.cpu cortex-m3
   3              		.fpu softvfp
   4              		.eabi_attribute 20, 1	@ Tag_ABI_FP_denormal
   5              		.eabi_attribute 21, 1	@ Tag_ABI_FP_exceptions
   6              		.eabi_attribute 23, 3	@ Tag_ABI_FP_number_model
   7              		.eabi_attribute 24, 1	@ Tag_ABI_align8_needed
   8              		.eabi_attribute 25, 1	@ Tag_ABI_align8_preserved
   9              		.eabi_attribute 26, 1	@ Tag_ABI_enum_size
  10              		.eabi_attribute 30, 6	@ Tag_ABI_optimization_goals
  11              		.eabi_attribute 34, 1	@ Tag_CPU_unaligned_access
  12              		.eabi_attribute 18, 4	@ Tag_ABI_PCS_wchar_t
  13              		.file	"stm32l1xx_hal_flash_ex.cpp"
  14              	@ GNU C++ (GNU Tools for ARM Embedded Processors) version 4.7.3 20130312 (release) [ARM/embedded-4_
  15              	@	compiled by GNU C version 4.3.6, GMP version 4.3.2, MPFR version 2.4.2, MPC version 0.8.1
  16              	@ GGC heuristics: --param ggc-min-expand=100 --param ggc-min-heapsize=131072
  17              	@ options passed:  -I . -I Src -I hdr -I Inc -I Middlewares
  18              	@ -I Middlewares/ST -I Middlewares/ST/STM32_USB_Device_Library/Class/CDC
  19              	@ -I Middlewares/ST/STM32_USB_Device_Library/Core -I Drivers
  20              	@ -I Drivers/CMSIS -I Drivers/CMSIS/Device/ST/STM32L1xx
  21              	@ -I Drivers/CMSIS/Include -I Drivers/STM32L1xx_HAL_Driver
  22              	@ -imultilib armv7-m
  23              	@ -iprefix /home/maciek/gcc-arm-none-eabi/gcc-arm-none-eabi-4_7-2013q1/bin/../lib/gcc/arm-none-eabi
  24              	@ -isysroot /home/maciek/gcc-arm-none-eabi/gcc-arm-none-eabi-4_7-2013q1/bin/../arm-none-eabi
  25              	@ -MD out/stm32l1xx_hal_flash_ex.d -MF out/stm32l1xx_hal_flash_ex.d -MP
  26              	@ -MQ out/stm32l1xx_hal_flash_ex.o -D__USES_INITFINI__ -D STM32L1XX_MD
  27              	@ Drivers/STM32L1xx_HAL_Driver/stm32l1xx_hal_flash_ex.cpp -mcpu=cortex-m3
  28              	@ -mthumb -auxbase-strip out/stm32l1xx_hal_flash_ex.o -g -ggdb3 -O0 -Wall
  29              	@ -Wextra -std=gnu++11 -ffunction-sections -fdata-sections -fno-rtti
  30              	@ -fno-exceptions -fverbose-asm
  31              	@ options enabled:  -fauto-inc-dec -fbranch-count-reg -fcommon
  32              	@ -fdata-sections -fdebug-types-section -fdelete-null-pointer-checks
  33              	@ -fdwarf2-cfi-asm -fearly-inlining -feliminate-unused-debug-types
  34              	@ -ffunction-cse -ffunction-sections -fgcse-lm -fgnu-runtime -fident
  35              	@ -finline-atomics -fira-share-save-slots -fira-share-spill-slots -fivopts
  36              	@ -fkeep-static-consts -fleading-underscore -fmath-errno
  37              	@ -fmerge-debug-strings -fmove-loop-invariants -fpeephole
  38              	@ -fprefetch-loop-arrays -freg-struct-return
  39              	@ -fsched-critical-path-heuristic -fsched-dep-count-heuristic
  40              	@ -fsched-group-heuristic -fsched-interblock -fsched-last-insn-heuristic
  41              	@ -fsched-rank-heuristic -fsched-spec -fsched-spec-insn-heuristic
  42              	@ -fsched-stalled-insns-dep -fshow-column -fsigned-zeros
  43              	@ -fsplit-ivs-in-unroller -fstrict-volatile-bitfields -ftrapping-math
  44              	@ -ftree-cselim -ftree-forwprop -ftree-loop-if-convert -ftree-loop-im
  45              	@ -ftree-loop-ivcanon -ftree-loop-optimize -ftree-parallelize-loops=
  46              	@ -ftree-phiprop -ftree-pta -ftree-reassoc -ftree-scev-cprop
  47              	@ -ftree-slp-vectorize -ftree-vect-loop-version -funit-at-a-time
  48              	@ -fverbose-asm -fzero-initialized-in-bss -mfix-cortex-m3-ldrd
  49              	@ -mlittle-endian -msched-prolog -mthumb -munaligned-access
  50              	@ -mvectorize-with-neon-quad
  51              	
  52              		.text
  53              	.Ltext0:
  54              		.cfi_sections	.debug_frame
  55              		.section	.text.HAL_FLASHEx_Erase,"ax",%progbits
  56              		.align	2
  57              		.global	HAL_FLASHEx_Erase
ARM GAS  /tmp/ccwmM6Ug.s 			page 2


  58              		.thumb
  59              		.thumb_func
  60              		.type	HAL_FLASHEx_Erase, %function
  61              	HAL_FLASHEx_Erase:
  62              	.LFB56:
  63              		.file 1 "Drivers/STM32L1xx_HAL_Driver/stm32l1xx_hal_flash_ex.cpp"
   1:Drivers/STM32L1xx_HAL_Driver/stm32l1xx_hal_flash_ex.cpp **** /**
   2:Drivers/STM32L1xx_HAL_Driver/stm32l1xx_hal_flash_ex.cpp ****   ******************************************************************************
   3:Drivers/STM32L1xx_HAL_Driver/stm32l1xx_hal_flash_ex.cpp ****   * @file    stm32l1xx_hal_flash_ex.c
   4:Drivers/STM32L1xx_HAL_Driver/stm32l1xx_hal_flash_ex.cpp ****   * @author  MCD Application Team
   5:Drivers/STM32L1xx_HAL_Driver/stm32l1xx_hal_flash_ex.cpp ****   * @version V1.0.0
   6:Drivers/STM32L1xx_HAL_Driver/stm32l1xx_hal_flash_ex.cpp ****   * @date    5-September-2014
   7:Drivers/STM32L1xx_HAL_Driver/stm32l1xx_hal_flash_ex.cpp ****   * @brief   FLASH HAL module driver.
   8:Drivers/STM32L1xx_HAL_Driver/stm32l1xx_hal_flash_ex.cpp ****   *          This file provides firmware functions to manage the following 
   9:Drivers/STM32L1xx_HAL_Driver/stm32l1xx_hal_flash_ex.cpp ****   *          functionalities of the internal FLASH memory:
  10:Drivers/STM32L1xx_HAL_Driver/stm32l1xx_hal_flash_ex.cpp ****   *            + FLASH Interface configuration
  11:Drivers/STM32L1xx_HAL_Driver/stm32l1xx_hal_flash_ex.cpp ****   *            + FLASH Memory Erasing
  12:Drivers/STM32L1xx_HAL_Driver/stm32l1xx_hal_flash_ex.cpp ****   *            + DATA EEPROM Programming/Erasing
  13:Drivers/STM32L1xx_HAL_Driver/stm32l1xx_hal_flash_ex.cpp ****   *            + Option Bytes Programming
  14:Drivers/STM32L1xx_HAL_Driver/stm32l1xx_hal_flash_ex.cpp ****   *            + Interrupts management
  15:Drivers/STM32L1xx_HAL_Driver/stm32l1xx_hal_flash_ex.cpp ****   *    
  16:Drivers/STM32L1xx_HAL_Driver/stm32l1xx_hal_flash_ex.cpp ****   *  @verbatim
  17:Drivers/STM32L1xx_HAL_Driver/stm32l1xx_hal_flash_ex.cpp ****   ==============================================================================
  18:Drivers/STM32L1xx_HAL_Driver/stm32l1xx_hal_flash_ex.cpp ****                ##### Flash peripheral Extended features  #####
  19:Drivers/STM32L1xx_HAL_Driver/stm32l1xx_hal_flash_ex.cpp ****   ==============================================================================
  20:Drivers/STM32L1xx_HAL_Driver/stm32l1xx_hal_flash_ex.cpp ****            
  21:Drivers/STM32L1xx_HAL_Driver/stm32l1xx_hal_flash_ex.cpp ****   [..] Comparing to other products, the FLASH interface for STM32L1xx
  22:Drivers/STM32L1xx_HAL_Driver/stm32l1xx_hal_flash_ex.cpp ****        devices contains the following additional features        
  23:Drivers/STM32L1xx_HAL_Driver/stm32l1xx_hal_flash_ex.cpp ****        (+) Erase functions
  24:Drivers/STM32L1xx_HAL_Driver/stm32l1xx_hal_flash_ex.cpp ****        (+) DATA_EEPROM memory management
  25:Drivers/STM32L1xx_HAL_Driver/stm32l1xx_hal_flash_ex.cpp ****        (+) BOOT option bit configuration       
  26:Drivers/STM32L1xx_HAL_Driver/stm32l1xx_hal_flash_ex.cpp ****        (+) PCROP protection for all sectors
  27:Drivers/STM32L1xx_HAL_Driver/stm32l1xx_hal_flash_ex.cpp ****    
  28:Drivers/STM32L1xx_HAL_Driver/stm32l1xx_hal_flash_ex.cpp ****                       ##### How to use this driver #####
  29:Drivers/STM32L1xx_HAL_Driver/stm32l1xx_hal_flash_ex.cpp ****   ==============================================================================
  30:Drivers/STM32L1xx_HAL_Driver/stm32l1xx_hal_flash_ex.cpp ****   [..] This driver provides functions to configure and program the FLASH memory 
  31:Drivers/STM32L1xx_HAL_Driver/stm32l1xx_hal_flash_ex.cpp ****        of all STM32L1xx. It includes:       
  32:Drivers/STM32L1xx_HAL_Driver/stm32l1xx_hal_flash_ex.cpp ****        (+) Full DATA_EEPROM erase and program management
  33:Drivers/STM32L1xx_HAL_Driver/stm32l1xx_hal_flash_ex.cpp ****        (+) Boot activation
  34:Drivers/STM32L1xx_HAL_Driver/stm32l1xx_hal_flash_ex.cpp ****        (+) PCROP protection configuration and control for all pages
  35:Drivers/STM32L1xx_HAL_Driver/stm32l1xx_hal_flash_ex.cpp ****   
  36:Drivers/STM32L1xx_HAL_Driver/stm32l1xx_hal_flash_ex.cpp ****   @endverbatim
  37:Drivers/STM32L1xx_HAL_Driver/stm32l1xx_hal_flash_ex.cpp ****   ******************************************************************************
  38:Drivers/STM32L1xx_HAL_Driver/stm32l1xx_hal_flash_ex.cpp ****   * @attention
  39:Drivers/STM32L1xx_HAL_Driver/stm32l1xx_hal_flash_ex.cpp ****   *
  40:Drivers/STM32L1xx_HAL_Driver/stm32l1xx_hal_flash_ex.cpp ****   * <h2><center>&copy; COPYRIGHT(c) 2014 STMicroelectronics</center></h2>
  41:Drivers/STM32L1xx_HAL_Driver/stm32l1xx_hal_flash_ex.cpp ****   *
  42:Drivers/STM32L1xx_HAL_Driver/stm32l1xx_hal_flash_ex.cpp ****   * Redistribution and use in source and binary forms, with or without modification,
  43:Drivers/STM32L1xx_HAL_Driver/stm32l1xx_hal_flash_ex.cpp ****   * are permitted provided that the following conditions are met:
  44:Drivers/STM32L1xx_HAL_Driver/stm32l1xx_hal_flash_ex.cpp ****   *   1. Redistributions of source code must retain the above copyright notice,
  45:Drivers/STM32L1xx_HAL_Driver/stm32l1xx_hal_flash_ex.cpp ****   *      this list of conditions and the following disclaimer.
  46:Drivers/STM32L1xx_HAL_Driver/stm32l1xx_hal_flash_ex.cpp ****   *   2. Redistributions in binary form must reproduce the above copyright notice,
  47:Drivers/STM32L1xx_HAL_Driver/stm32l1xx_hal_flash_ex.cpp ****   *      this list of conditions and the following disclaimer in the documentation
  48:Drivers/STM32L1xx_HAL_Driver/stm32l1xx_hal_flash_ex.cpp ****   *      and/or other materials provided with the distribution.
  49:Drivers/STM32L1xx_HAL_Driver/stm32l1xx_hal_flash_ex.cpp ****   *   3. Neither the name of STMicroelectronics nor the names of its contributors
  50:Drivers/STM32L1xx_HAL_Driver/stm32l1xx_hal_flash_ex.cpp ****   *      may be used to endorse or promote products derived from this software
  51:Drivers/STM32L1xx_HAL_Driver/stm32l1xx_hal_flash_ex.cpp ****   *      without specific prior written permission.
ARM GAS  /tmp/ccwmM6Ug.s 			page 3


  52:Drivers/STM32L1xx_HAL_Driver/stm32l1xx_hal_flash_ex.cpp ****   *
  53:Drivers/STM32L1xx_HAL_Driver/stm32l1xx_hal_flash_ex.cpp ****   * THIS SOFTWARE IS PROVIDED BY THE COPYRIGHT HOLDERS AND CONTRIBUTORS "AS IS"
  54:Drivers/STM32L1xx_HAL_Driver/stm32l1xx_hal_flash_ex.cpp ****   * AND ANY EXPRESS OR IMPLIED WARRANTIES, INCLUDING, BUT NOT LIMITED TO, THE
  55:Drivers/STM32L1xx_HAL_Driver/stm32l1xx_hal_flash_ex.cpp ****   * IMPLIED WARRANTIES OF MERCHANTABILITY AND FITNESS FOR A PARTICULAR PURPOSE ARE
  56:Drivers/STM32L1xx_HAL_Driver/stm32l1xx_hal_flash_ex.cpp ****   * DISCLAIMED. IN NO EVENT SHALL THE COPYRIGHT HOLDER OR CONTRIBUTORS BE LIABLE
  57:Drivers/STM32L1xx_HAL_Driver/stm32l1xx_hal_flash_ex.cpp ****   * FOR ANY DIRECT, INDIRECT, INCIDENTAL, SPECIAL, EXEMPLARY, OR CONSEQUENTIAL
  58:Drivers/STM32L1xx_HAL_Driver/stm32l1xx_hal_flash_ex.cpp ****   * DAMAGES (INCLUDING, BUT NOT LIMITED TO, PROCUREMENT OF SUBSTITUTE GOODS OR
  59:Drivers/STM32L1xx_HAL_Driver/stm32l1xx_hal_flash_ex.cpp ****   * SERVICES; LOSS OF USE, DATA, OR PROFITS; OR BUSINESS INTERRUPTION) HOWEVER
  60:Drivers/STM32L1xx_HAL_Driver/stm32l1xx_hal_flash_ex.cpp ****   * CAUSED AND ON ANY THEORY OF LIABILITY, WHETHER IN CONTRACT, STRICT LIABILITY,
  61:Drivers/STM32L1xx_HAL_Driver/stm32l1xx_hal_flash_ex.cpp ****   * OR TORT (INCLUDING NEGLIGENCE OR OTHERWISE) ARISING IN ANY WAY OUT OF THE USE
  62:Drivers/STM32L1xx_HAL_Driver/stm32l1xx_hal_flash_ex.cpp ****   * OF THIS SOFTWARE, EVEN IF ADVISED OF THE POSSIBILITY OF SUCH DAMAGE.
  63:Drivers/STM32L1xx_HAL_Driver/stm32l1xx_hal_flash_ex.cpp ****   *
  64:Drivers/STM32L1xx_HAL_Driver/stm32l1xx_hal_flash_ex.cpp ****   ******************************************************************************  
  65:Drivers/STM32L1xx_HAL_Driver/stm32l1xx_hal_flash_ex.cpp ****   */ 
  66:Drivers/STM32L1xx_HAL_Driver/stm32l1xx_hal_flash_ex.cpp **** 
  67:Drivers/STM32L1xx_HAL_Driver/stm32l1xx_hal_flash_ex.cpp **** /* Includes ------------------------------------------------------------------*/
  68:Drivers/STM32L1xx_HAL_Driver/stm32l1xx_hal_flash_ex.cpp **** #include "stm32l1xx_hal.h"
  69:Drivers/STM32L1xx_HAL_Driver/stm32l1xx_hal_flash_ex.cpp **** #include <stdint.h>
  70:Drivers/STM32L1xx_HAL_Driver/stm32l1xx_hal_flash_ex.cpp **** /** @addtogroup STM32L1xx_HAL_Driver
  71:Drivers/STM32L1xx_HAL_Driver/stm32l1xx_hal_flash_ex.cpp ****   * @{
  72:Drivers/STM32L1xx_HAL_Driver/stm32l1xx_hal_flash_ex.cpp ****   */
  73:Drivers/STM32L1xx_HAL_Driver/stm32l1xx_hal_flash_ex.cpp **** 
  74:Drivers/STM32L1xx_HAL_Driver/stm32l1xx_hal_flash_ex.cpp **** /** @defgroup FLASHEx FLASHEx
  75:Drivers/STM32L1xx_HAL_Driver/stm32l1xx_hal_flash_ex.cpp ****   * @brief FLASH HAL Extension module driver
  76:Drivers/STM32L1xx_HAL_Driver/stm32l1xx_hal_flash_ex.cpp ****   * @{
  77:Drivers/STM32L1xx_HAL_Driver/stm32l1xx_hal_flash_ex.cpp ****   */
  78:Drivers/STM32L1xx_HAL_Driver/stm32l1xx_hal_flash_ex.cpp **** 
  79:Drivers/STM32L1xx_HAL_Driver/stm32l1xx_hal_flash_ex.cpp **** #ifdef HAL_FLASH_MODULE_ENABLED
  80:Drivers/STM32L1xx_HAL_Driver/stm32l1xx_hal_flash_ex.cpp **** 
  81:Drivers/STM32L1xx_HAL_Driver/stm32l1xx_hal_flash_ex.cpp **** /* Private typedef -----------------------------------------------------------*/
  82:Drivers/STM32L1xx_HAL_Driver/stm32l1xx_hal_flash_ex.cpp **** /* Private define ------------------------------------------------------------*/
  83:Drivers/STM32L1xx_HAL_Driver/stm32l1xx_hal_flash_ex.cpp **** /* Private macro -------------------------------------------------------------*/
  84:Drivers/STM32L1xx_HAL_Driver/stm32l1xx_hal_flash_ex.cpp **** /* Private variables ---------------------------------------------------------*/
  85:Drivers/STM32L1xx_HAL_Driver/stm32l1xx_hal_flash_ex.cpp **** /* Private function prototypes -----------------------------------------------*/
  86:Drivers/STM32L1xx_HAL_Driver/stm32l1xx_hal_flash_ex.cpp **** static void               FLASH_SetErrorCode(void);
  87:Drivers/STM32L1xx_HAL_Driver/stm32l1xx_hal_flash_ex.cpp **** static void               FLASH_ErasePage(uint32_t PageAddress);
  88:Drivers/STM32L1xx_HAL_Driver/stm32l1xx_hal_flash_ex.cpp **** 
  89:Drivers/STM32L1xx_HAL_Driver/stm32l1xx_hal_flash_ex.cpp **** static HAL_StatusTypeDef  FLASH_OB_WRPConfig(FLASH_OBProgramInitTypeDef *pOBInit, FunctionalState N
  90:Drivers/STM32L1xx_HAL_Driver/stm32l1xx_hal_flash_ex.cpp **** static void               FLASH_OB_WRPConfigWRP1OrPCROP1(uint32_t WRP1OrPCROP1, FunctionalState New
  91:Drivers/STM32L1xx_HAL_Driver/stm32l1xx_hal_flash_ex.cpp **** #if defined(STM32L100xC) || defined (STM32L151xC) || defined (STM32L152xC) || defined (STM32L162xC)
  92:Drivers/STM32L1xx_HAL_Driver/stm32l1xx_hal_flash_ex.cpp ****       defined(STM32L151xCA) || defined (STM32L151xD) || defined (STM32L152xCA) || defined (STM32L15
  93:Drivers/STM32L1xx_HAL_Driver/stm32l1xx_hal_flash_ex.cpp ****       defined(STM32L151xE) || defined (STM32L152xE) || defined (STM32L162xE)
  94:Drivers/STM32L1xx_HAL_Driver/stm32l1xx_hal_flash_ex.cpp **** static void               FLASH_OB_WRPConfigWRP2OrPCROP2(uint32_t WRP2OrPCROP2, FunctionalState New
  95:Drivers/STM32L1xx_HAL_Driver/stm32l1xx_hal_flash_ex.cpp **** #endif /* STM32L100xC || STM32L151xC || STM32L152xC || STM32L162xC || STM32L151xCA || STM32L151xD |
  96:Drivers/STM32L1xx_HAL_Driver/stm32l1xx_hal_flash_ex.cpp **** #if defined (STM32L151xD) || defined (STM32L152xD) || defined (STM32L162xD) || \
  97:Drivers/STM32L1xx_HAL_Driver/stm32l1xx_hal_flash_ex.cpp ****     defined(STM32L151xE) || defined (STM32L152xE) || defined (STM32L162xE)
  98:Drivers/STM32L1xx_HAL_Driver/stm32l1xx_hal_flash_ex.cpp **** static void               FLASH_OB_WRPConfigWRP3(uint32_t WRP3, FunctionalState NewState);
  99:Drivers/STM32L1xx_HAL_Driver/stm32l1xx_hal_flash_ex.cpp **** #endif /* STM32L151xD || STM32L152xD || STM32L162xD || STM32L151xE || STM32L152xE || STM32L162xE */
 100:Drivers/STM32L1xx_HAL_Driver/stm32l1xx_hal_flash_ex.cpp **** #if defined(STM32L151xE) || defined (STM32L152xE) || defined (STM32L162xE)
 101:Drivers/STM32L1xx_HAL_Driver/stm32l1xx_hal_flash_ex.cpp **** static void               FLASH_OB_WRPConfigWRP4(uint32_t WRP4, FunctionalState NewState);
 102:Drivers/STM32L1xx_HAL_Driver/stm32l1xx_hal_flash_ex.cpp **** #endif /* STM32L151xE || STM32L152xE || STM32L162xE */
 103:Drivers/STM32L1xx_HAL_Driver/stm32l1xx_hal_flash_ex.cpp **** static HAL_StatusTypeDef  FLASH_OB_RDPConfig(uint8_t OB_RDP);
 104:Drivers/STM32L1xx_HAL_Driver/stm32l1xx_hal_flash_ex.cpp **** static HAL_StatusTypeDef  FLASH_OB_UserConfig(uint8_t OB_IWDG, uint8_t OB_STOP, uint8_t OB_STDBY);
 105:Drivers/STM32L1xx_HAL_Driver/stm32l1xx_hal_flash_ex.cpp **** static HAL_StatusTypeDef  FLASH_OB_BORConfig(uint8_t OB_BOR);
 106:Drivers/STM32L1xx_HAL_Driver/stm32l1xx_hal_flash_ex.cpp **** static uint8_t            FLASH_OB_GetRDP(void);
 107:Drivers/STM32L1xx_HAL_Driver/stm32l1xx_hal_flash_ex.cpp **** static uint8_t            FLASH_OB_GetUser(void);
 108:Drivers/STM32L1xx_HAL_Driver/stm32l1xx_hal_flash_ex.cpp **** static uint8_t            FLASH_OB_GetBOR(void);
ARM GAS  /tmp/ccwmM6Ug.s 			page 4


 109:Drivers/STM32L1xx_HAL_Driver/stm32l1xx_hal_flash_ex.cpp **** #if defined (STM32L151xBA) || defined (STM32L152xBA) || \
 110:Drivers/STM32L1xx_HAL_Driver/stm32l1xx_hal_flash_ex.cpp ****     defined (STM32L151xC) || defined (STM32L152xC) || defined (STM32L162xC)
 111:Drivers/STM32L1xx_HAL_Driver/stm32l1xx_hal_flash_ex.cpp **** static HAL_StatusTypeDef  FLASH_OB_PCROPConfig(FLASH_AdvOBProgramInitTypeDef *pAdvOBInit, Functiona
 112:Drivers/STM32L1xx_HAL_Driver/stm32l1xx_hal_flash_ex.cpp **** #endif /* STM32L151xBA || STM32L152xBA || STM32L151xC || STM32L152xC || STM32L162xC */
 113:Drivers/STM32L1xx_HAL_Driver/stm32l1xx_hal_flash_ex.cpp **** #if defined (STM32L151xD) || defined (STM32L152xD) || defined (STM32L162xD) || \
 114:Drivers/STM32L1xx_HAL_Driver/stm32l1xx_hal_flash_ex.cpp ****     defined(STM32L151xE) || defined (STM32L152xE) || defined (STM32L162xE)
 115:Drivers/STM32L1xx_HAL_Driver/stm32l1xx_hal_flash_ex.cpp **** static HAL_StatusTypeDef  FLASH_OB_BootConfig(uint8_t OB_BOOT);
 116:Drivers/STM32L1xx_HAL_Driver/stm32l1xx_hal_flash_ex.cpp **** #endif /* STM32L151xD || STM32L152xD || STM32L162xD || STM32L151xE || STM32L152xE || STM32L162xE */
 117:Drivers/STM32L1xx_HAL_Driver/stm32l1xx_hal_flash_ex.cpp **** 
 118:Drivers/STM32L1xx_HAL_Driver/stm32l1xx_hal_flash_ex.cpp **** static HAL_StatusTypeDef  FLASH_DATAEEPROM_FastProgramByte(uint32_t Address, uint8_t Data);
 119:Drivers/STM32L1xx_HAL_Driver/stm32l1xx_hal_flash_ex.cpp **** static HAL_StatusTypeDef  FLASH_DATAEEPROM_FastProgramHalfWord(uint32_t Address, uint16_t Data);
 120:Drivers/STM32L1xx_HAL_Driver/stm32l1xx_hal_flash_ex.cpp **** static HAL_StatusTypeDef  FLASH_DATAEEPROM_FastProgramWord(uint32_t Address, uint32_t Data);
 121:Drivers/STM32L1xx_HAL_Driver/stm32l1xx_hal_flash_ex.cpp **** static HAL_StatusTypeDef  FLASH_DATAEEPROM_ProgramWord(uint32_t Address, uint32_t Data);
 122:Drivers/STM32L1xx_HAL_Driver/stm32l1xx_hal_flash_ex.cpp **** static HAL_StatusTypeDef  FLASH_DATAEEPROM_ProgramHalfWord(uint32_t Address, uint16_t Data);
 123:Drivers/STM32L1xx_HAL_Driver/stm32l1xx_hal_flash_ex.cpp **** static HAL_StatusTypeDef  FLASH_DATAEEPROM_ProgramByte(uint32_t Address, uint8_t Data);
 124:Drivers/STM32L1xx_HAL_Driver/stm32l1xx_hal_flash_ex.cpp **** 
 125:Drivers/STM32L1xx_HAL_Driver/stm32l1xx_hal_flash_ex.cpp **** /* Exported functions ---------------------------------------------------------*/
 126:Drivers/STM32L1xx_HAL_Driver/stm32l1xx_hal_flash_ex.cpp **** 
 127:Drivers/STM32L1xx_HAL_Driver/stm32l1xx_hal_flash_ex.cpp **** /** @defgroup FLASHEx_Exported_Functions FLASHEx Exported functions
 128:Drivers/STM32L1xx_HAL_Driver/stm32l1xx_hal_flash_ex.cpp ****   * @{
 129:Drivers/STM32L1xx_HAL_Driver/stm32l1xx_hal_flash_ex.cpp ****   */
 130:Drivers/STM32L1xx_HAL_Driver/stm32l1xx_hal_flash_ex.cpp **** 
 131:Drivers/STM32L1xx_HAL_Driver/stm32l1xx_hal_flash_ex.cpp **** /** @defgroup FLASHEx_Exported_Functions_Group1 FLASH Memory Erasing functions
 132:Drivers/STM32L1xx_HAL_Driver/stm32l1xx_hal_flash_ex.cpp ****  *  @brief   FLASH Memory Erasing functions
 133:Drivers/STM32L1xx_HAL_Driver/stm32l1xx_hal_flash_ex.cpp ****  *
 134:Drivers/STM32L1xx_HAL_Driver/stm32l1xx_hal_flash_ex.cpp **** @verbatim   
 135:Drivers/STM32L1xx_HAL_Driver/stm32l1xx_hal_flash_ex.cpp ****   ==============================================================================
 136:Drivers/STM32L1xx_HAL_Driver/stm32l1xx_hal_flash_ex.cpp ****                 ##### FLASH Erasing Programming functions ##### 
 137:Drivers/STM32L1xx_HAL_Driver/stm32l1xx_hal_flash_ex.cpp ****   ==============================================================================
 138:Drivers/STM32L1xx_HAL_Driver/stm32l1xx_hal_flash_ex.cpp **** 
 139:Drivers/STM32L1xx_HAL_Driver/stm32l1xx_hal_flash_ex.cpp ****     [..] The FLASH Memory Erasing functions, includes the following functions:
 140:Drivers/STM32L1xx_HAL_Driver/stm32l1xx_hal_flash_ex.cpp ****     (+) HAL_FLASHEx_Erase: return only when erase has been done
 141:Drivers/STM32L1xx_HAL_Driver/stm32l1xx_hal_flash_ex.cpp ****     (+) HAL_FLASHEx_Erase_IT: end of erase is done when HAL_FLASH_EndOfOperationCallback is called 
 142:Drivers/STM32L1xx_HAL_Driver/stm32l1xx_hal_flash_ex.cpp ****         0xFFFFFFFF
 143:Drivers/STM32L1xx_HAL_Driver/stm32l1xx_hal_flash_ex.cpp **** 
 144:Drivers/STM32L1xx_HAL_Driver/stm32l1xx_hal_flash_ex.cpp ****     [..] Any operation of erase should follow these steps:
 145:Drivers/STM32L1xx_HAL_Driver/stm32l1xx_hal_flash_ex.cpp ****     (#) Call the HAL_FLASH_Unlock() function to enable the flash control register and 
 146:Drivers/STM32L1xx_HAL_Driver/stm32l1xx_hal_flash_ex.cpp ****         program memory access.
 147:Drivers/STM32L1xx_HAL_Driver/stm32l1xx_hal_flash_ex.cpp ****     (#) Call the desired function to erase page.
 148:Drivers/STM32L1xx_HAL_Driver/stm32l1xx_hal_flash_ex.cpp ****     (#) Call the HAL_FLASH_Lock() to disable the flash program memory access 
 149:Drivers/STM32L1xx_HAL_Driver/stm32l1xx_hal_flash_ex.cpp ****        (recommended to protect the FLASH memory against possible unwanted operation).
 150:Drivers/STM32L1xx_HAL_Driver/stm32l1xx_hal_flash_ex.cpp **** 
 151:Drivers/STM32L1xx_HAL_Driver/stm32l1xx_hal_flash_ex.cpp **** @endverbatim
 152:Drivers/STM32L1xx_HAL_Driver/stm32l1xx_hal_flash_ex.cpp ****   * @{
 153:Drivers/STM32L1xx_HAL_Driver/stm32l1xx_hal_flash_ex.cpp ****   */
 154:Drivers/STM32L1xx_HAL_Driver/stm32l1xx_hal_flash_ex.cpp ****   
 155:Drivers/STM32L1xx_HAL_Driver/stm32l1xx_hal_flash_ex.cpp **** /**
 156:Drivers/STM32L1xx_HAL_Driver/stm32l1xx_hal_flash_ex.cpp ****   * @brief  Erase the specified FLASH memory Pages 
 157:Drivers/STM32L1xx_HAL_Driver/stm32l1xx_hal_flash_ex.cpp ****   * @note   To correctly run this function, the HAL_FLASH_Unlock() function
 158:Drivers/STM32L1xx_HAL_Driver/stm32l1xx_hal_flash_ex.cpp ****   *         must be called before.
 159:Drivers/STM32L1xx_HAL_Driver/stm32l1xx_hal_flash_ex.cpp ****   *         Call the HAL_FLASH_Lock() to disable the flash memory access 
 160:Drivers/STM32L1xx_HAL_Driver/stm32l1xx_hal_flash_ex.cpp ****   *         (recommended to protect the FLASH memory against possible unwanted operation)
 161:Drivers/STM32L1xx_HAL_Driver/stm32l1xx_hal_flash_ex.cpp ****   * @param[in]  pEraseInit: pointer to an FLASH_EraseInitTypeDef structure that
 162:Drivers/STM32L1xx_HAL_Driver/stm32l1xx_hal_flash_ex.cpp ****   *         contains the configuration information for the erasing.
 163:Drivers/STM32L1xx_HAL_Driver/stm32l1xx_hal_flash_ex.cpp ****   * 
 164:Drivers/STM32L1xx_HAL_Driver/stm32l1xx_hal_flash_ex.cpp ****   * @param[out]  PageError: pointer to variable  that
 165:Drivers/STM32L1xx_HAL_Driver/stm32l1xx_hal_flash_ex.cpp ****   *         contains the configuration information on faulty sector in case of error 
ARM GAS  /tmp/ccwmM6Ug.s 			page 5


 166:Drivers/STM32L1xx_HAL_Driver/stm32l1xx_hal_flash_ex.cpp ****   *         (0xFFFFFFFF means that all the sectors have been correctly erased)
 167:Drivers/STM32L1xx_HAL_Driver/stm32l1xx_hal_flash_ex.cpp ****   * 
 168:Drivers/STM32L1xx_HAL_Driver/stm32l1xx_hal_flash_ex.cpp ****   * @retval HAL_StatusTypeDef HAL Status
 169:Drivers/STM32L1xx_HAL_Driver/stm32l1xx_hal_flash_ex.cpp ****   */
 170:Drivers/STM32L1xx_HAL_Driver/stm32l1xx_hal_flash_ex.cpp **** HAL_StatusTypeDef HAL_FLASHEx_Erase(FLASH_EraseInitTypeDef *pEraseInit, uint32_t *PageError)
 171:Drivers/STM32L1xx_HAL_Driver/stm32l1xx_hal_flash_ex.cpp **** {
  64              		.loc 1 171 0
  65              		.cfi_startproc
  66              		@ args = 0, pretend = 0, frame = 16
  67              		@ frame_needed = 1, uses_anonymous_args = 0
  68 0000 80B5     		push	{r7, lr}	@
  69              	.LCFI0:
  70              		.cfi_def_cfa_offset 8
  71              		.cfi_offset 7, -8
  72              		.cfi_offset 14, -4
  73 0002 84B0     		sub	sp, sp, #16	@,,
  74              	.LCFI1:
  75              		.cfi_def_cfa_offset 24
  76 0004 00AF     		add	r7, sp, #0	@,,
  77              	.LCFI2:
  78              		.cfi_def_cfa_register 7
  79 0006 7860     		str	r0, [r7, #4]	@ pEraseInit, pEraseInit
  80 0008 3960     		str	r1, [r7, #0]	@ PageError, PageError
  81              	.LBB14:
 172:Drivers/STM32L1xx_HAL_Driver/stm32l1xx_hal_flash_ex.cpp ****   HAL_StatusTypeDef status = HAL_ERROR;
  82              		.loc 1 172 0
  83 000a 4FF00103 		mov	r3, #1	@ tmp150,
  84 000e FB73     		strb	r3, [r7, #15]	@ tmp151, status
 173:Drivers/STM32L1xx_HAL_Driver/stm32l1xx_hal_flash_ex.cpp ****   uint32_t index = 0;
  85              		.loc 1 173 0
  86 0010 4FF00003 		mov	r3, #0	@ tmp152,
  87 0014 BB60     		str	r3, [r7, #8]	@ tmp152, index
 174:Drivers/STM32L1xx_HAL_Driver/stm32l1xx_hal_flash_ex.cpp ****   
 175:Drivers/STM32L1xx_HAL_Driver/stm32l1xx_hal_flash_ex.cpp ****   /* Process Locked */
 176:Drivers/STM32L1xx_HAL_Driver/stm32l1xx_hal_flash_ex.cpp ****   __HAL_LOCK(&ProcFlash);
  88              		.loc 1 176 0
  89 0016 40F20003 		movw	r3, #:lower16:ProcFlash	@ tmp153,
  90 001a C0F20003 		movt	r3, #:upper16:ProcFlash	@ tmp153,
  91 001e 1B7C     		ldrb	r3, [r3, #16]	@ zero_extendqisi2	@ D.6600, ProcFlash.Lock
  92 0020 012B     		cmp	r3, #1	@ D.6600,
  93 0022 02D1     		bne	.L2	@,
  94              		.loc 1 176 0 is_stmt 0 discriminator 1
  95 0024 4FF00203 		mov	r3, #2	@ D.6603,
  96 0028 5AE0     		b	.L3	@
  97              	.L2:
  98              		.loc 1 176 0 discriminator 2
  99 002a 40F20003 		movw	r3, #:lower16:ProcFlash	@ tmp154,
 100 002e C0F20003 		movt	r3, #:upper16:ProcFlash	@ tmp154,
 101 0032 4FF00102 		mov	r2, #1	@ tmp155,
 102 0036 1A74     		strb	r2, [r3, #16]	@ tmp156, ProcFlash.Lock
 177:Drivers/STM32L1xx_HAL_Driver/stm32l1xx_hal_flash_ex.cpp **** 
 178:Drivers/STM32L1xx_HAL_Driver/stm32l1xx_hal_flash_ex.cpp ****   /* Wait for last operation to be completed */
 179:Drivers/STM32L1xx_HAL_Driver/stm32l1xx_hal_flash_ex.cpp ****   status = FLASH_WaitForLastOperation((uint32_t)HAL_FLASH_TIMEOUT_VALUE);
 103              		.loc 1 179 0 is_stmt 1 discriminator 2
 104 0038 4CF25030 		movw	r0, #50000	@,
 105 003c FFF7FEFF 		bl	FLASH_WaitForLastOperation	@
 106 0040 0346     		mov	r3, r0	@ tmp157,
ARM GAS  /tmp/ccwmM6Ug.s 			page 6


 107 0042 FB73     		strb	r3, [r7, #15]	@ tmp158, status
 180:Drivers/STM32L1xx_HAL_Driver/stm32l1xx_hal_flash_ex.cpp **** 
 181:Drivers/STM32L1xx_HAL_Driver/stm32l1xx_hal_flash_ex.cpp ****   if (status == HAL_OK)
 108              		.loc 1 181 0 discriminator 2
 109 0044 FB7B     		ldrb	r3, [r7, #15]	@ zero_extendqisi2	@ tmp159, status
 110 0046 002B     		cmp	r3, #0	@ tmp159,
 111 0048 42D1     		bne	.L4	@,
 182:Drivers/STM32L1xx_HAL_Driver/stm32l1xx_hal_flash_ex.cpp ****   {
 183:Drivers/STM32L1xx_HAL_Driver/stm32l1xx_hal_flash_ex.cpp ****     /*Initialization of PageError variable*/
 184:Drivers/STM32L1xx_HAL_Driver/stm32l1xx_hal_flash_ex.cpp ****     *PageError = 0xFFFFFFFF;
 112              		.loc 1 184 0
 113 004a 3B68     		ldr	r3, [r7, #0]	@ tmp160, PageError
 114 004c 4FF0FF32 		mov	r2, #-1	@ tmp161,
 115 0050 1A60     		str	r2, [r3, #0]	@ tmp161, *PageError_11(D)
 185:Drivers/STM32L1xx_HAL_Driver/stm32l1xx_hal_flash_ex.cpp **** 
 186:Drivers/STM32L1xx_HAL_Driver/stm32l1xx_hal_flash_ex.cpp ****     /* Check the parameters */
 187:Drivers/STM32L1xx_HAL_Driver/stm32l1xx_hal_flash_ex.cpp ****     assert_param(IS_NBPAGES(pEraseInit->NbPages));
 188:Drivers/STM32L1xx_HAL_Driver/stm32l1xx_hal_flash_ex.cpp ****     assert_param(IS_TYPEERASE(pEraseInit->TypeErase));
 189:Drivers/STM32L1xx_HAL_Driver/stm32l1xx_hal_flash_ex.cpp ****     assert_param(IS_FLASH_PROGRAM_ADDRESS(pEraseInit->PageAddress));
 190:Drivers/STM32L1xx_HAL_Driver/stm32l1xx_hal_flash_ex.cpp ****     assert_param(IS_FLASH_PROGRAM_ADDRESS(pEraseInit->PageAddress + pEraseInit->NbPages * FLASH_PAG
 191:Drivers/STM32L1xx_HAL_Driver/stm32l1xx_hal_flash_ex.cpp **** 
 192:Drivers/STM32L1xx_HAL_Driver/stm32l1xx_hal_flash_ex.cpp ****     /* Erase by sector by sector to be done*/
 193:Drivers/STM32L1xx_HAL_Driver/stm32l1xx_hal_flash_ex.cpp ****     for(index = pEraseInit->PageAddress; index < ((pEraseInit->NbPages * FLASH_PAGE_SIZE)+ pEraseIn
 116              		.loc 1 193 0
 117 0052 7B68     		ldr	r3, [r7, #4]	@ tmp162, pEraseInit
 118 0054 5B68     		ldr	r3, [r3, #4]	@ tmp163, pEraseInit_12(D)->PageAddress
 119 0056 BB60     		str	r3, [r7, #8]	@ tmp163, index
 120 0058 2BE0     		b	.L5	@
 121              	.L8:
 194:Drivers/STM32L1xx_HAL_Driver/stm32l1xx_hal_flash_ex.cpp ****     {
 195:Drivers/STM32L1xx_HAL_Driver/stm32l1xx_hal_flash_ex.cpp ****       FLASH_ErasePage(index);
 122              		.loc 1 195 0
 123 005a B868     		ldr	r0, [r7, #8]	@, index
 124 005c FFF7FEFF 		bl	_ZL15FLASH_ErasePagem	@
 196:Drivers/STM32L1xx_HAL_Driver/stm32l1xx_hal_flash_ex.cpp **** 
 197:Drivers/STM32L1xx_HAL_Driver/stm32l1xx_hal_flash_ex.cpp ****       /* Wait for last operation to be completed */
 198:Drivers/STM32L1xx_HAL_Driver/stm32l1xx_hal_flash_ex.cpp ****       status = FLASH_WaitForLastOperation((uint32_t)HAL_FLASH_TIMEOUT_VALUE);
 125              		.loc 1 198 0
 126 0060 4CF25030 		movw	r0, #50000	@,
 127 0064 FFF7FEFF 		bl	FLASH_WaitForLastOperation	@
 128 0068 0346     		mov	r3, r0	@ tmp164,
 129 006a FB73     		strb	r3, [r7, #15]	@ tmp165, status
 199:Drivers/STM32L1xx_HAL_Driver/stm32l1xx_hal_flash_ex.cpp **** 
 200:Drivers/STM32L1xx_HAL_Driver/stm32l1xx_hal_flash_ex.cpp ****       /* If the erase operation is completed, disable the ERASE Bit */
 201:Drivers/STM32L1xx_HAL_Driver/stm32l1xx_hal_flash_ex.cpp ****       CLEAR_BIT(FLASH->PECR, FLASH_PECR_PROG);
 130              		.loc 1 201 0
 131 006c 4FF47053 		mov	r3, #15360	@ D.6615,
 132 0070 C4F20203 		movt	r3, 16386	@ D.6615,
 133 0074 4FF47052 		mov	r2, #15360	@ D.6616,
 134 0078 C4F20202 		movt	r2, 16386	@ D.6616,
 135 007c 5268     		ldr	r2, [r2, #4]	@ D.6617, D.6616_21->PECR
 136 007e 22F00802 		bic	r2, r2, #8	@ D.6618, D.6617,
 137 0082 5A60     		str	r2, [r3, #4]	@ D.6618, D.6615_20->PECR
 202:Drivers/STM32L1xx_HAL_Driver/stm32l1xx_hal_flash_ex.cpp ****       CLEAR_BIT(FLASH->PECR, FLASH_PECR_ERASE);
 138              		.loc 1 202 0
 139 0084 4FF47053 		mov	r3, #15360	@ D.6619,
 140 0088 C4F20203 		movt	r3, 16386	@ D.6619,
ARM GAS  /tmp/ccwmM6Ug.s 			page 7


 141 008c 4FF47052 		mov	r2, #15360	@ D.6620,
 142 0090 C4F20202 		movt	r2, 16386	@ D.6620,
 143 0094 5268     		ldr	r2, [r2, #4]	@ D.6621, D.6620_25->PECR
 144 0096 22F40072 		bic	r2, r2, #512	@ D.6622, D.6621,
 145 009a 5A60     		str	r2, [r3, #4]	@ D.6622, D.6619_24->PECR
 203:Drivers/STM32L1xx_HAL_Driver/stm32l1xx_hal_flash_ex.cpp **** 
 204:Drivers/STM32L1xx_HAL_Driver/stm32l1xx_hal_flash_ex.cpp ****       if (status != HAL_OK) 
 146              		.loc 1 204 0
 147 009c FB7B     		ldrb	r3, [r7, #15]	@ zero_extendqisi2	@ tmp166, status
 148 009e 002B     		cmp	r3, #0	@ tmp166,
 149 00a0 03D0     		beq	.L6	@,
 205:Drivers/STM32L1xx_HAL_Driver/stm32l1xx_hal_flash_ex.cpp ****       {
 206:Drivers/STM32L1xx_HAL_Driver/stm32l1xx_hal_flash_ex.cpp ****         /* In case of error, stop erase procedure and return the faulty sector*/
 207:Drivers/STM32L1xx_HAL_Driver/stm32l1xx_hal_flash_ex.cpp ****         *PageError = index;
 150              		.loc 1 207 0
 151 00a2 3B68     		ldr	r3, [r7, #0]	@ tmp167, PageError
 152 00a4 BA68     		ldr	r2, [r7, #8]	@ tmp168, index
 153 00a6 1A60     		str	r2, [r3, #0]	@ tmp168, *PageError_11(D)
 208:Drivers/STM32L1xx_HAL_Driver/stm32l1xx_hal_flash_ex.cpp ****         break;
 154              		.loc 1 208 0
 155 00a8 12E0     		b	.L4	@
 156              	.L6:
 193:Drivers/STM32L1xx_HAL_Driver/stm32l1xx_hal_flash_ex.cpp ****     for(index = pEraseInit->PageAddress; index < ((pEraseInit->NbPages * FLASH_PAGE_SIZE)+ pEraseIn
 157              		.loc 1 193 0
 158 00aa BB68     		ldr	r3, [r7, #8]	@ tmp170, index
 159 00ac 03F58073 		add	r3, r3, #256	@ tmp169, tmp170,
 160 00b0 BB60     		str	r3, [r7, #8]	@ tmp169, index
 161              	.L5:
 193:Drivers/STM32L1xx_HAL_Driver/stm32l1xx_hal_flash_ex.cpp ****     for(index = pEraseInit->PageAddress; index < ((pEraseInit->NbPages * FLASH_PAGE_SIZE)+ pEraseIn
 162              		.loc 1 193 0 is_stmt 0 discriminator 1
 163 00b2 7B68     		ldr	r3, [r7, #4]	@ tmp171, pEraseInit
 164 00b4 9B68     		ldr	r3, [r3, #8]	@ D.6609, pEraseInit_12(D)->NbPages
 165 00b6 4FEA0322 		lsl	r2, r3, #8	@ D.6610, D.6609,
 166 00ba 7B68     		ldr	r3, [r7, #4]	@ tmp172, pEraseInit
 167 00bc 5B68     		ldr	r3, [r3, #4]	@ D.6611, pEraseInit_12(D)->PageAddress
 168 00be D218     		adds	r2, r2, r3	@ D.6612, D.6610, D.6611
 169 00c0 BB68     		ldr	r3, [r7, #8]	@ tmp174, index
 170 00c2 9A42     		cmp	r2, r3	@ D.6612, tmp174
 171 00c4 94BF     		ite	ls	@
 172 00c6 0023     		movls	r3, #0	@, tmp175
 173 00c8 0123     		movhi	r3, #1	@, tmp175
 174 00ca DBB2     		uxtb	r3, r3	@ D.6613, tmp173
 175 00cc 002B     		cmp	r3, #0	@ D.6613,
 176 00ce C4D1     		bne	.L8	@,
 177              	.L4:
 209:Drivers/STM32L1xx_HAL_Driver/stm32l1xx_hal_flash_ex.cpp ****       }
 210:Drivers/STM32L1xx_HAL_Driver/stm32l1xx_hal_flash_ex.cpp ****     }
 211:Drivers/STM32L1xx_HAL_Driver/stm32l1xx_hal_flash_ex.cpp ****   }
 212:Drivers/STM32L1xx_HAL_Driver/stm32l1xx_hal_flash_ex.cpp **** 
 213:Drivers/STM32L1xx_HAL_Driver/stm32l1xx_hal_flash_ex.cpp ****   /* Process Unlocked */
 214:Drivers/STM32L1xx_HAL_Driver/stm32l1xx_hal_flash_ex.cpp ****   __HAL_UNLOCK(&ProcFlash);
 178              		.loc 1 214 0 is_stmt 1
 179 00d0 40F20003 		movw	r3, #:lower16:ProcFlash	@ tmp176,
 180 00d4 C0F20003 		movt	r3, #:upper16:ProcFlash	@ tmp176,
 181 00d8 4FF00002 		mov	r2, #0	@ tmp177,
 182 00dc 1A74     		strb	r2, [r3, #16]	@ tmp178, ProcFlash.Lock
 215:Drivers/STM32L1xx_HAL_Driver/stm32l1xx_hal_flash_ex.cpp **** 
ARM GAS  /tmp/ccwmM6Ug.s 			page 8


 216:Drivers/STM32L1xx_HAL_Driver/stm32l1xx_hal_flash_ex.cpp ****   return status;
 183              		.loc 1 216 0
 184 00de FB7B     		ldrb	r3, [r7, #15]	@ zero_extendqisi2	@ D.6603, status
 185              	.L3:
 186              	.LBE14:
 217:Drivers/STM32L1xx_HAL_Driver/stm32l1xx_hal_flash_ex.cpp **** }
 187              		.loc 1 217 0
 188 00e0 1846     		mov	r0, r3	@, <retval>
 189 00e2 07F11007 		add	r7, r7, #16	@,,
 190 00e6 BD46     		mov	sp, r7
 191 00e8 80BD     		pop	{r7, pc}
 192              		.cfi_endproc
 193              	.LFE56:
 194              		.size	HAL_FLASHEx_Erase, .-HAL_FLASHEx_Erase
 195 00ea 00BF     		.section	.text.HAL_FLASHEx_Erase_IT,"ax",%progbits
 196              		.align	2
 197              		.global	HAL_FLASHEx_Erase_IT
 198              		.thumb
 199              		.thumb_func
 200              		.type	HAL_FLASHEx_Erase_IT, %function
 201              	HAL_FLASHEx_Erase_IT:
 202              	.LFB57:
 218:Drivers/STM32L1xx_HAL_Driver/stm32l1xx_hal_flash_ex.cpp **** 
 219:Drivers/STM32L1xx_HAL_Driver/stm32l1xx_hal_flash_ex.cpp **** /**
 220:Drivers/STM32L1xx_HAL_Driver/stm32l1xx_hal_flash_ex.cpp ****   * @brief  Perform a page erase of the specified FLASH memory pages  with interrupt enabled
 221:Drivers/STM32L1xx_HAL_Driver/stm32l1xx_hal_flash_ex.cpp ****   * @note   To correctly run this function, the HAL_FLASH_Unlock() function
 222:Drivers/STM32L1xx_HAL_Driver/stm32l1xx_hal_flash_ex.cpp ****   *         must be called before.
 223:Drivers/STM32L1xx_HAL_Driver/stm32l1xx_hal_flash_ex.cpp ****   *         Call the HAL_FLASH_Lock() to disable the flash memory access 
 224:Drivers/STM32L1xx_HAL_Driver/stm32l1xx_hal_flash_ex.cpp ****   *         (recommended to protect the FLASH memory against possible unwanted operation)
 225:Drivers/STM32L1xx_HAL_Driver/stm32l1xx_hal_flash_ex.cpp ****   * @param  pEraseInit: pointer to an FLASH_EraseInitTypeDef structure that
 226:Drivers/STM32L1xx_HAL_Driver/stm32l1xx_hal_flash_ex.cpp ****   *         contains the configuration information for the erasing.
 227:Drivers/STM32L1xx_HAL_Driver/stm32l1xx_hal_flash_ex.cpp ****   * 
 228:Drivers/STM32L1xx_HAL_Driver/stm32l1xx_hal_flash_ex.cpp ****   * @retval HAL_StatusTypeDef HAL Status
 229:Drivers/STM32L1xx_HAL_Driver/stm32l1xx_hal_flash_ex.cpp ****   */
 230:Drivers/STM32L1xx_HAL_Driver/stm32l1xx_hal_flash_ex.cpp **** HAL_StatusTypeDef HAL_FLASHEx_Erase_IT(FLASH_EraseInitTypeDef *pEraseInit)
 231:Drivers/STM32L1xx_HAL_Driver/stm32l1xx_hal_flash_ex.cpp **** {
 203              		.loc 1 231 0
 204              		.cfi_startproc
 205              		@ args = 0, pretend = 0, frame = 16
 206              		@ frame_needed = 1, uses_anonymous_args = 0
 207 0000 80B5     		push	{r7, lr}	@
 208              	.LCFI3:
 209              		.cfi_def_cfa_offset 8
 210              		.cfi_offset 7, -8
 211              		.cfi_offset 14, -4
 212 0002 84B0     		sub	sp, sp, #16	@,,
 213              	.LCFI4:
 214              		.cfi_def_cfa_offset 24
 215 0004 00AF     		add	r7, sp, #0	@,,
 216              	.LCFI5:
 217              		.cfi_def_cfa_register 7
 218 0006 7860     		str	r0, [r7, #4]	@ pEraseInit, pEraseInit
 219              	.LBB15:
 232:Drivers/STM32L1xx_HAL_Driver/stm32l1xx_hal_flash_ex.cpp ****   HAL_StatusTypeDef status = HAL_OK;
 220              		.loc 1 232 0
 221 0008 4FF00003 		mov	r3, #0	@ tmp149,
 222 000c FB73     		strb	r3, [r7, #15]	@ tmp150, status
ARM GAS  /tmp/ccwmM6Ug.s 			page 9


 233:Drivers/STM32L1xx_HAL_Driver/stm32l1xx_hal_flash_ex.cpp **** 
 234:Drivers/STM32L1xx_HAL_Driver/stm32l1xx_hal_flash_ex.cpp ****   /* Process Locked */
 235:Drivers/STM32L1xx_HAL_Driver/stm32l1xx_hal_flash_ex.cpp ****   __HAL_LOCK(&ProcFlash);
 223              		.loc 1 235 0
 224 000e 40F20003 		movw	r3, #:lower16:ProcFlash	@ tmp151,
 225 0012 C0F20003 		movt	r3, #:upper16:ProcFlash	@ tmp151,
 226 0016 1B7C     		ldrb	r3, [r3, #16]	@ zero_extendqisi2	@ D.6581, ProcFlash.Lock
 227 0018 012B     		cmp	r3, #1	@ D.6581,
 228 001a 02D1     		bne	.L10	@,
 229              		.loc 1 235 0 is_stmt 0 discriminator 1
 230 001c 4FF00203 		mov	r3, #2	@ D.6584,
 231 0020 40E0     		b	.L11	@
 232              	.L10:
 233              		.loc 1 235 0 discriminator 2
 234 0022 40F20003 		movw	r3, #:lower16:ProcFlash	@ tmp152,
 235 0026 C0F20003 		movt	r3, #:upper16:ProcFlash	@ tmp152,
 236 002a 4FF00102 		mov	r2, #1	@ tmp153,
 237 002e 1A74     		strb	r2, [r3, #16]	@ tmp154, ProcFlash.Lock
 236:Drivers/STM32L1xx_HAL_Driver/stm32l1xx_hal_flash_ex.cpp **** 
 237:Drivers/STM32L1xx_HAL_Driver/stm32l1xx_hal_flash_ex.cpp ****   /* Enable End of FLASH Operation interrupt */
 238:Drivers/STM32L1xx_HAL_Driver/stm32l1xx_hal_flash_ex.cpp ****   __HAL_FLASH_ENABLE_IT(FLASH_IT_EOP);
 238              		.loc 1 238 0 is_stmt 1 discriminator 2
 239 0030 4FF47053 		mov	r3, #15360	@ D.6585,
 240 0034 C4F20203 		movt	r3, 16386	@ D.6585,
 241 0038 4FF47052 		mov	r2, #15360	@ D.6586,
 242 003c C4F20202 		movt	r2, 16386	@ D.6586,
 243 0040 5268     		ldr	r2, [r2, #4]	@ D.6587, D.6586_6->PECR
 244 0042 42F48032 		orr	r2, r2, #65536	@ D.6588, D.6587,
 245 0046 5A60     		str	r2, [r3, #4]	@ D.6588, D.6585_5->PECR
 239:Drivers/STM32L1xx_HAL_Driver/stm32l1xx_hal_flash_ex.cpp ****   
 240:Drivers/STM32L1xx_HAL_Driver/stm32l1xx_hal_flash_ex.cpp ****   /* Enable Error source interrupt */
 241:Drivers/STM32L1xx_HAL_Driver/stm32l1xx_hal_flash_ex.cpp ****   __HAL_FLASH_ENABLE_IT(FLASH_IT_ERR);
 246              		.loc 1 241 0 discriminator 2
 247 0048 4FF47053 		mov	r3, #15360	@ D.6589,
 248 004c C4F20203 		movt	r3, 16386	@ D.6589,
 249 0050 4FF47052 		mov	r2, #15360	@ D.6590,
 250 0054 C4F20202 		movt	r2, 16386	@ D.6590,
 251 0058 5268     		ldr	r2, [r2, #4]	@ D.6591, D.6590_10->PECR
 252 005a 42F40032 		orr	r2, r2, #131072	@ D.6592, D.6591,
 253 005e 5A60     		str	r2, [r3, #4]	@ D.6592, D.6589_9->PECR
 242:Drivers/STM32L1xx_HAL_Driver/stm32l1xx_hal_flash_ex.cpp ****   
 243:Drivers/STM32L1xx_HAL_Driver/stm32l1xx_hal_flash_ex.cpp ****   /* Clear pending flags (if any) */  
 244:Drivers/STM32L1xx_HAL_Driver/stm32l1xx_hal_flash_ex.cpp ****   __HAL_FLASH_CLEAR_FLAG(FLASH_FLAG_MASK);
 254              		.loc 1 244 0 discriminator 2
 255 0060 4FF47053 		mov	r3, #15360	@ D.6593,
 256 0064 C4F20203 		movt	r3, 16386	@ D.6593,
 257 0068 40F60672 		movw	r2, #3846	@ tmp155,
 258 006c 9A61     		str	r2, [r3, #24]	@ tmp155, D.6593_13->SR
 245:Drivers/STM32L1xx_HAL_Driver/stm32l1xx_hal_flash_ex.cpp **** 
 246:Drivers/STM32L1xx_HAL_Driver/stm32l1xx_hal_flash_ex.cpp ****   /* Check the parameters */
 247:Drivers/STM32L1xx_HAL_Driver/stm32l1xx_hal_flash_ex.cpp ****   assert_param(IS_NBPAGES(pEraseInit->NbPages));
 248:Drivers/STM32L1xx_HAL_Driver/stm32l1xx_hal_flash_ex.cpp ****   assert_param(IS_TYPEERASE(pEraseInit->TypeErase));
 249:Drivers/STM32L1xx_HAL_Driver/stm32l1xx_hal_flash_ex.cpp ****   assert_param(IS_FLASH_PROGRAM_ADDRESS(pEraseInit->PageAddress));
 250:Drivers/STM32L1xx_HAL_Driver/stm32l1xx_hal_flash_ex.cpp ****   assert_param(IS_FLASH_PROGRAM_ADDRESS(pEraseInit->PageAddress + pEraseInit->NbPages * FLASH_PAGE_
 251:Drivers/STM32L1xx_HAL_Driver/stm32l1xx_hal_flash_ex.cpp **** 
 252:Drivers/STM32L1xx_HAL_Driver/stm32l1xx_hal_flash_ex.cpp ****   ProcFlash.ProcedureOnGoing = FLASH_PROC_PAGEERASE;
 259              		.loc 1 252 0 discriminator 2
ARM GAS  /tmp/ccwmM6Ug.s 			page 10


 260 006e 40F20003 		movw	r3, #:lower16:ProcFlash	@ tmp156,
 261 0072 C0F20003 		movt	r3, #:upper16:ProcFlash	@ tmp156,
 262 0076 4FF00102 		mov	r2, #1	@ tmp157,
 263 007a 1A70     		strb	r2, [r3, #0]	@ tmp158, ProcFlash.ProcedureOnGoing
 253:Drivers/STM32L1xx_HAL_Driver/stm32l1xx_hal_flash_ex.cpp ****   ProcFlash.NbPagesToErase = pEraseInit->NbPages;
 264              		.loc 1 253 0 discriminator 2
 265 007c 7B68     		ldr	r3, [r7, #4]	@ tmp159, pEraseInit
 266 007e 9A68     		ldr	r2, [r3, #8]	@ D.6594, pEraseInit_14(D)->NbPages
 267 0080 40F20003 		movw	r3, #:lower16:ProcFlash	@ tmp160,
 268 0084 C0F20003 		movt	r3, #:upper16:ProcFlash	@ tmp160,
 269 0088 5A60     		str	r2, [r3, #4]	@ D.6594, ProcFlash.NbPagesToErase
 254:Drivers/STM32L1xx_HAL_Driver/stm32l1xx_hal_flash_ex.cpp ****   ProcFlash.Page = pEraseInit->PageAddress;
 270              		.loc 1 254 0 discriminator 2
 271 008a 7B68     		ldr	r3, [r7, #4]	@ tmp161, pEraseInit
 272 008c 5A68     		ldr	r2, [r3, #4]	@ D.6595, pEraseInit_14(D)->PageAddress
 273 008e 40F20003 		movw	r3, #:lower16:ProcFlash	@ tmp162,
 274 0092 C0F20003 		movt	r3, #:upper16:ProcFlash	@ tmp162,
 275 0096 9A60     		str	r2, [r3, #8]	@ D.6595, ProcFlash.Page
 255:Drivers/STM32L1xx_HAL_Driver/stm32l1xx_hal_flash_ex.cpp **** 
 256:Drivers/STM32L1xx_HAL_Driver/stm32l1xx_hal_flash_ex.cpp ****   /*Erase 1st page and wait for IT*/
 257:Drivers/STM32L1xx_HAL_Driver/stm32l1xx_hal_flash_ex.cpp ****   FLASH_ErasePage(pEraseInit->PageAddress);
 276              		.loc 1 257 0 discriminator 2
 277 0098 7B68     		ldr	r3, [r7, #4]	@ tmp163, pEraseInit
 278 009a 5B68     		ldr	r3, [r3, #4]	@ D.6596, pEraseInit_14(D)->PageAddress
 279 009c 1846     		mov	r0, r3	@, D.6596
 280 009e FFF7FEFF 		bl	_ZL15FLASH_ErasePagem	@
 258:Drivers/STM32L1xx_HAL_Driver/stm32l1xx_hal_flash_ex.cpp **** 
 259:Drivers/STM32L1xx_HAL_Driver/stm32l1xx_hal_flash_ex.cpp ****   return status;
 281              		.loc 1 259 0 discriminator 2
 282 00a2 FB7B     		ldrb	r3, [r7, #15]	@ zero_extendqisi2	@ D.6584, status
 283              	.L11:
 284              	.LBE15:
 260:Drivers/STM32L1xx_HAL_Driver/stm32l1xx_hal_flash_ex.cpp **** }
 285              		.loc 1 260 0
 286 00a4 1846     		mov	r0, r3	@, <retval>
 287 00a6 07F11007 		add	r7, r7, #16	@,,
 288 00aa BD46     		mov	sp, r7
 289 00ac 80BD     		pop	{r7, pc}
 290              		.cfi_endproc
 291              	.LFE57:
 292              		.size	HAL_FLASHEx_Erase_IT, .-HAL_FLASHEx_Erase_IT
 293 00ae 00BF     		.section	.text.HAL_FLASHEx_OBProgram,"ax",%progbits
 294              		.align	2
 295              		.global	HAL_FLASHEx_OBProgram
 296              		.thumb
 297              		.thumb_func
 298              		.type	HAL_FLASHEx_OBProgram, %function
 299              	HAL_FLASHEx_OBProgram:
 300              	.LFB58:
 261:Drivers/STM32L1xx_HAL_Driver/stm32l1xx_hal_flash_ex.cpp **** 
 262:Drivers/STM32L1xx_HAL_Driver/stm32l1xx_hal_flash_ex.cpp **** /**
 263:Drivers/STM32L1xx_HAL_Driver/stm32l1xx_hal_flash_ex.cpp ****   * @}
 264:Drivers/STM32L1xx_HAL_Driver/stm32l1xx_hal_flash_ex.cpp ****   */
 265:Drivers/STM32L1xx_HAL_Driver/stm32l1xx_hal_flash_ex.cpp **** 
 266:Drivers/STM32L1xx_HAL_Driver/stm32l1xx_hal_flash_ex.cpp **** 
 267:Drivers/STM32L1xx_HAL_Driver/stm32l1xx_hal_flash_ex.cpp **** /** @defgroup FLASHEx_Exported_Functions_Group2 Option Bytes Programming functions
 268:Drivers/STM32L1xx_HAL_Driver/stm32l1xx_hal_flash_ex.cpp ****  *  @brief   Option Bytes Programming functions 
ARM GAS  /tmp/ccwmM6Ug.s 			page 11


 269:Drivers/STM32L1xx_HAL_Driver/stm32l1xx_hal_flash_ex.cpp ****  *
 270:Drivers/STM32L1xx_HAL_Driver/stm32l1xx_hal_flash_ex.cpp **** @verbatim   
 271:Drivers/STM32L1xx_HAL_Driver/stm32l1xx_hal_flash_ex.cpp ****   ==============================================================================
 272:Drivers/STM32L1xx_HAL_Driver/stm32l1xx_hal_flash_ex.cpp ****                 ##### Option Bytes Programming functions ##### 
 273:Drivers/STM32L1xx_HAL_Driver/stm32l1xx_hal_flash_ex.cpp ****   ==============================================================================  
 274:Drivers/STM32L1xx_HAL_Driver/stm32l1xx_hal_flash_ex.cpp **** 
 275:Drivers/STM32L1xx_HAL_Driver/stm32l1xx_hal_flash_ex.cpp ****     [..] Any operation of erase or program should follow these steps:
 276:Drivers/STM32L1xx_HAL_Driver/stm32l1xx_hal_flash_ex.cpp ****     (#) Call the HAL_FLASH_OB_Unlock() function to enable the Flash option control 
 277:Drivers/STM32L1xx_HAL_Driver/stm32l1xx_hal_flash_ex.cpp ****         register access.
 278:Drivers/STM32L1xx_HAL_Driver/stm32l1xx_hal_flash_ex.cpp ****     (#) Call following function to program the desired option bytes.
 279:Drivers/STM32L1xx_HAL_Driver/stm32l1xx_hal_flash_ex.cpp ****         (++) HAL_FLASHEx_OBProgram:
 280:Drivers/STM32L1xx_HAL_Driver/stm32l1xx_hal_flash_ex.cpp ****          - To Enable/Disable the desired sector write protection.
 281:Drivers/STM32L1xx_HAL_Driver/stm32l1xx_hal_flash_ex.cpp ****          - To set the desired read Protection Level.
 282:Drivers/STM32L1xx_HAL_Driver/stm32l1xx_hal_flash_ex.cpp ****          - To configure the user option Bytes: IWDG, STOP and the Standby.
 283:Drivers/STM32L1xx_HAL_Driver/stm32l1xx_hal_flash_ex.cpp ****          - To Set the BOR level.
 284:Drivers/STM32L1xx_HAL_Driver/stm32l1xx_hal_flash_ex.cpp ****     (#) Once all needed option bytes to be programmed are correctly written, call the
 285:Drivers/STM32L1xx_HAL_Driver/stm32l1xx_hal_flash_ex.cpp ****         HAL_FLASH_OB_Launch(void) function to launch the Option Bytes programming process.
 286:Drivers/STM32L1xx_HAL_Driver/stm32l1xx_hal_flash_ex.cpp ****     (#) Call the HAL_FLASH_OB_Lock() to disable the Flash option control register access (recommend
 287:Drivers/STM32L1xx_HAL_Driver/stm32l1xx_hal_flash_ex.cpp ****         to protect the option Bytes against possible unwanted operations).
 288:Drivers/STM32L1xx_HAL_Driver/stm32l1xx_hal_flash_ex.cpp **** 
 289:Drivers/STM32L1xx_HAL_Driver/stm32l1xx_hal_flash_ex.cpp ****     [..] Proprietary code Read Out Protection (PcROP):    
 290:Drivers/STM32L1xx_HAL_Driver/stm32l1xx_hal_flash_ex.cpp ****     (#) The PcROP sector is selected by using the same option bytes as the Write
 291:Drivers/STM32L1xx_HAL_Driver/stm32l1xx_hal_flash_ex.cpp ****         protection (nWRPi bits). As a result, these 2 options are exclusive each other.
 292:Drivers/STM32L1xx_HAL_Driver/stm32l1xx_hal_flash_ex.cpp ****     (#) In order to activate the PcROP (change the function of the nWRPi option bits), 
 293:Drivers/STM32L1xx_HAL_Driver/stm32l1xx_hal_flash_ex.cpp ****         the SPRMOD option bit must be activated.
 294:Drivers/STM32L1xx_HAL_Driver/stm32l1xx_hal_flash_ex.cpp ****     (#) The active value of nWRPi bits is inverted when PCROP mode is active, this
 295:Drivers/STM32L1xx_HAL_Driver/stm32l1xx_hal_flash_ex.cpp ****         means: if SPRMOD = 1 and nWRPi = 1 (default value), then the user sector "i"
 296:Drivers/STM32L1xx_HAL_Driver/stm32l1xx_hal_flash_ex.cpp ****         is read/write protected.
 297:Drivers/STM32L1xx_HAL_Driver/stm32l1xx_hal_flash_ex.cpp ****     (#) To activate PCROP mode for Flash sector(s), you need to call the following function:
 298:Drivers/STM32L1xx_HAL_Driver/stm32l1xx_hal_flash_ex.cpp ****         (++) HAL_FLASHEx_AdvOBProgram in selecting sectors to be read/write protected
 299:Drivers/STM32L1xx_HAL_Driver/stm32l1xx_hal_flash_ex.cpp ****         (++) HAL_FLASHEx_OB_SelectPCROP to enable the read/write protection
 300:Drivers/STM32L1xx_HAL_Driver/stm32l1xx_hal_flash_ex.cpp ****     (#) PcROP is available only in STM32L151xBA, STM32L152xBA, STM32L151xC, STM32L152xC & STM32L162
 301:Drivers/STM32L1xx_HAL_Driver/stm32l1xx_hal_flash_ex.cpp **** 
 302:Drivers/STM32L1xx_HAL_Driver/stm32l1xx_hal_flash_ex.cpp **** @endverbatim
 303:Drivers/STM32L1xx_HAL_Driver/stm32l1xx_hal_flash_ex.cpp ****   * @{
 304:Drivers/STM32L1xx_HAL_Driver/stm32l1xx_hal_flash_ex.cpp ****   */
 305:Drivers/STM32L1xx_HAL_Driver/stm32l1xx_hal_flash_ex.cpp **** 
 306:Drivers/STM32L1xx_HAL_Driver/stm32l1xx_hal_flash_ex.cpp **** /**
 307:Drivers/STM32L1xx_HAL_Driver/stm32l1xx_hal_flash_ex.cpp ****   * @brief  Program option bytes
 308:Drivers/STM32L1xx_HAL_Driver/stm32l1xx_hal_flash_ex.cpp ****   * @param  pOBInit: pointer to an FLASH_OBInitStruct structure that
 309:Drivers/STM32L1xx_HAL_Driver/stm32l1xx_hal_flash_ex.cpp ****   *         contains the configuration information for the programming.
 310:Drivers/STM32L1xx_HAL_Driver/stm32l1xx_hal_flash_ex.cpp ****   * 
 311:Drivers/STM32L1xx_HAL_Driver/stm32l1xx_hal_flash_ex.cpp ****   * @retval HAL_StatusTypeDef HAL Status
 312:Drivers/STM32L1xx_HAL_Driver/stm32l1xx_hal_flash_ex.cpp ****   */
 313:Drivers/STM32L1xx_HAL_Driver/stm32l1xx_hal_flash_ex.cpp **** HAL_StatusTypeDef HAL_FLASHEx_OBProgram(FLASH_OBProgramInitTypeDef *pOBInit)
 314:Drivers/STM32L1xx_HAL_Driver/stm32l1xx_hal_flash_ex.cpp **** {
 301              		.loc 1 314 0
 302              		.cfi_startproc
 303              		@ args = 0, pretend = 0, frame = 16
 304              		@ frame_needed = 1, uses_anonymous_args = 0
 305 0000 80B5     		push	{r7, lr}	@
 306              	.LCFI6:
 307              		.cfi_def_cfa_offset 8
 308              		.cfi_offset 7, -8
 309              		.cfi_offset 14, -4
 310 0002 84B0     		sub	sp, sp, #16	@,,
 311              	.LCFI7:
ARM GAS  /tmp/ccwmM6Ug.s 			page 12


 312              		.cfi_def_cfa_offset 24
 313 0004 00AF     		add	r7, sp, #0	@,,
 314              	.LCFI8:
 315              		.cfi_def_cfa_register 7
 316 0006 7860     		str	r0, [r7, #4]	@ pOBInit, pOBInit
 317              	.LBB16:
 315:Drivers/STM32L1xx_HAL_Driver/stm32l1xx_hal_flash_ex.cpp ****   HAL_StatusTypeDef status = HAL_ERROR;
 318              		.loc 1 315 0
 319 0008 4FF00103 		mov	r3, #1	@ tmp154,
 320 000c FB73     		strb	r3, [r7, #15]	@ tmp155, status
 316:Drivers/STM32L1xx_HAL_Driver/stm32l1xx_hal_flash_ex.cpp ****   
 317:Drivers/STM32L1xx_HAL_Driver/stm32l1xx_hal_flash_ex.cpp ****   /* Process Locked */
 318:Drivers/STM32L1xx_HAL_Driver/stm32l1xx_hal_flash_ex.cpp ****   __HAL_LOCK(&ProcFlash);
 321              		.loc 1 318 0
 322 000e 40F20003 		movw	r3, #:lower16:ProcFlash	@ tmp156,
 323 0012 C0F20003 		movt	r3, #:upper16:ProcFlash	@ tmp156,
 324 0016 1B7C     		ldrb	r3, [r3, #16]	@ zero_extendqisi2	@ D.6528, ProcFlash.Lock
 325 0018 012B     		cmp	r3, #1	@ D.6528,
 326 001a 02D1     		bne	.L13	@,
 327              		.loc 1 318 0 is_stmt 0 discriminator 1
 328 001c 4FF00203 		mov	r3, #2	@ D.6531,
 329 0020 81E0     		b	.L14	@
 330              	.L13:
 331              		.loc 1 318 0 discriminator 2
 332 0022 40F20003 		movw	r3, #:lower16:ProcFlash	@ tmp157,
 333 0026 C0F20003 		movt	r3, #:upper16:ProcFlash	@ tmp157,
 334 002a 4FF00102 		mov	r2, #1	@ tmp158,
 335 002e 1A74     		strb	r2, [r3, #16]	@ tmp159, ProcFlash.Lock
 319:Drivers/STM32L1xx_HAL_Driver/stm32l1xx_hal_flash_ex.cpp **** 
 320:Drivers/STM32L1xx_HAL_Driver/stm32l1xx_hal_flash_ex.cpp ****   /* Check the parameters */
 321:Drivers/STM32L1xx_HAL_Driver/stm32l1xx_hal_flash_ex.cpp ****   assert_param(IS_OPTIONBYTE(pOBInit->OptionType));
 322:Drivers/STM32L1xx_HAL_Driver/stm32l1xx_hal_flash_ex.cpp **** 
 323:Drivers/STM32L1xx_HAL_Driver/stm32l1xx_hal_flash_ex.cpp ****   /*Write protection configuration*/
 324:Drivers/STM32L1xx_HAL_Driver/stm32l1xx_hal_flash_ex.cpp ****   if((pOBInit->OptionType & OPTIONBYTE_WRP) == OPTIONBYTE_WRP)
 336              		.loc 1 324 0 is_stmt 1 discriminator 2
 337 0030 7B68     		ldr	r3, [r7, #4]	@ tmp160, pOBInit
 338 0032 1B68     		ldr	r3, [r3, #0]	@ D.6532, pOBInit_10(D)->OptionType
 339 0034 03F00103 		and	r3, r3, #1	@ D.6533, D.6532,
 340 0038 002B     		cmp	r3, #0	@ D.6533,
 341 003a 1ED0     		beq	.L15	@,
 325:Drivers/STM32L1xx_HAL_Driver/stm32l1xx_hal_flash_ex.cpp ****   {
 326:Drivers/STM32L1xx_HAL_Driver/stm32l1xx_hal_flash_ex.cpp ****     assert_param(IS_WRPSTATE(pOBInit->WRPState));
 327:Drivers/STM32L1xx_HAL_Driver/stm32l1xx_hal_flash_ex.cpp ****     if (pOBInit->WRPState == WRPSTATE_ENABLE)
 342              		.loc 1 327 0
 343 003c 7B68     		ldr	r3, [r7, #4]	@ tmp161, pOBInit
 344 003e 5B68     		ldr	r3, [r3, #4]	@ D.6536, pOBInit_10(D)->WRPState
 345 0040 012B     		cmp	r3, #1	@ D.6536,
 346 0042 07D1     		bne	.L16	@,
 328:Drivers/STM32L1xx_HAL_Driver/stm32l1xx_hal_flash_ex.cpp ****     {
 329:Drivers/STM32L1xx_HAL_Driver/stm32l1xx_hal_flash_ex.cpp ****       /* Enable of Write protection on the selected Sector*/
 330:Drivers/STM32L1xx_HAL_Driver/stm32l1xx_hal_flash_ex.cpp ****       status = FLASH_OB_WRPConfig(pOBInit, ENABLE);
 347              		.loc 1 330 0
 348 0044 7868     		ldr	r0, [r7, #4]	@, pOBInit
 349 0046 4FF00101 		mov	r1, #1	@,
 350 004a FFF7FEFF 		bl	_ZL18FLASH_OB_WRPConfigP26FLASH_OBProgramInitTypeDef15FunctionalState	@
 351 004e 0346     		mov	r3, r0	@ tmp162,
 352 0050 FB73     		strb	r3, [r7, #15]	@ tmp163, status
ARM GAS  /tmp/ccwmM6Ug.s 			page 13


 353 0052 06E0     		b	.L17	@
 354              	.L16:
 331:Drivers/STM32L1xx_HAL_Driver/stm32l1xx_hal_flash_ex.cpp ****     }
 332:Drivers/STM32L1xx_HAL_Driver/stm32l1xx_hal_flash_ex.cpp ****     else
 333:Drivers/STM32L1xx_HAL_Driver/stm32l1xx_hal_flash_ex.cpp ****     {
 334:Drivers/STM32L1xx_HAL_Driver/stm32l1xx_hal_flash_ex.cpp ****       /* Disable of Write protection on the selected Sector*/
 335:Drivers/STM32L1xx_HAL_Driver/stm32l1xx_hal_flash_ex.cpp ****       status = FLASH_OB_WRPConfig(pOBInit, DISABLE);
 355              		.loc 1 335 0
 356 0054 7868     		ldr	r0, [r7, #4]	@, pOBInit
 357 0056 4FF00001 		mov	r1, #0	@,
 358 005a FFF7FEFF 		bl	_ZL18FLASH_OB_WRPConfigP26FLASH_OBProgramInitTypeDef15FunctionalState	@
 359 005e 0346     		mov	r3, r0	@ tmp164,
 360 0060 FB73     		strb	r3, [r7, #15]	@ tmp165, status
 361              	.L17:
 336:Drivers/STM32L1xx_HAL_Driver/stm32l1xx_hal_flash_ex.cpp ****     }
 337:Drivers/STM32L1xx_HAL_Driver/stm32l1xx_hal_flash_ex.cpp ****     if (status != HAL_OK)
 362              		.loc 1 337 0
 363 0062 FB7B     		ldrb	r3, [r7, #15]	@ zero_extendqisi2	@ tmp166, status
 364 0064 002B     		cmp	r3, #0	@ tmp166,
 365 0066 08D0     		beq	.L15	@,
 338:Drivers/STM32L1xx_HAL_Driver/stm32l1xx_hal_flash_ex.cpp ****     {
 339:Drivers/STM32L1xx_HAL_Driver/stm32l1xx_hal_flash_ex.cpp ****       /* Process Unlocked */
 340:Drivers/STM32L1xx_HAL_Driver/stm32l1xx_hal_flash_ex.cpp ****       __HAL_UNLOCK(&ProcFlash);
 366              		.loc 1 340 0
 367 0068 40F20003 		movw	r3, #:lower16:ProcFlash	@ tmp167,
 368 006c C0F20003 		movt	r3, #:upper16:ProcFlash	@ tmp167,
 369 0070 4FF00002 		mov	r2, #0	@ tmp168,
 370 0074 1A74     		strb	r2, [r3, #16]	@ tmp169, ProcFlash.Lock
 341:Drivers/STM32L1xx_HAL_Driver/stm32l1xx_hal_flash_ex.cpp ****       return status;
 371              		.loc 1 341 0
 372 0076 FB7B     		ldrb	r3, [r7, #15]	@ zero_extendqisi2	@ D.6531, status
 373 0078 55E0     		b	.L14	@
 374              	.L15:
 342:Drivers/STM32L1xx_HAL_Driver/stm32l1xx_hal_flash_ex.cpp ****     }
 343:Drivers/STM32L1xx_HAL_Driver/stm32l1xx_hal_flash_ex.cpp ****   }
 344:Drivers/STM32L1xx_HAL_Driver/stm32l1xx_hal_flash_ex.cpp ****   
 345:Drivers/STM32L1xx_HAL_Driver/stm32l1xx_hal_flash_ex.cpp ****   /* Read protection configuration*/
 346:Drivers/STM32L1xx_HAL_Driver/stm32l1xx_hal_flash_ex.cpp ****   if((pOBInit->OptionType & OPTIONBYTE_RDP) == OPTIONBYTE_RDP)
 375              		.loc 1 346 0
 376 007a 7B68     		ldr	r3, [r7, #4]	@ tmp170, pOBInit
 377 007c 1B68     		ldr	r3, [r3, #0]	@ D.6545, pOBInit_10(D)->OptionType
 378 007e 03F00203 		and	r3, r3, #2	@ D.6546, D.6545,
 379 0082 002B     		cmp	r3, #0	@ D.6546,
 380 0084 12D0     		beq	.L18	@,
 347:Drivers/STM32L1xx_HAL_Driver/stm32l1xx_hal_flash_ex.cpp ****   {
 348:Drivers/STM32L1xx_HAL_Driver/stm32l1xx_hal_flash_ex.cpp ****     status = FLASH_OB_RDPConfig(pOBInit->RDPLevel);
 381              		.loc 1 348 0
 382 0086 7B68     		ldr	r3, [r7, #4]	@ tmp171, pOBInit
 383 0088 1B7B     		ldrb	r3, [r3, #12]	@ zero_extendqisi2	@ D.6549, pOBInit_10(D)->RDPLevel
 384 008a 1846     		mov	r0, r3	@, D.6549
 385 008c FFF7FEFF 		bl	_ZL18FLASH_OB_RDPConfigh	@
 386 0090 0346     		mov	r3, r0	@ tmp172,
 387 0092 FB73     		strb	r3, [r7, #15]	@ tmp173, status
 349:Drivers/STM32L1xx_HAL_Driver/stm32l1xx_hal_flash_ex.cpp ****     if (status != HAL_OK)
 388              		.loc 1 349 0
 389 0094 FB7B     		ldrb	r3, [r7, #15]	@ zero_extendqisi2	@ tmp174, status
 390 0096 002B     		cmp	r3, #0	@ tmp174,
ARM GAS  /tmp/ccwmM6Ug.s 			page 14


 391 0098 08D0     		beq	.L18	@,
 350:Drivers/STM32L1xx_HAL_Driver/stm32l1xx_hal_flash_ex.cpp ****     {
 351:Drivers/STM32L1xx_HAL_Driver/stm32l1xx_hal_flash_ex.cpp ****       /* Process Unlocked */
 352:Drivers/STM32L1xx_HAL_Driver/stm32l1xx_hal_flash_ex.cpp ****       __HAL_UNLOCK(&ProcFlash);
 392              		.loc 1 352 0
 393 009a 40F20003 		movw	r3, #:lower16:ProcFlash	@ tmp175,
 394 009e C0F20003 		movt	r3, #:upper16:ProcFlash	@ tmp175,
 395 00a2 4FF00002 		mov	r2, #0	@ tmp176,
 396 00a6 1A74     		strb	r2, [r3, #16]	@ tmp177, ProcFlash.Lock
 353:Drivers/STM32L1xx_HAL_Driver/stm32l1xx_hal_flash_ex.cpp ****       return status;
 397              		.loc 1 353 0
 398 00a8 FB7B     		ldrb	r3, [r7, #15]	@ zero_extendqisi2	@ D.6531, status
 399 00aa 3CE0     		b	.L14	@
 400              	.L18:
 354:Drivers/STM32L1xx_HAL_Driver/stm32l1xx_hal_flash_ex.cpp ****     }
 355:Drivers/STM32L1xx_HAL_Driver/stm32l1xx_hal_flash_ex.cpp ****   }
 356:Drivers/STM32L1xx_HAL_Driver/stm32l1xx_hal_flash_ex.cpp ****   
 357:Drivers/STM32L1xx_HAL_Driver/stm32l1xx_hal_flash_ex.cpp ****   /* USER  configuration*/
 358:Drivers/STM32L1xx_HAL_Driver/stm32l1xx_hal_flash_ex.cpp ****   if((pOBInit->OptionType & OPTIONBYTE_USER) == OPTIONBYTE_USER)
 401              		.loc 1 358 0
 402 00ac 7B68     		ldr	r3, [r7, #4]	@ tmp178, pOBInit
 403 00ae 1B68     		ldr	r3, [r3, #0]	@ D.6555, pOBInit_10(D)->OptionType
 404 00b0 03F00403 		and	r3, r3, #4	@ D.6556, D.6555,
 405 00b4 002B     		cmp	r3, #0	@ D.6556,
 406 00b6 21D0     		beq	.L19	@,
 359:Drivers/STM32L1xx_HAL_Driver/stm32l1xx_hal_flash_ex.cpp ****   {
 360:Drivers/STM32L1xx_HAL_Driver/stm32l1xx_hal_flash_ex.cpp ****     status = FLASH_OB_UserConfig(pOBInit->USERConfig & OB_IWDG_SW, 
 361:Drivers/STM32L1xx_HAL_Driver/stm32l1xx_hal_flash_ex.cpp ****                                  pOBInit->USERConfig & OB_STOP_NORST,
 362:Drivers/STM32L1xx_HAL_Driver/stm32l1xx_hal_flash_ex.cpp ****                                  pOBInit->USERConfig & OB_STDBY_NORST);
 407              		.loc 1 362 0
 408 00b8 7B68     		ldr	r3, [r7, #4]	@ tmp179, pOBInit
 409 00ba 9B7B     		ldrb	r3, [r3, #14]	@ zero_extendqisi2	@ D.6559, pOBInit_10(D)->USERConfig
 410 00bc 03F01003 		and	r3, r3, #16	@ tmp180, D.6559,
 411 00c0 D9B2     		uxtb	r1, r3	@ D.6560, tmp180
 412 00c2 7B68     		ldr	r3, [r7, #4]	@ tmp181, pOBInit
 413 00c4 9B7B     		ldrb	r3, [r3, #14]	@ zero_extendqisi2	@ D.6561, pOBInit_10(D)->USERConfig
 414 00c6 03F02003 		and	r3, r3, #32	@ tmp182, D.6561,
 415 00ca DAB2     		uxtb	r2, r3	@ D.6562, tmp182
 416 00cc 7B68     		ldr	r3, [r7, #4]	@ tmp183, pOBInit
 417 00ce 9B7B     		ldrb	r3, [r3, #14]	@ zero_extendqisi2	@ D.6563, pOBInit_10(D)->USERConfig
 418 00d0 03F04003 		and	r3, r3, #64	@ tmp184, D.6563,
 419 00d4 DBB2     		uxtb	r3, r3	@ D.6564, tmp184
 420 00d6 0846     		mov	r0, r1	@, D.6560
 421 00d8 1146     		mov	r1, r2	@, D.6562
 422 00da 1A46     		mov	r2, r3	@, D.6564
 423 00dc FFF7FEFF 		bl	_ZL19FLASH_OB_UserConfighhh	@
 424 00e0 0346     		mov	r3, r0	@ tmp185,
 425 00e2 FB73     		strb	r3, [r7, #15]	@ tmp186, status
 363:Drivers/STM32L1xx_HAL_Driver/stm32l1xx_hal_flash_ex.cpp ****     if (status != HAL_OK)
 426              		.loc 1 363 0
 427 00e4 FB7B     		ldrb	r3, [r7, #15]	@ zero_extendqisi2	@ tmp187, status
 428 00e6 002B     		cmp	r3, #0	@ tmp187,
 429 00e8 08D0     		beq	.L19	@,
 364:Drivers/STM32L1xx_HAL_Driver/stm32l1xx_hal_flash_ex.cpp ****     {
 365:Drivers/STM32L1xx_HAL_Driver/stm32l1xx_hal_flash_ex.cpp ****       /* Process Unlocked */
 366:Drivers/STM32L1xx_HAL_Driver/stm32l1xx_hal_flash_ex.cpp ****       __HAL_UNLOCK(&ProcFlash);
 430              		.loc 1 366 0
ARM GAS  /tmp/ccwmM6Ug.s 			page 15


 431 00ea 40F20003 		movw	r3, #:lower16:ProcFlash	@ tmp188,
 432 00ee C0F20003 		movt	r3, #:upper16:ProcFlash	@ tmp188,
 433 00f2 4FF00002 		mov	r2, #0	@ tmp189,
 434 00f6 1A74     		strb	r2, [r3, #16]	@ tmp190, ProcFlash.Lock
 367:Drivers/STM32L1xx_HAL_Driver/stm32l1xx_hal_flash_ex.cpp ****       return status;
 435              		.loc 1 367 0
 436 00f8 FB7B     		ldrb	r3, [r7, #15]	@ zero_extendqisi2	@ D.6531, status
 437 00fa 14E0     		b	.L14	@
 438              	.L19:
 368:Drivers/STM32L1xx_HAL_Driver/stm32l1xx_hal_flash_ex.cpp ****     }
 369:Drivers/STM32L1xx_HAL_Driver/stm32l1xx_hal_flash_ex.cpp ****   }
 370:Drivers/STM32L1xx_HAL_Driver/stm32l1xx_hal_flash_ex.cpp **** 
 371:Drivers/STM32L1xx_HAL_Driver/stm32l1xx_hal_flash_ex.cpp ****   /* BOR Level  configuration*/
 372:Drivers/STM32L1xx_HAL_Driver/stm32l1xx_hal_flash_ex.cpp ****   if((pOBInit->OptionType & OPTIONBYTE_BOR) == OPTIONBYTE_BOR)
 439              		.loc 1 372 0
 440 00fc 7B68     		ldr	r3, [r7, #4]	@ tmp191, pOBInit
 441 00fe 1B68     		ldr	r3, [r3, #0]	@ D.6570, pOBInit_10(D)->OptionType
 442 0100 03F00803 		and	r3, r3, #8	@ D.6571, D.6570,
 443 0104 002B     		cmp	r3, #0	@ D.6571,
 444 0106 06D0     		beq	.L20	@,
 373:Drivers/STM32L1xx_HAL_Driver/stm32l1xx_hal_flash_ex.cpp ****   {
 374:Drivers/STM32L1xx_HAL_Driver/stm32l1xx_hal_flash_ex.cpp ****     status = FLASH_OB_BORConfig(pOBInit->BORLevel);
 445              		.loc 1 374 0
 446 0108 7B68     		ldr	r3, [r7, #4]	@ tmp192, pOBInit
 447 010a 5B7B     		ldrb	r3, [r3, #13]	@ zero_extendqisi2	@ D.6574, pOBInit_10(D)->BORLevel
 448 010c 1846     		mov	r0, r3	@, D.6574
 449 010e FFF7FEFF 		bl	_ZL18FLASH_OB_BORConfigh	@
 450 0112 0346     		mov	r3, r0	@ tmp193,
 451 0114 FB73     		strb	r3, [r7, #15]	@ tmp194, status
 452              	.L20:
 375:Drivers/STM32L1xx_HAL_Driver/stm32l1xx_hal_flash_ex.cpp ****   } 
 376:Drivers/STM32L1xx_HAL_Driver/stm32l1xx_hal_flash_ex.cpp ****   /* Process Unlocked */
 377:Drivers/STM32L1xx_HAL_Driver/stm32l1xx_hal_flash_ex.cpp ****   __HAL_UNLOCK(&ProcFlash);
 453              		.loc 1 377 0
 454 0116 40F20003 		movw	r3, #:lower16:ProcFlash	@ tmp195,
 455 011a C0F20003 		movt	r3, #:upper16:ProcFlash	@ tmp195,
 456 011e 4FF00002 		mov	r2, #0	@ tmp196,
 457 0122 1A74     		strb	r2, [r3, #16]	@ tmp197, ProcFlash.Lock
 378:Drivers/STM32L1xx_HAL_Driver/stm32l1xx_hal_flash_ex.cpp **** 
 379:Drivers/STM32L1xx_HAL_Driver/stm32l1xx_hal_flash_ex.cpp ****   return status;
 458              		.loc 1 379 0
 459 0124 FB7B     		ldrb	r3, [r7, #15]	@ zero_extendqisi2	@ D.6531, status
 460              	.L14:
 461              	.LBE16:
 380:Drivers/STM32L1xx_HAL_Driver/stm32l1xx_hal_flash_ex.cpp **** }
 462              		.loc 1 380 0
 463 0126 1846     		mov	r0, r3	@, <retval>
 464 0128 07F11007 		add	r7, r7, #16	@,,
 465 012c BD46     		mov	sp, r7
 466 012e 80BD     		pop	{r7, pc}
 467              		.cfi_endproc
 468              	.LFE58:
 469              		.size	HAL_FLASHEx_OBProgram, .-HAL_FLASHEx_OBProgram
 470              		.section	.text.HAL_FLASHEx_OBGetConfig,"ax",%progbits
 471              		.align	2
 472              		.global	HAL_FLASHEx_OBGetConfig
 473              		.thumb
ARM GAS  /tmp/ccwmM6Ug.s 			page 16


 474              		.thumb_func
 475              		.type	HAL_FLASHEx_OBGetConfig, %function
 476              	HAL_FLASHEx_OBGetConfig:
 477              	.LFB59:
 381:Drivers/STM32L1xx_HAL_Driver/stm32l1xx_hal_flash_ex.cpp **** 
 382:Drivers/STM32L1xx_HAL_Driver/stm32l1xx_hal_flash_ex.cpp **** /**
 383:Drivers/STM32L1xx_HAL_Driver/stm32l1xx_hal_flash_ex.cpp ****   * @brief   Get the Option byte configuration
 384:Drivers/STM32L1xx_HAL_Driver/stm32l1xx_hal_flash_ex.cpp ****   * @param  pOBInit: pointer to an FLASH_OBInitStruct structure that
 385:Drivers/STM32L1xx_HAL_Driver/stm32l1xx_hal_flash_ex.cpp ****   *         contains the configuration information for the programming.
 386:Drivers/STM32L1xx_HAL_Driver/stm32l1xx_hal_flash_ex.cpp ****   * 
 387:Drivers/STM32L1xx_HAL_Driver/stm32l1xx_hal_flash_ex.cpp ****   * @retval None
 388:Drivers/STM32L1xx_HAL_Driver/stm32l1xx_hal_flash_ex.cpp ****   */
 389:Drivers/STM32L1xx_HAL_Driver/stm32l1xx_hal_flash_ex.cpp **** void HAL_FLASHEx_OBGetConfig(FLASH_OBProgramInitTypeDef *pOBInit)
 390:Drivers/STM32L1xx_HAL_Driver/stm32l1xx_hal_flash_ex.cpp **** {
 478              		.loc 1 390 0
 479              		.cfi_startproc
 480              		@ args = 0, pretend = 0, frame = 8
 481              		@ frame_needed = 1, uses_anonymous_args = 0
 482 0000 80B5     		push	{r7, lr}	@
 483              	.LCFI9:
 484              		.cfi_def_cfa_offset 8
 485              		.cfi_offset 7, -8
 486              		.cfi_offset 14, -4
 487 0002 82B0     		sub	sp, sp, #8	@,,
 488              	.LCFI10:
 489              		.cfi_def_cfa_offset 16
 490 0004 00AF     		add	r7, sp, #0	@,,
 491              	.LCFI11:
 492              		.cfi_def_cfa_register 7
 493 0006 7860     		str	r0, [r7, #4]	@ pOBInit, pOBInit
 391:Drivers/STM32L1xx_HAL_Driver/stm32l1xx_hal_flash_ex.cpp ****   pOBInit->OptionType = OPTIONBYTE_WRP | OPTIONBYTE_RDP | OPTIONBYTE_USER | OPTIONBYTE_BOR;
 494              		.loc 1 391 0
 495 0008 7B68     		ldr	r3, [r7, #4]	@ tmp139, pOBInit
 496 000a 4FF00F02 		mov	r2, #15	@ tmp140,
 497 000e 1A60     		str	r2, [r3, #0]	@ tmp140, pOBInit_1(D)->OptionType
 392:Drivers/STM32L1xx_HAL_Driver/stm32l1xx_hal_flash_ex.cpp **** 
 393:Drivers/STM32L1xx_HAL_Driver/stm32l1xx_hal_flash_ex.cpp ****   /*Get WRP1*/
 394:Drivers/STM32L1xx_HAL_Driver/stm32l1xx_hal_flash_ex.cpp ****   pOBInit->WRPSector0To31 = (uint32_t)(FLASH->WRPR1);
 498              		.loc 1 394 0
 499 0010 4FF47053 		mov	r3, #15360	@ D.6521,
 500 0014 C4F20203 		movt	r3, 16386	@ D.6521,
 501 0018 1A6A     		ldr	r2, [r3, #32]	@ D.6522, D.6521_2->WRPR1
 502 001a 7B68     		ldr	r3, [r7, #4]	@ tmp141, pOBInit
 503 001c 9A60     		str	r2, [r3, #8]	@ D.6522, pOBInit_1(D)->WRPSector0To31
 395:Drivers/STM32L1xx_HAL_Driver/stm32l1xx_hal_flash_ex.cpp **** 
 396:Drivers/STM32L1xx_HAL_Driver/stm32l1xx_hal_flash_ex.cpp **** #if defined(STM32L100xC) || defined (STM32L151xC) || defined (STM32L152xC) || defined (STM32L162xC)
 397:Drivers/STM32L1xx_HAL_Driver/stm32l1xx_hal_flash_ex.cpp ****     defined(STM32L151xCA) || defined (STM32L151xD) || defined (STM32L152xCA) || defined (STM32L152x
 398:Drivers/STM32L1xx_HAL_Driver/stm32l1xx_hal_flash_ex.cpp ****     defined(STM32L151xE) || defined (STM32L152xE) || defined (STM32L162xE)
 399:Drivers/STM32L1xx_HAL_Driver/stm32l1xx_hal_flash_ex.cpp ****     
 400:Drivers/STM32L1xx_HAL_Driver/stm32l1xx_hal_flash_ex.cpp ****   /*Get WRP2*/
 401:Drivers/STM32L1xx_HAL_Driver/stm32l1xx_hal_flash_ex.cpp ****   pOBInit->WRPSector32To63 = (uint32_t)(FLASH->WRPR2);
 402:Drivers/STM32L1xx_HAL_Driver/stm32l1xx_hal_flash_ex.cpp **** 
 403:Drivers/STM32L1xx_HAL_Driver/stm32l1xx_hal_flash_ex.cpp **** #endif /* STM32L100xC || STM32L151xC || STM32L152xC || STM32L162xC || STM32L151xCA || STM32L151xD |
 404:Drivers/STM32L1xx_HAL_Driver/stm32l1xx_hal_flash_ex.cpp ****   
 405:Drivers/STM32L1xx_HAL_Driver/stm32l1xx_hal_flash_ex.cpp **** #if defined (STM32L151xD) || defined (STM32L152xD) || defined (STM32L162xD) || \
 406:Drivers/STM32L1xx_HAL_Driver/stm32l1xx_hal_flash_ex.cpp ****     defined(STM32L151xE) || defined (STM32L152xE) || defined (STM32L162xE)
 407:Drivers/STM32L1xx_HAL_Driver/stm32l1xx_hal_flash_ex.cpp ****     
ARM GAS  /tmp/ccwmM6Ug.s 			page 17


 408:Drivers/STM32L1xx_HAL_Driver/stm32l1xx_hal_flash_ex.cpp ****   /*Get WRP3*/
 409:Drivers/STM32L1xx_HAL_Driver/stm32l1xx_hal_flash_ex.cpp ****   pOBInit->WRPSector64To95 = (uint32_t)(FLASH->WRPR3);
 410:Drivers/STM32L1xx_HAL_Driver/stm32l1xx_hal_flash_ex.cpp **** 
 411:Drivers/STM32L1xx_HAL_Driver/stm32l1xx_hal_flash_ex.cpp **** #endif /* STM32L151xD || STM32L152xD || STM32L162xD || STM32L151xE || STM32L152xE || STM32L162xE */
 412:Drivers/STM32L1xx_HAL_Driver/stm32l1xx_hal_flash_ex.cpp ****   
 413:Drivers/STM32L1xx_HAL_Driver/stm32l1xx_hal_flash_ex.cpp **** #if defined(STM32L151xE) || defined (STM32L152xE) || defined (STM32L162xE)
 414:Drivers/STM32L1xx_HAL_Driver/stm32l1xx_hal_flash_ex.cpp **** 
 415:Drivers/STM32L1xx_HAL_Driver/stm32l1xx_hal_flash_ex.cpp ****   /*Get WRP4*/
 416:Drivers/STM32L1xx_HAL_Driver/stm32l1xx_hal_flash_ex.cpp ****   pOBInit->WRPSector96To127 = (uint32_t)(FLASH->WRPR4);
 417:Drivers/STM32L1xx_HAL_Driver/stm32l1xx_hal_flash_ex.cpp **** 
 418:Drivers/STM32L1xx_HAL_Driver/stm32l1xx_hal_flash_ex.cpp **** #endif /* STM32L151xE || STM32L152xE || STM32L162xE */
 419:Drivers/STM32L1xx_HAL_Driver/stm32l1xx_hal_flash_ex.cpp **** 
 420:Drivers/STM32L1xx_HAL_Driver/stm32l1xx_hal_flash_ex.cpp ****   /*Get RDP Level*/
 421:Drivers/STM32L1xx_HAL_Driver/stm32l1xx_hal_flash_ex.cpp ****   pOBInit->RDPLevel   = FLASH_OB_GetRDP();
 504              		.loc 1 421 0
 505 001e FFF7FEFF 		bl	_ZL15FLASH_OB_GetRDPv	@
 506 0022 0346     		mov	r3, r0	@ tmp142,
 507 0024 1A46     		mov	r2, r3	@ D.6523, tmp142
 508 0026 7B68     		ldr	r3, [r7, #4]	@ tmp143, pOBInit
 509 0028 1A73     		strb	r2, [r3, #12]	@ tmp144, pOBInit_1(D)->RDPLevel
 422:Drivers/STM32L1xx_HAL_Driver/stm32l1xx_hal_flash_ex.cpp **** 
 423:Drivers/STM32L1xx_HAL_Driver/stm32l1xx_hal_flash_ex.cpp ****   /*Get USER*/
 424:Drivers/STM32L1xx_HAL_Driver/stm32l1xx_hal_flash_ex.cpp ****   pOBInit->USERConfig = FLASH_OB_GetUser();
 510              		.loc 1 424 0
 511 002a FFF7FEFF 		bl	_ZL16FLASH_OB_GetUserv	@
 512 002e 0346     		mov	r3, r0	@ tmp145,
 513 0030 1A46     		mov	r2, r3	@ D.6524, tmp145
 514 0032 7B68     		ldr	r3, [r7, #4]	@ tmp146, pOBInit
 515 0034 9A73     		strb	r2, [r3, #14]	@ tmp147, pOBInit_1(D)->USERConfig
 425:Drivers/STM32L1xx_HAL_Driver/stm32l1xx_hal_flash_ex.cpp **** 
 426:Drivers/STM32L1xx_HAL_Driver/stm32l1xx_hal_flash_ex.cpp ****   /*Get BOR Level*/
 427:Drivers/STM32L1xx_HAL_Driver/stm32l1xx_hal_flash_ex.cpp ****   pOBInit->BORLevel   = FLASH_OB_GetBOR();
 516              		.loc 1 427 0
 517 0036 FFF7FEFF 		bl	_ZL15FLASH_OB_GetBORv	@
 518 003a 0346     		mov	r3, r0	@ tmp148,
 519 003c 1A46     		mov	r2, r3	@ D.6525, tmp148
 520 003e 7B68     		ldr	r3, [r7, #4]	@ tmp149, pOBInit
 521 0040 5A73     		strb	r2, [r3, #13]	@ tmp150, pOBInit_1(D)->BORLevel
 428:Drivers/STM32L1xx_HAL_Driver/stm32l1xx_hal_flash_ex.cpp ****   
 429:Drivers/STM32L1xx_HAL_Driver/stm32l1xx_hal_flash_ex.cpp **** }
 522              		.loc 1 429 0
 523 0042 07F10807 		add	r7, r7, #8	@,,
 524 0046 BD46     		mov	sp, r7
 525 0048 80BD     		pop	{r7, pc}
 526              		.cfi_endproc
 527              	.LFE59:
 528              		.size	HAL_FLASHEx_OBGetConfig, .-HAL_FLASHEx_OBGetConfig
 529 004a 00BF     		.section	.text.HAL_FLASHEx_DATAEEPROM_Unlock,"ax",%progbits
 530              		.align	2
 531              		.global	HAL_FLASHEx_DATAEEPROM_Unlock
 532              		.thumb
 533              		.thumb_func
 534              		.type	HAL_FLASHEx_DATAEEPROM_Unlock, %function
 535              	HAL_FLASHEx_DATAEEPROM_Unlock:
 536              	.LFB60:
 430:Drivers/STM32L1xx_HAL_Driver/stm32l1xx_hal_flash_ex.cpp **** 
 431:Drivers/STM32L1xx_HAL_Driver/stm32l1xx_hal_flash_ex.cpp **** #if defined (STM32L151xBA) || defined (STM32L152xBA) || \
ARM GAS  /tmp/ccwmM6Ug.s 			page 18


 432:Drivers/STM32L1xx_HAL_Driver/stm32l1xx_hal_flash_ex.cpp ****     defined (STM32L151xC) || defined (STM32L152xC) || defined (STM32L162xC) || \
 433:Drivers/STM32L1xx_HAL_Driver/stm32l1xx_hal_flash_ex.cpp ****     defined (STM32L151xD) || defined (STM32L152xD) || defined (STM32L162xD) || \
 434:Drivers/STM32L1xx_HAL_Driver/stm32l1xx_hal_flash_ex.cpp ****     defined(STM32L151xE) || defined (STM32L152xE) || defined (STM32L162xE)
 435:Drivers/STM32L1xx_HAL_Driver/stm32l1xx_hal_flash_ex.cpp ****     
 436:Drivers/STM32L1xx_HAL_Driver/stm32l1xx_hal_flash_ex.cpp **** /**
 437:Drivers/STM32L1xx_HAL_Driver/stm32l1xx_hal_flash_ex.cpp ****   * @brief  Program option bytes
 438:Drivers/STM32L1xx_HAL_Driver/stm32l1xx_hal_flash_ex.cpp ****   * @note   This function can be used only for Cat2 & Cat3 devices for PCROP and Cat4 & Cat5 for BF
 439:Drivers/STM32L1xx_HAL_Driver/stm32l1xx_hal_flash_ex.cpp ****   * @param  pAdvOBInit: pointer to an FLASH_AdvOBProgramInitTypeDef structure that
 440:Drivers/STM32L1xx_HAL_Driver/stm32l1xx_hal_flash_ex.cpp ****   *         contains the configuration information for the programming.
 441:Drivers/STM32L1xx_HAL_Driver/stm32l1xx_hal_flash_ex.cpp ****   * 
 442:Drivers/STM32L1xx_HAL_Driver/stm32l1xx_hal_flash_ex.cpp ****   * @retval HAL_StatusTypeDef HAL Status
 443:Drivers/STM32L1xx_HAL_Driver/stm32l1xx_hal_flash_ex.cpp ****   */
 444:Drivers/STM32L1xx_HAL_Driver/stm32l1xx_hal_flash_ex.cpp **** HAL_StatusTypeDef HAL_FLASHEx_AdvOBProgram (FLASH_AdvOBProgramInitTypeDef *pAdvOBInit)
 445:Drivers/STM32L1xx_HAL_Driver/stm32l1xx_hal_flash_ex.cpp **** {
 446:Drivers/STM32L1xx_HAL_Driver/stm32l1xx_hal_flash_ex.cpp ****   HAL_StatusTypeDef status = HAL_ERROR;
 447:Drivers/STM32L1xx_HAL_Driver/stm32l1xx_hal_flash_ex.cpp ****   
 448:Drivers/STM32L1xx_HAL_Driver/stm32l1xx_hal_flash_ex.cpp ****   /* Check the parameters */
 449:Drivers/STM32L1xx_HAL_Driver/stm32l1xx_hal_flash_ex.cpp ****   assert_param(IS_OBEX(pAdvOBInit->OptionType));
 450:Drivers/STM32L1xx_HAL_Driver/stm32l1xx_hal_flash_ex.cpp **** 
 451:Drivers/STM32L1xx_HAL_Driver/stm32l1xx_hal_flash_ex.cpp **** #if defined (STM32L151xBA) || defined (STM32L152xBA) || \
 452:Drivers/STM32L1xx_HAL_Driver/stm32l1xx_hal_flash_ex.cpp ****     defined (STM32L151xC) || defined (STM32L152xC) || defined (STM32L162xC)
 453:Drivers/STM32L1xx_HAL_Driver/stm32l1xx_hal_flash_ex.cpp ****     
 454:Drivers/STM32L1xx_HAL_Driver/stm32l1xx_hal_flash_ex.cpp ****   /* Cat2 & Cat3 devices only */
 455:Drivers/STM32L1xx_HAL_Driver/stm32l1xx_hal_flash_ex.cpp ****   /*Program PCROP option byte*/
 456:Drivers/STM32L1xx_HAL_Driver/stm32l1xx_hal_flash_ex.cpp ****   if ((pAdvOBInit->OptionType & OBEX_PCROP) == OBEX_PCROP)
 457:Drivers/STM32L1xx_HAL_Driver/stm32l1xx_hal_flash_ex.cpp ****   {
 458:Drivers/STM32L1xx_HAL_Driver/stm32l1xx_hal_flash_ex.cpp ****     /* Check the parameters */
 459:Drivers/STM32L1xx_HAL_Driver/stm32l1xx_hal_flash_ex.cpp ****     assert_param(IS_PCROPSTATE(pAdvOBInit->PCROPState));
 460:Drivers/STM32L1xx_HAL_Driver/stm32l1xx_hal_flash_ex.cpp ****     if (pAdvOBInit->PCROPState == PCROPSTATE_ENABLE)
 461:Drivers/STM32L1xx_HAL_Driver/stm32l1xx_hal_flash_ex.cpp ****     {
 462:Drivers/STM32L1xx_HAL_Driver/stm32l1xx_hal_flash_ex.cpp ****       /*Enable of Write protection on the selected Sector*/
 463:Drivers/STM32L1xx_HAL_Driver/stm32l1xx_hal_flash_ex.cpp ****       status = FLASH_OB_PCROPConfig(pAdvOBInit, ENABLE);
 464:Drivers/STM32L1xx_HAL_Driver/stm32l1xx_hal_flash_ex.cpp ****       if (status != HAL_OK)
 465:Drivers/STM32L1xx_HAL_Driver/stm32l1xx_hal_flash_ex.cpp ****       {
 466:Drivers/STM32L1xx_HAL_Driver/stm32l1xx_hal_flash_ex.cpp ****         return status;
 467:Drivers/STM32L1xx_HAL_Driver/stm32l1xx_hal_flash_ex.cpp ****       }
 468:Drivers/STM32L1xx_HAL_Driver/stm32l1xx_hal_flash_ex.cpp ****     }
 469:Drivers/STM32L1xx_HAL_Driver/stm32l1xx_hal_flash_ex.cpp ****     else
 470:Drivers/STM32L1xx_HAL_Driver/stm32l1xx_hal_flash_ex.cpp ****     {
 471:Drivers/STM32L1xx_HAL_Driver/stm32l1xx_hal_flash_ex.cpp ****       /*Disable of Write protection on the selected Sector*/ 
 472:Drivers/STM32L1xx_HAL_Driver/stm32l1xx_hal_flash_ex.cpp ****       status = FLASH_OB_PCROPConfig(pAdvOBInit, DISABLE);
 473:Drivers/STM32L1xx_HAL_Driver/stm32l1xx_hal_flash_ex.cpp ****       if (status != HAL_OK)
 474:Drivers/STM32L1xx_HAL_Driver/stm32l1xx_hal_flash_ex.cpp ****       {
 475:Drivers/STM32L1xx_HAL_Driver/stm32l1xx_hal_flash_ex.cpp ****         return status;
 476:Drivers/STM32L1xx_HAL_Driver/stm32l1xx_hal_flash_ex.cpp ****       }
 477:Drivers/STM32L1xx_HAL_Driver/stm32l1xx_hal_flash_ex.cpp ****     }
 478:Drivers/STM32L1xx_HAL_Driver/stm32l1xx_hal_flash_ex.cpp ****   }
 479:Drivers/STM32L1xx_HAL_Driver/stm32l1xx_hal_flash_ex.cpp ****   
 480:Drivers/STM32L1xx_HAL_Driver/stm32l1xx_hal_flash_ex.cpp **** #endif /* STM32L151xBA || STM32L152xBA || STM32L151xC || STM32L152xC || STM32L162xC */
 481:Drivers/STM32L1xx_HAL_Driver/stm32l1xx_hal_flash_ex.cpp **** 
 482:Drivers/STM32L1xx_HAL_Driver/stm32l1xx_hal_flash_ex.cpp **** #if defined (STM32L151xD) || defined (STM32L152xD) || defined (STM32L162xD) || \
 483:Drivers/STM32L1xx_HAL_Driver/stm32l1xx_hal_flash_ex.cpp ****     defined(STM32L151xE) || defined (STM32L152xE) || defined (STM32L162xE)
 484:Drivers/STM32L1xx_HAL_Driver/stm32l1xx_hal_flash_ex.cpp ****     
 485:Drivers/STM32L1xx_HAL_Driver/stm32l1xx_hal_flash_ex.cpp ****   /* Cat4 & Cat5 devices only */
 486:Drivers/STM32L1xx_HAL_Driver/stm32l1xx_hal_flash_ex.cpp ****   /*Program BOOT config option byte*/
 487:Drivers/STM32L1xx_HAL_Driver/stm32l1xx_hal_flash_ex.cpp ****   if ((pAdvOBInit->OptionType & OBEX_BOOTCONFIG) == OBEX_BOOTCONFIG)
 488:Drivers/STM32L1xx_HAL_Driver/stm32l1xx_hal_flash_ex.cpp ****   {
ARM GAS  /tmp/ccwmM6Ug.s 			page 19


 489:Drivers/STM32L1xx_HAL_Driver/stm32l1xx_hal_flash_ex.cpp ****     status = FLASH_OB_BootConfig(pAdvOBInit->BootConfig);
 490:Drivers/STM32L1xx_HAL_Driver/stm32l1xx_hal_flash_ex.cpp ****   }
 491:Drivers/STM32L1xx_HAL_Driver/stm32l1xx_hal_flash_ex.cpp ****   
 492:Drivers/STM32L1xx_HAL_Driver/stm32l1xx_hal_flash_ex.cpp **** #endif /* STM32L151xD || STM32L152xD || STM32L162xD || STM32L151xE || STM32L152xE || STM32L162xE */
 493:Drivers/STM32L1xx_HAL_Driver/stm32l1xx_hal_flash_ex.cpp **** 
 494:Drivers/STM32L1xx_HAL_Driver/stm32l1xx_hal_flash_ex.cpp ****   return status;
 495:Drivers/STM32L1xx_HAL_Driver/stm32l1xx_hal_flash_ex.cpp **** }
 496:Drivers/STM32L1xx_HAL_Driver/stm32l1xx_hal_flash_ex.cpp **** 
 497:Drivers/STM32L1xx_HAL_Driver/stm32l1xx_hal_flash_ex.cpp **** /**
 498:Drivers/STM32L1xx_HAL_Driver/stm32l1xx_hal_flash_ex.cpp ****   * @brief   Get the OBEX byte configuration
 499:Drivers/STM32L1xx_HAL_Driver/stm32l1xx_hal_flash_ex.cpp ****   * @note   This function can be used only for Cat2  & Cat3 devices for PCROP and Cat4 & Cat5 for B
 500:Drivers/STM32L1xx_HAL_Driver/stm32l1xx_hal_flash_ex.cpp ****   * @param  pAdvOBInit: pointer to an FLASH_AdvOBProgramInitTypeDef structure that
 501:Drivers/STM32L1xx_HAL_Driver/stm32l1xx_hal_flash_ex.cpp ****   *         contains the configuration information for the programming.
 502:Drivers/STM32L1xx_HAL_Driver/stm32l1xx_hal_flash_ex.cpp ****   * 
 503:Drivers/STM32L1xx_HAL_Driver/stm32l1xx_hal_flash_ex.cpp ****   * @retval None
 504:Drivers/STM32L1xx_HAL_Driver/stm32l1xx_hal_flash_ex.cpp ****   */
 505:Drivers/STM32L1xx_HAL_Driver/stm32l1xx_hal_flash_ex.cpp **** void HAL_FLASHEx_AdvOBGetConfig(FLASH_AdvOBProgramInitTypeDef *pAdvOBInit)
 506:Drivers/STM32L1xx_HAL_Driver/stm32l1xx_hal_flash_ex.cpp **** {
 507:Drivers/STM32L1xx_HAL_Driver/stm32l1xx_hal_flash_ex.cpp **** #if defined (STM32L151xBA) || defined (STM32L152xBA) || \
 508:Drivers/STM32L1xx_HAL_Driver/stm32l1xx_hal_flash_ex.cpp ****     defined (STM32L151xC) || defined (STM32L152xC) || defined (STM32L162xC)
 509:Drivers/STM32L1xx_HAL_Driver/stm32l1xx_hal_flash_ex.cpp ****       
 510:Drivers/STM32L1xx_HAL_Driver/stm32l1xx_hal_flash_ex.cpp ****   pAdvOBInit->OptionType = OBEX_PCROP;
 511:Drivers/STM32L1xx_HAL_Driver/stm32l1xx_hal_flash_ex.cpp **** 
 512:Drivers/STM32L1xx_HAL_Driver/stm32l1xx_hal_flash_ex.cpp ****   /*Get PCROP state */
 513:Drivers/STM32L1xx_HAL_Driver/stm32l1xx_hal_flash_ex.cpp ****   pAdvOBInit->PCROPState = (FLASH->OBR & FLASH_OBR_SPRMOD) >> POSITION_VAL(FLASH_OBR_SPRMOD);
 514:Drivers/STM32L1xx_HAL_Driver/stm32l1xx_hal_flash_ex.cpp ****   
 515:Drivers/STM32L1xx_HAL_Driver/stm32l1xx_hal_flash_ex.cpp ****   /*Get PCROP protected sector from 0 to 31 */
 516:Drivers/STM32L1xx_HAL_Driver/stm32l1xx_hal_flash_ex.cpp ****   pAdvOBInit->PCROPSector0To31 = FLASH->WRPR1;
 517:Drivers/STM32L1xx_HAL_Driver/stm32l1xx_hal_flash_ex.cpp ****   
 518:Drivers/STM32L1xx_HAL_Driver/stm32l1xx_hal_flash_ex.cpp ****   #if defined(STM32L100xC) || defined (STM32L151xC) || defined (STM32L152xC) || defined (STM32L162x
 519:Drivers/STM32L1xx_HAL_Driver/stm32l1xx_hal_flash_ex.cpp **** 
 520:Drivers/STM32L1xx_HAL_Driver/stm32l1xx_hal_flash_ex.cpp ****   /*Get PCROP protected sector from 32 to 63 */
 521:Drivers/STM32L1xx_HAL_Driver/stm32l1xx_hal_flash_ex.cpp ****   pAdvOBInit->PCROPSector32To63 = FLASH->WRPR2;
 522:Drivers/STM32L1xx_HAL_Driver/stm32l1xx_hal_flash_ex.cpp **** 
 523:Drivers/STM32L1xx_HAL_Driver/stm32l1xx_hal_flash_ex.cpp ****   #endif /* STM32L100xC || STM32L151xC || STM32L152xC || STM32L162xC */
 524:Drivers/STM32L1xx_HAL_Driver/stm32l1xx_hal_flash_ex.cpp ****   
 525:Drivers/STM32L1xx_HAL_Driver/stm32l1xx_hal_flash_ex.cpp **** #endif /* STM32L151xBA || STM32L152xBA || STM32L151xC || STM32L152xC || STM32L162xC */
 526:Drivers/STM32L1xx_HAL_Driver/stm32l1xx_hal_flash_ex.cpp **** 
 527:Drivers/STM32L1xx_HAL_Driver/stm32l1xx_hal_flash_ex.cpp **** #if defined (STM32L151xD) || defined (STM32L152xD) || defined (STM32L162xD) || \
 528:Drivers/STM32L1xx_HAL_Driver/stm32l1xx_hal_flash_ex.cpp ****     defined(STM32L151xE) || defined (STM32L152xE) || defined (STM32L162xE)
 529:Drivers/STM32L1xx_HAL_Driver/stm32l1xx_hal_flash_ex.cpp ****       
 530:Drivers/STM32L1xx_HAL_Driver/stm32l1xx_hal_flash_ex.cpp ****   pAdvOBInit->OptionType = OBEX_BOOTCONFIG;
 531:Drivers/STM32L1xx_HAL_Driver/stm32l1xx_hal_flash_ex.cpp **** 
 532:Drivers/STM32L1xx_HAL_Driver/stm32l1xx_hal_flash_ex.cpp ****   /*Get Boot config OB*/
 533:Drivers/STM32L1xx_HAL_Driver/stm32l1xx_hal_flash_ex.cpp ****   pAdvOBInit->BootConfig = (FLASH->OBR & 0x80000000) >> 24;
 534:Drivers/STM32L1xx_HAL_Driver/stm32l1xx_hal_flash_ex.cpp **** 
 535:Drivers/STM32L1xx_HAL_Driver/stm32l1xx_hal_flash_ex.cpp **** #endif /* STM32L151xD || STM32L152xD || STM32L162xD || STM32L151xE || STM32L152xE || STM32L162xE */
 536:Drivers/STM32L1xx_HAL_Driver/stm32l1xx_hal_flash_ex.cpp **** }
 537:Drivers/STM32L1xx_HAL_Driver/stm32l1xx_hal_flash_ex.cpp **** 
 538:Drivers/STM32L1xx_HAL_Driver/stm32l1xx_hal_flash_ex.cpp **** #endif /* STM32L151xBA || STM32L152xBA || STM32L151xC || STM32L152xC || STM32L162xC || STM32L151xD 
 539:Drivers/STM32L1xx_HAL_Driver/stm32l1xx_hal_flash_ex.cpp **** 
 540:Drivers/STM32L1xx_HAL_Driver/stm32l1xx_hal_flash_ex.cpp **** #if defined (STM32L151xBA) || defined (STM32L152xBA) || \
 541:Drivers/STM32L1xx_HAL_Driver/stm32l1xx_hal_flash_ex.cpp ****     defined (STM32L151xC) || defined (STM32L152xC) || defined (STM32L162xC)
 542:Drivers/STM32L1xx_HAL_Driver/stm32l1xx_hal_flash_ex.cpp **** 
 543:Drivers/STM32L1xx_HAL_Driver/stm32l1xx_hal_flash_ex.cpp **** /**
 544:Drivers/STM32L1xx_HAL_Driver/stm32l1xx_hal_flash_ex.cpp ****   * @brief  Select the Protection Mode (SPRMOD).
 545:Drivers/STM32L1xx_HAL_Driver/stm32l1xx_hal_flash_ex.cpp ****   * @note   This function can be used only for STM32L151xBA, STM32L152xBA, STM32L151xC, STM32L152xC
ARM GAS  /tmp/ccwmM6Ug.s 			page 20


 546:Drivers/STM32L1xx_HAL_Driver/stm32l1xx_hal_flash_ex.cpp ****   * @note   Once SPRMOD bit is active, unprotection of a protected sector is not possible 
 547:Drivers/STM32L1xx_HAL_Driver/stm32l1xx_hal_flash_ex.cpp ****   * @note   Read a protected sector will set RDERR Flag and write a protected sector will set WRPER
 548:Drivers/STM32L1xx_HAL_Driver/stm32l1xx_hal_flash_ex.cpp ****   * @retval HAL status
 549:Drivers/STM32L1xx_HAL_Driver/stm32l1xx_hal_flash_ex.cpp ****   */
 550:Drivers/STM32L1xx_HAL_Driver/stm32l1xx_hal_flash_ex.cpp **** HAL_StatusTypeDef HAL_FLASHEx_OB_SelectPCROP(void)
 551:Drivers/STM32L1xx_HAL_Driver/stm32l1xx_hal_flash_ex.cpp **** {
 552:Drivers/STM32L1xx_HAL_Driver/stm32l1xx_hal_flash_ex.cpp ****   HAL_StatusTypeDef status = HAL_OK;
 553:Drivers/STM32L1xx_HAL_Driver/stm32l1xx_hal_flash_ex.cpp ****   uint16_t tmp1 = 0;
 554:Drivers/STM32L1xx_HAL_Driver/stm32l1xx_hal_flash_ex.cpp ****   uint32_t tmp2 = 0;
 555:Drivers/STM32L1xx_HAL_Driver/stm32l1xx_hal_flash_ex.cpp ****   uint8_t optiontmp = 0;
 556:Drivers/STM32L1xx_HAL_Driver/stm32l1xx_hal_flash_ex.cpp ****   uint16_t optiontmp2 = 0;
 557:Drivers/STM32L1xx_HAL_Driver/stm32l1xx_hal_flash_ex.cpp ****   
 558:Drivers/STM32L1xx_HAL_Driver/stm32l1xx_hal_flash_ex.cpp ****   status = FLASH_WaitForLastOperation(HAL_FLASH_TIMEOUT_VALUE);
 559:Drivers/STM32L1xx_HAL_Driver/stm32l1xx_hal_flash_ex.cpp ****   
 560:Drivers/STM32L1xx_HAL_Driver/stm32l1xx_hal_flash_ex.cpp ****   /* Mask RDP Byte */
 561:Drivers/STM32L1xx_HAL_Driver/stm32l1xx_hal_flash_ex.cpp ****   optiontmp =  (uint8_t)(*(__IO uint8_t *)(OB_BASE)); 
 562:Drivers/STM32L1xx_HAL_Driver/stm32l1xx_hal_flash_ex.cpp ****   
 563:Drivers/STM32L1xx_HAL_Driver/stm32l1xx_hal_flash_ex.cpp ****   /* Update Option Byte */
 564:Drivers/STM32L1xx_HAL_Driver/stm32l1xx_hal_flash_ex.cpp ****   optiontmp2 = (uint16_t)(OB_PCROP_SELECTED | optiontmp); 
 565:Drivers/STM32L1xx_HAL_Driver/stm32l1xx_hal_flash_ex.cpp ****   
 566:Drivers/STM32L1xx_HAL_Driver/stm32l1xx_hal_flash_ex.cpp ****   /* calculate the option byte to write */
 567:Drivers/STM32L1xx_HAL_Driver/stm32l1xx_hal_flash_ex.cpp ****   tmp1 = (uint16_t)(~(optiontmp2 ));
 568:Drivers/STM32L1xx_HAL_Driver/stm32l1xx_hal_flash_ex.cpp ****   tmp2 = (uint32_t)(((uint32_t)((uint32_t)(tmp1) << 16)) | ((uint32_t)optiontmp2));
 569:Drivers/STM32L1xx_HAL_Driver/stm32l1xx_hal_flash_ex.cpp ****   
 570:Drivers/STM32L1xx_HAL_Driver/stm32l1xx_hal_flash_ex.cpp ****   if(status == HAL_OK)
 571:Drivers/STM32L1xx_HAL_Driver/stm32l1xx_hal_flash_ex.cpp ****   {         
 572:Drivers/STM32L1xx_HAL_Driver/stm32l1xx_hal_flash_ex.cpp ****     /* program PCRop */
 573:Drivers/STM32L1xx_HAL_Driver/stm32l1xx_hal_flash_ex.cpp ****     OB->RDP = tmp2;
 574:Drivers/STM32L1xx_HAL_Driver/stm32l1xx_hal_flash_ex.cpp ****   }
 575:Drivers/STM32L1xx_HAL_Driver/stm32l1xx_hal_flash_ex.cpp ****   
 576:Drivers/STM32L1xx_HAL_Driver/stm32l1xx_hal_flash_ex.cpp ****   /* Wait for last operation to be completed */
 577:Drivers/STM32L1xx_HAL_Driver/stm32l1xx_hal_flash_ex.cpp ****   status = FLASH_WaitForLastOperation(HAL_FLASH_TIMEOUT_VALUE);
 578:Drivers/STM32L1xx_HAL_Driver/stm32l1xx_hal_flash_ex.cpp ****   
 579:Drivers/STM32L1xx_HAL_Driver/stm32l1xx_hal_flash_ex.cpp ****   /* Return the Read protection operation Status */
 580:Drivers/STM32L1xx_HAL_Driver/stm32l1xx_hal_flash_ex.cpp ****   return status;            
 581:Drivers/STM32L1xx_HAL_Driver/stm32l1xx_hal_flash_ex.cpp **** }
 582:Drivers/STM32L1xx_HAL_Driver/stm32l1xx_hal_flash_ex.cpp **** 
 583:Drivers/STM32L1xx_HAL_Driver/stm32l1xx_hal_flash_ex.cpp **** /**
 584:Drivers/STM32L1xx_HAL_Driver/stm32l1xx_hal_flash_ex.cpp ****   * @brief  Deselect the Protection Mode (SPRMOD).
 585:Drivers/STM32L1xx_HAL_Driver/stm32l1xx_hal_flash_ex.cpp ****   * @note   This function can be used only for STM32L151xBA, STM32L152xBA, STM32L151xC, STM32L152xC
 586:Drivers/STM32L1xx_HAL_Driver/stm32l1xx_hal_flash_ex.cpp ****   * @note   Once SPRMOD bit is active, unprotection of a protected sector is not possible 
 587:Drivers/STM32L1xx_HAL_Driver/stm32l1xx_hal_flash_ex.cpp ****   * @note   Read a protected sector will set RDERR Flag and write a protected sector will set WRPER
 588:Drivers/STM32L1xx_HAL_Driver/stm32l1xx_hal_flash_ex.cpp ****   * @retval HAL status
 589:Drivers/STM32L1xx_HAL_Driver/stm32l1xx_hal_flash_ex.cpp ****   */
 590:Drivers/STM32L1xx_HAL_Driver/stm32l1xx_hal_flash_ex.cpp **** HAL_StatusTypeDef HAL_FLASHEx_OB_DeSelectPCROP(void)
 591:Drivers/STM32L1xx_HAL_Driver/stm32l1xx_hal_flash_ex.cpp **** {
 592:Drivers/STM32L1xx_HAL_Driver/stm32l1xx_hal_flash_ex.cpp ****   HAL_StatusTypeDef status = HAL_OK;
 593:Drivers/STM32L1xx_HAL_Driver/stm32l1xx_hal_flash_ex.cpp ****   uint16_t tmp1 = 0;
 594:Drivers/STM32L1xx_HAL_Driver/stm32l1xx_hal_flash_ex.cpp ****   uint32_t tmp2 = 0;
 595:Drivers/STM32L1xx_HAL_Driver/stm32l1xx_hal_flash_ex.cpp ****   uint8_t optiontmp = 0;
 596:Drivers/STM32L1xx_HAL_Driver/stm32l1xx_hal_flash_ex.cpp ****   uint16_t optiontmp2 = 0;
 597:Drivers/STM32L1xx_HAL_Driver/stm32l1xx_hal_flash_ex.cpp ****   
 598:Drivers/STM32L1xx_HAL_Driver/stm32l1xx_hal_flash_ex.cpp ****   status = FLASH_WaitForLastOperation(HAL_FLASH_TIMEOUT_VALUE);
 599:Drivers/STM32L1xx_HAL_Driver/stm32l1xx_hal_flash_ex.cpp ****   
 600:Drivers/STM32L1xx_HAL_Driver/stm32l1xx_hal_flash_ex.cpp ****   /* Mask RDP Byte */
 601:Drivers/STM32L1xx_HAL_Driver/stm32l1xx_hal_flash_ex.cpp ****   optiontmp =  (uint8_t)(*(__IO uint8_t *)(OB_BASE)); 
 602:Drivers/STM32L1xx_HAL_Driver/stm32l1xx_hal_flash_ex.cpp ****   
ARM GAS  /tmp/ccwmM6Ug.s 			page 21


 603:Drivers/STM32L1xx_HAL_Driver/stm32l1xx_hal_flash_ex.cpp ****   /* Update Option Byte */
 604:Drivers/STM32L1xx_HAL_Driver/stm32l1xx_hal_flash_ex.cpp ****   optiontmp2 = (uint16_t)(OB_PCROP_DESELECTED | optiontmp); 
 605:Drivers/STM32L1xx_HAL_Driver/stm32l1xx_hal_flash_ex.cpp ****   
 606:Drivers/STM32L1xx_HAL_Driver/stm32l1xx_hal_flash_ex.cpp ****   /* calculate the option byte to write */
 607:Drivers/STM32L1xx_HAL_Driver/stm32l1xx_hal_flash_ex.cpp ****   tmp1 = (uint16_t)(~(optiontmp2 ));
 608:Drivers/STM32L1xx_HAL_Driver/stm32l1xx_hal_flash_ex.cpp ****   tmp2 = (uint32_t)(((uint32_t)((uint32_t)(tmp1) << 16)) | ((uint32_t)optiontmp2));
 609:Drivers/STM32L1xx_HAL_Driver/stm32l1xx_hal_flash_ex.cpp ****   
 610:Drivers/STM32L1xx_HAL_Driver/stm32l1xx_hal_flash_ex.cpp ****   if(status == HAL_OK)
 611:Drivers/STM32L1xx_HAL_Driver/stm32l1xx_hal_flash_ex.cpp ****   {         
 612:Drivers/STM32L1xx_HAL_Driver/stm32l1xx_hal_flash_ex.cpp ****     /* program PCRop */
 613:Drivers/STM32L1xx_HAL_Driver/stm32l1xx_hal_flash_ex.cpp ****     OB->RDP = tmp2;
 614:Drivers/STM32L1xx_HAL_Driver/stm32l1xx_hal_flash_ex.cpp ****   }
 615:Drivers/STM32L1xx_HAL_Driver/stm32l1xx_hal_flash_ex.cpp ****   
 616:Drivers/STM32L1xx_HAL_Driver/stm32l1xx_hal_flash_ex.cpp ****   /* Wait for last operation to be completed */
 617:Drivers/STM32L1xx_HAL_Driver/stm32l1xx_hal_flash_ex.cpp ****   status = FLASH_WaitForLastOperation(HAL_FLASH_TIMEOUT_VALUE);
 618:Drivers/STM32L1xx_HAL_Driver/stm32l1xx_hal_flash_ex.cpp ****   
 619:Drivers/STM32L1xx_HAL_Driver/stm32l1xx_hal_flash_ex.cpp ****   /* Return the Read protection operation Status */
 620:Drivers/STM32L1xx_HAL_Driver/stm32l1xx_hal_flash_ex.cpp ****   return status;            
 621:Drivers/STM32L1xx_HAL_Driver/stm32l1xx_hal_flash_ex.cpp **** }
 622:Drivers/STM32L1xx_HAL_Driver/stm32l1xx_hal_flash_ex.cpp **** 
 623:Drivers/STM32L1xx_HAL_Driver/stm32l1xx_hal_flash_ex.cpp **** #endif /* STM32L151xBA || STM32L152xBA || STM32L151xC || STM32L152xC || STM32L162xC */
 624:Drivers/STM32L1xx_HAL_Driver/stm32l1xx_hal_flash_ex.cpp **** 
 625:Drivers/STM32L1xx_HAL_Driver/stm32l1xx_hal_flash_ex.cpp **** /**
 626:Drivers/STM32L1xx_HAL_Driver/stm32l1xx_hal_flash_ex.cpp ****   * @}
 627:Drivers/STM32L1xx_HAL_Driver/stm32l1xx_hal_flash_ex.cpp ****   */
 628:Drivers/STM32L1xx_HAL_Driver/stm32l1xx_hal_flash_ex.cpp **** 
 629:Drivers/STM32L1xx_HAL_Driver/stm32l1xx_hal_flash_ex.cpp **** /** @defgroup FLASHEx_Exported_Functions_Group3 DATA EEPROM Programming functions
 630:Drivers/STM32L1xx_HAL_Driver/stm32l1xx_hal_flash_ex.cpp ****  *  @brief   DATA EEPROM Programming functions
 631:Drivers/STM32L1xx_HAL_Driver/stm32l1xx_hal_flash_ex.cpp ****  *
 632:Drivers/STM32L1xx_HAL_Driver/stm32l1xx_hal_flash_ex.cpp **** @verbatim   
 633:Drivers/STM32L1xx_HAL_Driver/stm32l1xx_hal_flash_ex.cpp ****  ===============================================================================
 634:Drivers/STM32L1xx_HAL_Driver/stm32l1xx_hal_flash_ex.cpp ****                      ##### DATA EEPROM Programming functions ##### 
 635:Drivers/STM32L1xx_HAL_Driver/stm32l1xx_hal_flash_ex.cpp ****  ===============================================================================  
 636:Drivers/STM32L1xx_HAL_Driver/stm32l1xx_hal_flash_ex.cpp ****  
 637:Drivers/STM32L1xx_HAL_Driver/stm32l1xx_hal_flash_ex.cpp ****     [..] Any operation of erase or program should follow these steps:
 638:Drivers/STM32L1xx_HAL_Driver/stm32l1xx_hal_flash_ex.cpp ****     (#) Call the HAL_FLASHEx_DATAEEPROM_Unlock() function to enable the data EEPROM access
 639:Drivers/STM32L1xx_HAL_Driver/stm32l1xx_hal_flash_ex.cpp ****         and Flash program erase control register access.
 640:Drivers/STM32L1xx_HAL_Driver/stm32l1xx_hal_flash_ex.cpp ****     (#) Call the desired function to erase or program data.
 641:Drivers/STM32L1xx_HAL_Driver/stm32l1xx_hal_flash_ex.cpp ****     (#) Call the HAL_FLASHEx_DATAEEPROM_Lock() to disable the data EEPROM access
 642:Drivers/STM32L1xx_HAL_Driver/stm32l1xx_hal_flash_ex.cpp ****         and Flash program erase control register access(recommended
 643:Drivers/STM32L1xx_HAL_Driver/stm32l1xx_hal_flash_ex.cpp ****         to protect the DATA_EEPROM against possible unwanted operation).
 644:Drivers/STM32L1xx_HAL_Driver/stm32l1xx_hal_flash_ex.cpp **** 
 645:Drivers/STM32L1xx_HAL_Driver/stm32l1xx_hal_flash_ex.cpp **** @endverbatim
 646:Drivers/STM32L1xx_HAL_Driver/stm32l1xx_hal_flash_ex.cpp ****   * @{
 647:Drivers/STM32L1xx_HAL_Driver/stm32l1xx_hal_flash_ex.cpp ****   */
 648:Drivers/STM32L1xx_HAL_Driver/stm32l1xx_hal_flash_ex.cpp **** 
 649:Drivers/STM32L1xx_HAL_Driver/stm32l1xx_hal_flash_ex.cpp **** /**
 650:Drivers/STM32L1xx_HAL_Driver/stm32l1xx_hal_flash_ex.cpp ****   * @brief  Unlocks the data memory and FLASH_PECR register access.
 651:Drivers/STM32L1xx_HAL_Driver/stm32l1xx_hal_flash_ex.cpp ****   * @retval HAL_StatusTypeDef HAL Status
 652:Drivers/STM32L1xx_HAL_Driver/stm32l1xx_hal_flash_ex.cpp ****   */
 653:Drivers/STM32L1xx_HAL_Driver/stm32l1xx_hal_flash_ex.cpp **** HAL_StatusTypeDef HAL_FLASHEx_DATAEEPROM_Unlock(void)
 654:Drivers/STM32L1xx_HAL_Driver/stm32l1xx_hal_flash_ex.cpp **** {
 537              		.loc 1 654 0
 538              		.cfi_startproc
 539              		@ args = 0, pretend = 0, frame = 0
 540              		@ frame_needed = 1, uses_anonymous_args = 0
 541              		@ link register save eliminated.
ARM GAS  /tmp/ccwmM6Ug.s 			page 22


 542 0000 80B4     		push	{r7}	@
 543              	.LCFI12:
 544              		.cfi_def_cfa_offset 4
 545              		.cfi_offset 7, -4
 546 0002 00AF     		add	r7, sp, #0	@,,
 547              	.LCFI13:
 548              		.cfi_def_cfa_register 7
 655:Drivers/STM32L1xx_HAL_Driver/stm32l1xx_hal_flash_ex.cpp ****   if((FLASH->PECR & FLASH_PECR_PELOCK) != RESET)
 549              		.loc 1 655 0
 550 0004 4FF47053 		mov	r3, #15360	@ D.6511,
 551 0008 C4F20203 		movt	r3, 16386	@ D.6511,
 552 000c 5B68     		ldr	r3, [r3, #4]	@ D.6512, D.6511_2->PECR
 553 000e 03F00103 		and	r3, r3, #1	@ D.6513, D.6512,
 554 0012 002B     		cmp	r3, #0	@ D.6513,
 555 0014 0CBF     		ite	eq	@
 556 0016 0023     		moveq	r3, #0	@, tmp143
 557 0018 0123     		movne	r3, #1	@, tmp143
 558 001a DBB2     		uxtb	r3, r3	@ retval.36, tmp142
 559 001c 002B     		cmp	r3, #0	@ retval.36,
 560 001e 14D0     		beq	.L23	@,
 656:Drivers/STM32L1xx_HAL_Driver/stm32l1xx_hal_flash_ex.cpp ****   {  
 657:Drivers/STM32L1xx_HAL_Driver/stm32l1xx_hal_flash_ex.cpp ****     /* Unlocking the Data memory and FLASH_PECR register access*/
 658:Drivers/STM32L1xx_HAL_Driver/stm32l1xx_hal_flash_ex.cpp ****     FLASH->PEKEYR = FLASH_PEKEY1;
 561              		.loc 1 658 0
 562 0020 4FF47053 		mov	r3, #15360	@ D.6516,
 563 0024 C4F20203 		movt	r3, 16386	@ D.6516,
 564 0028 4CF6EF52 		movw	r2, #52719	@ tmp144,
 565 002c C8F6AB12 		movt	r2, 35243	@ tmp144,
 566 0030 DA60     		str	r2, [r3, #12]	@ tmp144, D.6516_6->PEKEYR
 659:Drivers/STM32L1xx_HAL_Driver/stm32l1xx_hal_flash_ex.cpp ****     FLASH->PEKEYR = FLASH_PEKEY2;
 567              		.loc 1 659 0
 568 0032 4FF47053 		mov	r3, #15360	@ D.6517,
 569 0036 C4F20203 		movt	r3, 16386	@ D.6517,
 570 003a 40F20542 		movw	r2, #1029	@ tmp145,
 571 003e C0F20322 		movt	r2, 515	@ tmp145,
 572 0042 DA60     		str	r2, [r3, #12]	@ tmp145, D.6517_7->PEKEYR
 660:Drivers/STM32L1xx_HAL_Driver/stm32l1xx_hal_flash_ex.cpp ****   }
 661:Drivers/STM32L1xx_HAL_Driver/stm32l1xx_hal_flash_ex.cpp ****   else
 662:Drivers/STM32L1xx_HAL_Driver/stm32l1xx_hal_flash_ex.cpp ****   {
 663:Drivers/STM32L1xx_HAL_Driver/stm32l1xx_hal_flash_ex.cpp ****     return HAL_ERROR;
 664:Drivers/STM32L1xx_HAL_Driver/stm32l1xx_hal_flash_ex.cpp ****   }
 665:Drivers/STM32L1xx_HAL_Driver/stm32l1xx_hal_flash_ex.cpp ****   return HAL_OK;  
 573              		.loc 1 665 0
 574 0044 4FF00003 		mov	r3, #0	@ D.6519,
 575 0048 01E0     		b	.L24	@
 576              	.L23:
 663:Drivers/STM32L1xx_HAL_Driver/stm32l1xx_hal_flash_ex.cpp ****     return HAL_ERROR;
 577              		.loc 1 663 0
 578 004a 4FF00103 		mov	r3, #1	@ D.6519,
 579              	.L24:
 666:Drivers/STM32L1xx_HAL_Driver/stm32l1xx_hal_flash_ex.cpp **** }
 580              		.loc 1 666 0
 581 004e 1846     		mov	r0, r3	@, <retval>
 582 0050 BD46     		mov	sp, r7
 583 0052 80BC     		pop	{r7}
 584 0054 7047     		bx	lr
 585              		.cfi_endproc
ARM GAS  /tmp/ccwmM6Ug.s 			page 23


 586              	.LFE60:
 587              		.size	HAL_FLASHEx_DATAEEPROM_Unlock, .-HAL_FLASHEx_DATAEEPROM_Unlock
 588 0056 00BF     		.section	.text.HAL_FLASHEx_DATAEEPROM_Lock,"ax",%progbits
 589              		.align	2
 590              		.global	HAL_FLASHEx_DATAEEPROM_Lock
 591              		.thumb
 592              		.thumb_func
 593              		.type	HAL_FLASHEx_DATAEEPROM_Lock, %function
 594              	HAL_FLASHEx_DATAEEPROM_Lock:
 595              	.LFB61:
 667:Drivers/STM32L1xx_HAL_Driver/stm32l1xx_hal_flash_ex.cpp **** 
 668:Drivers/STM32L1xx_HAL_Driver/stm32l1xx_hal_flash_ex.cpp **** /**
 669:Drivers/STM32L1xx_HAL_Driver/stm32l1xx_hal_flash_ex.cpp ****   * @brief  Locks the Data memory and FLASH_PECR register access.
 670:Drivers/STM32L1xx_HAL_Driver/stm32l1xx_hal_flash_ex.cpp ****   * @retval HAL_StatusTypeDef HAL Status
 671:Drivers/STM32L1xx_HAL_Driver/stm32l1xx_hal_flash_ex.cpp ****   */
 672:Drivers/STM32L1xx_HAL_Driver/stm32l1xx_hal_flash_ex.cpp **** HAL_StatusTypeDef HAL_FLASHEx_DATAEEPROM_Lock(void)
 673:Drivers/STM32L1xx_HAL_Driver/stm32l1xx_hal_flash_ex.cpp **** {
 596              		.loc 1 673 0
 597              		.cfi_startproc
 598              		@ args = 0, pretend = 0, frame = 0
 599              		@ frame_needed = 1, uses_anonymous_args = 0
 600              		@ link register save eliminated.
 601 0000 80B4     		push	{r7}	@
 602              	.LCFI14:
 603              		.cfi_def_cfa_offset 4
 604              		.cfi_offset 7, -4
 605 0002 00AF     		add	r7, sp, #0	@,,
 606              	.LCFI15:
 607              		.cfi_def_cfa_register 7
 674:Drivers/STM32L1xx_HAL_Driver/stm32l1xx_hal_flash_ex.cpp ****   /* Set the PELOCK Bit to lock the data memory and FLASH_PECR register access */
 675:Drivers/STM32L1xx_HAL_Driver/stm32l1xx_hal_flash_ex.cpp ****   SET_BIT(FLASH->PECR, FLASH_PECR_PELOCK);
 608              		.loc 1 675 0
 609 0004 4FF47053 		mov	r3, #15360	@ D.6504,
 610 0008 C4F20203 		movt	r3, 16386	@ D.6504,
 611 000c 4FF47052 		mov	r2, #15360	@ D.6505,
 612 0010 C4F20202 		movt	r2, 16386	@ D.6505,
 613 0014 5268     		ldr	r2, [r2, #4]	@ D.6506, D.6505_2->PECR
 614 0016 42F00102 		orr	r2, r2, #1	@ D.6507, D.6506,
 615 001a 5A60     		str	r2, [r3, #4]	@ D.6507, D.6504_1->PECR
 676:Drivers/STM32L1xx_HAL_Driver/stm32l1xx_hal_flash_ex.cpp ****   
 677:Drivers/STM32L1xx_HAL_Driver/stm32l1xx_hal_flash_ex.cpp ****   return HAL_OK;
 616              		.loc 1 677 0
 617 001c 4FF00003 		mov	r3, #0	@ D.6508,
 678:Drivers/STM32L1xx_HAL_Driver/stm32l1xx_hal_flash_ex.cpp **** }
 618              		.loc 1 678 0
 619 0020 1846     		mov	r0, r3	@, <retval>
 620 0022 BD46     		mov	sp, r7
 621 0024 80BC     		pop	{r7}
 622 0026 7047     		bx	lr
 623              		.cfi_endproc
 624              	.LFE61:
 625              		.size	HAL_FLASHEx_DATAEEPROM_Lock, .-HAL_FLASHEx_DATAEEPROM_Lock
 626              		.section	.text.HAL_FLASHEx_DATAEEPROM_Erase,"ax",%progbits
 627              		.align	2
 628              		.global	HAL_FLASHEx_DATAEEPROM_Erase
 629              		.thumb
 630              		.thumb_func
ARM GAS  /tmp/ccwmM6Ug.s 			page 24


 631              		.type	HAL_FLASHEx_DATAEEPROM_Erase, %function
 632              	HAL_FLASHEx_DATAEEPROM_Erase:
 633              	.LFB62:
 679:Drivers/STM32L1xx_HAL_Driver/stm32l1xx_hal_flash_ex.cpp **** 
 680:Drivers/STM32L1xx_HAL_Driver/stm32l1xx_hal_flash_ex.cpp **** /**
 681:Drivers/STM32L1xx_HAL_Driver/stm32l1xx_hal_flash_ex.cpp ****   * @brief  Erase a word in data memory.
 682:Drivers/STM32L1xx_HAL_Driver/stm32l1xx_hal_flash_ex.cpp ****   * @param  Address: specifies the address to be erased.
 683:Drivers/STM32L1xx_HAL_Driver/stm32l1xx_hal_flash_ex.cpp ****   * @param  TypeErase:  Indicate the way to erase at a specified address.
 684:Drivers/STM32L1xx_HAL_Driver/stm32l1xx_hal_flash_ex.cpp ****   *         This parameter can be a value of @ref FLASH_Type_Program
 685:Drivers/STM32L1xx_HAL_Driver/stm32l1xx_hal_flash_ex.cpp ****   * @note   To correctly run this function, the DATA_EEPROM_Unlock() function
 686:Drivers/STM32L1xx_HAL_Driver/stm32l1xx_hal_flash_ex.cpp ****   *         must be called before.
 687:Drivers/STM32L1xx_HAL_Driver/stm32l1xx_hal_flash_ex.cpp ****   *         Call the DATA_EEPROM_Lock() to the data EEPROM access
 688:Drivers/STM32L1xx_HAL_Driver/stm32l1xx_hal_flash_ex.cpp ****   *         and Flash program erase control register access(recommended to protect 
 689:Drivers/STM32L1xx_HAL_Driver/stm32l1xx_hal_flash_ex.cpp ****   *         the DATA_EEPROM against possible unwanted operation).
 690:Drivers/STM32L1xx_HAL_Driver/stm32l1xx_hal_flash_ex.cpp ****   * @retval FLASH Status: The returned value can be: 
 691:Drivers/STM32L1xx_HAL_Driver/stm32l1xx_hal_flash_ex.cpp ****   *   FLASH_ERROR_PROGRAM, FLASH_ERROR_WRP, FLASH_COMPLETE or FLASH_TIMEOUT.
 692:Drivers/STM32L1xx_HAL_Driver/stm32l1xx_hal_flash_ex.cpp ****   */
 693:Drivers/STM32L1xx_HAL_Driver/stm32l1xx_hal_flash_ex.cpp **** HAL_StatusTypeDef HAL_FLASHEx_DATAEEPROM_Erase(uint32_t TypeErase, uint32_t Address)
 694:Drivers/STM32L1xx_HAL_Driver/stm32l1xx_hal_flash_ex.cpp **** {
 634              		.loc 1 694 0
 635              		.cfi_startproc
 636              		@ args = 0, pretend = 0, frame = 16
 637              		@ frame_needed = 1, uses_anonymous_args = 0
 638 0000 80B5     		push	{r7, lr}	@
 639              	.LCFI16:
 640              		.cfi_def_cfa_offset 8
 641              		.cfi_offset 7, -8
 642              		.cfi_offset 14, -4
 643 0002 84B0     		sub	sp, sp, #16	@,,
 644              	.LCFI17:
 645              		.cfi_def_cfa_offset 24
 646 0004 00AF     		add	r7, sp, #0	@,,
 647              	.LCFI18:
 648              		.cfi_def_cfa_register 7
 649 0006 7860     		str	r0, [r7, #4]	@ TypeErase, TypeErase
 650 0008 3960     		str	r1, [r7, #0]	@ Address, Address
 651              	.LBB17:
 695:Drivers/STM32L1xx_HAL_Driver/stm32l1xx_hal_flash_ex.cpp ****   HAL_StatusTypeDef status = HAL_OK;
 652              		.loc 1 695 0
 653 000a 4FF00003 		mov	r3, #0	@ tmp139,
 654 000e FB73     		strb	r3, [r7, #15]	@ tmp140, status
 696:Drivers/STM32L1xx_HAL_Driver/stm32l1xx_hal_flash_ex.cpp ****   
 697:Drivers/STM32L1xx_HAL_Driver/stm32l1xx_hal_flash_ex.cpp ****   /* Check the parameters */
 698:Drivers/STM32L1xx_HAL_Driver/stm32l1xx_hal_flash_ex.cpp ****   assert_param(IS_TYPEPROGRAMDATA(TypeErase));
 699:Drivers/STM32L1xx_HAL_Driver/stm32l1xx_hal_flash_ex.cpp ****   assert_param(IS_FLASH_DATA_ADDRESS(Address));
 700:Drivers/STM32L1xx_HAL_Driver/stm32l1xx_hal_flash_ex.cpp ****   
 701:Drivers/STM32L1xx_HAL_Driver/stm32l1xx_hal_flash_ex.cpp ****   /* Wait for last operation to be completed */
 702:Drivers/STM32L1xx_HAL_Driver/stm32l1xx_hal_flash_ex.cpp ****   status = FLASH_WaitForLastOperation((uint32_t)HAL_FLASH_TIMEOUT_VALUE);
 655              		.loc 1 702 0
 656 0010 4CF25030 		movw	r0, #50000	@,
 657 0014 FFF7FEFF 		bl	FLASH_WaitForLastOperation	@
 658 0018 0346     		mov	r3, r0	@ tmp141,
 659 001a FB73     		strb	r3, [r7, #15]	@ tmp142, status
 703:Drivers/STM32L1xx_HAL_Driver/stm32l1xx_hal_flash_ex.cpp ****   
 704:Drivers/STM32L1xx_HAL_Driver/stm32l1xx_hal_flash_ex.cpp ****   if(status == HAL_OK)
 660              		.loc 1 704 0
 661 001c FB7B     		ldrb	r3, [r7, #15]	@ zero_extendqisi2	@ tmp143, status
ARM GAS  /tmp/ccwmM6Ug.s 			page 25


 662 001e 002B     		cmp	r3, #0	@ tmp143,
 663 0020 14D1     		bne	.L28	@,
 705:Drivers/STM32L1xx_HAL_Driver/stm32l1xx_hal_flash_ex.cpp ****   {
 706:Drivers/STM32L1xx_HAL_Driver/stm32l1xx_hal_flash_ex.cpp ****     if(TypeErase == TYPEERASEDATA_WORD)
 664              		.loc 1 706 0
 665 0022 7B68     		ldr	r3, [r7, #4]	@ tmp144, TypeErase
 666 0024 022B     		cmp	r3, #2	@ tmp144,
 667 0026 03D1     		bne	.L29	@,
 707:Drivers/STM32L1xx_HAL_Driver/stm32l1xx_hal_flash_ex.cpp ****     {
 708:Drivers/STM32L1xx_HAL_Driver/stm32l1xx_hal_flash_ex.cpp ****       /* Write 00000000h to valid address in the data memory */
 709:Drivers/STM32L1xx_HAL_Driver/stm32l1xx_hal_flash_ex.cpp ****       *(__IO uint32_t *) Address = 0x00000000;
 668              		.loc 1 709 0
 669 0028 3B68     		ldr	r3, [r7, #0]	@ Address.33, Address
 670 002a 4FF00002 		mov	r2, #0	@ tmp145,
 671 002e 1A60     		str	r2, [r3, #0]	@ tmp145, *Address.33_5
 672              	.L29:
 710:Drivers/STM32L1xx_HAL_Driver/stm32l1xx_hal_flash_ex.cpp ****     }
 711:Drivers/STM32L1xx_HAL_Driver/stm32l1xx_hal_flash_ex.cpp **** 
 712:Drivers/STM32L1xx_HAL_Driver/stm32l1xx_hal_flash_ex.cpp ****     if(TypeErase == TYPEERASEDATA_HALFWORD)
 673              		.loc 1 712 0
 674 0030 7B68     		ldr	r3, [r7, #4]	@ tmp146, TypeErase
 675 0032 012B     		cmp	r3, #1	@ tmp146,
 676 0034 03D1     		bne	.L30	@,
 713:Drivers/STM32L1xx_HAL_Driver/stm32l1xx_hal_flash_ex.cpp ****     {
 714:Drivers/STM32L1xx_HAL_Driver/stm32l1xx_hal_flash_ex.cpp ****       /* Write 0000h to valid address in the data memory */
 715:Drivers/STM32L1xx_HAL_Driver/stm32l1xx_hal_flash_ex.cpp ****       *(__IO uint16_t *) Address = (uint16_t)0x0000;
 677              		.loc 1 715 0
 678 0036 3B68     		ldr	r3, [r7, #0]	@ Address.34, Address
 679 0038 4FF00002 		mov	r2, #0	@ tmp148,
 680 003c 1A80     		strh	r2, [r3, #0]	@ movhi	@ tmp147, *Address.34_6
 681              	.L30:
 716:Drivers/STM32L1xx_HAL_Driver/stm32l1xx_hal_flash_ex.cpp ****     }
 717:Drivers/STM32L1xx_HAL_Driver/stm32l1xx_hal_flash_ex.cpp **** 
 718:Drivers/STM32L1xx_HAL_Driver/stm32l1xx_hal_flash_ex.cpp ****     if(TypeErase == TYPEERASEDATA_BYTE)
 682              		.loc 1 718 0
 683 003e 7B68     		ldr	r3, [r7, #4]	@ tmp149, TypeErase
 684 0040 002B     		cmp	r3, #0	@ tmp149,
 685 0042 03D1     		bne	.L28	@,
 719:Drivers/STM32L1xx_HAL_Driver/stm32l1xx_hal_flash_ex.cpp ****     {
 720:Drivers/STM32L1xx_HAL_Driver/stm32l1xx_hal_flash_ex.cpp ****       /* Write 00h to valid address in the data memory */
 721:Drivers/STM32L1xx_HAL_Driver/stm32l1xx_hal_flash_ex.cpp ****       *(__IO uint8_t *) Address = (uint8_t)0x00;
 686              		.loc 1 721 0
 687 0044 3B68     		ldr	r3, [r7, #0]	@ Address.35, Address
 688 0046 4FF00002 		mov	r2, #0	@ tmp150,
 689 004a 1A70     		strb	r2, [r3, #0]	@ tmp151, *Address.35_7
 690              	.L28:
 722:Drivers/STM32L1xx_HAL_Driver/stm32l1xx_hal_flash_ex.cpp ****     }
 723:Drivers/STM32L1xx_HAL_Driver/stm32l1xx_hal_flash_ex.cpp ****   }
 724:Drivers/STM32L1xx_HAL_Driver/stm32l1xx_hal_flash_ex.cpp ****    
 725:Drivers/STM32L1xx_HAL_Driver/stm32l1xx_hal_flash_ex.cpp ****   /* Return the erase status */
 726:Drivers/STM32L1xx_HAL_Driver/stm32l1xx_hal_flash_ex.cpp ****   return status;
 691              		.loc 1 726 0
 692 004c FB7B     		ldrb	r3, [r7, #15]	@ zero_extendqisi2	@ D.6502, status
 693              	.LBE17:
 727:Drivers/STM32L1xx_HAL_Driver/stm32l1xx_hal_flash_ex.cpp **** }  
 694              		.loc 1 727 0
 695 004e 1846     		mov	r0, r3	@, <retval>
ARM GAS  /tmp/ccwmM6Ug.s 			page 26


 696 0050 07F11007 		add	r7, r7, #16	@,,
 697 0054 BD46     		mov	sp, r7
 698 0056 80BD     		pop	{r7, pc}
 699              		.cfi_endproc
 700              	.LFE62:
 701              		.size	HAL_FLASHEx_DATAEEPROM_Erase, .-HAL_FLASHEx_DATAEEPROM_Erase
 702              		.section	.text.HAL_FLASHEx_DATAEEPROM_Program,"ax",%progbits
 703              		.align	2
 704              		.global	HAL_FLASHEx_DATAEEPROM_Program
 705              		.thumb
 706              		.thumb_func
 707              		.type	HAL_FLASHEx_DATAEEPROM_Program, %function
 708              	HAL_FLASHEx_DATAEEPROM_Program:
 709              	.LFB63:
 728:Drivers/STM32L1xx_HAL_Driver/stm32l1xx_hal_flash_ex.cpp **** 
 729:Drivers/STM32L1xx_HAL_Driver/stm32l1xx_hal_flash_ex.cpp **** /**
 730:Drivers/STM32L1xx_HAL_Driver/stm32l1xx_hal_flash_ex.cpp ****   * @brief  Program word at a specified address
 731:Drivers/STM32L1xx_HAL_Driver/stm32l1xx_hal_flash_ex.cpp ****   * @note   To correctly run this function, the HAL_FLASH_EEPROM_Unlock() function
 732:Drivers/STM32L1xx_HAL_Driver/stm32l1xx_hal_flash_ex.cpp ****   *         must be called before.
 733:Drivers/STM32L1xx_HAL_Driver/stm32l1xx_hal_flash_ex.cpp ****   *         Call the HAL_FLASHEx_DATAEEPROM_Unlock() to he data EEPROM access
 734:Drivers/STM32L1xx_HAL_Driver/stm32l1xx_hal_flash_ex.cpp ****   *         and Flash program erase control register access(recommended to protect 
 735:Drivers/STM32L1xx_HAL_Driver/stm32l1xx_hal_flash_ex.cpp ****   *         the DATA_EEPROM against possible unwanted operation).
 736:Drivers/STM32L1xx_HAL_Driver/stm32l1xx_hal_flash_ex.cpp ****   * @note   The function  HAL_FLASHEx_DATAEEPROM_EnableFixedTimeProgram() can be called before 
 737:Drivers/STM32L1xx_HAL_Driver/stm32l1xx_hal_flash_ex.cpp ****   *         this function to configure the Fixed Time Programming.
 738:Drivers/STM32L1xx_HAL_Driver/stm32l1xx_hal_flash_ex.cpp ****   * @param  TypeProgram:  Indicate the way to program at a specified address.
 739:Drivers/STM32L1xx_HAL_Driver/stm32l1xx_hal_flash_ex.cpp ****   *         This parameter can be a value of @ref FLASHEx_Type_Program_Data
 740:Drivers/STM32L1xx_HAL_Driver/stm32l1xx_hal_flash_ex.cpp ****   * @param  Address:  specifies the address to be programmed.
 741:Drivers/STM32L1xx_HAL_Driver/stm32l1xx_hal_flash_ex.cpp ****   * @param  Data: specifies the data to be programmed
 742:Drivers/STM32L1xx_HAL_Driver/stm32l1xx_hal_flash_ex.cpp ****   * 
 743:Drivers/STM32L1xx_HAL_Driver/stm32l1xx_hal_flash_ex.cpp ****   * @retval HAL_StatusTypeDef HAL Status
 744:Drivers/STM32L1xx_HAL_Driver/stm32l1xx_hal_flash_ex.cpp ****   */
 745:Drivers/STM32L1xx_HAL_Driver/stm32l1xx_hal_flash_ex.cpp **** 
 746:Drivers/STM32L1xx_HAL_Driver/stm32l1xx_hal_flash_ex.cpp **** HAL_StatusTypeDef   HAL_FLASHEx_DATAEEPROM_Program(uint32_t TypeProgram, uint32_t Address, uint32_t
 747:Drivers/STM32L1xx_HAL_Driver/stm32l1xx_hal_flash_ex.cpp **** {
 710              		.loc 1 747 0
 711              		.cfi_startproc
 712              		@ args = 0, pretend = 0, frame = 24
 713              		@ frame_needed = 1, uses_anonymous_args = 0
 714 0000 80B5     		push	{r7, lr}	@
 715              	.LCFI19:
 716              		.cfi_def_cfa_offset 8
 717              		.cfi_offset 7, -8
 718              		.cfi_offset 14, -4
 719 0002 86B0     		sub	sp, sp, #24	@,,
 720              	.LCFI20:
 721              		.cfi_def_cfa_offset 32
 722 0004 00AF     		add	r7, sp, #0	@,,
 723              	.LCFI21:
 724              		.cfi_def_cfa_register 7
 725 0006 F860     		str	r0, [r7, #12]	@ TypeProgram, TypeProgram
 726 0008 B960     		str	r1, [r7, #8]	@ Address, Address
 727 000a 7A60     		str	r2, [r7, #4]	@ Data, Data
 728              	.LBB18:
 748:Drivers/STM32L1xx_HAL_Driver/stm32l1xx_hal_flash_ex.cpp ****   HAL_StatusTypeDef status = HAL_ERROR;
 729              		.loc 1 748 0
 730 000c 4FF00103 		mov	r3, #1	@ tmp141,
 731 0010 FB75     		strb	r3, [r7, #23]	@ tmp142, status
ARM GAS  /tmp/ccwmM6Ug.s 			page 27


 749:Drivers/STM32L1xx_HAL_Driver/stm32l1xx_hal_flash_ex.cpp ****   
 750:Drivers/STM32L1xx_HAL_Driver/stm32l1xx_hal_flash_ex.cpp ****   /* Process Locked */
 751:Drivers/STM32L1xx_HAL_Driver/stm32l1xx_hal_flash_ex.cpp ****   __HAL_LOCK(&ProcFlash);
 732              		.loc 1 751 0
 733 0012 40F20003 		movw	r3, #:lower16:ProcFlash	@ tmp143,
 734 0016 C0F20003 		movt	r3, #:upper16:ProcFlash	@ tmp143,
 735 001a 1B7C     		ldrb	r3, [r3, #16]	@ zero_extendqisi2	@ D.6455, ProcFlash.Lock
 736 001c 012B     		cmp	r3, #1	@ D.6455,
 737 001e 02D1     		bne	.L33	@,
 738              		.loc 1 751 0 is_stmt 0 discriminator 1
 739 0020 4FF00203 		mov	r3, #2	@ D.6458,
 740 0024 4FE0     		b	.L34	@
 741              	.L33:
 742              		.loc 1 751 0 discriminator 2
 743 0026 40F20003 		movw	r3, #:lower16:ProcFlash	@ tmp144,
 744 002a C0F20003 		movt	r3, #:upper16:ProcFlash	@ tmp144,
 745 002e 4FF00102 		mov	r2, #1	@ tmp145,
 746 0032 1A74     		strb	r2, [r3, #16]	@ tmp146, ProcFlash.Lock
 752:Drivers/STM32L1xx_HAL_Driver/stm32l1xx_hal_flash_ex.cpp **** 
 753:Drivers/STM32L1xx_HAL_Driver/stm32l1xx_hal_flash_ex.cpp ****   /* Check the parameters */
 754:Drivers/STM32L1xx_HAL_Driver/stm32l1xx_hal_flash_ex.cpp ****   assert_param(IS_TYPEPROGRAMDATA(TypeProgram));
 755:Drivers/STM32L1xx_HAL_Driver/stm32l1xx_hal_flash_ex.cpp **** 
 756:Drivers/STM32L1xx_HAL_Driver/stm32l1xx_hal_flash_ex.cpp ****   /* Wait for last operation to be completed */
 757:Drivers/STM32L1xx_HAL_Driver/stm32l1xx_hal_flash_ex.cpp ****   status = FLASH_WaitForLastOperation((uint32_t)HAL_FLASH_TIMEOUT_VALUE);
 747              		.loc 1 757 0 is_stmt 1 discriminator 2
 748 0034 4CF25030 		movw	r0, #50000	@,
 749 0038 FFF7FEFF 		bl	FLASH_WaitForLastOperation	@
 750 003c 0346     		mov	r3, r0	@ tmp147,
 751 003e FB75     		strb	r3, [r7, #23]	@ tmp148, status
 758:Drivers/STM32L1xx_HAL_Driver/stm32l1xx_hal_flash_ex.cpp ****   
 759:Drivers/STM32L1xx_HAL_Driver/stm32l1xx_hal_flash_ex.cpp ****   if(status == HAL_OK)
 752              		.loc 1 759 0 discriminator 2
 753 0040 FB7D     		ldrb	r3, [r7, #23]	@ zero_extendqisi2	@ tmp149, status
 754 0042 002B     		cmp	r3, #0	@ tmp149,
 755 0044 37D1     		bne	.L35	@,
 760:Drivers/STM32L1xx_HAL_Driver/stm32l1xx_hal_flash_ex.cpp ****   {
 761:Drivers/STM32L1xx_HAL_Driver/stm32l1xx_hal_flash_ex.cpp ****     if(TypeProgram == TYPEPROGRAMDATA_FASTBYTE)
 756              		.loc 1 761 0
 757 0046 FB68     		ldr	r3, [r7, #12]	@ tmp150, TypeProgram
 758 0048 042B     		cmp	r3, #4	@ tmp150,
 759 004a 05D1     		bne	.L36	@,
 762:Drivers/STM32L1xx_HAL_Driver/stm32l1xx_hal_flash_ex.cpp ****     {
 763:Drivers/STM32L1xx_HAL_Driver/stm32l1xx_hal_flash_ex.cpp ****       /*Program word (8-bit) at a specified address.*/
 764:Drivers/STM32L1xx_HAL_Driver/stm32l1xx_hal_flash_ex.cpp ****       FLASH_DATAEEPROM_FastProgramByte(Address, (uint8_t) Data);
 760              		.loc 1 764 0
 761 004c 7B68     		ldr	r3, [r7, #4]	@ tmp151, Data
 762 004e DBB2     		uxtb	r3, r3	@ D.6463, tmp151
 763 0050 B868     		ldr	r0, [r7, #8]	@, Address
 764 0052 1946     		mov	r1, r3	@, D.6463
 765 0054 FFF7FEFF 		bl	_ZL32FLASH_DATAEEPROM_FastProgramBytemh	@
 766              	.L36:
 765:Drivers/STM32L1xx_HAL_Driver/stm32l1xx_hal_flash_ex.cpp ****     }
 766:Drivers/STM32L1xx_HAL_Driver/stm32l1xx_hal_flash_ex.cpp ****     
 767:Drivers/STM32L1xx_HAL_Driver/stm32l1xx_hal_flash_ex.cpp ****     if(TypeProgram == TYPEPROGRAMDATA_FASTHALFWORD)
 767              		.loc 1 767 0
 768 0058 FB68     		ldr	r3, [r7, #12]	@ tmp152, TypeProgram
 769 005a 082B     		cmp	r3, #8	@ tmp152,
ARM GAS  /tmp/ccwmM6Ug.s 			page 28


 770 005c 05D1     		bne	.L37	@,
 768:Drivers/STM32L1xx_HAL_Driver/stm32l1xx_hal_flash_ex.cpp ****     {
 769:Drivers/STM32L1xx_HAL_Driver/stm32l1xx_hal_flash_ex.cpp ****       /*Program word (16-bit) at a specified address.*/
 770:Drivers/STM32L1xx_HAL_Driver/stm32l1xx_hal_flash_ex.cpp ****       FLASH_DATAEEPROM_FastProgramHalfWord(Address, (uint16_t) Data);
 771              		.loc 1 770 0
 772 005e 7B68     		ldr	r3, [r7, #4]	@ tmp153, Data
 773 0060 9BB2     		uxth	r3, r3	@ D.6467, tmp153
 774 0062 B868     		ldr	r0, [r7, #8]	@, Address
 775 0064 1946     		mov	r1, r3	@, D.6467
 776 0066 FFF7FEFF 		bl	_ZL36FLASH_DATAEEPROM_FastProgramHalfWordmt	@
 777              	.L37:
 771:Drivers/STM32L1xx_HAL_Driver/stm32l1xx_hal_flash_ex.cpp ****     }    
 772:Drivers/STM32L1xx_HAL_Driver/stm32l1xx_hal_flash_ex.cpp ****     
 773:Drivers/STM32L1xx_HAL_Driver/stm32l1xx_hal_flash_ex.cpp ****     if(TypeProgram == TYPEPROGRAMDATA_FASTWORD)
 778              		.loc 1 773 0
 779 006a FB68     		ldr	r3, [r7, #12]	@ tmp154, TypeProgram
 780 006c 102B     		cmp	r3, #16	@ tmp154,
 781 006e 03D1     		bne	.L38	@,
 774:Drivers/STM32L1xx_HAL_Driver/stm32l1xx_hal_flash_ex.cpp ****     {
 775:Drivers/STM32L1xx_HAL_Driver/stm32l1xx_hal_flash_ex.cpp ****       /*Program word (32-bit) at a specified address.*/
 776:Drivers/STM32L1xx_HAL_Driver/stm32l1xx_hal_flash_ex.cpp ****       FLASH_DATAEEPROM_FastProgramWord(Address, (uint32_t) Data);
 782              		.loc 1 776 0
 783 0070 B868     		ldr	r0, [r7, #8]	@, Address
 784 0072 7968     		ldr	r1, [r7, #4]	@, Data
 785 0074 FFF7FEFF 		bl	_ZL32FLASH_DATAEEPROM_FastProgramWordmm	@
 786              	.L38:
 777:Drivers/STM32L1xx_HAL_Driver/stm32l1xx_hal_flash_ex.cpp ****     }
 778:Drivers/STM32L1xx_HAL_Driver/stm32l1xx_hal_flash_ex.cpp ****     
 779:Drivers/STM32L1xx_HAL_Driver/stm32l1xx_hal_flash_ex.cpp ****     if(TypeProgram == TYPEPROGRAMDATA_WORD)
 787              		.loc 1 779 0
 788 0078 FB68     		ldr	r3, [r7, #12]	@ tmp155, TypeProgram
 789 007a 022B     		cmp	r3, #2	@ tmp155,
 790 007c 03D1     		bne	.L39	@,
 780:Drivers/STM32L1xx_HAL_Driver/stm32l1xx_hal_flash_ex.cpp ****     {
 781:Drivers/STM32L1xx_HAL_Driver/stm32l1xx_hal_flash_ex.cpp ****       /*Program word (32-bit) at a specified address.*/
 782:Drivers/STM32L1xx_HAL_Driver/stm32l1xx_hal_flash_ex.cpp ****       FLASH_DATAEEPROM_ProgramWord(Address, (uint32_t) Data);
 791              		.loc 1 782 0
 792 007e B868     		ldr	r0, [r7, #8]	@, Address
 793 0080 7968     		ldr	r1, [r7, #4]	@, Data
 794 0082 FFF7FEFF 		bl	_ZL28FLASH_DATAEEPROM_ProgramWordmm	@
 795              	.L39:
 783:Drivers/STM32L1xx_HAL_Driver/stm32l1xx_hal_flash_ex.cpp ****     }
 784:Drivers/STM32L1xx_HAL_Driver/stm32l1xx_hal_flash_ex.cpp ****        
 785:Drivers/STM32L1xx_HAL_Driver/stm32l1xx_hal_flash_ex.cpp ****     if(TypeProgram == TYPEPROGRAMDATA_HALFWORD)
 796              		.loc 1 785 0
 797 0086 FB68     		ldr	r3, [r7, #12]	@ tmp156, TypeProgram
 798 0088 012B     		cmp	r3, #1	@ tmp156,
 799 008a 05D1     		bne	.L40	@,
 786:Drivers/STM32L1xx_HAL_Driver/stm32l1xx_hal_flash_ex.cpp ****     {
 787:Drivers/STM32L1xx_HAL_Driver/stm32l1xx_hal_flash_ex.cpp ****       /*Program word (16-bit) at a specified address.*/
 788:Drivers/STM32L1xx_HAL_Driver/stm32l1xx_hal_flash_ex.cpp ****       FLASH_DATAEEPROM_ProgramHalfWord(Address, (uint16_t) Data);
 800              		.loc 1 788 0
 801 008c 7B68     		ldr	r3, [r7, #4]	@ tmp157, Data
 802 008e 9BB2     		uxth	r3, r3	@ D.6477, tmp157
 803 0090 B868     		ldr	r0, [r7, #8]	@, Address
 804 0092 1946     		mov	r1, r3	@, D.6477
 805 0094 FFF7FEFF 		bl	_ZL32FLASH_DATAEEPROM_ProgramHalfWordmt	@
ARM GAS  /tmp/ccwmM6Ug.s 			page 29


 806              	.L40:
 789:Drivers/STM32L1xx_HAL_Driver/stm32l1xx_hal_flash_ex.cpp ****     }
 790:Drivers/STM32L1xx_HAL_Driver/stm32l1xx_hal_flash_ex.cpp ****         
 791:Drivers/STM32L1xx_HAL_Driver/stm32l1xx_hal_flash_ex.cpp ****     if(TypeProgram == TYPEPROGRAMDATA_BYTE)
 807              		.loc 1 791 0
 808 0098 FB68     		ldr	r3, [r7, #12]	@ tmp158, TypeProgram
 809 009a 002B     		cmp	r3, #0	@ tmp158,
 810 009c 05D1     		bne	.L41	@,
 792:Drivers/STM32L1xx_HAL_Driver/stm32l1xx_hal_flash_ex.cpp ****     {
 793:Drivers/STM32L1xx_HAL_Driver/stm32l1xx_hal_flash_ex.cpp ****       /*Program word (8-bit) at a specified address.*/
 794:Drivers/STM32L1xx_HAL_Driver/stm32l1xx_hal_flash_ex.cpp ****       FLASH_DATAEEPROM_ProgramByte(Address, (uint8_t) Data);
 811              		.loc 1 794 0
 812 009e 7B68     		ldr	r3, [r7, #4]	@ tmp159, Data
 813 00a0 DBB2     		uxtb	r3, r3	@ D.6481, tmp159
 814 00a2 B868     		ldr	r0, [r7, #8]	@, Address
 815 00a4 1946     		mov	r1, r3	@, D.6481
 816 00a6 FFF7FEFF 		bl	_ZL28FLASH_DATAEEPROM_ProgramBytemh	@
 817              	.L41:
 795:Drivers/STM32L1xx_HAL_Driver/stm32l1xx_hal_flash_ex.cpp ****     }
 796:Drivers/STM32L1xx_HAL_Driver/stm32l1xx_hal_flash_ex.cpp ****     
 797:Drivers/STM32L1xx_HAL_Driver/stm32l1xx_hal_flash_ex.cpp ****     /* Wait for last operation to be completed */
 798:Drivers/STM32L1xx_HAL_Driver/stm32l1xx_hal_flash_ex.cpp ****     status = FLASH_WaitForLastOperation((uint32_t)HAL_FLASH_TIMEOUT_VALUE);
 818              		.loc 1 798 0
 819 00aa 4CF25030 		movw	r0, #50000	@,
 820 00ae FFF7FEFF 		bl	FLASH_WaitForLastOperation	@
 821 00b2 0346     		mov	r3, r0	@ tmp160,
 822 00b4 FB75     		strb	r3, [r7, #23]	@ tmp161, status
 823              	.L35:
 799:Drivers/STM32L1xx_HAL_Driver/stm32l1xx_hal_flash_ex.cpp ****   }
 800:Drivers/STM32L1xx_HAL_Driver/stm32l1xx_hal_flash_ex.cpp ****   
 801:Drivers/STM32L1xx_HAL_Driver/stm32l1xx_hal_flash_ex.cpp ****   /* Process Unlocked */
 802:Drivers/STM32L1xx_HAL_Driver/stm32l1xx_hal_flash_ex.cpp ****   __HAL_UNLOCK(&ProcFlash);
 824              		.loc 1 802 0
 825 00b6 40F20003 		movw	r3, #:lower16:ProcFlash	@ tmp162,
 826 00ba C0F20003 		movt	r3, #:upper16:ProcFlash	@ tmp162,
 827 00be 4FF00002 		mov	r2, #0	@ tmp163,
 828 00c2 1A74     		strb	r2, [r3, #16]	@ tmp164, ProcFlash.Lock
 803:Drivers/STM32L1xx_HAL_Driver/stm32l1xx_hal_flash_ex.cpp **** 
 804:Drivers/STM32L1xx_HAL_Driver/stm32l1xx_hal_flash_ex.cpp ****   return status;
 829              		.loc 1 804 0
 830 00c4 FB7D     		ldrb	r3, [r7, #23]	@ zero_extendqisi2	@ D.6458, status
 831              	.L34:
 832              	.LBE18:
 805:Drivers/STM32L1xx_HAL_Driver/stm32l1xx_hal_flash_ex.cpp **** }
 833              		.loc 1 805 0
 834 00c6 1846     		mov	r0, r3	@, <retval>
 835 00c8 07F11807 		add	r7, r7, #24	@,,
 836 00cc BD46     		mov	sp, r7
 837 00ce 80BD     		pop	{r7, pc}
 838              		.cfi_endproc
 839              	.LFE63:
 840              		.size	HAL_FLASHEx_DATAEEPROM_Program, .-HAL_FLASHEx_DATAEEPROM_Program
 841              		.section	.text.HAL_FLASHEx_DATAEEPROM_EnableFixedTimeProgram,"ax",%progbits
 842              		.align	2
 843              		.global	HAL_FLASHEx_DATAEEPROM_EnableFixedTimeProgram
 844              		.thumb
 845              		.thumb_func
ARM GAS  /tmp/ccwmM6Ug.s 			page 30


 846              		.type	HAL_FLASHEx_DATAEEPROM_EnableFixedTimeProgram, %function
 847              	HAL_FLASHEx_DATAEEPROM_EnableFixedTimeProgram:
 848              	.LFB64:
 806:Drivers/STM32L1xx_HAL_Driver/stm32l1xx_hal_flash_ex.cpp **** 
 807:Drivers/STM32L1xx_HAL_Driver/stm32l1xx_hal_flash_ex.cpp **** /**
 808:Drivers/STM32L1xx_HAL_Driver/stm32l1xx_hal_flash_ex.cpp ****   * @brief  Enable DATA EEPROM fixed Time programming (2*Tprog).
 809:Drivers/STM32L1xx_HAL_Driver/stm32l1xx_hal_flash_ex.cpp ****   * @retval None
 810:Drivers/STM32L1xx_HAL_Driver/stm32l1xx_hal_flash_ex.cpp ****   */
 811:Drivers/STM32L1xx_HAL_Driver/stm32l1xx_hal_flash_ex.cpp **** void HAL_FLASHEx_DATAEEPROM_EnableFixedTimeProgram(void)
 812:Drivers/STM32L1xx_HAL_Driver/stm32l1xx_hal_flash_ex.cpp **** {
 849              		.loc 1 812 0
 850              		.cfi_startproc
 851              		@ args = 0, pretend = 0, frame = 0
 852              		@ frame_needed = 1, uses_anonymous_args = 0
 853              		@ link register save eliminated.
 854 0000 80B4     		push	{r7}	@
 855              	.LCFI22:
 856              		.cfi_def_cfa_offset 4
 857              		.cfi_offset 7, -4
 858 0002 00AF     		add	r7, sp, #0	@,,
 859              	.LCFI23:
 860              		.cfi_def_cfa_register 7
 813:Drivers/STM32L1xx_HAL_Driver/stm32l1xx_hal_flash_ex.cpp ****   SET_BIT(FLASH->PECR, FLASH_PECR_FTDW);
 861              		.loc 1 813 0
 862 0004 4FF47053 		mov	r3, #15360	@ D.6449,
 863 0008 C4F20203 		movt	r3, 16386	@ D.6449,
 864 000c 4FF47052 		mov	r2, #15360	@ D.6450,
 865 0010 C4F20202 		movt	r2, 16386	@ D.6450,
 866 0014 5268     		ldr	r2, [r2, #4]	@ D.6451, D.6450_2->PECR
 867 0016 42F48072 		orr	r2, r2, #256	@ D.6452, D.6451,
 868 001a 5A60     		str	r2, [r3, #4]	@ D.6452, D.6449_1->PECR
 814:Drivers/STM32L1xx_HAL_Driver/stm32l1xx_hal_flash_ex.cpp **** }
 869              		.loc 1 814 0
 870 001c BD46     		mov	sp, r7
 871 001e 80BC     		pop	{r7}
 872 0020 7047     		bx	lr
 873              		.cfi_endproc
 874              	.LFE64:
 875              		.size	HAL_FLASHEx_DATAEEPROM_EnableFixedTimeProgram, .-HAL_FLASHEx_DATAEEPROM_EnableFixedTimeProgr
 876 0022 00BF     		.section	.text.HAL_FLASHEx_DATAEEPROM_DisableFixedTimeProgram,"ax",%progbits
 877              		.align	2
 878              		.global	HAL_FLASHEx_DATAEEPROM_DisableFixedTimeProgram
 879              		.thumb
 880              		.thumb_func
 881              		.type	HAL_FLASHEx_DATAEEPROM_DisableFixedTimeProgram, %function
 882              	HAL_FLASHEx_DATAEEPROM_DisableFixedTimeProgram:
 883              	.LFB65:
 815:Drivers/STM32L1xx_HAL_Driver/stm32l1xx_hal_flash_ex.cpp **** 
 816:Drivers/STM32L1xx_HAL_Driver/stm32l1xx_hal_flash_ex.cpp **** /**
 817:Drivers/STM32L1xx_HAL_Driver/stm32l1xx_hal_flash_ex.cpp ****   * @brief  Disables DATA EEPROM fixed Time programming (2*Tprog).
 818:Drivers/STM32L1xx_HAL_Driver/stm32l1xx_hal_flash_ex.cpp ****   * @retval None
 819:Drivers/STM32L1xx_HAL_Driver/stm32l1xx_hal_flash_ex.cpp ****   */
 820:Drivers/STM32L1xx_HAL_Driver/stm32l1xx_hal_flash_ex.cpp **** void HAL_FLASHEx_DATAEEPROM_DisableFixedTimeProgram(void)
 821:Drivers/STM32L1xx_HAL_Driver/stm32l1xx_hal_flash_ex.cpp **** {
 884              		.loc 1 821 0
 885              		.cfi_startproc
 886              		@ args = 0, pretend = 0, frame = 0
ARM GAS  /tmp/ccwmM6Ug.s 			page 31


 887              		@ frame_needed = 1, uses_anonymous_args = 0
 888              		@ link register save eliminated.
 889 0000 80B4     		push	{r7}	@
 890              	.LCFI24:
 891              		.cfi_def_cfa_offset 4
 892              		.cfi_offset 7, -4
 893 0002 00AF     		add	r7, sp, #0	@,,
 894              	.LCFI25:
 895              		.cfi_def_cfa_register 7
 822:Drivers/STM32L1xx_HAL_Driver/stm32l1xx_hal_flash_ex.cpp ****   CLEAR_BIT(FLASH->PECR, FLASH_PECR_FTDW);
 896              		.loc 1 822 0
 897 0004 4FF47053 		mov	r3, #15360	@ D.6445,
 898 0008 C4F20203 		movt	r3, 16386	@ D.6445,
 899 000c 4FF47052 		mov	r2, #15360	@ D.6446,
 900 0010 C4F20202 		movt	r2, 16386	@ D.6446,
 901 0014 5268     		ldr	r2, [r2, #4]	@ D.6447, D.6446_2->PECR
 902 0016 22F48072 		bic	r2, r2, #256	@ D.6448, D.6447,
 903 001a 5A60     		str	r2, [r3, #4]	@ D.6448, D.6445_1->PECR
 823:Drivers/STM32L1xx_HAL_Driver/stm32l1xx_hal_flash_ex.cpp **** }
 904              		.loc 1 823 0
 905 001c BD46     		mov	sp, r7
 906 001e 80BC     		pop	{r7}
 907 0020 7047     		bx	lr
 908              		.cfi_endproc
 909              	.LFE65:
 910              		.size	HAL_FLASHEx_DATAEEPROM_DisableFixedTimeProgram, .-HAL_FLASHEx_DATAEEPROM_DisableFixedTimePro
 911 0022 00BF     		.section	.text._ZL18FLASH_SetErrorCodev,"ax",%progbits
 912              		.align	2
 913              		.thumb
 914              		.thumb_func
 915              		.type	_ZL18FLASH_SetErrorCodev, %function
 916              	_ZL18FLASH_SetErrorCodev:
 917              	.LFB66:
 824:Drivers/STM32L1xx_HAL_Driver/stm32l1xx_hal_flash_ex.cpp **** 
 825:Drivers/STM32L1xx_HAL_Driver/stm32l1xx_hal_flash_ex.cpp **** /**
 826:Drivers/STM32L1xx_HAL_Driver/stm32l1xx_hal_flash_ex.cpp ****   * @}
 827:Drivers/STM32L1xx_HAL_Driver/stm32l1xx_hal_flash_ex.cpp ****   */
 828:Drivers/STM32L1xx_HAL_Driver/stm32l1xx_hal_flash_ex.cpp **** 
 829:Drivers/STM32L1xx_HAL_Driver/stm32l1xx_hal_flash_ex.cpp **** /**
 830:Drivers/STM32L1xx_HAL_Driver/stm32l1xx_hal_flash_ex.cpp ****   * @}
 831:Drivers/STM32L1xx_HAL_Driver/stm32l1xx_hal_flash_ex.cpp ****   */
 832:Drivers/STM32L1xx_HAL_Driver/stm32l1xx_hal_flash_ex.cpp **** 
 833:Drivers/STM32L1xx_HAL_Driver/stm32l1xx_hal_flash_ex.cpp **** /** @defgroup FLASHEx_Private_Functions FLASHEx Private functions
 834:Drivers/STM32L1xx_HAL_Driver/stm32l1xx_hal_flash_ex.cpp ****   * @{
 835:Drivers/STM32L1xx_HAL_Driver/stm32l1xx_hal_flash_ex.cpp ****   */
 836:Drivers/STM32L1xx_HAL_Driver/stm32l1xx_hal_flash_ex.cpp **** 
 837:Drivers/STM32L1xx_HAL_Driver/stm32l1xx_hal_flash_ex.cpp **** /*
 838:Drivers/STM32L1xx_HAL_Driver/stm32l1xx_hal_flash_ex.cpp **** ==============================================================================
 839:Drivers/STM32L1xx_HAL_Driver/stm32l1xx_hal_flash_ex.cpp ****               ##### FLASH STATIC functions ##### 
 840:Drivers/STM32L1xx_HAL_Driver/stm32l1xx_hal_flash_ex.cpp **** ==============================================================================
 841:Drivers/STM32L1xx_HAL_Driver/stm32l1xx_hal_flash_ex.cpp **** */
 842:Drivers/STM32L1xx_HAL_Driver/stm32l1xx_hal_flash_ex.cpp **** 
 843:Drivers/STM32L1xx_HAL_Driver/stm32l1xx_hal_flash_ex.cpp **** /*
 844:Drivers/STM32L1xx_HAL_Driver/stm32l1xx_hal_flash_ex.cpp **** ==============================================================================
 845:Drivers/STM32L1xx_HAL_Driver/stm32l1xx_hal_flash_ex.cpp ****               FLASH
 846:Drivers/STM32L1xx_HAL_Driver/stm32l1xx_hal_flash_ex.cpp **** ==============================================================================
 847:Drivers/STM32L1xx_HAL_Driver/stm32l1xx_hal_flash_ex.cpp **** */
ARM GAS  /tmp/ccwmM6Ug.s 			page 32


 848:Drivers/STM32L1xx_HAL_Driver/stm32l1xx_hal_flash_ex.cpp **** 
 849:Drivers/STM32L1xx_HAL_Driver/stm32l1xx_hal_flash_ex.cpp **** /**
 850:Drivers/STM32L1xx_HAL_Driver/stm32l1xx_hal_flash_ex.cpp ****   * @brief  Set the specific FLASH error flag.
 851:Drivers/STM32L1xx_HAL_Driver/stm32l1xx_hal_flash_ex.cpp ****   * @retval None
 852:Drivers/STM32L1xx_HAL_Driver/stm32l1xx_hal_flash_ex.cpp ****   */
 853:Drivers/STM32L1xx_HAL_Driver/stm32l1xx_hal_flash_ex.cpp **** static void FLASH_SetErrorCode(void)
 854:Drivers/STM32L1xx_HAL_Driver/stm32l1xx_hal_flash_ex.cpp **** { 
 918              		.loc 1 854 0
 919              		.cfi_startproc
 920              		@ args = 0, pretend = 0, frame = 0
 921              		@ frame_needed = 1, uses_anonymous_args = 0
 922              		@ link register save eliminated.
 923 0000 80B4     		push	{r7}	@
 924              	.LCFI26:
 925              		.cfi_def_cfa_offset 4
 926              		.cfi_offset 7, -4
 927 0002 00AF     		add	r7, sp, #0	@,,
 928              	.LCFI27:
 929              		.cfi_def_cfa_register 7
 855:Drivers/STM32L1xx_HAL_Driver/stm32l1xx_hal_flash_ex.cpp ****   if(__HAL_FLASH_GET_FLAG(FLASH_FLAG_WRPERR) != RESET)
 930              		.loc 1 855 0
 931 0004 4FF47053 		mov	r3, #15360	@ D.6397,
 932 0008 C4F20203 		movt	r3, 16386	@ D.6397,
 933 000c 9B69     		ldr	r3, [r3, #24]	@ D.6398, D.6397_5->SR
 934 000e 03F48073 		and	r3, r3, #256	@ D.6399, D.6398,
 935 0012 002B     		cmp	r3, #0	@ D.6399,
 936 0014 02D0     		beq	.L45	@,
 937              		.loc 1 855 0 is_stmt 0 discriminator 1
 938 0016 4FF00103 		mov	r3, #1	@ iftmp.26,
 939 001a 01E0     		b	.L46	@
 940              	.L45:
 941              		.loc 1 855 0 discriminator 2
 942 001c 4FF00003 		mov	r3, #0	@ iftmp.26,
 943              	.L46:
 944              		.loc 1 855 0 discriminator 3
 945 0020 002B     		cmp	r3, #0	@ retval.25,
 946 0022 06D0     		beq	.L47	@,
 856:Drivers/STM32L1xx_HAL_Driver/stm32l1xx_hal_flash_ex.cpp ****   {
 857:Drivers/STM32L1xx_HAL_Driver/stm32l1xx_hal_flash_ex.cpp ****    ProcFlash.ErrorCode = FLASH_ERROR_WRP;
 947              		.loc 1 857 0 is_stmt 1
 948 0024 40F20003 		movw	r3, #:lower16:ProcFlash	@ tmp160,
 949 0028 C0F20003 		movt	r3, #:upper16:ProcFlash	@ tmp160,
 950 002c 4FF01002 		mov	r2, #16	@ tmp161,
 951 0030 5A74     		strb	r2, [r3, #17]	@ tmp162, ProcFlash.ErrorCode
 952              	.L47:
 858:Drivers/STM32L1xx_HAL_Driver/stm32l1xx_hal_flash_ex.cpp ****   }
 859:Drivers/STM32L1xx_HAL_Driver/stm32l1xx_hal_flash_ex.cpp ****   
 860:Drivers/STM32L1xx_HAL_Driver/stm32l1xx_hal_flash_ex.cpp ****   if(__HAL_FLASH_GET_FLAG(FLASH_FLAG_PGAERR) != RESET)
 953              		.loc 1 860 0
 954 0032 4FF47053 		mov	r3, #15360	@ D.6408,
 955 0036 C4F20203 		movt	r3, 16386	@ D.6408,
 956 003a 9B69     		ldr	r3, [r3, #24]	@ D.6409, D.6408_11->SR
 957 003c 03F40073 		and	r3, r3, #512	@ D.6410, D.6409,
 958 0040 002B     		cmp	r3, #0	@ D.6410,
 959 0042 02D0     		beq	.L48	@,
 960              		.loc 1 860 0 is_stmt 0 discriminator 1
 961 0044 4FF00103 		mov	r3, #1	@ iftmp.28,
ARM GAS  /tmp/ccwmM6Ug.s 			page 33


 962 0048 01E0     		b	.L49	@
 963              	.L48:
 964              		.loc 1 860 0 discriminator 2
 965 004a 4FF00003 		mov	r3, #0	@ iftmp.28,
 966              	.L49:
 967              		.loc 1 860 0 discriminator 3
 968 004e 002B     		cmp	r3, #0	@ retval.27,
 969 0050 0DD0     		beq	.L50	@,
 861:Drivers/STM32L1xx_HAL_Driver/stm32l1xx_hal_flash_ex.cpp ****   {
 862:Drivers/STM32L1xx_HAL_Driver/stm32l1xx_hal_flash_ex.cpp ****    ProcFlash.ErrorCode |= FLASH_ERROR_PGA;
 970              		.loc 1 862 0 is_stmt 1
 971 0052 40F20003 		movw	r3, #:lower16:ProcFlash	@ tmp163,
 972 0056 C0F20003 		movt	r3, #:upper16:ProcFlash	@ tmp163,
 973 005a 5B7C     		ldrb	r3, [r3, #17]	@ tmp165, ProcFlash.ErrorCode
 974 005c DBB2     		uxtb	r3, r3	@ D.6416, tmp165
 975 005e 43F00803 		orr	r3, r3, #8	@ tmp166, D.6416,
 976 0062 DAB2     		uxtb	r2, r3	@ D.6417, tmp166
 977 0064 40F20003 		movw	r3, #:lower16:ProcFlash	@ tmp167,
 978 0068 C0F20003 		movt	r3, #:upper16:ProcFlash	@ tmp167,
 979 006c 5A74     		strb	r2, [r3, #17]	@ tmp168, ProcFlash.ErrorCode
 980              	.L50:
 863:Drivers/STM32L1xx_HAL_Driver/stm32l1xx_hal_flash_ex.cpp ****   }
 864:Drivers/STM32L1xx_HAL_Driver/stm32l1xx_hal_flash_ex.cpp ****   
 865:Drivers/STM32L1xx_HAL_Driver/stm32l1xx_hal_flash_ex.cpp ****   if(__HAL_FLASH_GET_FLAG(FLASH_FLAG_SIZERR) != RESET)
 981              		.loc 1 865 0
 982 006e 4FF47053 		mov	r3, #15360	@ D.6421,
 983 0072 C4F20203 		movt	r3, 16386	@ D.6421,
 984 0076 9B69     		ldr	r3, [r3, #24]	@ D.6422, D.6421_19->SR
 985 0078 03F48063 		and	r3, r3, #1024	@ D.6423, D.6422,
 986 007c 002B     		cmp	r3, #0	@ D.6423,
 987 007e 02D0     		beq	.L51	@,
 988              		.loc 1 865 0 is_stmt 0 discriminator 1
 989 0080 4FF00103 		mov	r3, #1	@ iftmp.30,
 990 0084 01E0     		b	.L52	@
 991              	.L51:
 992              		.loc 1 865 0 discriminator 2
 993 0086 4FF00003 		mov	r3, #0	@ iftmp.30,
 994              	.L52:
 995              		.loc 1 865 0 discriminator 3
 996 008a 002B     		cmp	r3, #0	@ retval.29,
 997 008c 0DD0     		beq	.L53	@,
 866:Drivers/STM32L1xx_HAL_Driver/stm32l1xx_hal_flash_ex.cpp ****   {
 867:Drivers/STM32L1xx_HAL_Driver/stm32l1xx_hal_flash_ex.cpp ****     ProcFlash.ErrorCode |= FLASH_ERROR_SIZE;
 998              		.loc 1 867 0 is_stmt 1
 999 008e 40F20003 		movw	r3, #:lower16:ProcFlash	@ tmp169,
 1000 0092 C0F20003 		movt	r3, #:upper16:ProcFlash	@ tmp169,
 1001 0096 5B7C     		ldrb	r3, [r3, #17]	@ tmp171, ProcFlash.ErrorCode
 1002 0098 DBB2     		uxtb	r3, r3	@ D.6429, tmp171
 1003 009a 43F00103 		orr	r3, r3, #1	@ tmp172, D.6429,
 1004 009e DAB2     		uxtb	r2, r3	@ D.6430, tmp172
 1005 00a0 40F20003 		movw	r3, #:lower16:ProcFlash	@ tmp173,
 1006 00a4 C0F20003 		movt	r3, #:upper16:ProcFlash	@ tmp173,
 1007 00a8 5A74     		strb	r2, [r3, #17]	@ tmp174, ProcFlash.ErrorCode
 1008              	.L53:
 868:Drivers/STM32L1xx_HAL_Driver/stm32l1xx_hal_flash_ex.cpp ****   }
 869:Drivers/STM32L1xx_HAL_Driver/stm32l1xx_hal_flash_ex.cpp ****   
 870:Drivers/STM32L1xx_HAL_Driver/stm32l1xx_hal_flash_ex.cpp ****   if(__HAL_FLASH_GET_FLAG(FLASH_FLAG_OPTVERR) != RESET)
ARM GAS  /tmp/ccwmM6Ug.s 			page 34


 1009              		.loc 1 870 0
 1010 00aa 4FF47053 		mov	r3, #15360	@ D.6434,
 1011 00ae C4F20203 		movt	r3, 16386	@ D.6434,
 1012 00b2 9B69     		ldr	r3, [r3, #24]	@ D.6435, D.6434_27->SR
 1013 00b4 03F40063 		and	r3, r3, #2048	@ D.6436, D.6435,
 1014 00b8 002B     		cmp	r3, #0	@ D.6436,
 1015 00ba 02D0     		beq	.L54	@,
 1016              		.loc 1 870 0 is_stmt 0 discriminator 1
 1017 00bc 4FF00103 		mov	r3, #1	@ iftmp.32,
 1018 00c0 01E0     		b	.L55	@
 1019              	.L54:
 1020              		.loc 1 870 0 discriminator 2
 1021 00c2 4FF00003 		mov	r3, #0	@ iftmp.32,
 1022              	.L55:
 1023              		.loc 1 870 0 discriminator 3
 1024 00c6 002B     		cmp	r3, #0	@ retval.31,
 1025 00c8 0DD0     		beq	.L44	@,
 871:Drivers/STM32L1xx_HAL_Driver/stm32l1xx_hal_flash_ex.cpp ****   {
 872:Drivers/STM32L1xx_HAL_Driver/stm32l1xx_hal_flash_ex.cpp ****     ProcFlash.ErrorCode |= FLASH_ERROR_OPTV;
 1026              		.loc 1 872 0 is_stmt 1
 1027 00ca 40F20003 		movw	r3, #:lower16:ProcFlash	@ tmp175,
 1028 00ce C0F20003 		movt	r3, #:upper16:ProcFlash	@ tmp175,
 1029 00d2 5B7C     		ldrb	r3, [r3, #17]	@ tmp177, ProcFlash.ErrorCode
 1030 00d4 DBB2     		uxtb	r3, r3	@ D.6442, tmp177
 1031 00d6 43F00203 		orr	r3, r3, #2	@ tmp178, D.6442,
 1032 00da DAB2     		uxtb	r2, r3	@ D.6443, tmp178
 1033 00dc 40F20003 		movw	r3, #:lower16:ProcFlash	@ tmp179,
 1034 00e0 C0F20003 		movt	r3, #:upper16:ProcFlash	@ tmp179,
 1035 00e4 5A74     		strb	r2, [r3, #17]	@ tmp180, ProcFlash.ErrorCode
 1036              	.L44:
 873:Drivers/STM32L1xx_HAL_Driver/stm32l1xx_hal_flash_ex.cpp ****   }
 874:Drivers/STM32L1xx_HAL_Driver/stm32l1xx_hal_flash_ex.cpp ****   
 875:Drivers/STM32L1xx_HAL_Driver/stm32l1xx_hal_flash_ex.cpp **** #if defined (STM32L151xBA) || defined (STM32L152xBA) || \
 876:Drivers/STM32L1xx_HAL_Driver/stm32l1xx_hal_flash_ex.cpp ****     defined (STM32L151xC) || defined (STM32L152xC) || defined (STM32L162xC)
 877:Drivers/STM32L1xx_HAL_Driver/stm32l1xx_hal_flash_ex.cpp ****   if(__HAL_FLASH_GET_FLAG(FLASH_FLAG_RDERR) != RESET)
 878:Drivers/STM32L1xx_HAL_Driver/stm32l1xx_hal_flash_ex.cpp ****   {
 879:Drivers/STM32L1xx_HAL_Driver/stm32l1xx_hal_flash_ex.cpp ****     ProcFlash.ErrorCode |= FLASH_ERROR_RD;
 880:Drivers/STM32L1xx_HAL_Driver/stm32l1xx_hal_flash_ex.cpp ****   }
 881:Drivers/STM32L1xx_HAL_Driver/stm32l1xx_hal_flash_ex.cpp **** #endif /* STM32L151xBA || STM32L152xBA || STM32L151xC || STM32L152xC || STM32L162xC */
 882:Drivers/STM32L1xx_HAL_Driver/stm32l1xx_hal_flash_ex.cpp **** 
 883:Drivers/STM32L1xx_HAL_Driver/stm32l1xx_hal_flash_ex.cpp **** #if defined(STM32L100xC) || defined (STM32L151xC) || defined (STM32L152xC) || defined (STM32L162xC)
 884:Drivers/STM32L1xx_HAL_Driver/stm32l1xx_hal_flash_ex.cpp ****     defined(STM32L151xCA) || defined (STM32L151xD) || defined (STM32L152xCA) || defined (STM32L152x
 885:Drivers/STM32L1xx_HAL_Driver/stm32l1xx_hal_flash_ex.cpp ****     defined(STM32L151xE) || defined (STM32L152xE) || defined (STM32L162xE)
 886:Drivers/STM32L1xx_HAL_Driver/stm32l1xx_hal_flash_ex.cpp ****   if(__HAL_FLASH_GET_FLAG(FLASH_FLAG_OPTVERRUSR) != RESET)
 887:Drivers/STM32L1xx_HAL_Driver/stm32l1xx_hal_flash_ex.cpp ****   {
 888:Drivers/STM32L1xx_HAL_Driver/stm32l1xx_hal_flash_ex.cpp ****     ProcFlash.ErrorCode |= FLASH_ERROR_OPTVUSR;
 889:Drivers/STM32L1xx_HAL_Driver/stm32l1xx_hal_flash_ex.cpp ****   }
 890:Drivers/STM32L1xx_HAL_Driver/stm32l1xx_hal_flash_ex.cpp **** #endif /* STM32L100xC || STM32L151xC || STM32L152xC || STM32L162xC || STM32L151xCA || STM32L151xD |
 891:Drivers/STM32L1xx_HAL_Driver/stm32l1xx_hal_flash_ex.cpp **** }
 1037              		.loc 1 891 0
 1038 00e6 BD46     		mov	sp, r7
 1039 00e8 80BC     		pop	{r7}
 1040 00ea 7047     		bx	lr
 1041              		.cfi_endproc
 1042              	.LFE66:
 1043              		.size	_ZL18FLASH_SetErrorCodev, .-_ZL18FLASH_SetErrorCodev
 1044              		.section	.text._ZL15FLASH_ErasePagem,"ax",%progbits
ARM GAS  /tmp/ccwmM6Ug.s 			page 35


 1045              		.align	2
 1046              		.thumb
 1047              		.thumb_func
 1048              		.type	_ZL15FLASH_ErasePagem, %function
 1049              	_ZL15FLASH_ErasePagem:
 1050              	.LFB67:
 892:Drivers/STM32L1xx_HAL_Driver/stm32l1xx_hal_flash_ex.cpp **** 
 893:Drivers/STM32L1xx_HAL_Driver/stm32l1xx_hal_flash_ex.cpp **** /**
 894:Drivers/STM32L1xx_HAL_Driver/stm32l1xx_hal_flash_ex.cpp ****   * @brief  Erases a specified page in program memory.
 895:Drivers/STM32L1xx_HAL_Driver/stm32l1xx_hal_flash_ex.cpp ****   * @param  PageAddress: The page address in program memory to be erased.
 896:Drivers/STM32L1xx_HAL_Driver/stm32l1xx_hal_flash_ex.cpp ****   * @note   A Page is erased in the Program memory only if the address to load 
 897:Drivers/STM32L1xx_HAL_Driver/stm32l1xx_hal_flash_ex.cpp ****   *         is the start address of a page (multiple of 256 bytes).
 898:Drivers/STM32L1xx_HAL_Driver/stm32l1xx_hal_flash_ex.cpp ****   * @retval None
 899:Drivers/STM32L1xx_HAL_Driver/stm32l1xx_hal_flash_ex.cpp ****   */
 900:Drivers/STM32L1xx_HAL_Driver/stm32l1xx_hal_flash_ex.cpp **** static void FLASH_ErasePage(uint32_t PageAddress)
 901:Drivers/STM32L1xx_HAL_Driver/stm32l1xx_hal_flash_ex.cpp **** {
 1051              		.loc 1 901 0
 1052              		.cfi_startproc
 1053              		@ args = 0, pretend = 0, frame = 8
 1054              		@ frame_needed = 1, uses_anonymous_args = 0
 1055              		@ link register save eliminated.
 1056 0000 80B4     		push	{r7}	@
 1057              	.LCFI28:
 1058              		.cfi_def_cfa_offset 4
 1059              		.cfi_offset 7, -4
 1060 0002 83B0     		sub	sp, sp, #12	@,,
 1061              	.LCFI29:
 1062              		.cfi_def_cfa_offset 16
 1063 0004 00AF     		add	r7, sp, #0	@,,
 1064              	.LCFI30:
 1065              		.cfi_def_cfa_register 7
 1066 0006 7860     		str	r0, [r7, #4]	@ PageAddress, PageAddress
 902:Drivers/STM32L1xx_HAL_Driver/stm32l1xx_hal_flash_ex.cpp ****   /* Set the ERASE bit */
 903:Drivers/STM32L1xx_HAL_Driver/stm32l1xx_hal_flash_ex.cpp ****   SET_BIT(FLASH->PECR, FLASH_PECR_ERASE);
 1067              		.loc 1 903 0
 1068 0008 4FF47053 		mov	r3, #15360	@ D.6386,
 1069 000c C4F20203 		movt	r3, 16386	@ D.6386,
 1070 0010 4FF47052 		mov	r2, #15360	@ D.6387,
 1071 0014 C4F20202 		movt	r2, 16386	@ D.6387,
 1072 0018 5268     		ldr	r2, [r2, #4]	@ D.6388, D.6387_2->PECR
 1073 001a 42F40072 		orr	r2, r2, #512	@ D.6389, D.6388,
 1074 001e 5A60     		str	r2, [r3, #4]	@ D.6389, D.6386_1->PECR
 904:Drivers/STM32L1xx_HAL_Driver/stm32l1xx_hal_flash_ex.cpp **** 
 905:Drivers/STM32L1xx_HAL_Driver/stm32l1xx_hal_flash_ex.cpp ****   /* Set PROG bit */
 906:Drivers/STM32L1xx_HAL_Driver/stm32l1xx_hal_flash_ex.cpp ****   SET_BIT(FLASH->PECR, FLASH_PECR_PROG);
 1075              		.loc 1 906 0
 1076 0020 4FF47053 		mov	r3, #15360	@ D.6390,
 1077 0024 C4F20203 		movt	r3, 16386	@ D.6390,
 1078 0028 4FF47052 		mov	r2, #15360	@ D.6391,
 1079 002c C4F20202 		movt	r2, 16386	@ D.6391,
 1080 0030 5268     		ldr	r2, [r2, #4]	@ D.6392, D.6391_6->PECR
 1081 0032 42F00802 		orr	r2, r2, #8	@ D.6393, D.6392,
 1082 0036 5A60     		str	r2, [r3, #4]	@ D.6393, D.6390_5->PECR
 907:Drivers/STM32L1xx_HAL_Driver/stm32l1xx_hal_flash_ex.cpp **** 
 908:Drivers/STM32L1xx_HAL_Driver/stm32l1xx_hal_flash_ex.cpp ****   /* Write 00000000h to the first word of the program page to erase */
 909:Drivers/STM32L1xx_HAL_Driver/stm32l1xx_hal_flash_ex.cpp ****   *(__IO uint32_t *)PageAddress = 0x00000000;
 1083              		.loc 1 909 0
ARM GAS  /tmp/ccwmM6Ug.s 			page 36


 1084 0038 7B68     		ldr	r3, [r7, #4]	@ PageAddress.24, PageAddress
 1085 003a 4FF00002 		mov	r2, #0	@ tmp143,
 1086 003e 1A60     		str	r2, [r3, #0]	@ tmp143, *PageAddress.24_10
 910:Drivers/STM32L1xx_HAL_Driver/stm32l1xx_hal_flash_ex.cpp **** }
 1087              		.loc 1 910 0
 1088 0040 07F10C07 		add	r7, r7, #12	@,,
 1089 0044 BD46     		mov	sp, r7
 1090 0046 80BC     		pop	{r7}
 1091 0048 7047     		bx	lr
 1092              		.cfi_endproc
 1093              	.LFE67:
 1094              		.size	_ZL15FLASH_ErasePagem, .-_ZL15FLASH_ErasePagem
 1095 004a 00BF     		.section	.text._ZL18FLASH_OB_RDPConfigh,"ax",%progbits
 1096              		.align	2
 1097              		.thumb
 1098              		.thumb_func
 1099              		.type	_ZL18FLASH_OB_RDPConfigh, %function
 1100              	_ZL18FLASH_OB_RDPConfigh:
 1101              	.LFB68:
 911:Drivers/STM32L1xx_HAL_Driver/stm32l1xx_hal_flash_ex.cpp ****   
 912:Drivers/STM32L1xx_HAL_Driver/stm32l1xx_hal_flash_ex.cpp **** 
 913:Drivers/STM32L1xx_HAL_Driver/stm32l1xx_hal_flash_ex.cpp **** /*
 914:Drivers/STM32L1xx_HAL_Driver/stm32l1xx_hal_flash_ex.cpp **** ==============================================================================
 915:Drivers/STM32L1xx_HAL_Driver/stm32l1xx_hal_flash_ex.cpp ****               OPTIONS BYTES
 916:Drivers/STM32L1xx_HAL_Driver/stm32l1xx_hal_flash_ex.cpp **** ==============================================================================
 917:Drivers/STM32L1xx_HAL_Driver/stm32l1xx_hal_flash_ex.cpp **** */
 918:Drivers/STM32L1xx_HAL_Driver/stm32l1xx_hal_flash_ex.cpp **** /**
 919:Drivers/STM32L1xx_HAL_Driver/stm32l1xx_hal_flash_ex.cpp ****   * @brief  Enables or disables the read out protection.
 920:Drivers/STM32L1xx_HAL_Driver/stm32l1xx_hal_flash_ex.cpp ****   * @note   To correctly run this function, the HAL_FLASH_OB_Unlock() function
 921:Drivers/STM32L1xx_HAL_Driver/stm32l1xx_hal_flash_ex.cpp ****   *         must be called before.
 922:Drivers/STM32L1xx_HAL_Driver/stm32l1xx_hal_flash_ex.cpp ****   * @param  OB_RDP: specifies the read protection level. 
 923:Drivers/STM32L1xx_HAL_Driver/stm32l1xx_hal_flash_ex.cpp ****   *   This parameter can be:
 924:Drivers/STM32L1xx_HAL_Driver/stm32l1xx_hal_flash_ex.cpp ****   *     @arg OB_RDP_LEVEL0: No protection
 925:Drivers/STM32L1xx_HAL_Driver/stm32l1xx_hal_flash_ex.cpp ****   *     @arg OB_RDP_LEVEL1: Read protection of the memory
 926:Drivers/STM32L1xx_HAL_Driver/stm32l1xx_hal_flash_ex.cpp ****   *     @arg OB_RDP_LEVEL2: Chip protection
 927:Drivers/STM32L1xx_HAL_Driver/stm32l1xx_hal_flash_ex.cpp ****   * 
 928:Drivers/STM32L1xx_HAL_Driver/stm32l1xx_hal_flash_ex.cpp ****   *  !!!Warning!!! When enabling OB_RDP_LEVEL2 it's no more possible to go back to level 1 or 0
 929:Drivers/STM32L1xx_HAL_Driver/stm32l1xx_hal_flash_ex.cpp ****   *   
 930:Drivers/STM32L1xx_HAL_Driver/stm32l1xx_hal_flash_ex.cpp ****   * @retval HAL status
 931:Drivers/STM32L1xx_HAL_Driver/stm32l1xx_hal_flash_ex.cpp ****   */
 932:Drivers/STM32L1xx_HAL_Driver/stm32l1xx_hal_flash_ex.cpp **** static HAL_StatusTypeDef FLASH_OB_RDPConfig(uint8_t OB_RDP)
 933:Drivers/STM32L1xx_HAL_Driver/stm32l1xx_hal_flash_ex.cpp **** {
 1102              		.loc 1 933 0
 1103              		.cfi_startproc
 1104              		@ args = 0, pretend = 0, frame = 24
 1105              		@ frame_needed = 1, uses_anonymous_args = 0
 1106 0000 80B5     		push	{r7, lr}	@
 1107              	.LCFI31:
 1108              		.cfi_def_cfa_offset 8
 1109              		.cfi_offset 7, -8
 1110              		.cfi_offset 14, -4
 1111 0002 86B0     		sub	sp, sp, #24	@,,
 1112              	.LCFI32:
 1113              		.cfi_def_cfa_offset 32
 1114 0004 00AF     		add	r7, sp, #0	@,,
 1115              	.LCFI33:
 1116              		.cfi_def_cfa_register 7
ARM GAS  /tmp/ccwmM6Ug.s 			page 37


 1117 0006 0346     		mov	r3, r0	@ tmp146, OB_RDP
 1118 0008 FB71     		strb	r3, [r7, #7]	@ tmp147, OB_RDP
 1119              	.LBB19:
 934:Drivers/STM32L1xx_HAL_Driver/stm32l1xx_hal_flash_ex.cpp ****   HAL_StatusTypeDef status = HAL_OK;
 1120              		.loc 1 934 0
 1121 000a 4FF00003 		mov	r3, #0	@ tmp148,
 1122 000e FB75     		strb	r3, [r7, #23]	@ tmp149, status
 935:Drivers/STM32L1xx_HAL_Driver/stm32l1xx_hal_flash_ex.cpp ****   uint32_t tmp1 = 0, tmp2 = 0, sprmod = 0;
 1123              		.loc 1 935 0
 1124 0010 4FF00003 		mov	r3, #0	@ tmp150,
 1125 0014 3B61     		str	r3, [r7, #16]	@ tmp150, tmp1
 1126 0016 4FF00003 		mov	r3, #0	@ tmp151,
 1127 001a FB60     		str	r3, [r7, #12]	@ tmp151, tmp2
 1128 001c 4FF00003 		mov	r3, #0	@ tmp152,
 1129 0020 BB60     		str	r3, [r7, #8]	@ tmp152, sprmod
 936:Drivers/STM32L1xx_HAL_Driver/stm32l1xx_hal_flash_ex.cpp ****   
 937:Drivers/STM32L1xx_HAL_Driver/stm32l1xx_hal_flash_ex.cpp ****   /* Check the parameters */
 938:Drivers/STM32L1xx_HAL_Driver/stm32l1xx_hal_flash_ex.cpp ****   assert_param(IS_OB_RDP(OB_RDP));
 939:Drivers/STM32L1xx_HAL_Driver/stm32l1xx_hal_flash_ex.cpp ****   
 940:Drivers/STM32L1xx_HAL_Driver/stm32l1xx_hal_flash_ex.cpp ****   /* According to errata sheet, DocID022054 Rev 5, par2.1.5
 941:Drivers/STM32L1xx_HAL_Driver/stm32l1xx_hal_flash_ex.cpp ****   Before setting Level0 in the RDP register, check that the current level is not equal to Level0.
 942:Drivers/STM32L1xx_HAL_Driver/stm32l1xx_hal_flash_ex.cpp ****   If the current level is not equal to Level0, Level0 can be activated.
 943:Drivers/STM32L1xx_HAL_Driver/stm32l1xx_hal_flash_ex.cpp ****   If the current level is Level0 then the RDP register must not be written again with Level0. */
 944:Drivers/STM32L1xx_HAL_Driver/stm32l1xx_hal_flash_ex.cpp ****   tmp1 = (uint32_t)(OB->RDP & 0x000000FF);
 1130              		.loc 1 944 0
 1131 0022 4FF00003 		mov	r3, #0	@ D.6367,
 1132 0026 C1F6F873 		movt	r3, 8184	@ D.6367,
 1133 002a 1B68     		ldr	r3, [r3, #0]	@ D.6368, D.6367_6->RDP
 1134 002c DBB2     		uxtb	r3, r3	@ tmp153, D.6368
 1135 002e 3B61     		str	r3, [r7, #16]	@ tmp153, tmp1
 945:Drivers/STM32L1xx_HAL_Driver/stm32l1xx_hal_flash_ex.cpp ****   
 946:Drivers/STM32L1xx_HAL_Driver/stm32l1xx_hal_flash_ex.cpp ****   if ((tmp1 == OB_RDP_LEVEL0) && (OB_RDP == OB_RDP_LEVEL0))
 1136              		.loc 1 946 0
 1137 0030 3B69     		ldr	r3, [r7, #16]	@ tmp154, tmp1
 1138 0032 AA2B     		cmp	r3, #170	@ tmp154,
 1139 0034 06D1     		bne	.L59	@,
 1140              		.loc 1 946 0 is_stmt 0 discriminator 1
 1141 0036 FB79     		ldrb	r3, [r7, #7]	@ zero_extendqisi2	@ tmp155, OB_RDP
 1142 0038 AA2B     		cmp	r3, #170	@ tmp155,
 1143 003a 03D1     		bne	.L59	@,
 947:Drivers/STM32L1xx_HAL_Driver/stm32l1xx_hal_flash_ex.cpp ****   {
 948:Drivers/STM32L1xx_HAL_Driver/stm32l1xx_hal_flash_ex.cpp ****     /*current level is Level0 then the RDP register must not be written again with Level0. */
 949:Drivers/STM32L1xx_HAL_Driver/stm32l1xx_hal_flash_ex.cpp ****     status = HAL_ERROR;
 1144              		.loc 1 949 0 is_stmt 1
 1145 003c 4FF00103 		mov	r3, #1	@ tmp156,
 1146 0040 FB75     		strb	r3, [r7, #23]	@ tmp157, status
 1147 0042 2AE0     		b	.L60	@
 1148              	.L59:
 950:Drivers/STM32L1xx_HAL_Driver/stm32l1xx_hal_flash_ex.cpp ****   }
 951:Drivers/STM32L1xx_HAL_Driver/stm32l1xx_hal_flash_ex.cpp ****   else 
 952:Drivers/STM32L1xx_HAL_Driver/stm32l1xx_hal_flash_ex.cpp ****   {
 953:Drivers/STM32L1xx_HAL_Driver/stm32l1xx_hal_flash_ex.cpp ****     /* Mask SPRMOD bit */
 954:Drivers/STM32L1xx_HAL_Driver/stm32l1xx_hal_flash_ex.cpp ****     sprmod = (uint32_t)(OB->RDP & 0x00000100);
 1149              		.loc 1 954 0
 1150 0044 4FF00003 		mov	r3, #0	@ D.6373,
 1151 0048 C1F6F873 		movt	r3, 8184	@ D.6373,
 1152 004c 1B68     		ldr	r3, [r3, #0]	@ D.6374, D.6373_11->RDP
ARM GAS  /tmp/ccwmM6Ug.s 			page 38


 1153 004e 03F48073 		and	r3, r3, #256	@ tmp158, D.6374,
 1154 0052 BB60     		str	r3, [r7, #8]	@ tmp158, sprmod
 955:Drivers/STM32L1xx_HAL_Driver/stm32l1xx_hal_flash_ex.cpp **** 
 956:Drivers/STM32L1xx_HAL_Driver/stm32l1xx_hal_flash_ex.cpp ****     status = FLASH_WaitForLastOperation(HAL_FLASH_TIMEOUT_VALUE);
 1155              		.loc 1 956 0
 1156 0054 4CF25030 		movw	r0, #50000	@,
 1157 0058 FFF7FEFF 		bl	FLASH_WaitForLastOperation	@
 1158 005c 0346     		mov	r3, r0	@ tmp159,
 1159 005e FB75     		strb	r3, [r7, #23]	@ tmp160, status
 957:Drivers/STM32L1xx_HAL_Driver/stm32l1xx_hal_flash_ex.cpp ****     
 958:Drivers/STM32L1xx_HAL_Driver/stm32l1xx_hal_flash_ex.cpp ****     /* calculate the option byte to write */
 959:Drivers/STM32L1xx_HAL_Driver/stm32l1xx_hal_flash_ex.cpp ****     tmp1 = (~((uint32_t)(OB_RDP | sprmod)));
 1160              		.loc 1 959 0
 1161 0060 FA79     		ldrb	r2, [r7, #7]	@ zero_extendqisi2	@ D.6375, OB_RDP
 1162 0062 BB68     		ldr	r3, [r7, #8]	@ tmp161, sprmod
 1163 0064 1343     		orrs	r3, r3, r2	@, D.6376, tmp161, D.6375
 1164 0066 6FEA0303 		mvn	r3, r3	@ tmp162, D.6376
 1165 006a 3B61     		str	r3, [r7, #16]	@ tmp162, tmp1
 960:Drivers/STM32L1xx_HAL_Driver/stm32l1xx_hal_flash_ex.cpp ****     tmp2 = (uint32_t)(((uint32_t)((uint32_t)(tmp1) << 16)) | ((uint32_t)(OB_RDP | sprmod)));
 1166              		.loc 1 960 0
 1167 006c 3B69     		ldr	r3, [r7, #16]	@ tmp163, tmp1
 1168 006e 4FEA0342 		lsl	r2, r3, #16	@ D.6377, tmp163,
 1169 0072 F979     		ldrb	r1, [r7, #7]	@ zero_extendqisi2	@ D.6378, OB_RDP
 1170 0074 BB68     		ldr	r3, [r7, #8]	@ tmp164, sprmod
 1171 0076 0B43     		orrs	r3, r3, r1	@, D.6379, tmp164, D.6378
 1172 0078 1343     		orrs	r3, r3, r2	@, tmp165, D.6379, D.6377
 1173 007a FB60     		str	r3, [r7, #12]	@ tmp165, tmp2
 961:Drivers/STM32L1xx_HAL_Driver/stm32l1xx_hal_flash_ex.cpp ****     
 962:Drivers/STM32L1xx_HAL_Driver/stm32l1xx_hal_flash_ex.cpp ****     if(status == HAL_OK)
 1174              		.loc 1 962 0
 1175 007c FB7D     		ldrb	r3, [r7, #23]	@ zero_extendqisi2	@ tmp166, status
 1176 007e 002B     		cmp	r3, #0	@ tmp166,
 1177 0080 05D1     		bne	.L61	@,
 963:Drivers/STM32L1xx_HAL_Driver/stm32l1xx_hal_flash_ex.cpp ****     {         
 964:Drivers/STM32L1xx_HAL_Driver/stm32l1xx_hal_flash_ex.cpp ****      /* program read protection level */
 965:Drivers/STM32L1xx_HAL_Driver/stm32l1xx_hal_flash_ex.cpp ****       OB->RDP = tmp2;
 1178              		.loc 1 965 0
 1179 0082 4FF00003 		mov	r3, #0	@ D.6382,
 1180 0086 C1F6F873 		movt	r3, 8184	@ D.6382,
 1181 008a FA68     		ldr	r2, [r7, #12]	@ tmp167, tmp2
 1182 008c 1A60     		str	r2, [r3, #0]	@ tmp167, D.6382_22->RDP
 1183              	.L61:
 966:Drivers/STM32L1xx_HAL_Driver/stm32l1xx_hal_flash_ex.cpp ****     }
 967:Drivers/STM32L1xx_HAL_Driver/stm32l1xx_hal_flash_ex.cpp ****     
 968:Drivers/STM32L1xx_HAL_Driver/stm32l1xx_hal_flash_ex.cpp ****     /* Wait for last operation to be completed */
 969:Drivers/STM32L1xx_HAL_Driver/stm32l1xx_hal_flash_ex.cpp ****     status = FLASH_WaitForLastOperation(HAL_FLASH_TIMEOUT_VALUE);
 1184              		.loc 1 969 0
 1185 008e 4CF25030 		movw	r0, #50000	@,
 1186 0092 FFF7FEFF 		bl	FLASH_WaitForLastOperation	@
 1187 0096 0346     		mov	r3, r0	@ tmp168,
 1188 0098 FB75     		strb	r3, [r7, #23]	@ tmp169, status
 1189              	.L60:
 970:Drivers/STM32L1xx_HAL_Driver/stm32l1xx_hal_flash_ex.cpp ****   }
 971:Drivers/STM32L1xx_HAL_Driver/stm32l1xx_hal_flash_ex.cpp ****      
 972:Drivers/STM32L1xx_HAL_Driver/stm32l1xx_hal_flash_ex.cpp ****   /* Return the Read protection operation Status */
 973:Drivers/STM32L1xx_HAL_Driver/stm32l1xx_hal_flash_ex.cpp ****   return status;            
 1190              		.loc 1 973 0
ARM GAS  /tmp/ccwmM6Ug.s 			page 39


 1191 009a FB7D     		ldrb	r3, [r7, #23]	@ zero_extendqisi2	@ D.6384, status
 1192              	.LBE19:
 974:Drivers/STM32L1xx_HAL_Driver/stm32l1xx_hal_flash_ex.cpp **** }
 1193              		.loc 1 974 0
 1194 009c 1846     		mov	r0, r3	@, <retval>
 1195 009e 07F11807 		add	r7, r7, #24	@,,
 1196 00a2 BD46     		mov	sp, r7
 1197 00a4 80BD     		pop	{r7, pc}
 1198              		.cfi_endproc
 1199              	.LFE68:
 1200              		.size	_ZL18FLASH_OB_RDPConfigh, .-_ZL18FLASH_OB_RDPConfigh
 1201 00a6 00BF     		.section	.text._ZL18FLASH_OB_BORConfigh,"ax",%progbits
 1202              		.align	2
 1203              		.thumb
 1204              		.thumb_func
 1205              		.type	_ZL18FLASH_OB_BORConfigh, %function
 1206              	_ZL18FLASH_OB_BORConfigh:
 1207              	.LFB69:
 975:Drivers/STM32L1xx_HAL_Driver/stm32l1xx_hal_flash_ex.cpp **** 
 976:Drivers/STM32L1xx_HAL_Driver/stm32l1xx_hal_flash_ex.cpp **** /**
 977:Drivers/STM32L1xx_HAL_Driver/stm32l1xx_hal_flash_ex.cpp ****   * @brief  Programs the FLASH brownout reset threshold level Option Byte.
 978:Drivers/STM32L1xx_HAL_Driver/stm32l1xx_hal_flash_ex.cpp ****   * @param  OB_BOR: Selects the brownout reset threshold level.
 979:Drivers/STM32L1xx_HAL_Driver/stm32l1xx_hal_flash_ex.cpp ****   *   This parameter can be one of the following values:
 980:Drivers/STM32L1xx_HAL_Driver/stm32l1xx_hal_flash_ex.cpp ****   *     @arg OB_BOR_OFF: BOR is disabled at power down, the reset is asserted when the VDD 
 981:Drivers/STM32L1xx_HAL_Driver/stm32l1xx_hal_flash_ex.cpp ****   *                      power supply reaches the PDR(Power Down Reset) threshold (1.5V)
 982:Drivers/STM32L1xx_HAL_Driver/stm32l1xx_hal_flash_ex.cpp ****   *     @arg OB_BOR_LEVEL1: BOR Reset threshold levels for 1.7V - 1.8V VDD power supply
 983:Drivers/STM32L1xx_HAL_Driver/stm32l1xx_hal_flash_ex.cpp ****   *     @arg OB_BOR_LEVEL2: BOR Reset threshold levels for 1.9V - 2.0V VDD power supply
 984:Drivers/STM32L1xx_HAL_Driver/stm32l1xx_hal_flash_ex.cpp ****   *     @arg OB_BOR_LEVEL3: BOR Reset threshold levels for 2.3V - 2.4V VDD power supply
 985:Drivers/STM32L1xx_HAL_Driver/stm32l1xx_hal_flash_ex.cpp ****   *     @arg OB_BOR_LEVEL4: BOR Reset threshold levels for 2.55V - 2.65V VDD power supply
 986:Drivers/STM32L1xx_HAL_Driver/stm32l1xx_hal_flash_ex.cpp ****   *     @arg OB_BOR_LEVEL5: BOR Reset threshold levels for 2.8V - 2.9V VDD power supply
 987:Drivers/STM32L1xx_HAL_Driver/stm32l1xx_hal_flash_ex.cpp ****   * @retval HAL status
 988:Drivers/STM32L1xx_HAL_Driver/stm32l1xx_hal_flash_ex.cpp ****   */
 989:Drivers/STM32L1xx_HAL_Driver/stm32l1xx_hal_flash_ex.cpp **** static HAL_StatusTypeDef FLASH_OB_BORConfig(uint8_t OB_BOR)
 990:Drivers/STM32L1xx_HAL_Driver/stm32l1xx_hal_flash_ex.cpp **** {
 1208              		.loc 1 990 0
 1209              		.cfi_startproc
 1210              		@ args = 0, pretend = 0, frame = 24
 1211              		@ frame_needed = 1, uses_anonymous_args = 0
 1212 0000 80B5     		push	{r7, lr}	@
 1213              	.LCFI34:
 1214              		.cfi_def_cfa_offset 8
 1215              		.cfi_offset 7, -8
 1216              		.cfi_offset 14, -4
 1217 0002 86B0     		sub	sp, sp, #24	@,,
 1218              	.LCFI35:
 1219              		.cfi_def_cfa_offset 32
 1220 0004 00AF     		add	r7, sp, #0	@,,
 1221              	.LCFI36:
 1222              		.cfi_def_cfa_register 7
 1223 0006 0346     		mov	r3, r0	@ tmp145, OB_BOR
 1224 0008 FB71     		strb	r3, [r7, #7]	@ tmp146, OB_BOR
 1225              	.LBB20:
 991:Drivers/STM32L1xx_HAL_Driver/stm32l1xx_hal_flash_ex.cpp ****   HAL_StatusTypeDef status = HAL_OK;
 1226              		.loc 1 991 0
 1227 000a 4FF00003 		mov	r3, #0	@ tmp147,
 1228 000e FB75     		strb	r3, [r7, #23]	@ tmp148, status
 992:Drivers/STM32L1xx_HAL_Driver/stm32l1xx_hal_flash_ex.cpp ****   uint32_t tmp = 0, tmp1 = 0;
ARM GAS  /tmp/ccwmM6Ug.s 			page 40


 1229              		.loc 1 992 0
 1230 0010 4FF00003 		mov	r3, #0	@ tmp149,
 1231 0014 3B61     		str	r3, [r7, #16]	@ tmp149, tmp
 1232 0016 4FF00003 		mov	r3, #0	@ tmp150,
 1233 001a FB60     		str	r3, [r7, #12]	@ tmp150, tmp1
 993:Drivers/STM32L1xx_HAL_Driver/stm32l1xx_hal_flash_ex.cpp **** 
 994:Drivers/STM32L1xx_HAL_Driver/stm32l1xx_hal_flash_ex.cpp ****   /* Check the parameters */
 995:Drivers/STM32L1xx_HAL_Driver/stm32l1xx_hal_flash_ex.cpp ****   assert_param(IS_OB_BOR_LEVEL(OB_BOR));
 996:Drivers/STM32L1xx_HAL_Driver/stm32l1xx_hal_flash_ex.cpp **** 
 997:Drivers/STM32L1xx_HAL_Driver/stm32l1xx_hal_flash_ex.cpp ****   /* Get the User Option byte register */
 998:Drivers/STM32L1xx_HAL_Driver/stm32l1xx_hal_flash_ex.cpp ****   tmp1 = (FLASH->OBR & (FLASH_OBR_USER)) >> 16;
 1234              		.loc 1 998 0
 1235 001c 4FF47053 		mov	r3, #15360	@ D.6353,
 1236 0020 C4F20203 		movt	r3, 16386	@ D.6353,
 1237 0024 DB69     		ldr	r3, [r3, #28]	@ D.6354, D.6353_4->OBR
 1238 0026 03F4E003 		and	r3, r3, #7340032	@ D.6355, D.6354,
 1239 002a 4FEA1343 		lsr	r3, r3, #16	@ tmp151, D.6355,
 1240 002e FB60     		str	r3, [r7, #12]	@ tmp151, tmp1
 999:Drivers/STM32L1xx_HAL_Driver/stm32l1xx_hal_flash_ex.cpp ****      
1000:Drivers/STM32L1xx_HAL_Driver/stm32l1xx_hal_flash_ex.cpp ****   /* Calculate the option byte to write - [0xFF | nUSER | 0x00 | USER]*/
1001:Drivers/STM32L1xx_HAL_Driver/stm32l1xx_hal_flash_ex.cpp ****   tmp = (uint32_t)~((OB_BOR | tmp1)) << 16;
 1241              		.loc 1 1001 0
 1242 0030 FA79     		ldrb	r2, [r7, #7]	@ zero_extendqisi2	@ D.6356, OB_BOR
 1243 0032 FB68     		ldr	r3, [r7, #12]	@ tmp152, tmp1
 1244 0034 1343     		orrs	r3, r3, r2	@, D.6357, tmp152, D.6356
 1245 0036 6FEA0303 		mvn	r3, r3	@ D.6358, D.6357
 1246 003a 4FEA0343 		lsl	r3, r3, #16	@ tmp153, D.6358,
 1247 003e 3B61     		str	r3, [r7, #16]	@ tmp153, tmp
1002:Drivers/STM32L1xx_HAL_Driver/stm32l1xx_hal_flash_ex.cpp ****   tmp |= (OB_BOR | tmp1);
 1248              		.loc 1 1002 0
 1249 0040 FA79     		ldrb	r2, [r7, #7]	@ zero_extendqisi2	@ D.6359, OB_BOR
 1250 0042 FB68     		ldr	r3, [r7, #12]	@ tmp154, tmp1
 1251 0044 1343     		orrs	r3, r3, r2	@, D.6360, tmp154, D.6359
 1252 0046 3A69     		ldr	r2, [r7, #16]	@ tmp156, tmp
 1253 0048 1343     		orrs	r3, r3, r2	@, tmp155, D.6360, tmp156
 1254 004a 3B61     		str	r3, [r7, #16]	@ tmp155, tmp
1003:Drivers/STM32L1xx_HAL_Driver/stm32l1xx_hal_flash_ex.cpp ****     
1004:Drivers/STM32L1xx_HAL_Driver/stm32l1xx_hal_flash_ex.cpp ****   /* Wait for last operation to be completed */
1005:Drivers/STM32L1xx_HAL_Driver/stm32l1xx_hal_flash_ex.cpp ****   status = FLASH_WaitForLastOperation(HAL_FLASH_TIMEOUT_VALUE);
 1255              		.loc 1 1005 0
 1256 004c 4CF25030 		movw	r0, #50000	@,
 1257 0050 FFF7FEFF 		bl	FLASH_WaitForLastOperation	@
 1258 0054 0346     		mov	r3, r0	@ tmp157,
 1259 0056 FB75     		strb	r3, [r7, #23]	@ tmp158, status
1006:Drivers/STM32L1xx_HAL_Driver/stm32l1xx_hal_flash_ex.cpp ****   
1007:Drivers/STM32L1xx_HAL_Driver/stm32l1xx_hal_flash_ex.cpp ****   if(status == HAL_OK)
 1260              		.loc 1 1007 0
 1261 0058 FB7D     		ldrb	r3, [r7, #23]	@ zero_extendqisi2	@ tmp159, status
 1262 005a 002B     		cmp	r3, #0	@ tmp159,
 1263 005c 05D1     		bne	.L64	@,
1008:Drivers/STM32L1xx_HAL_Driver/stm32l1xx_hal_flash_ex.cpp ****   {  
1009:Drivers/STM32L1xx_HAL_Driver/stm32l1xx_hal_flash_ex.cpp ****     /* Write the BOR Option Byte */            
1010:Drivers/STM32L1xx_HAL_Driver/stm32l1xx_hal_flash_ex.cpp ****     OB->USER = tmp; 
 1264              		.loc 1 1010 0
 1265 005e 4FF00003 		mov	r3, #0	@ D.6363,
 1266 0062 C1F6F873 		movt	r3, 8184	@ D.6363,
 1267 0066 3A69     		ldr	r2, [r7, #16]	@ tmp160, tmp
ARM GAS  /tmp/ccwmM6Ug.s 			page 41


 1268 0068 5A60     		str	r2, [r3, #4]	@ tmp160, D.6363_17->USER
 1269              	.L64:
1011:Drivers/STM32L1xx_HAL_Driver/stm32l1xx_hal_flash_ex.cpp ****   }
1012:Drivers/STM32L1xx_HAL_Driver/stm32l1xx_hal_flash_ex.cpp ****   
1013:Drivers/STM32L1xx_HAL_Driver/stm32l1xx_hal_flash_ex.cpp ****   /* Wait for last operation to be completed */
1014:Drivers/STM32L1xx_HAL_Driver/stm32l1xx_hal_flash_ex.cpp ****   status = FLASH_WaitForLastOperation(HAL_FLASH_TIMEOUT_VALUE);
 1270              		.loc 1 1014 0
 1271 006a 4CF25030 		movw	r0, #50000	@,
 1272 006e FFF7FEFF 		bl	FLASH_WaitForLastOperation	@
 1273 0072 0346     		mov	r3, r0	@ tmp161,
 1274 0074 FB75     		strb	r3, [r7, #23]	@ tmp162, status
1015:Drivers/STM32L1xx_HAL_Driver/stm32l1xx_hal_flash_ex.cpp ****         
1016:Drivers/STM32L1xx_HAL_Driver/stm32l1xx_hal_flash_ex.cpp ****   /* Return the Option Byte program Status */
1017:Drivers/STM32L1xx_HAL_Driver/stm32l1xx_hal_flash_ex.cpp ****   return status;
 1275              		.loc 1 1017 0
 1276 0076 FB7D     		ldrb	r3, [r7, #23]	@ zero_extendqisi2	@ D.6365, status
 1277              	.LBE20:
1018:Drivers/STM32L1xx_HAL_Driver/stm32l1xx_hal_flash_ex.cpp **** }
 1278              		.loc 1 1018 0
 1279 0078 1846     		mov	r0, r3	@, <retval>
 1280 007a 07F11807 		add	r7, r7, #24	@,,
 1281 007e BD46     		mov	sp, r7
 1282 0080 80BD     		pop	{r7, pc}
 1283              		.cfi_endproc
 1284              	.LFE69:
 1285              		.size	_ZL18FLASH_OB_BORConfigh, .-_ZL18FLASH_OB_BORConfigh
 1286 0082 00BF     		.section	.text._ZL16FLASH_OB_GetUserv,"ax",%progbits
 1287              		.align	2
 1288              		.thumb
 1289              		.thumb_func
 1290              		.type	_ZL16FLASH_OB_GetUserv, %function
 1291              	_ZL16FLASH_OB_GetUserv:
 1292              	.LFB70:
1019:Drivers/STM32L1xx_HAL_Driver/stm32l1xx_hal_flash_ex.cpp **** 
1020:Drivers/STM32L1xx_HAL_Driver/stm32l1xx_hal_flash_ex.cpp **** /**
1021:Drivers/STM32L1xx_HAL_Driver/stm32l1xx_hal_flash_ex.cpp ****   * @brief  Returns the FLASH User Option Bytes values.
1022:Drivers/STM32L1xx_HAL_Driver/stm32l1xx_hal_flash_ex.cpp ****   * @retval The FLASH User Option Bytes.
1023:Drivers/STM32L1xx_HAL_Driver/stm32l1xx_hal_flash_ex.cpp ****   */
1024:Drivers/STM32L1xx_HAL_Driver/stm32l1xx_hal_flash_ex.cpp **** static uint8_t FLASH_OB_GetUser(void)
1025:Drivers/STM32L1xx_HAL_Driver/stm32l1xx_hal_flash_ex.cpp **** {
 1293              		.loc 1 1025 0
 1294              		.cfi_startproc
 1295              		@ args = 0, pretend = 0, frame = 16
 1296              		@ frame_needed = 1, uses_anonymous_args = 0
 1297              		@ link register save eliminated.
 1298 0000 90B4     		push	{r4, r7}	@
 1299              	.LCFI37:
 1300              		.cfi_def_cfa_offset 8
 1301              		.cfi_offset 4, -8
 1302              		.cfi_offset 7, -4
 1303 0002 84B0     		sub	sp, sp, #16	@,,
 1304              	.LCFI38:
 1305              		.cfi_def_cfa_offset 24
 1306 0004 00AF     		add	r7, sp, #0	@,,
 1307              	.LCFI39:
 1308              		.cfi_def_cfa_register 7
1026:Drivers/STM32L1xx_HAL_Driver/stm32l1xx_hal_flash_ex.cpp ****   /* Return the User Option Byte */
ARM GAS  /tmp/ccwmM6Ug.s 			page 42


1027:Drivers/STM32L1xx_HAL_Driver/stm32l1xx_hal_flash_ex.cpp ****   return (uint8_t)((FLASH->OBR & FLASH_OBR_USER) >> POSITION_VAL(FLASH_OBR_USER));
 1309              		.loc 1 1027 0
 1310 0006 4FF47053 		mov	r3, #15360	@ D.6345,
 1311 000a C4F20203 		movt	r3, 16386	@ D.6345,
 1312 000e DB69     		ldr	r3, [r3, #28]	@ D.6346, D.6345_1->OBR
 1313 0010 03F4E002 		and	r2, r3, #7340032	@ D.6347, D.6346,
 1314 0014 4FF4E003 		mov	r3, #7340032	@ tmp147,
 1315 0018 FB60     		str	r3, [r7, #12]	@ tmp147, value
 1316              	.LBB21:
 1317              	.LBB22:
 1318              	.LBB23:
 1319              		.file 2 "Drivers/CMSIS/Include/core_cmInstr.h"
   1:Drivers/CMSIS/Include/core_cmInstr.h **** /**************************************************************************//**
   2:Drivers/CMSIS/Include/core_cmInstr.h ****  * @file     core_cmInstr.h
   3:Drivers/CMSIS/Include/core_cmInstr.h ****  * @brief    CMSIS Cortex-M Core Instruction Access Header File
   4:Drivers/CMSIS/Include/core_cmInstr.h ****  * @version  V3.20
   5:Drivers/CMSIS/Include/core_cmInstr.h ****  * @date     05. March 2013
   6:Drivers/CMSIS/Include/core_cmInstr.h ****  *
   7:Drivers/CMSIS/Include/core_cmInstr.h ****  * @note
   8:Drivers/CMSIS/Include/core_cmInstr.h ****  *
   9:Drivers/CMSIS/Include/core_cmInstr.h ****  ******************************************************************************/
  10:Drivers/CMSIS/Include/core_cmInstr.h **** /* Copyright (c) 2009 - 2013 ARM LIMITED
  11:Drivers/CMSIS/Include/core_cmInstr.h **** 
  12:Drivers/CMSIS/Include/core_cmInstr.h ****    All rights reserved.
  13:Drivers/CMSIS/Include/core_cmInstr.h ****    Redistribution and use in source and binary forms, with or without
  14:Drivers/CMSIS/Include/core_cmInstr.h ****    modification, are permitted provided that the following conditions are met:
  15:Drivers/CMSIS/Include/core_cmInstr.h ****    - Redistributions of source code must retain the above copyright
  16:Drivers/CMSIS/Include/core_cmInstr.h ****      notice, this list of conditions and the following disclaimer.
  17:Drivers/CMSIS/Include/core_cmInstr.h ****    - Redistributions in binary form must reproduce the above copyright
  18:Drivers/CMSIS/Include/core_cmInstr.h ****      notice, this list of conditions and the following disclaimer in the
  19:Drivers/CMSIS/Include/core_cmInstr.h ****      documentation and/or other materials provided with the distribution.
  20:Drivers/CMSIS/Include/core_cmInstr.h ****    - Neither the name of ARM nor the names of its contributors may be used
  21:Drivers/CMSIS/Include/core_cmInstr.h ****      to endorse or promote products derived from this software without
  22:Drivers/CMSIS/Include/core_cmInstr.h ****      specific prior written permission.
  23:Drivers/CMSIS/Include/core_cmInstr.h ****    *
  24:Drivers/CMSIS/Include/core_cmInstr.h ****    THIS SOFTWARE IS PROVIDED BY THE COPYRIGHT HOLDERS AND CONTRIBUTORS "AS IS"
  25:Drivers/CMSIS/Include/core_cmInstr.h ****    AND ANY EXPRESS OR IMPLIED WARRANTIES, INCLUDING, BUT NOT LIMITED TO, THE
  26:Drivers/CMSIS/Include/core_cmInstr.h ****    IMPLIED WARRANTIES OF MERCHANTABILITY AND FITNESS FOR A PARTICULAR PURPOSE
  27:Drivers/CMSIS/Include/core_cmInstr.h ****    ARE DISCLAIMED. IN NO EVENT SHALL COPYRIGHT HOLDERS AND CONTRIBUTORS BE
  28:Drivers/CMSIS/Include/core_cmInstr.h ****    LIABLE FOR ANY DIRECT, INDIRECT, INCIDENTAL, SPECIAL, EXEMPLARY, OR
  29:Drivers/CMSIS/Include/core_cmInstr.h ****    CONSEQUENTIAL DAMAGES (INCLUDING, BUT NOT LIMITED TO, PROCUREMENT OF
  30:Drivers/CMSIS/Include/core_cmInstr.h ****    SUBSTITUTE GOODS OR SERVICES; LOSS OF USE, DATA, OR PROFITS; OR BUSINESS
  31:Drivers/CMSIS/Include/core_cmInstr.h ****    INTERRUPTION) HOWEVER CAUSED AND ON ANY THEORY OF LIABILITY, WHETHER IN
  32:Drivers/CMSIS/Include/core_cmInstr.h ****    CONTRACT, STRICT LIABILITY, OR TORT (INCLUDING NEGLIGENCE OR OTHERWISE)
  33:Drivers/CMSIS/Include/core_cmInstr.h ****    ARISING IN ANY WAY OUT OF THE USE OF THIS SOFTWARE, EVEN IF ADVISED OF THE
  34:Drivers/CMSIS/Include/core_cmInstr.h ****    POSSIBILITY OF SUCH DAMAGE.
  35:Drivers/CMSIS/Include/core_cmInstr.h ****    ---------------------------------------------------------------------------*/
  36:Drivers/CMSIS/Include/core_cmInstr.h **** 
  37:Drivers/CMSIS/Include/core_cmInstr.h **** 
  38:Drivers/CMSIS/Include/core_cmInstr.h **** #ifndef __CORE_CMINSTR_H
  39:Drivers/CMSIS/Include/core_cmInstr.h **** #define __CORE_CMINSTR_H
  40:Drivers/CMSIS/Include/core_cmInstr.h **** 
  41:Drivers/CMSIS/Include/core_cmInstr.h **** 
  42:Drivers/CMSIS/Include/core_cmInstr.h **** /* ##########################  Core Instruction Access  ######################### */
  43:Drivers/CMSIS/Include/core_cmInstr.h **** /** \defgroup CMSIS_Core_InstructionInterface CMSIS Core Instruction Interface
  44:Drivers/CMSIS/Include/core_cmInstr.h ****   Access to dedicated instructions
  45:Drivers/CMSIS/Include/core_cmInstr.h ****   @{
ARM GAS  /tmp/ccwmM6Ug.s 			page 43


  46:Drivers/CMSIS/Include/core_cmInstr.h **** */
  47:Drivers/CMSIS/Include/core_cmInstr.h **** 
  48:Drivers/CMSIS/Include/core_cmInstr.h **** #if   defined ( __CC_ARM ) /*------------------RealView Compiler -----------------*/
  49:Drivers/CMSIS/Include/core_cmInstr.h **** /* ARM armcc specific functions */
  50:Drivers/CMSIS/Include/core_cmInstr.h **** 
  51:Drivers/CMSIS/Include/core_cmInstr.h **** #if (__ARMCC_VERSION < 400677)
  52:Drivers/CMSIS/Include/core_cmInstr.h ****   #error "Please use ARM Compiler Toolchain V4.0.677 or later!"
  53:Drivers/CMSIS/Include/core_cmInstr.h **** #endif
  54:Drivers/CMSIS/Include/core_cmInstr.h **** 
  55:Drivers/CMSIS/Include/core_cmInstr.h **** 
  56:Drivers/CMSIS/Include/core_cmInstr.h **** /** \brief  No Operation
  57:Drivers/CMSIS/Include/core_cmInstr.h **** 
  58:Drivers/CMSIS/Include/core_cmInstr.h ****     No Operation does nothing. This instruction can be used for code alignment purposes.
  59:Drivers/CMSIS/Include/core_cmInstr.h ****  */
  60:Drivers/CMSIS/Include/core_cmInstr.h **** #define __NOP                             __nop
  61:Drivers/CMSIS/Include/core_cmInstr.h **** 
  62:Drivers/CMSIS/Include/core_cmInstr.h **** 
  63:Drivers/CMSIS/Include/core_cmInstr.h **** /** \brief  Wait For Interrupt
  64:Drivers/CMSIS/Include/core_cmInstr.h **** 
  65:Drivers/CMSIS/Include/core_cmInstr.h ****     Wait For Interrupt is a hint instruction that suspends execution
  66:Drivers/CMSIS/Include/core_cmInstr.h ****     until one of a number of events occurs.
  67:Drivers/CMSIS/Include/core_cmInstr.h ****  */
  68:Drivers/CMSIS/Include/core_cmInstr.h **** #define __WFI                             __wfi
  69:Drivers/CMSIS/Include/core_cmInstr.h **** 
  70:Drivers/CMSIS/Include/core_cmInstr.h **** 
  71:Drivers/CMSIS/Include/core_cmInstr.h **** /** \brief  Wait For Event
  72:Drivers/CMSIS/Include/core_cmInstr.h **** 
  73:Drivers/CMSIS/Include/core_cmInstr.h ****     Wait For Event is a hint instruction that permits the processor to enter
  74:Drivers/CMSIS/Include/core_cmInstr.h ****     a low-power state until one of a number of events occurs.
  75:Drivers/CMSIS/Include/core_cmInstr.h ****  */
  76:Drivers/CMSIS/Include/core_cmInstr.h **** #define __WFE                             __wfe
  77:Drivers/CMSIS/Include/core_cmInstr.h **** 
  78:Drivers/CMSIS/Include/core_cmInstr.h **** 
  79:Drivers/CMSIS/Include/core_cmInstr.h **** /** \brief  Send Event
  80:Drivers/CMSIS/Include/core_cmInstr.h **** 
  81:Drivers/CMSIS/Include/core_cmInstr.h ****     Send Event is a hint instruction. It causes an event to be signaled to the CPU.
  82:Drivers/CMSIS/Include/core_cmInstr.h ****  */
  83:Drivers/CMSIS/Include/core_cmInstr.h **** #define __SEV                             __sev
  84:Drivers/CMSIS/Include/core_cmInstr.h **** 
  85:Drivers/CMSIS/Include/core_cmInstr.h **** 
  86:Drivers/CMSIS/Include/core_cmInstr.h **** /** \brief  Instruction Synchronization Barrier
  87:Drivers/CMSIS/Include/core_cmInstr.h **** 
  88:Drivers/CMSIS/Include/core_cmInstr.h ****     Instruction Synchronization Barrier flushes the pipeline in the processor,
  89:Drivers/CMSIS/Include/core_cmInstr.h ****     so that all instructions following the ISB are fetched from cache or
  90:Drivers/CMSIS/Include/core_cmInstr.h ****     memory, after the instruction has been completed.
  91:Drivers/CMSIS/Include/core_cmInstr.h ****  */
  92:Drivers/CMSIS/Include/core_cmInstr.h **** #define __ISB()                           __isb(0xF)
  93:Drivers/CMSIS/Include/core_cmInstr.h **** 
  94:Drivers/CMSIS/Include/core_cmInstr.h **** 
  95:Drivers/CMSIS/Include/core_cmInstr.h **** /** \brief  Data Synchronization Barrier
  96:Drivers/CMSIS/Include/core_cmInstr.h **** 
  97:Drivers/CMSIS/Include/core_cmInstr.h ****     This function acts as a special kind of Data Memory Barrier.
  98:Drivers/CMSIS/Include/core_cmInstr.h ****     It completes when all explicit memory accesses before this instruction complete.
  99:Drivers/CMSIS/Include/core_cmInstr.h ****  */
 100:Drivers/CMSIS/Include/core_cmInstr.h **** #define __DSB()                           __dsb(0xF)
 101:Drivers/CMSIS/Include/core_cmInstr.h **** 
 102:Drivers/CMSIS/Include/core_cmInstr.h **** 
ARM GAS  /tmp/ccwmM6Ug.s 			page 44


 103:Drivers/CMSIS/Include/core_cmInstr.h **** /** \brief  Data Memory Barrier
 104:Drivers/CMSIS/Include/core_cmInstr.h **** 
 105:Drivers/CMSIS/Include/core_cmInstr.h ****     This function ensures the apparent order of the explicit memory operations before
 106:Drivers/CMSIS/Include/core_cmInstr.h ****     and after the instruction, without ensuring their completion.
 107:Drivers/CMSIS/Include/core_cmInstr.h ****  */
 108:Drivers/CMSIS/Include/core_cmInstr.h **** #define __DMB()                           __dmb(0xF)
 109:Drivers/CMSIS/Include/core_cmInstr.h **** 
 110:Drivers/CMSIS/Include/core_cmInstr.h **** 
 111:Drivers/CMSIS/Include/core_cmInstr.h **** /** \brief  Reverse byte order (32 bit)
 112:Drivers/CMSIS/Include/core_cmInstr.h **** 
 113:Drivers/CMSIS/Include/core_cmInstr.h ****     This function reverses the byte order in integer value.
 114:Drivers/CMSIS/Include/core_cmInstr.h **** 
 115:Drivers/CMSIS/Include/core_cmInstr.h ****     \param [in]    value  Value to reverse
 116:Drivers/CMSIS/Include/core_cmInstr.h ****     \return               Reversed value
 117:Drivers/CMSIS/Include/core_cmInstr.h ****  */
 118:Drivers/CMSIS/Include/core_cmInstr.h **** #define __REV                             __rev
 119:Drivers/CMSIS/Include/core_cmInstr.h **** 
 120:Drivers/CMSIS/Include/core_cmInstr.h **** 
 121:Drivers/CMSIS/Include/core_cmInstr.h **** /** \brief  Reverse byte order (16 bit)
 122:Drivers/CMSIS/Include/core_cmInstr.h **** 
 123:Drivers/CMSIS/Include/core_cmInstr.h ****     This function reverses the byte order in two unsigned short values.
 124:Drivers/CMSIS/Include/core_cmInstr.h **** 
 125:Drivers/CMSIS/Include/core_cmInstr.h ****     \param [in]    value  Value to reverse
 126:Drivers/CMSIS/Include/core_cmInstr.h ****     \return               Reversed value
 127:Drivers/CMSIS/Include/core_cmInstr.h ****  */
 128:Drivers/CMSIS/Include/core_cmInstr.h **** #ifndef __NO_EMBEDDED_ASM
 129:Drivers/CMSIS/Include/core_cmInstr.h **** __attribute__((section(".rev16_text"))) __STATIC_INLINE __ASM uint32_t __REV16(uint32_t value)
 130:Drivers/CMSIS/Include/core_cmInstr.h **** {
 131:Drivers/CMSIS/Include/core_cmInstr.h ****   rev16 r0, r0
 132:Drivers/CMSIS/Include/core_cmInstr.h ****   bx lr
 133:Drivers/CMSIS/Include/core_cmInstr.h **** }
 134:Drivers/CMSIS/Include/core_cmInstr.h **** #endif
 135:Drivers/CMSIS/Include/core_cmInstr.h **** 
 136:Drivers/CMSIS/Include/core_cmInstr.h **** /** \brief  Reverse byte order in signed short value
 137:Drivers/CMSIS/Include/core_cmInstr.h **** 
 138:Drivers/CMSIS/Include/core_cmInstr.h ****     This function reverses the byte order in a signed short value with sign extension to integer.
 139:Drivers/CMSIS/Include/core_cmInstr.h **** 
 140:Drivers/CMSIS/Include/core_cmInstr.h ****     \param [in]    value  Value to reverse
 141:Drivers/CMSIS/Include/core_cmInstr.h ****     \return               Reversed value
 142:Drivers/CMSIS/Include/core_cmInstr.h ****  */
 143:Drivers/CMSIS/Include/core_cmInstr.h **** #ifndef __NO_EMBEDDED_ASM
 144:Drivers/CMSIS/Include/core_cmInstr.h **** __attribute__((section(".revsh_text"))) __STATIC_INLINE __ASM int32_t __REVSH(int32_t value)
 145:Drivers/CMSIS/Include/core_cmInstr.h **** {
 146:Drivers/CMSIS/Include/core_cmInstr.h ****   revsh r0, r0
 147:Drivers/CMSIS/Include/core_cmInstr.h ****   bx lr
 148:Drivers/CMSIS/Include/core_cmInstr.h **** }
 149:Drivers/CMSIS/Include/core_cmInstr.h **** #endif
 150:Drivers/CMSIS/Include/core_cmInstr.h **** 
 151:Drivers/CMSIS/Include/core_cmInstr.h **** 
 152:Drivers/CMSIS/Include/core_cmInstr.h **** /** \brief  Rotate Right in unsigned value (32 bit)
 153:Drivers/CMSIS/Include/core_cmInstr.h **** 
 154:Drivers/CMSIS/Include/core_cmInstr.h ****     This function Rotate Right (immediate) provides the value of the contents of a register rotated
 155:Drivers/CMSIS/Include/core_cmInstr.h **** 
 156:Drivers/CMSIS/Include/core_cmInstr.h ****     \param [in]    value  Value to rotate
 157:Drivers/CMSIS/Include/core_cmInstr.h ****     \param [in]    value  Number of Bits to rotate
 158:Drivers/CMSIS/Include/core_cmInstr.h ****     \return               Rotated value
 159:Drivers/CMSIS/Include/core_cmInstr.h ****  */
ARM GAS  /tmp/ccwmM6Ug.s 			page 45


 160:Drivers/CMSIS/Include/core_cmInstr.h **** #define __ROR                             __ror
 161:Drivers/CMSIS/Include/core_cmInstr.h **** 
 162:Drivers/CMSIS/Include/core_cmInstr.h **** 
 163:Drivers/CMSIS/Include/core_cmInstr.h **** /** \brief  Breakpoint
 164:Drivers/CMSIS/Include/core_cmInstr.h **** 
 165:Drivers/CMSIS/Include/core_cmInstr.h ****     This function causes the processor to enter Debug state.
 166:Drivers/CMSIS/Include/core_cmInstr.h ****     Debug tools can use this to investigate system state when the instruction at a particular addre
 167:Drivers/CMSIS/Include/core_cmInstr.h **** 
 168:Drivers/CMSIS/Include/core_cmInstr.h ****     \param [in]    value  is ignored by the processor.
 169:Drivers/CMSIS/Include/core_cmInstr.h ****                    If required, a debugger can use it to store additional information about the bre
 170:Drivers/CMSIS/Include/core_cmInstr.h ****  */
 171:Drivers/CMSIS/Include/core_cmInstr.h **** #define __BKPT(value)                       __breakpoint(value)
 172:Drivers/CMSIS/Include/core_cmInstr.h **** 
 173:Drivers/CMSIS/Include/core_cmInstr.h **** 
 174:Drivers/CMSIS/Include/core_cmInstr.h **** #if       (__CORTEX_M >= 0x03)
 175:Drivers/CMSIS/Include/core_cmInstr.h **** 
 176:Drivers/CMSIS/Include/core_cmInstr.h **** /** \brief  Reverse bit order of value
 177:Drivers/CMSIS/Include/core_cmInstr.h **** 
 178:Drivers/CMSIS/Include/core_cmInstr.h ****     This function reverses the bit order of the given value.
 179:Drivers/CMSIS/Include/core_cmInstr.h **** 
 180:Drivers/CMSIS/Include/core_cmInstr.h ****     \param [in]    value  Value to reverse
 181:Drivers/CMSIS/Include/core_cmInstr.h ****     \return               Reversed value
 182:Drivers/CMSIS/Include/core_cmInstr.h ****  */
 183:Drivers/CMSIS/Include/core_cmInstr.h **** #define __RBIT                            __rbit
 184:Drivers/CMSIS/Include/core_cmInstr.h **** 
 185:Drivers/CMSIS/Include/core_cmInstr.h **** 
 186:Drivers/CMSIS/Include/core_cmInstr.h **** /** \brief  LDR Exclusive (8 bit)
 187:Drivers/CMSIS/Include/core_cmInstr.h **** 
 188:Drivers/CMSIS/Include/core_cmInstr.h ****     This function performs a exclusive LDR command for 8 bit value.
 189:Drivers/CMSIS/Include/core_cmInstr.h **** 
 190:Drivers/CMSIS/Include/core_cmInstr.h ****     \param [in]    ptr  Pointer to data
 191:Drivers/CMSIS/Include/core_cmInstr.h ****     \return             value of type uint8_t at (*ptr)
 192:Drivers/CMSIS/Include/core_cmInstr.h ****  */
 193:Drivers/CMSIS/Include/core_cmInstr.h **** #define __LDREXB(ptr)                     ((uint8_t ) __ldrex(ptr))
 194:Drivers/CMSIS/Include/core_cmInstr.h **** 
 195:Drivers/CMSIS/Include/core_cmInstr.h **** 
 196:Drivers/CMSIS/Include/core_cmInstr.h **** /** \brief  LDR Exclusive (16 bit)
 197:Drivers/CMSIS/Include/core_cmInstr.h **** 
 198:Drivers/CMSIS/Include/core_cmInstr.h ****     This function performs a exclusive LDR command for 16 bit values.
 199:Drivers/CMSIS/Include/core_cmInstr.h **** 
 200:Drivers/CMSIS/Include/core_cmInstr.h ****     \param [in]    ptr  Pointer to data
 201:Drivers/CMSIS/Include/core_cmInstr.h ****     \return        value of type uint16_t at (*ptr)
 202:Drivers/CMSIS/Include/core_cmInstr.h ****  */
 203:Drivers/CMSIS/Include/core_cmInstr.h **** #define __LDREXH(ptr)                     ((uint16_t) __ldrex(ptr))
 204:Drivers/CMSIS/Include/core_cmInstr.h **** 
 205:Drivers/CMSIS/Include/core_cmInstr.h **** 
 206:Drivers/CMSIS/Include/core_cmInstr.h **** /** \brief  LDR Exclusive (32 bit)
 207:Drivers/CMSIS/Include/core_cmInstr.h **** 
 208:Drivers/CMSIS/Include/core_cmInstr.h ****     This function performs a exclusive LDR command for 32 bit values.
 209:Drivers/CMSIS/Include/core_cmInstr.h **** 
 210:Drivers/CMSIS/Include/core_cmInstr.h ****     \param [in]    ptr  Pointer to data
 211:Drivers/CMSIS/Include/core_cmInstr.h ****     \return        value of type uint32_t at (*ptr)
 212:Drivers/CMSIS/Include/core_cmInstr.h ****  */
 213:Drivers/CMSIS/Include/core_cmInstr.h **** #define __LDREXW(ptr)                     ((uint32_t ) __ldrex(ptr))
 214:Drivers/CMSIS/Include/core_cmInstr.h **** 
 215:Drivers/CMSIS/Include/core_cmInstr.h **** 
 216:Drivers/CMSIS/Include/core_cmInstr.h **** /** \brief  STR Exclusive (8 bit)
ARM GAS  /tmp/ccwmM6Ug.s 			page 46


 217:Drivers/CMSIS/Include/core_cmInstr.h **** 
 218:Drivers/CMSIS/Include/core_cmInstr.h ****     This function performs a exclusive STR command for 8 bit values.
 219:Drivers/CMSIS/Include/core_cmInstr.h **** 
 220:Drivers/CMSIS/Include/core_cmInstr.h ****     \param [in]  value  Value to store
 221:Drivers/CMSIS/Include/core_cmInstr.h ****     \param [in]    ptr  Pointer to location
 222:Drivers/CMSIS/Include/core_cmInstr.h ****     \return          0  Function succeeded
 223:Drivers/CMSIS/Include/core_cmInstr.h ****     \return          1  Function failed
 224:Drivers/CMSIS/Include/core_cmInstr.h ****  */
 225:Drivers/CMSIS/Include/core_cmInstr.h **** #define __STREXB(value, ptr)              __strex(value, ptr)
 226:Drivers/CMSIS/Include/core_cmInstr.h **** 
 227:Drivers/CMSIS/Include/core_cmInstr.h **** 
 228:Drivers/CMSIS/Include/core_cmInstr.h **** /** \brief  STR Exclusive (16 bit)
 229:Drivers/CMSIS/Include/core_cmInstr.h **** 
 230:Drivers/CMSIS/Include/core_cmInstr.h ****     This function performs a exclusive STR command for 16 bit values.
 231:Drivers/CMSIS/Include/core_cmInstr.h **** 
 232:Drivers/CMSIS/Include/core_cmInstr.h ****     \param [in]  value  Value to store
 233:Drivers/CMSIS/Include/core_cmInstr.h ****     \param [in]    ptr  Pointer to location
 234:Drivers/CMSIS/Include/core_cmInstr.h ****     \return          0  Function succeeded
 235:Drivers/CMSIS/Include/core_cmInstr.h ****     \return          1  Function failed
 236:Drivers/CMSIS/Include/core_cmInstr.h ****  */
 237:Drivers/CMSIS/Include/core_cmInstr.h **** #define __STREXH(value, ptr)              __strex(value, ptr)
 238:Drivers/CMSIS/Include/core_cmInstr.h **** 
 239:Drivers/CMSIS/Include/core_cmInstr.h **** 
 240:Drivers/CMSIS/Include/core_cmInstr.h **** /** \brief  STR Exclusive (32 bit)
 241:Drivers/CMSIS/Include/core_cmInstr.h **** 
 242:Drivers/CMSIS/Include/core_cmInstr.h ****     This function performs a exclusive STR command for 32 bit values.
 243:Drivers/CMSIS/Include/core_cmInstr.h **** 
 244:Drivers/CMSIS/Include/core_cmInstr.h ****     \param [in]  value  Value to store
 245:Drivers/CMSIS/Include/core_cmInstr.h ****     \param [in]    ptr  Pointer to location
 246:Drivers/CMSIS/Include/core_cmInstr.h ****     \return          0  Function succeeded
 247:Drivers/CMSIS/Include/core_cmInstr.h ****     \return          1  Function failed
 248:Drivers/CMSIS/Include/core_cmInstr.h ****  */
 249:Drivers/CMSIS/Include/core_cmInstr.h **** #define __STREXW(value, ptr)              __strex(value, ptr)
 250:Drivers/CMSIS/Include/core_cmInstr.h **** 
 251:Drivers/CMSIS/Include/core_cmInstr.h **** 
 252:Drivers/CMSIS/Include/core_cmInstr.h **** /** \brief  Remove the exclusive lock
 253:Drivers/CMSIS/Include/core_cmInstr.h **** 
 254:Drivers/CMSIS/Include/core_cmInstr.h ****     This function removes the exclusive lock which is created by LDREX.
 255:Drivers/CMSIS/Include/core_cmInstr.h **** 
 256:Drivers/CMSIS/Include/core_cmInstr.h ****  */
 257:Drivers/CMSIS/Include/core_cmInstr.h **** #define __CLREX                           __clrex
 258:Drivers/CMSIS/Include/core_cmInstr.h **** 
 259:Drivers/CMSIS/Include/core_cmInstr.h **** 
 260:Drivers/CMSIS/Include/core_cmInstr.h **** /** \brief  Signed Saturate
 261:Drivers/CMSIS/Include/core_cmInstr.h **** 
 262:Drivers/CMSIS/Include/core_cmInstr.h ****     This function saturates a signed value.
 263:Drivers/CMSIS/Include/core_cmInstr.h **** 
 264:Drivers/CMSIS/Include/core_cmInstr.h ****     \param [in]  value  Value to be saturated
 265:Drivers/CMSIS/Include/core_cmInstr.h ****     \param [in]    sat  Bit position to saturate to (1..32)
 266:Drivers/CMSIS/Include/core_cmInstr.h ****     \return             Saturated value
 267:Drivers/CMSIS/Include/core_cmInstr.h ****  */
 268:Drivers/CMSIS/Include/core_cmInstr.h **** #define __SSAT                            __ssat
 269:Drivers/CMSIS/Include/core_cmInstr.h **** 
 270:Drivers/CMSIS/Include/core_cmInstr.h **** 
 271:Drivers/CMSIS/Include/core_cmInstr.h **** /** \brief  Unsigned Saturate
 272:Drivers/CMSIS/Include/core_cmInstr.h **** 
 273:Drivers/CMSIS/Include/core_cmInstr.h ****     This function saturates an unsigned value.
ARM GAS  /tmp/ccwmM6Ug.s 			page 47


 274:Drivers/CMSIS/Include/core_cmInstr.h **** 
 275:Drivers/CMSIS/Include/core_cmInstr.h ****     \param [in]  value  Value to be saturated
 276:Drivers/CMSIS/Include/core_cmInstr.h ****     \param [in]    sat  Bit position to saturate to (0..31)
 277:Drivers/CMSIS/Include/core_cmInstr.h ****     \return             Saturated value
 278:Drivers/CMSIS/Include/core_cmInstr.h ****  */
 279:Drivers/CMSIS/Include/core_cmInstr.h **** #define __USAT                            __usat
 280:Drivers/CMSIS/Include/core_cmInstr.h **** 
 281:Drivers/CMSIS/Include/core_cmInstr.h **** 
 282:Drivers/CMSIS/Include/core_cmInstr.h **** /** \brief  Count leading zeros
 283:Drivers/CMSIS/Include/core_cmInstr.h **** 
 284:Drivers/CMSIS/Include/core_cmInstr.h ****     This function counts the number of leading zeros of a data value.
 285:Drivers/CMSIS/Include/core_cmInstr.h **** 
 286:Drivers/CMSIS/Include/core_cmInstr.h ****     \param [in]  value  Value to count the leading zeros
 287:Drivers/CMSIS/Include/core_cmInstr.h ****     \return             number of leading zeros in value
 288:Drivers/CMSIS/Include/core_cmInstr.h ****  */
 289:Drivers/CMSIS/Include/core_cmInstr.h **** #define __CLZ                             __clz
 290:Drivers/CMSIS/Include/core_cmInstr.h **** 
 291:Drivers/CMSIS/Include/core_cmInstr.h **** #endif /* (__CORTEX_M >= 0x03) */
 292:Drivers/CMSIS/Include/core_cmInstr.h **** 
 293:Drivers/CMSIS/Include/core_cmInstr.h **** 
 294:Drivers/CMSIS/Include/core_cmInstr.h **** 
 295:Drivers/CMSIS/Include/core_cmInstr.h **** #elif defined ( __ICCARM__ ) /*------------------ ICC Compiler -------------------*/
 296:Drivers/CMSIS/Include/core_cmInstr.h **** /* IAR iccarm specific functions */
 297:Drivers/CMSIS/Include/core_cmInstr.h **** 
 298:Drivers/CMSIS/Include/core_cmInstr.h **** #include <cmsis_iar.h>
 299:Drivers/CMSIS/Include/core_cmInstr.h **** 
 300:Drivers/CMSIS/Include/core_cmInstr.h **** 
 301:Drivers/CMSIS/Include/core_cmInstr.h **** #elif defined ( __TMS470__ ) /*---------------- TI CCS Compiler ------------------*/
 302:Drivers/CMSIS/Include/core_cmInstr.h **** /* TI CCS specific functions */
 303:Drivers/CMSIS/Include/core_cmInstr.h **** 
 304:Drivers/CMSIS/Include/core_cmInstr.h **** #include <cmsis_ccs.h>
 305:Drivers/CMSIS/Include/core_cmInstr.h **** 
 306:Drivers/CMSIS/Include/core_cmInstr.h **** 
 307:Drivers/CMSIS/Include/core_cmInstr.h **** #elif defined ( __GNUC__ ) /*------------------ GNU Compiler ---------------------*/
 308:Drivers/CMSIS/Include/core_cmInstr.h **** /* GNU gcc specific functions */
 309:Drivers/CMSIS/Include/core_cmInstr.h **** 
 310:Drivers/CMSIS/Include/core_cmInstr.h **** /* Define macros for porting to both thumb1 and thumb2.
 311:Drivers/CMSIS/Include/core_cmInstr.h ****  * For thumb1, use low register (r0-r7), specified by constrant "l"
 312:Drivers/CMSIS/Include/core_cmInstr.h ****  * Otherwise, use general registers, specified by constrant "r" */
 313:Drivers/CMSIS/Include/core_cmInstr.h **** #if defined (__thumb__) && !defined (__thumb2__)
 314:Drivers/CMSIS/Include/core_cmInstr.h **** #define __CMSIS_GCC_OUT_REG(r) "=l" (r)
 315:Drivers/CMSIS/Include/core_cmInstr.h **** #define __CMSIS_GCC_USE_REG(r) "l" (r)
 316:Drivers/CMSIS/Include/core_cmInstr.h **** #else
 317:Drivers/CMSIS/Include/core_cmInstr.h **** #define __CMSIS_GCC_OUT_REG(r) "=r" (r)
 318:Drivers/CMSIS/Include/core_cmInstr.h **** #define __CMSIS_GCC_USE_REG(r) "r" (r)
 319:Drivers/CMSIS/Include/core_cmInstr.h **** #endif
 320:Drivers/CMSIS/Include/core_cmInstr.h **** 
 321:Drivers/CMSIS/Include/core_cmInstr.h **** /** \brief  No Operation
 322:Drivers/CMSIS/Include/core_cmInstr.h **** 
 323:Drivers/CMSIS/Include/core_cmInstr.h ****     No Operation does nothing. This instruction can be used for code alignment purposes.
 324:Drivers/CMSIS/Include/core_cmInstr.h ****  */
 325:Drivers/CMSIS/Include/core_cmInstr.h **** __attribute__( ( always_inline ) ) __STATIC_INLINE void __NOP(void)
 326:Drivers/CMSIS/Include/core_cmInstr.h **** {
 327:Drivers/CMSIS/Include/core_cmInstr.h ****   __ASM volatile ("nop");
 328:Drivers/CMSIS/Include/core_cmInstr.h **** }
 329:Drivers/CMSIS/Include/core_cmInstr.h **** 
 330:Drivers/CMSIS/Include/core_cmInstr.h **** 
ARM GAS  /tmp/ccwmM6Ug.s 			page 48


 331:Drivers/CMSIS/Include/core_cmInstr.h **** /** \brief  Wait For Interrupt
 332:Drivers/CMSIS/Include/core_cmInstr.h **** 
 333:Drivers/CMSIS/Include/core_cmInstr.h ****     Wait For Interrupt is a hint instruction that suspends execution
 334:Drivers/CMSIS/Include/core_cmInstr.h ****     until one of a number of events occurs.
 335:Drivers/CMSIS/Include/core_cmInstr.h ****  */
 336:Drivers/CMSIS/Include/core_cmInstr.h **** __attribute__( ( always_inline ) ) __STATIC_INLINE void __WFI(void)
 337:Drivers/CMSIS/Include/core_cmInstr.h **** {
 338:Drivers/CMSIS/Include/core_cmInstr.h ****   __ASM volatile ("wfi");
 339:Drivers/CMSIS/Include/core_cmInstr.h **** }
 340:Drivers/CMSIS/Include/core_cmInstr.h **** 
 341:Drivers/CMSIS/Include/core_cmInstr.h **** 
 342:Drivers/CMSIS/Include/core_cmInstr.h **** /** \brief  Wait For Event
 343:Drivers/CMSIS/Include/core_cmInstr.h **** 
 344:Drivers/CMSIS/Include/core_cmInstr.h ****     Wait For Event is a hint instruction that permits the processor to enter
 345:Drivers/CMSIS/Include/core_cmInstr.h ****     a low-power state until one of a number of events occurs.
 346:Drivers/CMSIS/Include/core_cmInstr.h ****  */
 347:Drivers/CMSIS/Include/core_cmInstr.h **** __attribute__( ( always_inline ) ) __STATIC_INLINE void __WFE(void)
 348:Drivers/CMSIS/Include/core_cmInstr.h **** {
 349:Drivers/CMSIS/Include/core_cmInstr.h ****   __ASM volatile ("wfe");
 350:Drivers/CMSIS/Include/core_cmInstr.h **** }
 351:Drivers/CMSIS/Include/core_cmInstr.h **** 
 352:Drivers/CMSIS/Include/core_cmInstr.h **** 
 353:Drivers/CMSIS/Include/core_cmInstr.h **** /** \brief  Send Event
 354:Drivers/CMSIS/Include/core_cmInstr.h **** 
 355:Drivers/CMSIS/Include/core_cmInstr.h ****     Send Event is a hint instruction. It causes an event to be signaled to the CPU.
 356:Drivers/CMSIS/Include/core_cmInstr.h ****  */
 357:Drivers/CMSIS/Include/core_cmInstr.h **** __attribute__( ( always_inline ) ) __STATIC_INLINE void __SEV(void)
 358:Drivers/CMSIS/Include/core_cmInstr.h **** {
 359:Drivers/CMSIS/Include/core_cmInstr.h ****   __ASM volatile ("sev");
 360:Drivers/CMSIS/Include/core_cmInstr.h **** }
 361:Drivers/CMSIS/Include/core_cmInstr.h **** 
 362:Drivers/CMSIS/Include/core_cmInstr.h **** 
 363:Drivers/CMSIS/Include/core_cmInstr.h **** /** \brief  Instruction Synchronization Barrier
 364:Drivers/CMSIS/Include/core_cmInstr.h **** 
 365:Drivers/CMSIS/Include/core_cmInstr.h ****     Instruction Synchronization Barrier flushes the pipeline in the processor,
 366:Drivers/CMSIS/Include/core_cmInstr.h ****     so that all instructions following the ISB are fetched from cache or
 367:Drivers/CMSIS/Include/core_cmInstr.h ****     memory, after the instruction has been completed.
 368:Drivers/CMSIS/Include/core_cmInstr.h ****  */
 369:Drivers/CMSIS/Include/core_cmInstr.h **** __attribute__( ( always_inline ) ) __STATIC_INLINE void __ISB(void)
 370:Drivers/CMSIS/Include/core_cmInstr.h **** {
 371:Drivers/CMSIS/Include/core_cmInstr.h ****   __ASM volatile ("isb");
 372:Drivers/CMSIS/Include/core_cmInstr.h **** }
 373:Drivers/CMSIS/Include/core_cmInstr.h **** 
 374:Drivers/CMSIS/Include/core_cmInstr.h **** 
 375:Drivers/CMSIS/Include/core_cmInstr.h **** /** \brief  Data Synchronization Barrier
 376:Drivers/CMSIS/Include/core_cmInstr.h **** 
 377:Drivers/CMSIS/Include/core_cmInstr.h ****     This function acts as a special kind of Data Memory Barrier.
 378:Drivers/CMSIS/Include/core_cmInstr.h ****     It completes when all explicit memory accesses before this instruction complete.
 379:Drivers/CMSIS/Include/core_cmInstr.h ****  */
 380:Drivers/CMSIS/Include/core_cmInstr.h **** __attribute__( ( always_inline ) ) __STATIC_INLINE void __DSB(void)
 381:Drivers/CMSIS/Include/core_cmInstr.h **** {
 382:Drivers/CMSIS/Include/core_cmInstr.h ****   __ASM volatile ("dsb");
 383:Drivers/CMSIS/Include/core_cmInstr.h **** }
 384:Drivers/CMSIS/Include/core_cmInstr.h **** 
 385:Drivers/CMSIS/Include/core_cmInstr.h **** 
 386:Drivers/CMSIS/Include/core_cmInstr.h **** /** \brief  Data Memory Barrier
 387:Drivers/CMSIS/Include/core_cmInstr.h **** 
ARM GAS  /tmp/ccwmM6Ug.s 			page 49


 388:Drivers/CMSIS/Include/core_cmInstr.h ****     This function ensures the apparent order of the explicit memory operations before
 389:Drivers/CMSIS/Include/core_cmInstr.h ****     and after the instruction, without ensuring their completion.
 390:Drivers/CMSIS/Include/core_cmInstr.h ****  */
 391:Drivers/CMSIS/Include/core_cmInstr.h **** __attribute__( ( always_inline ) ) __STATIC_INLINE void __DMB(void)
 392:Drivers/CMSIS/Include/core_cmInstr.h **** {
 393:Drivers/CMSIS/Include/core_cmInstr.h ****   __ASM volatile ("dmb");
 394:Drivers/CMSIS/Include/core_cmInstr.h **** }
 395:Drivers/CMSIS/Include/core_cmInstr.h **** 
 396:Drivers/CMSIS/Include/core_cmInstr.h **** 
 397:Drivers/CMSIS/Include/core_cmInstr.h **** /** \brief  Reverse byte order (32 bit)
 398:Drivers/CMSIS/Include/core_cmInstr.h **** 
 399:Drivers/CMSIS/Include/core_cmInstr.h ****     This function reverses the byte order in integer value.
 400:Drivers/CMSIS/Include/core_cmInstr.h **** 
 401:Drivers/CMSIS/Include/core_cmInstr.h ****     \param [in]    value  Value to reverse
 402:Drivers/CMSIS/Include/core_cmInstr.h ****     \return               Reversed value
 403:Drivers/CMSIS/Include/core_cmInstr.h ****  */
 404:Drivers/CMSIS/Include/core_cmInstr.h **** __attribute__( ( always_inline ) ) __STATIC_INLINE uint32_t __REV(uint32_t value)
 405:Drivers/CMSIS/Include/core_cmInstr.h **** {
 406:Drivers/CMSIS/Include/core_cmInstr.h **** #if (__GNUC__ > 4) || (__GNUC__ == 4 && __GNUC_MINOR__ >= 5)
 407:Drivers/CMSIS/Include/core_cmInstr.h ****   return __builtin_bswap32(value);
 408:Drivers/CMSIS/Include/core_cmInstr.h **** #else
 409:Drivers/CMSIS/Include/core_cmInstr.h ****   uint32_t result;
 410:Drivers/CMSIS/Include/core_cmInstr.h **** 
 411:Drivers/CMSIS/Include/core_cmInstr.h ****   __ASM volatile ("rev %0, %1" : __CMSIS_GCC_OUT_REG (result) : __CMSIS_GCC_USE_REG (value) );
 412:Drivers/CMSIS/Include/core_cmInstr.h ****   return(result);
 413:Drivers/CMSIS/Include/core_cmInstr.h **** #endif
 414:Drivers/CMSIS/Include/core_cmInstr.h **** }
 415:Drivers/CMSIS/Include/core_cmInstr.h **** 
 416:Drivers/CMSIS/Include/core_cmInstr.h **** 
 417:Drivers/CMSIS/Include/core_cmInstr.h **** /** \brief  Reverse byte order (16 bit)
 418:Drivers/CMSIS/Include/core_cmInstr.h **** 
 419:Drivers/CMSIS/Include/core_cmInstr.h ****     This function reverses the byte order in two unsigned short values.
 420:Drivers/CMSIS/Include/core_cmInstr.h **** 
 421:Drivers/CMSIS/Include/core_cmInstr.h ****     \param [in]    value  Value to reverse
 422:Drivers/CMSIS/Include/core_cmInstr.h ****     \return               Reversed value
 423:Drivers/CMSIS/Include/core_cmInstr.h ****  */
 424:Drivers/CMSIS/Include/core_cmInstr.h **** __attribute__( ( always_inline ) ) __STATIC_INLINE uint32_t __REV16(uint32_t value)
 425:Drivers/CMSIS/Include/core_cmInstr.h **** {
 426:Drivers/CMSIS/Include/core_cmInstr.h ****   uint32_t result;
 427:Drivers/CMSIS/Include/core_cmInstr.h **** 
 428:Drivers/CMSIS/Include/core_cmInstr.h ****   __ASM volatile ("rev16 %0, %1" : __CMSIS_GCC_OUT_REG (result) : __CMSIS_GCC_USE_REG (value) );
 429:Drivers/CMSIS/Include/core_cmInstr.h ****   return(result);
 430:Drivers/CMSIS/Include/core_cmInstr.h **** }
 431:Drivers/CMSIS/Include/core_cmInstr.h **** 
 432:Drivers/CMSIS/Include/core_cmInstr.h **** 
 433:Drivers/CMSIS/Include/core_cmInstr.h **** /** \brief  Reverse byte order in signed short value
 434:Drivers/CMSIS/Include/core_cmInstr.h **** 
 435:Drivers/CMSIS/Include/core_cmInstr.h ****     This function reverses the byte order in a signed short value with sign extension to integer.
 436:Drivers/CMSIS/Include/core_cmInstr.h **** 
 437:Drivers/CMSIS/Include/core_cmInstr.h ****     \param [in]    value  Value to reverse
 438:Drivers/CMSIS/Include/core_cmInstr.h ****     \return               Reversed value
 439:Drivers/CMSIS/Include/core_cmInstr.h ****  */
 440:Drivers/CMSIS/Include/core_cmInstr.h **** __attribute__( ( always_inline ) ) __STATIC_INLINE int32_t __REVSH(int32_t value)
 441:Drivers/CMSIS/Include/core_cmInstr.h **** {
 442:Drivers/CMSIS/Include/core_cmInstr.h **** #if (__GNUC__ > 4) || (__GNUC__ == 4 && __GNUC_MINOR__ >= 8)
 443:Drivers/CMSIS/Include/core_cmInstr.h ****   return (short)__builtin_bswap16(value);
 444:Drivers/CMSIS/Include/core_cmInstr.h **** #else
ARM GAS  /tmp/ccwmM6Ug.s 			page 50


 445:Drivers/CMSIS/Include/core_cmInstr.h ****   uint32_t result;
 446:Drivers/CMSIS/Include/core_cmInstr.h **** 
 447:Drivers/CMSIS/Include/core_cmInstr.h ****   __ASM volatile ("revsh %0, %1" : __CMSIS_GCC_OUT_REG (result) : __CMSIS_GCC_USE_REG (value) );
 448:Drivers/CMSIS/Include/core_cmInstr.h ****   return(result);
 449:Drivers/CMSIS/Include/core_cmInstr.h **** #endif
 450:Drivers/CMSIS/Include/core_cmInstr.h **** }
 451:Drivers/CMSIS/Include/core_cmInstr.h **** 
 452:Drivers/CMSIS/Include/core_cmInstr.h **** 
 453:Drivers/CMSIS/Include/core_cmInstr.h **** /** \brief  Rotate Right in unsigned value (32 bit)
 454:Drivers/CMSIS/Include/core_cmInstr.h **** 
 455:Drivers/CMSIS/Include/core_cmInstr.h ****     This function Rotate Right (immediate) provides the value of the contents of a register rotated
 456:Drivers/CMSIS/Include/core_cmInstr.h **** 
 457:Drivers/CMSIS/Include/core_cmInstr.h ****     \param [in]    value  Value to rotate
 458:Drivers/CMSIS/Include/core_cmInstr.h ****     \param [in]    value  Number of Bits to rotate
 459:Drivers/CMSIS/Include/core_cmInstr.h ****     \return               Rotated value
 460:Drivers/CMSIS/Include/core_cmInstr.h ****  */
 461:Drivers/CMSIS/Include/core_cmInstr.h **** __attribute__( ( always_inline ) ) __STATIC_INLINE uint32_t __ROR(uint32_t op1, uint32_t op2)
 462:Drivers/CMSIS/Include/core_cmInstr.h **** {
 463:Drivers/CMSIS/Include/core_cmInstr.h ****   return (op1 >> op2) | (op1 << (32 - op2)); 
 464:Drivers/CMSIS/Include/core_cmInstr.h **** }
 465:Drivers/CMSIS/Include/core_cmInstr.h **** 
 466:Drivers/CMSIS/Include/core_cmInstr.h **** 
 467:Drivers/CMSIS/Include/core_cmInstr.h **** /** \brief  Breakpoint
 468:Drivers/CMSIS/Include/core_cmInstr.h **** 
 469:Drivers/CMSIS/Include/core_cmInstr.h ****     This function causes the processor to enter Debug state.
 470:Drivers/CMSIS/Include/core_cmInstr.h ****     Debug tools can use this to investigate system state when the instruction at a particular addre
 471:Drivers/CMSIS/Include/core_cmInstr.h **** 
 472:Drivers/CMSIS/Include/core_cmInstr.h ****     \param [in]    value  is ignored by the processor.
 473:Drivers/CMSIS/Include/core_cmInstr.h ****                    If required, a debugger can use it to store additional information about the bre
 474:Drivers/CMSIS/Include/core_cmInstr.h ****  */
 475:Drivers/CMSIS/Include/core_cmInstr.h **** #define __BKPT(value)                       __ASM volatile ("bkpt "#value)
 476:Drivers/CMSIS/Include/core_cmInstr.h **** 
 477:Drivers/CMSIS/Include/core_cmInstr.h **** 
 478:Drivers/CMSIS/Include/core_cmInstr.h **** #if       (__CORTEX_M >= 0x03)
 479:Drivers/CMSIS/Include/core_cmInstr.h **** 
 480:Drivers/CMSIS/Include/core_cmInstr.h **** /** \brief  Reverse bit order of value
 481:Drivers/CMSIS/Include/core_cmInstr.h **** 
 482:Drivers/CMSIS/Include/core_cmInstr.h ****     This function reverses the bit order of the given value.
 483:Drivers/CMSIS/Include/core_cmInstr.h **** 
 484:Drivers/CMSIS/Include/core_cmInstr.h ****     \param [in]    value  Value to reverse
 485:Drivers/CMSIS/Include/core_cmInstr.h ****     \return               Reversed value
 486:Drivers/CMSIS/Include/core_cmInstr.h ****  */
 487:Drivers/CMSIS/Include/core_cmInstr.h **** __attribute__( ( always_inline ) ) __STATIC_INLINE uint32_t __RBIT(uint32_t value)
 488:Drivers/CMSIS/Include/core_cmInstr.h **** {
 489:Drivers/CMSIS/Include/core_cmInstr.h ****   uint32_t result;
 490:Drivers/CMSIS/Include/core_cmInstr.h **** 
 491:Drivers/CMSIS/Include/core_cmInstr.h ****    __ASM volatile ("rbit %0, %1" : "=r" (result) : "r" (value) );
 1320              		.loc 2 491 0
 1321 001a FB68     		ldr	r3, [r7, #12]	@ tmp149, value
 1322              	@ 491 "Drivers/CMSIS/Include/core_cmInstr.h" 1
 1323 001c 93FAA3F4 		rbit r4, r3	@ result, tmp149
 1324              	@ 0 "" 2
 1325              		.thumb
 1326 0020 BC60     		str	r4, [r7, #8]	@ result, result
 492:Drivers/CMSIS/Include/core_cmInstr.h ****    return(result);
 1327              		.loc 2 492 0
 1328 0022 BB68     		ldr	r3, [r7, #8]	@ D.6642, result
ARM GAS  /tmp/ccwmM6Ug.s 			page 51


 1329 0024 7B60     		str	r3, [r7, #4]	@ D.6348, value
 1330              	.LBE23:
 1331              	.LBE22:
 1332              	.LBE21:
 1333              	.LBB24:
 1334              	.LBB25:
 1335              	.LBB26:
 493:Drivers/CMSIS/Include/core_cmInstr.h **** }
 494:Drivers/CMSIS/Include/core_cmInstr.h **** 
 495:Drivers/CMSIS/Include/core_cmInstr.h **** 
 496:Drivers/CMSIS/Include/core_cmInstr.h **** /** \brief  LDR Exclusive (8 bit)
 497:Drivers/CMSIS/Include/core_cmInstr.h **** 
 498:Drivers/CMSIS/Include/core_cmInstr.h ****     This function performs a exclusive LDR command for 8 bit value.
 499:Drivers/CMSIS/Include/core_cmInstr.h **** 
 500:Drivers/CMSIS/Include/core_cmInstr.h ****     \param [in]    ptr  Pointer to data
 501:Drivers/CMSIS/Include/core_cmInstr.h ****     \return             value of type uint8_t at (*ptr)
 502:Drivers/CMSIS/Include/core_cmInstr.h ****  */
 503:Drivers/CMSIS/Include/core_cmInstr.h **** __attribute__( ( always_inline ) ) __STATIC_INLINE uint8_t __LDREXB(volatile uint8_t *addr)
 504:Drivers/CMSIS/Include/core_cmInstr.h **** {
 505:Drivers/CMSIS/Include/core_cmInstr.h ****     uint32_t result;
 506:Drivers/CMSIS/Include/core_cmInstr.h **** 
 507:Drivers/CMSIS/Include/core_cmInstr.h **** #if (__GNUC__ > 4) || (__GNUC__ == 4 && __GNUC_MINOR__ >= 8)
 508:Drivers/CMSIS/Include/core_cmInstr.h ****    __ASM volatile ("ldrexb %0, %1" : "=r" (result) : "Q" (*addr) );
 509:Drivers/CMSIS/Include/core_cmInstr.h **** #else
 510:Drivers/CMSIS/Include/core_cmInstr.h ****     /* Prior to GCC 4.8, "Q" will be expanded to [rx, #0] which is not
 511:Drivers/CMSIS/Include/core_cmInstr.h ****        accepted by assembler. So has to use following less efficient pattern.
 512:Drivers/CMSIS/Include/core_cmInstr.h ****     */
 513:Drivers/CMSIS/Include/core_cmInstr.h ****    __ASM volatile ("ldrexb %0, [%1]" : "=r" (result) : "r" (addr) : "memory" );
 514:Drivers/CMSIS/Include/core_cmInstr.h **** #endif
 515:Drivers/CMSIS/Include/core_cmInstr.h ****    return(result);
 516:Drivers/CMSIS/Include/core_cmInstr.h **** }
 517:Drivers/CMSIS/Include/core_cmInstr.h **** 
 518:Drivers/CMSIS/Include/core_cmInstr.h **** 
 519:Drivers/CMSIS/Include/core_cmInstr.h **** /** \brief  LDR Exclusive (16 bit)
 520:Drivers/CMSIS/Include/core_cmInstr.h **** 
 521:Drivers/CMSIS/Include/core_cmInstr.h ****     This function performs a exclusive LDR command for 16 bit values.
 522:Drivers/CMSIS/Include/core_cmInstr.h **** 
 523:Drivers/CMSIS/Include/core_cmInstr.h ****     \param [in]    ptr  Pointer to data
 524:Drivers/CMSIS/Include/core_cmInstr.h ****     \return        value of type uint16_t at (*ptr)
 525:Drivers/CMSIS/Include/core_cmInstr.h ****  */
 526:Drivers/CMSIS/Include/core_cmInstr.h **** __attribute__( ( always_inline ) ) __STATIC_INLINE uint16_t __LDREXH(volatile uint16_t *addr)
 527:Drivers/CMSIS/Include/core_cmInstr.h **** {
 528:Drivers/CMSIS/Include/core_cmInstr.h ****     uint32_t result;
 529:Drivers/CMSIS/Include/core_cmInstr.h **** 
 530:Drivers/CMSIS/Include/core_cmInstr.h **** #if (__GNUC__ > 4) || (__GNUC__ == 4 && __GNUC_MINOR__ >= 8)
 531:Drivers/CMSIS/Include/core_cmInstr.h ****    __ASM volatile ("ldrexh %0, %1" : "=r" (result) : "Q" (*addr) );
 532:Drivers/CMSIS/Include/core_cmInstr.h **** #else
 533:Drivers/CMSIS/Include/core_cmInstr.h ****     /* Prior to GCC 4.8, "Q" will be expanded to [rx, #0] which is not
 534:Drivers/CMSIS/Include/core_cmInstr.h ****        accepted by assembler. So has to use following less efficient pattern.
 535:Drivers/CMSIS/Include/core_cmInstr.h ****     */
 536:Drivers/CMSIS/Include/core_cmInstr.h ****    __ASM volatile ("ldrexh %0, [%1]" : "=r" (result) : "r" (addr) : "memory" );
 537:Drivers/CMSIS/Include/core_cmInstr.h **** #endif
 538:Drivers/CMSIS/Include/core_cmInstr.h ****    return(result);
 539:Drivers/CMSIS/Include/core_cmInstr.h **** }
 540:Drivers/CMSIS/Include/core_cmInstr.h **** 
 541:Drivers/CMSIS/Include/core_cmInstr.h **** 
 542:Drivers/CMSIS/Include/core_cmInstr.h **** /** \brief  LDR Exclusive (32 bit)
ARM GAS  /tmp/ccwmM6Ug.s 			page 52


 543:Drivers/CMSIS/Include/core_cmInstr.h **** 
 544:Drivers/CMSIS/Include/core_cmInstr.h ****     This function performs a exclusive LDR command for 32 bit values.
 545:Drivers/CMSIS/Include/core_cmInstr.h **** 
 546:Drivers/CMSIS/Include/core_cmInstr.h ****     \param [in]    ptr  Pointer to data
 547:Drivers/CMSIS/Include/core_cmInstr.h ****     \return        value of type uint32_t at (*ptr)
 548:Drivers/CMSIS/Include/core_cmInstr.h ****  */
 549:Drivers/CMSIS/Include/core_cmInstr.h **** __attribute__( ( always_inline ) ) __STATIC_INLINE uint32_t __LDREXW(volatile uint32_t *addr)
 550:Drivers/CMSIS/Include/core_cmInstr.h **** {
 551:Drivers/CMSIS/Include/core_cmInstr.h ****     uint32_t result;
 552:Drivers/CMSIS/Include/core_cmInstr.h **** 
 553:Drivers/CMSIS/Include/core_cmInstr.h ****    __ASM volatile ("ldrex %0, %1" : "=r" (result) : "Q" (*addr) );
 554:Drivers/CMSIS/Include/core_cmInstr.h ****    return(result);
 555:Drivers/CMSIS/Include/core_cmInstr.h **** }
 556:Drivers/CMSIS/Include/core_cmInstr.h **** 
 557:Drivers/CMSIS/Include/core_cmInstr.h **** 
 558:Drivers/CMSIS/Include/core_cmInstr.h **** /** \brief  STR Exclusive (8 bit)
 559:Drivers/CMSIS/Include/core_cmInstr.h **** 
 560:Drivers/CMSIS/Include/core_cmInstr.h ****     This function performs a exclusive STR command for 8 bit values.
 561:Drivers/CMSIS/Include/core_cmInstr.h **** 
 562:Drivers/CMSIS/Include/core_cmInstr.h ****     \param [in]  value  Value to store
 563:Drivers/CMSIS/Include/core_cmInstr.h ****     \param [in]    ptr  Pointer to location
 564:Drivers/CMSIS/Include/core_cmInstr.h ****     \return          0  Function succeeded
 565:Drivers/CMSIS/Include/core_cmInstr.h ****     \return          1  Function failed
 566:Drivers/CMSIS/Include/core_cmInstr.h ****  */
 567:Drivers/CMSIS/Include/core_cmInstr.h **** __attribute__( ( always_inline ) ) __STATIC_INLINE uint32_t __STREXB(uint8_t value, volatile uint8_
 568:Drivers/CMSIS/Include/core_cmInstr.h **** {
 569:Drivers/CMSIS/Include/core_cmInstr.h ****    uint32_t result;
 570:Drivers/CMSIS/Include/core_cmInstr.h **** 
 571:Drivers/CMSIS/Include/core_cmInstr.h ****    __ASM volatile ("strexb %0, %2, %1" : "=&r" (result), "=Q" (*addr) : "r" (value) );
 572:Drivers/CMSIS/Include/core_cmInstr.h ****    return(result);
 573:Drivers/CMSIS/Include/core_cmInstr.h **** }
 574:Drivers/CMSIS/Include/core_cmInstr.h **** 
 575:Drivers/CMSIS/Include/core_cmInstr.h **** 
 576:Drivers/CMSIS/Include/core_cmInstr.h **** /** \brief  STR Exclusive (16 bit)
 577:Drivers/CMSIS/Include/core_cmInstr.h **** 
 578:Drivers/CMSIS/Include/core_cmInstr.h ****     This function performs a exclusive STR command for 16 bit values.
 579:Drivers/CMSIS/Include/core_cmInstr.h **** 
 580:Drivers/CMSIS/Include/core_cmInstr.h ****     \param [in]  value  Value to store
 581:Drivers/CMSIS/Include/core_cmInstr.h ****     \param [in]    ptr  Pointer to location
 582:Drivers/CMSIS/Include/core_cmInstr.h ****     \return          0  Function succeeded
 583:Drivers/CMSIS/Include/core_cmInstr.h ****     \return          1  Function failed
 584:Drivers/CMSIS/Include/core_cmInstr.h ****  */
 585:Drivers/CMSIS/Include/core_cmInstr.h **** __attribute__( ( always_inline ) ) __STATIC_INLINE uint32_t __STREXH(uint16_t value, volatile uint1
 586:Drivers/CMSIS/Include/core_cmInstr.h **** {
 587:Drivers/CMSIS/Include/core_cmInstr.h ****    uint32_t result;
 588:Drivers/CMSIS/Include/core_cmInstr.h **** 
 589:Drivers/CMSIS/Include/core_cmInstr.h ****    __ASM volatile ("strexh %0, %2, %1" : "=&r" (result), "=Q" (*addr) : "r" (value) );
 590:Drivers/CMSIS/Include/core_cmInstr.h ****    return(result);
 591:Drivers/CMSIS/Include/core_cmInstr.h **** }
 592:Drivers/CMSIS/Include/core_cmInstr.h **** 
 593:Drivers/CMSIS/Include/core_cmInstr.h **** 
 594:Drivers/CMSIS/Include/core_cmInstr.h **** /** \brief  STR Exclusive (32 bit)
 595:Drivers/CMSIS/Include/core_cmInstr.h **** 
 596:Drivers/CMSIS/Include/core_cmInstr.h ****     This function performs a exclusive STR command for 32 bit values.
 597:Drivers/CMSIS/Include/core_cmInstr.h **** 
 598:Drivers/CMSIS/Include/core_cmInstr.h ****     \param [in]  value  Value to store
 599:Drivers/CMSIS/Include/core_cmInstr.h ****     \param [in]    ptr  Pointer to location
ARM GAS  /tmp/ccwmM6Ug.s 			page 53


 600:Drivers/CMSIS/Include/core_cmInstr.h ****     \return          0  Function succeeded
 601:Drivers/CMSIS/Include/core_cmInstr.h ****     \return          1  Function failed
 602:Drivers/CMSIS/Include/core_cmInstr.h ****  */
 603:Drivers/CMSIS/Include/core_cmInstr.h **** __attribute__( ( always_inline ) ) __STATIC_INLINE uint32_t __STREXW(uint32_t value, volatile uint3
 604:Drivers/CMSIS/Include/core_cmInstr.h **** {
 605:Drivers/CMSIS/Include/core_cmInstr.h ****    uint32_t result;
 606:Drivers/CMSIS/Include/core_cmInstr.h **** 
 607:Drivers/CMSIS/Include/core_cmInstr.h ****    __ASM volatile ("strex %0, %2, %1" : "=&r" (result), "=Q" (*addr) : "r" (value) );
 608:Drivers/CMSIS/Include/core_cmInstr.h ****    return(result);
 609:Drivers/CMSIS/Include/core_cmInstr.h **** }
 610:Drivers/CMSIS/Include/core_cmInstr.h **** 
 611:Drivers/CMSIS/Include/core_cmInstr.h **** 
 612:Drivers/CMSIS/Include/core_cmInstr.h **** /** \brief  Remove the exclusive lock
 613:Drivers/CMSIS/Include/core_cmInstr.h **** 
 614:Drivers/CMSIS/Include/core_cmInstr.h ****     This function removes the exclusive lock which is created by LDREX.
 615:Drivers/CMSIS/Include/core_cmInstr.h **** 
 616:Drivers/CMSIS/Include/core_cmInstr.h ****  */
 617:Drivers/CMSIS/Include/core_cmInstr.h **** __attribute__( ( always_inline ) ) __STATIC_INLINE void __CLREX(void)
 618:Drivers/CMSIS/Include/core_cmInstr.h **** {
 619:Drivers/CMSIS/Include/core_cmInstr.h ****   __ASM volatile ("clrex" ::: "memory");
 620:Drivers/CMSIS/Include/core_cmInstr.h **** }
 621:Drivers/CMSIS/Include/core_cmInstr.h **** 
 622:Drivers/CMSIS/Include/core_cmInstr.h **** 
 623:Drivers/CMSIS/Include/core_cmInstr.h **** /** \brief  Signed Saturate
 624:Drivers/CMSIS/Include/core_cmInstr.h **** 
 625:Drivers/CMSIS/Include/core_cmInstr.h ****     This function saturates a signed value.
 626:Drivers/CMSIS/Include/core_cmInstr.h **** 
 627:Drivers/CMSIS/Include/core_cmInstr.h ****     \param [in]  value  Value to be saturated
 628:Drivers/CMSIS/Include/core_cmInstr.h ****     \param [in]    sat  Bit position to saturate to (1..32)
 629:Drivers/CMSIS/Include/core_cmInstr.h ****     \return             Saturated value
 630:Drivers/CMSIS/Include/core_cmInstr.h ****  */
 631:Drivers/CMSIS/Include/core_cmInstr.h **** #define __SSAT(ARG1,ARG2) \
 632:Drivers/CMSIS/Include/core_cmInstr.h **** ({                          \
 633:Drivers/CMSIS/Include/core_cmInstr.h ****   uint32_t __RES, __ARG1 = (ARG1); \
 634:Drivers/CMSIS/Include/core_cmInstr.h ****   __ASM ("ssat %0, %1, %2" : "=r" (__RES) :  "I" (ARG2), "r" (__ARG1) ); \
 635:Drivers/CMSIS/Include/core_cmInstr.h ****   __RES; \
 636:Drivers/CMSIS/Include/core_cmInstr.h ****  })
 637:Drivers/CMSIS/Include/core_cmInstr.h **** 
 638:Drivers/CMSIS/Include/core_cmInstr.h **** 
 639:Drivers/CMSIS/Include/core_cmInstr.h **** /** \brief  Unsigned Saturate
 640:Drivers/CMSIS/Include/core_cmInstr.h **** 
 641:Drivers/CMSIS/Include/core_cmInstr.h ****     This function saturates an unsigned value.
 642:Drivers/CMSIS/Include/core_cmInstr.h **** 
 643:Drivers/CMSIS/Include/core_cmInstr.h ****     \param [in]  value  Value to be saturated
 644:Drivers/CMSIS/Include/core_cmInstr.h ****     \param [in]    sat  Bit position to saturate to (0..31)
 645:Drivers/CMSIS/Include/core_cmInstr.h ****     \return             Saturated value
 646:Drivers/CMSIS/Include/core_cmInstr.h ****  */
 647:Drivers/CMSIS/Include/core_cmInstr.h **** #define __USAT(ARG1,ARG2) \
 648:Drivers/CMSIS/Include/core_cmInstr.h **** ({                          \
 649:Drivers/CMSIS/Include/core_cmInstr.h ****   uint32_t __RES, __ARG1 = (ARG1); \
 650:Drivers/CMSIS/Include/core_cmInstr.h ****   __ASM ("usat %0, %1, %2" : "=r" (__RES) :  "I" (ARG2), "r" (__ARG1) ); \
 651:Drivers/CMSIS/Include/core_cmInstr.h ****   __RES; \
 652:Drivers/CMSIS/Include/core_cmInstr.h ****  })
 653:Drivers/CMSIS/Include/core_cmInstr.h **** 
 654:Drivers/CMSIS/Include/core_cmInstr.h **** 
 655:Drivers/CMSIS/Include/core_cmInstr.h **** /** \brief  Count leading zeros
 656:Drivers/CMSIS/Include/core_cmInstr.h **** 
ARM GAS  /tmp/ccwmM6Ug.s 			page 54


 657:Drivers/CMSIS/Include/core_cmInstr.h ****     This function counts the number of leading zeros of a data value.
 658:Drivers/CMSIS/Include/core_cmInstr.h **** 
 659:Drivers/CMSIS/Include/core_cmInstr.h ****     \param [in]  value  Value to count the leading zeros
 660:Drivers/CMSIS/Include/core_cmInstr.h ****     \return             number of leading zeros in value
 661:Drivers/CMSIS/Include/core_cmInstr.h ****  */
 662:Drivers/CMSIS/Include/core_cmInstr.h **** __attribute__( ( always_inline ) ) __STATIC_INLINE uint8_t __CLZ(uint32_t value)
 663:Drivers/CMSIS/Include/core_cmInstr.h **** {
 664:Drivers/CMSIS/Include/core_cmInstr.h ****    uint32_t result;
 665:Drivers/CMSIS/Include/core_cmInstr.h **** 
 666:Drivers/CMSIS/Include/core_cmInstr.h ****   __ASM volatile ("clz %0, %1" : "=r" (result) : "r" (value) );
 1336              		.loc 2 666 0
 1337 0026 7B68     		ldr	r3, [r7, #4]	@ tmp151, value
 1338              	@ 666 "Drivers/CMSIS/Include/core_cmInstr.h" 1
 1339 0028 B3FA83F4 		clz r4, r3	@ result, tmp151
 1340              	@ 0 "" 2
 1341              		.thumb
 1342 002c 3C60     		str	r4, [r7, #0]	@ result, result
 667:Drivers/CMSIS/Include/core_cmInstr.h ****   return(result);
 1343              		.loc 2 667 0
 1344 002e 3B68     		ldr	r3, [r7, #0]	@ tmp152, result
 1345 0030 DBB2     		uxtb	r3, r3	@ D.6647, tmp152
 1346              	.LBE26:
 1347              	.LBE25:
 1348              	.LBE24:
 1349              		.loc 1 1027 0
 1350 0032 22FA03F3 		lsr	r3, r2, r3	@ D.6351, D.6347, D.6350
 1351 0036 DBB2     		uxtb	r3, r3	@ D.6344, D.6351
1028:Drivers/STM32L1xx_HAL_Driver/stm32l1xx_hal_flash_ex.cpp **** }
 1352              		.loc 1 1028 0
 1353 0038 1846     		mov	r0, r3	@, <retval>
 1354 003a 07F11007 		add	r7, r7, #16	@,,
 1355 003e BD46     		mov	sp, r7
 1356 0040 90BC     		pop	{r4, r7}
 1357 0042 7047     		bx	lr
 1358              		.cfi_endproc
 1359              	.LFE70:
 1360              		.size	_ZL16FLASH_OB_GetUserv, .-_ZL16FLASH_OB_GetUserv
 1361              		.section	.text._ZL15FLASH_OB_GetRDPv,"ax",%progbits
 1362              		.align	2
 1363              		.thumb
 1364              		.thumb_func
 1365              		.type	_ZL15FLASH_OB_GetRDPv, %function
 1366              	_ZL15FLASH_OB_GetRDPv:
 1367              	.LFB71:
1029:Drivers/STM32L1xx_HAL_Driver/stm32l1xx_hal_flash_ex.cpp **** 
1030:Drivers/STM32L1xx_HAL_Driver/stm32l1xx_hal_flash_ex.cpp **** /**
1031:Drivers/STM32L1xx_HAL_Driver/stm32l1xx_hal_flash_ex.cpp ****   * @brief  Checks whether the FLASH Read out Protection Status is set or not.
1032:Drivers/STM32L1xx_HAL_Driver/stm32l1xx_hal_flash_ex.cpp ****   * @retval FLASH ReadOut Protection
1033:Drivers/STM32L1xx_HAL_Driver/stm32l1xx_hal_flash_ex.cpp ****   */
1034:Drivers/STM32L1xx_HAL_Driver/stm32l1xx_hal_flash_ex.cpp **** static uint8_t FLASH_OB_GetRDP(void)
1035:Drivers/STM32L1xx_HAL_Driver/stm32l1xx_hal_flash_ex.cpp **** {
 1368              		.loc 1 1035 0
 1369              		.cfi_startproc
 1370              		@ args = 0, pretend = 0, frame = 0
 1371              		@ frame_needed = 1, uses_anonymous_args = 0
 1372              		@ link register save eliminated.
 1373 0000 80B4     		push	{r7}	@
ARM GAS  /tmp/ccwmM6Ug.s 			page 55


 1374              	.LCFI40:
 1375              		.cfi_def_cfa_offset 4
 1376              		.cfi_offset 7, -4
 1377 0002 00AF     		add	r7, sp, #0	@,,
 1378              	.LCFI41:
 1379              		.cfi_def_cfa_register 7
1036:Drivers/STM32L1xx_HAL_Driver/stm32l1xx_hal_flash_ex.cpp ****   return (uint8_t)(FLASH->OBR & FLASH_OBR_RDPRT);
 1380              		.loc 1 1036 0
 1381 0004 4FF47053 		mov	r3, #15360	@ D.6341,
 1382 0008 C4F20203 		movt	r3, 16386	@ D.6341,
 1383 000c DB69     		ldr	r3, [r3, #28]	@ D.6342, D.6341_1->OBR
 1384 000e DBB2     		uxtb	r3, r3	@ D.6340, D.6342
1037:Drivers/STM32L1xx_HAL_Driver/stm32l1xx_hal_flash_ex.cpp **** }
 1385              		.loc 1 1037 0
 1386 0010 1846     		mov	r0, r3	@, <retval>
 1387 0012 BD46     		mov	sp, r7
 1388 0014 80BC     		pop	{r7}
 1389 0016 7047     		bx	lr
 1390              		.cfi_endproc
 1391              	.LFE71:
 1392              		.size	_ZL15FLASH_OB_GetRDPv, .-_ZL15FLASH_OB_GetRDPv
 1393              		.section	.text._ZL15FLASH_OB_GetBORv,"ax",%progbits
 1394              		.align	2
 1395              		.thumb
 1396              		.thumb_func
 1397              		.type	_ZL15FLASH_OB_GetBORv, %function
 1398              	_ZL15FLASH_OB_GetBORv:
 1399              	.LFB72:
1038:Drivers/STM32L1xx_HAL_Driver/stm32l1xx_hal_flash_ex.cpp **** 
1039:Drivers/STM32L1xx_HAL_Driver/stm32l1xx_hal_flash_ex.cpp **** /**
1040:Drivers/STM32L1xx_HAL_Driver/stm32l1xx_hal_flash_ex.cpp ****   * @brief  Returns the FLASH BOR level.
1041:Drivers/STM32L1xx_HAL_Driver/stm32l1xx_hal_flash_ex.cpp ****   * @retval The FLASH User Option Bytes.
1042:Drivers/STM32L1xx_HAL_Driver/stm32l1xx_hal_flash_ex.cpp ****   */
1043:Drivers/STM32L1xx_HAL_Driver/stm32l1xx_hal_flash_ex.cpp **** static uint8_t FLASH_OB_GetBOR(void)
1044:Drivers/STM32L1xx_HAL_Driver/stm32l1xx_hal_flash_ex.cpp **** {
 1400              		.loc 1 1044 0
 1401              		.cfi_startproc
 1402              		@ args = 0, pretend = 0, frame = 16
 1403              		@ frame_needed = 1, uses_anonymous_args = 0
 1404              		@ link register save eliminated.
 1405 0000 90B4     		push	{r4, r7}	@
 1406              	.LCFI42:
 1407              		.cfi_def_cfa_offset 8
 1408              		.cfi_offset 4, -8
 1409              		.cfi_offset 7, -4
 1410 0002 84B0     		sub	sp, sp, #16	@,,
 1411              	.LCFI43:
 1412              		.cfi_def_cfa_offset 24
 1413 0004 00AF     		add	r7, sp, #0	@,,
 1414              	.LCFI44:
 1415              		.cfi_def_cfa_register 7
1045:Drivers/STM32L1xx_HAL_Driver/stm32l1xx_hal_flash_ex.cpp ****   /* Return the BOR level */
1046:Drivers/STM32L1xx_HAL_Driver/stm32l1xx_hal_flash_ex.cpp ****   return (uint8_t)((FLASH->OBR & (uint32_t)FLASH_OBR_BOR_LEV) >> POSITION_VAL(FLASH_OBR_BOR_LEV));
 1416              		.loc 1 1046 0
 1417 0006 4FF47053 		mov	r3, #15360	@ D.6328,
 1418 000a C4F20203 		movt	r3, 16386	@ D.6328,
 1419 000e DB69     		ldr	r3, [r3, #28]	@ D.6329, D.6328_1->OBR
ARM GAS  /tmp/ccwmM6Ug.s 			page 56


 1420 0010 03F47022 		and	r2, r3, #983040	@ D.6330, D.6329,
 1421 0014 4FF47023 		mov	r3, #983040	@ tmp147,
 1422 0018 FB60     		str	r3, [r7, #12]	@ tmp147, value
 1423              	.LBB27:
 1424              	.LBB28:
 1425              	.LBB29:
 491:Drivers/CMSIS/Include/core_cmInstr.h ****    __ASM volatile ("rbit %0, %1" : "=r" (result) : "r" (value) );
 1426              		.loc 2 491 0
 1427 001a FB68     		ldr	r3, [r7, #12]	@ tmp149, value
 1428              	@ 491 "Drivers/CMSIS/Include/core_cmInstr.h" 1
 1429 001c 93FAA3F4 		rbit r4, r3	@ result, tmp149
 1430              	@ 0 "" 2
 1431              		.thumb
 1432 0020 BC60     		str	r4, [r7, #8]	@ result, result
 492:Drivers/CMSIS/Include/core_cmInstr.h ****    return(result);
 1433              		.loc 2 492 0
 1434 0022 BB68     		ldr	r3, [r7, #8]	@ D.6654, result
 1435 0024 7B60     		str	r3, [r7, #4]	@ D.6331, value
 1436              	.LBE29:
 1437              	.LBE28:
 1438              	.LBE27:
 1439              	.LBB30:
 1440              	.LBB31:
 1441              	.LBB32:
 666:Drivers/CMSIS/Include/core_cmInstr.h ****   __ASM volatile ("clz %0, %1" : "=r" (result) : "r" (value) );
 1442              		.loc 2 666 0
 1443 0026 7B68     		ldr	r3, [r7, #4]	@ tmp151, value
 1444              	@ 666 "Drivers/CMSIS/Include/core_cmInstr.h" 1
 1445 0028 B3FA83F4 		clz r4, r3	@ result, tmp151
 1446              	@ 0 "" 2
 1447              		.thumb
 1448 002c 3C60     		str	r4, [r7, #0]	@ result, result
 1449              		.loc 2 667 0
 1450 002e 3B68     		ldr	r3, [r7, #0]	@ tmp152, result
 1451 0030 DBB2     		uxtb	r3, r3	@ D.6659, tmp152
 1452              	.LBE32:
 1453              	.LBE31:
 1454              	.LBE30:
 1455              		.loc 1 1046 0
 1456 0032 22FA03F3 		lsr	r3, r2, r3	@ D.6334, D.6330, D.6333
 1457 0036 DBB2     		uxtb	r3, r3	@ D.6327, D.6334
1047:Drivers/STM32L1xx_HAL_Driver/stm32l1xx_hal_flash_ex.cpp **** }
 1458              		.loc 1 1047 0
 1459 0038 1846     		mov	r0, r3	@, <retval>
 1460 003a 07F11007 		add	r7, r7, #16	@,,
 1461 003e BD46     		mov	sp, r7
 1462 0040 90BC     		pop	{r4, r7}
 1463 0042 7047     		bx	lr
 1464              		.cfi_endproc
 1465              	.LFE72:
 1466              		.size	_ZL15FLASH_OB_GetBORv, .-_ZL15FLASH_OB_GetBORv
 1467              		.section	.text._ZL18FLASH_OB_WRPConfigP26FLASH_OBProgramInitTypeDef15FunctionalState,"ax",%progbit
 1468              		.align	2
 1469              		.thumb
 1470              		.thumb_func
 1471              		.type	_ZL18FLASH_OB_WRPConfigP26FLASH_OBProgramInitTypeDef15FunctionalState, %function
 1472              	_ZL18FLASH_OB_WRPConfigP26FLASH_OBProgramInitTypeDef15FunctionalState:
ARM GAS  /tmp/ccwmM6Ug.s 			page 57


 1473              	.LFB73:
1048:Drivers/STM32L1xx_HAL_Driver/stm32l1xx_hal_flash_ex.cpp **** 
1049:Drivers/STM32L1xx_HAL_Driver/stm32l1xx_hal_flash_ex.cpp **** /**
1050:Drivers/STM32L1xx_HAL_Driver/stm32l1xx_hal_flash_ex.cpp ****   * @brief  Write protects the desired pages of the first 64KB of the Flash.
1051:Drivers/STM32L1xx_HAL_Driver/stm32l1xx_hal_flash_ex.cpp ****   * @param  pOBInit: pointer to an FLASH_OBInitStruct structure that
1052:Drivers/STM32L1xx_HAL_Driver/stm32l1xx_hal_flash_ex.cpp ****   *         contains WRP parameters.
1053:Drivers/STM32L1xx_HAL_Driver/stm32l1xx_hal_flash_ex.cpp ****   * @param  NewState: new state of the specified FLASH Pages Wtite protection.
1054:Drivers/STM32L1xx_HAL_Driver/stm32l1xx_hal_flash_ex.cpp ****   *   This parameter can be: ENABLE or DISABLE.
1055:Drivers/STM32L1xx_HAL_Driver/stm32l1xx_hal_flash_ex.cpp ****   * @retval HAL_StatusTypeDef
1056:Drivers/STM32L1xx_HAL_Driver/stm32l1xx_hal_flash_ex.cpp ****   */
1057:Drivers/STM32L1xx_HAL_Driver/stm32l1xx_hal_flash_ex.cpp **** static HAL_StatusTypeDef FLASH_OB_WRPConfig(FLASH_OBProgramInitTypeDef *pOBInit, FunctionalState Ne
1058:Drivers/STM32L1xx_HAL_Driver/stm32l1xx_hal_flash_ex.cpp **** {
 1474              		.loc 1 1058 0
 1475              		.cfi_startproc
 1476              		@ args = 0, pretend = 0, frame = 16
 1477              		@ frame_needed = 1, uses_anonymous_args = 0
 1478 0000 80B5     		push	{r7, lr}	@
 1479              	.LCFI45:
 1480              		.cfi_def_cfa_offset 8
 1481              		.cfi_offset 7, -8
 1482              		.cfi_offset 14, -4
 1483 0002 84B0     		sub	sp, sp, #16	@,,
 1484              	.LCFI46:
 1485              		.cfi_def_cfa_offset 24
 1486 0004 00AF     		add	r7, sp, #0	@,,
 1487              	.LCFI47:
 1488              		.cfi_def_cfa_register 7
 1489 0006 7860     		str	r0, [r7, #4]	@ pOBInit, pOBInit
 1490 0008 0B46     		mov	r3, r1	@ tmp138, NewState
 1491 000a FB70     		strb	r3, [r7, #3]	@ tmp139, NewState
 1492              	.LBB33:
1059:Drivers/STM32L1xx_HAL_Driver/stm32l1xx_hal_flash_ex.cpp ****   HAL_StatusTypeDef status = HAL_OK;
 1493              		.loc 1 1059 0
 1494 000c 4FF00003 		mov	r3, #0	@ tmp140,
 1495 0010 FB73     		strb	r3, [r7, #15]	@ tmp141, status
1060:Drivers/STM32L1xx_HAL_Driver/stm32l1xx_hal_flash_ex.cpp ****   
1061:Drivers/STM32L1xx_HAL_Driver/stm32l1xx_hal_flash_ex.cpp ****   /* Wait for last operation to be completed */
1062:Drivers/STM32L1xx_HAL_Driver/stm32l1xx_hal_flash_ex.cpp ****   status = FLASH_WaitForLastOperation(HAL_FLASH_TIMEOUT_VALUE);
 1496              		.loc 1 1062 0
 1497 0012 4CF25030 		movw	r0, #50000	@,
 1498 0016 FFF7FEFF 		bl	FLASH_WaitForLastOperation	@
 1499 001a 0346     		mov	r3, r0	@ tmp142,
 1500 001c FB73     		strb	r3, [r7, #15]	@ tmp143, status
1063:Drivers/STM32L1xx_HAL_Driver/stm32l1xx_hal_flash_ex.cpp ****  
1064:Drivers/STM32L1xx_HAL_Driver/stm32l1xx_hal_flash_ex.cpp ****   if(status == HAL_OK)
 1501              		.loc 1 1064 0
 1502 001e FB7B     		ldrb	r3, [r7, #15]	@ zero_extendqisi2	@ tmp144, status
 1503 0020 002B     		cmp	r3, #0	@ tmp144,
 1504 0022 10D1     		bne	.L77	@,
1065:Drivers/STM32L1xx_HAL_Driver/stm32l1xx_hal_flash_ex.cpp ****   {
1066:Drivers/STM32L1xx_HAL_Driver/stm32l1xx_hal_flash_ex.cpp ****     /* WRP for sector between 0 to 31 */
1067:Drivers/STM32L1xx_HAL_Driver/stm32l1xx_hal_flash_ex.cpp ****     if (pOBInit->WRPSector0To31 != 0)
 1505              		.loc 1 1067 0
 1506 0024 7B68     		ldr	r3, [r7, #4]	@ tmp145, pOBInit
 1507 0026 9B68     		ldr	r3, [r3, #8]	@ D.6319, pOBInit_4(D)->WRPSector0To31
 1508 0028 002B     		cmp	r3, #0	@ D.6319,
 1509 002a 06D0     		beq	.L78	@,
ARM GAS  /tmp/ccwmM6Ug.s 			page 58


1068:Drivers/STM32L1xx_HAL_Driver/stm32l1xx_hal_flash_ex.cpp ****     {
1069:Drivers/STM32L1xx_HAL_Driver/stm32l1xx_hal_flash_ex.cpp ****       FLASH_OB_WRPConfigWRP1OrPCROP1(pOBInit->WRPSector0To31, NewState);
 1510              		.loc 1 1069 0
 1511 002c 7B68     		ldr	r3, [r7, #4]	@ tmp146, pOBInit
 1512 002e 9A68     		ldr	r2, [r3, #8]	@ D.6322, pOBInit_4(D)->WRPSector0To31
 1513 0030 FB78     		ldrb	r3, [r7, #3]	@ zero_extendqisi2	@ tmp147, NewState
 1514 0032 1046     		mov	r0, r2	@, D.6322
 1515 0034 1946     		mov	r1, r3	@, tmp147
 1516 0036 FFF7FEFF 		bl	_ZL30FLASH_OB_WRPConfigWRP1OrPCROP1m15FunctionalState	@
 1517              	.L78:
1070:Drivers/STM32L1xx_HAL_Driver/stm32l1xx_hal_flash_ex.cpp ****     }
1071:Drivers/STM32L1xx_HAL_Driver/stm32l1xx_hal_flash_ex.cpp ****     
1072:Drivers/STM32L1xx_HAL_Driver/stm32l1xx_hal_flash_ex.cpp **** #if defined(STM32L100xC) || defined (STM32L151xC) || defined (STM32L152xC) || defined (STM32L162xC)
1073:Drivers/STM32L1xx_HAL_Driver/stm32l1xx_hal_flash_ex.cpp ****       defined(STM32L151xCA) || defined (STM32L151xD) || defined (STM32L152xCA) || defined (STM32L15
1074:Drivers/STM32L1xx_HAL_Driver/stm32l1xx_hal_flash_ex.cpp ****       defined(STM32L151xE) || defined (STM32L152xE) || defined (STM32L162xE)
1075:Drivers/STM32L1xx_HAL_Driver/stm32l1xx_hal_flash_ex.cpp ****       
1076:Drivers/STM32L1xx_HAL_Driver/stm32l1xx_hal_flash_ex.cpp ****     /* Pages for Cat3, Cat4 & Cat5 devices*/
1077:Drivers/STM32L1xx_HAL_Driver/stm32l1xx_hal_flash_ex.cpp ****     /* WRP for sector between 32 to 63 */
1078:Drivers/STM32L1xx_HAL_Driver/stm32l1xx_hal_flash_ex.cpp ****     if (pOBInit->WRPSector32To63 != 0)
1079:Drivers/STM32L1xx_HAL_Driver/stm32l1xx_hal_flash_ex.cpp ****     {
1080:Drivers/STM32L1xx_HAL_Driver/stm32l1xx_hal_flash_ex.cpp ****       FLASH_OB_WRPConfigWRP2OrPCROP2(pOBInit->WRPSector32To63, NewState);
1081:Drivers/STM32L1xx_HAL_Driver/stm32l1xx_hal_flash_ex.cpp ****     }
1082:Drivers/STM32L1xx_HAL_Driver/stm32l1xx_hal_flash_ex.cpp ****     
1083:Drivers/STM32L1xx_HAL_Driver/stm32l1xx_hal_flash_ex.cpp **** #endif /* STM32L100xC || STM32L151xC || STM32L152xC || STM32L162xC || STM32L151xCA || STM32L151xD |
1084:Drivers/STM32L1xx_HAL_Driver/stm32l1xx_hal_flash_ex.cpp **** 
1085:Drivers/STM32L1xx_HAL_Driver/stm32l1xx_hal_flash_ex.cpp **** #if defined (STM32L151xD) || defined (STM32L152xD) || defined (STM32L162xD) || \
1086:Drivers/STM32L1xx_HAL_Driver/stm32l1xx_hal_flash_ex.cpp ****     defined(STM32L151xE) || defined (STM32L152xE) || defined (STM32L162xE)
1087:Drivers/STM32L1xx_HAL_Driver/stm32l1xx_hal_flash_ex.cpp ****       
1088:Drivers/STM32L1xx_HAL_Driver/stm32l1xx_hal_flash_ex.cpp ****     /* Pages for devices with FLASH >= 256KB*/
1089:Drivers/STM32L1xx_HAL_Driver/stm32l1xx_hal_flash_ex.cpp ****     /* WRP for sector between 64 to 95 */
1090:Drivers/STM32L1xx_HAL_Driver/stm32l1xx_hal_flash_ex.cpp ****     if (pOBInit->WRPSector64To95 != 0)
1091:Drivers/STM32L1xx_HAL_Driver/stm32l1xx_hal_flash_ex.cpp ****     {
1092:Drivers/STM32L1xx_HAL_Driver/stm32l1xx_hal_flash_ex.cpp ****       FLASH_OB_WRPConfigWRP3(pOBInit->WRPSector64To95, NewState);
1093:Drivers/STM32L1xx_HAL_Driver/stm32l1xx_hal_flash_ex.cpp ****     }
1094:Drivers/STM32L1xx_HAL_Driver/stm32l1xx_hal_flash_ex.cpp ****     
1095:Drivers/STM32L1xx_HAL_Driver/stm32l1xx_hal_flash_ex.cpp **** #endif /* STM32L151xD || STM32L152xD || STM32L162xD || STM32L151xE || STM32L152xE || STM32L162xE */
1096:Drivers/STM32L1xx_HAL_Driver/stm32l1xx_hal_flash_ex.cpp **** 
1097:Drivers/STM32L1xx_HAL_Driver/stm32l1xx_hal_flash_ex.cpp **** #if defined(STM32L151xE) || defined (STM32L152xE) || defined (STM32L162xE)
1098:Drivers/STM32L1xx_HAL_Driver/stm32l1xx_hal_flash_ex.cpp **** 
1099:Drivers/STM32L1xx_HAL_Driver/stm32l1xx_hal_flash_ex.cpp ****     /* Pages for Cat5 devices*/
1100:Drivers/STM32L1xx_HAL_Driver/stm32l1xx_hal_flash_ex.cpp ****     /* WRP for sector between 96 to 127 */
1101:Drivers/STM32L1xx_HAL_Driver/stm32l1xx_hal_flash_ex.cpp ****     if (pOBInit->WRPSector96To127 != 0)
1102:Drivers/STM32L1xx_HAL_Driver/stm32l1xx_hal_flash_ex.cpp ****     {
1103:Drivers/STM32L1xx_HAL_Driver/stm32l1xx_hal_flash_ex.cpp ****       FLASH_OB_WRPConfigWRP4(pOBInit->WRPSector96To127, NewState);
1104:Drivers/STM32L1xx_HAL_Driver/stm32l1xx_hal_flash_ex.cpp ****     }
1105:Drivers/STM32L1xx_HAL_Driver/stm32l1xx_hal_flash_ex.cpp ****     
1106:Drivers/STM32L1xx_HAL_Driver/stm32l1xx_hal_flash_ex.cpp **** #endif /* STM32L151xE || STM32L152xE || STM32L162xE */
1107:Drivers/STM32L1xx_HAL_Driver/stm32l1xx_hal_flash_ex.cpp **** 
1108:Drivers/STM32L1xx_HAL_Driver/stm32l1xx_hal_flash_ex.cpp ****     /* Wait for last operation to be completed */
1109:Drivers/STM32L1xx_HAL_Driver/stm32l1xx_hal_flash_ex.cpp ****     status = FLASH_WaitForLastOperation(HAL_FLASH_TIMEOUT_VALUE);
 1518              		.loc 1 1109 0
 1519 003a 4CF25030 		movw	r0, #50000	@,
 1520 003e FFF7FEFF 		bl	FLASH_WaitForLastOperation	@
 1521 0042 0346     		mov	r3, r0	@ tmp148,
 1522 0044 FB73     		strb	r3, [r7, #15]	@ tmp149, status
 1523              	.L77:
1110:Drivers/STM32L1xx_HAL_Driver/stm32l1xx_hal_flash_ex.cpp ****   }
ARM GAS  /tmp/ccwmM6Ug.s 			page 59


1111:Drivers/STM32L1xx_HAL_Driver/stm32l1xx_hal_flash_ex.cpp **** 
1112:Drivers/STM32L1xx_HAL_Driver/stm32l1xx_hal_flash_ex.cpp ****   /* Return the write protection operation Status */
1113:Drivers/STM32L1xx_HAL_Driver/stm32l1xx_hal_flash_ex.cpp ****   return status;      
 1524              		.loc 1 1113 0
 1525 0046 FB7B     		ldrb	r3, [r7, #15]	@ zero_extendqisi2	@ D.6325, status
 1526              	.LBE33:
1114:Drivers/STM32L1xx_HAL_Driver/stm32l1xx_hal_flash_ex.cpp **** }
 1527              		.loc 1 1114 0
 1528 0048 1846     		mov	r0, r3	@, <retval>
 1529 004a 07F11007 		add	r7, r7, #16	@,,
 1530 004e BD46     		mov	sp, r7
 1531 0050 80BD     		pop	{r7, pc}
 1532              		.cfi_endproc
 1533              	.LFE73:
 1534              		.size	_ZL18FLASH_OB_WRPConfigP26FLASH_OBProgramInitTypeDef15FunctionalState, .-_ZL18FLASH_OB_WRPCo
 1535              		.section	.text._ZL30FLASH_OB_WRPConfigWRP1OrPCROP1m15FunctionalState,"ax",%progbits
 1536              		.align	2
 1537              		.thumb
 1538              		.thumb_func
 1539              		.type	_ZL30FLASH_OB_WRPConfigWRP1OrPCROP1m15FunctionalState, %function
 1540              	_ZL30FLASH_OB_WRPConfigWRP1OrPCROP1m15FunctionalState:
 1541              	.LFB74:
1115:Drivers/STM32L1xx_HAL_Driver/stm32l1xx_hal_flash_ex.cpp **** 
1116:Drivers/STM32L1xx_HAL_Driver/stm32l1xx_hal_flash_ex.cpp **** #if defined (STM32L151xBA) || defined (STM32L152xBA) || \
1117:Drivers/STM32L1xx_HAL_Driver/stm32l1xx_hal_flash_ex.cpp ****     defined (STM32L151xC) || defined (STM32L152xC) || defined (STM32L162xC)
1118:Drivers/STM32L1xx_HAL_Driver/stm32l1xx_hal_flash_ex.cpp **** /**
1119:Drivers/STM32L1xx_HAL_Driver/stm32l1xx_hal_flash_ex.cpp ****   * @brief  Enables the read/write protection (PCROP) of the desired 
1120:Drivers/STM32L1xx_HAL_Driver/stm32l1xx_hal_flash_ex.cpp ****   *         sectors.
1121:Drivers/STM32L1xx_HAL_Driver/stm32l1xx_hal_flash_ex.cpp ****   * @note   This function can be used only for Cat2 & Cat3 devices
1122:Drivers/STM32L1xx_HAL_Driver/stm32l1xx_hal_flash_ex.cpp ****   * @param  pAdvOBInit: pointer to an FLASH_AdvOBProgramInitTypeDef structure that
1123:Drivers/STM32L1xx_HAL_Driver/stm32l1xx_hal_flash_ex.cpp ****   *         contains PCROP parameters.
1124:Drivers/STM32L1xx_HAL_Driver/stm32l1xx_hal_flash_ex.cpp ****   * @param  NewState: new state of the specified FLASH Pages read/Write protection.
1125:Drivers/STM32L1xx_HAL_Driver/stm32l1xx_hal_flash_ex.cpp ****   *   This parameter can be: ENABLE or DISABLE.
1126:Drivers/STM32L1xx_HAL_Driver/stm32l1xx_hal_flash_ex.cpp ****   * @retval HAL status
1127:Drivers/STM32L1xx_HAL_Driver/stm32l1xx_hal_flash_ex.cpp ****   */
1128:Drivers/STM32L1xx_HAL_Driver/stm32l1xx_hal_flash_ex.cpp **** static HAL_StatusTypeDef FLASH_OB_PCROPConfig(FLASH_AdvOBProgramInitTypeDef *pAdvOBInit, Functional
1129:Drivers/STM32L1xx_HAL_Driver/stm32l1xx_hal_flash_ex.cpp **** {
1130:Drivers/STM32L1xx_HAL_Driver/stm32l1xx_hal_flash_ex.cpp ****   HAL_StatusTypeDef status = HAL_OK;
1131:Drivers/STM32L1xx_HAL_Driver/stm32l1xx_hal_flash_ex.cpp ****   FunctionalState pcropstate = DISABLE;
1132:Drivers/STM32L1xx_HAL_Driver/stm32l1xx_hal_flash_ex.cpp ****   
1133:Drivers/STM32L1xx_HAL_Driver/stm32l1xx_hal_flash_ex.cpp ****   /* Wait for last operation to be completed */
1134:Drivers/STM32L1xx_HAL_Driver/stm32l1xx_hal_flash_ex.cpp ****   status = FLASH_WaitForLastOperation(HAL_FLASH_TIMEOUT_VALUE);
1135:Drivers/STM32L1xx_HAL_Driver/stm32l1xx_hal_flash_ex.cpp ****   
1136:Drivers/STM32L1xx_HAL_Driver/stm32l1xx_hal_flash_ex.cpp ****   /* Invert state to use same function of WRP */
1137:Drivers/STM32L1xx_HAL_Driver/stm32l1xx_hal_flash_ex.cpp ****   if (NewState == DISABLE)
1138:Drivers/STM32L1xx_HAL_Driver/stm32l1xx_hal_flash_ex.cpp ****   {
1139:Drivers/STM32L1xx_HAL_Driver/stm32l1xx_hal_flash_ex.cpp ****     pcropstate = ENABLE;
1140:Drivers/STM32L1xx_HAL_Driver/stm32l1xx_hal_flash_ex.cpp ****   }
1141:Drivers/STM32L1xx_HAL_Driver/stm32l1xx_hal_flash_ex.cpp ****         
1142:Drivers/STM32L1xx_HAL_Driver/stm32l1xx_hal_flash_ex.cpp ****   if(status == HAL_OK)
1143:Drivers/STM32L1xx_HAL_Driver/stm32l1xx_hal_flash_ex.cpp ****   {
1144:Drivers/STM32L1xx_HAL_Driver/stm32l1xx_hal_flash_ex.cpp ****     /* Pages for Cat2 devices*/
1145:Drivers/STM32L1xx_HAL_Driver/stm32l1xx_hal_flash_ex.cpp ****     /* PCROP for sector between 0 to 31 */
1146:Drivers/STM32L1xx_HAL_Driver/stm32l1xx_hal_flash_ex.cpp ****     if (pAdvOBInit->PCROPSector0To31 != 0)
1147:Drivers/STM32L1xx_HAL_Driver/stm32l1xx_hal_flash_ex.cpp ****     {
1148:Drivers/STM32L1xx_HAL_Driver/stm32l1xx_hal_flash_ex.cpp ****       FLASH_OB_WRPConfigWRP1OrPCROP1(pAdvOBInit->PCROPSector0To31, pcropstate);
1149:Drivers/STM32L1xx_HAL_Driver/stm32l1xx_hal_flash_ex.cpp ****     }
ARM GAS  /tmp/ccwmM6Ug.s 			page 60


1150:Drivers/STM32L1xx_HAL_Driver/stm32l1xx_hal_flash_ex.cpp ****     
1151:Drivers/STM32L1xx_HAL_Driver/stm32l1xx_hal_flash_ex.cpp **** #if defined(STM32L100xC) || defined (STM32L151xC) || defined (STM32L152xC) || defined (STM32L162xC)
1152:Drivers/STM32L1xx_HAL_Driver/stm32l1xx_hal_flash_ex.cpp **** 
1153:Drivers/STM32L1xx_HAL_Driver/stm32l1xx_hal_flash_ex.cpp ****     /* Pages for Cat3 devices*/
1154:Drivers/STM32L1xx_HAL_Driver/stm32l1xx_hal_flash_ex.cpp ****     /* WRP for sector between 32 to 63 */
1155:Drivers/STM32L1xx_HAL_Driver/stm32l1xx_hal_flash_ex.cpp ****     if (pAdvOBInit->PCROPSector32To63 != 0)
1156:Drivers/STM32L1xx_HAL_Driver/stm32l1xx_hal_flash_ex.cpp ****     {
1157:Drivers/STM32L1xx_HAL_Driver/stm32l1xx_hal_flash_ex.cpp ****       FLASH_OB_WRPConfigWRP2OrPCROP2(pAdvOBInit->PCROPSector32To63, pcropstate);
1158:Drivers/STM32L1xx_HAL_Driver/stm32l1xx_hal_flash_ex.cpp ****     }
1159:Drivers/STM32L1xx_HAL_Driver/stm32l1xx_hal_flash_ex.cpp ****     
1160:Drivers/STM32L1xx_HAL_Driver/stm32l1xx_hal_flash_ex.cpp **** #endif /* STM32L100xC || STM32L151xC || STM32L152xC || STM32L162xC  */
1161:Drivers/STM32L1xx_HAL_Driver/stm32l1xx_hal_flash_ex.cpp ****     
1162:Drivers/STM32L1xx_HAL_Driver/stm32l1xx_hal_flash_ex.cpp ****     /* Wait for last operation to be completed */
1163:Drivers/STM32L1xx_HAL_Driver/stm32l1xx_hal_flash_ex.cpp ****     status = FLASH_WaitForLastOperation(HAL_FLASH_TIMEOUT_VALUE);
1164:Drivers/STM32L1xx_HAL_Driver/stm32l1xx_hal_flash_ex.cpp ****   }
1165:Drivers/STM32L1xx_HAL_Driver/stm32l1xx_hal_flash_ex.cpp **** 
1166:Drivers/STM32L1xx_HAL_Driver/stm32l1xx_hal_flash_ex.cpp ****   /* Return the write protection operation Status */
1167:Drivers/STM32L1xx_HAL_Driver/stm32l1xx_hal_flash_ex.cpp ****   return status;      
1168:Drivers/STM32L1xx_HAL_Driver/stm32l1xx_hal_flash_ex.cpp **** }
1169:Drivers/STM32L1xx_HAL_Driver/stm32l1xx_hal_flash_ex.cpp **** #endif /* STM32L151xBA || STM32L152xBA || STM32L151xC || STM32L152xC || STM32L162xC */
1170:Drivers/STM32L1xx_HAL_Driver/stm32l1xx_hal_flash_ex.cpp **** 
1171:Drivers/STM32L1xx_HAL_Driver/stm32l1xx_hal_flash_ex.cpp **** /**
1172:Drivers/STM32L1xx_HAL_Driver/stm32l1xx_hal_flash_ex.cpp ****   * @brief  Write protects the desired pages of the first 128KB of the Flash.
1173:Drivers/STM32L1xx_HAL_Driver/stm32l1xx_hal_flash_ex.cpp ****   * @param  WRP1OrPCROP1: specifies the address of the pages to be write protected.
1174:Drivers/STM32L1xx_HAL_Driver/stm32l1xx_hal_flash_ex.cpp ****   *   This parameter can be:
1175:Drivers/STM32L1xx_HAL_Driver/stm32l1xx_hal_flash_ex.cpp ****   *     @arg  value between OB_WRP1/PCROP1_PAGES0TO15 and OB_WRP1/PCROP1_PAGES496TO511
1176:Drivers/STM32L1xx_HAL_Driver/stm32l1xx_hal_flash_ex.cpp ****   *     @arg  OB_WRP1/PCROP1_ALLPAGES
1177:Drivers/STM32L1xx_HAL_Driver/stm32l1xx_hal_flash_ex.cpp ****   * @param  NewState: new state of the specified FLASH Pages Wtite protection.
1178:Drivers/STM32L1xx_HAL_Driver/stm32l1xx_hal_flash_ex.cpp ****   *   This parameter can be: ENABLE or DISABLE.
1179:Drivers/STM32L1xx_HAL_Driver/stm32l1xx_hal_flash_ex.cpp ****   * @retval None
1180:Drivers/STM32L1xx_HAL_Driver/stm32l1xx_hal_flash_ex.cpp ****   */
1181:Drivers/STM32L1xx_HAL_Driver/stm32l1xx_hal_flash_ex.cpp **** static void FLASH_OB_WRPConfigWRP1OrPCROP1(uint32_t WRP1OrPCROP1, FunctionalState NewState)
1182:Drivers/STM32L1xx_HAL_Driver/stm32l1xx_hal_flash_ex.cpp **** {
 1542              		.loc 1 1182 0
 1543              		.cfi_startproc
 1544              		@ args = 0, pretend = 0, frame = 24
 1545              		@ frame_needed = 1, uses_anonymous_args = 0
 1546              		@ link register save eliminated.
 1547 0000 80B4     		push	{r7}	@
 1548              	.LCFI48:
 1549              		.cfi_def_cfa_offset 4
 1550              		.cfi_offset 7, -4
 1551 0002 87B0     		sub	sp, sp, #28	@,,
 1552              	.LCFI49:
 1553              		.cfi_def_cfa_offset 32
 1554 0004 00AF     		add	r7, sp, #0	@,,
 1555              	.LCFI50:
 1556              		.cfi_def_cfa_register 7
 1557 0006 7860     		str	r0, [r7, #4]	@ WRP1OrPCROP1, WRP1OrPCROP1
 1558 0008 0B46     		mov	r3, r1	@ tmp170, NewState
 1559 000a FB70     		strb	r3, [r7, #3]	@ tmp171, NewState
 1560              	.LBB34:
1183:Drivers/STM32L1xx_HAL_Driver/stm32l1xx_hal_flash_ex.cpp ****   uint32_t wrp01data = 0, wrp23data = 0;
 1561              		.loc 1 1183 0
 1562 000c 4FF00003 		mov	r3, #0	@ tmp172,
 1563 0010 7B61     		str	r3, [r7, #20]	@ tmp172, wrp01data
 1564 0012 4FF00003 		mov	r3, #0	@ tmp173,
ARM GAS  /tmp/ccwmM6Ug.s 			page 61


 1565 0016 3B61     		str	r3, [r7, #16]	@ tmp173, wrp23data
1184:Drivers/STM32L1xx_HAL_Driver/stm32l1xx_hal_flash_ex.cpp ****   
1185:Drivers/STM32L1xx_HAL_Driver/stm32l1xx_hal_flash_ex.cpp ****   uint32_t tmp1 = 0, tmp2 = 0;
 1566              		.loc 1 1185 0
 1567 0018 4FF00003 		mov	r3, #0	@ tmp174,
 1568 001c FB60     		str	r3, [r7, #12]	@ tmp174, tmp1
 1569 001e 4FF00003 		mov	r3, #0	@ tmp175,
 1570 0022 BB60     		str	r3, [r7, #8]	@ tmp175, tmp2
1186:Drivers/STM32L1xx_HAL_Driver/stm32l1xx_hal_flash_ex.cpp ****   
1187:Drivers/STM32L1xx_HAL_Driver/stm32l1xx_hal_flash_ex.cpp ****   if (NewState != DISABLE)
 1571              		.loc 1 1187 0
 1572 0024 FB78     		ldrb	r3, [r7, #3]	@ zero_extendqisi2	@ tmp176, NewState
 1573 0026 002B     		cmp	r3, #0	@ tmp176,
 1574 0028 34D0     		beq	.L81	@,
1188:Drivers/STM32L1xx_HAL_Driver/stm32l1xx_hal_flash_ex.cpp ****   {
1189:Drivers/STM32L1xx_HAL_Driver/stm32l1xx_hal_flash_ex.cpp ****     wrp01data = (uint16_t)(((WRP1OrPCROP1 & WRP_MASK_LOW) | OB->WRP01));
 1575              		.loc 1 1189 0
 1576 002a 7B68     		ldr	r3, [r7, #4]	@ tmp177, WRP1OrPCROP1
 1577 002c 9AB2     		uxth	r2, r3	@ D.6280, tmp177
 1578 002e 4FF00003 		mov	r3, #0	@ D.6281,
 1579 0032 C1F6F873 		movt	r3, 8184	@ D.6281,
 1580 0036 9B68     		ldr	r3, [r3, #8]	@ D.6282, D.6281_8->WRP01
 1581 0038 9BB2     		uxth	r3, r3	@ D.6283, D.6282
 1582 003a 1343     		orrs	r3, r3, r2	@, tmp178, D.6283, D.6280
 1583 003c 9BB2     		uxth	r3, r3	@ D.6284, tmp178
 1584 003e 7B61     		str	r3, [r7, #20]	@ D.6284, wrp01data
1190:Drivers/STM32L1xx_HAL_Driver/stm32l1xx_hal_flash_ex.cpp ****     wrp23data = (uint16_t)((((WRP1OrPCROP1 & WRP_MASK_HIGH)>>16 | OB->WRP23))); 
 1585              		.loc 1 1190 0
 1586 0040 7B68     		ldr	r3, [r7, #4]	@ tmp179, WRP1OrPCROP1
 1587 0042 4FEA1343 		lsr	r3, r3, #16	@ D.6285, tmp179,
 1588 0046 9AB2     		uxth	r2, r3	@ D.6286, D.6285
 1589 0048 4FF00003 		mov	r3, #0	@ D.6287,
 1590 004c C1F6F873 		movt	r3, 8184	@ D.6287,
 1591 0050 DB68     		ldr	r3, [r3, #12]	@ D.6288, D.6287_15->WRP23
 1592 0052 9BB2     		uxth	r3, r3	@ D.6289, D.6288
 1593 0054 1343     		orrs	r3, r3, r2	@, tmp180, D.6289, D.6286
 1594 0056 9BB2     		uxth	r3, r3	@ D.6290, tmp180
 1595 0058 3B61     		str	r3, [r7, #16]	@ D.6290, wrp23data
1191:Drivers/STM32L1xx_HAL_Driver/stm32l1xx_hal_flash_ex.cpp ****     tmp1 = (uint32_t)(~(wrp01data) << 16)|(wrp01data);
 1596              		.loc 1 1191 0
