ARM GAS  /tmp/cc8Tv6Nl.s 			page 1


   1              		.syntax unified
   2              		.cpu cortex-m3
   3              		.fpu softvfp
   4              		.eabi_attribute 20, 1	@ Tag_ABI_FP_denormal
   5              		.eabi_attribute 21, 1	@ Tag_ABI_FP_exceptions
   6              		.eabi_attribute 23, 3	@ Tag_ABI_FP_number_model
   7              		.eabi_attribute 24, 1	@ Tag_ABI_align8_needed
   8              		.eabi_attribute 25, 1	@ Tag_ABI_align8_preserved
   9              		.eabi_attribute 26, 1	@ Tag_ABI_enum_size
  10              		.eabi_attribute 30, 4	@ Tag_ABI_optimization_goals
  11              		.eabi_attribute 34, 1	@ Tag_CPU_unaligned_access
  12              		.eabi_attribute 18, 4	@ Tag_ABI_PCS_wchar_t
  13              		.file	"syscall.c"
  14              	@ GNU C (GNU Tools for ARM Embedded Processors) version 4.7.3 20130312 (release) [ARM/embedded-4_7-
  15              	@	compiled by GNU C version 4.3.6, GMP version 4.3.2, MPFR version 2.4.2, MPC version 0.8.1
  16              	@ GGC heuristics: --param ggc-min-expand=100 --param ggc-min-heapsize=131072
  17              	@ options passed:  -I . -I inc -I FreeRTOS/include
  18              	@ -I FreeRTOS/portable/GCC/ARM_CM3 -I FatFS -I peripherals
  19              	@ -imultilib armv7-m
  20              	@ -iprefix /home/maciek/gcc-arm-none-eabi/gcc-arm-none-eabi-4_7-2013q1/bin/../lib/gcc/arm-none-eabi
  21              	@ -isysroot /home/maciek/gcc-arm-none-eabi/gcc-arm-none-eabi-4_7-2013q1/bin/../arm-none-eabi
  22              	@ -MD out/syscall.d -MF out/syscall.d -MP -MQ out/syscall.o
  23              	@ -D__USES_INITFINI__ -D STM32L1XX_MD FatFS/syscall.c -mcpu=cortex-m3
  24              	@ -mthumb -auxbase-strip out/syscall.o -g -ggdb3 -Os -Wall
  25              	@ -Wstrict-prototypes -Wextra -std=gnu90 -ffunction-sections
  26              	@ -fdata-sections -fverbose-asm
  27              	@ options enabled:  -fauto-inc-dec -fbranch-count-reg -fcaller-saves
  28              	@ -fcombine-stack-adjustments -fcommon -fcompare-elim -fcprop-registers
  29              	@ -fcrossjumping -fcse-follow-jumps -fdata-sections -fdebug-types-section
  30              	@ -fdefer-pop -fdelete-null-pointer-checks -fdevirtualize -fdwarf2-cfi-asm
  31              	@ -fearly-inlining -feliminate-unused-debug-types -fexpensive-optimizations
  32              	@ -fforward-propagate -ffunction-cse -ffunction-sections -fgcse -fgcse-lm
  33              	@ -fgnu-runtime -fguess-branch-probability -fident -fif-conversion
  34              	@ -fif-conversion2 -findirect-inlining -finline -finline-atomics
  35              	@ -finline-functions -finline-functions-called-once
  36              	@ -finline-small-functions -fipa-cp -fipa-profile -fipa-pure-const
  37              	@ -fipa-reference -fipa-sra -fira-share-save-slots -fira-share-spill-slots
  38              	@ -fivopts -fkeep-static-consts -fleading-underscore -fmath-errno
  39              	@ -fmerge-constants -fmerge-debug-strings -fomit-frame-pointer
  40              	@ -foptimize-register-move -foptimize-sibling-calls -fpartial-inlining
  41              	@ -fpeephole -fpeephole2 -fprefetch-loop-arrays -freg-struct-return
  42              	@ -fregmove -frename-registers -freorder-blocks -freorder-functions
  43              	@ -frerun-cse-after-loop -fsched-critical-path-heuristic
  44              	@ -fsched-dep-count-heuristic -fsched-group-heuristic -fsched-interblock
  45              	@ -fsched-last-insn-heuristic -fsched-rank-heuristic -fsched-spec
  46              	@ -fsched-spec-insn-heuristic -fsched-stalled-insns-dep -fschedule-insns2
  47              	@ -fsection-anchors -fshow-column -fshrink-wrap -fsigned-zeros
  48              	@ -fsplit-ivs-in-unroller -fsplit-wide-types -fstrict-aliasing
  49              	@ -fstrict-overflow -fstrict-volatile-bitfields -fthread-jumps
  50              	@ -ftoplevel-reorder -ftrapping-math -ftree-bit-ccp -ftree-builtin-call-dce
  51              	@ -ftree-ccp -ftree-ch -ftree-copy-prop -ftree-copyrename -ftree-cselim
  52              	@ -ftree-dce -ftree-dominator-opts -ftree-dse -ftree-forwprop -ftree-fre
  53              	@ -ftree-loop-if-convert -ftree-loop-im -ftree-loop-ivcanon
  54              	@ -ftree-loop-optimize -ftree-parallelize-loops= -ftree-phiprop -ftree-pre
  55              	@ -ftree-pta -ftree-reassoc -ftree-scev-cprop -ftree-sink
  56              	@ -ftree-slp-vectorize -ftree-sra -ftree-switch-conversion
  57              	@ -ftree-tail-merge -ftree-ter -ftree-vect-loop-version -ftree-vrp
ARM GAS  /tmp/cc8Tv6Nl.s 			page 2


  58              	@ -funit-at-a-time -funroll-loops -fvar-tracking -fvar-tracking-assignments
  59              	@ -fverbose-asm -fweb -fzero-initialized-in-bss -mfix-cortex-m3-ldrd
  60              	@ -mlittle-endian -msched-prolog -mthumb -munaligned-access
  61              	@ -mvectorize-with-neon-quad
  62              	
  63              		.text
  64              	.Ltext0:
  65              		.cfi_sections	.debug_frame
  66              		.section	.text.ff_cre_syncobj,"ax",%progbits
  67              		.align	1
  68              		.global	ff_cre_syncobj
  69              		.thumb
  70              		.thumb_func
  71              		.type	ff_cre_syncobj, %function
  72              	ff_cre_syncobj:
  73              	.LFB55:
  74              		.file 1 "FatFS/syscall.c"
   1:FatFS/syscall.c **** /*------------------------------------------------------------------------*/
   2:FatFS/syscall.c **** /* Sample code of OS dependent controls for FatFs                         */
   3:FatFS/syscall.c **** /* (C)ChaN, 2012                                                          */
   4:FatFS/syscall.c **** /*------------------------------------------------------------------------*/
   5:FatFS/syscall.c **** 
   6:FatFS/syscall.c **** #include "FreeRTOS.h"
   7:FatFS/syscall.c **** #include "semphr.h"
   8:FatFS/syscall.c **** 
   9:FatFS/syscall.c **** #include "ff.h"
  10:FatFS/syscall.c **** 
  11:FatFS/syscall.c **** 
  12:FatFS/syscall.c **** #if _FS_REENTRANT
  13:FatFS/syscall.c **** /*------------------------------------------------------------------------*/
  14:FatFS/syscall.c **** /* Create a Synchronization Object                                        */
  15:FatFS/syscall.c **** /*------------------------------------------------------------------------*/
  16:FatFS/syscall.c **** /* This function is called in f_mount function to create a new
  17:FatFS/syscall.c **** /  synchronization object, such as semaphore and mutex. When a zero is
  18:FatFS/syscall.c **** /  returned, the f_mount function fails with FR_INT_ERR.
  19:FatFS/syscall.c **** */
  20:FatFS/syscall.c **** 
  21:FatFS/syscall.c **** int ff_cre_syncobj (	/* TRUE:Function succeeded, FALSE:Could not create due to any error */
  22:FatFS/syscall.c **** 	BYTE vol,			/* Corresponding logical drive being processed */
  23:FatFS/syscall.c **** 	_SYNC_t *sobj		/* Pointer to return the created sync object */
  24:FatFS/syscall.c **** )
  25:FatFS/syscall.c **** {
  75              		.loc 1 25 0
  76              		.cfi_startproc
  77              		@ args = 0, pretend = 0, frame = 0
  78              		@ frame_needed = 0, uses_anonymous_args = 0
  79              	.LVL0:
  80 0000 10B5     		push	{r4, lr}	@
  81              	.LCFI0:
  82              		.cfi_def_cfa_offset 8
  83              		.cfi_offset 4, -8
  84              		.cfi_offset 14, -4
  26:FatFS/syscall.c **** 	(void)vol;								// suppress warning
  27:FatFS/syscall.c **** 
  28:FatFS/syscall.c **** 	int ret;
  29:FatFS/syscall.c **** 
  30:FatFS/syscall.c **** //	*sobj = CreateMutex(NULL, FALSE, NULL);	/* Win32 */
ARM GAS  /tmp/cc8Tv6Nl.s 			page 3


  31:FatFS/syscall.c **** //	ret = (*sobj != INVALID_HANDLE_VALUE);
  32:FatFS/syscall.c **** 
  33:FatFS/syscall.c **** //	*sobj = SyncObjects[vol];	/* uITRON (give a static sync object) */
  34:FatFS/syscall.c **** //	ret = 1;					/* The initial value of the semaphore must be 1. */
  35:FatFS/syscall.c **** 
  36:FatFS/syscall.c **** //	*sobj = OSMutexCreate(0, &err);			/* uC/OS-II */
  37:FatFS/syscall.c **** //	ret = (err == OS_NO_ERR);
  38:FatFS/syscall.c **** 
  39:FatFS/syscall.c **** 	*sobj = xSemaphoreCreateMutex();		/* FreeRTOS */
  85              		.loc 1 39 0
  86 0002 0120     		movs	r0, #1	@,
  87              	.LVL1:
  25:FatFS/syscall.c **** {
  88              		.loc 1 25 0
  89 0004 0C46     		mov	r4, r1	@ sobj, sobj
  90              		.loc 1 39 0
  91 0006 FFF7FEFF 		bl	xQueueCreateMutex	@
  92              	.LVL2:
  93 000a 2060     		str	r0, [r4, #0]	@ D.6080, *sobj_2(D)
  94              	.LVL3:
  40:FatFS/syscall.c **** 	ret = (*sobj != NULL);
  41:FatFS/syscall.c **** 
  42:FatFS/syscall.c **** 	return ret;
  43:FatFS/syscall.c **** }
  95              		.loc 1 43 0
  96 000c 0030     		adds	r0, r0, #0	@, D.6080,
  97              	.LVL4:
  98 000e 18BF     		it	ne
  99 0010 0120     		movne	r0, #1	@,
 100 0012 10BD     		pop	{r4, pc}	@
 101              		.cfi_endproc
 102              	.LFE55:
 103              		.size	ff_cre_syncobj, .-ff_cre_syncobj
 104              		.section	.text.ff_del_syncobj,"ax",%progbits
 105              		.align	1
 106              		.global	ff_del_syncobj
 107              		.thumb
 108              		.thumb_func
 109              		.type	ff_del_syncobj, %function
 110              	ff_del_syncobj:
 111              	.LFB56:
  44:FatFS/syscall.c **** 
  45:FatFS/syscall.c **** 
  46:FatFS/syscall.c **** 
  47:FatFS/syscall.c **** /*------------------------------------------------------------------------*/
  48:FatFS/syscall.c **** /* Delete a Synchronization Object                                        */
  49:FatFS/syscall.c **** /*------------------------------------------------------------------------*/
  50:FatFS/syscall.c **** /* This function is called in f_mount function to delete a synchronization
  51:FatFS/syscall.c **** /  object that created with ff_cre_syncobj function. When a zero is
  52:FatFS/syscall.c **** /  returned, the f_mount function fails with FR_INT_ERR.
  53:FatFS/syscall.c **** */
  54:FatFS/syscall.c **** 
  55:FatFS/syscall.c **** int ff_del_syncobj (	/* TRUE:Function succeeded, FALSE:Could not delete due to any error */
  56:FatFS/syscall.c **** 	_SYNC_t sobj		/* Sync object tied to the logical drive to be deleted */
  57:FatFS/syscall.c **** )
  58:FatFS/syscall.c **** {
 112              		.loc 1 58 0
ARM GAS  /tmp/cc8Tv6Nl.s 			page 4


 113              		.cfi_startproc
 114              		@ args = 0, pretend = 0, frame = 0
 115              		@ frame_needed = 0, uses_anonymous_args = 0
 116              		@ link register save eliminated.
 117              	.LVL5:
  59:FatFS/syscall.c **** 	(void)sobj;								// suppress warning
  60:FatFS/syscall.c **** 
  61:FatFS/syscall.c **** 	int ret;
  62:FatFS/syscall.c **** 
  63:FatFS/syscall.c **** //	ret = CloseHandle(sobj);	/* Win32 */
  64:FatFS/syscall.c **** 
  65:FatFS/syscall.c **** //	ret = 1;					/* uITRON (nothing to do) */
  66:FatFS/syscall.c **** 
  67:FatFS/syscall.c **** //	OSMutexDel(sobj, OS_DEL_ALWAYS, &err);	/* uC/OS-II */
  68:FatFS/syscall.c **** //	ret = (err == OS_NO_ERR);
  69:FatFS/syscall.c **** 
  70:FatFS/syscall.c **** 	ret = 1;					/* FreeRTOS (nothing to do) */
  71:FatFS/syscall.c **** 
  72:FatFS/syscall.c **** 	return ret;
  73:FatFS/syscall.c **** }
 118              		.loc 1 73 0
 119 0000 0120     		movs	r0, #1	@,
 120              	.LVL6:
 121 0002 7047     		bx	lr	@
 122              		.cfi_endproc
 123              	.LFE56:
 124              		.size	ff_del_syncobj, .-ff_del_syncobj
 125              		.section	.text.ff_req_grant,"ax",%progbits
 126              		.align	1
 127              		.global	ff_req_grant
 128              		.thumb
 129              		.thumb_func
 130              		.type	ff_req_grant, %function
 131              	ff_req_grant:
 132              	.LFB57:
  74:FatFS/syscall.c **** 
  75:FatFS/syscall.c **** 
  76:FatFS/syscall.c **** 
  77:FatFS/syscall.c **** /*------------------------------------------------------------------------*/
  78:FatFS/syscall.c **** /* Request Grant to Access the Volume                                     */
  79:FatFS/syscall.c **** /*------------------------------------------------------------------------*/
  80:FatFS/syscall.c **** /* This function is called on entering file functions to lock the volume.
  81:FatFS/syscall.c **** /  When a zero is returned, the file function fails with FR_TIMEOUT.
  82:FatFS/syscall.c **** */
  83:FatFS/syscall.c **** 
  84:FatFS/syscall.c **** int ff_req_grant (	/* TRUE:Got a grant to access the volume, FALSE:Could not get a grant */
  85:FatFS/syscall.c **** 	_SYNC_t sobj	/* Sync object to wait */
  86:FatFS/syscall.c **** )
  87:FatFS/syscall.c **** {
 133              		.loc 1 87 0
 134              		.cfi_startproc
 135              		@ args = 0, pretend = 0, frame = 0
 136              		@ frame_needed = 0, uses_anonymous_args = 0
 137              	.LVL7:
  88:FatFS/syscall.c **** 	int ret;
  89:FatFS/syscall.c **** 
  90:FatFS/syscall.c **** //	ret = (WaitForSingleObject(sobj, _FS_TIMEOUT) == WAIT_OBJECT_0);	/* Win32 */
ARM GAS  /tmp/cc8Tv6Nl.s 			page 5


  91:FatFS/syscall.c **** 
  92:FatFS/syscall.c **** //	ret = (wai_sem(sobj) == E_OK);	/* uITRON */
  93:FatFS/syscall.c **** 
  94:FatFS/syscall.c **** //	OSMutexPend(sobj, _FS_TIMEOUT, &err));			/* uC/OS-II */
  95:FatFS/syscall.c **** //	ret = (err == OS_NO_ERR);
  96:FatFS/syscall.c **** 
  97:FatFS/syscall.c **** 	ret = (xSemaphoreTake(sobj, _FS_TIMEOUT) == pdTRUE);	/* FreeRTOS */
 138              		.loc 1 97 0
 139 0000 0021     		movs	r1, #0	@,
  87:FatFS/syscall.c **** {
 140              		.loc 1 87 0
 141 0002 08B5     		push	{r3, lr}	@
 142              	.LCFI1:
 143              		.cfi_def_cfa_offset 8
 144              		.cfi_offset 3, -8
 145              		.cfi_offset 14, -4
 146              		.loc 1 97 0
 147 0004 4FF47A72 		mov	r2, #1000	@,
 148 0008 0B46     		mov	r3, r1	@,
 149 000a FFF7FEFF 		bl	xQueueGenericReceive	@
 150              	.LVL8:
  98:FatFS/syscall.c **** 
  99:FatFS/syscall.c **** 	return ret;
 100:FatFS/syscall.c **** }
 151              		.loc 1 100 0
 152 000e 431E     		subs	r3, r0, #1	@,,
 153 0010 5842     		rsbs	r0, r3, #0	@,,
 154              	.LVL9:
 155 0012 5841     		adcs	r0, r0, r3	@,,
 156 0014 08BD     		pop	{r3, pc}	@
 157              		.cfi_endproc
 158              	.LFE57:
 159              		.size	ff_req_grant, .-ff_req_grant
 160              		.section	.text.ff_rel_grant,"ax",%progbits
 161              		.align	1
 162              		.global	ff_rel_grant
 163              		.thumb
 164              		.thumb_func
 165              		.type	ff_rel_grant, %function
 166              	ff_rel_grant:
 167              	.LFB58:
 101:FatFS/syscall.c **** 
 102:FatFS/syscall.c **** 
 103:FatFS/syscall.c **** 
 104:FatFS/syscall.c **** /*------------------------------------------------------------------------*/
 105:FatFS/syscall.c **** /* Release Grant to Access the Volume                                     */
 106:FatFS/syscall.c **** /*------------------------------------------------------------------------*/
 107:FatFS/syscall.c **** /* This function is called on leaving file functions to unlock the volume.
 108:FatFS/syscall.c **** */
 109:FatFS/syscall.c **** 
 110:FatFS/syscall.c **** void ff_rel_grant (
 111:FatFS/syscall.c **** 	_SYNC_t sobj	/* Sync object to be signaled */
 112:FatFS/syscall.c **** )
 113:FatFS/syscall.c **** {
 168              		.loc 1 113 0
 169              		.cfi_startproc
 170              		@ args = 0, pretend = 0, frame = 0
ARM GAS  /tmp/cc8Tv6Nl.s 			page 6


 171              		@ frame_needed = 0, uses_anonymous_args = 0
 172              		@ link register save eliminated.
 173              	.LVL10:
 114:FatFS/syscall.c **** //	ReleaseMutex(sobj);		/* Win32 */
 115:FatFS/syscall.c **** 
 116:FatFS/syscall.c **** //	sig_sem(sobj);			/* uITRON */
 117:FatFS/syscall.c **** 
 118:FatFS/syscall.c **** //	OSMutexPost(sobj);		/* uC/OS-II */
 119:FatFS/syscall.c **** 
 120:FatFS/syscall.c **** 	xSemaphoreGive(sobj);	/* FreeRTOS */
 174              		.loc 1 120 0
 175 0000 0021     		movs	r1, #0	@,
 176 0002 0A46     		mov	r2, r1	@,
 177 0004 0B46     		mov	r3, r1	@,
 121:FatFS/syscall.c **** 
 122:FatFS/syscall.c **** }
 178              		.loc 1 122 0
 120:FatFS/syscall.c **** 	xSemaphoreGive(sobj);	/* FreeRTOS */
 179              		.loc 1 120 0
 180 0006 FFF7FEBF 		b	xQueueGenericSend	@
 181              	.LVL11:
 182              		.cfi_endproc
 183              	.LFE58:
 184              		.size	ff_rel_grant, .-ff_rel_grant
 185              		.text
 186              	.Letext0:
 187              		.file 2 "/home/maciek/gcc-arm-none-eabi/gcc-arm-none-eabi-4_7-2013q1/bin/../lib/gcc/arm-none-eabi/
 188              		.file 3 "FreeRTOS/portable/GCC/ARM_CM3/portmacro.h"
 189              		.file 4 "FreeRTOS/include/queue.h"
 190              		.file 5 "FreeRTOS/include/semphr.h"
 191              		.file 6 "FatFS/integer.h"
 192              		.file 7 "inc/core_cm3.h"