ARM GAS  /tmp/ccAXdZ8j.s 			page 1


   1              		.syntax unified
   2              		.cpu cortex-m3
   3              		.fpu softvfp
   4              		.eabi_attribute 20, 1	@ Tag_ABI_FP_denormal
   5              		.eabi_attribute 21, 1	@ Tag_ABI_FP_exceptions
   6              		.eabi_attribute 23, 3	@ Tag_ABI_FP_number_model
   7              		.eabi_attribute 24, 1	@ Tag_ABI_align8_needed
   8              		.eabi_attribute 25, 1	@ Tag_ABI_align8_preserved
   9              		.eabi_attribute 26, 1	@ Tag_ABI_enum_size
  10              		.eabi_attribute 30, 4	@ Tag_ABI_optimization_goals
  11              		.eabi_attribute 34, 1	@ Tag_CPU_unaligned_access
  12              		.eabi_attribute 18, 4	@ Tag_ABI_PCS_wchar_t
  13              		.file	"syscalls.c"
  14              	@ GNU C (GNU Tools for ARM Embedded Processors) version 4.7.3 20130312 (release) [ARM/embedded-4_7-
  15              	@	compiled by GNU C version 4.3.6, GMP version 4.3.2, MPFR version 2.4.2, MPC version 0.8.1
  16              	@ GGC heuristics: --param ggc-min-expand=100 --param ggc-min-heapsize=131072
  17              	@ options passed:  -I . -I inc -I FreeRTOS/include
  18              	@ -I FreeRTOS/portable/GCC/ARM_CM3 -I FatFS -I peripherals
  19              	@ -imultilib armv7-m
  20              	@ -iprefix /home/maciek/gcc-arm-none-eabi/gcc-arm-none-eabi-4_7-2013q1/bin/../lib/gcc/arm-none-eabi
  21              	@ -isysroot /home/maciek/gcc-arm-none-eabi/gcc-arm-none-eabi-4_7-2013q1/bin/../arm-none-eabi
  22              	@ -MD out/syscalls.d -MF out/syscalls.d -MP -MQ out/syscalls.o
  23              	@ -D__USES_INITFINI__ -D STM32L1XX_MD syscalls.c -mcpu=cortex-m3 -mthumb
  24              	@ -auxbase-strip out/syscalls.o -g -ggdb3 -Os -Wall -Wstrict-prototypes
  25              	@ -Wextra -std=gnu90 -ffunction-sections -fdata-sections -fverbose-asm
  26              	@ options enabled:  -fauto-inc-dec -fbranch-count-reg -fcaller-saves
  27              	@ -fcombine-stack-adjustments -fcommon -fcompare-elim -fcprop-registers
  28              	@ -fcrossjumping -fcse-follow-jumps -fdata-sections -fdebug-types-section
  29              	@ -fdefer-pop -fdelete-null-pointer-checks -fdevirtualize -fdwarf2-cfi-asm
  30              	@ -fearly-inlining -feliminate-unused-debug-types -fexpensive-optimizations
  31              	@ -fforward-propagate -ffunction-cse -ffunction-sections -fgcse -fgcse-lm
  32              	@ -fgnu-runtime -fguess-branch-probability -fident -fif-conversion
  33              	@ -fif-conversion2 -findirect-inlining -finline -finline-atomics
  34              	@ -finline-functions -finline-functions-called-once
  35              	@ -finline-small-functions -fipa-cp -fipa-profile -fipa-pure-const
  36              	@ -fipa-reference -fipa-sra -fira-share-save-slots -fira-share-spill-slots
  37              	@ -fivopts -fkeep-static-consts -fleading-underscore -fmath-errno
  38              	@ -fmerge-constants -fmerge-debug-strings -fomit-frame-pointer
  39              	@ -foptimize-register-move -foptimize-sibling-calls -fpartial-inlining
  40              	@ -fpeephole -fpeephole2 -fprefetch-loop-arrays -freg-struct-return
  41              	@ -fregmove -frename-registers -freorder-blocks -freorder-functions
  42              	@ -frerun-cse-after-loop -fsched-critical-path-heuristic
  43              	@ -fsched-dep-count-heuristic -fsched-group-heuristic -fsched-interblock
  44              	@ -fsched-last-insn-heuristic -fsched-rank-heuristic -fsched-spec
  45              	@ -fsched-spec-insn-heuristic -fsched-stalled-insns-dep -fschedule-insns2
  46              	@ -fsection-anchors -fshow-column -fshrink-wrap -fsigned-zeros
  47              	@ -fsplit-ivs-in-unroller -fsplit-wide-types -fstrict-aliasing
  48              	@ -fstrict-overflow -fstrict-volatile-bitfields -fthread-jumps
  49              	@ -ftoplevel-reorder -ftrapping-math -ftree-bit-ccp -ftree-builtin-call-dce
  50              	@ -ftree-ccp -ftree-ch -ftree-copy-prop -ftree-copyrename -ftree-cselim
  51              	@ -ftree-dce -ftree-dominator-opts -ftree-dse -ftree-forwprop -ftree-fre
  52              	@ -ftree-loop-if-convert -ftree-loop-im -ftree-loop-ivcanon
  53              	@ -ftree-loop-optimize -ftree-parallelize-loops= -ftree-phiprop -ftree-pre
  54              	@ -ftree-pta -ftree-reassoc -ftree-scev-cprop -ftree-sink
  55              	@ -ftree-slp-vectorize -ftree-sra -ftree-switch-conversion
  56              	@ -ftree-tail-merge -ftree-ter -ftree-vect-loop-version -ftree-vrp
  57              	@ -funit-at-a-time -funroll-loops -fvar-tracking -fvar-tracking-assignments
ARM GAS  /tmp/ccAXdZ8j.s 			page 2


  58              	@ -fverbose-asm -fweb -fzero-initialized-in-bss -mfix-cortex-m3-ldrd
  59              	@ -mlittle-endian -msched-prolog -mthumb -munaligned-access
  60              	@ -mvectorize-with-neon-quad
  61              	
  62              		.text
  63              	.Ltext0:
  64              		.cfi_sections	.debug_frame
  65              		.section	.text._close_r,"ax",%progbits
  66              		.align	1
  67              		.global	_close_r
  68              		.thumb
  69              		.thumb_func
  70              		.type	_close_r, %function
  71              	_close_r:
  72              	.LFB0:
  73              		.file 1 "syscalls.c"
   1:syscalls.c    **** /**
   2:syscalls.c    ****  * \file syscalls.c
   3:syscalls.c    ****  * \brief System calls for newlib's libc
   4:syscalls.c    ****  *
   5:syscalls.c    ****  * System calls for newlib's libc
   6:syscalls.c    ****  *
   7:syscalls.c    ****  * \author Freddie Chopin, http://www.freddiechopin.info http://www.distortec.com
   8:syscalls.c    ****  * \date 2012-08-24
   9:syscalls.c    ****  */
  10:syscalls.c    **** 
  11:syscalls.c    **** #ifdef __cplusplus
  12:syscalls.c    **** extern "C" {
  13:syscalls.c    **** #endif
  14:syscalls.c    **** 
  15:syscalls.c    **** #include <errno.h>
  16:syscalls.c    **** #include <sys/types.h>
  17:syscalls.c    **** #include <sys/stat.h>
  18:syscalls.c    **** #include <sys/times.h>
  19:syscalls.c    **** 
  20:syscalls.c    **** /*-------------------------------------------------------------------------------------------------
  21:syscalls.c    **** | configuration
  22:syscalls.c    **** +--------------------------------------------------------------------------------------------------
  23:syscalls.c    **** 
  24:syscalls.c    **** #define SYSCALLS_HAVE_CLOSE_R		1
  25:syscalls.c    **** #define SYSCALLS_HAVE_EXECVE_R		1
  26:syscalls.c    **** #define SYSCALLS_HAVE_EXIT			1
  27:syscalls.c    **** #define SYSCALLS_HAVE_FORK_R		1
  28:syscalls.c    **** #define SYSCALLS_HAVE_FSTAT_R		1
  29:syscalls.c    **** #define SYSCALLS_HAVE_GETPID_R		1
  30:syscalls.c    **** #define SYSCALLS_HAVE_ISATTY_R		1
  31:syscalls.c    **** #define SYSCALLS_HAVE_KILL_R		1
  32:syscalls.c    **** #define SYSCALLS_HAVE_LINK_R		1
  33:syscalls.c    **** #define SYSCALLS_HAVE_LSEEK_R		1
  34:syscalls.c    **** #define SYSCALLS_HAVE_OPEN_R		1
  35:syscalls.c    **** #define SYSCALLS_HAVE_READ_R		1
  36:syscalls.c    **** #define SYSCALLS_HAVE_SBRK_R		1
  37:syscalls.c    **** #define SYSCALLS_HAVE_STAT_R		1
  38:syscalls.c    **** #define SYSCALLS_HAVE_TIMES_R		1
  39:syscalls.c    **** #define SYSCALLS_HAVE_UNLINK_R		1
  40:syscalls.c    **** #define SYSCALLS_HAVE_WAIT_R		1
  41:syscalls.c    **** #define SYSCALLS_HAVE_WRITE_R		1
ARM GAS  /tmp/ccAXdZ8j.s 			page 3


  42:syscalls.c    **** 
  43:syscalls.c    **** /*-------------------------------------------------------------------------------------------------
  44:syscalls.c    **** | global variables
  45:syscalls.c    **** +--------------------------------------------------------------------------------------------------
  46:syscalls.c    **** 
  47:syscalls.c    **** char *environ_initial[1] = {0};
  48:syscalls.c    **** char **environ = environ_initial;
  49:syscalls.c    **** 
  50:syscalls.c    **** #undef errno
  51:syscalls.c    **** extern int errno;
  52:syscalls.c    **** 
  53:syscalls.c    **** /*-------------------------------------------------------------------------------------------------
  54:syscalls.c    **** | global functions
  55:syscalls.c    **** +--------------------------------------------------------------------------------------------------
  56:syscalls.c    **** 
  57:syscalls.c    **** #if SYSCALLS_HAVE_CLOSE_R == 1
  58:syscalls.c    **** 
  59:syscalls.c    **** /**
  60:syscalls.c    ****  * \brief Close a file.
  61:syscalls.c    ****  *
  62:syscalls.c    ****  * Close a file.
  63:syscalls.c    ****  *
  64:syscalls.c    ****  * \param [in] file indicates the file descriptor to close.
  65:syscalls.c    ****  *
  66:syscalls.c    ****  * \return -1 for failure.
  67:syscalls.c    ****  */
  68:syscalls.c    **** 
  69:syscalls.c    **** int _close_r(struct _reent *r, int file)
  70:syscalls.c    **** {
  74              		.loc 1 70 0
  75              		.cfi_startproc
  76              		@ args = 0, pretend = 0, frame = 0
  77              		@ frame_needed = 0, uses_anonymous_args = 0
  78              		@ link register save eliminated.
  79              	.LVL0:
  71:syscalls.c    **** 	(void)r;								// suppress warning
  72:syscalls.c    **** 	(void)file;								// suppress warning
  73:syscalls.c    **** 
  74:syscalls.c    **** 	return -1;
  75:syscalls.c    **** }
  80              		.loc 1 75 0
  81 0000 4FF0FF30 		mov	r0, #-1	@,
  82              	.LVL1:
  83 0004 7047     		bx	lr	@
  84              		.cfi_endproc
  85              	.LFE0:
  86              		.size	_close_r, .-_close_r
  87              		.section	.text._execve_r,"ax",%progbits
  88              		.align	1
  89              		.global	_execve_r
  90              		.thumb
  91              		.thumb_func
  92              		.type	_execve_r, %function
  93              	_execve_r:
  94              	.LFB1:
  76:syscalls.c    **** 
  77:syscalls.c    **** #endif
ARM GAS  /tmp/ccAXdZ8j.s 			page 4


  78:syscalls.c    **** 
  79:syscalls.c    **** #if SYSCALLS_HAVE_EXECVE_R == 1
  80:syscalls.c    **** 
  81:syscalls.c    **** /**
  82:syscalls.c    ****  * \brief Transfer control to a new process.
  83:syscalls.c    ****  *
  84:syscalls.c    ****  * Transfer control to a new process.
  85:syscalls.c    ****  *
  86:syscalls.c    ****  * \param [in] path specifies the path name of the new process image file.
  87:syscalls.c    ****  * \param [in] argv is the argument list for the new process image. This should contain an array of
  88:syscalls.c    ****  * character strings, and the array should be terminated by a NULL pointer. The value in argv[0] sh
  89:syscalls.c    ****  * name that is associated with the process being started by the exec() function.
  90:syscalls.c    ****  * \param [in] envp specifies the environment for the new process image. This should contain an arr
  91:syscalls.c    ****  * character strings, and the array should be terminated by a NULL pointer.
  92:syscalls.c    ****  *
  93:syscalls.c    ****  * \return -1 for failure.
  94:syscalls.c    ****  */
  95:syscalls.c    **** 
  96:syscalls.c    **** int _execve_r(struct _reent *r, const char *path, char *const argv[], char *const envp[])
  97:syscalls.c    **** {
  95              		.loc 1 97 0
  96              		.cfi_startproc
  97              		@ args = 0, pretend = 0, frame = 0
  98              		@ frame_needed = 0, uses_anonymous_args = 0
  99              		@ link register save eliminated.
 100              	.LVL2:
  98:syscalls.c    **** 	(void)r;								// suppress warning
  99:syscalls.c    **** 	(void)path;								// suppress warning
 100:syscalls.c    **** 	(void)argv;								// suppress warning
 101:syscalls.c    **** 	(void)envp;								// suppress warning
 102:syscalls.c    **** 
 103:syscalls.c    **** 	errno = ENOMEM;
 101              		.loc 1 103 0
 102 0000 024B     		ldr	r3, .L3	@ tmp139,
 103              	.LVL3:
 104 0002 0C22     		movs	r2, #12	@ tmp140,
 105              	.LVL4:
 106 0004 1A60     		str	r2, [r3, #0]	@ tmp140, errno
 104:syscalls.c    **** 	return -1;
 105:syscalls.c    **** }
 107              		.loc 1 105 0
 108 0006 4FF0FF30 		mov	r0, #-1	@,
 109              	.LVL5:
 110 000a 7047     		bx	lr	@
 111              	.L4:
 112              		.align	2
 113              	.L3:
 114 000c 00000000 		.word	errno
 115              		.cfi_endproc
 116              	.LFE1:
 117              		.size	_execve_r, .-_execve_r
 118              		.section	.text._exit,"ax",%progbits
 119              		.align	1
 120              		.global	_exit
 121              		.thumb
 122              		.thumb_func
 123              		.type	_exit, %function
ARM GAS  /tmp/ccAXdZ8j.s 			page 5


 124              	_exit:
 125              	.LFB2:
 106:syscalls.c    **** 
 107:syscalls.c    **** #endif
 108:syscalls.c    **** 
 109:syscalls.c    **** #if SYSCALLS_HAVE_EXIT == 1
 110:syscalls.c    **** 
 111:syscalls.c    **** /**
 112:syscalls.c    ****  * \brief Exit a program.
 113:syscalls.c    ****  *
 114:syscalls.c    ****  * Exit a program without cleaning up files.
 115:syscalls.c    ****  *
 116:syscalls.c    ****  * \param [in] status represents the termination status.
 117:syscalls.c    ****  */
 118:syscalls.c    **** 
 119:syscalls.c    **** void _exit(int status)
 120:syscalls.c    **** {
 126              		.loc 1 120 0
 127              		.cfi_startproc
 128              		@ Volatile: function does not return.
 129              		@ args = 0, pretend = 0, frame = 0
 130              		@ frame_needed = 0, uses_anonymous_args = 0
 131              		@ link register save eliminated.
 132              	.LVL6:
 133              	.L6:
 134 0000 FEE7     		b	.L6	@
 135              		.cfi_endproc
 136              	.LFE2:
 137              		.size	_exit, .-_exit
 138              		.section	.text._fork_r,"ax",%progbits
 139              		.align	1
 140              		.global	_fork_r
 141              		.thumb
 142              		.thumb_func
 143              		.type	_fork_r, %function
 144              	_fork_r:
 145              	.LFB3:
 121:syscalls.c    **** 	(void)status;							// suppress warning
 122:syscalls.c    **** 
 123:syscalls.c    **** 	while (1);
 124:syscalls.c    **** }
 125:syscalls.c    **** 
 126:syscalls.c    **** #endif
 127:syscalls.c    **** 
 128:syscalls.c    **** #if SYSCALLS_HAVE_FORK_R == 1
 129:syscalls.c    **** 
 130:syscalls.c    **** /**
 131:syscalls.c    ****  * \brief Create a new process.
 132:syscalls.c    ****  *
 133:syscalls.c    ****  * Create a new process.
 134:syscalls.c    ****  *
 135:syscalls.c    ****  * \return -1 for failure.
 136:syscalls.c    ****  */
 137:syscalls.c    **** 
 138:syscalls.c    **** pid_t _fork_r(struct _reent *r)
 139:syscalls.c    **** {
 146              		.loc 1 139 0
ARM GAS  /tmp/ccAXdZ8j.s 			page 6


 147              		.cfi_startproc
 148              		@ args = 0, pretend = 0, frame = 0
 149              		@ frame_needed = 0, uses_anonymous_args = 0
 150              		@ link register save eliminated.
 151              	.LVL7:
 140:syscalls.c    **** 	(void)r;								// suppress warning
 141:syscalls.c    **** 
 142:syscalls.c    **** 	errno = EAGAIN;
 152              		.loc 1 142 0
 153 0000 024B     		ldr	r3, .L8	@ tmp136,
 154 0002 0B22     		movs	r2, #11	@ tmp137,
 155 0004 1A60     		str	r2, [r3, #0]	@ tmp137, errno
 143:syscalls.c    **** 	return -1;
 144:syscalls.c    **** }
 156              		.loc 1 144 0
 157 0006 4FF0FF30 		mov	r0, #-1	@,
 158              	.LVL8:
 159 000a 7047     		bx	lr	@
 160              	.L9:
 161              		.align	2
 162              	.L8:
 163 000c 00000000 		.word	errno
 164              		.cfi_endproc
 165              	.LFE3:
 166              		.size	_fork_r, .-_fork_r
 167              		.section	.text._fstat_r,"ax",%progbits
 168              		.align	1
 169              		.global	_fstat_r
 170              		.thumb
 171              		.thumb_func
 172              		.type	_fstat_r, %function
 173              	_fstat_r:
 174              	.LFB4:
 145:syscalls.c    **** 
 146:syscalls.c    **** #endif
 147:syscalls.c    **** 
 148:syscalls.c    **** #if SYSCALLS_HAVE_FSTAT_R == 1
 149:syscalls.c    **** 
 150:syscalls.c    **** /**
 151:syscalls.c    ****  * \brief Status of an open file.
 152:syscalls.c    ****  *
 153:syscalls.c    ****  * Status of an open file.
 154:syscalls.c    ****  *
 155:syscalls.c    ****  * \param [in] file is a file descriptor referring to a file for which status is returned.
 156:syscalls.c    ****  * \param [out] st points to a stat structure where status information about the file is to be plac
 157:syscalls.c    ****  *
 158:syscalls.c    ****  * \return 0 for success.
 159:syscalls.c    ****  */
 160:syscalls.c    **** 
 161:syscalls.c    **** int _fstat_r(struct _reent *r, int file, struct stat *st)
 162:syscalls.c    **** {
 175              		.loc 1 162 0
 176              		.cfi_startproc
 177              		@ args = 0, pretend = 0, frame = 0
 178              		@ frame_needed = 0, uses_anonymous_args = 0
 179              		@ link register save eliminated.
 180              	.LVL9:
ARM GAS  /tmp/ccAXdZ8j.s 			page 7


 163:syscalls.c    **** 	(void)r;								// suppress warning
 164:syscalls.c    **** 	(void)file;								// suppress warning
 165:syscalls.c    **** 	(void)st;								// suppress warning
 166:syscalls.c    **** 
 167:syscalls.c    **** 	st->st_mode = S_IFCHR;
 181              		.loc 1 167 0
 182 0000 4FF40053 		mov	r3, #8192	@ tmp138,
 183 0004 5360     		str	r3, [r2, #4]	@ tmp138, st_1(D)->st_mode
 168:syscalls.c    **** 	return 0;
 169:syscalls.c    **** }
 184              		.loc 1 169 0
 185 0006 0020     		movs	r0, #0	@,
 186              	.LVL10:
 187 0008 7047     		bx	lr	@
 188              		.cfi_endproc
 189              	.LFE4:
 190              		.size	_fstat_r, .-_fstat_r
 191              		.section	.text._getpid_r,"ax",%progbits
 192              		.align	1
 193              		.global	_getpid_r
 194              		.thumb
 195              		.thumb_func
 196              		.type	_getpid_r, %function
 197              	_getpid_r:
 198              	.LFB5:
 170:syscalls.c    **** 
 171:syscalls.c    **** #endif
 172:syscalls.c    **** 
 173:syscalls.c    **** #if SYSCALLS_HAVE_GETPID_R == 1
 174:syscalls.c    **** 
 175:syscalls.c    **** /**
 176:syscalls.c    ****  * \brief Get calling process ID.
 177:syscalls.c    ****  *
 178:syscalls.c    ****  * Get calling process ID.
 179:syscalls.c    ****  *
 180:syscalls.c    ****  * \return 1.
 181:syscalls.c    ****  */
 182:syscalls.c    **** 
 183:syscalls.c    **** pid_t _getpid_r(struct _reent *r)
 184:syscalls.c    **** {
 199              		.loc 1 184 0
 200              		.cfi_startproc
 201              		@ args = 0, pretend = 0, frame = 0
 202              		@ frame_needed = 0, uses_anonymous_args = 0
 203              		@ link register save eliminated.
 204              	.LVL11:
 185:syscalls.c    **** 	(void)r;								// suppress warning
 186:syscalls.c    **** 
 187:syscalls.c    **** 	return 1;
 188:syscalls.c    **** }
 205              		.loc 1 188 0
 206 0000 0120     		movs	r0, #1	@,
 207              	.LVL12:
 208 0002 7047     		bx	lr	@
 209              		.cfi_endproc
 210              	.LFE5:
 211              		.size	_getpid_r, .-_getpid_r
ARM GAS  /tmp/ccAXdZ8j.s 			page 8


 212              		.section	.text._isatty_r,"ax",%progbits
 213              		.align	1
 214              		.global	_isatty_r
 215              		.thumb
 216              		.thumb_func
 217              		.type	_isatty_r, %function
 218              	_isatty_r:
 219              	.LFB6:
 189:syscalls.c    **** 
 190:syscalls.c    **** #endif
 191:syscalls.c    **** 
 192:syscalls.c    **** #if SYSCALLS_HAVE_ISATTY_R == 1
 193:syscalls.c    **** 
 194:syscalls.c    **** /**
 195:syscalls.c    ****  * \brief Query whether output stream is a terminal.
 196:syscalls.c    ****  *
 197:syscalls.c    ****  * Query whether output stream is a terminal.
 198:syscalls.c    ****  *
 199:syscalls.c    ****  * \param [in] file is the file descriptor to test.
 200:syscalls.c    ****  *
 201:syscalls.c    ****  * \return 1.
 202:syscalls.c    ****  */
 203:syscalls.c    **** 
 204:syscalls.c    **** int _isatty_r(struct _reent *r, int file)
 205:syscalls.c    **** {
 220              		.loc 1 205 0
 221              		.cfi_startproc
 222              		@ args = 0, pretend = 0, frame = 0
 223              		@ frame_needed = 0, uses_anonymous_args = 0
 224              		@ link register save eliminated.
 225              	.LVL13:
 206:syscalls.c    **** 	(void)r;								// suppress warning
 207:syscalls.c    **** 	(void)file;								// suppress warning
 208:syscalls.c    **** 
 209:syscalls.c    **** 	return 1;
 210:syscalls.c    **** }
 226              		.loc 1 210 0
 227 0000 0120     		movs	r0, #1	@,
 228              	.LVL14:
 229 0002 7047     		bx	lr	@
 230              		.cfi_endproc
 231              	.LFE6:
 232              		.size	_isatty_r, .-_isatty_r
 233              		.section	.text._kill_r,"ax",%progbits
 234              		.align	1
 235              		.global	_kill_r
 236              		.thumb
 237              		.thumb_func
 238              		.type	_kill_r, %function
 239              	_kill_r:
 240              	.LFB7:
 211:syscalls.c    **** 
 212:syscalls.c    **** #endif
 213:syscalls.c    **** 
 214:syscalls.c    **** #if SYSCALLS_HAVE_KILL_R == 1
 215:syscalls.c    **** 
 216:syscalls.c    **** /**
ARM GAS  /tmp/ccAXdZ8j.s 			page 9


 217:syscalls.c    ****  * \brief Send a signal.
 218:syscalls.c    ****  *
 219:syscalls.c    ****  * Send a signal.
 220:syscalls.c    ****  *
 221:syscalls.c    ****  * \param [in] pid is a process ID or process group ID.
 222:syscalls.c    ****  * \param [in] signal specifies the signal to be sent.
 223:syscalls.c    ****  *
 224:syscalls.c    ****  * \return -1 for failure.
 225:syscalls.c    ****  */
 226:syscalls.c    **** 
 227:syscalls.c    **** int _kill_r(struct _reent *r, pid_t pid, int signal)
 228:syscalls.c    **** {
 241              		.loc 1 228 0
 242              		.cfi_startproc
 243              		@ args = 0, pretend = 0, frame = 0
 244              		@ frame_needed = 0, uses_anonymous_args = 0
 245              		@ link register save eliminated.
 246              	.LVL15:
 229:syscalls.c    **** 	(void)r;								// suppress warning
 230:syscalls.c    **** 	(void)pid;								// suppress warning
 231:syscalls.c    **** 	(void)signal;							// suppress warning
 232:syscalls.c    **** 
 233:syscalls.c    **** 	errno = EINVAL;
 247              		.loc 1 233 0
 248 0000 024B     		ldr	r3, .L14	@ tmp138,
 249 0002 1622     		movs	r2, #22	@ tmp139,
 250              	.LVL16:
 251 0004 1A60     		str	r2, [r3, #0]	@ tmp139, errno
 234:syscalls.c    **** 	return -1;
 235:syscalls.c    **** }
 252              		.loc 1 235 0
 253 0006 4FF0FF30 		mov	r0, #-1	@,
 254              	.LVL17:
 255 000a 7047     		bx	lr	@
 256              	.L15:
 257              		.align	2
 258              	.L14:
 259 000c 00000000 		.word	errno
 260              		.cfi_endproc
 261              	.LFE7:
 262              		.size	_kill_r, .-_kill_r
 263              		.section	.text._link_r,"ax",%progbits
 264              		.align	1
 265              		.global	_link_r
 266              		.thumb
 267              		.thumb_func
 268              		.type	_link_r, %function
 269              	_link_r:
 270              	.LFB8:
 236:syscalls.c    **** 
 237:syscalls.c    **** #endif
 238:syscalls.c    **** 
 239:syscalls.c    **** #if SYSCALLS_HAVE_LINK_R == 1
 240:syscalls.c    **** 
 241:syscalls.c    **** /**
 242:syscalls.c    ****  * \brief Establish a new name for an existing file.
 243:syscalls.c    ****  *
ARM GAS  /tmp/ccAXdZ8j.s 			page 10


 244:syscalls.c    ****  * Establish a new name for an existing file.
 245:syscalls.c    ****  *
 246:syscalls.c    ****  * \param [in] old points to a path name that names an existing file.
 247:syscalls.c    ****  * \param [in] new points to a path name that names the new directory entry to be created.
 248:syscalls.c    ****  *
 249:syscalls.c    ****  * \return -1 for failure.
 250:syscalls.c    ****  */
 251:syscalls.c    **** 
 252:syscalls.c    **** int _link_r(struct _reent *r, const char *old, const char *new)
 253:syscalls.c    **** {
 271              		.loc 1 253 0
 272              		.cfi_startproc
 273              		@ args = 0, pretend = 0, frame = 0
 274              		@ frame_needed = 0, uses_anonymous_args = 0
 275              		@ link register save eliminated.
 276              	.LVL18:
 254:syscalls.c    **** 	(void)r;								// suppress warning
 255:syscalls.c    **** 	(void)old;								// suppress warning
 256:syscalls.c    **** 	(void)new;								// suppress warning
 257:syscalls.c    **** 
 258:syscalls.c    **** 	errno = EMLINK;
 277              		.loc 1 258 0
 278 0000 024B     		ldr	r3, .L17	@ tmp138,
 279 0002 1F22     		movs	r2, #31	@ tmp139,
 280              	.LVL19:
 281 0004 1A60     		str	r2, [r3, #0]	@ tmp139, errno
 259:syscalls.c    **** 	return -1;
 260:syscalls.c    **** }
 282              		.loc 1 260 0
 283 0006 4FF0FF30 		mov	r0, #-1	@,
 284              	.LVL20:
 285 000a 7047     		bx	lr	@
 286              	.L18:
 287              		.align	2
 288              	.L17:
 289 000c 00000000 		.word	errno
 290              		.cfi_endproc
 291              	.LFE8:
 292              		.size	_link_r, .-_link_r
 293              		.section	.text._lseek_r,"ax",%progbits
 294              		.align	1
 295              		.global	_lseek_r
 296              		.thumb
 297              		.thumb_func
 298              		.type	_lseek_r, %function
 299              	_lseek_r:
 300              	.LFB9:
 261:syscalls.c    **** 
 262:syscalls.c    **** #endif
 263:syscalls.c    **** 
 264:syscalls.c    **** #if SYSCALLS_HAVE_LSEEK_R == 1
 265:syscalls.c    **** 
 266:syscalls.c    **** /**
 267:syscalls.c    ****  * \brief Set position in a file.
 268:syscalls.c    ****  *
 269:syscalls.c    ****  * Set position in a file.
 270:syscalls.c    ****  *
ARM GAS  /tmp/ccAXdZ8j.s 			page 11


 271:syscalls.c    ****  * \param [in] file is the file descriptor of an open file.
 272:syscalls.c    ****  * \param [in] offset specifies the number of bytes to offset the file pointer from a specified fil
 273:syscalls.c    ****  * \param [in] whence specifies the location from which to start seeking.
 274:syscalls.c    ****  *
 275:syscalls.c    ****  * \return 0 for success.
 276:syscalls.c    ****  */
 277:syscalls.c    **** 
 278:syscalls.c    **** off_t _lseek_r(struct _reent *r, int file, off_t offset, int whence)
 279:syscalls.c    **** {
 301              		.loc 1 279 0
 302              		.cfi_startproc
 303              		@ args = 0, pretend = 0, frame = 0
 304              		@ frame_needed = 0, uses_anonymous_args = 0
 305              		@ link register save eliminated.
 306              	.LVL21:
 280:syscalls.c    **** 	(void)r;								// suppress warning
 281:syscalls.c    **** 	(void)file;								// suppress warning
 282:syscalls.c    **** 	(void)offset;							// suppress warning
 283:syscalls.c    **** 	(void)whence;							// suppress warning
 284:syscalls.c    **** 
 285:syscalls.c    **** 	return 0;
 286:syscalls.c    **** }
 307              		.loc 1 286 0
 308 0000 0020     		movs	r0, #0	@,
 309              	.LVL22:
 310 0002 7047     		bx	lr	@
 311              		.cfi_endproc
 312              	.LFE9:
 313              		.size	_lseek_r, .-_lseek_r
 314              		.section	.text._open_r,"ax",%progbits
 315              		.align	1
 316              		.global	_open_r
 317              		.thumb
 318              		.thumb_func
 319              		.type	_open_r, %function
 320              	_open_r:
 321              	.LFB10:
 287:syscalls.c    **** 
 288:syscalls.c    **** #endif
 289:syscalls.c    **** 
 290:syscalls.c    **** #if SYSCALLS_HAVE_OPEN_R == 1
 291:syscalls.c    **** 
 292:syscalls.c    **** /**
 293:syscalls.c    ****  * \brief Open a file.
 294:syscalls.c    ****  *
 295:syscalls.c    ****  * Open a file.
 296:syscalls.c    ****  *
 297:syscalls.c    ****  * \param [in] pathname is the name of the file to open.
 298:syscalls.c    ****  * \param [in] flags is the bitwise inclusive-OR of the file access modes and file status flags.
 299:syscalls.c    ****  * \param [in] mode specifies what permissions the file has when it is created.
 300:syscalls.c    ****  *
 301:syscalls.c    ****  * \return -1 for failure.
 302:syscalls.c    ****  */
 303:syscalls.c    **** 
 304:syscalls.c    **** int _open_r(struct _reent *r, const char *pathname, int flags, int mode)
 305:syscalls.c    **** {
 322              		.loc 1 305 0
ARM GAS  /tmp/ccAXdZ8j.s 			page 12


 323              		.cfi_startproc
 324              		@ args = 0, pretend = 0, frame = 0
 325              		@ frame_needed = 0, uses_anonymous_args = 0
 326              		@ link register save eliminated.
 327              	.LVL23:
 306:syscalls.c    **** 	(void)r;								// suppress warning
 307:syscalls.c    **** 	(void)pathname;							// suppress warning
 308:syscalls.c    **** 	(void)flags;							// suppress warning
 309:syscalls.c    **** 	(void)mode;								// suppress warning
 310:syscalls.c    **** 
 311:syscalls.c    **** 	return -1;
 312:syscalls.c    **** }
 328              		.loc 1 312 0
 329 0000 4FF0FF30 		mov	r0, #-1	@,
 330              	.LVL24:
 331 0004 7047     		bx	lr	@
 332              		.cfi_endproc
 333              	.LFE10:
 334              		.size	_open_r, .-_open_r
 335              		.section	.text._read_r,"ax",%progbits
 336              		.align	1
 337              		.global	_read_r
 338              		.thumb
 339              		.thumb_func
 340              		.type	_read_r, %function
 341              	_read_r:
 342              	.LFB11:
 313:syscalls.c    **** 
 314:syscalls.c    **** #endif
 315:syscalls.c    **** 
 316:syscalls.c    **** #if SYSCALLS_HAVE_READ_R == 1
 317:syscalls.c    **** 
 318:syscalls.c    **** /**
 319:syscalls.c    ****  * \brief Read from a file.
 320:syscalls.c    ****  *
 321:syscalls.c    ****  * Read from a file.
 322:syscalls.c    ****  *
 323:syscalls.c    ****  * \param [in] file is the file descriptor that references an open file.
 324:syscalls.c    ****  * \param [in] buf points to the buffer to place the read information into.
 325:syscalls.c    ****  * \param [in] nbyte specifies the maximum number of bytes to attempt to read.
 326:syscalls.c    ****  *
 327:syscalls.c    ****  * \return 0 for success.
 328:syscalls.c    ****  */
 329:syscalls.c    **** 
 330:syscalls.c    **** ssize_t _read_r(struct _reent *r, int file, void *buf, size_t nbyte)
 331:syscalls.c    **** {
 343              		.loc 1 331 0
 344              		.cfi_startproc
 345              		@ args = 0, pretend = 0, frame = 0
 346              		@ frame_needed = 0, uses_anonymous_args = 0
 347              		@ link register save eliminated.
 348              	.LVL25:
 332:syscalls.c    **** 	(void)r;								// suppress warning
 333:syscalls.c    **** 	(void)file;								// suppress warning
 334:syscalls.c    **** 	(void)buf;								// suppress warning
 335:syscalls.c    **** 	(void)nbyte;							// suppress warning
 336:syscalls.c    **** 
ARM GAS  /tmp/ccAXdZ8j.s 			page 13


 337:syscalls.c    **** 	return 0;
 338:syscalls.c    **** }
 349              		.loc 1 338 0
 350 0000 0020     		movs	r0, #0	@,
 351              	.LVL26:
 352 0002 7047     		bx	lr	@
 353              		.cfi_endproc
 354              	.LFE11:
 355              		.size	_read_r, .-_read_r
 356              		.section	.text._sbrk_r,"ax",%progbits
 357              		.align	1
 358              		.global	_sbrk_r
 359              		.thumb
 360              		.thumb_func
 361              		.type	_sbrk_r, %function
 362              	_sbrk_r:
 363              	.LFB12:
 339:syscalls.c    **** 
 340:syscalls.c    **** #endif
 341:syscalls.c    **** 
 342:syscalls.c    **** #if SYSCALLS_HAVE_SBRK_R == 1
 343:syscalls.c    **** 
 344:syscalls.c    **** /**
 345:syscalls.c    ****  * \brief Increase program data space.
 346:syscalls.c    ****  *
 347:syscalls.c    ****  * Increase program data space. This version of _sbrk_r() requires the heap area to be defined expl
 348:syscalls.c    ****  * script with symbols __heap_start and __heap_end.
 349:syscalls.c    ****  *
 350:syscalls.c    ****  * \param [in] size is the requested data space size.
 351:syscalls.c    ****  *
 352:syscalls.c    ****  * \return pointer to new data space.
 353:syscalls.c    ****  */
 354:syscalls.c    **** 
 355:syscalls.c    **** caddr_t _sbrk_r(struct _reent *r, int size)
 356:syscalls.c    **** {
 364              		.loc 1 356 0
 365              		.cfi_startproc
 366              		@ args = 0, pretend = 0, frame = 0
 367              		@ frame_needed = 0, uses_anonymous_args = 0
 368              		@ link register save eliminated.
 369              	.LVL27:
 357:syscalls.c    **** 	extern char __heap_start;				// imported from linker script
 358:syscalls.c    **** 	extern char __heap_end;					// imported from linker script
 359:syscalls.c    **** 	static char *current_heap_end = &__heap_start;
 360:syscalls.c    **** 	char *previous_heap_end;
 361:syscalls.c    **** 
 362:syscalls.c    **** 	(void)r;								// suppress warning
 363:syscalls.c    **** 
 364:syscalls.c    **** 	previous_heap_end = current_heap_end;
 370              		.loc 1 364 0
 371 0000 064B     		ldr	r3, .L26	@ tmp140,
 365:syscalls.c    **** 
 366:syscalls.c    **** 	if (current_heap_end + size > &__heap_end)	// is there enough space on the heap left?
 372              		.loc 1 366 0
 373 0002 074A     		ldr	r2, .L26+4	@ tmp141,
 364:syscalls.c    **** 	previous_heap_end = current_heap_end;
 374              		.loc 1 364 0
ARM GAS  /tmp/ccAXdZ8j.s 			page 14


 375 0004 1868     		ldr	r0, [r3, #0]	@ previous_heap_end, current_heap_end
 376              	.LVL28:
 377              		.loc 1 366 0
 378 0006 4118     		adds	r1, r0, r1	@ current_heap_end.2, previous_heap_end, size
 379              	.LVL29:
 380 0008 9142     		cmp	r1, r2	@ current_heap_end.2, tmp141
 381 000a 05D9     		bls	.L23	@,
 367:syscalls.c    **** 	{
 368:syscalls.c    **** 		errno = ENOMEM;						// not enough memory left
 382              		.loc 1 368 0
 383 000c 054B     		ldr	r3, .L26+8	@ tmp142,
 384 000e 0C20     		movs	r0, #12	@ tmp143,
 385              	.LVL30:
 386 0010 1860     		str	r0, [r3, #0]	@ tmp143, errno
 369:syscalls.c    **** 		return (caddr_t) -1;				// return immediatelly
 387              		.loc 1 369 0
 388 0012 4FF0FF30 		mov	r0, #-1	@ previous_heap_end,
 389 0016 7047     		bx	lr	@
 390              	.LVL31:
 391              	.L23:
 370:syscalls.c    **** 	}
 371:syscalls.c    **** 
 372:syscalls.c    **** 	current_heap_end += size;				// increase data space
 392              		.loc 1 372 0
 393 0018 1960     		str	r1, [r3, #0]	@ current_heap_end.2, current_heap_end
 373:syscalls.c    **** 
 374:syscalls.c    **** 	return (caddr_t)previous_heap_end;		// return requested data space
 375:syscalls.c    **** }
 394              		.loc 1 375 0
 395 001a 7047     		bx	lr	@
 396              	.L27:
 397              		.align	2
 398              	.L26:
 399 001c 00000000 		.word	.LANCHOR0
 400 0020 00000000 		.word	__heap_end
 401 0024 00000000 		.word	errno
 402              		.cfi_endproc
 403              	.LFE12:
 404              		.size	_sbrk_r, .-_sbrk_r
 405              		.section	.text._stat_r,"ax",%progbits
 406              		.align	1
 407              		.global	_stat_r
 408              		.thumb
 409              		.thumb_func
 410              		.type	_stat_r, %function
 411              	_stat_r:
 412              	.LFB13:
 376:syscalls.c    **** 
 377:syscalls.c    **** #endif
 378:syscalls.c    **** 
 379:syscalls.c    **** #if SYSCALLS_HAVE_STAT_R == 1
 380:syscalls.c    **** 
 381:syscalls.c    **** /**
 382:syscalls.c    ****  * \brief Status of a file (by name).
 383:syscalls.c    ****  *
 384:syscalls.c    ****  * Status of a file (by name).
 385:syscalls.c    ****  *
ARM GAS  /tmp/ccAXdZ8j.s 			page 15


 386:syscalls.c    ****  * \param [in] pathname points to a path name that names a file.
 387:syscalls.c    ****  * \param [out] st points to a stat structure where status information about the file is to be plac
 388:syscalls.c    ****  *
 389:syscalls.c    ****  * \return 0 for success.
 390:syscalls.c    ****  */
 391:syscalls.c    **** 
 392:syscalls.c    **** int _stat_r(struct _reent *r, const char *pathname, struct stat *st)
 393:syscalls.c    **** {
 413              		.loc 1 393 0
 414              		.cfi_startproc
 415              		@ args = 0, pretend = 0, frame = 0
 416              		@ frame_needed = 0, uses_anonymous_args = 0
 417              		@ link register save eliminated.
 418              	.LVL32:
 394:syscalls.c    **** 	(void)r;								// suppress warning
 395:syscalls.c    **** 	(void)pathname;							// suppress warning
 396:syscalls.c    **** 
 397:syscalls.c    **** 	st->st_mode = S_IFCHR;
 419              		.loc 1 397 0
 420 0000 4FF40053 		mov	r3, #8192	@ tmp138,
 421 0004 5360     		str	r3, [r2, #4]	@ tmp138, st_1(D)->st_mode
 398:syscalls.c    **** 	return 0;
 399:syscalls.c    **** }
 422              		.loc 1 399 0
 423 0006 0020     		movs	r0, #0	@,
 424              	.LVL33:
 425 0008 7047     		bx	lr	@
 426              		.cfi_endproc
 427              	.LFE13:
 428              		.size	_stat_r, .-_stat_r
 429              		.section	.text._times_r,"ax",%progbits
 430              		.align	1
 431              		.global	_times_r
 432              		.thumb
 433              		.thumb_func
 434              		.type	_times_r, %function
 435              	_times_r:
 436              	.LFB14:
 400:syscalls.c    **** 
 401:syscalls.c    **** #endif
 402:syscalls.c    **** 
 403:syscalls.c    **** #if SYSCALLS_HAVE_TIMES_R == 1
 404:syscalls.c    **** 
 405:syscalls.c    **** /**
 406:syscalls.c    ****  * \brief Timing information for current process.
 407:syscalls.c    ****  *
 408:syscalls.c    ****  * Timing information for current process.
 409:syscalls.c    ****  *
 410:syscalls.c    ****  * \param [out] buf points to a tms structure where timing information about the process is to be p
 411:syscalls.c    ****  *
 412:syscalls.c    ****  * \return -1 for failure.
 413:syscalls.c    ****  */
 414:syscalls.c    **** 
 415:syscalls.c    **** int _times_r(struct _reent *r, struct tms *buf)
 416:syscalls.c    **** {
 437              		.loc 1 416 0
 438              		.cfi_startproc
ARM GAS  /tmp/ccAXdZ8j.s 			page 16


 439              		@ args = 0, pretend = 0, frame = 0
 440              		@ frame_needed = 0, uses_anonymous_args = 0
 441              		@ link register save eliminated.
 442              	.LVL34:
 417:syscalls.c    **** 	(void)r;								// suppress warning
 418:syscalls.c    **** 	(void)buf;								// suppress warning
 419:syscalls.c    **** 
 420:syscalls.c    **** 	return -1;
 421:syscalls.c    **** }
 443              		.loc 1 421 0
 444 0000 4FF0FF30 		mov	r0, #-1	@,
 445              	.LVL35:
 446 0004 7047     		bx	lr	@
 447              		.cfi_endproc
 448              	.LFE14:
 449              		.size	_times_r, .-_times_r
 450              		.section	.text._unlink_r,"ax",%progbits
 451              		.align	1
 452              		.global	_unlink_r
 453              		.thumb
 454              		.thumb_func
 455              		.type	_unlink_r, %function
 456              	_unlink_r:
 457              	.LFB15:
 422:syscalls.c    **** 
 423:syscalls.c    **** #endif
 424:syscalls.c    **** 
 425:syscalls.c    **** #if SYSCALLS_HAVE_UNLINK_R == 1
 426:syscalls.c    **** 
 427:syscalls.c    **** /**
 428:syscalls.c    ****  * \brief Remove a file’s directory entry.
 429:syscalls.c    ****  *
 430:syscalls.c    ****  * Remove a file’s directory entry.
 431:syscalls.c    ****  *
 432:syscalls.c    ****  * \param [in] pathname points to the path name that names the file to be unlinked.
 433:syscalls.c    ****  *
 434:syscalls.c    ****  * \return -1 for failure.
 435:syscalls.c    ****  */
 436:syscalls.c    **** 
 437:syscalls.c    **** int _unlink_r(struct _reent *r, const char *pathname)
 438:syscalls.c    **** {
 458              		.loc 1 438 0
 459              		.cfi_startproc
 460              		@ args = 0, pretend = 0, frame = 0
 461              		@ frame_needed = 0, uses_anonymous_args = 0
 462              		@ link register save eliminated.
 463              	.LVL36:
 439:syscalls.c    **** 	(void)r;								// suppress warning
 440:syscalls.c    **** 	(void)pathname;							// suppress warning
 441:syscalls.c    **** 
 442:syscalls.c    **** 	errno = ENOENT;
 464              		.loc 1 442 0
 465 0000 024B     		ldr	r3, .L31	@ tmp137,
 466 0002 0222     		movs	r2, #2	@ tmp138,
 467 0004 1A60     		str	r2, [r3, #0]	@ tmp138, errno
 443:syscalls.c    **** 	return -1;
 444:syscalls.c    **** }
ARM GAS  /tmp/ccAXdZ8j.s 			page 17


 468              		.loc 1 444 0
 469 0006 4FF0FF30 		mov	r0, #-1	@,
 470              	.LVL37:
 471 000a 7047     		bx	lr	@
 472              	.L32:
 473              		.align	2
 474              	.L31:
 475 000c 00000000 		.word	errno
 476              		.cfi_endproc
 477              	.LFE15:
 478              		.size	_unlink_r, .-_unlink_r
 479              		.section	.text._wait_r,"ax",%progbits
 480              		.align	1
 481              		.global	_wait_r
 482              		.thumb
 483              		.thumb_func
 484              		.type	_wait_r, %function
 485              	_wait_r:
 486              	.LFB16:
 445:syscalls.c    **** 
 446:syscalls.c    **** #endif
 447:syscalls.c    **** 
 448:syscalls.c    **** #if SYSCALLS_HAVE_WAIT_R == 1
 449:syscalls.c    **** 
 450:syscalls.c    **** /**
 451:syscalls.c    ****  * \brief Wait for a child process.
 452:syscalls.c    ****  *
 453:syscalls.c    ****  * Wait for a child process.
 454:syscalls.c    ****  *
 455:syscalls.c    ****  * \param [in,out] stat_loc specifies the location where the child process' exit status is stored.
 456:syscalls.c    ****  *
 457:syscalls.c    ****  * \return -1 for failure.
 458:syscalls.c    ****  */
 459:syscalls.c    **** 
 460:syscalls.c    **** pid_t _wait_r(struct _reent *r, int *stat_loc)
 461:syscalls.c    **** {
 487              		.loc 1 461 0
 488              		.cfi_startproc
 489              		@ args = 0, pretend = 0, frame = 0
 490              		@ frame_needed = 0, uses_anonymous_args = 0
 491              		@ link register save eliminated.
 492              	.LVL38:
 462:syscalls.c    **** 	(void)r;								// suppress warning
 463:syscalls.c    **** 	(void)stat_loc;							// suppress warning
 464:syscalls.c    **** 
 465:syscalls.c    **** 	errno = ECHILD;
 493              		.loc 1 465 0
 494 0000 024B     		ldr	r3, .L34	@ tmp137,
 495 0002 0A22     		movs	r2, #10	@ tmp138,
 496 0004 1A60     		str	r2, [r3, #0]	@ tmp138, errno
 466:syscalls.c    **** 	return -1;
 467:syscalls.c    **** }
 497              		.loc 1 467 0
 498 0006 4FF0FF30 		mov	r0, #-1	@,
 499              	.LVL39:
 500 000a 7047     		bx	lr	@
 501              	.L35:
ARM GAS  /tmp/ccAXdZ8j.s 			page 18


 502              		.align	2
 503              	.L34:
 504 000c 00000000 		.word	errno
 505              		.cfi_endproc
 506              	.LFE16:
 507              		.size	_wait_r, .-_wait_r
 508              		.section	.text._write_r,"ax",%progbits
 509              		.align	1
 510              		.global	_write_r
 511              		.thumb
 512              		.thumb_func
 513              		.type	_write_r, %function
 514              	_write_r:
 515              	.LFB17:
 468:syscalls.c    **** 
 469:syscalls.c    **** #endif
 470:syscalls.c    **** 
 471:syscalls.c    **** #if SYSCALLS_HAVE_WRITE_R == 1
 472:syscalls.c    **** 
 473:syscalls.c    **** /**
 474:syscalls.c    ****  * \brief Write to a file.
 475:syscalls.c    ****  *
 476:syscalls.c    ****  * Write to a file. ‘libc’ subroutines will use this system routine for output to all files, includ
 477:syscalls.c    ****  *
 478:syscalls.c    ****  * \param [in] file is the file descriptor of an open file to write to.
 479:syscalls.c    ****  * \param [in] buf is an array of data to write to the open file.
 480:syscalls.c    ****  * \param [in] nbyte is the number of bytes to write to the file.
 481:syscalls.c    ****  *
 482:syscalls.c    ****  * \return 0 for success.
 483:syscalls.c    ****  */
 484:syscalls.c    **** 
 485:syscalls.c    **** ssize_t _write_r(struct _reent *r, int file, const void *buf, size_t nbyte)
 486:syscalls.c    **** {
 516              		.loc 1 486 0
 517              		.cfi_startproc
 518              		@ args = 0, pretend = 0, frame = 0
 519              		@ frame_needed = 0, uses_anonymous_args = 0
 520              		@ link register save eliminated.
 521              	.LVL40:
 487:syscalls.c    **** 	(void)r;								// suppress warning
 488:syscalls.c    **** 	(void)file;								// suppress warning
 489:syscalls.c    **** 	(void)buf;								// suppress warning
 490:syscalls.c    **** 	(void)nbyte;							// suppress warning
 491:syscalls.c    **** 
 492:syscalls.c    **** 	return 0;
 493:syscalls.c    **** }
 522              		.loc 1 493 0
 523 0000 0020     		movs	r0, #0	@,
 524              	.LVL41:
 525 0002 7047     		bx	lr	@
 526              		.cfi_endproc
 527              	.LFE17:
 528              		.size	_write_r, .-_write_r
 529              		.global	environ
 530              		.global	environ_initial
 531              		.section	.data.current_heap_end.4447,"aw",%progbits
 532              		.align	2
ARM GAS  /tmp/ccAXdZ8j.s 			page 19


 533              		.set	.LANCHOR0,. + 0
 534              		.type	current_heap_end.4447, %object
 535              		.size	current_heap_end.4447, 4
 536              	current_heap_end.4447:
 537 0000 00000000 		.word	__heap_start
 538              		.section	.bss.environ_initial,"aw",%nobits
 539              		.align	2
 540              		.type	environ_initial, %object
 541              		.size	environ_initial, 4
 542              	environ_initial:
 543 0000 00000000 		.space	4
 544              		.section	.data.environ,"aw",%progbits
 545              		.align	2
 546              		.type	environ, %object
 547              		.size	environ, 4
 548              	environ:
 549 0000 00000000 		.word	environ_initial
 550              		.text
 551              	.Letext0:
 552              		.file 2 "/home/maciek/gcc-arm-none-eabi/gcc-arm-none-eabi-4_7-2013q1/bin/../lib/gcc/arm-none-eabi/
 553              		.file 3 "/home/maciek/gcc-arm-none-eabi/gcc-arm-none-eabi-4_7-2013q1/bin/../lib/gcc/arm-none-eabi/
 554              		.file 4 "/home/maciek/gcc-arm-none-eabi/gcc-arm-none-eabi-4_7-2013q1/bin/../lib/gcc/arm-none-eabi/
 555              		.file 5 "/home/maciek/gcc-arm-none-eabi/gcc-arm-none-eabi-4_7-2013q1/bin/../lib/gcc/arm-none-eabi/
 556              		.file 6 "/home/maciek/gcc-arm-none-eabi/gcc-arm-none-eabi-4_7-2013q1/bin/../lib/gcc/arm-none-eabi/
 557              		.file 7 "/home/maciek/gcc-arm-none-eabi/gcc-arm-none-eabi-4_7-2013q1/bin/../lib/gcc/arm-none-eabi/
 558              		.file 8 "/home/maciek/gcc-arm-none-eabi/gcc-arm-none-eabi-4_7-2013q1/bin/../lib/gcc/arm-none-eabi/