ARM GAS  /tmp/ccKf5DKE.s 			page 1


   1              		.syntax unified
   2              		.cpu cortex-m3
   3              		.fpu softvfp
   4              		.eabi_attribute 20, 1	@ Tag_ABI_FP_denormal
   5              		.eabi_attribute 21, 1	@ Tag_ABI_FP_exceptions
   6              		.eabi_attribute 23, 3	@ Tag_ABI_FP_number_model
   7              		.eabi_attribute 24, 1	@ Tag_ABI_align8_needed
   8              		.eabi_attribute 25, 1	@ Tag_ABI_align8_preserved
   9              		.eabi_attribute 26, 1	@ Tag_ABI_enum_size
  10              		.eabi_attribute 30, 6	@ Tag_ABI_optimization_goals
  11              		.eabi_attribute 34, 1	@ Tag_CPU_unaligned_access
  12              		.eabi_attribute 18, 4	@ Tag_ABI_PCS_wchar_t
  13              		.file	"system_stm32l1xx.c"
  14              	@ GNU C (GNU Tools for ARM Embedded Processors) version 4.7.3 20130312 (release) [ARM/embedded-4_7-
  15              	@	compiled by GNU C version 4.3.6, GMP version 4.3.2, MPFR version 2.4.2, MPC version 0.8.1
  16              	@ GGC heuristics: --param ggc-min-expand=100 --param ggc-min-heapsize=131072
  17              	@ options passed:  -I . -I Src -I hdr -I Inc -I Middlewares
  18              	@ -I Middlewares/ST -I Middlewares/ST/STM32_USB_Device_Library/Class/CDC
  19              	@ -I Middlewares/ST/STM32_USB_Device_Library/Core -I Drivers
  20              	@ -I Drivers/CMSIS -I Drivers/CMSIS/Device/ST/STM32L1xx
  21              	@ -I Drivers/CMSIS/Include -I Drivers/STM32L1xx_HAL_Driver
  22              	@ -imultilib armv7-m
  23              	@ -iprefix /home/maciek/gcc-arm-none-eabi/gcc-arm-none-eabi-4_7-2013q1/bin/../lib/gcc/arm-none-eabi
  24              	@ -isysroot /home/maciek/gcc-arm-none-eabi/gcc-arm-none-eabi-4_7-2013q1/bin/../arm-none-eabi
  25              	@ -MD out/system_stm32l1xx.d -MF out/system_stm32l1xx.d -MP
  26              	@ -MQ out/system_stm32l1xx.o -D__USES_INITFINI__ -D STM32L1XX_MD
  27              	@ Drivers/CMSIS/Device/ST/STM32L1xx/system_stm32l1xx.c -mcpu=cortex-m3
  28              	@ -mthumb -auxbase-strip out/system_stm32l1xx.o -g -ggdb3 -O0 -Wall
  29              	@ -Wstrict-prototypes -Wextra -std=c11 -ffunction-sections -fdata-sections
  30              	@ -fverbose-asm
  31              	@ options enabled:  -fauto-inc-dec -fbranch-count-reg -fcommon
  32              	@ -fdata-sections -fdebug-types-section -fdelete-null-pointer-checks
  33              	@ -fdwarf2-cfi-asm -fearly-inlining -feliminate-unused-debug-types
  34              	@ -ffunction-cse -ffunction-sections -fgcse-lm -fgnu-runtime -fident
  35              	@ -finline-atomics -fira-share-save-slots -fira-share-spill-slots -fivopts
  36              	@ -fkeep-static-consts -fleading-underscore -fmath-errno
  37              	@ -fmerge-debug-strings -fmove-loop-invariants -fpeephole
  38              	@ -fprefetch-loop-arrays -freg-struct-return
  39              	@ -fsched-critical-path-heuristic -fsched-dep-count-heuristic
  40              	@ -fsched-group-heuristic -fsched-interblock -fsched-last-insn-heuristic
  41              	@ -fsched-rank-heuristic -fsched-spec -fsched-spec-insn-heuristic
  42              	@ -fsched-stalled-insns-dep -fshow-column -fsigned-zeros
  43              	@ -fsplit-ivs-in-unroller -fstrict-volatile-bitfields -ftrapping-math
  44              	@ -ftree-cselim -ftree-forwprop -ftree-loop-if-convert -ftree-loop-im
  45              	@ -ftree-loop-ivcanon -ftree-loop-optimize -ftree-parallelize-loops=
  46              	@ -ftree-phiprop -ftree-pta -ftree-reassoc -ftree-scev-cprop
  47              	@ -ftree-slp-vectorize -ftree-vect-loop-version -funit-at-a-time
  48              	@ -fverbose-asm -fzero-initialized-in-bss -mfix-cortex-m3-ldrd
  49              	@ -mlittle-endian -msched-prolog -mthumb -munaligned-access
  50              	@ -mvectorize-with-neon-quad
  51              	
  52              		.text
  53              	.Ltext0:
  54              		.cfi_sections	.debug_frame
  55              		.global	SystemCoreClock
  56              		.section	.data.SystemCoreClock,"aw",%progbits
  57              		.align	2
ARM GAS  /tmp/ccKf5DKE.s 			page 2


  58              		.type	SystemCoreClock, %object
  59              		.size	SystemCoreClock, 4
  60              	SystemCoreClock:
  61 0000 0048E801 		.word	32000000
  62              		.global	PLLMulTable
  63              		.section	.data.PLLMulTable,"aw",%progbits
  64              		.align	2
  65              		.type	PLLMulTable, %object
  66              		.size	PLLMulTable, 9
  67              	PLLMulTable:
  68 0000 03       		.byte	3
  69 0001 04       		.byte	4
  70 0002 06       		.byte	6
  71 0003 08       		.byte	8
  72 0004 0C       		.byte	12
  73 0005 10       		.byte	16
  74 0006 18       		.byte	24
  75 0007 20       		.byte	32
  76 0008 30       		.byte	48
  77              		.global	AHBPrescTable
  78 0009 000000   		.section	.data.AHBPrescTable,"aw",%progbits
  79              		.align	2
  80              		.type	AHBPrescTable, %object
  81              		.size	AHBPrescTable, 16
  82              	AHBPrescTable:
  83 0000 00       		.byte	0
  84 0001 00       		.byte	0
  85 0002 00       		.byte	0
  86 0003 00       		.byte	0
  87 0004 00       		.byte	0
  88 0005 00       		.byte	0
  89 0006 00       		.byte	0
  90 0007 00       		.byte	0
  91 0008 01       		.byte	1
  92 0009 02       		.byte	2
  93 000a 03       		.byte	3
  94 000b 04       		.byte	4
  95 000c 06       		.byte	6
  96 000d 07       		.byte	7
  97 000e 08       		.byte	8
  98 000f 09       		.byte	9
  99              		.section	.text.SystemInit,"ax",%progbits
 100              		.align	2
 101              		.global	SystemInit
 102              		.thumb
 103              		.thumb_func
 104              		.type	SystemInit, %function
 105              	SystemInit:
 106              	.LFB56:
 107              		.file 1 "Drivers/CMSIS/Device/ST/STM32L1xx/system_stm32l1xx.c"
   1:Drivers/CMSIS/Device/ST/STM32L1xx/system_stm32l1xx.c **** /**
   2:Drivers/CMSIS/Device/ST/STM32L1xx/system_stm32l1xx.c ****   ******************************************************************************
   3:Drivers/CMSIS/Device/ST/STM32L1xx/system_stm32l1xx.c ****   * @file    system_stm32l1xx.c
   4:Drivers/CMSIS/Device/ST/STM32L1xx/system_stm32l1xx.c ****   * @author  MCD Application Team
   5:Drivers/CMSIS/Device/ST/STM32L1xx/system_stm32l1xx.c ****   * @version V2.0.0
   6:Drivers/CMSIS/Device/ST/STM32L1xx/system_stm32l1xx.c ****   * @date    5-September-2014
   7:Drivers/CMSIS/Device/ST/STM32L1xx/system_stm32l1xx.c ****   * @brief   CMSIS Cortex-M3 Device Peripheral Access Layer System Source File.
ARM GAS  /tmp/ccKf5DKE.s 			page 3


   8:Drivers/CMSIS/Device/ST/STM32L1xx/system_stm32l1xx.c ****   *             
   9:Drivers/CMSIS/Device/ST/STM32L1xx/system_stm32l1xx.c ****   *   This file provides two functions and one global variable to be called from 
  10:Drivers/CMSIS/Device/ST/STM32L1xx/system_stm32l1xx.c ****   *   user application:
  11:Drivers/CMSIS/Device/ST/STM32L1xx/system_stm32l1xx.c ****   *      - SystemInit(): This function is called at startup just after reset and 
  12:Drivers/CMSIS/Device/ST/STM32L1xx/system_stm32l1xx.c ****   *                      before branch to main program. This call is made inside
  13:Drivers/CMSIS/Device/ST/STM32L1xx/system_stm32l1xx.c ****   *                      the "startup_stm32l1xx.s" file.
  14:Drivers/CMSIS/Device/ST/STM32L1xx/system_stm32l1xx.c ****   *                        
  15:Drivers/CMSIS/Device/ST/STM32L1xx/system_stm32l1xx.c ****   *      - SystemCoreClock variable: Contains the core clock (HCLK), it can be used
  16:Drivers/CMSIS/Device/ST/STM32L1xx/system_stm32l1xx.c ****   *                                  by the user application to setup the SysTick 
  17:Drivers/CMSIS/Device/ST/STM32L1xx/system_stm32l1xx.c ****   *                                  timer or configure other parameters.
  18:Drivers/CMSIS/Device/ST/STM32L1xx/system_stm32l1xx.c ****   *                                     
  19:Drivers/CMSIS/Device/ST/STM32L1xx/system_stm32l1xx.c ****   *      - SystemCoreClockUpdate(): Updates the variable SystemCoreClock and must
  20:Drivers/CMSIS/Device/ST/STM32L1xx/system_stm32l1xx.c ****   *                                 be called whenever the core clock is changed
  21:Drivers/CMSIS/Device/ST/STM32L1xx/system_stm32l1xx.c ****   *                                 during program execution.   
  22:Drivers/CMSIS/Device/ST/STM32L1xx/system_stm32l1xx.c ****   *      
  23:Drivers/CMSIS/Device/ST/STM32L1xx/system_stm32l1xx.c ****   ******************************************************************************
  24:Drivers/CMSIS/Device/ST/STM32L1xx/system_stm32l1xx.c ****   * @attention
  25:Drivers/CMSIS/Device/ST/STM32L1xx/system_stm32l1xx.c ****   *
  26:Drivers/CMSIS/Device/ST/STM32L1xx/system_stm32l1xx.c ****   * <h2><center>&copy; COPYRIGHT(c) 2014 STMicroelectronics</center></h2>
  27:Drivers/CMSIS/Device/ST/STM32L1xx/system_stm32l1xx.c ****   *
  28:Drivers/CMSIS/Device/ST/STM32L1xx/system_stm32l1xx.c ****   * Redistribution and use in source and binary forms, with or without modification,
  29:Drivers/CMSIS/Device/ST/STM32L1xx/system_stm32l1xx.c ****   * are permitted provided that the following conditions are met:
  30:Drivers/CMSIS/Device/ST/STM32L1xx/system_stm32l1xx.c ****   *   1. Redistributions of source code must retain the above copyright notice,
  31:Drivers/CMSIS/Device/ST/STM32L1xx/system_stm32l1xx.c ****   *      this list of conditions and the following disclaimer.
  32:Drivers/CMSIS/Device/ST/STM32L1xx/system_stm32l1xx.c ****   *   2. Redistributions in binary form must reproduce the above copyright notice,
  33:Drivers/CMSIS/Device/ST/STM32L1xx/system_stm32l1xx.c ****   *      this list of conditions and the following disclaimer in the documentation
  34:Drivers/CMSIS/Device/ST/STM32L1xx/system_stm32l1xx.c ****   *      and/or other materials provided with the distribution.
  35:Drivers/CMSIS/Device/ST/STM32L1xx/system_stm32l1xx.c ****   *   3. Neither the name of STMicroelectronics nor the names of its contributors
  36:Drivers/CMSIS/Device/ST/STM32L1xx/system_stm32l1xx.c ****   *      may be used to endorse or promote products derived from this software
  37:Drivers/CMSIS/Device/ST/STM32L1xx/system_stm32l1xx.c ****   *      without specific prior written permission.
  38:Drivers/CMSIS/Device/ST/STM32L1xx/system_stm32l1xx.c ****   *
  39:Drivers/CMSIS/Device/ST/STM32L1xx/system_stm32l1xx.c ****   * THIS SOFTWARE IS PROVIDED BY THE COPYRIGHT HOLDERS AND CONTRIBUTORS "AS IS"
  40:Drivers/CMSIS/Device/ST/STM32L1xx/system_stm32l1xx.c ****   * AND ANY EXPRESS OR IMPLIED WARRANTIES, INCLUDING, BUT NOT LIMITED TO, THE
  41:Drivers/CMSIS/Device/ST/STM32L1xx/system_stm32l1xx.c ****   * IMPLIED WARRANTIES OF MERCHANTABILITY AND FITNESS FOR A PARTICULAR PURPOSE ARE
  42:Drivers/CMSIS/Device/ST/STM32L1xx/system_stm32l1xx.c ****   * DISCLAIMED. IN NO EVENT SHALL THE COPYRIGHT HOLDER OR CONTRIBUTORS BE LIABLE
  43:Drivers/CMSIS/Device/ST/STM32L1xx/system_stm32l1xx.c ****   * FOR ANY DIRECT, INDIRECT, INCIDENTAL, SPECIAL, EXEMPLARY, OR CONSEQUENTIAL
  44:Drivers/CMSIS/Device/ST/STM32L1xx/system_stm32l1xx.c ****   * DAMAGES (INCLUDING, BUT NOT LIMITED TO, PROCUREMENT OF SUBSTITUTE GOODS OR
  45:Drivers/CMSIS/Device/ST/STM32L1xx/system_stm32l1xx.c ****   * SERVICES; LOSS OF USE, DATA, OR PROFITS; OR BUSINESS INTERRUPTION) HOWEVER
  46:Drivers/CMSIS/Device/ST/STM32L1xx/system_stm32l1xx.c ****   * CAUSED AND ON ANY THEORY OF LIABILITY, WHETHER IN CONTRACT, STRICT LIABILITY,
  47:Drivers/CMSIS/Device/ST/STM32L1xx/system_stm32l1xx.c ****   * OR TORT (INCLUDING NEGLIGENCE OR OTHERWISE) ARISING IN ANY WAY OUT OF THE USE
  48:Drivers/CMSIS/Device/ST/STM32L1xx/system_stm32l1xx.c ****   * OF THIS SOFTWARE, EVEN IF ADVISED OF THE POSSIBILITY OF SUCH DAMAGE.
  49:Drivers/CMSIS/Device/ST/STM32L1xx/system_stm32l1xx.c ****   *
  50:Drivers/CMSIS/Device/ST/STM32L1xx/system_stm32l1xx.c ****   ******************************************************************************
  51:Drivers/CMSIS/Device/ST/STM32L1xx/system_stm32l1xx.c ****   */
  52:Drivers/CMSIS/Device/ST/STM32L1xx/system_stm32l1xx.c **** 
  53:Drivers/CMSIS/Device/ST/STM32L1xx/system_stm32l1xx.c **** /** @addtogroup CMSIS
  54:Drivers/CMSIS/Device/ST/STM32L1xx/system_stm32l1xx.c ****   * @{
  55:Drivers/CMSIS/Device/ST/STM32L1xx/system_stm32l1xx.c ****   */
  56:Drivers/CMSIS/Device/ST/STM32L1xx/system_stm32l1xx.c **** 
  57:Drivers/CMSIS/Device/ST/STM32L1xx/system_stm32l1xx.c **** /** @addtogroup stm32l1xx_system
  58:Drivers/CMSIS/Device/ST/STM32L1xx/system_stm32l1xx.c ****   * @{
  59:Drivers/CMSIS/Device/ST/STM32L1xx/system_stm32l1xx.c ****   */  
  60:Drivers/CMSIS/Device/ST/STM32L1xx/system_stm32l1xx.c ****   
  61:Drivers/CMSIS/Device/ST/STM32L1xx/system_stm32l1xx.c **** /** @addtogroup STM32L1xx_System_Private_Includes
  62:Drivers/CMSIS/Device/ST/STM32L1xx/system_stm32l1xx.c ****   * @{
  63:Drivers/CMSIS/Device/ST/STM32L1xx/system_stm32l1xx.c ****   */
  64:Drivers/CMSIS/Device/ST/STM32L1xx/system_stm32l1xx.c **** 
ARM GAS  /tmp/ccKf5DKE.s 			page 4


  65:Drivers/CMSIS/Device/ST/STM32L1xx/system_stm32l1xx.c **** #include "stm32l1xx.h"
  66:Drivers/CMSIS/Device/ST/STM32L1xx/system_stm32l1xx.c **** 
  67:Drivers/CMSIS/Device/ST/STM32L1xx/system_stm32l1xx.c **** /**
  68:Drivers/CMSIS/Device/ST/STM32L1xx/system_stm32l1xx.c ****   * @}
  69:Drivers/CMSIS/Device/ST/STM32L1xx/system_stm32l1xx.c ****   */
  70:Drivers/CMSIS/Device/ST/STM32L1xx/system_stm32l1xx.c **** 
  71:Drivers/CMSIS/Device/ST/STM32L1xx/system_stm32l1xx.c **** /** @addtogroup STM32L1xx_System_Private_TypesDefinitions
  72:Drivers/CMSIS/Device/ST/STM32L1xx/system_stm32l1xx.c ****   * @{
  73:Drivers/CMSIS/Device/ST/STM32L1xx/system_stm32l1xx.c ****   */
  74:Drivers/CMSIS/Device/ST/STM32L1xx/system_stm32l1xx.c **** 
  75:Drivers/CMSIS/Device/ST/STM32L1xx/system_stm32l1xx.c **** /**
  76:Drivers/CMSIS/Device/ST/STM32L1xx/system_stm32l1xx.c ****   * @}
  77:Drivers/CMSIS/Device/ST/STM32L1xx/system_stm32l1xx.c ****   */
  78:Drivers/CMSIS/Device/ST/STM32L1xx/system_stm32l1xx.c **** 
  79:Drivers/CMSIS/Device/ST/STM32L1xx/system_stm32l1xx.c **** /** @addtogroup STM32L1xx_System_Private_Defines
  80:Drivers/CMSIS/Device/ST/STM32L1xx/system_stm32l1xx.c ****   * @{
  81:Drivers/CMSIS/Device/ST/STM32L1xx/system_stm32l1xx.c ****   */
  82:Drivers/CMSIS/Device/ST/STM32L1xx/system_stm32l1xx.c **** #if !defined  (HSE_VALUE) 
  83:Drivers/CMSIS/Device/ST/STM32L1xx/system_stm32l1xx.c ****   #define HSE_VALUE    ((uint32_t)8000000) /*!< Default value of the External oscillator in Hz.
  84:Drivers/CMSIS/Device/ST/STM32L1xx/system_stm32l1xx.c ****                                                 This value can be provided and adapted by the user 
  85:Drivers/CMSIS/Device/ST/STM32L1xx/system_stm32l1xx.c **** #endif /* HSE_VALUE */
  86:Drivers/CMSIS/Device/ST/STM32L1xx/system_stm32l1xx.c **** 
  87:Drivers/CMSIS/Device/ST/STM32L1xx/system_stm32l1xx.c **** #if !defined  (HSI_VALUE)
  88:Drivers/CMSIS/Device/ST/STM32L1xx/system_stm32l1xx.c ****   #define HSI_VALUE    ((uint32_t)8000000) /*!< Default value of the Internal oscillator in Hz.
  89:Drivers/CMSIS/Device/ST/STM32L1xx/system_stm32l1xx.c ****                                                 This value can be provided and adapted by the user 
  90:Drivers/CMSIS/Device/ST/STM32L1xx/system_stm32l1xx.c **** #endif /* HSI_VALUE */
  91:Drivers/CMSIS/Device/ST/STM32L1xx/system_stm32l1xx.c **** 
  92:Drivers/CMSIS/Device/ST/STM32L1xx/system_stm32l1xx.c **** /*!< Uncomment the following line if you need to use external SRAM mounted
  93:Drivers/CMSIS/Device/ST/STM32L1xx/system_stm32l1xx.c ****      on STM32L152D_EVAL board as data memory  */
  94:Drivers/CMSIS/Device/ST/STM32L1xx/system_stm32l1xx.c **** /* #define DATA_IN_ExtSRAM */
  95:Drivers/CMSIS/Device/ST/STM32L1xx/system_stm32l1xx.c ****   
  96:Drivers/CMSIS/Device/ST/STM32L1xx/system_stm32l1xx.c **** /*!< Uncomment the following line if you need to relocate your vector Table in
  97:Drivers/CMSIS/Device/ST/STM32L1xx/system_stm32l1xx.c ****      Internal SRAM. */ 
  98:Drivers/CMSIS/Device/ST/STM32L1xx/system_stm32l1xx.c **** /* #define VECT_TAB_SRAM */
  99:Drivers/CMSIS/Device/ST/STM32L1xx/system_stm32l1xx.c **** #define VECT_TAB_OFFSET  0x0 /*!< Vector Table base offset field. 
 100:Drivers/CMSIS/Device/ST/STM32L1xx/system_stm32l1xx.c ****                                   This value must be a multiple of 0x200. */
 101:Drivers/CMSIS/Device/ST/STM32L1xx/system_stm32l1xx.c **** /**
 102:Drivers/CMSIS/Device/ST/STM32L1xx/system_stm32l1xx.c ****   * @}
 103:Drivers/CMSIS/Device/ST/STM32L1xx/system_stm32l1xx.c ****   */
 104:Drivers/CMSIS/Device/ST/STM32L1xx/system_stm32l1xx.c **** 
 105:Drivers/CMSIS/Device/ST/STM32L1xx/system_stm32l1xx.c **** /** @addtogroup STM32L1xx_System_Private_Macros
 106:Drivers/CMSIS/Device/ST/STM32L1xx/system_stm32l1xx.c ****   * @{
 107:Drivers/CMSIS/Device/ST/STM32L1xx/system_stm32l1xx.c ****   */
 108:Drivers/CMSIS/Device/ST/STM32L1xx/system_stm32l1xx.c **** 
 109:Drivers/CMSIS/Device/ST/STM32L1xx/system_stm32l1xx.c **** /**
 110:Drivers/CMSIS/Device/ST/STM32L1xx/system_stm32l1xx.c ****   * @}
 111:Drivers/CMSIS/Device/ST/STM32L1xx/system_stm32l1xx.c ****   */
 112:Drivers/CMSIS/Device/ST/STM32L1xx/system_stm32l1xx.c **** 
 113:Drivers/CMSIS/Device/ST/STM32L1xx/system_stm32l1xx.c **** /** @addtogroup STM32L1xx_System_Private_Variables
 114:Drivers/CMSIS/Device/ST/STM32L1xx/system_stm32l1xx.c ****   * @{
 115:Drivers/CMSIS/Device/ST/STM32L1xx/system_stm32l1xx.c ****   */
 116:Drivers/CMSIS/Device/ST/STM32L1xx/system_stm32l1xx.c ****   /* This variable is updated in three ways:
 117:Drivers/CMSIS/Device/ST/STM32L1xx/system_stm32l1xx.c ****       1) by calling CMSIS function SystemCoreClockUpdate()
 118:Drivers/CMSIS/Device/ST/STM32L1xx/system_stm32l1xx.c ****       2) by calling HAL API function HAL_RCC_GetHCLKFreq()
 119:Drivers/CMSIS/Device/ST/STM32L1xx/system_stm32l1xx.c ****       3) each time HAL_RCC_ClockConfig() is called to configure the system clock frequency
 120:Drivers/CMSIS/Device/ST/STM32L1xx/system_stm32l1xx.c ****          Note: If you use this function to configure the system clock; then there
 121:Drivers/CMSIS/Device/ST/STM32L1xx/system_stm32l1xx.c ****                is no need to call the 2 first functions listed above, since SystemCoreClock
ARM GAS  /tmp/ccKf5DKE.s 			page 5


 122:Drivers/CMSIS/Device/ST/STM32L1xx/system_stm32l1xx.c ****                variable is updated automatically.
 123:Drivers/CMSIS/Device/ST/STM32L1xx/system_stm32l1xx.c ****   */
 124:Drivers/CMSIS/Device/ST/STM32L1xx/system_stm32l1xx.c **** uint32_t SystemCoreClock    = 32000000;
 125:Drivers/CMSIS/Device/ST/STM32L1xx/system_stm32l1xx.c **** __IO const uint8_t PLLMulTable[9] = {3, 4, 6, 8, 12, 16, 24, 32, 48};
 126:Drivers/CMSIS/Device/ST/STM32L1xx/system_stm32l1xx.c **** __IO const uint8_t AHBPrescTable[16] = {0, 0, 0, 0, 0, 0, 0, 0, 1, 2, 3, 4, 6, 7, 8, 9};
 127:Drivers/CMSIS/Device/ST/STM32L1xx/system_stm32l1xx.c **** 
 128:Drivers/CMSIS/Device/ST/STM32L1xx/system_stm32l1xx.c **** /**
 129:Drivers/CMSIS/Device/ST/STM32L1xx/system_stm32l1xx.c ****   * @}
 130:Drivers/CMSIS/Device/ST/STM32L1xx/system_stm32l1xx.c ****   */
 131:Drivers/CMSIS/Device/ST/STM32L1xx/system_stm32l1xx.c **** 
 132:Drivers/CMSIS/Device/ST/STM32L1xx/system_stm32l1xx.c **** /** @addtogroup STM32L1xx_System_Private_FunctionPrototypes
 133:Drivers/CMSIS/Device/ST/STM32L1xx/system_stm32l1xx.c ****   * @{
 134:Drivers/CMSIS/Device/ST/STM32L1xx/system_stm32l1xx.c ****   */
 135:Drivers/CMSIS/Device/ST/STM32L1xx/system_stm32l1xx.c **** 
 136:Drivers/CMSIS/Device/ST/STM32L1xx/system_stm32l1xx.c **** #if defined (STM32L151xD) || defined (STM32L152xD) || defined (STM32L162xD)
 137:Drivers/CMSIS/Device/ST/STM32L1xx/system_stm32l1xx.c **** #ifdef DATA_IN_ExtSRAM
 138:Drivers/CMSIS/Device/ST/STM32L1xx/system_stm32l1xx.c ****   static void SystemInit_ExtMemCtl(void); 
 139:Drivers/CMSIS/Device/ST/STM32L1xx/system_stm32l1xx.c **** #endif /* DATA_IN_ExtSRAM */
 140:Drivers/CMSIS/Device/ST/STM32L1xx/system_stm32l1xx.c **** #endif /* STM32L151xD || STM32L152xD || STM32L162xD */
 141:Drivers/CMSIS/Device/ST/STM32L1xx/system_stm32l1xx.c **** 
 142:Drivers/CMSIS/Device/ST/STM32L1xx/system_stm32l1xx.c **** /**
 143:Drivers/CMSIS/Device/ST/STM32L1xx/system_stm32l1xx.c ****   * @}
 144:Drivers/CMSIS/Device/ST/STM32L1xx/system_stm32l1xx.c ****   */
 145:Drivers/CMSIS/Device/ST/STM32L1xx/system_stm32l1xx.c **** 
 146:Drivers/CMSIS/Device/ST/STM32L1xx/system_stm32l1xx.c **** /** @addtogroup STM32L1xx_System_Private_Functions
 147:Drivers/CMSIS/Device/ST/STM32L1xx/system_stm32l1xx.c ****   * @{
 148:Drivers/CMSIS/Device/ST/STM32L1xx/system_stm32l1xx.c ****   */
 149:Drivers/CMSIS/Device/ST/STM32L1xx/system_stm32l1xx.c **** 
 150:Drivers/CMSIS/Device/ST/STM32L1xx/system_stm32l1xx.c **** /**
 151:Drivers/CMSIS/Device/ST/STM32L1xx/system_stm32l1xx.c ****   * @brief  Setup the microcontroller system.
 152:Drivers/CMSIS/Device/ST/STM32L1xx/system_stm32l1xx.c ****   *         Initialize the Embedded Flash Interface, the PLL and update the 
 153:Drivers/CMSIS/Device/ST/STM32L1xx/system_stm32l1xx.c ****   *         SystemCoreClock variable.
 154:Drivers/CMSIS/Device/ST/STM32L1xx/system_stm32l1xx.c ****   * @param  None
 155:Drivers/CMSIS/Device/ST/STM32L1xx/system_stm32l1xx.c ****   * @retval None
 156:Drivers/CMSIS/Device/ST/STM32L1xx/system_stm32l1xx.c ****   */
 157:Drivers/CMSIS/Device/ST/STM32L1xx/system_stm32l1xx.c **** void SystemInit (void)
 158:Drivers/CMSIS/Device/ST/STM32L1xx/system_stm32l1xx.c **** {
 108              		.loc 1 158 0
 109              		.cfi_startproc
 110              		@ args = 0, pretend = 0, frame = 0
 111              		@ frame_needed = 1, uses_anonymous_args = 0
 112              		@ link register save eliminated.
 113 0000 80B4     		push	{r7}	@
 114              	.LCFI0:
 115              		.cfi_def_cfa_offset 4
 116              		.cfi_offset 7, -4
 117 0002 00AF     		add	r7, sp, #0	@,,
 118              	.LCFI1:
 119              		.cfi_def_cfa_register 7
 159:Drivers/CMSIS/Device/ST/STM32L1xx/system_stm32l1xx.c ****   /*!< Set MSION bit */
 160:Drivers/CMSIS/Device/ST/STM32L1xx/system_stm32l1xx.c ****   RCC->CR |= (uint32_t)0x00000100;
 120              		.loc 1 160 0
 121 0004 4FF46053 		mov	r3, #14336	@ D.4776,
 122 0008 C4F20203 		movt	r3, 16386	@ D.4776,
 123 000c 4FF46052 		mov	r2, #14336	@ D.4777,
 124 0010 C4F20202 		movt	r2, 16386	@ D.4777,
 125 0014 1268     		ldr	r2, [r2, #0]	@ D.4778, D.4777_2->CR
ARM GAS  /tmp/ccKf5DKE.s 			page 6


 126 0016 42F48072 		orr	r2, r2, #256	@ D.4779, D.4778,
 127 001a 1A60     		str	r2, [r3, #0]	@ D.4779, D.4776_1->CR
 161:Drivers/CMSIS/Device/ST/STM32L1xx/system_stm32l1xx.c **** 
 162:Drivers/CMSIS/Device/ST/STM32L1xx/system_stm32l1xx.c ****   /*!< Reset SW[1:0], HPRE[3:0], PPRE1[2:0], PPRE2[2:0], MCOSEL[2:0] and MCOPRE[2:0] bits */
 163:Drivers/CMSIS/Device/ST/STM32L1xx/system_stm32l1xx.c ****   RCC->CFGR &= (uint32_t)0x88FFC00C;
 128              		.loc 1 163 0
 129 001c 4FF46052 		mov	r2, #14336	@ D.4780,
 130 0020 C4F20202 		movt	r2, 16386	@ D.4780,
 131 0024 4FF46053 		mov	r3, #14336	@ D.4781,
 132 0028 C4F20203 		movt	r3, 16386	@ D.4781,
 133 002c 9968     		ldr	r1, [r3, #8]	@ D.4782, D.4781_6->CFGR
 134 002e 4CF20C03 		movw	r3, #49164	@ D.4783,
 135 0032 C8F6FF03 		movt	r3, 35071	@ D.4783,
 136 0036 0B40     		ands	r3, r3, r1	@, D.4783, D.4783, D.4782
 137 0038 9360     		str	r3, [r2, #8]	@ D.4783, D.4780_5->CFGR
 164:Drivers/CMSIS/Device/ST/STM32L1xx/system_stm32l1xx.c ****   
 165:Drivers/CMSIS/Device/ST/STM32L1xx/system_stm32l1xx.c ****   /*!< Reset HSION, HSEON, CSSON and PLLON bits */
 166:Drivers/CMSIS/Device/ST/STM32L1xx/system_stm32l1xx.c ****   RCC->CR &= (uint32_t)0xEEFEFFFE;
 138              		.loc 1 166 0
 139 003a 4FF46053 		mov	r3, #14336	@ D.4784,
 140 003e C4F20203 		movt	r3, 16386	@ D.4784,
 141 0042 4FF46052 		mov	r2, #14336	@ D.4785,
 142 0046 C4F20202 		movt	r2, 16386	@ D.4785,
 143 004a 1268     		ldr	r2, [r2, #0]	@ D.4786, D.4785_10->CR
 144 004c 22F08852 		bic	r2, r2, #285212672	@ D.4787, D.4786,
 145 0050 22F00112 		bic	r2, r2, #65537	@ D.4787, D.4787,
 146 0054 1A60     		str	r2, [r3, #0]	@ D.4787, D.4784_9->CR
 167:Drivers/CMSIS/Device/ST/STM32L1xx/system_stm32l1xx.c **** 
 168:Drivers/CMSIS/Device/ST/STM32L1xx/system_stm32l1xx.c ****   /*!< Reset HSEBYP bit */
 169:Drivers/CMSIS/Device/ST/STM32L1xx/system_stm32l1xx.c ****   RCC->CR &= (uint32_t)0xFFFBFFFF;
 147              		.loc 1 169 0
 148 0056 4FF46053 		mov	r3, #14336	@ D.4788,
 149 005a C4F20203 		movt	r3, 16386	@ D.4788,
 150 005e 4FF46052 		mov	r2, #14336	@ D.4789,
 151 0062 C4F20202 		movt	r2, 16386	@ D.4789,
 152 0066 1268     		ldr	r2, [r2, #0]	@ D.4790, D.4789_14->CR
 153 0068 22F48022 		bic	r2, r2, #262144	@ D.4791, D.4790,
 154 006c 1A60     		str	r2, [r3, #0]	@ D.4791, D.4788_13->CR
 170:Drivers/CMSIS/Device/ST/STM32L1xx/system_stm32l1xx.c **** 
 171:Drivers/CMSIS/Device/ST/STM32L1xx/system_stm32l1xx.c ****   /*!< Reset PLLSRC, PLLMUL[3:0] and PLLDIV[1:0] bits */
 172:Drivers/CMSIS/Device/ST/STM32L1xx/system_stm32l1xx.c ****   RCC->CFGR &= (uint32_t)0xFF02FFFF;
 155              		.loc 1 172 0
 156 006e 4FF46053 		mov	r3, #14336	@ D.4792,
 157 0072 C4F20203 		movt	r3, 16386	@ D.4792,
 158 0076 4FF46052 		mov	r2, #14336	@ D.4793,
 159 007a C4F20202 		movt	r2, 16386	@ D.4793,
 160 007e 9268     		ldr	r2, [r2, #8]	@ D.4794, D.4793_18->CFGR
 161 0080 22F47D02 		bic	r2, r2, #16580608	@ D.4795, D.4794,
 162 0084 9A60     		str	r2, [r3, #8]	@ D.4795, D.4792_17->CFGR
 173:Drivers/CMSIS/Device/ST/STM32L1xx/system_stm32l1xx.c **** 
 174:Drivers/CMSIS/Device/ST/STM32L1xx/system_stm32l1xx.c ****   /*!< Disable all interrupts */
 175:Drivers/CMSIS/Device/ST/STM32L1xx/system_stm32l1xx.c ****   RCC->CIR = 0x00000000;
 163              		.loc 1 175 0
 164 0086 4FF46053 		mov	r3, #14336	@ D.4796,
 165 008a C4F20203 		movt	r3, 16386	@ D.4796,
 166 008e 4FF00002 		mov	r2, #0	@ tmp156,
 167 0092 DA60     		str	r2, [r3, #12]	@ tmp156, D.4796_21->CIR
ARM GAS  /tmp/ccKf5DKE.s 			page 7


 176:Drivers/CMSIS/Device/ST/STM32L1xx/system_stm32l1xx.c **** 
 177:Drivers/CMSIS/Device/ST/STM32L1xx/system_stm32l1xx.c **** #ifdef DATA_IN_ExtSRAM
 178:Drivers/CMSIS/Device/ST/STM32L1xx/system_stm32l1xx.c ****   SystemInit_ExtMemCtl(); 
 179:Drivers/CMSIS/Device/ST/STM32L1xx/system_stm32l1xx.c **** #endif /* DATA_IN_ExtSRAM */
 180:Drivers/CMSIS/Device/ST/STM32L1xx/system_stm32l1xx.c ****     
 181:Drivers/CMSIS/Device/ST/STM32L1xx/system_stm32l1xx.c **** #ifdef VECT_TAB_SRAM
 182:Drivers/CMSIS/Device/ST/STM32L1xx/system_stm32l1xx.c ****   SCB->VTOR = SRAM_BASE | VECT_TAB_OFFSET; /* Vector Table Relocation in Internal SRAM. */
 183:Drivers/CMSIS/Device/ST/STM32L1xx/system_stm32l1xx.c **** #else
 184:Drivers/CMSIS/Device/ST/STM32L1xx/system_stm32l1xx.c ****   SCB->VTOR = FLASH_BASE | VECT_TAB_OFFSET; /* Vector Table Relocation in Internal FLASH. */
 168              		.loc 1 184 0
 169 0094 4FF46D43 		mov	r3, #60672	@ D.4797,
 170 0098 CEF20003 		movt	r3, 57344	@ D.4797,
 171 009c 4FF00062 		mov	r2, #134217728	@ tmp157,
 172 00a0 9A60     		str	r2, [r3, #8]	@ tmp157, D.4797_22->VTOR
 185:Drivers/CMSIS/Device/ST/STM32L1xx/system_stm32l1xx.c **** #endif
 186:Drivers/CMSIS/Device/ST/STM32L1xx/system_stm32l1xx.c **** }
 173              		.loc 1 186 0
 174 00a2 BD46     		mov	sp, r7
 175 00a4 80BC     		pop	{r7}
 176 00a6 7047     		bx	lr
 177              		.cfi_endproc
 178              	.LFE56:
 179              		.size	SystemInit, .-SystemInit
 180              		.section	.text.SystemCoreClockUpdate,"ax",%progbits
 181              		.align	2
 182              		.global	SystemCoreClockUpdate
 183              		.thumb
 184              		.thumb_func
 185              		.type	SystemCoreClockUpdate, %function
 186              	SystemCoreClockUpdate:
 187              	.LFB57:
 187:Drivers/CMSIS/Device/ST/STM32L1xx/system_stm32l1xx.c **** 
 188:Drivers/CMSIS/Device/ST/STM32L1xx/system_stm32l1xx.c **** /**
 189:Drivers/CMSIS/Device/ST/STM32L1xx/system_stm32l1xx.c ****   * @brief  Update SystemCoreClock according to Clock Register Values
 190:Drivers/CMSIS/Device/ST/STM32L1xx/system_stm32l1xx.c ****   *         The SystemCoreClock variable contains the core clock (HCLK), it can
 191:Drivers/CMSIS/Device/ST/STM32L1xx/system_stm32l1xx.c ****   *         be used by the user application to setup the SysTick timer or configure
 192:Drivers/CMSIS/Device/ST/STM32L1xx/system_stm32l1xx.c ****   *         other parameters.
 193:Drivers/CMSIS/Device/ST/STM32L1xx/system_stm32l1xx.c ****   *           
 194:Drivers/CMSIS/Device/ST/STM32L1xx/system_stm32l1xx.c ****   * @note   Each time the core clock (HCLK) changes, this function must be called
 195:Drivers/CMSIS/Device/ST/STM32L1xx/system_stm32l1xx.c ****   *         to update SystemCoreClock variable value. Otherwise, any configuration
 196:Drivers/CMSIS/Device/ST/STM32L1xx/system_stm32l1xx.c ****   *         based on this variable will be incorrect.         
 197:Drivers/CMSIS/Device/ST/STM32L1xx/system_stm32l1xx.c ****   *     
 198:Drivers/CMSIS/Device/ST/STM32L1xx/system_stm32l1xx.c ****   * @note   - The system frequency computed by this function is not the real 
 199:Drivers/CMSIS/Device/ST/STM32L1xx/system_stm32l1xx.c ****   *           frequency in the chip. It is calculated based on the predefined 
 200:Drivers/CMSIS/Device/ST/STM32L1xx/system_stm32l1xx.c ****   *           constant and the selected clock source:
 201:Drivers/CMSIS/Device/ST/STM32L1xx/system_stm32l1xx.c ****   *             
 202:Drivers/CMSIS/Device/ST/STM32L1xx/system_stm32l1xx.c ****   *           - If SYSCLK source is MSI, SystemCoreClock will contain the MSI 
 203:Drivers/CMSIS/Device/ST/STM32L1xx/system_stm32l1xx.c ****   *             value as defined by the MSI range.
 204:Drivers/CMSIS/Device/ST/STM32L1xx/system_stm32l1xx.c ****   *                                   
 205:Drivers/CMSIS/Device/ST/STM32L1xx/system_stm32l1xx.c ****   *           - If SYSCLK source is HSI, SystemCoreClock will contain the HSI_VALUE(*)
 206:Drivers/CMSIS/Device/ST/STM32L1xx/system_stm32l1xx.c ****   *                                              
 207:Drivers/CMSIS/Device/ST/STM32L1xx/system_stm32l1xx.c ****   *           - If SYSCLK source is HSE, SystemCoreClock will contain the HSE_VALUE(**)
 208:Drivers/CMSIS/Device/ST/STM32L1xx/system_stm32l1xx.c ****   *                          
 209:Drivers/CMSIS/Device/ST/STM32L1xx/system_stm32l1xx.c ****   *           - If SYSCLK source is PLL, SystemCoreClock will contain the HSE_VALUE(**)
 210:Drivers/CMSIS/Device/ST/STM32L1xx/system_stm32l1xx.c ****   *             or HSI_VALUE(*) multiplied/divided by the PLL factors.
 211:Drivers/CMSIS/Device/ST/STM32L1xx/system_stm32l1xx.c ****   *         
 212:Drivers/CMSIS/Device/ST/STM32L1xx/system_stm32l1xx.c ****   *         (*) HSI_VALUE is a constant defined in stm32l1xx.h file (default value
ARM GAS  /tmp/ccKf5DKE.s 			page 8


 213:Drivers/CMSIS/Device/ST/STM32L1xx/system_stm32l1xx.c ****   *             16 MHz) but the real value may vary depending on the variations
 214:Drivers/CMSIS/Device/ST/STM32L1xx/system_stm32l1xx.c ****   *             in voltage and temperature.   
 215:Drivers/CMSIS/Device/ST/STM32L1xx/system_stm32l1xx.c ****   *    
 216:Drivers/CMSIS/Device/ST/STM32L1xx/system_stm32l1xx.c ****   *         (**) HSE_VALUE is a constant defined in stm32l1xx.h file (default value
 217:Drivers/CMSIS/Device/ST/STM32L1xx/system_stm32l1xx.c ****   *              8 MHz), user has to ensure that HSE_VALUE is same as the real
 218:Drivers/CMSIS/Device/ST/STM32L1xx/system_stm32l1xx.c ****   *              frequency of the crystal used. Otherwise, this function may
 219:Drivers/CMSIS/Device/ST/STM32L1xx/system_stm32l1xx.c ****   *              have wrong result.
 220:Drivers/CMSIS/Device/ST/STM32L1xx/system_stm32l1xx.c ****   *                
 221:Drivers/CMSIS/Device/ST/STM32L1xx/system_stm32l1xx.c ****   *         - The result of this function could be not correct when using fractional
 222:Drivers/CMSIS/Device/ST/STM32L1xx/system_stm32l1xx.c ****   *           value for HSE crystal.
 223:Drivers/CMSIS/Device/ST/STM32L1xx/system_stm32l1xx.c ****   * @param  None
 224:Drivers/CMSIS/Device/ST/STM32L1xx/system_stm32l1xx.c ****   * @retval None
 225:Drivers/CMSIS/Device/ST/STM32L1xx/system_stm32l1xx.c ****   */
 226:Drivers/CMSIS/Device/ST/STM32L1xx/system_stm32l1xx.c **** void SystemCoreClockUpdate (void)
 227:Drivers/CMSIS/Device/ST/STM32L1xx/system_stm32l1xx.c **** {
 188              		.loc 1 227 0
 189              		.cfi_startproc
 190              		@ args = 0, pretend = 0, frame = 24
 191              		@ frame_needed = 1, uses_anonymous_args = 0
 192              		@ link register save eliminated.
 193 0000 80B4     		push	{r7}	@
 194              	.LCFI2:
 195              		.cfi_def_cfa_offset 4
 196              		.cfi_offset 7, -4
 197 0002 87B0     		sub	sp, sp, #28	@,,
 198              	.LCFI3:
 199              		.cfi_def_cfa_offset 32
 200 0004 00AF     		add	r7, sp, #0	@,,
 201              	.LCFI4:
 202              		.cfi_def_cfa_register 7
 228:Drivers/CMSIS/Device/ST/STM32L1xx/system_stm32l1xx.c ****   uint32_t tmp = 0, pllmul = 0, plldiv = 0, pllsource = 0, msirange = 0;
 203              		.loc 1 228 0
 204 0006 4FF00003 		mov	r3, #0	@ tmp171,
 205 000a 7B61     		str	r3, [r7, #20]	@ tmp171, tmp
 206 000c 4FF00003 		mov	r3, #0	@ tmp172,
 207 0010 3B61     		str	r3, [r7, #16]	@ tmp172, pllmul
 208 0012 4FF00003 		mov	r3, #0	@ tmp173,
 209 0016 FB60     		str	r3, [r7, #12]	@ tmp173, plldiv
 210 0018 4FF00003 		mov	r3, #0	@ tmp174,
 211 001c BB60     		str	r3, [r7, #8]	@ tmp174, pllsource
 212 001e 4FF00003 		mov	r3, #0	@ tmp175,
 213 0022 7B60     		str	r3, [r7, #4]	@ tmp175, msirange
 229:Drivers/CMSIS/Device/ST/STM32L1xx/system_stm32l1xx.c **** 
 230:Drivers/CMSIS/Device/ST/STM32L1xx/system_stm32l1xx.c ****   /* Get SYSCLK source -------------------------------------------------------*/
 231:Drivers/CMSIS/Device/ST/STM32L1xx/system_stm32l1xx.c ****   tmp = RCC->CFGR & RCC_CFGR_SWS;
 214              		.loc 1 231 0
 215 0024 4FF46053 		mov	r3, #14336	@ D.4736,
 216 0028 C4F20203 		movt	r3, 16386	@ D.4736,
 217 002c 9B68     		ldr	r3, [r3, #8]	@ D.4737, D.4736_6->CFGR
 218 002e 03F00C03 		and	r3, r3, #12	@ tmp176, D.4737,
 219 0032 7B61     		str	r3, [r7, #20]	@ tmp176, tmp
 232:Drivers/CMSIS/Device/ST/STM32L1xx/system_stm32l1xx.c ****   
 233:Drivers/CMSIS/Device/ST/STM32L1xx/system_stm32l1xx.c ****   switch (tmp)
 220              		.loc 1 233 0
 221 0034 7B69     		ldr	r3, [r7, #20]	@ tmp177, tmp
 222 0036 0C2B     		cmp	r3, #12	@ tmp177,
 223 0038 00F29580 		bhi	.L3	@
ARM GAS  /tmp/ccKf5DKE.s 			page 9


 224 003c 01A2     		adr	r2, .L8	@,
 225 003e 52F823F0 		ldr	pc, [r2, r3, lsl #2]	@, tmp177
 226 0042 00BF     		.align	2
 227              	.L8:
 228 0044 79000000 		.word	.L4+1
 229 0048 67010000 		.word	.L3+1
 230 004c 67010000 		.word	.L3+1
 231 0050 67010000 		.word	.L3+1
 232 0054 A9000000 		.word	.L5+1
 233 0058 67010000 		.word	.L3+1
 234 005c 67010000 		.word	.L3+1
 235 0060 67010000 		.word	.L3+1
 236 0064 BD000000 		.word	.L6+1
 237 0068 67010000 		.word	.L3+1
 238 006c 67010000 		.word	.L3+1
 239 0070 67010000 		.word	.L3+1
 240 0074 D1000000 		.word	.L7+1
 241              	.L4:
 234:Drivers/CMSIS/Device/ST/STM32L1xx/system_stm32l1xx.c ****   {
 235:Drivers/CMSIS/Device/ST/STM32L1xx/system_stm32l1xx.c ****     case 0x00:  /* MSI used as system clock */
 236:Drivers/CMSIS/Device/ST/STM32L1xx/system_stm32l1xx.c ****       msirange = (RCC->ICSCR & RCC_ICSCR_MSIRANGE) >> 13;
 242              		.loc 1 236 0
 243 0078 4FF46053 		mov	r3, #14336	@ D.4738,
 244 007c C4F20203 		movt	r3, 16386	@ D.4738,
 245 0080 5B68     		ldr	r3, [r3, #4]	@ D.4739, D.4738_9->ICSCR
 246 0082 03F46043 		and	r3, r3, #57344	@ D.4740, D.4739,
 247 0086 4FEA5333 		lsr	r3, r3, #13	@ tmp178, D.4740,
 248 008a 7B60     		str	r3, [r7, #4]	@ tmp178, msirange
 237:Drivers/CMSIS/Device/ST/STM32L1xx/system_stm32l1xx.c ****       SystemCoreClock = (32768 * (1 << (msirange + 1)));
 249              		.loc 1 237 0
 250 008c 7B68     		ldr	r3, [r7, #4]	@ tmp179, msirange
 251 008e 03F10103 		add	r3, r3, #1	@ D.4741, tmp179,
 252 0092 4FF40042 		mov	r2, #32768	@ tmp180,
 253 0096 02FA03F3 		lsl	r3, r2, r3	@ D.4743, tmp180, D.4742
 254 009a 1A46     		mov	r2, r3	@ SystemCoreClock.0, D.4743
 255 009c 40F20003 		movw	r3, #:lower16:SystemCoreClock	@ tmp181,
 256 00a0 C0F20003 		movt	r3, #:upper16:SystemCoreClock	@ tmp181,
 257 00a4 1A60     		str	r2, [r3, #0]	@ SystemCoreClock.0, SystemCoreClock
 238:Drivers/CMSIS/Device/ST/STM32L1xx/system_stm32l1xx.c ****       break;
 258              		.loc 1 238 0
 259 00a6 76E0     		b	.L9	@
 260              	.L5:
 239:Drivers/CMSIS/Device/ST/STM32L1xx/system_stm32l1xx.c ****     case 0x04:  /* HSI used as system clock */
 240:Drivers/CMSIS/Device/ST/STM32L1xx/system_stm32l1xx.c ****       SystemCoreClock = HSI_VALUE;
 261              		.loc 1 240 0
 262 00a8 40F20003 		movw	r3, #:lower16:SystemCoreClock	@ tmp182,
 263 00ac C0F20003 		movt	r3, #:upper16:SystemCoreClock	@ tmp182,
 264 00b0 4FF49052 		mov	r2, #4608	@ tmp183,
 265 00b4 C0F27A02 		movt	r2, 122	@ tmp183,
 266 00b8 1A60     		str	r2, [r3, #0]	@ tmp183, SystemCoreClock
 241:Drivers/CMSIS/Device/ST/STM32L1xx/system_stm32l1xx.c ****       break;
 267              		.loc 1 241 0
 268 00ba 6CE0     		b	.L9	@
 269              	.L6:
 242:Drivers/CMSIS/Device/ST/STM32L1xx/system_stm32l1xx.c ****     case 0x08:  /* HSE used as system clock */
 243:Drivers/CMSIS/Device/ST/STM32L1xx/system_stm32l1xx.c ****       SystemCoreClock = HSE_VALUE;
 270              		.loc 1 243 0
ARM GAS  /tmp/ccKf5DKE.s 			page 10


 271 00bc 40F20003 		movw	r3, #:lower16:SystemCoreClock	@ tmp184,
 272 00c0 C0F20003 		movt	r3, #:upper16:SystemCoreClock	@ tmp184,
 273 00c4 4FF49052 		mov	r2, #4608	@ tmp185,
 274 00c8 C0F27A02 		movt	r2, 122	@ tmp185,
 275 00cc 1A60     		str	r2, [r3, #0]	@ tmp185, SystemCoreClock
 244:Drivers/CMSIS/Device/ST/STM32L1xx/system_stm32l1xx.c ****       break;
 276              		.loc 1 244 0
 277 00ce 62E0     		b	.L9	@
 278              	.L7:
 245:Drivers/CMSIS/Device/ST/STM32L1xx/system_stm32l1xx.c ****     case 0x0C:  /* PLL used as system clock */
 246:Drivers/CMSIS/Device/ST/STM32L1xx/system_stm32l1xx.c ****       /* Get PLL clock source and multiplication factor ----------------------*/
 247:Drivers/CMSIS/Device/ST/STM32L1xx/system_stm32l1xx.c ****       pllmul = RCC->CFGR & RCC_CFGR_PLLMUL;
 279              		.loc 1 247 0
 280 00d0 4FF46053 		mov	r3, #14336	@ D.4745,
 281 00d4 C4F20203 		movt	r3, 16386	@ D.4745,
 282 00d8 9B68     		ldr	r3, [r3, #8]	@ D.4746, D.4745_17->CFGR
 283 00da 03F47013 		and	r3, r3, #3932160	@ tmp186, D.4746,
 284 00de 3B61     		str	r3, [r7, #16]	@ tmp186, pllmul
 248:Drivers/CMSIS/Device/ST/STM32L1xx/system_stm32l1xx.c ****       plldiv = RCC->CFGR & RCC_CFGR_PLLDIV;
 285              		.loc 1 248 0
 286 00e0 4FF46053 		mov	r3, #14336	@ D.4747,
 287 00e4 C4F20203 		movt	r3, 16386	@ D.4747,
 288 00e8 9B68     		ldr	r3, [r3, #8]	@ D.4748, D.4747_20->CFGR
 289 00ea 03F44003 		and	r3, r3, #12582912	@ tmp187, D.4748,
 290 00ee FB60     		str	r3, [r7, #12]	@ tmp187, plldiv
 249:Drivers/CMSIS/Device/ST/STM32L1xx/system_stm32l1xx.c ****       pllmul = PLLMulTable[(pllmul >> 18)];
 291              		.loc 1 249 0
 292 00f0 3B69     		ldr	r3, [r7, #16]	@ tmp188, pllmul
 293 00f2 4FEA9342 		lsr	r2, r3, #18	@ D.4749, tmp188,
 294 00f6 40F20003 		movw	r3, #:lower16:PLLMulTable	@ tmp189,
 295 00fa C0F20003 		movt	r3, #:upper16:PLLMulTable	@ tmp189,
 296 00fe 9B5C     		ldrb	r3, [r3, r2]	@ tmp191, PLLMulTable
 297 0100 DBB2     		uxtb	r3, r3	@ D.4750, tmp191
 298 0102 3B61     		str	r3, [r7, #16]	@ D.4750, pllmul
 250:Drivers/CMSIS/Device/ST/STM32L1xx/system_stm32l1xx.c ****       plldiv = (plldiv >> 22) + 1;
 299              		.loc 1 250 0
 300 0104 FB68     		ldr	r3, [r7, #12]	@ tmp192, plldiv
 301 0106 4FEA9353 		lsr	r3, r3, #22	@ D.4751, tmp192,
 302 010a 03F10103 		add	r3, r3, #1	@ tmp193, D.4751,
 303 010e FB60     		str	r3, [r7, #12]	@ tmp193, plldiv
 251:Drivers/CMSIS/Device/ST/STM32L1xx/system_stm32l1xx.c ****       
 252:Drivers/CMSIS/Device/ST/STM32L1xx/system_stm32l1xx.c ****       pllsource = RCC->CFGR & RCC_CFGR_PLLSRC;
 304              		.loc 1 252 0
 305 0110 4FF46053 		mov	r3, #14336	@ D.4752,
 306 0114 C4F20203 		movt	r3, 16386	@ D.4752,
 307 0118 9B68     		ldr	r3, [r3, #8]	@ D.4753, D.4752_28->CFGR
 308 011a 03F48033 		and	r3, r3, #65536	@ tmp194, D.4753,
 309 011e BB60     		str	r3, [r7, #8]	@ tmp194, pllsource
 253:Drivers/CMSIS/Device/ST/STM32L1xx/system_stm32l1xx.c **** 
 254:Drivers/CMSIS/Device/ST/STM32L1xx/system_stm32l1xx.c ****       if (pllsource == 0x00)
 310              		.loc 1 254 0
 311 0120 BB68     		ldr	r3, [r7, #8]	@ tmp195, pllsource
 312 0122 002B     		cmp	r3, #0	@ tmp195,
 313 0124 0FD1     		bne	.L10	@,
 255:Drivers/CMSIS/Device/ST/STM32L1xx/system_stm32l1xx.c ****       {
 256:Drivers/CMSIS/Device/ST/STM32L1xx/system_stm32l1xx.c ****         /* HSI oscillator clock selected as PLL clock entry */
 257:Drivers/CMSIS/Device/ST/STM32L1xx/system_stm32l1xx.c ****         SystemCoreClock = (((HSI_VALUE) * pllmul) / plldiv);
ARM GAS  /tmp/ccKf5DKE.s 			page 11


 314              		.loc 1 257 0
 315 0126 3A69     		ldr	r2, [r7, #16]	@ tmp196, pllmul
 316 0128 4FF49053 		mov	r3, #4608	@ tmp197,
 317 012c C0F27A03 		movt	r3, 122	@ tmp197,
 318 0130 03FB02F2 		mul	r2, r3, r2	@ D.4756, tmp197, tmp196
 319 0134 FB68     		ldr	r3, [r7, #12]	@ tmp198, plldiv
 320 0136 B2FBF3F2 		udiv	r2, r2, r3	@ SystemCoreClock.1, D.4756, tmp198
 321 013a 40F20003 		movw	r3, #:lower16:SystemCoreClock	@ tmp199,
 322 013e C0F20003 		movt	r3, #:upper16:SystemCoreClock	@ tmp199,
 323 0142 1A60     		str	r2, [r3, #0]	@ SystemCoreClock.1, SystemCoreClock
 258:Drivers/CMSIS/Device/ST/STM32L1xx/system_stm32l1xx.c ****       }
 259:Drivers/CMSIS/Device/ST/STM32L1xx/system_stm32l1xx.c ****       else
 260:Drivers/CMSIS/Device/ST/STM32L1xx/system_stm32l1xx.c ****       {
 261:Drivers/CMSIS/Device/ST/STM32L1xx/system_stm32l1xx.c ****         /* HSE selected as PLL clock entry */
 262:Drivers/CMSIS/Device/ST/STM32L1xx/system_stm32l1xx.c ****         SystemCoreClock = (((HSE_VALUE) * pllmul) / plldiv);
 263:Drivers/CMSIS/Device/ST/STM32L1xx/system_stm32l1xx.c ****       }
 264:Drivers/CMSIS/Device/ST/STM32L1xx/system_stm32l1xx.c ****       break;
 324              		.loc 1 264 0
 325 0144 27E0     		b	.L9	@
 326              	.L10:
 262:Drivers/CMSIS/Device/ST/STM32L1xx/system_stm32l1xx.c ****         SystemCoreClock = (((HSE_VALUE) * pllmul) / plldiv);
 327              		.loc 1 262 0
 328 0146 3A69     		ldr	r2, [r7, #16]	@ tmp200, pllmul
 329 0148 4FF49053 		mov	r3, #4608	@ tmp201,
 330 014c C0F27A03 		movt	r3, 122	@ tmp201,
 331 0150 03FB02F2 		mul	r2, r3, r2	@ D.4759, tmp201, tmp200
 332 0154 FB68     		ldr	r3, [r7, #12]	@ tmp202, plldiv
 333 0156 B2FBF3F2 		udiv	r2, r2, r3	@ SystemCoreClock.2, D.4759, tmp202
 334 015a 40F20003 		movw	r3, #:lower16:SystemCoreClock	@ tmp203,
 335 015e C0F20003 		movt	r3, #:upper16:SystemCoreClock	@ tmp203,
 336 0162 1A60     		str	r2, [r3, #0]	@ SystemCoreClock.2, SystemCoreClock
 337              		.loc 1 264 0
 338 0164 17E0     		b	.L9	@
 339              	.L3:
 265:Drivers/CMSIS/Device/ST/STM32L1xx/system_stm32l1xx.c ****     default: /* MSI used as system clock */
 266:Drivers/CMSIS/Device/ST/STM32L1xx/system_stm32l1xx.c ****       msirange = (RCC->ICSCR & RCC_ICSCR_MSIRANGE) >> 13;
 340              		.loc 1 266 0
 341 0166 4FF46053 		mov	r3, #14336	@ D.4761,
 342 016a C4F20203 		movt	r3, 16386	@ D.4761,
 343 016e 5B68     		ldr	r3, [r3, #4]	@ D.4762, D.4761_35->ICSCR
 344 0170 03F46043 		and	r3, r3, #57344	@ D.4763, D.4762,
 345 0174 4FEA5333 		lsr	r3, r3, #13	@ tmp204, D.4763,
 346 0178 7B60     		str	r3, [r7, #4]	@ tmp204, msirange
 267:Drivers/CMSIS/Device/ST/STM32L1xx/system_stm32l1xx.c ****       SystemCoreClock = (32768 * (1 << (msirange + 1)));
 347              		.loc 1 267 0
 348 017a 7B68     		ldr	r3, [r7, #4]	@ tmp205, msirange
 349 017c 03F10103 		add	r3, r3, #1	@ D.4764, tmp205,
 350 0180 4FF40042 		mov	r2, #32768	@ tmp206,
 351 0184 02FA03F3 		lsl	r3, r2, r3	@ D.4766, tmp206, D.4765
 352 0188 1A46     		mov	r2, r3	@ SystemCoreClock.3, D.4766
 353 018a 40F20003 		movw	r3, #:lower16:SystemCoreClock	@ tmp207,
 354 018e C0F20003 		movt	r3, #:upper16:SystemCoreClock	@ tmp207,
 355 0192 1A60     		str	r2, [r3, #0]	@ SystemCoreClock.3, SystemCoreClock
 268:Drivers/CMSIS/Device/ST/STM32L1xx/system_stm32l1xx.c ****       break;
 356              		.loc 1 268 0
 357 0194 00BF     		nop
 358              	.L9:
ARM GAS  /tmp/ccKf5DKE.s 			page 12


 269:Drivers/CMSIS/Device/ST/STM32L1xx/system_stm32l1xx.c ****   }
 270:Drivers/CMSIS/Device/ST/STM32L1xx/system_stm32l1xx.c ****   /* Compute HCLK clock frequency --------------------------------------------*/
 271:Drivers/CMSIS/Device/ST/STM32L1xx/system_stm32l1xx.c ****   /* Get HCLK prescaler */
 272:Drivers/CMSIS/Device/ST/STM32L1xx/system_stm32l1xx.c ****   tmp = AHBPrescTable[((RCC->CFGR & RCC_CFGR_HPRE) >> 4)];
 359              		.loc 1 272 0
 360 0196 4FF46053 		mov	r3, #14336	@ D.4768,
 361 019a C4F20203 		movt	r3, 16386	@ D.4768,
 362 019e 9B68     		ldr	r3, [r3, #8]	@ D.4769, D.4768_43->CFGR
 363 01a0 03F0F003 		and	r3, r3, #240	@ D.4770, D.4769,
 364 01a4 4FEA1312 		lsr	r2, r3, #4	@ D.4771, D.4770,
 365 01a8 40F20003 		movw	r3, #:lower16:AHBPrescTable	@ tmp208,
 366 01ac C0F20003 		movt	r3, #:upper16:AHBPrescTable	@ tmp208,
 367 01b0 9B5C     		ldrb	r3, [r3, r2]	@ tmp210, AHBPrescTable
 368 01b2 DBB2     		uxtb	r3, r3	@ D.4772, tmp210
 369 01b4 7B61     		str	r3, [r7, #20]	@ D.4772, tmp
 273:Drivers/CMSIS/Device/ST/STM32L1xx/system_stm32l1xx.c ****   /* HCLK clock frequency */
 274:Drivers/CMSIS/Device/ST/STM32L1xx/system_stm32l1xx.c ****   SystemCoreClock >>= tmp;
 370              		.loc 1 274 0
 371 01b6 40F20003 		movw	r3, #:lower16:SystemCoreClock	@ tmp211,
 372 01ba C0F20003 		movt	r3, #:upper16:SystemCoreClock	@ tmp211,
 373 01be 1A68     		ldr	r2, [r3, #0]	@ SystemCoreClock.4, SystemCoreClock
 374 01c0 7B69     		ldr	r3, [r7, #20]	@ tmp.5, tmp
 375 01c2 22FA03F2 		lsr	r2, r2, r3	@ SystemCoreClock.6, SystemCoreClock.4, tmp.5
 376 01c6 40F20003 		movw	r3, #:lower16:SystemCoreClock	@ tmp212,
 377 01ca C0F20003 		movt	r3, #:upper16:SystemCoreClock	@ tmp212,
 378 01ce 1A60     		str	r2, [r3, #0]	@ SystemCoreClock.6, SystemCoreClock
 275:Drivers/CMSIS/Device/ST/STM32L1xx/system_stm32l1xx.c **** }
 379              		.loc 1 275 0
 380 01d0 07F11C07 		add	r7, r7, #28	@,,
 381 01d4 BD46     		mov	sp, r7
 382 01d6 80BC     		pop	{r7}
 383 01d8 7047     		bx	lr
 384              		.cfi_endproc
 385              	.LFE57:
 386              		.size	SystemCoreClockUpdate, .-SystemCoreClockUpdate
 387 01da 00BF     		.text
 388              	.Letext0:
 389              		.file 2 "/home/maciek/gcc-arm-none-eabi/gcc-arm-none-eabi-4_7-2013q1/bin/../lib/gcc/arm-none-eabi/
 390              		.file 3 "Drivers/CMSIS/Include/core_cm3.h"
 391              		.file 4 "Drivers/CMSIS/Device/ST/STM32L1xx/stm32l152xb.h"