ARM GAS  C:\Users\Adrian\AppData\Local\Temp\ccgZ1piN.s 			page 1


   1              		.syntax unified
   2              		.cpu cortex-m3
   3              		.fpu softvfp
   4              		.eabi_attribute 20, 1	@ Tag_ABI_FP_denormal
   5              		.eabi_attribute 21, 1	@ Tag_ABI_FP_exceptions
   6              		.eabi_attribute 23, 3	@ Tag_ABI_FP_number_model
   7              		.eabi_attribute 24, 1	@ Tag_ABI_align8_needed
   8              		.eabi_attribute 25, 1	@ Tag_ABI_align8_preserved
   9              		.eabi_attribute 26, 1	@ Tag_ABI_enum_size
  10              		.eabi_attribute 30, 6	@ Tag_ABI_optimization_goals
  11              		.eabi_attribute 34, 1	@ Tag_CPU_unaligned_access
  12              		.eabi_attribute 18, 4	@ Tag_ABI_PCS_wchar_t
  13              		.file	"tasks.c"
  14              	@ GNU C (GNU Tools for ARM Embedded Processors) version 4.8.4 20140526 (release) [ARM/embedded-4_8-
  15              	@	compiled by GNU C version 4.6.4, GMP version 4.3.2, MPFR version 2.4.2, MPC version 0.8.1
  16              	@ GGC heuristics: --param ggc-min-expand=100 --param ggc-min-heapsize=131072
  17              	@ options passed:  -I . -I inc -I FreeRTOS/include
  18              	@ -I FreeRTOS/portable/GCC/ARM_CM3 -I FatFS -I peripherals -I configuration
  19              	@ -I drivers -I application -imultilib armv7-m
  20              	@ -iprefix d:\programy\gnu tools arm embedded\4.8 2014q2\bin\../lib/gcc/arm-none-eabi/4.8.4/
  21              	@ -isysroot d:\programy\gnu tools arm embedded\4.8 2014q2\bin\../arm-none-eabi
  22              	@ -MD out/tasks.d -MF out/tasks.d -MP -MQ out/tasks.o -D__USES_INITFINI__
  23              	@ -D STM32L1XX_MD FreeRTOS/tasks.c -mcpu=cortex-m3 -mthumb
  24              	@ -auxbase-strip out/tasks.o -g -ggdb3 -O0 -Wall -Wstrict-prototypes
  25              	@ -Wextra -std=c11 -ffunction-sections -fdata-sections -fverbose-asm
  26              	@ options enabled:  -faggressive-loop-optimizations -fauto-inc-dec
  27              	@ -fbranch-count-reg -fcommon -fdata-sections -fdelete-null-pointer-checks
  28              	@ -fdwarf2-cfi-asm -fearly-inlining -feliminate-unused-debug-types
  29              	@ -ffunction-cse -ffunction-sections -fgcse-lm -fgnu-runtime -fident
  30              	@ -finline-atomics -fira-hoist-pressure -fira-share-save-slots
  31              	@ -fira-share-spill-slots -fivopts -fkeep-static-consts
  32              	@ -fleading-underscore -fmath-errno -fmerge-debug-strings
  33              	@ -fmove-loop-invariants -fpeephole -fprefetch-loop-arrays
  34              	@ -freg-struct-return -fsched-critical-path-heuristic
  35              	@ -fsched-dep-count-heuristic -fsched-group-heuristic -fsched-interblock
  36              	@ -fsched-last-insn-heuristic -fsched-rank-heuristic -fsched-spec
  37              	@ -fsched-spec-insn-heuristic -fsched-stalled-insns-dep -fshow-column
  38              	@ -fsigned-zeros -fsplit-ivs-in-unroller -fstrict-volatile-bitfields
  39              	@ -fsync-libcalls -ftrapping-math -ftree-coalesce-vars -ftree-cselim
  40              	@ -ftree-forwprop -ftree-loop-if-convert -ftree-loop-im -ftree-loop-ivcanon
  41              	@ -ftree-loop-optimize -ftree-parallelize-loops= -ftree-phiprop -ftree-pta
  42              	@ -ftree-reassoc -ftree-scev-cprop -ftree-slp-vectorize
  43              	@ -ftree-vect-loop-version -funit-at-a-time -fverbose-asm
  44              	@ -fzero-initialized-in-bss -mfix-cortex-m3-ldrd -mlittle-endian
  45              	@ -mpic-data-is-text-relative -msched-prolog -mthumb -munaligned-access
  46              	@ -mvectorize-with-neon-quad
  47              	
  48              		.text
  49              	.Ltext0:
  50              		.cfi_sections	.debug_frame
  51              		.global	pxCurrentTCB
  52              		.section	.bss.pxCurrentTCB,"aw",%nobits
  53              		.align	2
  54              		.type	pxCurrentTCB, %object
  55              		.size	pxCurrentTCB, 4
  56              	pxCurrentTCB:
  57 0000 00000000 		.space	4
ARM GAS  C:\Users\Adrian\AppData\Local\Temp\ccgZ1piN.s 			page 2


  58              		.section	.bss.pxReadyTasksLists,"aw",%nobits
  59              		.align	2
  60              		.type	pxReadyTasksLists, %object
  61              		.size	pxReadyTasksLists, 100
  62              	pxReadyTasksLists:
  63 0000 00000000 		.space	100
  63      00000000 
  63      00000000 
  63      00000000 
  63      00000000 
  64              		.section	.bss.xDelayedTaskList1,"aw",%nobits
  65              		.align	2
  66              		.type	xDelayedTaskList1, %object
  67              		.size	xDelayedTaskList1, 20
  68              	xDelayedTaskList1:
  69 0000 00000000 		.space	20
  69      00000000 
  69      00000000 
  69      00000000 
  69      00000000 
  70              		.section	.bss.xDelayedTaskList2,"aw",%nobits
  71              		.align	2
  72              		.type	xDelayedTaskList2, %object
  73              		.size	xDelayedTaskList2, 20
  74              	xDelayedTaskList2:
  75 0000 00000000 		.space	20
  75      00000000 
  75      00000000 
  75      00000000 
  75      00000000 
  76              		.section	.bss.pxDelayedTaskList,"aw",%nobits
  77              		.align	2
  78              		.type	pxDelayedTaskList, %object
  79              		.size	pxDelayedTaskList, 4
  80              	pxDelayedTaskList:
  81 0000 00000000 		.space	4
  82              		.section	.bss.pxOverflowDelayedTaskList,"aw",%nobits
  83              		.align	2
  84              		.type	pxOverflowDelayedTaskList, %object
  85              		.size	pxOverflowDelayedTaskList, 4
  86              	pxOverflowDelayedTaskList:
  87 0000 00000000 		.space	4
  88              		.section	.bss.xPendingReadyList,"aw",%nobits
  89              		.align	2
  90              		.type	xPendingReadyList, %object
  91              		.size	xPendingReadyList, 20
  92              	xPendingReadyList:
  93 0000 00000000 		.space	20
  93      00000000 
  93      00000000 
  93      00000000 
  93      00000000 
  94              		.section	.bss.xTasksWaitingTermination,"aw",%nobits
  95              		.align	2
  96              		.type	xTasksWaitingTermination, %object
  97              		.size	xTasksWaitingTermination, 20
  98              	xTasksWaitingTermination:
ARM GAS  C:\Users\Adrian\AppData\Local\Temp\ccgZ1piN.s 			page 3


  99 0000 00000000 		.space	20
  99      00000000 
  99      00000000 
  99      00000000 
  99      00000000 
 100              		.section	.bss.uxTasksDeleted,"aw",%nobits
 101              		.align	2
 102              		.type	uxTasksDeleted, %object
 103              		.size	uxTasksDeleted, 4
 104              	uxTasksDeleted:
 105 0000 00000000 		.space	4
 106              		.section	.bss.xSuspendedTaskList,"aw",%nobits
 107              		.align	2
 108              		.type	xSuspendedTaskList, %object
 109              		.size	xSuspendedTaskList, 20
 110              	xSuspendedTaskList:
 111 0000 00000000 		.space	20
 111      00000000 
 111      00000000 
 111      00000000 
 111      00000000 
 112              		.section	.bss.uxCurrentNumberOfTasks,"aw",%nobits
 113              		.align	2
 114              		.type	uxCurrentNumberOfTasks, %object
 115              		.size	uxCurrentNumberOfTasks, 4
 116              	uxCurrentNumberOfTasks:
 117 0000 00000000 		.space	4
 118              		.section	.bss.xTickCount,"aw",%nobits
 119              		.align	2
 120              		.type	xTickCount, %object
 121              		.size	xTickCount, 4
 122              	xTickCount:
 123 0000 00000000 		.space	4
 124              		.section	.bss.uxTopUsedPriority,"aw",%nobits
 125              		.align	2
 126              		.type	uxTopUsedPriority, %object
 127              		.size	uxTopUsedPriority, 4
 128              	uxTopUsedPriority:
 129 0000 00000000 		.space	4
 130              		.section	.bss.uxTopReadyPriority,"aw",%nobits
 131              		.align	2
 132              		.type	uxTopReadyPriority, %object
 133              		.size	uxTopReadyPriority, 4
 134              	uxTopReadyPriority:
 135 0000 00000000 		.space	4
 136              		.section	.bss.xSchedulerRunning,"aw",%nobits
 137              		.align	2
 138              		.type	xSchedulerRunning, %object
 139              		.size	xSchedulerRunning, 4
 140              	xSchedulerRunning:
 141 0000 00000000 		.space	4
 142              		.section	.bss.uxSchedulerSuspended,"aw",%nobits
 143              		.align	2
 144              		.type	uxSchedulerSuspended, %object
 145              		.size	uxSchedulerSuspended, 4
 146              	uxSchedulerSuspended:
 147 0000 00000000 		.space	4
ARM GAS  C:\Users\Adrian\AppData\Local\Temp\ccgZ1piN.s 			page 4


 148              		.section	.bss.uxMissedTicks,"aw",%nobits
 149              		.align	2
 150              		.type	uxMissedTicks, %object
 151              		.size	uxMissedTicks, 4
 152              	uxMissedTicks:
 153 0000 00000000 		.space	4
 154              		.section	.bss.xMissedYield,"aw",%nobits
 155              		.align	2
 156              		.type	xMissedYield, %object
 157              		.size	xMissedYield, 4
 158              	xMissedYield:
 159 0000 00000000 		.space	4
 160              		.section	.bss.xNumOfOverflows,"aw",%nobits
 161              		.align	2
 162              		.type	xNumOfOverflows, %object
 163              		.size	xNumOfOverflows, 4
 164              	xNumOfOverflows:
 165 0000 00000000 		.space	4
 166              		.section	.bss.uxTaskNumber,"aw",%nobits
 167              		.align	2
 168              		.type	uxTaskNumber, %object
 169              		.size	uxTaskNumber, 4
 170              	uxTaskNumber:
 171 0000 00000000 		.space	4
 172              		.section	.data.xNextTaskUnblockTime,"aw",%progbits
 173              		.align	2
 174              		.type	xNextTaskUnblockTime, %object
 175              		.size	xNextTaskUnblockTime, 4
 176              	xNextTaskUnblockTime:
 177 0000 FFFFFFFF 		.word	-1
 178              		.section	.bss.pcStatsString,"aw",%nobits
 179              		.align	2
 180              		.type	pcStatsString, %object
 181              		.size	pcStatsString, 50
 182              	pcStatsString:
 183 0000 00000000 		.space	50
 183      00000000 
 183      00000000 
 183      00000000 
 183      00000000 
 184 0032 0000     		.section	.bss.ulTaskSwitchedInTime,"aw",%nobits
 185              		.align	2
 186              		.type	ulTaskSwitchedInTime, %object
 187              		.size	ulTaskSwitchedInTime, 4
 188              	ulTaskSwitchedInTime:
 189 0000 00000000 		.space	4
 190              		.section	.text.xTaskGenericCreate,"ax",%progbits
 191              		.align	2
 192              		.global	xTaskGenericCreate
 193              		.thumb
 194              		.thumb_func
 195              		.type	xTaskGenericCreate, %function
 196              	xTaskGenericCreate:
 197              	.LFB55:
 198              		.file 1 "FreeRTOS/tasks.c"
   1:FreeRTOS/tasks.c **** /*
   2:FreeRTOS/tasks.c ****     FreeRTOS V7.2.0 - Copyright (C) 2012 Real Time Engineers Ltd.
ARM GAS  C:\Users\Adrian\AppData\Local\Temp\ccgZ1piN.s 			page 5


   3:FreeRTOS/tasks.c **** 	
   4:FreeRTOS/tasks.c **** 
   5:FreeRTOS/tasks.c ****     ***************************************************************************
   6:FreeRTOS/tasks.c ****      *                                                                       *
   7:FreeRTOS/tasks.c ****      *    FreeRTOS tutorial books are available in pdf and paperback.        *
   8:FreeRTOS/tasks.c ****      *    Complete, revised, and edited pdf reference manuals are also       *
   9:FreeRTOS/tasks.c ****      *    available.                                                         *
  10:FreeRTOS/tasks.c ****      *                                                                       *
  11:FreeRTOS/tasks.c ****      *    Purchasing FreeRTOS documentation will not only help you, by       *
  12:FreeRTOS/tasks.c ****      *    ensuring you get running as quickly as possible and with an        *
  13:FreeRTOS/tasks.c ****      *    in-depth knowledge of how to use FreeRTOS, it will also help       *
  14:FreeRTOS/tasks.c ****      *    the FreeRTOS project to continue with its mission of providing     *
  15:FreeRTOS/tasks.c ****      *    professional grade, cross platform, de facto standard solutions    *
  16:FreeRTOS/tasks.c ****      *    for microcontrollers - completely free of charge!                  *
  17:FreeRTOS/tasks.c ****      *                                                                       *
  18:FreeRTOS/tasks.c ****      *    >>> See http://www.FreeRTOS.org/Documentation for details. <<<     *
  19:FreeRTOS/tasks.c ****      *                                                                       *
  20:FreeRTOS/tasks.c ****      *    Thank you for using FreeRTOS, and thank you for your support!      *
  21:FreeRTOS/tasks.c ****      *                                                                       *
  22:FreeRTOS/tasks.c ****     ***************************************************************************
  23:FreeRTOS/tasks.c **** 
  24:FreeRTOS/tasks.c **** 
  25:FreeRTOS/tasks.c ****     This file is part of the FreeRTOS distribution.
  26:FreeRTOS/tasks.c **** 
  27:FreeRTOS/tasks.c ****     FreeRTOS is free software; you can redistribute it and/or modify it under
  28:FreeRTOS/tasks.c ****     the terms of the GNU General Public License (version 2) as published by the
  29:FreeRTOS/tasks.c ****     Free Software Foundation AND MODIFIED BY the FreeRTOS exception.
  30:FreeRTOS/tasks.c ****     >>>NOTE<<< The modification to the GPL is included to allow you to
  31:FreeRTOS/tasks.c ****     distribute a combined work that includes FreeRTOS without being obliged to
  32:FreeRTOS/tasks.c ****     provide the source code for proprietary components outside of the FreeRTOS
  33:FreeRTOS/tasks.c ****     kernel.  FreeRTOS is distributed in the hope that it will be useful, but
  34:FreeRTOS/tasks.c ****     WITHOUT ANY WARRANTY; without even the implied warranty of MERCHANTABILITY
  35:FreeRTOS/tasks.c ****     or FITNESS FOR A PARTICULAR PURPOSE.  See the GNU General Public License for
  36:FreeRTOS/tasks.c ****     more details. You should have received a copy of the GNU General Public
  37:FreeRTOS/tasks.c ****     License and the FreeRTOS license exception along with FreeRTOS; if not it
  38:FreeRTOS/tasks.c ****     can be viewed here: http://www.freertos.org/a00114.html and also obtained
  39:FreeRTOS/tasks.c ****     by writing to Richard Barry, contact details for whom are available on the
  40:FreeRTOS/tasks.c ****     FreeRTOS WEB site.
  41:FreeRTOS/tasks.c **** 
  42:FreeRTOS/tasks.c ****     1 tab == 4 spaces!
  43:FreeRTOS/tasks.c ****     
  44:FreeRTOS/tasks.c ****     ***************************************************************************
  45:FreeRTOS/tasks.c ****      *                                                                       *
  46:FreeRTOS/tasks.c ****      *    Having a problem?  Start by reading the FAQ "My application does   *
  47:FreeRTOS/tasks.c ****      *    not run, what could be wrong?                                      *
  48:FreeRTOS/tasks.c ****      *                                                                       *
  49:FreeRTOS/tasks.c ****      *    http://www.FreeRTOS.org/FAQHelp.html                               *
  50:FreeRTOS/tasks.c ****      *                                                                       *
  51:FreeRTOS/tasks.c ****     ***************************************************************************
  52:FreeRTOS/tasks.c **** 
  53:FreeRTOS/tasks.c ****     
  54:FreeRTOS/tasks.c ****     http://www.FreeRTOS.org - Documentation, training, latest information, 
  55:FreeRTOS/tasks.c ****     license and contact details.
  56:FreeRTOS/tasks.c ****     
  57:FreeRTOS/tasks.c ****     http://www.FreeRTOS.org/plus - A selection of FreeRTOS ecosystem products,
  58:FreeRTOS/tasks.c ****     including FreeRTOS+Trace - an indispensable productivity tool.
  59:FreeRTOS/tasks.c **** 
ARM GAS  C:\Users\Adrian\AppData\Local\Temp\ccgZ1piN.s 			page 6


  60:FreeRTOS/tasks.c ****     Real Time Engineers ltd license FreeRTOS to High Integrity Systems, who sell 
  61:FreeRTOS/tasks.c ****     the code with commercial support, indemnification, and middleware, under 
  62:FreeRTOS/tasks.c ****     the OpenRTOS brand: http://www.OpenRTOS.com.  High Integrity Systems also
  63:FreeRTOS/tasks.c ****     provide a safety engineered and independently SIL3 certified version under 
  64:FreeRTOS/tasks.c ****     the SafeRTOS brand: http://www.SafeRTOS.com.
  65:FreeRTOS/tasks.c **** */
  66:FreeRTOS/tasks.c **** 
  67:FreeRTOS/tasks.c **** 
  68:FreeRTOS/tasks.c **** #include <stdio.h>
  69:FreeRTOS/tasks.c **** #include <stdlib.h>
  70:FreeRTOS/tasks.c **** #include <string.h>
  71:FreeRTOS/tasks.c **** 
  72:FreeRTOS/tasks.c **** /* Defining MPU_WRAPPERS_INCLUDED_FROM_API_FILE prevents task.h from redefining
  73:FreeRTOS/tasks.c **** all the API functions to use the MPU wrappers.  That should only be done when
  74:FreeRTOS/tasks.c **** task.h is included from an application file. */
  75:FreeRTOS/tasks.c **** #define MPU_WRAPPERS_INCLUDED_FROM_API_FILE
  76:FreeRTOS/tasks.c **** 
  77:FreeRTOS/tasks.c **** #include "FreeRTOS.h"
  78:FreeRTOS/tasks.c **** #include "task.h"
  79:FreeRTOS/tasks.c **** #include "timers.h"
  80:FreeRTOS/tasks.c **** #include "StackMacros.h"
  81:FreeRTOS/tasks.c **** 
  82:FreeRTOS/tasks.c **** #undef MPU_WRAPPERS_INCLUDED_FROM_API_FILE
  83:FreeRTOS/tasks.c **** 
  84:FreeRTOS/tasks.c **** /*
  85:FreeRTOS/tasks.c ****  * Macro to define the amount of stack available to the idle task.
  86:FreeRTOS/tasks.c ****  */
  87:FreeRTOS/tasks.c **** #define tskIDLE_STACK_SIZE	configMINIMAL_STACK_SIZE
  88:FreeRTOS/tasks.c **** 
  89:FreeRTOS/tasks.c **** /*
  90:FreeRTOS/tasks.c ****  * Task control block.  A task control block (TCB) is allocated to each task,
  91:FreeRTOS/tasks.c ****  * and stores the context of the task.
  92:FreeRTOS/tasks.c ****  */
  93:FreeRTOS/tasks.c **** typedef struct tskTaskControlBlock
  94:FreeRTOS/tasks.c **** {
  95:FreeRTOS/tasks.c **** 	volatile portSTACK_TYPE	*pxTopOfStack;		/*< Points to the location of the last item placed on the 
  96:FreeRTOS/tasks.c **** 
  97:FreeRTOS/tasks.c **** 	#if ( portUSING_MPU_WRAPPERS == 1 )
  98:FreeRTOS/tasks.c **** 		xMPU_SETTINGS xMPUSettings;				/*< The MPU settings are defined as part of the port layer.  THIS 
  99:FreeRTOS/tasks.c **** 	#endif	
 100:FreeRTOS/tasks.c **** 	
 101:FreeRTOS/tasks.c **** 	xListItem				xGenericListItem;	/*< List item used to place the TCB in ready and blocked queues. */
 102:FreeRTOS/tasks.c **** 	xListItem				xEventListItem;		/*< List item used to place the TCB in event lists. */
 103:FreeRTOS/tasks.c **** 	unsigned portBASE_TYPE	uxPriority;			/*< The priority of the task where 0 is the lowest priority. 
 104:FreeRTOS/tasks.c **** 	portSTACK_TYPE			*pxStack;			/*< Points to the start of the stack. */
 105:FreeRTOS/tasks.c **** 	signed char				pcTaskName[ configMAX_TASK_NAME_LEN ];/*< Descriptive name given to the task when c
 106:FreeRTOS/tasks.c **** 
 107:FreeRTOS/tasks.c **** 	#if ( portSTACK_GROWTH > 0 )
 108:FreeRTOS/tasks.c **** 		portSTACK_TYPE *pxEndOfStack;			/*< Used for stack overflow checking on architectures where the s
 109:FreeRTOS/tasks.c **** 	#endif
 110:FreeRTOS/tasks.c **** 
 111:FreeRTOS/tasks.c **** 	#if ( portCRITICAL_NESTING_IN_TCB == 1 )
 112:FreeRTOS/tasks.c **** 		unsigned portBASE_TYPE uxCriticalNesting;
 113:FreeRTOS/tasks.c **** 	#endif
 114:FreeRTOS/tasks.c **** 
 115:FreeRTOS/tasks.c **** 	#if ( configUSE_TRACE_FACILITY == 1 )
 116:FreeRTOS/tasks.c **** 		unsigned portBASE_TYPE	uxTCBNumber;	/*< This stores a number that increments each time a TCB is c
ARM GAS  C:\Users\Adrian\AppData\Local\Temp\ccgZ1piN.s 			page 7


 117:FreeRTOS/tasks.c **** 		unsigned portBASE_TYPE  uxTaskNumber;	/*< This stores a number specifically for use by third part
 118:FreeRTOS/tasks.c **** 	#endif
 119:FreeRTOS/tasks.c **** 
 120:FreeRTOS/tasks.c **** 	#if ( configUSE_MUTEXES == 1 )
 121:FreeRTOS/tasks.c **** 		unsigned portBASE_TYPE uxBasePriority;	/*< The priority last assigned to the task - used by the p
 122:FreeRTOS/tasks.c **** 	#endif
 123:FreeRTOS/tasks.c **** 
 124:FreeRTOS/tasks.c **** 	#if ( configUSE_APPLICATION_TASK_TAG == 1 )
 125:FreeRTOS/tasks.c **** 		pdTASK_HOOK_CODE pxTaskTag;
 126:FreeRTOS/tasks.c **** 	#endif
 127:FreeRTOS/tasks.c **** 
 128:FreeRTOS/tasks.c **** 	#if ( configGENERATE_RUN_TIME_STATS == 1 )
 129:FreeRTOS/tasks.c **** 		unsigned long ulRunTimeCounter;		/*< Used for calculating how much CPU time each task is utilisin
 130:FreeRTOS/tasks.c **** 	#endif
 131:FreeRTOS/tasks.c **** 
 132:FreeRTOS/tasks.c **** } tskTCB;
 133:FreeRTOS/tasks.c **** 
 134:FreeRTOS/tasks.c **** 
 135:FreeRTOS/tasks.c **** /*
 136:FreeRTOS/tasks.c ****  * Some kernel aware debuggers require data to be viewed to be global, rather
 137:FreeRTOS/tasks.c ****  * than file scope.
 138:FreeRTOS/tasks.c ****  */
 139:FreeRTOS/tasks.c **** #ifdef portREMOVE_STATIC_QUALIFIER
 140:FreeRTOS/tasks.c **** 	#define static
 141:FreeRTOS/tasks.c **** #endif
 142:FreeRTOS/tasks.c **** 
 143:FreeRTOS/tasks.c **** /*lint -e956 */
 144:FreeRTOS/tasks.c **** PRIVILEGED_DATA tskTCB * volatile pxCurrentTCB = NULL;
 145:FreeRTOS/tasks.c **** 
 146:FreeRTOS/tasks.c **** /* Lists for ready and blocked tasks. --------------------*/
 147:FreeRTOS/tasks.c **** 
 148:FreeRTOS/tasks.c **** PRIVILEGED_DATA static xList pxReadyTasksLists[ configMAX_PRIORITIES ];	/*< Prioritised ready tasks
 149:FreeRTOS/tasks.c **** PRIVILEGED_DATA static xList xDelayedTaskList1;							/*< Delayed tasks. */
 150:FreeRTOS/tasks.c **** PRIVILEGED_DATA static xList xDelayedTaskList2;							/*< Delayed tasks (two lists are used - one f
 151:FreeRTOS/tasks.c **** PRIVILEGED_DATA static xList * volatile pxDelayedTaskList ;				/*< Points to the delayed task list 
 152:FreeRTOS/tasks.c **** PRIVILEGED_DATA static xList * volatile pxOverflowDelayedTaskList;		/*< Points to the delayed task 
 153:FreeRTOS/tasks.c **** PRIVILEGED_DATA static xList xPendingReadyList;							/*< Tasks that have been readied while the sc
 154:FreeRTOS/tasks.c **** 
 155:FreeRTOS/tasks.c **** #if ( INCLUDE_vTaskDelete == 1 )
 156:FreeRTOS/tasks.c **** 
 157:FreeRTOS/tasks.c **** 	PRIVILEGED_DATA static xList xTasksWaitingTermination;				/*< Tasks that have been deleted - but t
 158:FreeRTOS/tasks.c **** 	PRIVILEGED_DATA static volatile unsigned portBASE_TYPE uxTasksDeleted = ( unsigned portBASE_TYPE )
 159:FreeRTOS/tasks.c **** 
 160:FreeRTOS/tasks.c **** #endif
 161:FreeRTOS/tasks.c **** 
 162:FreeRTOS/tasks.c **** #if ( INCLUDE_vTaskSuspend == 1 )
 163:FreeRTOS/tasks.c **** 
 164:FreeRTOS/tasks.c **** 	PRIVILEGED_DATA static xList xSuspendedTaskList;					/*< Tasks that are currently suspended. */
 165:FreeRTOS/tasks.c **** 
 166:FreeRTOS/tasks.c **** #endif
 167:FreeRTOS/tasks.c **** 
 168:FreeRTOS/tasks.c **** #if ( INCLUDE_xTaskGetIdleTaskHandle == 1 )
 169:FreeRTOS/tasks.c **** 	
 170:FreeRTOS/tasks.c **** 	PRIVILEGED_DATA static xTaskHandle xIdleTaskHandle = NULL;
 171:FreeRTOS/tasks.c **** 	
 172:FreeRTOS/tasks.c **** #endif
 173:FreeRTOS/tasks.c **** 
ARM GAS  C:\Users\Adrian\AppData\Local\Temp\ccgZ1piN.s 			page 8


 174:FreeRTOS/tasks.c **** /* File private variables. --------------------------------*/
 175:FreeRTOS/tasks.c **** PRIVILEGED_DATA static volatile unsigned portBASE_TYPE uxCurrentNumberOfTasks 	= ( unsigned portBAS
 176:FreeRTOS/tasks.c **** PRIVILEGED_DATA static volatile portTickType xTickCount 						= ( portTickType ) 0U;
 177:FreeRTOS/tasks.c **** PRIVILEGED_DATA static unsigned portBASE_TYPE uxTopUsedPriority	 				= tskIDLE_PRIORITY;
 178:FreeRTOS/tasks.c **** PRIVILEGED_DATA static volatile unsigned portBASE_TYPE uxTopReadyPriority 		= tskIDLE_PRIORITY;
 179:FreeRTOS/tasks.c **** PRIVILEGED_DATA static volatile signed portBASE_TYPE xSchedulerRunning 			= pdFALSE;
 180:FreeRTOS/tasks.c **** PRIVILEGED_DATA static volatile unsigned portBASE_TYPE uxSchedulerSuspended	 	= ( unsigned portBASE
 181:FreeRTOS/tasks.c **** PRIVILEGED_DATA static volatile unsigned portBASE_TYPE uxMissedTicks 			= ( unsigned portBASE_TYPE 
 182:FreeRTOS/tasks.c **** PRIVILEGED_DATA static volatile portBASE_TYPE xMissedYield 						= ( portBASE_TYPE ) pdFALSE;
 183:FreeRTOS/tasks.c **** PRIVILEGED_DATA static volatile portBASE_TYPE xNumOfOverflows 					= ( portBASE_TYPE ) 0;
 184:FreeRTOS/tasks.c **** PRIVILEGED_DATA static unsigned portBASE_TYPE uxTaskNumber 						= ( unsigned portBASE_TYPE ) 0U;
 185:FreeRTOS/tasks.c **** PRIVILEGED_DATA static portTickType xNextTaskUnblockTime						= ( portTickType ) portMAX_DELAY;
 186:FreeRTOS/tasks.c **** 
 187:FreeRTOS/tasks.c **** #if ( configGENERATE_RUN_TIME_STATS == 1 )
 188:FreeRTOS/tasks.c **** 
 189:FreeRTOS/tasks.c **** 	PRIVILEGED_DATA static char pcStatsString[ 50 ] ;
 190:FreeRTOS/tasks.c **** 	PRIVILEGED_DATA static unsigned long ulTaskSwitchedInTime = 0UL;	/*< Holds the value of a timer/co
 191:FreeRTOS/tasks.c **** 	static void prvGenerateRunTimeStatsForTasksInList( const signed char *pcWriteBuffer, xList *pxList
 192:FreeRTOS/tasks.c **** 
 193:FreeRTOS/tasks.c **** #endif
 194:FreeRTOS/tasks.c **** 
 195:FreeRTOS/tasks.c **** /* Debugging and trace facilities private variables and macros. ------------*/
 196:FreeRTOS/tasks.c **** 
 197:FreeRTOS/tasks.c **** /*
 198:FreeRTOS/tasks.c ****  * The value used to fill the stack of a task when the task is created.  This
 199:FreeRTOS/tasks.c ****  * is used purely for checking the high water mark for tasks.
 200:FreeRTOS/tasks.c ****  */
 201:FreeRTOS/tasks.c **** #define tskSTACK_FILL_BYTE	( 0xa5U )
 202:FreeRTOS/tasks.c **** 
 203:FreeRTOS/tasks.c **** /*
 204:FreeRTOS/tasks.c ****  * Macros used by vListTask to indicate which state a task is in.
 205:FreeRTOS/tasks.c ****  */
 206:FreeRTOS/tasks.c **** #define tskBLOCKED_CHAR		( ( signed char ) 'B' )
 207:FreeRTOS/tasks.c **** #define tskREADY_CHAR		( ( signed char ) 'R' )
 208:FreeRTOS/tasks.c **** #define tskDELETED_CHAR		( ( signed char ) 'D' )
 209:FreeRTOS/tasks.c **** #define tskSUSPENDED_CHAR	( ( signed char ) 'S' )
 210:FreeRTOS/tasks.c **** 
 211:FreeRTOS/tasks.c **** /*-----------------------------------------------------------*/
 212:FreeRTOS/tasks.c **** 
 213:FreeRTOS/tasks.c **** /*
 214:FreeRTOS/tasks.c ****  * Place the task represented by pxTCB into the appropriate ready queue for
 215:FreeRTOS/tasks.c ****  * the task.  It is inserted at the end of the list.  One quirk of this is
 216:FreeRTOS/tasks.c ****  * that if the task being inserted is at the same priority as the currently
 217:FreeRTOS/tasks.c ****  * executing task, then it will only be rescheduled after the currently
 218:FreeRTOS/tasks.c ****  * executing task has been rescheduled.
 219:FreeRTOS/tasks.c ****  */
 220:FreeRTOS/tasks.c **** #define prvAddTaskToReadyQueue( pxTCB )																					\
 221:FreeRTOS/tasks.c **** 	traceMOVED_TASK_TO_READY_STATE( pxTCB )																				\
 222:FreeRTOS/tasks.c **** 	if( ( pxTCB )->uxPriority > uxTopReadyPriority )																	\
 223:FreeRTOS/tasks.c **** 	{																													\
 224:FreeRTOS/tasks.c **** 		uxTopReadyPriority = ( pxTCB )->uxPriority;																		\
 225:FreeRTOS/tasks.c **** 	}																													\
 226:FreeRTOS/tasks.c **** 	vListInsertEnd( ( xList * ) &( pxReadyTasksLists[ ( pxTCB )->uxPriority ] ), &( ( pxTCB )->xGeneri
 227:FreeRTOS/tasks.c **** /*-----------------------------------------------------------*/
 228:FreeRTOS/tasks.c **** 
 229:FreeRTOS/tasks.c **** /*
 230:FreeRTOS/tasks.c ****  * Macro that looks at the list of tasks that are currently delayed to see if
ARM GAS  C:\Users\Adrian\AppData\Local\Temp\ccgZ1piN.s 			page 9


 231:FreeRTOS/tasks.c ****  * any require waking.
 232:FreeRTOS/tasks.c ****  *
 233:FreeRTOS/tasks.c ****  * Tasks are stored in the queue in the order of their wake time - meaning
 234:FreeRTOS/tasks.c ****  * once one tasks has been found whose timer has not expired we need not look
 235:FreeRTOS/tasks.c ****  * any further down the list.
 236:FreeRTOS/tasks.c ****  */
 237:FreeRTOS/tasks.c **** #define prvCheckDelayedTasks()															\
 238:FreeRTOS/tasks.c **** {																						\
 239:FreeRTOS/tasks.c **** portTickType xItemValue;																\
 240:FreeRTOS/tasks.c **** 																						\
 241:FreeRTOS/tasks.c **** 	/* Is the tick count greater than or equal to the wake time of the first			\
 242:FreeRTOS/tasks.c **** 	task referenced from the delayed tasks list? */										\
 243:FreeRTOS/tasks.c **** 	if( xTickCount >= xNextTaskUnblockTime )											\
 244:FreeRTOS/tasks.c **** 	{																					\
 245:FreeRTOS/tasks.c **** 		for( ;; )																		\
 246:FreeRTOS/tasks.c **** 		{																				\
 247:FreeRTOS/tasks.c **** 			if( listLIST_IS_EMPTY( pxDelayedTaskList ) != pdFALSE )						\
 248:FreeRTOS/tasks.c **** 			{																			\
 249:FreeRTOS/tasks.c **** 				/* The delayed list is empty.  Set xNextTaskUnblockTime to the			\
 250:FreeRTOS/tasks.c **** 				maximum possible value so it is extremely unlikely that the				\
 251:FreeRTOS/tasks.c **** 				if( xTickCount >= xNextTaskUnblockTime ) test will pass next			\
 252:FreeRTOS/tasks.c **** 				time through. */														\
 253:FreeRTOS/tasks.c **** 				xNextTaskUnblockTime = portMAX_DELAY;									\
 254:FreeRTOS/tasks.c **** 				break;																	\
 255:FreeRTOS/tasks.c **** 			}																			\
 256:FreeRTOS/tasks.c **** 			else																		\
 257:FreeRTOS/tasks.c **** 			{																			\
 258:FreeRTOS/tasks.c **** 				/* The delayed list is not empty, get the value of the item at			\
 259:FreeRTOS/tasks.c **** 				the head of the delayed list.  This is the time at which the			\
 260:FreeRTOS/tasks.c **** 				task at the head of the delayed list should be removed from				\
 261:FreeRTOS/tasks.c **** 				the Blocked state. */													\
 262:FreeRTOS/tasks.c **** 				pxTCB = ( tskTCB * ) listGET_OWNER_OF_HEAD_ENTRY( pxDelayedTaskList );	\
 263:FreeRTOS/tasks.c **** 				xItemValue = listGET_LIST_ITEM_VALUE( &( pxTCB->xGenericListItem ) );	\
 264:FreeRTOS/tasks.c **** 																						\
 265:FreeRTOS/tasks.c **** 				if( xTickCount < xItemValue )											\
 266:FreeRTOS/tasks.c **** 				{																		\
 267:FreeRTOS/tasks.c **** 					/* It is not time to unblock this item yet, but the item			\
 268:FreeRTOS/tasks.c **** 					value is the time at which the task at the head of the				\
 269:FreeRTOS/tasks.c **** 					blocked list should be removed from the Blocked state -				\
 270:FreeRTOS/tasks.c **** 					so record the item value in xNextTaskUnblockTime. */				\
 271:FreeRTOS/tasks.c **** 					xNextTaskUnblockTime = xItemValue;									\
 272:FreeRTOS/tasks.c **** 					break;																\
 273:FreeRTOS/tasks.c **** 				}																		\
 274:FreeRTOS/tasks.c **** 																						\
 275:FreeRTOS/tasks.c **** 				/* It is time to remove the item from the Blocked state. */				\
 276:FreeRTOS/tasks.c **** 				vListRemove( &( pxTCB->xGenericListItem ) );							\
 277:FreeRTOS/tasks.c **** 																						\
 278:FreeRTOS/tasks.c **** 				/* Is the task waiting on an event also? */								\
 279:FreeRTOS/tasks.c **** 				if( pxTCB->xEventListItem.pvContainer != NULL )							\
 280:FreeRTOS/tasks.c **** 				{																		\
 281:FreeRTOS/tasks.c **** 					vListRemove( &( pxTCB->xEventListItem ) );							\
 282:FreeRTOS/tasks.c **** 				}																		\
 283:FreeRTOS/tasks.c **** 				prvAddTaskToReadyQueue( pxTCB );										\
 284:FreeRTOS/tasks.c **** 			}																			\
 285:FreeRTOS/tasks.c **** 		}																				\
 286:FreeRTOS/tasks.c **** 	}																					\
 287:FreeRTOS/tasks.c **** }
ARM GAS  C:\Users\Adrian\AppData\Local\Temp\ccgZ1piN.s 			page 10


 288:FreeRTOS/tasks.c **** /*-----------------------------------------------------------*/
 289:FreeRTOS/tasks.c **** 
 290:FreeRTOS/tasks.c **** /*
 291:FreeRTOS/tasks.c ****  * Several functions take an xTaskHandle parameter that can optionally be NULL,
 292:FreeRTOS/tasks.c ****  * where NULL is used to indicate that the handle of the currently executing
 293:FreeRTOS/tasks.c ****  * task should be used in place of the parameter.  This macro simply checks to
 294:FreeRTOS/tasks.c ****  * see if the parameter is NULL and returns a pointer to the appropriate TCB.
 295:FreeRTOS/tasks.c ****  */
 296:FreeRTOS/tasks.c **** #define prvGetTCBFromHandle( pxHandle ) ( ( ( pxHandle ) == NULL ) ? ( tskTCB * ) pxCurrentTCB : ( 
 297:FreeRTOS/tasks.c **** 
 298:FreeRTOS/tasks.c **** /* Callback function prototypes. --------------------------*/
 299:FreeRTOS/tasks.c **** extern void vApplicationStackOverflowHook( xTaskHandle pxTask, signed char *pcTaskName );
 300:FreeRTOS/tasks.c **** extern void vApplicationTickHook( void );
 301:FreeRTOS/tasks.c **** 		
 302:FreeRTOS/tasks.c **** /* File private functions. --------------------------------*/
 303:FreeRTOS/tasks.c **** 
 304:FreeRTOS/tasks.c **** /*
 305:FreeRTOS/tasks.c ****  * Utility to ready a TCB for a given task.  Mainly just copies the parameters
 306:FreeRTOS/tasks.c ****  * into the TCB structure.
 307:FreeRTOS/tasks.c ****  */
 308:FreeRTOS/tasks.c **** static void prvInitialiseTCBVariables( tskTCB *pxTCB, const signed char * const pcName, unsigned po
 309:FreeRTOS/tasks.c **** 
 310:FreeRTOS/tasks.c **** /*
 311:FreeRTOS/tasks.c ****  * Utility to ready all the lists used by the scheduler.  This is called
 312:FreeRTOS/tasks.c ****  * automatically upon the creation of the first task.
 313:FreeRTOS/tasks.c ****  */
 314:FreeRTOS/tasks.c **** static void prvInitialiseTaskLists( void ) PRIVILEGED_FUNCTION;
 315:FreeRTOS/tasks.c **** 
 316:FreeRTOS/tasks.c **** /*
 317:FreeRTOS/tasks.c ****  * The idle task, which as all tasks is implemented as a never ending loop.
 318:FreeRTOS/tasks.c ****  * The idle task is automatically created and added to the ready lists upon
 319:FreeRTOS/tasks.c ****  * creation of the first user task.
 320:FreeRTOS/tasks.c ****  *
 321:FreeRTOS/tasks.c ****  * The portTASK_FUNCTION_PROTO() macro is used to allow port/compiler specific
 322:FreeRTOS/tasks.c ****  * language extensions.  The equivalent prototype for this function is:
 323:FreeRTOS/tasks.c ****  *
 324:FreeRTOS/tasks.c ****  * void prvIdleTask( void *pvParameters );
 325:FreeRTOS/tasks.c ****  *
 326:FreeRTOS/tasks.c ****  */
 327:FreeRTOS/tasks.c **** static portTASK_FUNCTION_PROTO( prvIdleTask, pvParameters );
 328:FreeRTOS/tasks.c **** 
 329:FreeRTOS/tasks.c **** /*
 330:FreeRTOS/tasks.c ****  * Utility to free all memory allocated by the scheduler to hold a TCB,
 331:FreeRTOS/tasks.c ****  * including the stack pointed to by the TCB.
 332:FreeRTOS/tasks.c ****  *
 333:FreeRTOS/tasks.c ****  * This does not free memory allocated by the task itself (i.e. memory
 334:FreeRTOS/tasks.c ****  * allocated by calls to pvPortMalloc from within the tasks application code).
 335:FreeRTOS/tasks.c ****  */
 336:FreeRTOS/tasks.c **** #if ( INCLUDE_vTaskDelete == 1 )
 337:FreeRTOS/tasks.c **** 
 338:FreeRTOS/tasks.c **** 	static void prvDeleteTCB( tskTCB *pxTCB ) PRIVILEGED_FUNCTION;
 339:FreeRTOS/tasks.c **** 
 340:FreeRTOS/tasks.c **** #endif
 341:FreeRTOS/tasks.c **** 
 342:FreeRTOS/tasks.c **** /*
 343:FreeRTOS/tasks.c ****  * Used only by the idle task.  This checks to see if anything has been placed
 344:FreeRTOS/tasks.c ****  * in the list of tasks waiting to be deleted.  If so the task is cleaned up
ARM GAS  C:\Users\Adrian\AppData\Local\Temp\ccgZ1piN.s 			page 11


 345:FreeRTOS/tasks.c ****  * and its TCB deleted.
 346:FreeRTOS/tasks.c ****  */
 347:FreeRTOS/tasks.c **** static void prvCheckTasksWaitingTermination( void ) PRIVILEGED_FUNCTION;
 348:FreeRTOS/tasks.c **** 
 349:FreeRTOS/tasks.c **** /*
 350:FreeRTOS/tasks.c ****  * The currently executing task is entering the Blocked state.  Add the task to
 351:FreeRTOS/tasks.c ****  * either the current or the overflow delayed task list.
 352:FreeRTOS/tasks.c ****  */
 353:FreeRTOS/tasks.c **** static void prvAddCurrentTaskToDelayedList( portTickType xTimeToWake ) PRIVILEGED_FUNCTION;
 354:FreeRTOS/tasks.c **** 
 355:FreeRTOS/tasks.c **** /*
 356:FreeRTOS/tasks.c ****  * Allocates memory from the heap for a TCB and associated stack.  Checks the
 357:FreeRTOS/tasks.c ****  * allocation was successful.
 358:FreeRTOS/tasks.c ****  */
 359:FreeRTOS/tasks.c **** static tskTCB *prvAllocateTCBAndStack( unsigned short usStackDepth, portSTACK_TYPE *puxStackBuffer 
 360:FreeRTOS/tasks.c **** 
 361:FreeRTOS/tasks.c **** /*
 362:FreeRTOS/tasks.c ****  * Called from vTaskList.  vListTasks details all the tasks currently under
 363:FreeRTOS/tasks.c ****  * control of the scheduler.  The tasks may be in one of a number of lists.
 364:FreeRTOS/tasks.c ****  * prvListTaskWithinSingleList accepts a list and details the tasks from
 365:FreeRTOS/tasks.c ****  * within just that list.
 366:FreeRTOS/tasks.c ****  *
 367:FreeRTOS/tasks.c ****  * THIS FUNCTION IS INTENDED FOR DEBUGGING ONLY, AND SHOULD NOT BE CALLED FROM
 368:FreeRTOS/tasks.c ****  * NORMAL APPLICATION CODE.
 369:FreeRTOS/tasks.c ****  */
 370:FreeRTOS/tasks.c **** #if ( configUSE_TRACE_FACILITY == 1 )
 371:FreeRTOS/tasks.c **** 
 372:FreeRTOS/tasks.c **** 	static void prvListTaskWithinSingleList( const signed char *pcWriteBuffer, xList *pxList, signed c
 373:FreeRTOS/tasks.c **** 
 374:FreeRTOS/tasks.c **** #endif
 375:FreeRTOS/tasks.c **** 
 376:FreeRTOS/tasks.c **** /*
 377:FreeRTOS/tasks.c ****  * When a task is created, the stack of the task is filled with a known value.
 378:FreeRTOS/tasks.c ****  * This function determines the 'high water mark' of the task stack by
 379:FreeRTOS/tasks.c ****  * determining how much of the stack remains at the original preset value.
 380:FreeRTOS/tasks.c ****  */
 381:FreeRTOS/tasks.c **** #if ( ( configUSE_TRACE_FACILITY == 1 ) || ( INCLUDE_uxTaskGetStackHighWaterMark == 1 ) )
 382:FreeRTOS/tasks.c **** 
 383:FreeRTOS/tasks.c **** 	static unsigned short usTaskCheckFreeStackSpace( const unsigned char * pucStackByte ) PRIVILEGED_F
 384:FreeRTOS/tasks.c **** 
 385:FreeRTOS/tasks.c **** #endif
 386:FreeRTOS/tasks.c **** 
 387:FreeRTOS/tasks.c **** 
 388:FreeRTOS/tasks.c **** /*lint +e956 */
 389:FreeRTOS/tasks.c **** 
 390:FreeRTOS/tasks.c **** 
 391:FreeRTOS/tasks.c **** 
 392:FreeRTOS/tasks.c **** /*-----------------------------------------------------------
 393:FreeRTOS/tasks.c ****  * TASK CREATION API documented in task.h
 394:FreeRTOS/tasks.c ****  *----------------------------------------------------------*/
 395:FreeRTOS/tasks.c **** 
 396:FreeRTOS/tasks.c **** signed portBASE_TYPE xTaskGenericCreate( pdTASK_CODE pxTaskCode, const signed char * const pcName, 
 397:FreeRTOS/tasks.c **** {
 199              		.loc 1 397 0
 200              		.cfi_startproc
 201              		@ args = 16, pretend = 0, frame = 32
 202              		@ frame_needed = 1, uses_anonymous_args = 0
ARM GAS  C:\Users\Adrian\AppData\Local\Temp\ccgZ1piN.s 			page 12


 203 0000 80B5     		push	{r7, lr}	@
 204              		.cfi_def_cfa_offset 8
 205              		.cfi_offset 7, -8
 206              		.cfi_offset 14, -4
 207 0002 8AB0     		sub	sp, sp, #40	@,,
 208              		.cfi_def_cfa_offset 48
 209 0004 02AF     		add	r7, sp, #8	@,,
 210              		.cfi_def_cfa 7, 40
 211 0006 F860     		str	r0, [r7, #12]	@ pxTaskCode, pxTaskCode
 212 0008 B960     		str	r1, [r7, #8]	@ pcName, pcName
 213 000a 3B60     		str	r3, [r7]	@ pvParameters, pvParameters
 214 000c 1346     		mov	r3, r2	@ movhi	@ tmp142, tmp141
 215 000e FB80     		strh	r3, [r7, #6]	@ movhi	@ tmp142, usStackDepth
 398:FreeRTOS/tasks.c **** signed portBASE_TYPE xReturn;
 399:FreeRTOS/tasks.c **** tskTCB * pxNewTCB;
 400:FreeRTOS/tasks.c **** 
 401:FreeRTOS/tasks.c **** 	configASSERT( pxTaskCode );
 402:FreeRTOS/tasks.c **** 	configASSERT( ( ( uxPriority & ( ~portPRIVILEGE_BIT ) ) < configMAX_PRIORITIES ) );
 403:FreeRTOS/tasks.c **** 
 404:FreeRTOS/tasks.c **** 	/* Allocate the memory required by the TCB and stack for the new task,
 405:FreeRTOS/tasks.c **** 	checking that the allocation was successful. */
 406:FreeRTOS/tasks.c **** 	pxNewTCB = prvAllocateTCBAndStack( usStackDepth, puxStackBuffer );
 216              		.loc 1 406 0
 217 0010 FB88     		ldrh	r3, [r7, #6]	@ tmp143, usStackDepth
 218 0012 1846     		mov	r0, r3	@, tmp143
 219 0014 396B     		ldr	r1, [r7, #48]	@, puxStackBuffer
 220 0016 FFF7FEFF 		bl	prvAllocateTCBAndStack	@
 221 001a B861     		str	r0, [r7, #24]	@, pxNewTCB
 407:FreeRTOS/tasks.c **** 
 408:FreeRTOS/tasks.c **** 	if( pxNewTCB != NULL )
 222              		.loc 1 408 0
 223 001c BB69     		ldr	r3, [r7, #24]	@ tmp144, pxNewTCB
 224 001e 002B     		cmp	r3, #0	@ tmp144,
 225 0020 74D0     		beq	.L2	@,
 226              	.LBB2:
 409:FreeRTOS/tasks.c **** 	{
 410:FreeRTOS/tasks.c **** 		portSTACK_TYPE *pxTopOfStack;
 411:FreeRTOS/tasks.c **** 
 412:FreeRTOS/tasks.c **** 		#if( portUSING_MPU_WRAPPERS == 1 )
 413:FreeRTOS/tasks.c **** 			/* Should the task be created in privileged mode? */
 414:FreeRTOS/tasks.c **** 			portBASE_TYPE xRunPrivileged;
 415:FreeRTOS/tasks.c **** 			if( ( uxPriority & portPRIVILEGE_BIT ) != 0U )
 416:FreeRTOS/tasks.c **** 			{
 417:FreeRTOS/tasks.c **** 				xRunPrivileged = pdTRUE;
 418:FreeRTOS/tasks.c **** 			}
 419:FreeRTOS/tasks.c **** 			else
 420:FreeRTOS/tasks.c **** 			{
 421:FreeRTOS/tasks.c **** 				xRunPrivileged = pdFALSE;
 422:FreeRTOS/tasks.c **** 			}
 423:FreeRTOS/tasks.c **** 			uxPriority &= ~portPRIVILEGE_BIT;
 424:FreeRTOS/tasks.c **** 		#endif /* portUSING_MPU_WRAPPERS == 1 */
 425:FreeRTOS/tasks.c **** 
 426:FreeRTOS/tasks.c **** 		/* Calculate the top of stack address.  This depends on whether the
 427:FreeRTOS/tasks.c **** 		stack grows from high memory to low (as per the 80x86) or visa versa.
 428:FreeRTOS/tasks.c **** 		portSTACK_GROWTH is used to make the result positive or negative as
 429:FreeRTOS/tasks.c **** 		required by the port. */
 430:FreeRTOS/tasks.c **** 		#if( portSTACK_GROWTH < 0 )
ARM GAS  C:\Users\Adrian\AppData\Local\Temp\ccgZ1piN.s 			page 13


 431:FreeRTOS/tasks.c **** 		{
 432:FreeRTOS/tasks.c **** 			pxTopOfStack = pxNewTCB->pxStack + ( usStackDepth - ( unsigned short ) 1 );
 227              		.loc 1 432 0
 228 0022 BB69     		ldr	r3, [r7, #24]	@ tmp145, pxNewTCB
 229 0024 1A6B     		ldr	r2, [r3, #48]	@ D.6985, pxNewTCB_4->pxStack
 230 0026 FB88     		ldrh	r3, [r7, #6]	@ D.6986, usStackDepth
 231 0028 03F18043 		add	r3, r3, #1073741824	@ D.6986, D.6986,
 232 002c 013B     		subs	r3, r3, #1	@ D.6986, D.6986,
 233 002e 9B00     		lsls	r3, r3, #2	@ D.6986, D.6986,
 234 0030 1344     		add	r3, r3, r2	@ tmp146, D.6985
 235 0032 7B61     		str	r3, [r7, #20]	@ tmp146, pxTopOfStack
 433:FreeRTOS/tasks.c **** 			pxTopOfStack = ( portSTACK_TYPE * ) ( ( ( portPOINTER_SIZE_TYPE ) pxTopOfStack ) & ( ( portPOINT
 236              		.loc 1 433 0
 237 0034 7B69     		ldr	r3, [r7, #20]	@ pxTopOfStack.0, pxTopOfStack
 238 0036 23F00703 		bic	r3, r3, #7	@ D.6987, pxTopOfStack.0,
 239 003a 7B61     		str	r3, [r7, #20]	@ D.6987, pxTopOfStack
 434:FreeRTOS/tasks.c **** 
 435:FreeRTOS/tasks.c **** 			/* Check the alignment of the calculated top of stack is correct. */
 436:FreeRTOS/tasks.c **** 			configASSERT( ( ( ( unsigned long ) pxTopOfStack & ( unsigned long ) portBYTE_ALIGNMENT_MASK ) =
 437:FreeRTOS/tasks.c **** 		}
 438:FreeRTOS/tasks.c **** 		#else
 439:FreeRTOS/tasks.c **** 		{
 440:FreeRTOS/tasks.c **** 			pxTopOfStack = pxNewTCB->pxStack;
 441:FreeRTOS/tasks.c **** 			
 442:FreeRTOS/tasks.c **** 			/* Check the alignment of the stack buffer is correct. */
 443:FreeRTOS/tasks.c **** 			configASSERT( ( ( ( unsigned long ) pxNewTCB->pxStack & ( unsigned long ) portBYTE_ALIGNMENT_MAS
 444:FreeRTOS/tasks.c **** 
 445:FreeRTOS/tasks.c **** 			/* If we want to use stack checking on architectures that use
 446:FreeRTOS/tasks.c **** 			a positive stack growth direction then we also need to store the
 447:FreeRTOS/tasks.c **** 			other extreme of the stack space. */
 448:FreeRTOS/tasks.c **** 			pxNewTCB->pxEndOfStack = pxNewTCB->pxStack + ( usStackDepth - 1 );
 449:FreeRTOS/tasks.c **** 		}
 450:FreeRTOS/tasks.c **** 		#endif
 451:FreeRTOS/tasks.c **** 
 452:FreeRTOS/tasks.c **** 		/* Setup the newly allocated TCB with the initial state of the task. */
 453:FreeRTOS/tasks.c **** 		prvInitialiseTCBVariables( pxNewTCB, pcName, uxPriority, xRegions, usStackDepth );
 240              		.loc 1 453 0
 241 003c FB88     		ldrh	r3, [r7, #6]	@ tmp147, usStackDepth
 242 003e 0093     		str	r3, [sp]	@ tmp147,
 243 0040 B869     		ldr	r0, [r7, #24]	@, pxNewTCB
 244 0042 B968     		ldr	r1, [r7, #8]	@, pcName
 245 0044 BA6A     		ldr	r2, [r7, #40]	@, uxPriority
 246 0046 7B6B     		ldr	r3, [r7, #52]	@, xRegions
 247 0048 FFF7FEFF 		bl	prvInitialiseTCBVariables	@
 454:FreeRTOS/tasks.c **** 
 455:FreeRTOS/tasks.c **** 		/* Initialize the TCB stack to look as if the task was already running,
 456:FreeRTOS/tasks.c **** 		but had been interrupted by the scheduler.  The return address is set
 457:FreeRTOS/tasks.c **** 		to the start of the task function. Once the stack has been initialised
 458:FreeRTOS/tasks.c **** 		the	top of stack variable is updated. */
 459:FreeRTOS/tasks.c **** 		#if( portUSING_MPU_WRAPPERS == 1 )
 460:FreeRTOS/tasks.c **** 		{
 461:FreeRTOS/tasks.c **** 			pxNewTCB->pxTopOfStack = pxPortInitialiseStack( pxTopOfStack, pxTaskCode, pvParameters, xRunPriv
 462:FreeRTOS/tasks.c **** 		}
 463:FreeRTOS/tasks.c **** 		#else
 464:FreeRTOS/tasks.c **** 		{
 465:FreeRTOS/tasks.c **** 			pxNewTCB->pxTopOfStack = pxPortInitialiseStack( pxTopOfStack, pxTaskCode, pvParameters );
 248              		.loc 1 465 0
ARM GAS  C:\Users\Adrian\AppData\Local\Temp\ccgZ1piN.s 			page 14


 249 004c 7869     		ldr	r0, [r7, #20]	@, pxTopOfStack
 250 004e F968     		ldr	r1, [r7, #12]	@, pxTaskCode
 251 0050 3A68     		ldr	r2, [r7]	@, pvParameters
 252 0052 FFF7FEFF 		bl	pxPortInitialiseStack	@
 253 0056 0246     		mov	r2, r0	@ D.6985,
 254 0058 BB69     		ldr	r3, [r7, #24]	@ tmp148, pxNewTCB
 255 005a 1A60     		str	r2, [r3]	@ D.6985, pxNewTCB_4->pxTopOfStack
 466:FreeRTOS/tasks.c **** 		}
 467:FreeRTOS/tasks.c **** 		#endif
 468:FreeRTOS/tasks.c **** 
 469:FreeRTOS/tasks.c **** 		/* Check the alignment of the initialised stack. */
 470:FreeRTOS/tasks.c **** 		portALIGNMENT_ASSERT_pxCurrentTCB( ( ( ( unsigned long ) pxNewTCB->pxTopOfStack & ( unsigned long
 471:FreeRTOS/tasks.c **** 
 472:FreeRTOS/tasks.c **** 		if( ( void * ) pxCreatedTask != NULL )
 256              		.loc 1 472 0
 257 005c FB6A     		ldr	r3, [r7, #44]	@ tmp149, pxCreatedTask
 258 005e 002B     		cmp	r3, #0	@ tmp149,
 259 0060 02D0     		beq	.L3	@,
 473:FreeRTOS/tasks.c **** 		{
 474:FreeRTOS/tasks.c **** 			/* Pass the TCB out - in an anonymous way.  The calling function/
 475:FreeRTOS/tasks.c **** 			task can use this as a handle to delete the task later if
 476:FreeRTOS/tasks.c **** 			required.*/
 477:FreeRTOS/tasks.c **** 			*pxCreatedTask = ( xTaskHandle ) pxNewTCB;
 260              		.loc 1 477 0
 261 0062 FB6A     		ldr	r3, [r7, #44]	@ tmp150, pxCreatedTask
 262 0064 BA69     		ldr	r2, [r7, #24]	@ tmp151, pxNewTCB
 263 0066 1A60     		str	r2, [r3]	@ tmp151, *pxCreatedTask_19(D)
 264              	.L3:
 478:FreeRTOS/tasks.c **** 		}
 479:FreeRTOS/tasks.c **** 		
 480:FreeRTOS/tasks.c **** 		/* We are going to manipulate the task queues to add this task to a
 481:FreeRTOS/tasks.c **** 		ready list, so must make sure no interrupts occur. */
 482:FreeRTOS/tasks.c **** 		taskENTER_CRITICAL();
 265              		.loc 1 482 0
 266 0068 FFF7FEFF 		bl	vPortEnterCritical	@
 483:FreeRTOS/tasks.c **** 		{
 484:FreeRTOS/tasks.c **** 			uxCurrentNumberOfTasks++;
 267              		.loc 1 484 0
 268 006c 334B     		ldr	r3, .L12	@ tmp152,
 269 006e 1B68     		ldr	r3, [r3]	@ uxCurrentNumberOfTasks.1, uxCurrentNumberOfTasks
 270 0070 5A1C     		adds	r2, r3, #1	@ uxCurrentNumberOfTasks.2, uxCurrentNumberOfTasks.1,
 271 0072 324B     		ldr	r3, .L12	@ tmp153,
 272 0074 1A60     		str	r2, [r3]	@ uxCurrentNumberOfTasks.2, uxCurrentNumberOfTasks
 485:FreeRTOS/tasks.c **** 			if( pxCurrentTCB == NULL )
 273              		.loc 1 485 0
 274 0076 324B     		ldr	r3, .L12+4	@ tmp154,
 275 0078 1B68     		ldr	r3, [r3]	@ pxCurrentTCB.3, pxCurrentTCB
 276 007a 002B     		cmp	r3, #0	@ pxCurrentTCB.3,
 277 007c 09D1     		bne	.L4	@,
 486:FreeRTOS/tasks.c **** 			{
 487:FreeRTOS/tasks.c **** 				/* There are no other tasks, or all the other tasks are in
 488:FreeRTOS/tasks.c **** 				the suspended state - make this the current task. */
 489:FreeRTOS/tasks.c **** 				pxCurrentTCB =  pxNewTCB;
 278              		.loc 1 489 0
 279 007e 304B     		ldr	r3, .L12+4	@ tmp155,
 280 0080 BA69     		ldr	r2, [r7, #24]	@ tmp156, pxNewTCB
 281 0082 1A60     		str	r2, [r3]	@ tmp156, pxCurrentTCB
ARM GAS  C:\Users\Adrian\AppData\Local\Temp\ccgZ1piN.s 			page 15


 490:FreeRTOS/tasks.c **** 
 491:FreeRTOS/tasks.c **** 				if( uxCurrentNumberOfTasks == ( unsigned portBASE_TYPE ) 1 )
 282              		.loc 1 491 0
 283 0084 2D4B     		ldr	r3, .L12	@ tmp157,
 284 0086 1B68     		ldr	r3, [r3]	@ uxCurrentNumberOfTasks.4, uxCurrentNumberOfTasks
 285 0088 012B     		cmp	r3, #1	@ uxCurrentNumberOfTasks.4,
 286 008a 0FD1     		bne	.L6	@,
 492:FreeRTOS/tasks.c **** 				{
 493:FreeRTOS/tasks.c **** 					/* This is the first task to be created so do the preliminary
 494:FreeRTOS/tasks.c **** 					initialisation required.  We will not recover if this call
 495:FreeRTOS/tasks.c **** 					fails, but we will report the failure. */
 496:FreeRTOS/tasks.c **** 					prvInitialiseTaskLists();
 287              		.loc 1 496 0
 288 008c FFF7FEFF 		bl	prvInitialiseTaskLists	@
 289 0090 0CE0     		b	.L6	@
 290              	.L4:
 497:FreeRTOS/tasks.c **** 				}
 498:FreeRTOS/tasks.c **** 			}
 499:FreeRTOS/tasks.c **** 			else
 500:FreeRTOS/tasks.c **** 			{
 501:FreeRTOS/tasks.c **** 				/* If the scheduler is not already running, make this task the
 502:FreeRTOS/tasks.c **** 				current task if it is the highest priority task to be created
 503:FreeRTOS/tasks.c **** 				so far. */
 504:FreeRTOS/tasks.c **** 				if( xSchedulerRunning == pdFALSE )
 291              		.loc 1 504 0
 292 0092 2C4B     		ldr	r3, .L12+8	@ tmp158,
 293 0094 1B68     		ldr	r3, [r3]	@ xSchedulerRunning.5, xSchedulerRunning
 294 0096 002B     		cmp	r3, #0	@ xSchedulerRunning.5,
 295 0098 08D1     		bne	.L6	@,
 505:FreeRTOS/tasks.c **** 				{
 506:FreeRTOS/tasks.c **** 					if( pxCurrentTCB->uxPriority <= uxPriority )
 296              		.loc 1 506 0
 297 009a 294B     		ldr	r3, .L12+4	@ tmp159,
 298 009c 1B68     		ldr	r3, [r3]	@ pxCurrentTCB.6, pxCurrentTCB
 299 009e DA6A     		ldr	r2, [r3, #44]	@ D.6987, pxCurrentTCB.6_25->uxPriority
 300 00a0 BB6A     		ldr	r3, [r7, #40]	@ tmp160, uxPriority
 301 00a2 9A42     		cmp	r2, r3	@ D.6987, tmp160
 302 00a4 02D8     		bhi	.L6	@,
 507:FreeRTOS/tasks.c **** 					{
 508:FreeRTOS/tasks.c **** 						pxCurrentTCB = pxNewTCB;
 303              		.loc 1 508 0
 304 00a6 264B     		ldr	r3, .L12+4	@ tmp161,
 305 00a8 BA69     		ldr	r2, [r7, #24]	@ tmp162, pxNewTCB
 306 00aa 1A60     		str	r2, [r3]	@ tmp162, pxCurrentTCB
 307              	.L6:
 509:FreeRTOS/tasks.c **** 					}
 510:FreeRTOS/tasks.c **** 				}
 511:FreeRTOS/tasks.c **** 			}
 512:FreeRTOS/tasks.c **** 
 513:FreeRTOS/tasks.c **** 			/* Remember the top priority to make context switching faster.  Use
 514:FreeRTOS/tasks.c **** 			the priority in pxNewTCB as this has been capped to a valid value. */
 515:FreeRTOS/tasks.c **** 			if( pxNewTCB->uxPriority > uxTopUsedPriority )
 308              		.loc 1 515 0
 309 00ac BB69     		ldr	r3, [r7, #24]	@ tmp163, pxNewTCB
 310 00ae DA6A     		ldr	r2, [r3, #44]	@ D.6987, pxNewTCB_4->uxPriority
 311 00b0 254B     		ldr	r3, .L12+12	@ tmp164,
 312 00b2 1B68     		ldr	r3, [r3]	@ uxTopUsedPriority.7, uxTopUsedPriority
ARM GAS  C:\Users\Adrian\AppData\Local\Temp\ccgZ1piN.s 			page 16


 313 00b4 9A42     		cmp	r2, r3	@ D.6987, uxTopUsedPriority.7
 314 00b6 03D9     		bls	.L7	@,
 516:FreeRTOS/tasks.c **** 			{
 517:FreeRTOS/tasks.c **** 				uxTopUsedPriority = pxNewTCB->uxPriority;
 315              		.loc 1 517 0
 316 00b8 BB69     		ldr	r3, [r7, #24]	@ tmp165, pxNewTCB
 317 00ba DA6A     		ldr	r2, [r3, #44]	@ uxTopUsedPriority.8, pxNewTCB_4->uxPriority
 318 00bc 224B     		ldr	r3, .L12+12	@ tmp166,
 319 00be 1A60     		str	r2, [r3]	@ uxTopUsedPriority.8, uxTopUsedPriority
 320              	.L7:
 518:FreeRTOS/tasks.c **** 			}
 519:FreeRTOS/tasks.c **** 
 520:FreeRTOS/tasks.c **** 			#if ( configUSE_TRACE_FACILITY == 1 )
 521:FreeRTOS/tasks.c **** 			{
 522:FreeRTOS/tasks.c **** 				/* Add a counter into the TCB for tracing only. */
 523:FreeRTOS/tasks.c **** 				pxNewTCB->uxTCBNumber = uxTaskNumber;
 321              		.loc 1 523 0
 322 00c0 224B     		ldr	r3, .L12+16	@ tmp167,
 323 00c2 1A68     		ldr	r2, [r3]	@ uxTaskNumber.9, uxTaskNumber
 324 00c4 BB69     		ldr	r3, [r7, #24]	@ tmp168, pxNewTCB
 325 00c6 1A64     		str	r2, [r3, #64]	@ uxTaskNumber.9, pxNewTCB_4->uxTCBNumber
 524:FreeRTOS/tasks.c **** 			}
 525:FreeRTOS/tasks.c **** 			#endif
 526:FreeRTOS/tasks.c **** 			uxTaskNumber++;
 326              		.loc 1 526 0
 327 00c8 204B     		ldr	r3, .L12+16	@ tmp169,
 328 00ca 1B68     		ldr	r3, [r3]	@ uxTaskNumber.10, uxTaskNumber
 329 00cc 5A1C     		adds	r2, r3, #1	@ uxTaskNumber.11, uxTaskNumber.10,
 330 00ce 1F4B     		ldr	r3, .L12+16	@ tmp170,
 331 00d0 1A60     		str	r2, [r3]	@ uxTaskNumber.11, uxTaskNumber
 527:FreeRTOS/tasks.c **** 
 528:FreeRTOS/tasks.c **** 			prvAddTaskToReadyQueue( pxNewTCB );
 332              		.loc 1 528 0
 333 00d2 BB69     		ldr	r3, [r7, #24]	@ tmp171, pxNewTCB
 334 00d4 DA6A     		ldr	r2, [r3, #44]	@ D.6987, pxNewTCB_4->uxPriority
 335 00d6 1E4B     		ldr	r3, .L12+20	@ tmp172,
 336 00d8 1B68     		ldr	r3, [r3]	@ uxTopReadyPriority.12, uxTopReadyPriority
 337 00da 9A42     		cmp	r2, r3	@ D.6987, uxTopReadyPriority.12
 338 00dc 03D9     		bls	.L8	@,
 339              		.loc 1 528 0 is_stmt 0 discriminator 1
 340 00de BB69     		ldr	r3, [r7, #24]	@ tmp173, pxNewTCB
 341 00e0 DA6A     		ldr	r2, [r3, #44]	@ uxTopReadyPriority.13, pxNewTCB_4->uxPriority
 342 00e2 1B4B     		ldr	r3, .L12+20	@ tmp174,
 343 00e4 1A60     		str	r2, [r3]	@ uxTopReadyPriority.13, uxTopReadyPriority
 344              	.L8:
 345              		.loc 1 528 0 discriminator 2
 346 00e6 BB69     		ldr	r3, [r7, #24]	@ tmp175, pxNewTCB
 347 00e8 DA6A     		ldr	r2, [r3, #44]	@ D.6987, pxNewTCB_4->uxPriority
 348 00ea 1346     		mov	r3, r2	@ tmp176, D.6987
 349 00ec 9B00     		lsls	r3, r3, #2	@ tmp176, tmp176,
 350 00ee 1344     		add	r3, r3, r2	@ tmp176, D.6987
 351 00f0 9B00     		lsls	r3, r3, #2	@ tmp177, tmp176,
 352 00f2 184A     		ldr	r2, .L12+24	@ tmp178,
 353 00f4 1A44     		add	r2, r2, r3	@ D.6988, tmp176
 354 00f6 BB69     		ldr	r3, [r7, #24]	@ tmp179, pxNewTCB
 355 00f8 0433     		adds	r3, r3, #4	@ D.6989, tmp179,
 356 00fa 1046     		mov	r0, r2	@, D.6988
ARM GAS  C:\Users\Adrian\AppData\Local\Temp\ccgZ1piN.s 			page 17


 357 00fc 1946     		mov	r1, r3	@, D.6989
 358 00fe FFF7FEFF 		bl	vListInsertEnd	@
 529:FreeRTOS/tasks.c **** 
 530:FreeRTOS/tasks.c **** 			xReturn = pdPASS;
 359              		.loc 1 530 0 is_stmt 1 discriminator 2
 360 0102 0123     		movs	r3, #1	@ tmp180,
 361 0104 FB61     		str	r3, [r7, #28]	@ tmp180, xReturn
 531:FreeRTOS/tasks.c **** 			portSETUP_TCB( pxNewTCB );
 532:FreeRTOS/tasks.c **** 			traceTASK_CREATE( pxNewTCB );
 533:FreeRTOS/tasks.c **** 		}
 534:FreeRTOS/tasks.c **** 		taskEXIT_CRITICAL();
 362              		.loc 1 534 0 discriminator 2
 363 0106 FFF7FEFF 		bl	vPortExitCritical	@
 364              	.LBE2:
 365 010a 02E0     		b	.L9	@
 366              	.L2:
 535:FreeRTOS/tasks.c **** 	}
 536:FreeRTOS/tasks.c **** 	else
 537:FreeRTOS/tasks.c **** 	{
 538:FreeRTOS/tasks.c **** 		xReturn = errCOULD_NOT_ALLOCATE_REQUIRED_MEMORY;
 367              		.loc 1 538 0
 368 010c 4FF0FF33 		mov	r3, #-1	@ tmp181,
 369 0110 FB61     		str	r3, [r7, #28]	@ tmp181, xReturn
 370              	.L9:
 539:FreeRTOS/tasks.c **** 		traceTASK_CREATE_FAILED();
 540:FreeRTOS/tasks.c **** 	}
 541:FreeRTOS/tasks.c **** 
 542:FreeRTOS/tasks.c **** 	if( xReturn == pdPASS )
 371              		.loc 1 542 0
 372 0112 FB69     		ldr	r3, [r7, #28]	@ tmp182, xReturn
 373 0114 012B     		cmp	r3, #1	@ tmp182,
 374 0116 0BD1     		bne	.L10	@,
 543:FreeRTOS/tasks.c **** 	{
 544:FreeRTOS/tasks.c **** 		if( xSchedulerRunning != pdFALSE )
 375              		.loc 1 544 0
 376 0118 0A4B     		ldr	r3, .L12+8	@ tmp183,
 377 011a 1B68     		ldr	r3, [r3]	@ xSchedulerRunning.14, xSchedulerRunning
 378 011c 002B     		cmp	r3, #0	@ xSchedulerRunning.14,
 379 011e 07D0     		beq	.L10	@,
 545:FreeRTOS/tasks.c **** 		{
 546:FreeRTOS/tasks.c **** 			/* If the created task is of a higher priority than the current task
 547:FreeRTOS/tasks.c **** 			then it should run now. */
 548:FreeRTOS/tasks.c **** 			if( pxCurrentTCB->uxPriority < uxPriority )
 380              		.loc 1 548 0
 381 0120 074B     		ldr	r3, .L12+4	@ tmp184,
 382 0122 1B68     		ldr	r3, [r3]	@ pxCurrentTCB.15, pxCurrentTCB
 383 0124 DA6A     		ldr	r2, [r3, #44]	@ D.6987, pxCurrentTCB.15_42->uxPriority
 384 0126 BB6A     		ldr	r3, [r7, #40]	@ tmp185, uxPriority
 385 0128 9A42     		cmp	r2, r3	@ D.6987, tmp185
 386 012a 01D2     		bcs	.L10	@,
 549:FreeRTOS/tasks.c **** 			{
 550:FreeRTOS/tasks.c **** 				portYIELD_WITHIN_API();
 387              		.loc 1 550 0
 388 012c FFF7FEFF 		bl	vPortYieldFromISR	@
 389              	.L10:
 551:FreeRTOS/tasks.c **** 			}
 552:FreeRTOS/tasks.c **** 		}
ARM GAS  C:\Users\Adrian\AppData\Local\Temp\ccgZ1piN.s 			page 18


 553:FreeRTOS/tasks.c **** 	}
 554:FreeRTOS/tasks.c **** 
 555:FreeRTOS/tasks.c **** 	return xReturn;
 390              		.loc 1 555 0
 391 0130 FB69     		ldr	r3, [r7, #28]	@ D.6990, xReturn
 556:FreeRTOS/tasks.c **** }
 392              		.loc 1 556 0
 393 0132 1846     		mov	r0, r3	@, <retval>
 394 0134 2037     		adds	r7, r7, #32	@,,
 395 0136 BD46     		mov	sp, r7	@,
 396              		@ sp needed	@
 397 0138 80BD     		pop	{r7, pc}	@
 398              	.L13:
 399 013a 00BF     		.align	2
 400              	.L12:
 401 013c 00000000 		.word	uxCurrentNumberOfTasks
 402 0140 00000000 		.word	pxCurrentTCB
 403 0144 00000000 		.word	xSchedulerRunning
 404 0148 00000000 		.word	uxTopUsedPriority
 405 014c 00000000 		.word	uxTaskNumber
 406 0150 00000000 		.word	uxTopReadyPriority
 407 0154 00000000 		.word	pxReadyTasksLists
 408              		.cfi_endproc
 409              	.LFE55:
 410              		.size	xTaskGenericCreate, .-xTaskGenericCreate
 411              		.section	.text.vTaskDelete,"ax",%progbits
 412              		.align	2
 413              		.global	vTaskDelete
 414              		.thumb
 415              		.thumb_func
 416              		.type	vTaskDelete, %function
 417              	vTaskDelete:
 418              	.LFB56:
 557:FreeRTOS/tasks.c **** /*-----------------------------------------------------------*/
 558:FreeRTOS/tasks.c **** 
 559:FreeRTOS/tasks.c **** #if ( INCLUDE_vTaskDelete == 1 )
 560:FreeRTOS/tasks.c **** 
 561:FreeRTOS/tasks.c **** 	void vTaskDelete( xTaskHandle pxTaskToDelete )
 562:FreeRTOS/tasks.c **** 	{
 419              		.loc 1 562 0
 420              		.cfi_startproc
 421              		@ args = 0, pretend = 0, frame = 16
 422              		@ frame_needed = 1, uses_anonymous_args = 0
 423 0000 80B5     		push	{r7, lr}	@
 424              		.cfi_def_cfa_offset 8
 425              		.cfi_offset 7, -8
 426              		.cfi_offset 14, -4
 427 0002 84B0     		sub	sp, sp, #16	@,,
 428              		.cfi_def_cfa_offset 24
 429 0004 00AF     		add	r7, sp, #0	@,,
 430              		.cfi_def_cfa_register 7
 431 0006 7860     		str	r0, [r7, #4]	@ pxTaskToDelete, pxTaskToDelete
 563:FreeRTOS/tasks.c **** 	tskTCB *pxTCB;
 564:FreeRTOS/tasks.c **** 
 565:FreeRTOS/tasks.c **** 		taskENTER_CRITICAL();
 432              		.loc 1 565 0
 433 0008 FFF7FEFF 		bl	vPortEnterCritical	@
ARM GAS  C:\Users\Adrian\AppData\Local\Temp\ccgZ1piN.s 			page 19


 566:FreeRTOS/tasks.c **** 		{
 567:FreeRTOS/tasks.c **** 			/* Ensure a yield is performed if the current task is being
 568:FreeRTOS/tasks.c **** 			deleted. */
 569:FreeRTOS/tasks.c **** 			if( pxTaskToDelete == pxCurrentTCB )
 434              		.loc 1 569 0
 435 000c 1D4B     		ldr	r3, .L20	@ tmp121,
 436 000e 1B68     		ldr	r3, [r3]	@ pxCurrentTCB.16, pxCurrentTCB
 437 0010 7A68     		ldr	r2, [r7, #4]	@ tmp122, pxTaskToDelete
 438 0012 9A42     		cmp	r2, r3	@ tmp122, pxCurrentTCB.16
 439 0014 01D1     		bne	.L15	@,
 570:FreeRTOS/tasks.c **** 			{
 571:FreeRTOS/tasks.c **** 				pxTaskToDelete = NULL;
 440              		.loc 1 571 0
 441 0016 0023     		movs	r3, #0	@ tmp123,
 442 0018 7B60     		str	r3, [r7, #4]	@ tmp123, pxTaskToDelete
 443              	.L15:
 572:FreeRTOS/tasks.c **** 			}
 573:FreeRTOS/tasks.c **** 
 574:FreeRTOS/tasks.c **** 			/* If null is passed in here then we are deleting ourselves. */
 575:FreeRTOS/tasks.c **** 			pxTCB = prvGetTCBFromHandle( pxTaskToDelete );
 444              		.loc 1 575 0
 445 001a 7B68     		ldr	r3, [r7, #4]	@ tmp124, pxTaskToDelete
 446 001c 002B     		cmp	r3, #0	@ tmp124,
 447 001e 02D1     		bne	.L16	@,
 448              		.loc 1 575 0 is_stmt 0 discriminator 1
 449 0020 184B     		ldr	r3, .L20	@ tmp125,
 450 0022 1B68     		ldr	r3, [r3]	@ iftmp.17, pxCurrentTCB
 451 0024 00E0     		b	.L17	@
 452              	.L16:
 453              		.loc 1 575 0 discriminator 2
 454 0026 7B68     		ldr	r3, [r7, #4]	@ iftmp.17, pxTaskToDelete
 455              	.L17:
 456              		.loc 1 575 0 discriminator 3
 457 0028 FB60     		str	r3, [r7, #12]	@ iftmp.17, pxTCB
 576:FreeRTOS/tasks.c **** 
 577:FreeRTOS/tasks.c **** 			/* Remove task from the ready list and place in the	termination list.
 578:FreeRTOS/tasks.c **** 			This will stop the task from be scheduled.  The idle task will check
 579:FreeRTOS/tasks.c **** 			the termination list and free up any memory allocated by the
 580:FreeRTOS/tasks.c **** 			scheduler for the TCB and stack. */
 581:FreeRTOS/tasks.c **** 			vListRemove( &( pxTCB->xGenericListItem ) );
 458              		.loc 1 581 0 is_stmt 1 discriminator 3
 459 002a FB68     		ldr	r3, [r7, #12]	@ tmp126, pxTCB
 460 002c 0433     		adds	r3, r3, #4	@ D.6991, tmp126,
 461 002e 1846     		mov	r0, r3	@, D.6991
 462 0030 FFF7FEFF 		bl	vListRemove	@
 582:FreeRTOS/tasks.c **** 
 583:FreeRTOS/tasks.c **** 			/* Is the task waiting on an event also? */
 584:FreeRTOS/tasks.c **** 			if( pxTCB->xEventListItem.pvContainer != NULL )
 463              		.loc 1 584 0 discriminator 3
 464 0034 FB68     		ldr	r3, [r7, #12]	@ tmp127, pxTCB
 465 0036 9B6A     		ldr	r3, [r3, #40]	@ D.6992, pxTCB_8->xEventListItem.pvContainer
 466 0038 002B     		cmp	r3, #0	@ D.6992,
 467 003a 04D0     		beq	.L18	@,
 585:FreeRTOS/tasks.c **** 			{
 586:FreeRTOS/tasks.c **** 				vListRemove( &( pxTCB->xEventListItem ) );
 468              		.loc 1 586 0
 469 003c FB68     		ldr	r3, [r7, #12]	@ tmp128, pxTCB
ARM GAS  C:\Users\Adrian\AppData\Local\Temp\ccgZ1piN.s 			page 20


 470 003e 1833     		adds	r3, r3, #24	@ D.6991, tmp128,
 471 0040 1846     		mov	r0, r3	@, D.6991
 472 0042 FFF7FEFF 		bl	vListRemove	@
 473              	.L18:
 587:FreeRTOS/tasks.c **** 			}
 588:FreeRTOS/tasks.c **** 
 589:FreeRTOS/tasks.c **** 			vListInsertEnd( ( xList * ) &xTasksWaitingTermination, &( pxTCB->xGenericListItem ) );
 474              		.loc 1 589 0
 475 0046 FB68     		ldr	r3, [r7, #12]	@ tmp129, pxTCB
 476 0048 0433     		adds	r3, r3, #4	@ D.6991, tmp129,
 477 004a 0F48     		ldr	r0, .L20+4	@,
 478 004c 1946     		mov	r1, r3	@, D.6991
 479 004e FFF7FEFF 		bl	vListInsertEnd	@
 590:FreeRTOS/tasks.c **** 
 591:FreeRTOS/tasks.c **** 			/* Increment the ucTasksDeleted variable so the idle task knows
 592:FreeRTOS/tasks.c **** 			there is a task that has been deleted and that it should therefore
 593:FreeRTOS/tasks.c **** 			check the xTasksWaitingTermination list. */
 594:FreeRTOS/tasks.c **** 			++uxTasksDeleted;
 480              		.loc 1 594 0
 481 0052 0E4B     		ldr	r3, .L20+8	@ tmp130,
 482 0054 1B68     		ldr	r3, [r3]	@ uxTasksDeleted.18, uxTasksDeleted
 483 0056 5A1C     		adds	r2, r3, #1	@ uxTasksDeleted.19, uxTasksDeleted.18,
 484 0058 0C4B     		ldr	r3, .L20+8	@ tmp131,
 485 005a 1A60     		str	r2, [r3]	@ uxTasksDeleted.19, uxTasksDeleted
 595:FreeRTOS/tasks.c **** 
 596:FreeRTOS/tasks.c **** 			/* Increment the uxTaskNumberVariable also so kernel aware debuggers
 597:FreeRTOS/tasks.c **** 			can detect that the task lists need re-generating. */
 598:FreeRTOS/tasks.c **** 			uxTaskNumber++;
 486              		.loc 1 598 0
 487 005c 0C4B     		ldr	r3, .L20+12	@ tmp132,
 488 005e 1B68     		ldr	r3, [r3]	@ uxTaskNumber.20, uxTaskNumber
 489 0060 5A1C     		adds	r2, r3, #1	@ uxTaskNumber.21, uxTaskNumber.20,
 490 0062 0B4B     		ldr	r3, .L20+12	@ tmp133,
 491 0064 1A60     		str	r2, [r3]	@ uxTaskNumber.21, uxTaskNumber
 599:FreeRTOS/tasks.c **** 
 600:FreeRTOS/tasks.c **** 			traceTASK_DELETE( pxTCB );
 601:FreeRTOS/tasks.c **** 		}
 602:FreeRTOS/tasks.c **** 		taskEXIT_CRITICAL();
 492              		.loc 1 602 0
 493 0066 FFF7FEFF 		bl	vPortExitCritical	@
 603:FreeRTOS/tasks.c **** 
 604:FreeRTOS/tasks.c **** 		/* Force a reschedule if we have just deleted the current task. */
 605:FreeRTOS/tasks.c **** 		if( xSchedulerRunning != pdFALSE )
 494              		.loc 1 605 0
 495 006a 0A4B     		ldr	r3, .L20+16	@ tmp134,
 496 006c 1B68     		ldr	r3, [r3]	@ xSchedulerRunning.22, xSchedulerRunning
 497 006e 002B     		cmp	r3, #0	@ xSchedulerRunning.22,
 498 0070 04D0     		beq	.L14	@,
 606:FreeRTOS/tasks.c **** 		{
 607:FreeRTOS/tasks.c **** 			if( ( void * ) pxTaskToDelete == NULL )
 499              		.loc 1 607 0
 500 0072 7B68     		ldr	r3, [r7, #4]	@ tmp135, pxTaskToDelete
 501 0074 002B     		cmp	r3, #0	@ tmp135,
 502 0076 01D1     		bne	.L14	@,
 608:FreeRTOS/tasks.c **** 			{
 609:FreeRTOS/tasks.c **** 				portYIELD_WITHIN_API();
 503              		.loc 1 609 0
ARM GAS  C:\Users\Adrian\AppData\Local\Temp\ccgZ1piN.s 			page 21


 504 0078 FFF7FEFF 		bl	vPortYieldFromISR	@
 505              	.L14:
 610:FreeRTOS/tasks.c **** 			}
 611:FreeRTOS/tasks.c **** 		}
 612:FreeRTOS/tasks.c **** 	}
 506              		.loc 1 612 0
 507 007c 1037     		adds	r7, r7, #16	@,,
 508 007e BD46     		mov	sp, r7	@,
 509              		@ sp needed	@
 510 0080 80BD     		pop	{r7, pc}	@
 511              	.L21:
 512 0082 00BF     		.align	2
 513              	.L20:
 514 0084 00000000 		.word	pxCurrentTCB
 515 0088 00000000 		.word	xTasksWaitingTermination
 516 008c 00000000 		.word	uxTasksDeleted
 517 0090 00000000 		.word	uxTaskNumber
 518 0094 00000000 		.word	xSchedulerRunning
 519              		.cfi_endproc
 520              	.LFE56:
 521              		.size	vTaskDelete, .-vTaskDelete
 522              		.section	.text.vTaskDelayUntil,"ax",%progbits
 523              		.align	2
 524              		.global	vTaskDelayUntil
 525              		.thumb
 526              		.thumb_func
 527              		.type	vTaskDelayUntil, %function
 528              	vTaskDelayUntil:
 529              	.LFB57:
 613:FreeRTOS/tasks.c **** 
 614:FreeRTOS/tasks.c **** #endif
 615:FreeRTOS/tasks.c **** 
 616:FreeRTOS/tasks.c **** 
 617:FreeRTOS/tasks.c **** 
 618:FreeRTOS/tasks.c **** 
 619:FreeRTOS/tasks.c **** 
 620:FreeRTOS/tasks.c **** 
 621:FreeRTOS/tasks.c **** /*-----------------------------------------------------------
 622:FreeRTOS/tasks.c ****  * TASK CONTROL API documented in task.h
 623:FreeRTOS/tasks.c ****  *----------------------------------------------------------*/
 624:FreeRTOS/tasks.c **** 
 625:FreeRTOS/tasks.c **** #if ( INCLUDE_vTaskDelayUntil == 1 )
 626:FreeRTOS/tasks.c **** 
 627:FreeRTOS/tasks.c **** 	void vTaskDelayUntil( portTickType * const pxPreviousWakeTime, portTickType xTimeIncrement )
 628:FreeRTOS/tasks.c **** 	{
 530              		.loc 1 628 0
 531              		.cfi_startproc
 532              		@ args = 0, pretend = 0, frame = 24
 533              		@ frame_needed = 1, uses_anonymous_args = 0
 534 0000 80B5     		push	{r7, lr}	@
 535              		.cfi_def_cfa_offset 8
 536              		.cfi_offset 7, -8
 537              		.cfi_offset 14, -4
 538 0002 86B0     		sub	sp, sp, #24	@,,
 539              		.cfi_def_cfa_offset 32
 540 0004 00AF     		add	r7, sp, #0	@,,
 541              		.cfi_def_cfa_register 7
ARM GAS  C:\Users\Adrian\AppData\Local\Temp\ccgZ1piN.s 			page 22


 542 0006 7860     		str	r0, [r7, #4]	@ pxPreviousWakeTime, pxPreviousWakeTime
 543 0008 3960     		str	r1, [r7]	@ xTimeIncrement, xTimeIncrement
 629:FreeRTOS/tasks.c **** 	portTickType xTimeToWake;
 630:FreeRTOS/tasks.c **** 	portBASE_TYPE xAlreadyYielded, xShouldDelay = pdFALSE;
 544              		.loc 1 630 0
 545 000a 0023     		movs	r3, #0	@ tmp119,
 546 000c 7B61     		str	r3, [r7, #20]	@ tmp119, xShouldDelay
 631:FreeRTOS/tasks.c **** 
 632:FreeRTOS/tasks.c **** 		configASSERT( pxPreviousWakeTime );
 633:FreeRTOS/tasks.c **** 		configASSERT( ( xTimeIncrement > 0U ) );
 634:FreeRTOS/tasks.c **** 
 635:FreeRTOS/tasks.c **** 		vTaskSuspendAll();
 547              		.loc 1 635 0
 548 000e FFF7FEFF 		bl	vTaskSuspendAll	@
 636:FreeRTOS/tasks.c **** 		{
 637:FreeRTOS/tasks.c **** 			/* Generate the tick time at which the task wants to wake. */
 638:FreeRTOS/tasks.c **** 			xTimeToWake = *pxPreviousWakeTime + xTimeIncrement;
 549              		.loc 1 638 0
 550 0012 7B68     		ldr	r3, [r7, #4]	@ tmp120, pxPreviousWakeTime
 551 0014 1A68     		ldr	r2, [r3]	@ D.6993, *pxPreviousWakeTime_4(D)
 552 0016 3B68     		ldr	r3, [r7]	@ tmp122, xTimeIncrement
 553 0018 1344     		add	r3, r3, r2	@ tmp121, D.6993
 554 001a 3B61     		str	r3, [r7, #16]	@ tmp121, xTimeToWake
 639:FreeRTOS/tasks.c **** 
 640:FreeRTOS/tasks.c **** 			if( xTickCount < *pxPreviousWakeTime )
 555              		.loc 1 640 0
 556 001c 7B68     		ldr	r3, [r7, #4]	@ tmp123, pxPreviousWakeTime
 557 001e 1A68     		ldr	r2, [r3]	@ D.6993, *pxPreviousWakeTime_4(D)
 558 0020 1B4B     		ldr	r3, .L29	@ tmp124,
 559 0022 1B68     		ldr	r3, [r3]	@ xTickCount.23, xTickCount
 560 0024 9A42     		cmp	r2, r3	@ D.6993, xTickCount.23
 561 0026 0CD9     		bls	.L23	@,
 641:FreeRTOS/tasks.c **** 			{
 642:FreeRTOS/tasks.c **** 				/* The tick count has overflowed since this function was
 643:FreeRTOS/tasks.c **** 				lasted called.  In this case the only time we should ever
 644:FreeRTOS/tasks.c **** 				actually delay is if the wake time has also	overflowed,
 645:FreeRTOS/tasks.c **** 				and the wake time is greater than the tick time.  When this
 646:FreeRTOS/tasks.c **** 				is the case it is as if neither time had overflowed. */
 647:FreeRTOS/tasks.c **** 				if( ( xTimeToWake < *pxPreviousWakeTime ) && ( xTimeToWake > xTickCount ) )
 562              		.loc 1 647 0
 563 0028 7B68     		ldr	r3, [r7, #4]	@ tmp125, pxPreviousWakeTime
 564 002a 1A68     		ldr	r2, [r3]	@ D.6993, *pxPreviousWakeTime_4(D)
 565 002c 3B69     		ldr	r3, [r7, #16]	@ tmp126, xTimeToWake
 566 002e 9A42     		cmp	r2, r3	@ D.6993, tmp126
 567 0030 13D9     		bls	.L25	@,
 568              		.loc 1 647 0 is_stmt 0 discriminator 1
 569 0032 174B     		ldr	r3, .L29	@ tmp127,
 570 0034 1B68     		ldr	r3, [r3]	@ xTickCount.24, xTickCount
 571 0036 3A69     		ldr	r2, [r7, #16]	@ tmp128, xTimeToWake
 572 0038 9A42     		cmp	r2, r3	@ tmp128, xTickCount.24
 573 003a 0ED9     		bls	.L25	@,
 648:FreeRTOS/tasks.c **** 				{
 649:FreeRTOS/tasks.c **** 					xShouldDelay = pdTRUE;
 574              		.loc 1 649 0 is_stmt 1
 575 003c 0123     		movs	r3, #1	@ tmp129,
 576 003e 7B61     		str	r3, [r7, #20]	@ tmp129, xShouldDelay
 577 0040 0BE0     		b	.L25	@
ARM GAS  C:\Users\Adrian\AppData\Local\Temp\ccgZ1piN.s 			page 23


 578              	.L23:
 650:FreeRTOS/tasks.c **** 				}
 651:FreeRTOS/tasks.c **** 			}
 652:FreeRTOS/tasks.c **** 			else
 653:FreeRTOS/tasks.c **** 			{
 654:FreeRTOS/tasks.c **** 				/* The tick time has not overflowed.  In this case we will
 655:FreeRTOS/tasks.c **** 				delay if either the wake time has overflowed, and/or the
 656:FreeRTOS/tasks.c **** 				tick time is less than the wake time. */
 657:FreeRTOS/tasks.c **** 				if( ( xTimeToWake < *pxPreviousWakeTime ) || ( xTimeToWake > xTickCount ) )
 579              		.loc 1 657 0
 580 0042 7B68     		ldr	r3, [r7, #4]	@ tmp130, pxPreviousWakeTime
 581 0044 1A68     		ldr	r2, [r3]	@ D.6993, *pxPreviousWakeTime_4(D)
 582 0046 3B69     		ldr	r3, [r7, #16]	@ tmp131, xTimeToWake
 583 0048 9A42     		cmp	r2, r3	@ D.6993, tmp131
 584 004a 04D8     		bhi	.L26	@,
 585              		.loc 1 657 0 is_stmt 0 discriminator 1
 586 004c 104B     		ldr	r3, .L29	@ tmp132,
 587 004e 1B68     		ldr	r3, [r3]	@ xTickCount.25, xTickCount
 588 0050 3A69     		ldr	r2, [r7, #16]	@ tmp133, xTimeToWake
 589 0052 9A42     		cmp	r2, r3	@ tmp133, xTickCount.25
 590 0054 01D9     		bls	.L25	@,
 591              	.L26:
 658:FreeRTOS/tasks.c **** 				{
 659:FreeRTOS/tasks.c **** 					xShouldDelay = pdTRUE;
 592              		.loc 1 659 0 is_stmt 1
 593 0056 0123     		movs	r3, #1	@ tmp134,
 594 0058 7B61     		str	r3, [r7, #20]	@ tmp134, xShouldDelay
 595              	.L25:
 660:FreeRTOS/tasks.c **** 				}
 661:FreeRTOS/tasks.c **** 			}
 662:FreeRTOS/tasks.c **** 
 663:FreeRTOS/tasks.c **** 			/* Update the wake time ready for the next call. */
 664:FreeRTOS/tasks.c **** 			*pxPreviousWakeTime = xTimeToWake;
 596              		.loc 1 664 0
 597 005a 7B68     		ldr	r3, [r7, #4]	@ tmp135, pxPreviousWakeTime
 598 005c 3A69     		ldr	r2, [r7, #16]	@ tmp136, xTimeToWake
 599 005e 1A60     		str	r2, [r3]	@ tmp136, *pxPreviousWakeTime_4(D)
 665:FreeRTOS/tasks.c **** 
 666:FreeRTOS/tasks.c **** 			if( xShouldDelay != pdFALSE )
 600              		.loc 1 666 0
 601 0060 7B69     		ldr	r3, [r7, #20]	@ tmp137, xShouldDelay
 602 0062 002B     		cmp	r3, #0	@ tmp137,
 603 0064 08D0     		beq	.L27	@,
 667:FreeRTOS/tasks.c **** 			{
 668:FreeRTOS/tasks.c **** 				traceTASK_DELAY_UNTIL();
 669:FreeRTOS/tasks.c **** 
 670:FreeRTOS/tasks.c **** 				/* We must remove ourselves from the ready list before adding
 671:FreeRTOS/tasks.c **** 				ourselves to the blocked list as the same list item is used for
 672:FreeRTOS/tasks.c **** 				both lists. */
 673:FreeRTOS/tasks.c **** 				vListRemove( ( xListItem * ) &( pxCurrentTCB->xGenericListItem ) );
 604              		.loc 1 673 0
 605 0066 0B4B     		ldr	r3, .L29+4	@ tmp138,
 606 0068 1B68     		ldr	r3, [r3]	@ pxCurrentTCB.26, pxCurrentTCB
 607 006a 0433     		adds	r3, r3, #4	@ D.6994, pxCurrentTCB.26,
 608 006c 1846     		mov	r0, r3	@, D.6994
 609 006e FFF7FEFF 		bl	vListRemove	@
 674:FreeRTOS/tasks.c **** 				prvAddCurrentTaskToDelayedList( xTimeToWake );
ARM GAS  C:\Users\Adrian\AppData\Local\Temp\ccgZ1piN.s 			page 24


 610              		.loc 1 674 0
 611 0072 3869     		ldr	r0, [r7, #16]	@, xTimeToWake
 612 0074 FFF7FEFF 		bl	prvAddCurrentTaskToDelayedList	@
 613              	.L27:
 675:FreeRTOS/tasks.c **** 			}
 676:FreeRTOS/tasks.c **** 		}
 677:FreeRTOS/tasks.c **** 		xAlreadyYielded = xTaskResumeAll();
 614              		.loc 1 677 0
 615 0078 FFF7FEFF 		bl	xTaskResumeAll	@
 616 007c F860     		str	r0, [r7, #12]	@, xAlreadyYielded
 678:FreeRTOS/tasks.c **** 
 679:FreeRTOS/tasks.c **** 		/* Force a reschedule if xTaskResumeAll has not already done so, we may
 680:FreeRTOS/tasks.c **** 		have put ourselves to sleep. */
 681:FreeRTOS/tasks.c **** 		if( xAlreadyYielded == pdFALSE )
 617              		.loc 1 681 0
 618 007e FB68     		ldr	r3, [r7, #12]	@ tmp139, xAlreadyYielded
 619 0080 002B     		cmp	r3, #0	@ tmp139,
 620 0082 01D1     		bne	.L22	@,
 682:FreeRTOS/tasks.c **** 		{
 683:FreeRTOS/tasks.c **** 			portYIELD_WITHIN_API();
 621              		.loc 1 683 0
 622 0084 FFF7FEFF 		bl	vPortYieldFromISR	@
 623              	.L22:
 684:FreeRTOS/tasks.c **** 		}
 685:FreeRTOS/tasks.c **** 	}
 624              		.loc 1 685 0
 625 0088 1837     		adds	r7, r7, #24	@,,
 626 008a BD46     		mov	sp, r7	@,
 627              		@ sp needed	@
 628 008c 80BD     		pop	{r7, pc}	@
 629              	.L30:
 630 008e 00BF     		.align	2
 631              	.L29:
 632 0090 00000000 		.word	xTickCount
 633 0094 00000000 		.word	pxCurrentTCB
 634              		.cfi_endproc
 635              	.LFE57:
 636              		.size	vTaskDelayUntil, .-vTaskDelayUntil
 637              		.section	.text.vTaskDelay,"ax",%progbits
 638              		.align	2
 639              		.global	vTaskDelay
 640              		.thumb
 641              		.thumb_func
 642              		.type	vTaskDelay, %function
 643              	vTaskDelay:
 644              	.LFB58:
 686:FreeRTOS/tasks.c **** 
 687:FreeRTOS/tasks.c **** #endif
 688:FreeRTOS/tasks.c **** /*-----------------------------------------------------------*/
 689:FreeRTOS/tasks.c **** 
 690:FreeRTOS/tasks.c **** #if ( INCLUDE_vTaskDelay == 1 )
 691:FreeRTOS/tasks.c **** 
 692:FreeRTOS/tasks.c **** 	void vTaskDelay( portTickType xTicksToDelay )
 693:FreeRTOS/tasks.c **** 	{
 645              		.loc 1 693 0
 646              		.cfi_startproc
 647              		@ args = 0, pretend = 0, frame = 16
ARM GAS  C:\Users\Adrian\AppData\Local\Temp\ccgZ1piN.s 			page 25


 648              		@ frame_needed = 1, uses_anonymous_args = 0
 649 0000 80B5     		push	{r7, lr}	@
 650              		.cfi_def_cfa_offset 8
 651              		.cfi_offset 7, -8
 652              		.cfi_offset 14, -4
 653 0002 84B0     		sub	sp, sp, #16	@,,
 654              		.cfi_def_cfa_offset 24
 655 0004 00AF     		add	r7, sp, #0	@,,
 656              		.cfi_def_cfa_register 7
 657 0006 7860     		str	r0, [r7, #4]	@ xTicksToDelay, xTicksToDelay
 694:FreeRTOS/tasks.c **** 	portTickType xTimeToWake;
 695:FreeRTOS/tasks.c **** 	signed portBASE_TYPE xAlreadyYielded = pdFALSE;
 658              		.loc 1 695 0
 659 0008 0023     		movs	r3, #0	@ tmp113,
 660 000a FB60     		str	r3, [r7, #12]	@ tmp113, xAlreadyYielded
 696:FreeRTOS/tasks.c **** 
 697:FreeRTOS/tasks.c **** 		/* A delay time of zero just forces a reschedule. */
 698:FreeRTOS/tasks.c **** 		if( xTicksToDelay > ( portTickType ) 0U )
 661              		.loc 1 698 0
 662 000c 7B68     		ldr	r3, [r7, #4]	@ tmp114, xTicksToDelay
 663 000e 002B     		cmp	r3, #0	@ tmp114,
 664 0010 12D0     		beq	.L32	@,
 699:FreeRTOS/tasks.c **** 		{
 700:FreeRTOS/tasks.c **** 			vTaskSuspendAll();
 665              		.loc 1 700 0
 666 0012 FFF7FEFF 		bl	vTaskSuspendAll	@
 701:FreeRTOS/tasks.c **** 			{
 702:FreeRTOS/tasks.c **** 				traceTASK_DELAY();
 703:FreeRTOS/tasks.c **** 
 704:FreeRTOS/tasks.c **** 				/* A task that is removed from the event list while the
 705:FreeRTOS/tasks.c **** 				scheduler is suspended will not get placed in the ready
 706:FreeRTOS/tasks.c **** 				list or removed from the blocked list until the scheduler
 707:FreeRTOS/tasks.c **** 				is resumed.
 708:FreeRTOS/tasks.c **** 
 709:FreeRTOS/tasks.c **** 				This task cannot be in an event list as it is the currently
 710:FreeRTOS/tasks.c **** 				executing task. */
 711:FreeRTOS/tasks.c **** 
 712:FreeRTOS/tasks.c **** 				/* Calculate the time to wake - this may overflow but this is
 713:FreeRTOS/tasks.c **** 				not a problem. */
 714:FreeRTOS/tasks.c **** 				xTimeToWake = xTickCount + xTicksToDelay;
 667              		.loc 1 714 0
 668 0016 0C4B     		ldr	r3, .L34	@ tmp115,
 669 0018 1A68     		ldr	r2, [r3]	@ xTickCount.27, xTickCount
 670 001a 7B68     		ldr	r3, [r7, #4]	@ tmp117, xTicksToDelay
 671 001c 1344     		add	r3, r3, r2	@ tmp116, xTickCount.27
 672 001e BB60     		str	r3, [r7, #8]	@ tmp116, xTimeToWake
 715:FreeRTOS/tasks.c **** 
 716:FreeRTOS/tasks.c **** 				/* We must remove ourselves from the ready list before adding
 717:FreeRTOS/tasks.c **** 				ourselves to the blocked list as the same list item is used for
 718:FreeRTOS/tasks.c **** 				both lists. */
 719:FreeRTOS/tasks.c **** 				vListRemove( ( xListItem * ) &( pxCurrentTCB->xGenericListItem ) );
 673              		.loc 1 719 0
 674 0020 0A4B     		ldr	r3, .L34+4	@ tmp118,
 675 0022 1B68     		ldr	r3, [r3]	@ pxCurrentTCB.28, pxCurrentTCB
 676 0024 0433     		adds	r3, r3, #4	@ D.6995, pxCurrentTCB.28,
 677 0026 1846     		mov	r0, r3	@, D.6995
 678 0028 FFF7FEFF 		bl	vListRemove	@
ARM GAS  C:\Users\Adrian\AppData\Local\Temp\ccgZ1piN.s 			page 26


 720:FreeRTOS/tasks.c **** 				prvAddCurrentTaskToDelayedList( xTimeToWake );
 679              		.loc 1 720 0
 680 002c B868     		ldr	r0, [r7, #8]	@, xTimeToWake
 681 002e FFF7FEFF 		bl	prvAddCurrentTaskToDelayedList	@
 721:FreeRTOS/tasks.c **** 			}
 722:FreeRTOS/tasks.c **** 			xAlreadyYielded = xTaskResumeAll();
 682              		.loc 1 722 0
 683 0032 FFF7FEFF 		bl	xTaskResumeAll	@
 684 0036 F860     		str	r0, [r7, #12]	@, xAlreadyYielded
 685              	.L32:
 723:FreeRTOS/tasks.c **** 		}
 724:FreeRTOS/tasks.c **** 
 725:FreeRTOS/tasks.c **** 		/* Force a reschedule if xTaskResumeAll has not already done so, we may
 726:FreeRTOS/tasks.c **** 		have put ourselves to sleep. */
 727:FreeRTOS/tasks.c **** 		if( xAlreadyYielded == pdFALSE )
 686              		.loc 1 727 0
 687 0038 FB68     		ldr	r3, [r7, #12]	@ tmp119, xAlreadyYielded
 688 003a 002B     		cmp	r3, #0	@ tmp119,
 689 003c 01D1     		bne	.L31	@,
 728:FreeRTOS/tasks.c **** 		{
 729:FreeRTOS/tasks.c **** 			portYIELD_WITHIN_API();
 690              		.loc 1 729 0
 691 003e FFF7FEFF 		bl	vPortYieldFromISR	@
 692              	.L31:
 730:FreeRTOS/tasks.c **** 		}
 731:FreeRTOS/tasks.c **** 	}
 693              		.loc 1 731 0
 694 0042 1037     		adds	r7, r7, #16	@,,
 695 0044 BD46     		mov	sp, r7	@,
 696              		@ sp needed	@
 697 0046 80BD     		pop	{r7, pc}	@
 698              	.L35:
 699              		.align	2
 700              	.L34:
 701 0048 00000000 		.word	xTickCount
 702 004c 00000000 		.word	pxCurrentTCB
 703              		.cfi_endproc
 704              	.LFE58:
 705              		.size	vTaskDelay, .-vTaskDelay
 706              		.section	.text.uxTaskPriorityGet,"ax",%progbits
 707              		.align	2
 708              		.global	uxTaskPriorityGet
 709              		.thumb
 710              		.thumb_func
 711              		.type	uxTaskPriorityGet, %function
 712              	uxTaskPriorityGet:
 713              	.LFB59:
 732:FreeRTOS/tasks.c **** 
 733:FreeRTOS/tasks.c **** #endif
 734:FreeRTOS/tasks.c **** /*-----------------------------------------------------------*/
 735:FreeRTOS/tasks.c **** 
 736:FreeRTOS/tasks.c **** #if ( INCLUDE_uxTaskPriorityGet == 1 )
 737:FreeRTOS/tasks.c **** 
 738:FreeRTOS/tasks.c **** 	unsigned portBASE_TYPE uxTaskPriorityGet( xTaskHandle pxTask )
 739:FreeRTOS/tasks.c **** 	{
 714              		.loc 1 739 0
 715              		.cfi_startproc
ARM GAS  C:\Users\Adrian\AppData\Local\Temp\ccgZ1piN.s 			page 27


 716              		@ args = 0, pretend = 0, frame = 16
 717              		@ frame_needed = 1, uses_anonymous_args = 0
 718 0000 80B5     		push	{r7, lr}	@
 719              		.cfi_def_cfa_offset 8
 720              		.cfi_offset 7, -8
 721              		.cfi_offset 14, -4
 722 0002 84B0     		sub	sp, sp, #16	@,,
 723              		.cfi_def_cfa_offset 24
 724 0004 00AF     		add	r7, sp, #0	@,,
 725              		.cfi_def_cfa_register 7
 726 0006 7860     		str	r0, [r7, #4]	@ pxTask, pxTask
 740:FreeRTOS/tasks.c **** 	tskTCB *pxTCB;
 741:FreeRTOS/tasks.c **** 	unsigned portBASE_TYPE uxReturn;
 742:FreeRTOS/tasks.c **** 
 743:FreeRTOS/tasks.c **** 		taskENTER_CRITICAL();
 727              		.loc 1 743 0
 728 0008 FFF7FEFF 		bl	vPortEnterCritical	@
 744:FreeRTOS/tasks.c **** 		{
 745:FreeRTOS/tasks.c **** 			/* If null is passed in here then we are changing the
 746:FreeRTOS/tasks.c **** 			priority of the calling function. */
 747:FreeRTOS/tasks.c **** 			pxTCB = prvGetTCBFromHandle( pxTask );
 729              		.loc 1 747 0
 730 000c 7B68     		ldr	r3, [r7, #4]	@ tmp113, pxTask
 731 000e 002B     		cmp	r3, #0	@ tmp113,
 732 0010 02D1     		bne	.L37	@,
 733              		.loc 1 747 0 is_stmt 0 discriminator 1
 734 0012 074B     		ldr	r3, .L40	@ tmp114,
 735 0014 1B68     		ldr	r3, [r3]	@ iftmp.29, pxCurrentTCB
 736 0016 00E0     		b	.L38	@
 737              	.L37:
 738              		.loc 1 747 0 discriminator 2
 739 0018 7B68     		ldr	r3, [r7, #4]	@ iftmp.29, pxTask
 740              	.L38:
 741              		.loc 1 747 0 discriminator 3
 742 001a FB60     		str	r3, [r7, #12]	@ iftmp.29, pxTCB
 748:FreeRTOS/tasks.c **** 			uxReturn = pxTCB->uxPriority;
 743              		.loc 1 748 0 is_stmt 1 discriminator 3
 744 001c FB68     		ldr	r3, [r7, #12]	@ tmp115, pxTCB
 745 001e DB6A     		ldr	r3, [r3, #44]	@ tmp116, pxTCB_5->uxPriority
 746 0020 BB60     		str	r3, [r7, #8]	@ tmp116, uxReturn
 749:FreeRTOS/tasks.c **** 		}
 750:FreeRTOS/tasks.c **** 		taskEXIT_CRITICAL();
 747              		.loc 1 750 0 discriminator 3
 748 0022 FFF7FEFF 		bl	vPortExitCritical	@
 751:FreeRTOS/tasks.c **** 
 752:FreeRTOS/tasks.c **** 		return uxReturn;
 749              		.loc 1 752 0 discriminator 3
 750 0026 BB68     		ldr	r3, [r7, #8]	@ D.6996, uxReturn
 753:FreeRTOS/tasks.c **** 	}
 751              		.loc 1 753 0 discriminator 3
 752 0028 1846     		mov	r0, r3	@, <retval>
 753 002a 1037     		adds	r7, r7, #16	@,,
 754 002c BD46     		mov	sp, r7	@,
 755              		@ sp needed	@
 756 002e 80BD     		pop	{r7, pc}	@
 757              	.L41:
 758              		.align	2
ARM GAS  C:\Users\Adrian\AppData\Local\Temp\ccgZ1piN.s 			page 28


 759              	.L40:
 760 0030 00000000 		.word	pxCurrentTCB
 761              		.cfi_endproc
 762              	.LFE59:
 763              		.size	uxTaskPriorityGet, .-uxTaskPriorityGet
 764              		.section	.text.vTaskPrioritySet,"ax",%progbits
 765              		.align	2
 766              		.global	vTaskPrioritySet
 767              		.thumb
 768              		.thumb_func
 769              		.type	vTaskPrioritySet, %function
 770              	vTaskPrioritySet:
 771              	.LFB60:
 754:FreeRTOS/tasks.c **** 
 755:FreeRTOS/tasks.c **** #endif
 756:FreeRTOS/tasks.c **** /*-----------------------------------------------------------*/
 757:FreeRTOS/tasks.c **** 
 758:FreeRTOS/tasks.c **** #if ( INCLUDE_vTaskPrioritySet == 1 )
 759:FreeRTOS/tasks.c **** 
 760:FreeRTOS/tasks.c **** 	void vTaskPrioritySet( xTaskHandle pxTask, unsigned portBASE_TYPE uxNewPriority )
 761:FreeRTOS/tasks.c **** 	{
 772              		.loc 1 761 0
 773              		.cfi_startproc
 774              		@ args = 0, pretend = 0, frame = 24
 775              		@ frame_needed = 1, uses_anonymous_args = 0
 776 0000 80B5     		push	{r7, lr}	@
 777              		.cfi_def_cfa_offset 8
 778              		.cfi_offset 7, -8
 779              		.cfi_offset 14, -4
 780 0002 86B0     		sub	sp, sp, #24	@,,
 781              		.cfi_def_cfa_offset 32
 782 0004 00AF     		add	r7, sp, #0	@,,
 783              		.cfi_def_cfa_register 7
 784 0006 7860     		str	r0, [r7, #4]	@ pxTask, pxTask
 785 0008 3960     		str	r1, [r7]	@ uxNewPriority, uxNewPriority
 762:FreeRTOS/tasks.c **** 	tskTCB *pxTCB;
 763:FreeRTOS/tasks.c **** 	unsigned portBASE_TYPE uxCurrentPriority;
 764:FreeRTOS/tasks.c **** 	portBASE_TYPE xYieldRequired = pdFALSE;
 786              		.loc 1 764 0
 787 000a 0023     		movs	r3, #0	@ tmp124,
 788 000c 7B61     		str	r3, [r7, #20]	@ tmp124, xYieldRequired
 765:FreeRTOS/tasks.c **** 
 766:FreeRTOS/tasks.c **** 		configASSERT( ( uxNewPriority < configMAX_PRIORITIES ) );
 767:FreeRTOS/tasks.c **** 
 768:FreeRTOS/tasks.c **** 		/* Ensure the new priority is valid. */
 769:FreeRTOS/tasks.c **** 		if( uxNewPriority >= configMAX_PRIORITIES )
 789              		.loc 1 769 0
 790 000e 3B68     		ldr	r3, [r7]	@ tmp125, uxNewPriority
 791 0010 042B     		cmp	r3, #4	@ tmp125,
 792 0012 01D9     		bls	.L43	@,
 770:FreeRTOS/tasks.c **** 		{
 771:FreeRTOS/tasks.c **** 			uxNewPriority = configMAX_PRIORITIES - ( unsigned portBASE_TYPE ) 1U;
 793              		.loc 1 771 0
 794 0014 0423     		movs	r3, #4	@ tmp126,
 795 0016 3B60     		str	r3, [r7]	@ tmp126, uxNewPriority
 796              	.L43:
 772:FreeRTOS/tasks.c **** 		}
ARM GAS  C:\Users\Adrian\AppData\Local\Temp\ccgZ1piN.s 			page 29


 773:FreeRTOS/tasks.c **** 
 774:FreeRTOS/tasks.c **** 		taskENTER_CRITICAL();
 797              		.loc 1 774 0
 798 0018 FFF7FEFF 		bl	vPortEnterCritical	@
 775:FreeRTOS/tasks.c **** 		{
 776:FreeRTOS/tasks.c **** 			if( pxTask == pxCurrentTCB )
 799              		.loc 1 776 0
 800 001c 334B     		ldr	r3, .L54	@ tmp127,
 801 001e 1B68     		ldr	r3, [r3]	@ pxCurrentTCB.30, pxCurrentTCB
 802 0020 7A68     		ldr	r2, [r7, #4]	@ tmp128, pxTask
 803 0022 9A42     		cmp	r2, r3	@ tmp128, pxCurrentTCB.30
 804 0024 01D1     		bne	.L44	@,
 777:FreeRTOS/tasks.c **** 			{
 778:FreeRTOS/tasks.c **** 				pxTask = NULL;
 805              		.loc 1 778 0
 806 0026 0023     		movs	r3, #0	@ tmp129,
 807 0028 7B60     		str	r3, [r7, #4]	@ tmp129, pxTask
 808              	.L44:
 779:FreeRTOS/tasks.c **** 			}
 780:FreeRTOS/tasks.c **** 
 781:FreeRTOS/tasks.c **** 			/* If null is passed in here then we are changing the
 782:FreeRTOS/tasks.c **** 			priority of the calling function. */
 783:FreeRTOS/tasks.c **** 			pxTCB = prvGetTCBFromHandle( pxTask );
 809              		.loc 1 783 0
 810 002a 7B68     		ldr	r3, [r7, #4]	@ tmp130, pxTask
 811 002c 002B     		cmp	r3, #0	@ tmp130,
 812 002e 02D1     		bne	.L45	@,
 813              		.loc 1 783 0 is_stmt 0 discriminator 1
 814 0030 2E4B     		ldr	r3, .L54	@ tmp131,
 815 0032 1B68     		ldr	r3, [r3]	@ iftmp.31, pxCurrentTCB
 816 0034 00E0     		b	.L46	@
 817              	.L45:
 818              		.loc 1 783 0 discriminator 2
 819 0036 7B68     		ldr	r3, [r7, #4]	@ iftmp.31, pxTask
 820              	.L46:
 821              		.loc 1 783 0 discriminator 3
 822 0038 3B61     		str	r3, [r7, #16]	@ iftmp.31, pxTCB
 784:FreeRTOS/tasks.c **** 
 785:FreeRTOS/tasks.c **** 			traceTASK_PRIORITY_SET( pxTCB, uxNewPriority );
 786:FreeRTOS/tasks.c **** 
 787:FreeRTOS/tasks.c **** 			#if ( configUSE_MUTEXES == 1 )
 788:FreeRTOS/tasks.c **** 			{
 789:FreeRTOS/tasks.c **** 				uxCurrentPriority = pxTCB->uxBasePriority;
 823              		.loc 1 789 0 is_stmt 1 discriminator 3
 824 003a 3B69     		ldr	r3, [r7, #16]	@ tmp132, pxTCB
 825 003c 9B6C     		ldr	r3, [r3, #72]	@ tmp133, pxTCB_14->uxBasePriority
 826 003e FB60     		str	r3, [r7, #12]	@ tmp133, uxCurrentPriority
 790:FreeRTOS/tasks.c **** 			}
 791:FreeRTOS/tasks.c **** 			#else
 792:FreeRTOS/tasks.c **** 			{
 793:FreeRTOS/tasks.c **** 				uxCurrentPriority = pxTCB->uxPriority;
 794:FreeRTOS/tasks.c **** 			}
 795:FreeRTOS/tasks.c **** 			#endif
 796:FreeRTOS/tasks.c **** 
 797:FreeRTOS/tasks.c **** 			if( uxCurrentPriority != uxNewPriority )
 827              		.loc 1 797 0 discriminator 3
 828 0040 FA68     		ldr	r2, [r7, #12]	@ tmp134, uxCurrentPriority
ARM GAS  C:\Users\Adrian\AppData\Local\Temp\ccgZ1piN.s 			page 30


 829 0042 3B68     		ldr	r3, [r7]	@ tmp135, uxNewPriority
 830 0044 9A42     		cmp	r2, r3	@ tmp134, tmp135
 831 0046 4CD0     		beq	.L47	@,
 798:FreeRTOS/tasks.c **** 			{
 799:FreeRTOS/tasks.c **** 				/* The priority change may have readied a task of higher
 800:FreeRTOS/tasks.c **** 				priority than the calling task. */
 801:FreeRTOS/tasks.c **** 				if( uxNewPriority > uxCurrentPriority )
 832              		.loc 1 801 0
 833 0048 3A68     		ldr	r2, [r7]	@ tmp136, uxNewPriority
 834 004a FB68     		ldr	r3, [r7, #12]	@ tmp137, uxCurrentPriority
 835 004c 9A42     		cmp	r2, r3	@ tmp136, tmp137
 836 004e 05D9     		bls	.L48	@,
 802:FreeRTOS/tasks.c **** 				{
 803:FreeRTOS/tasks.c **** 					if( pxTask != NULL )
 837              		.loc 1 803 0
 838 0050 7B68     		ldr	r3, [r7, #4]	@ tmp138, pxTask
 839 0052 002B     		cmp	r3, #0	@ tmp138,
 840 0054 07D0     		beq	.L50	@,
 804:FreeRTOS/tasks.c **** 					{
 805:FreeRTOS/tasks.c **** 						/* The priority of another task is being raised.  If we
 806:FreeRTOS/tasks.c **** 						were raising the priority of the currently running task
 807:FreeRTOS/tasks.c **** 						there would be no need to switch as it must have already
 808:FreeRTOS/tasks.c **** 						been the highest priority task. */
 809:FreeRTOS/tasks.c **** 						xYieldRequired = pdTRUE;
 841              		.loc 1 809 0
 842 0056 0123     		movs	r3, #1	@ tmp139,
 843 0058 7B61     		str	r3, [r7, #20]	@ tmp139, xYieldRequired
 844 005a 04E0     		b	.L50	@
 845              	.L48:
 810:FreeRTOS/tasks.c **** 					}
 811:FreeRTOS/tasks.c **** 				}
 812:FreeRTOS/tasks.c **** 				else if( pxTask == NULL )
 846              		.loc 1 812 0
 847 005c 7B68     		ldr	r3, [r7, #4]	@ tmp140, pxTask
 848 005e 002B     		cmp	r3, #0	@ tmp140,
 849 0060 01D1     		bne	.L50	@,
 813:FreeRTOS/tasks.c **** 				{
 814:FreeRTOS/tasks.c **** 					/* Setting our own priority down means there may now be another
 815:FreeRTOS/tasks.c **** 					task of higher priority that is ready to execute. */
 816:FreeRTOS/tasks.c **** 					xYieldRequired = pdTRUE;
 850              		.loc 1 816 0
 851 0062 0123     		movs	r3, #1	@ tmp141,
 852 0064 7B61     		str	r3, [r7, #20]	@ tmp141, xYieldRequired
 853              	.L50:
 817:FreeRTOS/tasks.c **** 				}
 818:FreeRTOS/tasks.c **** 
 819:FreeRTOS/tasks.c **** 
 820:FreeRTOS/tasks.c **** 
 821:FreeRTOS/tasks.c **** 				#if ( configUSE_MUTEXES == 1 )
 822:FreeRTOS/tasks.c **** 				{
 823:FreeRTOS/tasks.c **** 					/* Only change the priority being used if the task is not
 824:FreeRTOS/tasks.c **** 					currently using an inherited priority. */
 825:FreeRTOS/tasks.c **** 					if( pxTCB->uxBasePriority == pxTCB->uxPriority )
 854              		.loc 1 825 0
 855 0066 3B69     		ldr	r3, [r7, #16]	@ tmp142, pxTCB
 856 0068 9A6C     		ldr	r2, [r3, #72]	@ D.6997, pxTCB_14->uxBasePriority
 857 006a 3B69     		ldr	r3, [r7, #16]	@ tmp143, pxTCB
ARM GAS  C:\Users\Adrian\AppData\Local\Temp\ccgZ1piN.s 			page 31


 858 006c DB6A     		ldr	r3, [r3, #44]	@ D.6997, pxTCB_14->uxPriority
 859 006e 9A42     		cmp	r2, r3	@ D.6997, D.6997
 860 0070 02D1     		bne	.L51	@,
 826:FreeRTOS/tasks.c **** 					{
 827:FreeRTOS/tasks.c **** 						pxTCB->uxPriority = uxNewPriority;
 861              		.loc 1 827 0
 862 0072 3B69     		ldr	r3, [r7, #16]	@ tmp144, pxTCB
 863 0074 3A68     		ldr	r2, [r7]	@ tmp145, uxNewPriority
 864 0076 DA62     		str	r2, [r3, #44]	@ tmp145, pxTCB_14->uxPriority
 865              	.L51:
 828:FreeRTOS/tasks.c **** 					}
 829:FreeRTOS/tasks.c **** 
 830:FreeRTOS/tasks.c **** 					/* The base priority gets set whatever. */
 831:FreeRTOS/tasks.c **** 					pxTCB->uxBasePriority = uxNewPriority;
 866              		.loc 1 831 0
 867 0078 3B69     		ldr	r3, [r7, #16]	@ tmp146, pxTCB
 868 007a 3A68     		ldr	r2, [r7]	@ tmp147, uxNewPriority
 869 007c 9A64     		str	r2, [r3, #72]	@ tmp147, pxTCB_14->uxBasePriority
 832:FreeRTOS/tasks.c **** 				}
 833:FreeRTOS/tasks.c **** 				#else
 834:FreeRTOS/tasks.c **** 				{
 835:FreeRTOS/tasks.c **** 					pxTCB->uxPriority = uxNewPriority;
 836:FreeRTOS/tasks.c **** 				}
 837:FreeRTOS/tasks.c **** 				#endif
 838:FreeRTOS/tasks.c **** 
 839:FreeRTOS/tasks.c **** 				listSET_LIST_ITEM_VALUE( &( pxTCB->xEventListItem ), ( configMAX_PRIORITIES - ( portTickType ) 
 870              		.loc 1 839 0
 871 007e 3B68     		ldr	r3, [r7]	@ tmp148, uxNewPriority
 872 0080 C3F10502 		rsb	r2, r3, #5	@ D.6997, tmp148,
 873 0084 3B69     		ldr	r3, [r7, #16]	@ tmp149, pxTCB
 874 0086 9A61     		str	r2, [r3, #24]	@ D.6997, pxTCB_14->xEventListItem.xItemValue
 840:FreeRTOS/tasks.c **** 
 841:FreeRTOS/tasks.c **** 				/* If the task is in the blocked or suspended list we need do
 842:FreeRTOS/tasks.c **** 				nothing more than change it's priority variable. However, if
 843:FreeRTOS/tasks.c **** 				the task is in a ready list it needs to be removed and placed
 844:FreeRTOS/tasks.c **** 				in the queue appropriate to its new priority. */
 845:FreeRTOS/tasks.c **** 				if( listIS_CONTAINED_WITHIN( &( pxReadyTasksLists[ uxCurrentPriority ] ), &( pxTCB->xGenericLis
 875              		.loc 1 845 0
 876 0088 3B69     		ldr	r3, [r7, #16]	@ tmp150, pxTCB
 877 008a 5969     		ldr	r1, [r3, #20]	@ D.6998, pxTCB_14->xGenericListItem.pvContainer
 878 008c FA68     		ldr	r2, [r7, #12]	@ tmp151, uxCurrentPriority
 879 008e 1346     		mov	r3, r2	@ tmp152, tmp151
 880 0090 9B00     		lsls	r3, r3, #2	@ tmp152, tmp152,
 881 0092 1344     		add	r3, r3, r2	@ tmp152, tmp151
 882 0094 9B00     		lsls	r3, r3, #2	@ tmp153, tmp152,
 883 0096 164A     		ldr	r2, .L54+4	@ tmp154,
 884 0098 1344     		add	r3, r3, r2	@ D.6999, tmp154
 885 009a 9942     		cmp	r1, r3	@ D.6998, D.6999
 886 009c 1CD1     		bne	.L52	@,
 846:FreeRTOS/tasks.c **** 				{
 847:FreeRTOS/tasks.c **** 					/* The task is currently in its ready list - remove before adding
 848:FreeRTOS/tasks.c **** 					it to it's new ready list.  As we are in a critical section we
 849:FreeRTOS/tasks.c **** 					can do this even if the scheduler is suspended. */
 850:FreeRTOS/tasks.c **** 					vListRemove( &( pxTCB->xGenericListItem ) );
 887              		.loc 1 850 0
 888 009e 3B69     		ldr	r3, [r7, #16]	@ tmp155, pxTCB
 889 00a0 0433     		adds	r3, r3, #4	@ D.7000, tmp155,
ARM GAS  C:\Users\Adrian\AppData\Local\Temp\ccgZ1piN.s 			page 32


 890 00a2 1846     		mov	r0, r3	@, D.7000
 891 00a4 FFF7FEFF 		bl	vListRemove	@
 851:FreeRTOS/tasks.c **** 					prvAddTaskToReadyQueue( pxTCB );
 892              		.loc 1 851 0
 893 00a8 3B69     		ldr	r3, [r7, #16]	@ tmp156, pxTCB
 894 00aa DA6A     		ldr	r2, [r3, #44]	@ D.6997, pxTCB_14->uxPriority
 895 00ac 114B     		ldr	r3, .L54+8	@ tmp157,
 896 00ae 1B68     		ldr	r3, [r3]	@ uxTopReadyPriority.32, uxTopReadyPriority
 897 00b0 9A42     		cmp	r2, r3	@ D.6997, uxTopReadyPriority.32
 898 00b2 03D9     		bls	.L53	@,
 899              		.loc 1 851 0 is_stmt 0 discriminator 1
 900 00b4 3B69     		ldr	r3, [r7, #16]	@ tmp158, pxTCB
 901 00b6 DA6A     		ldr	r2, [r3, #44]	@ uxTopReadyPriority.33, pxTCB_14->uxPriority
 902 00b8 0E4B     		ldr	r3, .L54+8	@ tmp159,
 903 00ba 1A60     		str	r2, [r3]	@ uxTopReadyPriority.33, uxTopReadyPriority
 904              	.L53:
 905              		.loc 1 851 0 discriminator 2
 906 00bc 3B69     		ldr	r3, [r7, #16]	@ tmp160, pxTCB
 907 00be DA6A     		ldr	r2, [r3, #44]	@ D.6997, pxTCB_14->uxPriority
 908 00c0 1346     		mov	r3, r2	@ tmp161, D.6997
 909 00c2 9B00     		lsls	r3, r3, #2	@ tmp161, tmp161,
 910 00c4 1344     		add	r3, r3, r2	@ tmp161, D.6997
 911 00c6 9B00     		lsls	r3, r3, #2	@ tmp162, tmp161,
 912 00c8 094A     		ldr	r2, .L54+4	@ tmp163,
 913 00ca 1A44     		add	r2, r2, r3	@ D.6999, tmp161
 914 00cc 3B69     		ldr	r3, [r7, #16]	@ tmp164, pxTCB
 915 00ce 0433     		adds	r3, r3, #4	@ D.7000, tmp164,
 916 00d0 1046     		mov	r0, r2	@, D.6999
 917 00d2 1946     		mov	r1, r3	@, D.7000
 918 00d4 FFF7FEFF 		bl	vListInsertEnd	@
 919              	.L52:
 852:FreeRTOS/tasks.c **** 				}
 853:FreeRTOS/tasks.c **** 
 854:FreeRTOS/tasks.c **** 				if( xYieldRequired == pdTRUE )
 920              		.loc 1 854 0 is_stmt 1
 921 00d8 7B69     		ldr	r3, [r7, #20]	@ tmp165, xYieldRequired
 922 00da 012B     		cmp	r3, #1	@ tmp165,
 923 00dc 01D1     		bne	.L47	@,
 855:FreeRTOS/tasks.c **** 				{
 856:FreeRTOS/tasks.c **** 					portYIELD_WITHIN_API();
 924              		.loc 1 856 0
 925 00de FFF7FEFF 		bl	vPortYieldFromISR	@
 926              	.L47:
 857:FreeRTOS/tasks.c **** 				}
 858:FreeRTOS/tasks.c **** 			}
 859:FreeRTOS/tasks.c **** 		}
 860:FreeRTOS/tasks.c **** 		taskEXIT_CRITICAL();
 927              		.loc 1 860 0
 928 00e2 FFF7FEFF 		bl	vPortExitCritical	@
 861:FreeRTOS/tasks.c **** 	}
 929              		.loc 1 861 0
 930 00e6 1837     		adds	r7, r7, #24	@,,
 931 00e8 BD46     		mov	sp, r7	@,
 932              		@ sp needed	@
 933 00ea 80BD     		pop	{r7, pc}	@
 934              	.L55:
 935              		.align	2
ARM GAS  C:\Users\Adrian\AppData\Local\Temp\ccgZ1piN.s 			page 33


 936              	.L54:
 937 00ec 00000000 		.word	pxCurrentTCB
 938 00f0 00000000 		.word	pxReadyTasksLists
 939 00f4 00000000 		.word	uxTopReadyPriority
 940              		.cfi_endproc
 941              	.LFE60:
 942              		.size	vTaskPrioritySet, .-vTaskPrioritySet
 943              		.section	.text.vTaskSuspend,"ax",%progbits
 944              		.align	2
 945              		.global	vTaskSuspend
 946              		.thumb
 947              		.thumb_func
 948              		.type	vTaskSuspend, %function
 949              	vTaskSuspend:
 950              	.LFB61:
 862:FreeRTOS/tasks.c **** 
 863:FreeRTOS/tasks.c **** #endif
 864:FreeRTOS/tasks.c **** /*-----------------------------------------------------------*/
 865:FreeRTOS/tasks.c **** 
 866:FreeRTOS/tasks.c **** #if ( INCLUDE_vTaskSuspend == 1 )
 867:FreeRTOS/tasks.c **** 
 868:FreeRTOS/tasks.c **** 	void vTaskSuspend( xTaskHandle pxTaskToSuspend )
 869:FreeRTOS/tasks.c **** 	{
 951              		.loc 1 869 0
 952              		.cfi_startproc
 953              		@ args = 0, pretend = 0, frame = 16
 954              		@ frame_needed = 1, uses_anonymous_args = 0
 955 0000 80B5     		push	{r7, lr}	@
 956              		.cfi_def_cfa_offset 8
 957              		.cfi_offset 7, -8
 958              		.cfi_offset 14, -4
 959 0002 84B0     		sub	sp, sp, #16	@,,
 960              		.cfi_def_cfa_offset 24
 961 0004 00AF     		add	r7, sp, #0	@,,
 962              		.cfi_def_cfa_register 7
 963 0006 7860     		str	r0, [r7, #4]	@ pxTaskToSuspend, pxTaskToSuspend
 870:FreeRTOS/tasks.c **** 	tskTCB *pxTCB;
 871:FreeRTOS/tasks.c **** 
 872:FreeRTOS/tasks.c **** 		taskENTER_CRITICAL();
 964              		.loc 1 872 0
 965 0008 FFF7FEFF 		bl	vPortEnterCritical	@
 873:FreeRTOS/tasks.c **** 		{
 874:FreeRTOS/tasks.c **** 			/* Ensure a yield is performed if the current task is being
 875:FreeRTOS/tasks.c **** 			suspended. */
 876:FreeRTOS/tasks.c **** 			if( pxTaskToSuspend == pxCurrentTCB )
 966              		.loc 1 876 0
 967 000c 1E4B     		ldr	r3, .L64	@ tmp119,
 968 000e 1B68     		ldr	r3, [r3]	@ pxCurrentTCB.34, pxCurrentTCB
 969 0010 7A68     		ldr	r2, [r7, #4]	@ tmp120, pxTaskToSuspend
 970 0012 9A42     		cmp	r2, r3	@ tmp120, pxCurrentTCB.34
 971 0014 01D1     		bne	.L57	@,
 877:FreeRTOS/tasks.c **** 			{
 878:FreeRTOS/tasks.c **** 				pxTaskToSuspend = NULL;
 972              		.loc 1 878 0
 973 0016 0023     		movs	r3, #0	@ tmp121,
 974 0018 7B60     		str	r3, [r7, #4]	@ tmp121, pxTaskToSuspend
 975              	.L57:
ARM GAS  C:\Users\Adrian\AppData\Local\Temp\ccgZ1piN.s 			page 34


 879:FreeRTOS/tasks.c **** 			}
 880:FreeRTOS/tasks.c **** 
 881:FreeRTOS/tasks.c **** 			/* If null is passed in here then we are suspending ourselves. */
 882:FreeRTOS/tasks.c **** 			pxTCB = prvGetTCBFromHandle( pxTaskToSuspend );
 976              		.loc 1 882 0
 977 001a 7B68     		ldr	r3, [r7, #4]	@ tmp122, pxTaskToSuspend
 978 001c 002B     		cmp	r3, #0	@ tmp122,
 979 001e 02D1     		bne	.L58	@,
 980              		.loc 1 882 0 is_stmt 0 discriminator 1
 981 0020 194B     		ldr	r3, .L64	@ tmp123,
 982 0022 1B68     		ldr	r3, [r3]	@ iftmp.35, pxCurrentTCB
 983 0024 00E0     		b	.L59	@
 984              	.L58:
 985              		.loc 1 882 0 discriminator 2
 986 0026 7B68     		ldr	r3, [r7, #4]	@ iftmp.35, pxTaskToSuspend
 987              	.L59:
 988              		.loc 1 882 0 discriminator 3
 989 0028 FB60     		str	r3, [r7, #12]	@ iftmp.35, pxTCB
 883:FreeRTOS/tasks.c **** 
 884:FreeRTOS/tasks.c **** 			traceTASK_SUSPEND( pxTCB );
 885:FreeRTOS/tasks.c **** 
 886:FreeRTOS/tasks.c **** 			/* Remove task from the ready/delayed list and place in the	suspended list. */
 887:FreeRTOS/tasks.c **** 			vListRemove( &( pxTCB->xGenericListItem ) );
 990              		.loc 1 887 0 is_stmt 1 discriminator 3
 991 002a FB68     		ldr	r3, [r7, #12]	@ tmp124, pxTCB
 992 002c 0433     		adds	r3, r3, #4	@ D.7001, tmp124,
 993 002e 1846     		mov	r0, r3	@, D.7001
 994 0030 FFF7FEFF 		bl	vListRemove	@
 888:FreeRTOS/tasks.c **** 
 889:FreeRTOS/tasks.c **** 			/* Is the task waiting on an event also? */
 890:FreeRTOS/tasks.c **** 			if( pxTCB->xEventListItem.pvContainer != NULL )
 995              		.loc 1 890 0 discriminator 3
 996 0034 FB68     		ldr	r3, [r7, #12]	@ tmp125, pxTCB
 997 0036 9B6A     		ldr	r3, [r3, #40]	@ D.7002, pxTCB_8->xEventListItem.pvContainer
 998 0038 002B     		cmp	r3, #0	@ D.7002,
 999 003a 04D0     		beq	.L60	@,
 891:FreeRTOS/tasks.c **** 			{
 892:FreeRTOS/tasks.c **** 				vListRemove( &( pxTCB->xEventListItem ) );
 1000              		.loc 1 892 0
 1001 003c FB68     		ldr	r3, [r7, #12]	@ tmp126, pxTCB
 1002 003e 1833     		adds	r3, r3, #24	@ D.7001, tmp126,
 1003 0040 1846     		mov	r0, r3	@, D.7001
 1004 0042 FFF7FEFF 		bl	vListRemove	@
 1005              	.L60:
 893:FreeRTOS/tasks.c **** 			}
 894:FreeRTOS/tasks.c **** 
 895:FreeRTOS/tasks.c **** 			vListInsertEnd( ( xList * ) &xSuspendedTaskList, &( pxTCB->xGenericListItem ) );
 1006              		.loc 1 895 0
 1007 0046 FB68     		ldr	r3, [r7, #12]	@ tmp127, pxTCB
 1008 0048 0433     		adds	r3, r3, #4	@ D.7001, tmp127,
 1009 004a 1048     		ldr	r0, .L64+4	@,
 1010 004c 1946     		mov	r1, r3	@, D.7001
 1011 004e FFF7FEFF 		bl	vListInsertEnd	@
 896:FreeRTOS/tasks.c **** 		}
 897:FreeRTOS/tasks.c **** 		taskEXIT_CRITICAL();
 1012              		.loc 1 897 0
 1013 0052 FFF7FEFF 		bl	vPortExitCritical	@
ARM GAS  C:\Users\Adrian\AppData\Local\Temp\ccgZ1piN.s 			page 35


 898:FreeRTOS/tasks.c **** 
 899:FreeRTOS/tasks.c **** 		if( ( void * ) pxTaskToSuspend == NULL )
 1014              		.loc 1 899 0
 1015 0056 7B68     		ldr	r3, [r7, #4]	@ tmp128, pxTaskToSuspend
 1016 0058 002B     		cmp	r3, #0	@ tmp128,
 1017 005a 12D1     		bne	.L56	@,
 900:FreeRTOS/tasks.c **** 		{
 901:FreeRTOS/tasks.c **** 			if( xSchedulerRunning != pdFALSE )
 1018              		.loc 1 901 0
 1019 005c 0C4B     		ldr	r3, .L64+8	@ tmp129,
 1020 005e 1B68     		ldr	r3, [r3]	@ xSchedulerRunning.36, xSchedulerRunning
 1021 0060 002B     		cmp	r3, #0	@ xSchedulerRunning.36,
 1022 0062 02D0     		beq	.L62	@,
 902:FreeRTOS/tasks.c **** 			{
 903:FreeRTOS/tasks.c **** 				/* We have just suspended the current task. */
 904:FreeRTOS/tasks.c **** 				portYIELD_WITHIN_API();
 1023              		.loc 1 904 0
 1024 0064 FFF7FEFF 		bl	vPortYieldFromISR	@
 1025 0068 0BE0     		b	.L56	@
 1026              	.L62:
 905:FreeRTOS/tasks.c **** 			}
 906:FreeRTOS/tasks.c **** 			else
 907:FreeRTOS/tasks.c **** 			{
 908:FreeRTOS/tasks.c **** 				/* The scheduler is not running, but the task that was pointed
 909:FreeRTOS/tasks.c **** 				to by pxCurrentTCB has just been suspended and pxCurrentTCB
 910:FreeRTOS/tasks.c **** 				must be adjusted to point to a different task. */
 911:FreeRTOS/tasks.c **** 				if( listCURRENT_LIST_LENGTH( &xSuspendedTaskList ) == uxCurrentNumberOfTasks )
 1027              		.loc 1 911 0
 1028 006a 084B     		ldr	r3, .L64+4	@ tmp130,
 1029 006c 1A68     		ldr	r2, [r3]	@ D.7003, xSuspendedTaskList.uxNumberOfItems
 1030 006e 094B     		ldr	r3, .L64+12	@ tmp131,
 1031 0070 1B68     		ldr	r3, [r3]	@ uxCurrentNumberOfTasks.37, uxCurrentNumberOfTasks
 1032 0072 9A42     		cmp	r2, r3	@ D.7003, uxCurrentNumberOfTasks.37
 1033 0074 03D1     		bne	.L63	@,
 912:FreeRTOS/tasks.c **** 				{
 913:FreeRTOS/tasks.c **** 					/* No other tasks are ready, so set pxCurrentTCB back to
 914:FreeRTOS/tasks.c **** 					NULL so when the next task is created pxCurrentTCB will
 915:FreeRTOS/tasks.c **** 					be set to point to it no matter what its relative priority
 916:FreeRTOS/tasks.c **** 					is. */
 917:FreeRTOS/tasks.c **** 					pxCurrentTCB = NULL;
 1034              		.loc 1 917 0
 1035 0076 044B     		ldr	r3, .L64	@ tmp132,
 1036 0078 0022     		movs	r2, #0	@ tmp133,
 1037 007a 1A60     		str	r2, [r3]	@ tmp133, pxCurrentTCB
 1038 007c 01E0     		b	.L56	@
 1039              	.L63:
 918:FreeRTOS/tasks.c **** 				}
 919:FreeRTOS/tasks.c **** 				else
 920:FreeRTOS/tasks.c **** 				{
 921:FreeRTOS/tasks.c **** 					vTaskSwitchContext();
 1040              		.loc 1 921 0
 1041 007e FFF7FEFF 		bl	vTaskSwitchContext	@
 1042              	.L56:
 922:FreeRTOS/tasks.c **** 				}
 923:FreeRTOS/tasks.c **** 			}
 924:FreeRTOS/tasks.c **** 		}
 925:FreeRTOS/tasks.c **** 	}
ARM GAS  C:\Users\Adrian\AppData\Local\Temp\ccgZ1piN.s 			page 36


 1043              		.loc 1 925 0
 1044 0082 1037     		adds	r7, r7, #16	@,,
 1045 0084 BD46     		mov	sp, r7	@,
 1046              		@ sp needed	@
 1047 0086 80BD     		pop	{r7, pc}	@
 1048              	.L65:
 1049              		.align	2
 1050              	.L64:
 1051 0088 00000000 		.word	pxCurrentTCB
 1052 008c 00000000 		.word	xSuspendedTaskList
 1053 0090 00000000 		.word	xSchedulerRunning
 1054 0094 00000000 		.word	uxCurrentNumberOfTasks
 1055              		.cfi_endproc
 1056              	.LFE61:
 1057              		.size	vTaskSuspend, .-vTaskSuspend
 1058              		.section	.text.xTaskIsTaskSuspended,"ax",%progbits
 1059              		.align	2
 1060              		.global	xTaskIsTaskSuspended
 1061              		.thumb
 1062              		.thumb_func
 1063              		.type	xTaskIsTaskSuspended, %function
 1064              	xTaskIsTaskSuspended:
 1065              	.LFB62:
 926:FreeRTOS/tasks.c **** 
 927:FreeRTOS/tasks.c **** #endif
 928:FreeRTOS/tasks.c **** /*-----------------------------------------------------------*/
 929:FreeRTOS/tasks.c **** 
 930:FreeRTOS/tasks.c **** #if ( INCLUDE_vTaskSuspend == 1 )
 931:FreeRTOS/tasks.c **** 
 932:FreeRTOS/tasks.c **** 	signed portBASE_TYPE xTaskIsTaskSuspended( xTaskHandle xTask )
 933:FreeRTOS/tasks.c **** 	{
 1066              		.loc 1 933 0
 1067              		.cfi_startproc
 1068              		@ args = 0, pretend = 0, frame = 16
 1069              		@ frame_needed = 1, uses_anonymous_args = 0
 1070              		@ link register save eliminated.
 1071 0000 80B4     		push	{r7}	@
 1072              		.cfi_def_cfa_offset 4
 1073              		.cfi_offset 7, -4
 1074 0002 85B0     		sub	sp, sp, #20	@,,
 1075              		.cfi_def_cfa_offset 24
 1076 0004 00AF     		add	r7, sp, #0	@,,
 1077              		.cfi_def_cfa_register 7
 1078 0006 7860     		str	r0, [r7, #4]	@ xTask, xTask
 934:FreeRTOS/tasks.c **** 	portBASE_TYPE xReturn = pdFALSE;
 1079              		.loc 1 934 0
 1080 0008 0023     		movs	r3, #0	@ tmp115,
 1081 000a FB60     		str	r3, [r7, #12]	@ tmp115, xReturn
 935:FreeRTOS/tasks.c **** 	const tskTCB * const pxTCB = ( tskTCB * ) xTask;
 1082              		.loc 1 935 0
 1083 000c 7B68     		ldr	r3, [r7, #4]	@ tmp116, xTask
 1084 000e BB60     		str	r3, [r7, #8]	@ tmp116, pxTCB
 936:FreeRTOS/tasks.c **** 
 937:FreeRTOS/tasks.c **** 		/* It does not make sense to check if the calling task is suspended. */
 938:FreeRTOS/tasks.c **** 		configASSERT( xTask );
 939:FreeRTOS/tasks.c **** 
 940:FreeRTOS/tasks.c **** 		/* Is the task we are attempting to resume actually in the
ARM GAS  C:\Users\Adrian\AppData\Local\Temp\ccgZ1piN.s 			page 37


 941:FreeRTOS/tasks.c **** 		suspended list? */
 942:FreeRTOS/tasks.c **** 		if( listIS_CONTAINED_WITHIN( &xSuspendedTaskList, &( pxTCB->xGenericListItem ) ) != pdFALSE )
 1085              		.loc 1 942 0
 1086 0010 BB68     		ldr	r3, [r7, #8]	@ tmp117, pxTCB
 1087 0012 5A69     		ldr	r2, [r3, #20]	@ D.7004, pxTCB_4->xGenericListItem.pvContainer
 1088 0014 0A4B     		ldr	r3, .L69	@ tmp118,
 1089 0016 9A42     		cmp	r2, r3	@ D.7004, tmp118
 1090 0018 0AD1     		bne	.L67	@,
 943:FreeRTOS/tasks.c **** 		{
 944:FreeRTOS/tasks.c **** 			/* Has the task already been resumed from within an ISR? */
 945:FreeRTOS/tasks.c **** 			if( listIS_CONTAINED_WITHIN( &xPendingReadyList, &( pxTCB->xEventListItem ) ) != pdTRUE )
 1091              		.loc 1 945 0
 1092 001a BB68     		ldr	r3, [r7, #8]	@ tmp119, pxTCB
 1093 001c 9A6A     		ldr	r2, [r3, #40]	@ D.7004, pxTCB_4->xEventListItem.pvContainer
 1094 001e 094B     		ldr	r3, .L69+4	@ tmp120,
 1095 0020 9A42     		cmp	r2, r3	@ D.7004, tmp120
 1096 0022 05D0     		beq	.L67	@,
 946:FreeRTOS/tasks.c **** 			{
 947:FreeRTOS/tasks.c **** 				/* Is it in the suspended list because it is in the
 948:FreeRTOS/tasks.c **** 				Suspended state?  It is possible to be in the suspended
 949:FreeRTOS/tasks.c **** 				list because it is blocked on a task with no timeout
 950:FreeRTOS/tasks.c **** 				specified. */
 951:FreeRTOS/tasks.c **** 				if( listIS_CONTAINED_WITHIN( NULL, &( pxTCB->xEventListItem ) ) == pdTRUE )
 1097              		.loc 1 951 0
 1098 0024 BB68     		ldr	r3, [r7, #8]	@ tmp121, pxTCB
 1099 0026 9B6A     		ldr	r3, [r3, #40]	@ D.7004, pxTCB_4->xEventListItem.pvContainer
 1100 0028 002B     		cmp	r3, #0	@ D.7004,
 1101 002a 01D1     		bne	.L67	@,
 952:FreeRTOS/tasks.c **** 				{
 953:FreeRTOS/tasks.c **** 					xReturn = pdTRUE;
 1102              		.loc 1 953 0
 1103 002c 0123     		movs	r3, #1	@ tmp122,
 1104 002e FB60     		str	r3, [r7, #12]	@ tmp122, xReturn
 1105              	.L67:
 954:FreeRTOS/tasks.c **** 				}
 955:FreeRTOS/tasks.c **** 			}
 956:FreeRTOS/tasks.c **** 		}
 957:FreeRTOS/tasks.c **** 
 958:FreeRTOS/tasks.c **** 		return xReturn;
 1106              		.loc 1 958 0
 1107 0030 FB68     		ldr	r3, [r7, #12]	@ D.7005, xReturn
 959:FreeRTOS/tasks.c **** 	}
 1108              		.loc 1 959 0
 1109 0032 1846     		mov	r0, r3	@, <retval>
 1110 0034 1437     		adds	r7, r7, #20	@,,
 1111 0036 BD46     		mov	sp, r7	@,
 1112              		@ sp needed	@
 1113 0038 5DF8047B 		ldr	r7, [sp], #4	@,
 1114 003c 7047     		bx	lr	@
 1115              	.L70:
 1116 003e 00BF     		.align	2
 1117              	.L69:
 1118 0040 00000000 		.word	xSuspendedTaskList
 1119 0044 00000000 		.word	xPendingReadyList
 1120              		.cfi_endproc
 1121              	.LFE62:
 1122              		.size	xTaskIsTaskSuspended, .-xTaskIsTaskSuspended
ARM GAS  C:\Users\Adrian\AppData\Local\Temp\ccgZ1piN.s 			page 38


 1123              		.section	.text.vTaskResume,"ax",%progbits
 1124              		.align	2
 1125              		.global	vTaskResume
 1126              		.thumb
 1127              		.thumb_func
 1128              		.type	vTaskResume, %function
 1129              	vTaskResume:
 1130              	.LFB63:
 960:FreeRTOS/tasks.c **** 
 961:FreeRTOS/tasks.c **** #endif
 962:FreeRTOS/tasks.c **** /*-----------------------------------------------------------*/
 963:FreeRTOS/tasks.c **** 
 964:FreeRTOS/tasks.c **** #if ( INCLUDE_vTaskSuspend == 1 )
 965:FreeRTOS/tasks.c **** 
 966:FreeRTOS/tasks.c **** 	void vTaskResume( xTaskHandle pxTaskToResume )
 967:FreeRTOS/tasks.c **** 	{
 1131              		.loc 1 967 0
 1132              		.cfi_startproc
 1133              		@ args = 0, pretend = 0, frame = 16
 1134              		@ frame_needed = 1, uses_anonymous_args = 0
 1135 0000 80B5     		push	{r7, lr}	@
 1136              		.cfi_def_cfa_offset 8
 1137              		.cfi_offset 7, -8
 1138              		.cfi_offset 14, -4
 1139 0002 84B0     		sub	sp, sp, #16	@,,
 1140              		.cfi_def_cfa_offset 24
 1141 0004 00AF     		add	r7, sp, #0	@,,
 1142              		.cfi_def_cfa_register 7
 1143 0006 7860     		str	r0, [r7, #4]	@ pxTaskToResume, pxTaskToResume
 968:FreeRTOS/tasks.c **** 	tskTCB *pxTCB;
 969:FreeRTOS/tasks.c **** 
 970:FreeRTOS/tasks.c **** 		/* It does not make sense to resume the calling task. */
 971:FreeRTOS/tasks.c **** 		configASSERT( pxTaskToResume );
 972:FreeRTOS/tasks.c **** 
 973:FreeRTOS/tasks.c **** 		/* Remove the task from whichever list it is currently in, and place
 974:FreeRTOS/tasks.c **** 		it in the ready list. */
 975:FreeRTOS/tasks.c **** 		pxTCB = ( tskTCB * ) pxTaskToResume;
 1144              		.loc 1 975 0
 1145 0008 7B68     		ldr	r3, [r7, #4]	@ tmp122, pxTaskToResume
 1146 000a FB60     		str	r3, [r7, #12]	@ tmp122, pxTCB
 976:FreeRTOS/tasks.c **** 
 977:FreeRTOS/tasks.c **** 		/* The parameter cannot be NULL as it is impossible to resume the
 978:FreeRTOS/tasks.c **** 		currently executing task. */
 979:FreeRTOS/tasks.c **** 		if( ( pxTCB != NULL ) && ( pxTCB != pxCurrentTCB ) )
 1147              		.loc 1 979 0
 1148 000c FB68     		ldr	r3, [r7, #12]	@ tmp123, pxTCB
 1149 000e 002B     		cmp	r3, #0	@ tmp123,
 1150 0010 34D0     		beq	.L71	@,
 1151              		.loc 1 979 0 is_stmt 0 discriminator 1
 1152 0012 1C4B     		ldr	r3, .L75	@ tmp124,
 1153 0014 1B68     		ldr	r3, [r3]	@ pxCurrentTCB.38, pxCurrentTCB
 1154 0016 FA68     		ldr	r2, [r7, #12]	@ tmp125, pxTCB
 1155 0018 9A42     		cmp	r2, r3	@ tmp125, pxCurrentTCB.38
 1156 001a 2FD0     		beq	.L71	@,
 980:FreeRTOS/tasks.c **** 		{
 981:FreeRTOS/tasks.c **** 			taskENTER_CRITICAL();
 1157              		.loc 1 981 0 is_stmt 1
ARM GAS  C:\Users\Adrian\AppData\Local\Temp\ccgZ1piN.s 			page 39


 1158 001c FFF7FEFF 		bl	vPortEnterCritical	@
 982:FreeRTOS/tasks.c **** 			{
 983:FreeRTOS/tasks.c **** 				if( xTaskIsTaskSuspended( pxTCB ) == pdTRUE )
 1159              		.loc 1 983 0
 1160 0020 F868     		ldr	r0, [r7, #12]	@, pxTCB
 1161 0022 FFF7FEFF 		bl	xTaskIsTaskSuspended	@
 1162 0026 0346     		mov	r3, r0	@ D.7006,
 1163 0028 012B     		cmp	r3, #1	@ D.7006,
 1164 002a 25D1     		bne	.L73	@,
 984:FreeRTOS/tasks.c **** 				{
 985:FreeRTOS/tasks.c **** 					traceTASK_RESUME( pxTCB );
 986:FreeRTOS/tasks.c **** 
 987:FreeRTOS/tasks.c **** 					/* As we are in a critical section we can access the ready
 988:FreeRTOS/tasks.c **** 					lists even if the scheduler is suspended. */
 989:FreeRTOS/tasks.c **** 					vListRemove(  &( pxTCB->xGenericListItem ) );
 1165              		.loc 1 989 0
 1166 002c FB68     		ldr	r3, [r7, #12]	@ tmp126, pxTCB
 1167 002e 0433     		adds	r3, r3, #4	@ D.7007, tmp126,
 1168 0030 1846     		mov	r0, r3	@, D.7007
 1169 0032 FFF7FEFF 		bl	vListRemove	@
 990:FreeRTOS/tasks.c **** 					prvAddTaskToReadyQueue( pxTCB );
 1170              		.loc 1 990 0
 1171 0036 FB68     		ldr	r3, [r7, #12]	@ tmp127, pxTCB
 1172 0038 DA6A     		ldr	r2, [r3, #44]	@ D.7008, pxTCB_2->uxPriority
 1173 003a 134B     		ldr	r3, .L75+4	@ tmp128,
 1174 003c 1B68     		ldr	r3, [r3]	@ uxTopReadyPriority.39, uxTopReadyPriority
 1175 003e 9A42     		cmp	r2, r3	@ D.7008, uxTopReadyPriority.39
 1176 0040 03D9     		bls	.L74	@,
 1177              		.loc 1 990 0 is_stmt 0 discriminator 1
 1178 0042 FB68     		ldr	r3, [r7, #12]	@ tmp129, pxTCB
 1179 0044 DA6A     		ldr	r2, [r3, #44]	@ uxTopReadyPriority.40, pxTCB_2->uxPriority
 1180 0046 104B     		ldr	r3, .L75+4	@ tmp130,
 1181 0048 1A60     		str	r2, [r3]	@ uxTopReadyPriority.40, uxTopReadyPriority
 1182              	.L74:
 1183              		.loc 1 990 0 discriminator 2
 1184 004a FB68     		ldr	r3, [r7, #12]	@ tmp131, pxTCB
 1185 004c DA6A     		ldr	r2, [r3, #44]	@ D.7008, pxTCB_2->uxPriority
 1186 004e 1346     		mov	r3, r2	@ tmp132, D.7008
 1187 0050 9B00     		lsls	r3, r3, #2	@ tmp132, tmp132,
 1188 0052 1344     		add	r3, r3, r2	@ tmp132, D.7008
 1189 0054 9B00     		lsls	r3, r3, #2	@ tmp133, tmp132,
 1190 0056 0D4A     		ldr	r2, .L75+8	@ tmp134,
 1191 0058 1A44     		add	r2, r2, r3	@ D.7009, tmp132
 1192 005a FB68     		ldr	r3, [r7, #12]	@ tmp135, pxTCB
 1193 005c 0433     		adds	r3, r3, #4	@ D.7007, tmp135,
 1194 005e 1046     		mov	r0, r2	@, D.7009
 1195 0060 1946     		mov	r1, r3	@, D.7007
 1196 0062 FFF7FEFF 		bl	vListInsertEnd	@
 991:FreeRTOS/tasks.c **** 
 992:FreeRTOS/tasks.c **** 					/* We may have just resumed a higher priority task. */
 993:FreeRTOS/tasks.c **** 					if( pxTCB->uxPriority >= pxCurrentTCB->uxPriority )
 1197              		.loc 1 993 0 is_stmt 1 discriminator 2
 1198 0066 FB68     		ldr	r3, [r7, #12]	@ tmp136, pxTCB
 1199 0068 DA6A     		ldr	r2, [r3, #44]	@ D.7008, pxTCB_2->uxPriority
 1200 006a 064B     		ldr	r3, .L75	@ tmp137,
 1201 006c 1B68     		ldr	r3, [r3]	@ pxCurrentTCB.41, pxCurrentTCB
 1202 006e DB6A     		ldr	r3, [r3, #44]	@ D.7008, pxCurrentTCB.41_13->uxPriority
ARM GAS  C:\Users\Adrian\AppData\Local\Temp\ccgZ1piN.s 			page 40


 1203 0070 9A42     		cmp	r2, r3	@ D.7008, D.7008
 1204 0072 01D3     		bcc	.L73	@,
 994:FreeRTOS/tasks.c **** 					{
 995:FreeRTOS/tasks.c **** 						/* This yield may not cause the task just resumed to run, but
 996:FreeRTOS/tasks.c **** 						will leave the lists in the correct state for the next yield. */
 997:FreeRTOS/tasks.c **** 						portYIELD_WITHIN_API();
 1205              		.loc 1 997 0
 1206 0074 FFF7FEFF 		bl	vPortYieldFromISR	@
 1207              	.L73:
 998:FreeRTOS/tasks.c **** 					}
 999:FreeRTOS/tasks.c **** 				}
1000:FreeRTOS/tasks.c **** 			}
1001:FreeRTOS/tasks.c **** 			taskEXIT_CRITICAL();
 1208              		.loc 1 1001 0
 1209 0078 FFF7FEFF 		bl	vPortExitCritical	@
 1210              	.L71:
1002:FreeRTOS/tasks.c **** 		}
1003:FreeRTOS/tasks.c **** 	}
 1211              		.loc 1 1003 0
 1212 007c 1037     		adds	r7, r7, #16	@,,
 1213 007e BD46     		mov	sp, r7	@,
 1214              		@ sp needed	@
 1215 0080 80BD     		pop	{r7, pc}	@
 1216              	.L76:
 1217 0082 00BF     		.align	2
 1218              	.L75:
 1219 0084 00000000 		.word	pxCurrentTCB
 1220 0088 00000000 		.word	uxTopReadyPriority
 1221 008c 00000000 		.word	pxReadyTasksLists
 1222              		.cfi_endproc
 1223              	.LFE63:
 1224              		.size	vTaskResume, .-vTaskResume
 1225              		.section	.text.xTaskResumeFromISR,"ax",%progbits
 1226              		.align	2
 1227              		.global	xTaskResumeFromISR
 1228              		.thumb
 1229              		.thumb_func
 1230              		.type	xTaskResumeFromISR, %function
 1231              	xTaskResumeFromISR:
 1232              	.LFB64:
1004:FreeRTOS/tasks.c **** 
1005:FreeRTOS/tasks.c **** #endif
1006:FreeRTOS/tasks.c **** 
1007:FreeRTOS/tasks.c **** /*-----------------------------------------------------------*/
1008:FreeRTOS/tasks.c **** 
1009:FreeRTOS/tasks.c **** #if ( ( INCLUDE_xTaskResumeFromISR == 1 ) && ( INCLUDE_vTaskSuspend == 1 ) )
1010:FreeRTOS/tasks.c **** 
1011:FreeRTOS/tasks.c **** 	portBASE_TYPE xTaskResumeFromISR( xTaskHandle pxTaskToResume )
1012:FreeRTOS/tasks.c **** 	{
 1233              		.loc 1 1012 0
 1234              		.cfi_startproc
 1235              		@ args = 0, pretend = 0, frame = 24
 1236              		@ frame_needed = 1, uses_anonymous_args = 0
 1237 0000 80B5     		push	{r7, lr}	@
 1238              		.cfi_def_cfa_offset 8
 1239              		.cfi_offset 7, -8
 1240              		.cfi_offset 14, -4
ARM GAS  C:\Users\Adrian\AppData\Local\Temp\ccgZ1piN.s 			page 41


 1241 0002 86B0     		sub	sp, sp, #24	@,,
 1242              		.cfi_def_cfa_offset 32
 1243 0004 00AF     		add	r7, sp, #0	@,,
 1244              		.cfi_def_cfa_register 7
 1245 0006 7860     		str	r0, [r7, #4]	@ pxTaskToResume, pxTaskToResume
1013:FreeRTOS/tasks.c **** 	portBASE_TYPE xYieldRequired = pdFALSE;
 1246              		.loc 1 1013 0
 1247 0008 0023     		movs	r3, #0	@ tmp126,
 1248 000a 7B61     		str	r3, [r7, #20]	@ tmp126, xYieldRequired
1014:FreeRTOS/tasks.c **** 	tskTCB *pxTCB;
1015:FreeRTOS/tasks.c **** 	unsigned portBASE_TYPE uxSavedInterruptStatus;
1016:FreeRTOS/tasks.c **** 
1017:FreeRTOS/tasks.c **** 		configASSERT( pxTaskToResume );
1018:FreeRTOS/tasks.c **** 
1019:FreeRTOS/tasks.c **** 		pxTCB = ( tskTCB * ) pxTaskToResume;
 1249              		.loc 1 1019 0
 1250 000c 7B68     		ldr	r3, [r7, #4]	@ tmp127, pxTaskToResume
 1251 000e 3B61     		str	r3, [r7, #16]	@ tmp127, pxTCB
1020:FreeRTOS/tasks.c **** 
1021:FreeRTOS/tasks.c **** 		uxSavedInterruptStatus = portSET_INTERRUPT_MASK_FROM_ISR();
 1252              		.loc 1 1021 0
 1253 0010 0023     		movs	r3, #0	@ tmp128,
 1254 0012 FB60     		str	r3, [r7, #12]	@ tmp128, uxSavedInterruptStatus
 1255              	@ 1021 "FreeRTOS/tasks.c" 1
 1256 0014 4FF05000 			mov r0, #80									@
 1257 0018 80F31188 		msr basepri, r0							
 1258              	
 1259              	@ 0 "" 2
1022:FreeRTOS/tasks.c **** 		{
1023:FreeRTOS/tasks.c **** 			if( xTaskIsTaskSuspended( pxTCB ) == pdTRUE )
 1260              		.loc 1 1023 0
 1261              		.thumb
 1262 001c 3869     		ldr	r0, [r7, #16]	@, pxTCB
 1263 001e FFF7FEFF 		bl	xTaskIsTaskSuspended	@
 1264 0022 0346     		mov	r3, r0	@ D.7010,
 1265 0024 012B     		cmp	r3, #1	@ D.7010,
 1266 0026 32D1     		bne	.L78	@,
1024:FreeRTOS/tasks.c **** 			{
1025:FreeRTOS/tasks.c **** 				traceTASK_RESUME_FROM_ISR( pxTCB );
1026:FreeRTOS/tasks.c **** 
1027:FreeRTOS/tasks.c **** 				if( uxSchedulerSuspended == ( unsigned portBASE_TYPE ) pdFALSE )
 1267              		.loc 1 1027 0
 1268 0028 1D4B     		ldr	r3, .L82	@ tmp129,
 1269 002a 1B68     		ldr	r3, [r3]	@ uxSchedulerSuspended.42, uxSchedulerSuspended
 1270 002c 002B     		cmp	r3, #0	@ uxSchedulerSuspended.42,
 1271 002e 28D1     		bne	.L79	@,
1028:FreeRTOS/tasks.c **** 				{
1029:FreeRTOS/tasks.c **** 					xYieldRequired = ( pxTCB->uxPriority >= pxCurrentTCB->uxPriority );
 1272              		.loc 1 1029 0
 1273 0030 3B69     		ldr	r3, [r7, #16]	@ tmp130, pxTCB
 1274 0032 DA6A     		ldr	r2, [r3, #44]	@ D.7011, pxTCB_4->uxPriority
 1275 0034 1B4B     		ldr	r3, .L82+4	@ tmp131,
 1276 0036 1B68     		ldr	r3, [r3]	@ pxCurrentTCB.43, pxCurrentTCB
 1277 0038 DB6A     		ldr	r3, [r3, #44]	@ D.7011, pxCurrentTCB.43_9->uxPriority
 1278 003a 9A42     		cmp	r2, r3	@ D.7011, D.7011
 1279 003c 34BF     		ite	cc	@
 1280 003e 0023     		movcc	r3, #0	@, tmp133
ARM GAS  C:\Users\Adrian\AppData\Local\Temp\ccgZ1piN.s 			page 42


 1281 0040 0123     		movcs	r3, #1	@, tmp133
 1282 0042 DBB2     		uxtb	r3, r3	@ D.7012, tmp132
 1283 0044 7B61     		str	r3, [r7, #20]	@ D.7012, xYieldRequired
1030:FreeRTOS/tasks.c **** 					vListRemove(  &( pxTCB->xGenericListItem ) );
 1284              		.loc 1 1030 0
 1285 0046 3B69     		ldr	r3, [r7, #16]	@ tmp134, pxTCB
 1286 0048 0433     		adds	r3, r3, #4	@ D.7013, tmp134,
 1287 004a 1846     		mov	r0, r3	@, D.7013
 1288 004c FFF7FEFF 		bl	vListRemove	@
1031:FreeRTOS/tasks.c **** 					prvAddTaskToReadyQueue( pxTCB );
 1289              		.loc 1 1031 0
 1290 0050 3B69     		ldr	r3, [r7, #16]	@ tmp135, pxTCB
 1291 0052 DA6A     		ldr	r2, [r3, #44]	@ D.7011, pxTCB_4->uxPriority
 1292 0054 144B     		ldr	r3, .L82+8	@ tmp136,
 1293 0056 1B68     		ldr	r3, [r3]	@ uxTopReadyPriority.44, uxTopReadyPriority
 1294 0058 9A42     		cmp	r2, r3	@ D.7011, uxTopReadyPriority.44
 1295 005a 03D9     		bls	.L80	@,
 1296              		.loc 1 1031 0 is_stmt 0 discriminator 1
 1297 005c 3B69     		ldr	r3, [r7, #16]	@ tmp137, pxTCB
 1298 005e DA6A     		ldr	r2, [r3, #44]	@ uxTopReadyPriority.45, pxTCB_4->uxPriority
 1299 0060 114B     		ldr	r3, .L82+8	@ tmp138,
 1300 0062 1A60     		str	r2, [r3]	@ uxTopReadyPriority.45, uxTopReadyPriority
 1301              	.L80:
 1302              		.loc 1 1031 0 discriminator 2
 1303 0064 3B69     		ldr	r3, [r7, #16]	@ tmp139, pxTCB
 1304 0066 DA6A     		ldr	r2, [r3, #44]	@ D.7011, pxTCB_4->uxPriority
 1305 0068 1346     		mov	r3, r2	@ tmp140, D.7011
 1306 006a 9B00     		lsls	r3, r3, #2	@ tmp140, tmp140,
 1307 006c 1344     		add	r3, r3, r2	@ tmp140, D.7011
 1308 006e 9B00     		lsls	r3, r3, #2	@ tmp141, tmp140,
 1309 0070 0E4A     		ldr	r2, .L82+12	@ tmp142,
 1310 0072 1A44     		add	r2, r2, r3	@ D.7014, tmp140
 1311 0074 3B69     		ldr	r3, [r7, #16]	@ tmp143, pxTCB
 1312 0076 0433     		adds	r3, r3, #4	@ D.7013, tmp143,
 1313 0078 1046     		mov	r0, r2	@, D.7014
 1314 007a 1946     		mov	r1, r3	@, D.7013
 1315 007c FFF7FEFF 		bl	vListInsertEnd	@
 1316 0080 05E0     		b	.L78	@
 1317              	.L79:
1032:FreeRTOS/tasks.c **** 				}
1033:FreeRTOS/tasks.c **** 				else
1034:FreeRTOS/tasks.c **** 				{
1035:FreeRTOS/tasks.c **** 					/* We cannot access the delayed or ready lists, so will hold this
1036:FreeRTOS/tasks.c **** 					task pending until the scheduler is resumed, at which point a
1037:FreeRTOS/tasks.c **** 					yield will be performed if necessary. */
1038:FreeRTOS/tasks.c **** 					vListInsertEnd( ( xList * ) &( xPendingReadyList ), &( pxTCB->xEventListItem ) );
 1318              		.loc 1 1038 0 is_stmt 1
 1319 0082 3B69     		ldr	r3, [r7, #16]	@ tmp144, pxTCB
 1320 0084 1833     		adds	r3, r3, #24	@ D.7013, tmp144,
 1321 0086 0A48     		ldr	r0, .L82+16	@,
 1322 0088 1946     		mov	r1, r3	@, D.7013
 1323 008a FFF7FEFF 		bl	vListInsertEnd	@
 1324              	.L78:
1039:FreeRTOS/tasks.c **** 				}
1040:FreeRTOS/tasks.c **** 			}
1041:FreeRTOS/tasks.c **** 		}
1042:FreeRTOS/tasks.c **** 		portCLEAR_INTERRUPT_MASK_FROM_ISR( uxSavedInterruptStatus );
ARM GAS  C:\Users\Adrian\AppData\Local\Temp\ccgZ1piN.s 			page 43


 1325              		.loc 1 1042 0
 1326              	@ 1042 "FreeRTOS/tasks.c" 1
 1327 008e 4FF00000 			mov r0, #0					
 1328 0092 80F31188 		msr basepri, r0				
 1329              	
 1330              	@ 0 "" 2
1043:FreeRTOS/tasks.c **** 
1044:FreeRTOS/tasks.c **** 		return xYieldRequired;
 1331              		.loc 1 1044 0
 1332              		.thumb
 1333 0096 7B69     		ldr	r3, [r7, #20]	@ D.7010, xYieldRequired
1045:FreeRTOS/tasks.c **** 	}
 1334              		.loc 1 1045 0
 1335 0098 1846     		mov	r0, r3	@, <retval>
 1336 009a 1837     		adds	r7, r7, #24	@,,
 1337 009c BD46     		mov	sp, r7	@,
 1338              		@ sp needed	@
 1339 009e 80BD     		pop	{r7, pc}	@
 1340              	.L83:
 1341              		.align	2
 1342              	.L82:
 1343 00a0 00000000 		.word	uxSchedulerSuspended
 1344 00a4 00000000 		.word	pxCurrentTCB
 1345 00a8 00000000 		.word	uxTopReadyPriority
 1346 00ac 00000000 		.word	pxReadyTasksLists
 1347 00b0 00000000 		.word	xPendingReadyList
 1348              		.cfi_endproc
 1349              	.LFE64:
 1350              		.size	xTaskResumeFromISR, .-xTaskResumeFromISR
 1351              		.section	.rodata
 1352              		.align	2
 1353              	.LC0:
 1354 0000 49444C45 		.ascii	"IDLE\000"
 1354      00
 1355              		.section	.text.vTaskStartScheduler,"ax",%progbits
 1356              		.align	2
 1357              		.global	vTaskStartScheduler
 1358              		.thumb
 1359              		.thumb_func
 1360              		.type	vTaskStartScheduler, %function
 1361              	vTaskStartScheduler:
 1362              	.LFB65:
1046:FreeRTOS/tasks.c **** 
1047:FreeRTOS/tasks.c **** #endif
1048:FreeRTOS/tasks.c **** 
1049:FreeRTOS/tasks.c **** 
1050:FreeRTOS/tasks.c **** 
1051:FreeRTOS/tasks.c **** 
1052:FreeRTOS/tasks.c **** /*-----------------------------------------------------------
1053:FreeRTOS/tasks.c ****  * PUBLIC SCHEDULER CONTROL documented in task.h
1054:FreeRTOS/tasks.c ****  *----------------------------------------------------------*/
1055:FreeRTOS/tasks.c **** 
1056:FreeRTOS/tasks.c **** 
1057:FreeRTOS/tasks.c **** void vTaskStartScheduler( void )
1058:FreeRTOS/tasks.c **** {
 1363              		.loc 1 1058 0
 1364              		.cfi_startproc
ARM GAS  C:\Users\Adrian\AppData\Local\Temp\ccgZ1piN.s 			page 44


 1365              		@ args = 0, pretend = 0, frame = 8
 1366              		@ frame_needed = 1, uses_anonymous_args = 0
 1367 0000 80B5     		push	{r7, lr}	@
 1368              		.cfi_def_cfa_offset 8
 1369              		.cfi_offset 7, -8
 1370              		.cfi_offset 14, -4
 1371 0002 86B0     		sub	sp, sp, #24	@,,
 1372              		.cfi_def_cfa_offset 32
 1373 0004 04AF     		add	r7, sp, #16	@,,
 1374              		.cfi_def_cfa 7, 16
1059:FreeRTOS/tasks.c **** portBASE_TYPE xReturn;
1060:FreeRTOS/tasks.c **** 
1061:FreeRTOS/tasks.c **** 	/* Add the idle task at the lowest priority. */
1062:FreeRTOS/tasks.c **** 	#if ( INCLUDE_xTaskGetIdleTaskHandle == 1 )
1063:FreeRTOS/tasks.c **** 	{
1064:FreeRTOS/tasks.c **** 		/* Create the idle task, storing its handle in xIdleTaskHandle so it can
1065:FreeRTOS/tasks.c **** 		be returned by the xTaskGetIdleTaskHandle() function. */
1066:FreeRTOS/tasks.c **** 		xReturn = xTaskCreate( prvIdleTask, ( signed char * ) "IDLE", tskIDLE_STACK_SIZE, ( void * ) NULL
1067:FreeRTOS/tasks.c **** 	}
1068:FreeRTOS/tasks.c **** 	#else
1069:FreeRTOS/tasks.c **** 	{
1070:FreeRTOS/tasks.c **** 		/* Create the idle task without storing its handle. */
1071:FreeRTOS/tasks.c **** 		xReturn = xTaskCreate( prvIdleTask, ( signed char * ) "IDLE", tskIDLE_STACK_SIZE, ( void * ) NULL
 1375              		.loc 1 1071 0
 1376 0006 0023     		movs	r3, #0	@ tmp111,
 1377 0008 0093     		str	r3, [sp]	@ tmp111,
 1378 000a 0023     		movs	r3, #0	@ tmp112,
 1379 000c 0193     		str	r3, [sp, #4]	@ tmp112,
 1380 000e 0023     		movs	r3, #0	@ tmp113,
 1381 0010 0293     		str	r3, [sp, #8]	@ tmp113,
 1382 0012 0023     		movs	r3, #0	@ tmp114,
 1383 0014 0393     		str	r3, [sp, #12]	@ tmp114,
 1384 0016 0D48     		ldr	r0, .L86	@,
 1385 0018 0D49     		ldr	r1, .L86+4	@,
 1386 001a 4022     		movs	r2, #64	@,
 1387 001c 0023     		movs	r3, #0	@,
 1388 001e FFF7FEFF 		bl	xTaskGenericCreate	@
 1389 0022 7860     		str	r0, [r7, #4]	@, xReturn
1072:FreeRTOS/tasks.c **** 	}
1073:FreeRTOS/tasks.c **** 	#endif
1074:FreeRTOS/tasks.c **** 
1075:FreeRTOS/tasks.c **** 	#if ( configUSE_TIMERS == 1 )
1076:FreeRTOS/tasks.c **** 	{
1077:FreeRTOS/tasks.c **** 		if( xReturn == pdPASS )
1078:FreeRTOS/tasks.c **** 		{
1079:FreeRTOS/tasks.c **** 			xReturn = xTimerCreateTimerTask();
1080:FreeRTOS/tasks.c **** 		}
1081:FreeRTOS/tasks.c **** 	}
1082:FreeRTOS/tasks.c **** 	#endif
1083:FreeRTOS/tasks.c **** 
1084:FreeRTOS/tasks.c **** 	if( xReturn == pdPASS )
 1390              		.loc 1 1084 0
 1391 0024 7B68     		ldr	r3, [r7, #4]	@ tmp115, xReturn
 1392 0026 012B     		cmp	r3, #1	@ tmp115,
 1393 0028 0DD1     		bne	.L84	@,
1085:FreeRTOS/tasks.c **** 	{
1086:FreeRTOS/tasks.c **** 		/* Interrupts are turned off here, to ensure a tick does not occur
ARM GAS  C:\Users\Adrian\AppData\Local\Temp\ccgZ1piN.s 			page 45


1087:FreeRTOS/tasks.c **** 		before or during the call to xPortStartScheduler().  The stacks of
1088:FreeRTOS/tasks.c **** 		the created tasks contain a status word with interrupts switched on
1089:FreeRTOS/tasks.c **** 		so interrupts will automatically get re-enabled when the first task
1090:FreeRTOS/tasks.c **** 		starts to run.
1091:FreeRTOS/tasks.c **** 
1092:FreeRTOS/tasks.c **** 		STEPPING THROUGH HERE USING A DEBUGGER CAN CAUSE BIG PROBLEMS IF THE
1093:FreeRTOS/tasks.c **** 		DEBUGGER ALLOWS INTERRUPTS TO BE PROCESSED. */
1094:FreeRTOS/tasks.c **** 		portDISABLE_INTERRUPTS();
 1394              		.loc 1 1094 0
 1395              	@ 1094 "FreeRTOS/tasks.c" 1
 1396 002a 4FF05000 			mov r0, #80									@
 1397 002e 80F31188 		msr basepri, r0							
 1398              	
 1399              	@ 0 "" 2
1095:FreeRTOS/tasks.c **** 
1096:FreeRTOS/tasks.c **** 		xSchedulerRunning = pdTRUE;
 1400              		.loc 1 1096 0
 1401              		.thumb
 1402 0032 084B     		ldr	r3, .L86+8	@ tmp116,
 1403 0034 0122     		movs	r2, #1	@ tmp117,
 1404 0036 1A60     		str	r2, [r3]	@ tmp117, xSchedulerRunning
1097:FreeRTOS/tasks.c **** 		xTickCount = ( portTickType ) 0U;
 1405              		.loc 1 1097 0
 1406 0038 074B     		ldr	r3, .L86+12	@ tmp118,
 1407 003a 0022     		movs	r2, #0	@ tmp119,
 1408 003c 1A60     		str	r2, [r3]	@ tmp119, xTickCount
1098:FreeRTOS/tasks.c **** 
1099:FreeRTOS/tasks.c **** 		/* If configGENERATE_RUN_TIME_STATS is defined then the following
1100:FreeRTOS/tasks.c **** 		macro must be defined to configure the timer/counter used to generate
1101:FreeRTOS/tasks.c **** 		the run time counter time base. */
1102:FreeRTOS/tasks.c **** 		portCONFIGURE_TIMER_FOR_RUN_TIME_STATS();
 1409              		.loc 1 1102 0
 1410 003e FFF7FEFF 		bl	configureTimerForRuntimestats	@
1103:FreeRTOS/tasks.c **** 		
1104:FreeRTOS/tasks.c **** 		/* Setting up the timer tick is hardware specific and thus in the
1105:FreeRTOS/tasks.c **** 		portable interface. */
1106:FreeRTOS/tasks.c **** 		if( xPortStartScheduler() != pdFALSE )
 1411              		.loc 1 1106 0
 1412 0042 FFF7FEFF 		bl	xPortStartScheduler	@
 1413              	.L84:
1107:FreeRTOS/tasks.c **** 		{
1108:FreeRTOS/tasks.c **** 			/* Should not reach here as if the scheduler is running the
1109:FreeRTOS/tasks.c **** 			function will not return. */
1110:FreeRTOS/tasks.c **** 		}
1111:FreeRTOS/tasks.c **** 		else
1112:FreeRTOS/tasks.c **** 		{
1113:FreeRTOS/tasks.c **** 			/* Should only reach here if a task calls xTaskEndScheduler(). */
1114:FreeRTOS/tasks.c **** 		}
1115:FreeRTOS/tasks.c **** 	}
1116:FreeRTOS/tasks.c **** 
1117:FreeRTOS/tasks.c **** 	/* This line will only be reached if the kernel could not be started. */
1118:FreeRTOS/tasks.c **** 	configASSERT( xReturn );
1119:FreeRTOS/tasks.c **** }
 1414              		.loc 1 1119 0
 1415 0046 0837     		adds	r7, r7, #8	@,,
 1416 0048 BD46     		mov	sp, r7	@,
 1417              		@ sp needed	@
ARM GAS  C:\Users\Adrian\AppData\Local\Temp\ccgZ1piN.s 			page 46


 1418 004a 80BD     		pop	{r7, pc}	@
 1419              	.L87:
 1420              		.align	2
 1421              	.L86:
 1422 004c 00000000 		.word	prvIdleTask
 1423 0050 00000000 		.word	.LC0
 1424 0054 00000000 		.word	xSchedulerRunning
 1425 0058 00000000 		.word	xTickCount
 1426              		.cfi_endproc
 1427              	.LFE65:
 1428              		.size	vTaskStartScheduler, .-vTaskStartScheduler
 1429              		.section	.text.vTaskEndScheduler,"ax",%progbits
 1430              		.align	2
 1431              		.global	vTaskEndScheduler
 1432              		.thumb
 1433              		.thumb_func
 1434              		.type	vTaskEndScheduler, %function
 1435              	vTaskEndScheduler:
 1436              	.LFB66:
1120:FreeRTOS/tasks.c **** /*-----------------------------------------------------------*/
1121:FreeRTOS/tasks.c **** 
1122:FreeRTOS/tasks.c **** void vTaskEndScheduler( void )
1123:FreeRTOS/tasks.c **** {
 1437              		.loc 1 1123 0
 1438              		.cfi_startproc
 1439              		@ args = 0, pretend = 0, frame = 0
 1440              		@ frame_needed = 1, uses_anonymous_args = 0
 1441 0000 80B5     		push	{r7, lr}	@
 1442              		.cfi_def_cfa_offset 8
 1443              		.cfi_offset 7, -8
 1444              		.cfi_offset 14, -4
 1445 0002 00AF     		add	r7, sp, #0	@,,
 1446              		.cfi_def_cfa_register 7
1124:FreeRTOS/tasks.c **** 	/* Stop the scheduler interrupts and call the portable scheduler end
1125:FreeRTOS/tasks.c **** 	routine so the original ISRs can be restored if necessary.  The port
1126:FreeRTOS/tasks.c **** 	layer must ensure interrupts enable	bit is left in the correct state. */
1127:FreeRTOS/tasks.c **** 	portDISABLE_INTERRUPTS();
 1447              		.loc 1 1127 0
 1448              	@ 1127 "FreeRTOS/tasks.c" 1
 1449 0004 4FF05000 			mov r0, #80									@
 1450 0008 80F31188 		msr basepri, r0							
 1451              	
 1452              	@ 0 "" 2
1128:FreeRTOS/tasks.c **** 	xSchedulerRunning = pdFALSE;
 1453              		.loc 1 1128 0
 1454              		.thumb
 1455 000c 024B     		ldr	r3, .L89	@ tmp110,
 1456 000e 0022     		movs	r2, #0	@ tmp111,
 1457 0010 1A60     		str	r2, [r3]	@ tmp111, xSchedulerRunning
1129:FreeRTOS/tasks.c **** 	vPortEndScheduler();
 1458              		.loc 1 1129 0
 1459 0012 FFF7FEFF 		bl	vPortEndScheduler	@
1130:FreeRTOS/tasks.c **** }
 1460              		.loc 1 1130 0
 1461 0016 80BD     		pop	{r7, pc}	@
 1462              	.L90:
 1463              		.align	2
ARM GAS  C:\Users\Adrian\AppData\Local\Temp\ccgZ1piN.s 			page 47


 1464              	.L89:
 1465 0018 00000000 		.word	xSchedulerRunning
 1466              		.cfi_endproc
 1467              	.LFE66:
 1468              		.size	vTaskEndScheduler, .-vTaskEndScheduler
 1469              		.section	.text.vTaskSuspendAll,"ax",%progbits
 1470              		.align	2
 1471              		.global	vTaskSuspendAll
 1472              		.thumb
 1473              		.thumb_func
 1474              		.type	vTaskSuspendAll, %function
 1475              	vTaskSuspendAll:
 1476              	.LFB67:
1131:FreeRTOS/tasks.c **** /*----------------------------------------------------------*/
1132:FreeRTOS/tasks.c **** 
1133:FreeRTOS/tasks.c **** void vTaskSuspendAll( void )
1134:FreeRTOS/tasks.c **** {
 1477              		.loc 1 1134 0
 1478              		.cfi_startproc
 1479              		@ args = 0, pretend = 0, frame = 0
 1480              		@ frame_needed = 1, uses_anonymous_args = 0
 1481              		@ link register save eliminated.
 1482 0000 80B4     		push	{r7}	@
 1483              		.cfi_def_cfa_offset 4
 1484              		.cfi_offset 7, -4
 1485 0002 00AF     		add	r7, sp, #0	@,,
 1486              		.cfi_def_cfa_register 7
1135:FreeRTOS/tasks.c **** 	/* A critical section is not required as the variable is of type
1136:FreeRTOS/tasks.c **** 	portBASE_TYPE. */
1137:FreeRTOS/tasks.c **** 	++uxSchedulerSuspended;
 1487              		.loc 1 1137 0
 1488 0004 044B     		ldr	r3, .L92	@ tmp112,
 1489 0006 1B68     		ldr	r3, [r3]	@ uxSchedulerSuspended.46, uxSchedulerSuspended
 1490 0008 5A1C     		adds	r2, r3, #1	@ uxSchedulerSuspended.47, uxSchedulerSuspended.46,
 1491 000a 034B     		ldr	r3, .L92	@ tmp113,
 1492 000c 1A60     		str	r2, [r3]	@ uxSchedulerSuspended.47, uxSchedulerSuspended
1138:FreeRTOS/tasks.c **** }
 1493              		.loc 1 1138 0
 1494 000e BD46     		mov	sp, r7	@,
 1495              		@ sp needed	@
 1496 0010 5DF8047B 		ldr	r7, [sp], #4	@,
 1497 0014 7047     		bx	lr	@
 1498              	.L93:
 1499 0016 00BF     		.align	2
 1500              	.L92:
 1501 0018 00000000 		.word	uxSchedulerSuspended
 1502              		.cfi_endproc
 1503              	.LFE67:
 1504              		.size	vTaskSuspendAll, .-vTaskSuspendAll
 1505              		.section	.text.xTaskResumeAll,"ax",%progbits
 1506              		.align	2
 1507              		.global	xTaskResumeAll
 1508              		.thumb
 1509              		.thumb_func
 1510              		.type	xTaskResumeAll, %function
 1511              	xTaskResumeAll:
 1512              	.LFB68:
ARM GAS  C:\Users\Adrian\AppData\Local\Temp\ccgZ1piN.s 			page 48


1139:FreeRTOS/tasks.c **** /*----------------------------------------------------------*/
1140:FreeRTOS/tasks.c **** 
1141:FreeRTOS/tasks.c **** signed portBASE_TYPE xTaskResumeAll( void )
1142:FreeRTOS/tasks.c **** {
 1513              		.loc 1 1142 0
 1514              		.cfi_startproc
 1515              		@ args = 0, pretend = 0, frame = 8
 1516              		@ frame_needed = 1, uses_anonymous_args = 0
 1517 0000 90B5     		push	{r4, r7, lr}	@
 1518              		.cfi_def_cfa_offset 12
 1519              		.cfi_offset 4, -12
 1520              		.cfi_offset 7, -8
 1521              		.cfi_offset 14, -4
 1522 0002 83B0     		sub	sp, sp, #12	@,,
 1523              		.cfi_def_cfa_offset 24
 1524 0004 00AF     		add	r7, sp, #0	@,,
 1525              		.cfi_def_cfa_register 7
1143:FreeRTOS/tasks.c **** register tskTCB *pxTCB;
1144:FreeRTOS/tasks.c **** signed portBASE_TYPE xAlreadyYielded = pdFALSE;
 1526              		.loc 1 1144 0
 1527 0006 0023     		movs	r3, #0	@ tmp135,
 1528 0008 7B60     		str	r3, [r7, #4]	@ tmp135, xAlreadyYielded
1145:FreeRTOS/tasks.c **** 
1146:FreeRTOS/tasks.c **** 	/* If uxSchedulerSuspended is zero then this function does not match a
1147:FreeRTOS/tasks.c **** 	previous call to vTaskSuspendAll(). */
1148:FreeRTOS/tasks.c **** 	configASSERT( uxSchedulerSuspended );
1149:FreeRTOS/tasks.c **** 
1150:FreeRTOS/tasks.c **** 	/* It is possible that an ISR caused a task to be removed from an event
1151:FreeRTOS/tasks.c **** 	list while the scheduler was suspended.  If this was the case then the
1152:FreeRTOS/tasks.c **** 	removed task will have been added to the xPendingReadyList.  Once the
1153:FreeRTOS/tasks.c **** 	scheduler has been resumed it is safe to move all the pending ready
1154:FreeRTOS/tasks.c **** 	tasks from this list into their appropriate ready list. */
1155:FreeRTOS/tasks.c **** 	taskENTER_CRITICAL();
 1529              		.loc 1 1155 0
 1530 000a FFF7FEFF 		bl	vPortEnterCritical	@
1156:FreeRTOS/tasks.c **** 	{
1157:FreeRTOS/tasks.c **** 		--uxSchedulerSuspended;
 1531              		.loc 1 1157 0
 1532 000e 314B     		ldr	r3, .L104	@ tmp136,
 1533 0010 1B68     		ldr	r3, [r3]	@ uxSchedulerSuspended.48, uxSchedulerSuspended
 1534 0012 5A1E     		subs	r2, r3, #1	@ uxSchedulerSuspended.49, uxSchedulerSuspended.48,
 1535 0014 2F4B     		ldr	r3, .L104	@ tmp137,
 1536 0016 1A60     		str	r2, [r3]	@ uxSchedulerSuspended.49, uxSchedulerSuspended
1158:FreeRTOS/tasks.c **** 
1159:FreeRTOS/tasks.c **** 		if( uxSchedulerSuspended == ( unsigned portBASE_TYPE ) pdFALSE )
 1537              		.loc 1 1159 0
 1538 0018 2E4B     		ldr	r3, .L104	@ tmp138,
 1539 001a 1B68     		ldr	r3, [r3]	@ uxSchedulerSuspended.50, uxSchedulerSuspended
 1540 001c 002B     		cmp	r3, #0	@ uxSchedulerSuspended.50,
 1541 001e 52D1     		bne	.L95	@,
1160:FreeRTOS/tasks.c **** 		{
1161:FreeRTOS/tasks.c **** 			if( uxCurrentNumberOfTasks > ( unsigned portBASE_TYPE ) 0U )
 1542              		.loc 1 1161 0
 1543 0020 2D4B     		ldr	r3, .L104+4	@ tmp139,
 1544 0022 1B68     		ldr	r3, [r3]	@ uxCurrentNumberOfTasks.51, uxCurrentNumberOfTasks
 1545 0024 002B     		cmp	r3, #0	@ uxCurrentNumberOfTasks.51,
 1546 0026 4ED0     		beq	.L95	@,
ARM GAS  C:\Users\Adrian\AppData\Local\Temp\ccgZ1piN.s 			page 49


 1547              	.LBB3:
1162:FreeRTOS/tasks.c **** 			{
1163:FreeRTOS/tasks.c **** 				portBASE_TYPE xYieldRequired = pdFALSE;
 1548              		.loc 1 1163 0
 1549 0028 0023     		movs	r3, #0	@ tmp140,
 1550 002a 3B60     		str	r3, [r7]	@ tmp140, xYieldRequired
1164:FreeRTOS/tasks.c **** 
1165:FreeRTOS/tasks.c **** 				/* Move any readied tasks from the pending list into the
1166:FreeRTOS/tasks.c **** 				appropriate ready list. */
1167:FreeRTOS/tasks.c **** 				while( listLIST_IS_EMPTY( ( xList * ) &xPendingReadyList ) == pdFALSE )
 1551              		.loc 1 1167 0
 1552 002c 27E0     		b	.L96	@
 1553              	.L98:
1168:FreeRTOS/tasks.c **** 				{
1169:FreeRTOS/tasks.c **** 					pxTCB = ( tskTCB * ) listGET_OWNER_OF_HEAD_ENTRY(  ( ( xList * ) &xPendingReadyList ) );
 1554              		.loc 1 1169 0
 1555 002e 2B4B     		ldr	r3, .L104+8	@ tmp141,
 1556 0030 DB68     		ldr	r3, [r3, #12]	@ D.7018, xPendingReadyList.xListEnd.pxNext
 1557 0032 DC68     		ldr	r4, [r3, #12]	@ pxTCB, _11->pvOwner
1170:FreeRTOS/tasks.c **** 					vListRemove( &( pxTCB->xEventListItem ) );
 1558              		.loc 1 1170 0
 1559 0034 04F11803 		add	r3, r4, #24	@ D.7019, pxTCB,
 1560 0038 1846     		mov	r0, r3	@, D.7019
 1561 003a FFF7FEFF 		bl	vListRemove	@
1171:FreeRTOS/tasks.c **** 					vListRemove( &( pxTCB->xGenericListItem ) );
 1562              		.loc 1 1171 0
 1563 003e 231D     		adds	r3, r4, #4	@ D.7019, pxTCB,
 1564 0040 1846     		mov	r0, r3	@, D.7019
 1565 0042 FFF7FEFF 		bl	vListRemove	@
1172:FreeRTOS/tasks.c **** 					prvAddTaskToReadyQueue( pxTCB );
 1566              		.loc 1 1172 0
 1567 0046 E26A     		ldr	r2, [r4, #44]	@ D.7017, pxTCB_12->uxPriority
 1568 0048 254B     		ldr	r3, .L104+12	@ tmp142,
 1569 004a 1B68     		ldr	r3, [r3]	@ uxTopReadyPriority.52, uxTopReadyPriority
 1570 004c 9A42     		cmp	r2, r3	@ D.7017, uxTopReadyPriority.52
 1571 004e 02D9     		bls	.L97	@,
 1572              		.loc 1 1172 0 is_stmt 0 discriminator 1
 1573 0050 E26A     		ldr	r2, [r4, #44]	@ uxTopReadyPriority.53, pxTCB_12->uxPriority
 1574 0052 234B     		ldr	r3, .L104+12	@ tmp143,
 1575 0054 1A60     		str	r2, [r3]	@ uxTopReadyPriority.53, uxTopReadyPriority
 1576              	.L97:
 1577              		.loc 1 1172 0 discriminator 2
 1578 0056 E26A     		ldr	r2, [r4, #44]	@ D.7017, pxTCB_12->uxPriority
 1579 0058 1346     		mov	r3, r2	@ tmp144, D.7017
 1580 005a 9B00     		lsls	r3, r3, #2	@ tmp144, tmp144,
 1581 005c 1344     		add	r3, r3, r2	@ tmp144, D.7017
 1582 005e 9B00     		lsls	r3, r3, #2	@ tmp145, tmp144,
 1583 0060 204A     		ldr	r2, .L104+16	@ tmp146,
 1584 0062 1A44     		add	r2, r2, r3	@ D.7020, tmp144
 1585 0064 231D     		adds	r3, r4, #4	@ D.7019, pxTCB,
 1586 0066 1046     		mov	r0, r2	@, D.7020
 1587 0068 1946     		mov	r1, r3	@, D.7019
 1588 006a FFF7FEFF 		bl	vListInsertEnd	@
1173:FreeRTOS/tasks.c **** 
1174:FreeRTOS/tasks.c **** 					/* If we have moved a task that has a priority higher than
1175:FreeRTOS/tasks.c **** 					the current task then we should yield. */
1176:FreeRTOS/tasks.c **** 					if( pxTCB->uxPriority >= pxCurrentTCB->uxPriority )
ARM GAS  C:\Users\Adrian\AppData\Local\Temp\ccgZ1piN.s 			page 50


 1589              		.loc 1 1176 0 is_stmt 1 discriminator 2
 1590 006e E26A     		ldr	r2, [r4, #44]	@ D.7017, pxTCB_12->uxPriority
 1591 0070 1D4B     		ldr	r3, .L104+20	@ tmp147,
 1592 0072 1B68     		ldr	r3, [r3]	@ pxCurrentTCB.54, pxCurrentTCB
 1593 0074 DB6A     		ldr	r3, [r3, #44]	@ D.7017, pxCurrentTCB.54_22->uxPriority
 1594 0076 9A42     		cmp	r2, r3	@ D.7017, D.7017
 1595 0078 01D3     		bcc	.L96	@,
1177:FreeRTOS/tasks.c **** 					{
1178:FreeRTOS/tasks.c **** 						xYieldRequired = pdTRUE;
 1596              		.loc 1 1178 0
 1597 007a 0123     		movs	r3, #1	@ tmp148,
 1598 007c 3B60     		str	r3, [r7]	@ tmp148, xYieldRequired
 1599              	.L96:
1167:FreeRTOS/tasks.c **** 				while( listLIST_IS_EMPTY( ( xList * ) &xPendingReadyList ) == pdFALSE )
 1600              		.loc 1 1167 0 discriminator 1
 1601 007e 174B     		ldr	r3, .L104+8	@ tmp149,
 1602 0080 1B68     		ldr	r3, [r3]	@ D.7017, xPendingReadyList.uxNumberOfItems
 1603 0082 002B     		cmp	r3, #0	@ D.7017,
 1604 0084 D3D1     		bne	.L98	@,
1179:FreeRTOS/tasks.c **** 					}
1180:FreeRTOS/tasks.c **** 				}
1181:FreeRTOS/tasks.c **** 
1182:FreeRTOS/tasks.c **** 				/* If any ticks occurred while the scheduler was suspended then
1183:FreeRTOS/tasks.c **** 				they should be processed now.  This ensures the tick count does not
1184:FreeRTOS/tasks.c **** 				slip, and that any delayed tasks are resumed at the correct time. */
1185:FreeRTOS/tasks.c **** 				if( uxMissedTicks > ( unsigned portBASE_TYPE ) 0U )
 1605              		.loc 1 1185 0
 1606 0086 194B     		ldr	r3, .L104+24	@ tmp150,
 1607 0088 1B68     		ldr	r3, [r3]	@ uxMissedTicks.55, uxMissedTicks
 1608 008a 002B     		cmp	r3, #0	@ uxMissedTicks.55,
 1609 008c 0DD0     		beq	.L99	@,
1186:FreeRTOS/tasks.c **** 				{
1187:FreeRTOS/tasks.c **** 					while( uxMissedTicks > ( unsigned portBASE_TYPE ) 0U )
 1610              		.loc 1 1187 0
 1611 008e 06E0     		b	.L100	@
 1612              	.L101:
1188:FreeRTOS/tasks.c **** 					{
1189:FreeRTOS/tasks.c **** 						vTaskIncrementTick();
 1613              		.loc 1 1189 0
 1614 0090 FFF7FEFF 		bl	vTaskIncrementTick	@
1190:FreeRTOS/tasks.c **** 						--uxMissedTicks;
 1615              		.loc 1 1190 0
 1616 0094 154B     		ldr	r3, .L104+24	@ tmp151,
 1617 0096 1B68     		ldr	r3, [r3]	@ uxMissedTicks.56, uxMissedTicks
 1618 0098 5A1E     		subs	r2, r3, #1	@ uxMissedTicks.57, uxMissedTicks.56,
 1619 009a 144B     		ldr	r3, .L104+24	@ tmp152,
 1620 009c 1A60     		str	r2, [r3]	@ uxMissedTicks.57, uxMissedTicks
 1621              	.L100:
1187:FreeRTOS/tasks.c **** 					while( uxMissedTicks > ( unsigned portBASE_TYPE ) 0U )
 1622              		.loc 1 1187 0 discriminator 1
 1623 009e 134B     		ldr	r3, .L104+24	@ tmp153,
 1624 00a0 1B68     		ldr	r3, [r3]	@ uxMissedTicks.58, uxMissedTicks
 1625 00a2 002B     		cmp	r3, #0	@ uxMissedTicks.58,
 1626 00a4 F4D1     		bne	.L101	@,
1191:FreeRTOS/tasks.c **** 					}
1192:FreeRTOS/tasks.c **** 
1193:FreeRTOS/tasks.c **** 					/* As we have processed some ticks it is appropriate to yield
ARM GAS  C:\Users\Adrian\AppData\Local\Temp\ccgZ1piN.s 			page 51


1194:FreeRTOS/tasks.c **** 					to ensure the highest priority task that is ready to run is
1195:FreeRTOS/tasks.c **** 					the task actually running. */
1196:FreeRTOS/tasks.c **** 					#if configUSE_PREEMPTION == 1
1197:FreeRTOS/tasks.c **** 					{
1198:FreeRTOS/tasks.c **** 						xYieldRequired = pdTRUE;
 1627              		.loc 1 1198 0
 1628 00a6 0123     		movs	r3, #1	@ tmp154,
 1629 00a8 3B60     		str	r3, [r7]	@ tmp154, xYieldRequired
 1630              	.L99:
1199:FreeRTOS/tasks.c **** 					}
1200:FreeRTOS/tasks.c **** 					#endif
1201:FreeRTOS/tasks.c **** 				}
1202:FreeRTOS/tasks.c **** 
1203:FreeRTOS/tasks.c **** 				if( ( xYieldRequired == pdTRUE ) || ( xMissedYield == pdTRUE ) )
 1631              		.loc 1 1203 0
 1632 00aa 3B68     		ldr	r3, [r7]	@ tmp155, xYieldRequired
 1633 00ac 012B     		cmp	r3, #1	@ tmp155,
 1634 00ae 03D0     		beq	.L102	@,
 1635              		.loc 1 1203 0 is_stmt 0 discriminator 1
 1636 00b0 0F4B     		ldr	r3, .L104+28	@ tmp156,
 1637 00b2 1B68     		ldr	r3, [r3]	@ xMissedYield.59, xMissedYield
 1638 00b4 012B     		cmp	r3, #1	@ xMissedYield.59,
 1639 00b6 06D1     		bne	.L95	@,
 1640              	.L102:
1204:FreeRTOS/tasks.c **** 				{
1205:FreeRTOS/tasks.c **** 					xAlreadyYielded = pdTRUE;
 1641              		.loc 1 1205 0 is_stmt 1
 1642 00b8 0123     		movs	r3, #1	@ tmp157,
 1643 00ba 7B60     		str	r3, [r7, #4]	@ tmp157, xAlreadyYielded
1206:FreeRTOS/tasks.c **** 					xMissedYield = pdFALSE;
 1644              		.loc 1 1206 0
 1645 00bc 0C4B     		ldr	r3, .L104+28	@ tmp158,
 1646 00be 0022     		movs	r2, #0	@ tmp159,
 1647 00c0 1A60     		str	r2, [r3]	@ tmp159, xMissedYield
1207:FreeRTOS/tasks.c **** 					portYIELD_WITHIN_API();
 1648              		.loc 1 1207 0
 1649 00c2 FFF7FEFF 		bl	vPortYieldFromISR	@
 1650              	.L95:
 1651              	.LBE3:
1208:FreeRTOS/tasks.c **** 				}
1209:FreeRTOS/tasks.c **** 			}
1210:FreeRTOS/tasks.c **** 		}
1211:FreeRTOS/tasks.c **** 	}
1212:FreeRTOS/tasks.c **** 	taskEXIT_CRITICAL();
 1652              		.loc 1 1212 0
 1653 00c6 FFF7FEFF 		bl	vPortExitCritical	@
1213:FreeRTOS/tasks.c **** 
1214:FreeRTOS/tasks.c **** 	return xAlreadyYielded;
 1654              		.loc 1 1214 0
 1655 00ca 7B68     		ldr	r3, [r7, #4]	@ D.7021, xAlreadyYielded
1215:FreeRTOS/tasks.c **** }
 1656              		.loc 1 1215 0
 1657 00cc 1846     		mov	r0, r3	@, <retval>
 1658 00ce 0C37     		adds	r7, r7, #12	@,,
 1659 00d0 BD46     		mov	sp, r7	@,
 1660              		@ sp needed	@
 1661 00d2 90BD     		pop	{r4, r7, pc}	@
ARM GAS  C:\Users\Adrian\AppData\Local\Temp\ccgZ1piN.s 			page 52


 1662              	.L105:
 1663              		.align	2
 1664              	.L104:
 1665 00d4 00000000 		.word	uxSchedulerSuspended
 1666 00d8 00000000 		.word	uxCurrentNumberOfTasks
 1667 00dc 00000000 		.word	xPendingReadyList
 1668 00e0 00000000 		.word	uxTopReadyPriority
 1669 00e4 00000000 		.word	pxReadyTasksLists
 1670 00e8 00000000 		.word	pxCurrentTCB
 1671 00ec 00000000 		.word	uxMissedTicks
 1672 00f0 00000000 		.word	xMissedYield
 1673              		.cfi_endproc
 1674              	.LFE68:
 1675              		.size	xTaskResumeAll, .-xTaskResumeAll
 1676              		.section	.text.xTaskGetTickCount,"ax",%progbits
 1677              		.align	2
 1678              		.global	xTaskGetTickCount
 1679              		.thumb
 1680              		.thumb_func
 1681              		.type	xTaskGetTickCount, %function
 1682              	xTaskGetTickCount:
 1683              	.LFB69:
1216:FreeRTOS/tasks.c **** 
1217:FreeRTOS/tasks.c **** 
1218:FreeRTOS/tasks.c **** 
1219:FreeRTOS/tasks.c **** 
1220:FreeRTOS/tasks.c **** 
1221:FreeRTOS/tasks.c **** 
1222:FreeRTOS/tasks.c **** /*-----------------------------------------------------------
1223:FreeRTOS/tasks.c ****  * PUBLIC TASK UTILITIES documented in task.h
1224:FreeRTOS/tasks.c ****  *----------------------------------------------------------*/
1225:FreeRTOS/tasks.c **** 
1226:FreeRTOS/tasks.c **** 
1227:FreeRTOS/tasks.c **** 
1228:FreeRTOS/tasks.c **** portTickType xTaskGetTickCount( void )
1229:FreeRTOS/tasks.c **** {
 1684              		.loc 1 1229 0
 1685              		.cfi_startproc
 1686              		@ args = 0, pretend = 0, frame = 8
 1687              		@ frame_needed = 1, uses_anonymous_args = 0
 1688 0000 80B5     		push	{r7, lr}	@
 1689              		.cfi_def_cfa_offset 8
 1690              		.cfi_offset 7, -8
 1691              		.cfi_offset 14, -4
 1692 0002 82B0     		sub	sp, sp, #8	@,,
 1693              		.cfi_def_cfa_offset 16
 1694 0004 00AF     		add	r7, sp, #0	@,,
 1695              		.cfi_def_cfa_register 7
1230:FreeRTOS/tasks.c **** portTickType xTicks;
1231:FreeRTOS/tasks.c **** 
1232:FreeRTOS/tasks.c **** 	/* Critical section required if running on a 16 bit processor. */
1233:FreeRTOS/tasks.c **** 	taskENTER_CRITICAL();
 1696              		.loc 1 1233 0
 1697 0006 FFF7FEFF 		bl	vPortEnterCritical	@
1234:FreeRTOS/tasks.c **** 	{
1235:FreeRTOS/tasks.c **** 		xTicks = xTickCount;
 1698              		.loc 1 1235 0
ARM GAS  C:\Users\Adrian\AppData\Local\Temp\ccgZ1piN.s 			page 53


 1699 000a 054B     		ldr	r3, .L108	@ tmp112,
 1700 000c 1B68     		ldr	r3, [r3]	@ tmp113, xTickCount
 1701 000e 7B60     		str	r3, [r7, #4]	@ tmp113, xTicks
1236:FreeRTOS/tasks.c **** 	}
1237:FreeRTOS/tasks.c **** 	taskEXIT_CRITICAL();
 1702              		.loc 1 1237 0
 1703 0010 FFF7FEFF 		bl	vPortExitCritical	@
1238:FreeRTOS/tasks.c **** 
1239:FreeRTOS/tasks.c **** 	return xTicks;
 1704              		.loc 1 1239 0
 1705 0014 7B68     		ldr	r3, [r7, #4]	@ D.7022, xTicks
1240:FreeRTOS/tasks.c **** }
 1706              		.loc 1 1240 0
 1707 0016 1846     		mov	r0, r3	@, <retval>
 1708 0018 0837     		adds	r7, r7, #8	@,,
 1709 001a BD46     		mov	sp, r7	@,
 1710              		@ sp needed	@
 1711 001c 80BD     		pop	{r7, pc}	@
 1712              	.L109:
 1713 001e 00BF     		.align	2
 1714              	.L108:
 1715 0020 00000000 		.word	xTickCount
 1716              		.cfi_endproc
 1717              	.LFE69:
 1718              		.size	xTaskGetTickCount, .-xTaskGetTickCount
 1719              		.section	.text.xTaskGetTickCountFromISR,"ax",%progbits
 1720              		.align	2
 1721              		.global	xTaskGetTickCountFromISR
 1722              		.thumb
 1723              		.thumb_func
 1724              		.type	xTaskGetTickCountFromISR, %function
 1725              	xTaskGetTickCountFromISR:
 1726              	.LFB70:
1241:FreeRTOS/tasks.c **** /*-----------------------------------------------------------*/
1242:FreeRTOS/tasks.c **** 
1243:FreeRTOS/tasks.c **** portTickType xTaskGetTickCountFromISR( void )
1244:FreeRTOS/tasks.c **** {
 1727              		.loc 1 1244 0
 1728              		.cfi_startproc
 1729              		@ args = 0, pretend = 0, frame = 8
 1730              		@ frame_needed = 1, uses_anonymous_args = 0
 1731              		@ link register save eliminated.
 1732 0000 80B4     		push	{r7}	@
 1733              		.cfi_def_cfa_offset 4
 1734              		.cfi_offset 7, -4
 1735 0002 83B0     		sub	sp, sp, #12	@,,
 1736              		.cfi_def_cfa_offset 16
 1737 0004 00AF     		add	r7, sp, #0	@,,
 1738              		.cfi_def_cfa_register 7
1245:FreeRTOS/tasks.c **** portTickType xReturn;
1246:FreeRTOS/tasks.c **** unsigned portBASE_TYPE uxSavedInterruptStatus;
1247:FreeRTOS/tasks.c **** 
1248:FreeRTOS/tasks.c **** 	uxSavedInterruptStatus = portSET_INTERRUPT_MASK_FROM_ISR();
 1739              		.loc 1 1248 0
 1740 0006 0023     		movs	r3, #0	@ tmp112,
 1741 0008 7B60     		str	r3, [r7, #4]	@ tmp112, uxSavedInterruptStatus
 1742              	@ 1248 "FreeRTOS/tasks.c" 1
ARM GAS  C:\Users\Adrian\AppData\Local\Temp\ccgZ1piN.s 			page 54


 1743 000a 4FF05000 			mov r0, #80									@
 1744 000e 80F31188 		msr basepri, r0							
 1745              	
 1746              	@ 0 "" 2
1249:FreeRTOS/tasks.c **** 	xReturn = xTickCount;
 1747              		.loc 1 1249 0
 1748              		.thumb
 1749 0012 074B     		ldr	r3, .L112	@ tmp113,
 1750 0014 1B68     		ldr	r3, [r3]	@ tmp114, xTickCount
 1751 0016 3B60     		str	r3, [r7]	@ tmp114, xReturn
1250:FreeRTOS/tasks.c **** 	portCLEAR_INTERRUPT_MASK_FROM_ISR( uxSavedInterruptStatus );
 1752              		.loc 1 1250 0
 1753              	@ 1250 "FreeRTOS/tasks.c" 1
 1754 0018 4FF00000 			mov r0, #0					
 1755 001c 80F31188 		msr basepri, r0				
 1756              	
 1757              	@ 0 "" 2
1251:FreeRTOS/tasks.c **** 
1252:FreeRTOS/tasks.c **** 	return xReturn;
 1758              		.loc 1 1252 0
 1759              		.thumb
 1760 0020 3B68     		ldr	r3, [r7]	@ D.7023, xReturn
1253:FreeRTOS/tasks.c **** }
 1761              		.loc 1 1253 0
 1762 0022 1846     		mov	r0, r3	@, <retval>
 1763 0024 0C37     		adds	r7, r7, #12	@,,
 1764 0026 BD46     		mov	sp, r7	@,
 1765              		@ sp needed	@
 1766 0028 5DF8047B 		ldr	r7, [sp], #4	@,
 1767 002c 7047     		bx	lr	@
 1768              	.L113:
 1769 002e 00BF     		.align	2
 1770              	.L112:
 1771 0030 00000000 		.word	xTickCount
 1772              		.cfi_endproc
 1773              	.LFE70:
 1774              		.size	xTaskGetTickCountFromISR, .-xTaskGetTickCountFromISR
 1775              		.section	.text.uxTaskGetNumberOfTasks,"ax",%progbits
 1776              		.align	2
 1777              		.global	uxTaskGetNumberOfTasks
 1778              		.thumb
 1779              		.thumb_func
 1780              		.type	uxTaskGetNumberOfTasks, %function
 1781              	uxTaskGetNumberOfTasks:
 1782              	.LFB71:
1254:FreeRTOS/tasks.c **** /*-----------------------------------------------------------*/
1255:FreeRTOS/tasks.c **** 
1256:FreeRTOS/tasks.c **** unsigned portBASE_TYPE uxTaskGetNumberOfTasks( void )
1257:FreeRTOS/tasks.c **** {
 1783              		.loc 1 1257 0
 1784              		.cfi_startproc
 1785              		@ args = 0, pretend = 0, frame = 0
 1786              		@ frame_needed = 1, uses_anonymous_args = 0
 1787              		@ link register save eliminated.
 1788 0000 80B4     		push	{r7}	@
 1789              		.cfi_def_cfa_offset 4
 1790              		.cfi_offset 7, -4
ARM GAS  C:\Users\Adrian\AppData\Local\Temp\ccgZ1piN.s 			page 55


 1791 0002 00AF     		add	r7, sp, #0	@,,
 1792              		.cfi_def_cfa_register 7
1258:FreeRTOS/tasks.c **** 	/* A critical section is not required because the variables are of type
1259:FreeRTOS/tasks.c **** 	portBASE_TYPE. */
1260:FreeRTOS/tasks.c **** 	return uxCurrentNumberOfTasks;
 1793              		.loc 1 1260 0
 1794 0004 034B     		ldr	r3, .L116	@ tmp112,
 1795 0006 1B68     		ldr	r3, [r3]	@ D.7024, uxCurrentNumberOfTasks
1261:FreeRTOS/tasks.c **** }
 1796              		.loc 1 1261 0
 1797 0008 1846     		mov	r0, r3	@, <retval>
 1798 000a BD46     		mov	sp, r7	@,
 1799              		@ sp needed	@
 1800 000c 5DF8047B 		ldr	r7, [sp], #4	@,
 1801 0010 7047     		bx	lr	@
 1802              	.L117:
 1803 0012 00BF     		.align	2
 1804              	.L116:
 1805 0014 00000000 		.word	uxCurrentNumberOfTasks
 1806              		.cfi_endproc
 1807              	.LFE71:
 1808              		.size	uxTaskGetNumberOfTasks, .-uxTaskGetNumberOfTasks
 1809              		.section	.rodata
 1810 0005 000000   		.align	2
 1811              	.LC1:
 1812 0008 0D0A00   		.ascii	"\015\012\000"
 1813              		.section	.text.vTaskList,"ax",%progbits
 1814              		.align	2
 1815              		.global	vTaskList
 1816              		.thumb
 1817              		.thumb_func
 1818              		.type	vTaskList, %function
 1819              	vTaskList:
 1820              	.LFB72:
1262:FreeRTOS/tasks.c **** /*-----------------------------------------------------------*/
1263:FreeRTOS/tasks.c **** 
1264:FreeRTOS/tasks.c **** #if ( INCLUDE_pcTaskGetTaskName == 1 )
1265:FreeRTOS/tasks.c **** 
1266:FreeRTOS/tasks.c **** 	signed char *pcTaskGetTaskName( xTaskHandle xTaskToQuery )
1267:FreeRTOS/tasks.c **** 	{
1268:FreeRTOS/tasks.c **** 	tskTCB *pxTCB;
1269:FreeRTOS/tasks.c **** 
1270:FreeRTOS/tasks.c **** 		/* If null is passed in here then the name of the calling task is being queried. */
1271:FreeRTOS/tasks.c **** 		pxTCB = prvGetTCBFromHandle( xTaskToQuery );
1272:FreeRTOS/tasks.c **** 		configASSERT( pxTCB );
1273:FreeRTOS/tasks.c **** 		return &( pxTCB->pcTaskName[ 0 ] );
1274:FreeRTOS/tasks.c **** 	}
1275:FreeRTOS/tasks.c **** 
1276:FreeRTOS/tasks.c **** #endif
1277:FreeRTOS/tasks.c **** /*-----------------------------------------------------------*/
1278:FreeRTOS/tasks.c **** 
1279:FreeRTOS/tasks.c **** #if ( configUSE_TRACE_FACILITY == 1 )
1280:FreeRTOS/tasks.c **** 
1281:FreeRTOS/tasks.c **** 	void vTaskList( signed char *pcWriteBuffer )
1282:FreeRTOS/tasks.c **** 	{
 1821              		.loc 1 1282 0
 1822              		.cfi_startproc
ARM GAS  C:\Users\Adrian\AppData\Local\Temp\ccgZ1piN.s 			page 56


 1823              		@ args = 0, pretend = 0, frame = 16
 1824              		@ frame_needed = 1, uses_anonymous_args = 0
 1825 0000 90B5     		push	{r4, r7, lr}	@
 1826              		.cfi_def_cfa_offset 12
 1827              		.cfi_offset 4, -12
 1828              		.cfi_offset 7, -8
 1829              		.cfi_offset 14, -4
 1830 0002 85B0     		sub	sp, sp, #20	@,,
 1831              		.cfi_def_cfa_offset 32
 1832 0004 00AF     		add	r7, sp, #0	@,,
 1833              		.cfi_def_cfa_register 7
 1834 0006 7860     		str	r0, [r7, #4]	@ pcWriteBuffer, pcWriteBuffer
1283:FreeRTOS/tasks.c **** 	unsigned portBASE_TYPE uxQueue;
1284:FreeRTOS/tasks.c **** 
1285:FreeRTOS/tasks.c **** 		/* This is a VERY costly function that should be used for debug only.
1286:FreeRTOS/tasks.c **** 		It leaves interrupts disabled for a LONG time. */
1287:FreeRTOS/tasks.c **** 
1288:FreeRTOS/tasks.c **** 		vTaskSuspendAll();
 1835              		.loc 1 1288 0
 1836 0008 FFF7FEFF 		bl	vTaskSuspendAll	@
1289:FreeRTOS/tasks.c **** 		{
1290:FreeRTOS/tasks.c **** 			/* Run through all the lists that could potentially contain a TCB and
1291:FreeRTOS/tasks.c **** 			report the task name, state and stack high water mark. */
1292:FreeRTOS/tasks.c **** 
1293:FreeRTOS/tasks.c **** 			*pcWriteBuffer = ( signed char ) 0x00;
 1837              		.loc 1 1293 0
 1838 000c 7B68     		ldr	r3, [r7, #4]	@ tmp124, pcWriteBuffer
 1839 000e 0022     		movs	r2, #0	@ tmp125,
 1840 0010 1A70     		strb	r2, [r3]	@ tmp126, *pcWriteBuffer_2(D)
1294:FreeRTOS/tasks.c **** 			strcat( ( char * ) pcWriteBuffer, ( const char * ) "\r\n" );
 1841              		.loc 1 1294 0
 1842 0012 7C68     		ldr	r4, [r7, #4]	@ pcWriteBuffer.60, pcWriteBuffer
 1843 0014 2046     		mov	r0, r4	@, pcWriteBuffer.60
 1844 0016 FFF7FEFF 		bl	strlen	@
 1845 001a 0346     		mov	r3, r0	@ tmp127,
 1846 001c 2344     		add	r3, r3, r4	@ D.7026, pcWriteBuffer.60
 1847 001e 2A4A     		ldr	r2, .L125	@ tmp128,
 1848 0020 1188     		ldrh	r1, [r2]	@ unaligned	@ tmp131, MEM[(void *)"\r\n"]
 1849 0022 9278     		ldrb	r2, [r2, #2]	@ tmp132, MEM[(void *)"\r\n"]
 1850 0024 1980     		strh	r1, [r3]	@ unaligned	@ tmp131, MEM[(void *)_5]
 1851 0026 9A70     		strb	r2, [r3, #2]	@ tmp133, MEM[(void *)_5]
1295:FreeRTOS/tasks.c **** 
1296:FreeRTOS/tasks.c **** 			uxQueue = uxTopUsedPriority + ( unsigned portBASE_TYPE ) 1U;
 1852              		.loc 1 1296 0
 1853 0028 284B     		ldr	r3, .L125+4	@ tmp134,
 1854 002a 1B68     		ldr	r3, [r3]	@ uxTopUsedPriority.61, uxTopUsedPriority
 1855 002c 0133     		adds	r3, r3, #1	@ tmp135, uxTopUsedPriority.61,
 1856 002e FB60     		str	r3, [r7, #12]	@ tmp135, uxQueue
 1857              	.L120:
1297:FreeRTOS/tasks.c **** 
1298:FreeRTOS/tasks.c **** 			do
1299:FreeRTOS/tasks.c **** 			{
1300:FreeRTOS/tasks.c **** 				uxQueue--;
 1858              		.loc 1 1300 0
 1859 0030 FB68     		ldr	r3, [r7, #12]	@ tmp137, uxQueue
 1860 0032 013B     		subs	r3, r3, #1	@ tmp136, tmp137,
 1861 0034 FB60     		str	r3, [r7, #12]	@ tmp136, uxQueue
ARM GAS  C:\Users\Adrian\AppData\Local\Temp\ccgZ1piN.s 			page 57


1301:FreeRTOS/tasks.c **** 
1302:FreeRTOS/tasks.c **** 				if( listLIST_IS_EMPTY( &( pxReadyTasksLists[ uxQueue ] ) ) == pdFALSE )
 1862              		.loc 1 1302 0
 1863 0036 2649     		ldr	r1, .L125+8	@ tmp138,
 1864 0038 FA68     		ldr	r2, [r7, #12]	@ tmp139, uxQueue
 1865 003a 1346     		mov	r3, r2	@ tmp140, tmp139
 1866 003c 9B00     		lsls	r3, r3, #2	@ tmp140, tmp140,
 1867 003e 1344     		add	r3, r3, r2	@ tmp140, tmp139
 1868 0040 9B00     		lsls	r3, r3, #2	@ tmp141, tmp140,
 1869 0042 0B44     		add	r3, r3, r1	@ tmp142, tmp138
 1870 0044 1B68     		ldr	r3, [r3]	@ D.7027, pxReadyTasksLists[uxQueue_8].uxNumberOfItems
 1871 0046 002B     		cmp	r3, #0	@ D.7027,
 1872 0048 0BD0     		beq	.L119	@,
1303:FreeRTOS/tasks.c **** 				{
1304:FreeRTOS/tasks.c **** 					prvListTaskWithinSingleList( pcWriteBuffer, ( xList * ) &( pxReadyTasksLists[ uxQueue ] ), tsk
 1873              		.loc 1 1304 0
 1874 004a FA68     		ldr	r2, [r7, #12]	@ tmp143, uxQueue
 1875 004c 1346     		mov	r3, r2	@ tmp144, tmp143
 1876 004e 9B00     		lsls	r3, r3, #2	@ tmp144, tmp144,
 1877 0050 1344     		add	r3, r3, r2	@ tmp144, tmp143
 1878 0052 9B00     		lsls	r3, r3, #2	@ tmp145, tmp144,
 1879 0054 1E4A     		ldr	r2, .L125+8	@ tmp146,
 1880 0056 1344     		add	r3, r3, r2	@ D.7028, tmp146
 1881 0058 7868     		ldr	r0, [r7, #4]	@, pcWriteBuffer
 1882 005a 1946     		mov	r1, r3	@, D.7028
 1883 005c 5222     		movs	r2, #82	@,
 1884 005e FFF7FEFF 		bl	prvListTaskWithinSingleList	@
 1885              	.L119:
1305:FreeRTOS/tasks.c **** 				}
1306:FreeRTOS/tasks.c **** 			}while( uxQueue > ( unsigned short ) tskIDLE_PRIORITY );
 1886              		.loc 1 1306 0
 1887 0062 FB68     		ldr	r3, [r7, #12]	@ tmp147, uxQueue
 1888 0064 002B     		cmp	r3, #0	@ tmp147,
 1889 0066 E3D1     		bne	.L120	@,
1307:FreeRTOS/tasks.c **** 
1308:FreeRTOS/tasks.c **** 			if( listLIST_IS_EMPTY( pxDelayedTaskList ) == pdFALSE )
 1890              		.loc 1 1308 0
 1891 0068 1A4B     		ldr	r3, .L125+12	@ tmp148,
 1892 006a 1B68     		ldr	r3, [r3]	@ pxDelayedTaskList.62, pxDelayedTaskList
 1893 006c 1B68     		ldr	r3, [r3]	@ D.7027, pxDelayedTaskList.62_11->uxNumberOfItems
 1894 006e 002B     		cmp	r3, #0	@ D.7027,
 1895 0070 06D0     		beq	.L121	@,
1309:FreeRTOS/tasks.c **** 			{
1310:FreeRTOS/tasks.c **** 				prvListTaskWithinSingleList( pcWriteBuffer, ( xList * ) pxDelayedTaskList, tskBLOCKED_CHAR );
 1896              		.loc 1 1310 0
 1897 0072 184B     		ldr	r3, .L125+12	@ tmp149,
 1898 0074 1B68     		ldr	r3, [r3]	@ pxDelayedTaskList.63, pxDelayedTaskList
 1899 0076 7868     		ldr	r0, [r7, #4]	@, pcWriteBuffer
 1900 0078 1946     		mov	r1, r3	@, pxDelayedTaskList.63
 1901 007a 4222     		movs	r2, #66	@,
 1902 007c FFF7FEFF 		bl	prvListTaskWithinSingleList	@
 1903              	.L121:
1311:FreeRTOS/tasks.c **** 			}
1312:FreeRTOS/tasks.c **** 
1313:FreeRTOS/tasks.c **** 			if( listLIST_IS_EMPTY( pxOverflowDelayedTaskList ) == pdFALSE )
 1904              		.loc 1 1313 0
 1905 0080 154B     		ldr	r3, .L125+16	@ tmp150,
ARM GAS  C:\Users\Adrian\AppData\Local\Temp\ccgZ1piN.s 			page 58


 1906 0082 1B68     		ldr	r3, [r3]	@ pxOverflowDelayedTaskList.64, pxOverflowDelayedTaskList
 1907 0084 1B68     		ldr	r3, [r3]	@ D.7027, pxOverflowDelayedTaskList.64_14->uxNumberOfItems
 1908 0086 002B     		cmp	r3, #0	@ D.7027,
 1909 0088 06D0     		beq	.L122	@,
1314:FreeRTOS/tasks.c **** 			{
1315:FreeRTOS/tasks.c **** 				prvListTaskWithinSingleList( pcWriteBuffer, ( xList * ) pxOverflowDelayedTaskList, tskBLOCKED_C
 1910              		.loc 1 1315 0
 1911 008a 134B     		ldr	r3, .L125+16	@ tmp151,
 1912 008c 1B68     		ldr	r3, [r3]	@ pxOverflowDelayedTaskList.65, pxOverflowDelayedTaskList
 1913 008e 7868     		ldr	r0, [r7, #4]	@, pcWriteBuffer
 1914 0090 1946     		mov	r1, r3	@, pxOverflowDelayedTaskList.65
 1915 0092 4222     		movs	r2, #66	@,
 1916 0094 FFF7FEFF 		bl	prvListTaskWithinSingleList	@
 1917              	.L122:
1316:FreeRTOS/tasks.c **** 			}
1317:FreeRTOS/tasks.c **** 
1318:FreeRTOS/tasks.c **** 			#if( INCLUDE_vTaskDelete == 1 )
1319:FreeRTOS/tasks.c **** 			{
1320:FreeRTOS/tasks.c **** 				if( listLIST_IS_EMPTY( &xTasksWaitingTermination ) == pdFALSE )
 1918              		.loc 1 1320 0
 1919 0098 104B     		ldr	r3, .L125+20	@ tmp152,
 1920 009a 1B68     		ldr	r3, [r3]	@ D.7027, xTasksWaitingTermination.uxNumberOfItems
 1921 009c 002B     		cmp	r3, #0	@ D.7027,
 1922 009e 04D0     		beq	.L123	@,
1321:FreeRTOS/tasks.c **** 				{
1322:FreeRTOS/tasks.c **** 					prvListTaskWithinSingleList( pcWriteBuffer, &xTasksWaitingTermination, tskDELETED_CHAR );
 1923              		.loc 1 1322 0
 1924 00a0 7868     		ldr	r0, [r7, #4]	@, pcWriteBuffer
 1925 00a2 0E49     		ldr	r1, .L125+20	@,
 1926 00a4 4422     		movs	r2, #68	@,
 1927 00a6 FFF7FEFF 		bl	prvListTaskWithinSingleList	@
 1928              	.L123:
1323:FreeRTOS/tasks.c **** 				}
1324:FreeRTOS/tasks.c **** 			}
1325:FreeRTOS/tasks.c **** 			#endif
1326:FreeRTOS/tasks.c **** 
1327:FreeRTOS/tasks.c **** 			#if ( INCLUDE_vTaskSuspend == 1 )
1328:FreeRTOS/tasks.c **** 			{
1329:FreeRTOS/tasks.c **** 				if( listLIST_IS_EMPTY( &xSuspendedTaskList ) == pdFALSE )
 1929              		.loc 1 1329 0
 1930 00aa 0D4B     		ldr	r3, .L125+24	@ tmp153,
 1931 00ac 1B68     		ldr	r3, [r3]	@ D.7027, xSuspendedTaskList.uxNumberOfItems
 1932 00ae 002B     		cmp	r3, #0	@ D.7027,
 1933 00b0 04D0     		beq	.L124	@,
1330:FreeRTOS/tasks.c **** 				{
1331:FreeRTOS/tasks.c **** 					prvListTaskWithinSingleList( pcWriteBuffer, &xSuspendedTaskList, tskSUSPENDED_CHAR );
 1934              		.loc 1 1331 0
 1935 00b2 7868     		ldr	r0, [r7, #4]	@, pcWriteBuffer
 1936 00b4 0A49     		ldr	r1, .L125+24	@,
 1937 00b6 5322     		movs	r2, #83	@,
 1938 00b8 FFF7FEFF 		bl	prvListTaskWithinSingleList	@
 1939              	.L124:
1332:FreeRTOS/tasks.c **** 				}
1333:FreeRTOS/tasks.c **** 			}
1334:FreeRTOS/tasks.c **** 			#endif
1335:FreeRTOS/tasks.c **** 		}
1336:FreeRTOS/tasks.c **** 		xTaskResumeAll();
ARM GAS  C:\Users\Adrian\AppData\Local\Temp\ccgZ1piN.s 			page 59


 1940              		.loc 1 1336 0
 1941 00bc FFF7FEFF 		bl	xTaskResumeAll	@
1337:FreeRTOS/tasks.c **** 	}
 1942              		.loc 1 1337 0
 1943 00c0 1437     		adds	r7, r7, #20	@,,
 1944 00c2 BD46     		mov	sp, r7	@,
 1945              		@ sp needed	@
 1946 00c4 90BD     		pop	{r4, r7, pc}	@
 1947              	.L126:
 1948 00c6 00BF     		.align	2
 1949              	.L125:
 1950 00c8 08000000 		.word	.LC1
 1951 00cc 00000000 		.word	uxTopUsedPriority
 1952 00d0 00000000 		.word	pxReadyTasksLists
 1953 00d4 00000000 		.word	pxDelayedTaskList
 1954 00d8 00000000 		.word	pxOverflowDelayedTaskList
 1955 00dc 00000000 		.word	xTasksWaitingTermination
 1956 00e0 00000000 		.word	xSuspendedTaskList
 1957              		.cfi_endproc
 1958              	.LFE72:
 1959              		.size	vTaskList, .-vTaskList
 1960              		.section	.text.vTaskGetRunTimeStats,"ax",%progbits
 1961              		.align	2
 1962              		.global	vTaskGetRunTimeStats
 1963              		.thumb
 1964              		.thumb_func
 1965              		.type	vTaskGetRunTimeStats, %function
 1966              	vTaskGetRunTimeStats:
 1967              	.LFB73:
1338:FreeRTOS/tasks.c **** 
1339:FreeRTOS/tasks.c **** #endif
1340:FreeRTOS/tasks.c **** /*----------------------------------------------------------*/
1341:FreeRTOS/tasks.c **** 
1342:FreeRTOS/tasks.c **** #if ( configGENERATE_RUN_TIME_STATS == 1 )
1343:FreeRTOS/tasks.c **** 
1344:FreeRTOS/tasks.c **** 	void vTaskGetRunTimeStats( signed char *pcWriteBuffer )
1345:FreeRTOS/tasks.c **** 	{
 1968              		.loc 1 1345 0
 1969              		.cfi_startproc
 1970              		@ args = 0, pretend = 0, frame = 16
 1971              		@ frame_needed = 1, uses_anonymous_args = 0
 1972 0000 90B5     		push	{r4, r7, lr}	@
 1973              		.cfi_def_cfa_offset 12
 1974              		.cfi_offset 4, -12
 1975              		.cfi_offset 7, -8
 1976              		.cfi_offset 14, -4
 1977 0002 85B0     		sub	sp, sp, #20	@,,
 1978              		.cfi_def_cfa_offset 32
 1979 0004 00AF     		add	r7, sp, #0	@,,
 1980              		.cfi_def_cfa_register 7
 1981 0006 7860     		str	r0, [r7, #4]	@ pcWriteBuffer, pcWriteBuffer
1346:FreeRTOS/tasks.c **** 	unsigned portBASE_TYPE uxQueue;
1347:FreeRTOS/tasks.c **** 	unsigned long ulTotalRunTime;
1348:FreeRTOS/tasks.c **** 
1349:FreeRTOS/tasks.c **** 		/* This is a VERY costly function that should be used for debug only.
1350:FreeRTOS/tasks.c **** 		It leaves interrupts disabled for a LONG time. */
1351:FreeRTOS/tasks.c **** 
ARM GAS  C:\Users\Adrian\AppData\Local\Temp\ccgZ1piN.s 			page 60


1352:FreeRTOS/tasks.c **** 		vTaskSuspendAll();
 1982              		.loc 1 1352 0
 1983 0008 FFF7FEFF 		bl	vTaskSuspendAll	@
1353:FreeRTOS/tasks.c **** 		{
1354:FreeRTOS/tasks.c **** 			#ifdef portALT_GET_RUN_TIME_COUNTER_VALUE
1355:FreeRTOS/tasks.c **** 				portALT_GET_RUN_TIME_COUNTER_VALUE( ulTotalRunTime );
1356:FreeRTOS/tasks.c **** 			#else
1357:FreeRTOS/tasks.c **** 				ulTotalRunTime = portGET_RUN_TIME_COUNTER_VALUE();
 1984              		.loc 1 1357 0
 1985 000c 354B     		ldr	r3, .L134	@ tmp130,
 1986 000e 1B88     		ldrh	r3, [r3]	@ movhi	@ tmp131, tim6OverflowCount
 1987 0010 9BB2     		uxth	r3, r3	@ tim6OverflowCount.66, tmp131
 1988 0012 1B04     		lsls	r3, r3, #16	@ D.7030, D.7030,
 1989 0014 1A46     		mov	r2, r3	@ D.7031, D.7030
 1990 0016 344B     		ldr	r3, .L134+4	@ D.7032,
 1991 0018 5B6A     		ldr	r3, [r3, #36]	@ D.7031, _6->CNT
 1992 001a 1343     		orrs	r3, r3, r2	@, tmp132, D.7031, D.7031
 1993 001c BB60     		str	r3, [r7, #8]	@ tmp132, ulTotalRunTime
1358:FreeRTOS/tasks.c **** 			#endif
1359:FreeRTOS/tasks.c **** 
1360:FreeRTOS/tasks.c **** 			/* Divide ulTotalRunTime by 100 to make the percentage caluclations
1361:FreeRTOS/tasks.c **** 			simpler in the prvGenerateRunTimeStatsForTasksInList() function. */
1362:FreeRTOS/tasks.c **** 			ulTotalRunTime /= 100UL;
 1994              		.loc 1 1362 0
 1995 001e BA68     		ldr	r2, [r7, #8]	@ tmp134, ulTotalRunTime
 1996 0020 324B     		ldr	r3, .L134+8	@ tmp136,
 1997 0022 A3FB0213 		umull	r1, r3, r3, r2	@, tmp135, tmp136, tmp134
 1998 0026 5B09     		lsrs	r3, r3, #5	@ tmp133, tmp135,
 1999 0028 BB60     		str	r3, [r7, #8]	@ tmp133, ulTotalRunTime
1363:FreeRTOS/tasks.c **** 			
1364:FreeRTOS/tasks.c **** 			/* Run through all the lists that could potentially contain a TCB,
1365:FreeRTOS/tasks.c **** 			generating a table of run timer percentages in the provided
1366:FreeRTOS/tasks.c **** 			buffer. */
1367:FreeRTOS/tasks.c **** 
1368:FreeRTOS/tasks.c **** 			*pcWriteBuffer = ( signed char ) 0x00;
 2000              		.loc 1 1368 0
 2001 002a 7B68     		ldr	r3, [r7, #4]	@ tmp137, pcWriteBuffer
 2002 002c 0022     		movs	r2, #0	@ tmp138,
 2003 002e 1A70     		strb	r2, [r3]	@ tmp139, *pcWriteBuffer_10(D)
1369:FreeRTOS/tasks.c **** 			strcat( ( char * ) pcWriteBuffer, ( const char * ) "\r\n" );
 2004              		.loc 1 1369 0
 2005 0030 7C68     		ldr	r4, [r7, #4]	@ pcWriteBuffer.67, pcWriteBuffer
 2006 0032 2046     		mov	r0, r4	@, pcWriteBuffer.67
 2007 0034 FFF7FEFF 		bl	strlen	@
 2008 0038 0346     		mov	r3, r0	@ tmp140,
 2009 003a 2344     		add	r3, r3, r4	@ D.7034, pcWriteBuffer.67
 2010 003c 2C4A     		ldr	r2, .L134+12	@ tmp141,
 2011 003e 1188     		ldrh	r1, [r2]	@ unaligned	@ tmp144, MEM[(void *)"\r\n"]
 2012 0040 9278     		ldrb	r2, [r2, #2]	@ tmp145, MEM[(void *)"\r\n"]
 2013 0042 1980     		strh	r1, [r3]	@ unaligned	@ tmp144, MEM[(void *)_13]
 2014 0044 9A70     		strb	r2, [r3, #2]	@ tmp146, MEM[(void *)_13]
1370:FreeRTOS/tasks.c **** 
1371:FreeRTOS/tasks.c **** 			uxQueue = uxTopUsedPriority + ( unsigned portBASE_TYPE ) 1U;
 2015              		.loc 1 1371 0
 2016 0046 2B4B     		ldr	r3, .L134+16	@ tmp147,
 2017 0048 1B68     		ldr	r3, [r3]	@ uxTopUsedPriority.68, uxTopUsedPriority
 2018 004a 0133     		adds	r3, r3, #1	@ tmp148, uxTopUsedPriority.68,
ARM GAS  C:\Users\Adrian\AppData\Local\Temp\ccgZ1piN.s 			page 61


 2019 004c FB60     		str	r3, [r7, #12]	@ tmp148, uxQueue
 2020              	.L129:
1372:FreeRTOS/tasks.c **** 
1373:FreeRTOS/tasks.c **** 			do
1374:FreeRTOS/tasks.c **** 			{
1375:FreeRTOS/tasks.c **** 				uxQueue--;
 2021              		.loc 1 1375 0
 2022 004e FB68     		ldr	r3, [r7, #12]	@ tmp150, uxQueue
 2023 0050 013B     		subs	r3, r3, #1	@ tmp149, tmp150,
 2024 0052 FB60     		str	r3, [r7, #12]	@ tmp149, uxQueue
1376:FreeRTOS/tasks.c **** 
1377:FreeRTOS/tasks.c **** 				if( listLIST_IS_EMPTY( &( pxReadyTasksLists[ uxQueue ] ) ) == pdFALSE )
 2025              		.loc 1 1377 0
 2026 0054 2849     		ldr	r1, .L134+20	@ tmp151,
 2027 0056 FA68     		ldr	r2, [r7, #12]	@ tmp152, uxQueue
 2028 0058 1346     		mov	r3, r2	@ tmp153, tmp152
 2029 005a 9B00     		lsls	r3, r3, #2	@ tmp153, tmp153,
 2030 005c 1344     		add	r3, r3, r2	@ tmp153, tmp152
 2031 005e 9B00     		lsls	r3, r3, #2	@ tmp154, tmp153,
 2032 0060 0B44     		add	r3, r3, r1	@ tmp155, tmp151
 2033 0062 1B68     		ldr	r3, [r3]	@ D.7031, pxReadyTasksLists[uxQueue_16].uxNumberOfItems
 2034 0064 002B     		cmp	r3, #0	@ D.7031,
 2035 0066 0BD0     		beq	.L128	@,
1378:FreeRTOS/tasks.c **** 				{
1379:FreeRTOS/tasks.c **** 					prvGenerateRunTimeStatsForTasksInList( pcWriteBuffer, ( xList * ) &( pxReadyTasksLists[ uxQueu
 2036              		.loc 1 1379 0
 2037 0068 FA68     		ldr	r2, [r7, #12]	@ tmp156, uxQueue
 2038 006a 1346     		mov	r3, r2	@ tmp157, tmp156
 2039 006c 9B00     		lsls	r3, r3, #2	@ tmp157, tmp157,
 2040 006e 1344     		add	r3, r3, r2	@ tmp157, tmp156
 2041 0070 9B00     		lsls	r3, r3, #2	@ tmp158, tmp157,
 2042 0072 214A     		ldr	r2, .L134+20	@ tmp159,
 2043 0074 1344     		add	r3, r3, r2	@ D.7035, tmp159
 2044 0076 7868     		ldr	r0, [r7, #4]	@, pcWriteBuffer
 2045 0078 1946     		mov	r1, r3	@, D.7035
 2046 007a BA68     		ldr	r2, [r7, #8]	@, ulTotalRunTime
 2047 007c FFF7FEFF 		bl	prvGenerateRunTimeStatsForTasksInList	@
 2048              	.L128:
1380:FreeRTOS/tasks.c **** 				}
1381:FreeRTOS/tasks.c **** 			}while( uxQueue > ( unsigned short ) tskIDLE_PRIORITY );
 2049              		.loc 1 1381 0
 2050 0080 FB68     		ldr	r3, [r7, #12]	@ tmp160, uxQueue
 2051 0082 002B     		cmp	r3, #0	@ tmp160,
 2052 0084 E3D1     		bne	.L129	@,
1382:FreeRTOS/tasks.c **** 
1383:FreeRTOS/tasks.c **** 			if( listLIST_IS_EMPTY( pxDelayedTaskList ) == pdFALSE )
 2053              		.loc 1 1383 0
 2054 0086 1D4B     		ldr	r3, .L134+24	@ tmp161,
 2055 0088 1B68     		ldr	r3, [r3]	@ pxDelayedTaskList.69, pxDelayedTaskList
 2056 008a 1B68     		ldr	r3, [r3]	@ D.7031, pxDelayedTaskList.69_19->uxNumberOfItems
 2057 008c 002B     		cmp	r3, #0	@ D.7031,
 2058 008e 06D0     		beq	.L130	@,
1384:FreeRTOS/tasks.c **** 			{
1385:FreeRTOS/tasks.c **** 				prvGenerateRunTimeStatsForTasksInList( pcWriteBuffer, ( xList * ) pxDelayedTaskList, ulTotalRun
 2059              		.loc 1 1385 0
 2060 0090 1A4B     		ldr	r3, .L134+24	@ tmp162,
 2061 0092 1B68     		ldr	r3, [r3]	@ pxDelayedTaskList.70, pxDelayedTaskList
ARM GAS  C:\Users\Adrian\AppData\Local\Temp\ccgZ1piN.s 			page 62


 2062 0094 7868     		ldr	r0, [r7, #4]	@, pcWriteBuffer
 2063 0096 1946     		mov	r1, r3	@, pxDelayedTaskList.70
 2064 0098 BA68     		ldr	r2, [r7, #8]	@, ulTotalRunTime
 2065 009a FFF7FEFF 		bl	prvGenerateRunTimeStatsForTasksInList	@
 2066              	.L130:
1386:FreeRTOS/tasks.c **** 			}
1387:FreeRTOS/tasks.c **** 
1388:FreeRTOS/tasks.c **** 			if( listLIST_IS_EMPTY( pxOverflowDelayedTaskList ) == pdFALSE )
 2067              		.loc 1 1388 0
 2068 009e 184B     		ldr	r3, .L134+28	@ tmp163,
 2069 00a0 1B68     		ldr	r3, [r3]	@ pxOverflowDelayedTaskList.71, pxOverflowDelayedTaskList
 2070 00a2 1B68     		ldr	r3, [r3]	@ D.7031, pxOverflowDelayedTaskList.71_22->uxNumberOfItems
 2071 00a4 002B     		cmp	r3, #0	@ D.7031,
 2072 00a6 06D0     		beq	.L131	@,
1389:FreeRTOS/tasks.c **** 			{
1390:FreeRTOS/tasks.c **** 				prvGenerateRunTimeStatsForTasksInList( pcWriteBuffer, ( xList * ) pxOverflowDelayedTaskList, ul
 2073              		.loc 1 1390 0
 2074 00a8 154B     		ldr	r3, .L134+28	@ tmp164,
 2075 00aa 1B68     		ldr	r3, [r3]	@ pxOverflowDelayedTaskList.72, pxOverflowDelayedTaskList
 2076 00ac 7868     		ldr	r0, [r7, #4]	@, pcWriteBuffer
 2077 00ae 1946     		mov	r1, r3	@, pxOverflowDelayedTaskList.72
 2078 00b0 BA68     		ldr	r2, [r7, #8]	@, ulTotalRunTime
 2079 00b2 FFF7FEFF 		bl	prvGenerateRunTimeStatsForTasksInList	@
 2080              	.L131:
1391:FreeRTOS/tasks.c **** 			}
1392:FreeRTOS/tasks.c **** 
1393:FreeRTOS/tasks.c **** 			#if ( INCLUDE_vTaskDelete == 1 )
1394:FreeRTOS/tasks.c **** 			{
1395:FreeRTOS/tasks.c **** 				if( listLIST_IS_EMPTY( &xTasksWaitingTermination ) == pdFALSE )
 2081              		.loc 1 1395 0
 2082 00b6 134B     		ldr	r3, .L134+32	@ tmp165,
 2083 00b8 1B68     		ldr	r3, [r3]	@ D.7031, xTasksWaitingTermination.uxNumberOfItems
 2084 00ba 002B     		cmp	r3, #0	@ D.7031,
 2085 00bc 04D0     		beq	.L132	@,
1396:FreeRTOS/tasks.c **** 				{
1397:FreeRTOS/tasks.c **** 					prvGenerateRunTimeStatsForTasksInList( pcWriteBuffer, &xTasksWaitingTermination, ulTotalRunTim
 2086              		.loc 1 1397 0
 2087 00be 7868     		ldr	r0, [r7, #4]	@, pcWriteBuffer
 2088 00c0 1049     		ldr	r1, .L134+32	@,
 2089 00c2 BA68     		ldr	r2, [r7, #8]	@, ulTotalRunTime
 2090 00c4 FFF7FEFF 		bl	prvGenerateRunTimeStatsForTasksInList	@
 2091              	.L132:
1398:FreeRTOS/tasks.c **** 				}
1399:FreeRTOS/tasks.c **** 			}
1400:FreeRTOS/tasks.c **** 			#endif
1401:FreeRTOS/tasks.c **** 
1402:FreeRTOS/tasks.c **** 			#if ( INCLUDE_vTaskSuspend == 1 )
1403:FreeRTOS/tasks.c **** 			{
1404:FreeRTOS/tasks.c **** 				if( listLIST_IS_EMPTY( &xSuspendedTaskList ) == pdFALSE )
 2092              		.loc 1 1404 0
 2093 00c8 0F4B     		ldr	r3, .L134+36	@ tmp166,
 2094 00ca 1B68     		ldr	r3, [r3]	@ D.7031, xSuspendedTaskList.uxNumberOfItems
 2095 00cc 002B     		cmp	r3, #0	@ D.7031,
 2096 00ce 04D0     		beq	.L133	@,
1405:FreeRTOS/tasks.c **** 				{
1406:FreeRTOS/tasks.c **** 					prvGenerateRunTimeStatsForTasksInList( pcWriteBuffer, &xSuspendedTaskList, ulTotalRunTime );
 2097              		.loc 1 1406 0
ARM GAS  C:\Users\Adrian\AppData\Local\Temp\ccgZ1piN.s 			page 63


 2098 00d0 7868     		ldr	r0, [r7, #4]	@, pcWriteBuffer
 2099 00d2 0D49     		ldr	r1, .L134+36	@,
 2100 00d4 BA68     		ldr	r2, [r7, #8]	@, ulTotalRunTime
 2101 00d6 FFF7FEFF 		bl	prvGenerateRunTimeStatsForTasksInList	@
 2102              	.L133:
1407:FreeRTOS/tasks.c **** 				}
1408:FreeRTOS/tasks.c **** 			}
1409:FreeRTOS/tasks.c **** 			#endif
1410:FreeRTOS/tasks.c **** 		}
1411:FreeRTOS/tasks.c **** 		xTaskResumeAll();
 2103              		.loc 1 1411 0
 2104 00da FFF7FEFF 		bl	xTaskResumeAll	@
1412:FreeRTOS/tasks.c **** 	}
 2105              		.loc 1 1412 0
 2106 00de 1437     		adds	r7, r7, #20	@,,
 2107 00e0 BD46     		mov	sp, r7	@,
 2108              		@ sp needed	@
 2109 00e2 90BD     		pop	{r4, r7, pc}	@
 2110              	.L135:
 2111              		.align	2
 2112              	.L134:
 2113 00e4 00000000 		.word	tim6OverflowCount
 2114 00e8 00100040 		.word	1073745920
 2115 00ec 1F85EB51 		.word	1374389535
 2116 00f0 08000000 		.word	.LC1
 2117 00f4 00000000 		.word	uxTopUsedPriority
 2118 00f8 00000000 		.word	pxReadyTasksLists
 2119 00fc 00000000 		.word	pxDelayedTaskList
 2120 0100 00000000 		.word	pxOverflowDelayedTaskList
 2121 0104 00000000 		.word	xTasksWaitingTermination
 2122 0108 00000000 		.word	xSuspendedTaskList
 2123              		.cfi_endproc
 2124              	.LFE73:
 2125              		.size	vTaskGetRunTimeStats, .-vTaskGetRunTimeStats
 2126              		.section	.text.vTaskIncrementTick,"ax",%progbits
 2127              		.align	2
 2128              		.global	vTaskIncrementTick
 2129              		.thumb
 2130              		.thumb_func
 2131              		.type	vTaskIncrementTick, %function
 2132              	vTaskIncrementTick:
 2133              	.LFB74:
1413:FreeRTOS/tasks.c **** 
1414:FreeRTOS/tasks.c **** #endif
1415:FreeRTOS/tasks.c **** /*----------------------------------------------------------*/
1416:FreeRTOS/tasks.c **** 
1417:FreeRTOS/tasks.c **** #if ( INCLUDE_xTaskGetIdleTaskHandle == 1 )
1418:FreeRTOS/tasks.c **** 
1419:FreeRTOS/tasks.c **** 	xTaskHandle xTaskGetIdleTaskHandle( void )
1420:FreeRTOS/tasks.c **** 	{
1421:FreeRTOS/tasks.c **** 		/* If xTaskGetIdleTaskHandle() is called before the scheduler has been
1422:FreeRTOS/tasks.c **** 		started, then xIdleTaskHandle will be NULL. */
1423:FreeRTOS/tasks.c **** 		configASSERT( ( xIdleTaskHandle != NULL ) );
1424:FreeRTOS/tasks.c **** 		return xIdleTaskHandle;
1425:FreeRTOS/tasks.c **** 	}
1426:FreeRTOS/tasks.c **** 	
1427:FreeRTOS/tasks.c **** #endif
ARM GAS  C:\Users\Adrian\AppData\Local\Temp\ccgZ1piN.s 			page 64


1428:FreeRTOS/tasks.c **** 
1429:FreeRTOS/tasks.c **** /*-----------------------------------------------------------
1430:FreeRTOS/tasks.c ****  * SCHEDULER INTERNALS AVAILABLE FOR PORTING PURPOSES
1431:FreeRTOS/tasks.c ****  * documented in task.h
1432:FreeRTOS/tasks.c ****  *----------------------------------------------------------*/
1433:FreeRTOS/tasks.c **** 
1434:FreeRTOS/tasks.c **** void vTaskIncrementTick( void )
1435:FreeRTOS/tasks.c **** {
 2134              		.loc 1 1435 0
 2135              		.cfi_startproc
 2136              		@ args = 0, pretend = 0, frame = 16
 2137              		@ frame_needed = 1, uses_anonymous_args = 0
 2138 0000 80B5     		push	{r7, lr}	@
 2139              		.cfi_def_cfa_offset 8
 2140              		.cfi_offset 7, -8
 2141              		.cfi_offset 14, -4
 2142 0002 84B0     		sub	sp, sp, #16	@,,
 2143              		.cfi_def_cfa_offset 24
 2144 0004 00AF     		add	r7, sp, #0	@,,
 2145              		.cfi_def_cfa_register 7
1436:FreeRTOS/tasks.c **** tskTCB * pxTCB;
1437:FreeRTOS/tasks.c **** 
1438:FreeRTOS/tasks.c **** 	/* Called by the portable layer each time a tick interrupt occurs.
1439:FreeRTOS/tasks.c **** 	Increments the tick then checks to see if the new tick value will cause any
1440:FreeRTOS/tasks.c **** 	tasks to be unblocked. */
1441:FreeRTOS/tasks.c **** 	if( uxSchedulerSuspended == ( unsigned portBASE_TYPE ) pdFALSE )
 2146              		.loc 1 1441 0
 2147 0006 404B     		ldr	r3, .L147	@ tmp140,
 2148 0008 1B68     		ldr	r3, [r3]	@ uxSchedulerSuspended.73, uxSchedulerSuspended
 2149 000a 002B     		cmp	r3, #0	@ uxSchedulerSuspended.73,
 2150 000c 73D1     		bne	.L137	@,
1442:FreeRTOS/tasks.c **** 	{
1443:FreeRTOS/tasks.c **** 		++xTickCount;
 2151              		.loc 1 1443 0
 2152 000e 3F4B     		ldr	r3, .L147+4	@ tmp141,
 2153 0010 1B68     		ldr	r3, [r3]	@ xTickCount.74, xTickCount
 2154 0012 5A1C     		adds	r2, r3, #1	@ xTickCount.75, xTickCount.74,
 2155 0014 3D4B     		ldr	r3, .L147+4	@ tmp142,
 2156 0016 1A60     		str	r2, [r3]	@ xTickCount.75, xTickCount
1444:FreeRTOS/tasks.c **** 		if( xTickCount == ( portTickType ) 0U )
 2157              		.loc 1 1444 0
 2158 0018 3C4B     		ldr	r3, .L147+4	@ tmp143,
 2159 001a 1B68     		ldr	r3, [r3]	@ xTickCount.76, xTickCount
 2160 001c 002B     		cmp	r3, #0	@ xTickCount.76,
 2161 001e 21D1     		bne	.L138	@,
 2162              	.LBB4:
1445:FreeRTOS/tasks.c **** 		{
1446:FreeRTOS/tasks.c **** 			xList *pxTemp;
1447:FreeRTOS/tasks.c **** 
1448:FreeRTOS/tasks.c **** 			/* Tick count has overflowed so we need to swap the delay lists.
1449:FreeRTOS/tasks.c **** 			If there are any items in pxDelayedTaskList here then there is
1450:FreeRTOS/tasks.c **** 			an error! */
1451:FreeRTOS/tasks.c **** 			configASSERT( ( listLIST_IS_EMPTY( pxDelayedTaskList ) ) );
1452:FreeRTOS/tasks.c **** 			
1453:FreeRTOS/tasks.c **** 			pxTemp = pxDelayedTaskList;
 2163              		.loc 1 1453 0
 2164 0020 3B4B     		ldr	r3, .L147+8	@ tmp144,
ARM GAS  C:\Users\Adrian\AppData\Local\Temp\ccgZ1piN.s 			page 65


 2165 0022 1B68     		ldr	r3, [r3]	@ tmp145, pxDelayedTaskList
 2166 0024 FB60     		str	r3, [r7, #12]	@ tmp145, pxTemp
1454:FreeRTOS/tasks.c **** 			pxDelayedTaskList = pxOverflowDelayedTaskList;
 2167              		.loc 1 1454 0
 2168 0026 3B4B     		ldr	r3, .L147+12	@ tmp146,
 2169 0028 1A68     		ldr	r2, [r3]	@ pxOverflowDelayedTaskList.77, pxOverflowDelayedTaskList
 2170 002a 394B     		ldr	r3, .L147+8	@ tmp147,
 2171 002c 1A60     		str	r2, [r3]	@ pxOverflowDelayedTaskList.77, pxDelayedTaskList
1455:FreeRTOS/tasks.c **** 			pxOverflowDelayedTaskList = pxTemp;
 2172              		.loc 1 1455 0
 2173 002e 394B     		ldr	r3, .L147+12	@ tmp148,
 2174 0030 FA68     		ldr	r2, [r7, #12]	@ tmp149, pxTemp
 2175 0032 1A60     		str	r2, [r3]	@ tmp149, pxOverflowDelayedTaskList
1456:FreeRTOS/tasks.c **** 			xNumOfOverflows++;
 2176              		.loc 1 1456 0
 2177 0034 384B     		ldr	r3, .L147+16	@ tmp150,
 2178 0036 1B68     		ldr	r3, [r3]	@ xNumOfOverflows.78, xNumOfOverflows
 2179 0038 5A1C     		adds	r2, r3, #1	@ xNumOfOverflows.79, xNumOfOverflows.78,
 2180 003a 374B     		ldr	r3, .L147+16	@ tmp151,
 2181 003c 1A60     		str	r2, [r3]	@ xNumOfOverflows.79, xNumOfOverflows
1457:FreeRTOS/tasks.c **** 	
1458:FreeRTOS/tasks.c **** 			if( listLIST_IS_EMPTY( pxDelayedTaskList ) != pdFALSE )
 2182              		.loc 1 1458 0
 2183 003e 344B     		ldr	r3, .L147+8	@ tmp152,
 2184 0040 1B68     		ldr	r3, [r3]	@ pxDelayedTaskList.80, pxDelayedTaskList
 2185 0042 1B68     		ldr	r3, [r3]	@ D.7036, pxDelayedTaskList.80_9->uxNumberOfItems
 2186 0044 002B     		cmp	r3, #0	@ D.7036,
 2187 0046 04D1     		bne	.L139	@,
1459:FreeRTOS/tasks.c **** 			{
1460:FreeRTOS/tasks.c **** 				/* The new current delayed list is empty.  Set
1461:FreeRTOS/tasks.c **** 				xNextTaskUnblockTime to the maximum possible value so it is
1462:FreeRTOS/tasks.c **** 				extremely unlikely that the	
1463:FreeRTOS/tasks.c **** 				if( xTickCount >= xNextTaskUnblockTime ) test will pass until
1464:FreeRTOS/tasks.c **** 				there is an item in the delayed list. */
1465:FreeRTOS/tasks.c **** 				xNextTaskUnblockTime = portMAX_DELAY;
 2188              		.loc 1 1465 0
 2189 0048 344B     		ldr	r3, .L147+20	@ tmp153,
 2190 004a 4FF0FF32 		mov	r2, #-1	@ tmp154,
 2191 004e 1A60     		str	r2, [r3]	@ tmp154, xNextTaskUnblockTime
 2192 0050 08E0     		b	.L138	@
 2193              	.L139:
1466:FreeRTOS/tasks.c **** 			}
1467:FreeRTOS/tasks.c **** 			else
1468:FreeRTOS/tasks.c **** 			{
1469:FreeRTOS/tasks.c **** 				/* The new current delayed list is not empty, get the value of
1470:FreeRTOS/tasks.c **** 				the item at the head of the delayed list.  This is the time at
1471:FreeRTOS/tasks.c **** 				which the task at the head of the delayed list should be removed
1472:FreeRTOS/tasks.c **** 				from the Blocked state. */
1473:FreeRTOS/tasks.c **** 				pxTCB = ( tskTCB * ) listGET_OWNER_OF_HEAD_ENTRY( pxDelayedTaskList );
 2194              		.loc 1 1473 0
 2195 0052 2F4B     		ldr	r3, .L147+8	@ tmp155,
 2196 0054 1B68     		ldr	r3, [r3]	@ pxDelayedTaskList.81, pxDelayedTaskList
 2197 0056 DB68     		ldr	r3, [r3, #12]	@ D.7037, pxDelayedTaskList.81_11->xListEnd.pxNext
 2198 0058 DB68     		ldr	r3, [r3, #12]	@ tmp156, _12->pvOwner
 2199 005a BB60     		str	r3, [r7, #8]	@ tmp156, pxTCB
1474:FreeRTOS/tasks.c **** 				xNextTaskUnblockTime = listGET_LIST_ITEM_VALUE( &( pxTCB->xGenericListItem ) );
 2200              		.loc 1 1474 0
ARM GAS  C:\Users\Adrian\AppData\Local\Temp\ccgZ1piN.s 			page 66


 2201 005c BB68     		ldr	r3, [r7, #8]	@ tmp157, pxTCB
 2202 005e 5A68     		ldr	r2, [r3, #4]	@ xNextTaskUnblockTime.82, pxTCB_13->xGenericListItem.xItemValue
 2203 0060 2E4B     		ldr	r3, .L147+20	@ tmp158,
 2204 0062 1A60     		str	r2, [r3]	@ xNextTaskUnblockTime.82, xNextTaskUnblockTime
 2205              	.L138:
 2206              	.LBE4:
 2207              	.LBB5:
1475:FreeRTOS/tasks.c **** 			}
1476:FreeRTOS/tasks.c **** 		}
1477:FreeRTOS/tasks.c **** 
1478:FreeRTOS/tasks.c **** 		/* See if this tick has made a timeout expire. */
1479:FreeRTOS/tasks.c **** 		prvCheckDelayedTasks();
 2208              		.loc 1 1479 0
 2209 0064 294B     		ldr	r3, .L147+4	@ tmp159,
 2210 0066 1A68     		ldr	r2, [r3]	@ xTickCount.83, xTickCount
 2211 0068 2C4B     		ldr	r3, .L147+20	@ tmp160,
 2212 006a 1B68     		ldr	r3, [r3]	@ xNextTaskUnblockTime.84, xNextTaskUnblockTime
 2213 006c 9A42     		cmp	r2, r3	@ xTickCount.83, xNextTaskUnblockTime.84
 2214 006e 41D3     		bcc	.L140	@,
 2215              	.L145:
 2216              		.loc 1 1479 0 is_stmt 0 discriminator 1
 2217 0070 274B     		ldr	r3, .L147+8	@ tmp161,
 2218 0072 1B68     		ldr	r3, [r3]	@ pxDelayedTaskList.85, pxDelayedTaskList
 2219 0074 1B68     		ldr	r3, [r3]	@ D.7036, pxDelayedTaskList.85_17->uxNumberOfItems
 2220 0076 002B     		cmp	r3, #0	@ D.7036,
 2221 0078 04D1     		bne	.L141	@,
 2222 007a 284B     		ldr	r3, .L147+20	@ tmp162,
 2223 007c 4FF0FF32 		mov	r2, #-1	@ tmp163,
 2224 0080 1A60     		str	r2, [r3]	@ tmp163, xNextTaskUnblockTime
 2225 0082 37E0     		b	.L140	@
 2226              	.L141:
 2227              		.loc 1 1479 0 discriminator 2
 2228 0084 224B     		ldr	r3, .L147+8	@ tmp164,
 2229 0086 1B68     		ldr	r3, [r3]	@ pxDelayedTaskList.86, pxDelayedTaskList
 2230 0088 DB68     		ldr	r3, [r3, #12]	@ D.7037, pxDelayedTaskList.86_19->xListEnd.pxNext
 2231 008a DB68     		ldr	r3, [r3, #12]	@ tmp165, _20->pvOwner
 2232 008c BB60     		str	r3, [r7, #8]	@ tmp165, pxTCB
 2233 008e BB68     		ldr	r3, [r7, #8]	@ tmp166, pxTCB
 2234 0090 5B68     		ldr	r3, [r3, #4]	@ tmp167, pxTCB_21->xGenericListItem.xItemValue
 2235 0092 7B60     		str	r3, [r7, #4]	@ tmp167, xItemValue
 2236 0094 1D4B     		ldr	r3, .L147+4	@ tmp168,
 2237 0096 1A68     		ldr	r2, [r3]	@ xTickCount.87, xTickCount
 2238 0098 7B68     		ldr	r3, [r7, #4]	@ tmp169, xItemValue
 2239 009a 9A42     		cmp	r2, r3	@ xTickCount.87, tmp169
 2240 009c 03D2     		bcs	.L142	@,
 2241              		.loc 1 1479 0 discriminator 1
 2242 009e 1F4B     		ldr	r3, .L147+20	@ tmp170,
 2243 00a0 7A68     		ldr	r2, [r7, #4]	@ tmp171, xItemValue
 2244 00a2 1A60     		str	r2, [r3]	@ tmp171, xNextTaskUnblockTime
 2245 00a4 26E0     		b	.L140	@
 2246              	.L142:
 2247              		.loc 1 1479 0 discriminator 2
 2248 00a6 BB68     		ldr	r3, [r7, #8]	@ tmp172, pxTCB
 2249 00a8 0433     		adds	r3, r3, #4	@ D.7038, tmp172,
 2250 00aa 1846     		mov	r0, r3	@, D.7038
 2251 00ac FFF7FEFF 		bl	vListRemove	@
 2252 00b0 BB68     		ldr	r3, [r7, #8]	@ tmp173, pxTCB
ARM GAS  C:\Users\Adrian\AppData\Local\Temp\ccgZ1piN.s 			page 67


 2253 00b2 9B6A     		ldr	r3, [r3, #40]	@ D.7039, pxTCB_21->xEventListItem.pvContainer
 2254 00b4 002B     		cmp	r3, #0	@ D.7039,
 2255 00b6 04D0     		beq	.L143	@,
 2256              		.loc 1 1479 0 discriminator 1
 2257 00b8 BB68     		ldr	r3, [r7, #8]	@ tmp174, pxTCB
 2258 00ba 1833     		adds	r3, r3, #24	@ D.7038, tmp174,
 2259 00bc 1846     		mov	r0, r3	@, D.7038
 2260 00be FFF7FEFF 		bl	vListRemove	@
 2261              	.L143:
 2262              		.loc 1 1479 0 discriminator 2
 2263 00c2 BB68     		ldr	r3, [r7, #8]	@ tmp175, pxTCB
 2264 00c4 DA6A     		ldr	r2, [r3, #44]	@ D.7036, pxTCB_21->uxPriority
 2265 00c6 164B     		ldr	r3, .L147+24	@ tmp176,
 2266 00c8 1B68     		ldr	r3, [r3]	@ uxTopReadyPriority.88, uxTopReadyPriority
 2267 00ca 9A42     		cmp	r2, r3	@ D.7036, uxTopReadyPriority.88
 2268 00cc 03D9     		bls	.L144	@,
 2269              		.loc 1 1479 0 discriminator 1
 2270 00ce BB68     		ldr	r3, [r7, #8]	@ tmp177, pxTCB
 2271 00d0 DA6A     		ldr	r2, [r3, #44]	@ uxTopReadyPriority.89, pxTCB_21->uxPriority
 2272 00d2 134B     		ldr	r3, .L147+24	@ tmp178,
 2273 00d4 1A60     		str	r2, [r3]	@ uxTopReadyPriority.89, uxTopReadyPriority
 2274              	.L144:
 2275              		.loc 1 1479 0 discriminator 2
 2276 00d6 BB68     		ldr	r3, [r7, #8]	@ tmp179, pxTCB
 2277 00d8 DA6A     		ldr	r2, [r3, #44]	@ D.7036, pxTCB_21->uxPriority
 2278 00da 1346     		mov	r3, r2	@ tmp180, D.7036
 2279 00dc 9B00     		lsls	r3, r3, #2	@ tmp180, tmp180,
 2280 00de 1344     		add	r3, r3, r2	@ tmp180, D.7036
 2281 00e0 9B00     		lsls	r3, r3, #2	@ tmp181, tmp180,
 2282 00e2 104A     		ldr	r2, .L147+28	@ tmp182,
 2283 00e4 1A44     		add	r2, r2, r3	@ D.7040, tmp180
 2284 00e6 BB68     		ldr	r3, [r7, #8]	@ tmp183, pxTCB
 2285 00e8 0433     		adds	r3, r3, #4	@ D.7038, tmp183,
 2286 00ea 1046     		mov	r0, r2	@, D.7040
 2287 00ec 1946     		mov	r1, r3	@, D.7038
 2288 00ee FFF7FEFF 		bl	vListInsertEnd	@
 2289 00f2 BDE7     		b	.L145	@
 2290              	.L140:
 2291              	.LBE5:
 2292 00f4 04E0     		b	.L136	@
 2293              	.L137:
1480:FreeRTOS/tasks.c **** 	}
1481:FreeRTOS/tasks.c **** 	else
1482:FreeRTOS/tasks.c **** 	{
1483:FreeRTOS/tasks.c **** 		++uxMissedTicks;
 2294              		.loc 1 1483 0 is_stmt 1
 2295 00f6 0C4B     		ldr	r3, .L147+32	@ tmp184,
 2296 00f8 1B68     		ldr	r3, [r3]	@ uxMissedTicks.90, uxMissedTicks
 2297 00fa 5A1C     		adds	r2, r3, #1	@ uxMissedTicks.91, uxMissedTicks.90,
 2298 00fc 0A4B     		ldr	r3, .L147+32	@ tmp185,
 2299 00fe 1A60     		str	r2, [r3]	@ uxMissedTicks.91, uxMissedTicks
 2300              	.L136:
1484:FreeRTOS/tasks.c **** 
1485:FreeRTOS/tasks.c **** 		/* The tick hook gets called at regular intervals, even if the
1486:FreeRTOS/tasks.c **** 		scheduler is locked. */
1487:FreeRTOS/tasks.c **** 		#if ( configUSE_TICK_HOOK == 1 )
1488:FreeRTOS/tasks.c **** 		{
ARM GAS  C:\Users\Adrian\AppData\Local\Temp\ccgZ1piN.s 			page 68


1489:FreeRTOS/tasks.c **** 			vApplicationTickHook();
1490:FreeRTOS/tasks.c **** 		}
1491:FreeRTOS/tasks.c **** 		#endif
1492:FreeRTOS/tasks.c **** 	}
1493:FreeRTOS/tasks.c **** 
1494:FreeRTOS/tasks.c **** 	#if ( configUSE_TICK_HOOK == 1 )
1495:FreeRTOS/tasks.c **** 	{
1496:FreeRTOS/tasks.c **** 		/* Guard against the tick hook being called when the missed tick
1497:FreeRTOS/tasks.c **** 		count is being unwound (when the scheduler is being unlocked. */
1498:FreeRTOS/tasks.c **** 		if( uxMissedTicks == ( unsigned portBASE_TYPE ) 0U )
1499:FreeRTOS/tasks.c **** 		{
1500:FreeRTOS/tasks.c **** 			vApplicationTickHook();
1501:FreeRTOS/tasks.c **** 		}
1502:FreeRTOS/tasks.c **** 	}
1503:FreeRTOS/tasks.c **** 	#endif
1504:FreeRTOS/tasks.c **** 
1505:FreeRTOS/tasks.c **** 	traceTASK_INCREMENT_TICK( xTickCount );
1506:FreeRTOS/tasks.c **** }
 2301              		.loc 1 1506 0
 2302 0100 1037     		adds	r7, r7, #16	@,,
 2303 0102 BD46     		mov	sp, r7	@,
 2304              		@ sp needed	@
 2305 0104 80BD     		pop	{r7, pc}	@
 2306              	.L148:
 2307 0106 00BF     		.align	2
 2308              	.L147:
 2309 0108 00000000 		.word	uxSchedulerSuspended
 2310 010c 00000000 		.word	xTickCount
 2311 0110 00000000 		.word	pxDelayedTaskList
 2312 0114 00000000 		.word	pxOverflowDelayedTaskList
 2313 0118 00000000 		.word	xNumOfOverflows
 2314 011c 00000000 		.word	xNextTaskUnblockTime
 2315 0120 00000000 		.word	uxTopReadyPriority
 2316 0124 00000000 		.word	pxReadyTasksLists
 2317 0128 00000000 		.word	uxMissedTicks
 2318              		.cfi_endproc
 2319              	.LFE74:
 2320              		.size	vTaskIncrementTick, .-vTaskIncrementTick
 2321              		.section	.text.vTaskSwitchContext,"ax",%progbits
 2322              		.align	2
 2323              		.global	vTaskSwitchContext
 2324              		.thumb
 2325              		.thumb_func
 2326              		.type	vTaskSwitchContext, %function
 2327              	vTaskSwitchContext:
 2328              	.LFB75:
1507:FreeRTOS/tasks.c **** /*-----------------------------------------------------------*/
1508:FreeRTOS/tasks.c **** 
1509:FreeRTOS/tasks.c **** #if ( configUSE_APPLICATION_TASK_TAG == 1 )
1510:FreeRTOS/tasks.c **** 
1511:FreeRTOS/tasks.c **** 	void vTaskSetApplicationTaskTag( xTaskHandle xTask, pdTASK_HOOK_CODE pxHookFunction )
1512:FreeRTOS/tasks.c **** 	{
1513:FreeRTOS/tasks.c **** 	tskTCB *xTCB;
1514:FreeRTOS/tasks.c **** 
1515:FreeRTOS/tasks.c **** 		/* If xTask is NULL then we are setting our own task hook. */
1516:FreeRTOS/tasks.c **** 		if( xTask == NULL )
1517:FreeRTOS/tasks.c **** 		{
ARM GAS  C:\Users\Adrian\AppData\Local\Temp\ccgZ1piN.s 			page 69


1518:FreeRTOS/tasks.c **** 			xTCB = ( tskTCB * ) pxCurrentTCB;
1519:FreeRTOS/tasks.c **** 		}
1520:FreeRTOS/tasks.c **** 		else
1521:FreeRTOS/tasks.c **** 		{
1522:FreeRTOS/tasks.c **** 			xTCB = ( tskTCB * ) xTask;
1523:FreeRTOS/tasks.c **** 		}
1524:FreeRTOS/tasks.c **** 
1525:FreeRTOS/tasks.c **** 		/* Save the hook function in the TCB.  A critical section is required as
1526:FreeRTOS/tasks.c **** 		the value can be accessed from an interrupt. */
1527:FreeRTOS/tasks.c **** 		taskENTER_CRITICAL();
1528:FreeRTOS/tasks.c **** 			xTCB->pxTaskTag = pxHookFunction;
1529:FreeRTOS/tasks.c **** 		taskEXIT_CRITICAL();
1530:FreeRTOS/tasks.c **** 	}
1531:FreeRTOS/tasks.c **** 
1532:FreeRTOS/tasks.c **** #endif
1533:FreeRTOS/tasks.c **** /*-----------------------------------------------------------*/
1534:FreeRTOS/tasks.c **** 
1535:FreeRTOS/tasks.c **** #if ( configUSE_APPLICATION_TASK_TAG == 1 )
1536:FreeRTOS/tasks.c **** 
1537:FreeRTOS/tasks.c **** 	pdTASK_HOOK_CODE xTaskGetApplicationTaskTag( xTaskHandle xTask )
1538:FreeRTOS/tasks.c **** 	{
1539:FreeRTOS/tasks.c **** 	tskTCB *xTCB;
1540:FreeRTOS/tasks.c **** 	pdTASK_HOOK_CODE xReturn;
1541:FreeRTOS/tasks.c **** 
1542:FreeRTOS/tasks.c **** 		/* If xTask is NULL then we are setting our own task hook. */
1543:FreeRTOS/tasks.c **** 		if( xTask == NULL )
1544:FreeRTOS/tasks.c **** 		{
1545:FreeRTOS/tasks.c **** 			xTCB = ( tskTCB * ) pxCurrentTCB;
1546:FreeRTOS/tasks.c **** 		}
1547:FreeRTOS/tasks.c **** 		else
1548:FreeRTOS/tasks.c **** 		{
1549:FreeRTOS/tasks.c **** 			xTCB = ( tskTCB * ) xTask;
1550:FreeRTOS/tasks.c **** 		}
1551:FreeRTOS/tasks.c **** 
1552:FreeRTOS/tasks.c **** 		/* Save the hook function in the TCB.  A critical section is required as
1553:FreeRTOS/tasks.c **** 		the value can be accessed from an interrupt. */
1554:FreeRTOS/tasks.c **** 		taskENTER_CRITICAL();
1555:FreeRTOS/tasks.c **** 			xReturn = xTCB->pxTaskTag;
1556:FreeRTOS/tasks.c **** 		taskEXIT_CRITICAL();
1557:FreeRTOS/tasks.c **** 
1558:FreeRTOS/tasks.c **** 		return xReturn;
1559:FreeRTOS/tasks.c **** 	}
1560:FreeRTOS/tasks.c **** 
1561:FreeRTOS/tasks.c **** #endif
1562:FreeRTOS/tasks.c **** /*-----------------------------------------------------------*/
1563:FreeRTOS/tasks.c **** 
1564:FreeRTOS/tasks.c **** #if ( configUSE_APPLICATION_TASK_TAG == 1 )
1565:FreeRTOS/tasks.c **** 
1566:FreeRTOS/tasks.c **** 	portBASE_TYPE xTaskCallApplicationTaskHook( xTaskHandle xTask, void *pvParameter )
1567:FreeRTOS/tasks.c **** 	{
1568:FreeRTOS/tasks.c **** 	tskTCB *xTCB;
1569:FreeRTOS/tasks.c **** 	portBASE_TYPE xReturn;
1570:FreeRTOS/tasks.c **** 
1571:FreeRTOS/tasks.c **** 		/* If xTask is NULL then we are calling our own task hook. */
1572:FreeRTOS/tasks.c **** 		if( xTask == NULL )
1573:FreeRTOS/tasks.c **** 		{
1574:FreeRTOS/tasks.c **** 			xTCB = ( tskTCB * ) pxCurrentTCB;
ARM GAS  C:\Users\Adrian\AppData\Local\Temp\ccgZ1piN.s 			page 70


1575:FreeRTOS/tasks.c **** 		}
1576:FreeRTOS/tasks.c **** 		else
1577:FreeRTOS/tasks.c **** 		{
1578:FreeRTOS/tasks.c **** 			xTCB = ( tskTCB * ) xTask;
1579:FreeRTOS/tasks.c **** 		}
1580:FreeRTOS/tasks.c **** 
1581:FreeRTOS/tasks.c **** 		if( xTCB->pxTaskTag != NULL )
1582:FreeRTOS/tasks.c **** 		{
1583:FreeRTOS/tasks.c **** 			xReturn = xTCB->pxTaskTag( pvParameter );
1584:FreeRTOS/tasks.c **** 		}
1585:FreeRTOS/tasks.c **** 		else
1586:FreeRTOS/tasks.c **** 		{
1587:FreeRTOS/tasks.c **** 			xReturn = pdFAIL;
1588:FreeRTOS/tasks.c **** 		}
1589:FreeRTOS/tasks.c **** 
1590:FreeRTOS/tasks.c **** 		return xReturn;
1591:FreeRTOS/tasks.c **** 	}
1592:FreeRTOS/tasks.c **** 
1593:FreeRTOS/tasks.c **** #endif
1594:FreeRTOS/tasks.c **** /*-----------------------------------------------------------*/
1595:FreeRTOS/tasks.c **** 
1596:FreeRTOS/tasks.c **** void vTaskSwitchContext( void )
1597:FreeRTOS/tasks.c **** {
 2329              		.loc 1 1597 0
 2330              		.cfi_startproc
 2331              		@ args = 0, pretend = 0, frame = 8
 2332              		@ frame_needed = 1, uses_anonymous_args = 0
 2333              		@ link register save eliminated.
 2334 0000 80B4     		push	{r7}	@
 2335              		.cfi_def_cfa_offset 4
 2336              		.cfi_offset 7, -4
 2337 0002 83B0     		sub	sp, sp, #12	@,,
 2338              		.cfi_def_cfa_offset 16
 2339 0004 00AF     		add	r7, sp, #0	@,,
 2340              		.cfi_def_cfa_register 7
1598:FreeRTOS/tasks.c **** 	if( uxSchedulerSuspended != ( unsigned portBASE_TYPE ) pdFALSE )
 2341              		.loc 1 1598 0
 2342 0006 284B     		ldr	r3, .L155	@ tmp135,
 2343 0008 1B68     		ldr	r3, [r3]	@ uxSchedulerSuspended.92, uxSchedulerSuspended
 2344 000a 002B     		cmp	r3, #0	@ uxSchedulerSuspended.92,
 2345 000c 03D0     		beq	.L150	@,
1599:FreeRTOS/tasks.c **** 	{
1600:FreeRTOS/tasks.c **** 		/* The scheduler is currently suspended - do not allow a context
1601:FreeRTOS/tasks.c **** 		switch. */
1602:FreeRTOS/tasks.c **** 		xMissedYield = pdTRUE;
 2346              		.loc 1 1602 0
 2347 000e 274B     		ldr	r3, .L155+4	@ tmp136,
 2348 0010 0122     		movs	r2, #1	@ tmp137,
 2349 0012 1A60     		str	r2, [r3]	@ tmp137, xMissedYield
 2350 0014 43E0     		b	.L149	@
 2351              	.L150:
 2352              	.LBB6:
1603:FreeRTOS/tasks.c **** 	}
1604:FreeRTOS/tasks.c **** 	else
1605:FreeRTOS/tasks.c **** 	{
1606:FreeRTOS/tasks.c **** 		traceTASK_SWITCHED_OUT();
1607:FreeRTOS/tasks.c **** 	
ARM GAS  C:\Users\Adrian\AppData\Local\Temp\ccgZ1piN.s 			page 71


1608:FreeRTOS/tasks.c **** 		#if ( configGENERATE_RUN_TIME_STATS == 1 )
1609:FreeRTOS/tasks.c **** 		{
1610:FreeRTOS/tasks.c **** 			unsigned long ulTempCounter;
1611:FreeRTOS/tasks.c **** 			
1612:FreeRTOS/tasks.c **** 				#ifdef portALT_GET_RUN_TIME_COUNTER_VALUE
1613:FreeRTOS/tasks.c **** 					portALT_GET_RUN_TIME_COUNTER_VALUE( ulTempCounter );
1614:FreeRTOS/tasks.c **** 				#else
1615:FreeRTOS/tasks.c **** 					ulTempCounter = portGET_RUN_TIME_COUNTER_VALUE();
 2353              		.loc 1 1615 0
 2354 0016 264B     		ldr	r3, .L155+8	@ tmp138,
 2355 0018 1B88     		ldrh	r3, [r3]	@ movhi	@ tmp139, tim6OverflowCount
 2356 001a 9BB2     		uxth	r3, r3	@ tim6OverflowCount.93, tmp139
 2357 001c 1B04     		lsls	r3, r3, #16	@ D.7041, D.7041,
 2358 001e 1A46     		mov	r2, r3	@ D.7042, D.7041
 2359 0020 244B     		ldr	r3, .L155+12	@ D.7043,
 2360 0022 5B6A     		ldr	r3, [r3, #36]	@ D.7042, _6->CNT
 2361 0024 1343     		orrs	r3, r3, r2	@, tmp140, D.7042, D.7042
 2362 0026 7B60     		str	r3, [r7, #4]	@ tmp140, ulTempCounter
1616:FreeRTOS/tasks.c **** 				#endif
1617:FreeRTOS/tasks.c **** 	
1618:FreeRTOS/tasks.c **** 				/* Add the amount of time the task has been running to the accumulated
1619:FreeRTOS/tasks.c **** 				time so far.  The time the task started running was stored in
1620:FreeRTOS/tasks.c **** 				ulTaskSwitchedInTime.  Note that there is no overflow protection here
1621:FreeRTOS/tasks.c **** 				so count values are only valid until the timer overflows.  Generally
1622:FreeRTOS/tasks.c **** 				this will be about 1 hour assuming a 1uS timer increment. */
1623:FreeRTOS/tasks.c **** 				pxCurrentTCB->ulRunTimeCounter += ( ulTempCounter - ulTaskSwitchedInTime );
 2363              		.loc 1 1623 0
 2364 0028 234B     		ldr	r3, .L155+16	@ tmp141,
 2365 002a 1B68     		ldr	r3, [r3]	@ pxCurrentTCB.94, pxCurrentTCB
 2366 002c D96C     		ldr	r1, [r3, #76]	@ D.7042, pxCurrentTCB.94_9->ulRunTimeCounter
 2367 002e 234A     		ldr	r2, .L155+20	@ tmp142,
 2368 0030 1268     		ldr	r2, [r2]	@ ulTaskSwitchedInTime.95, ulTaskSwitchedInTime
 2369 0032 7868     		ldr	r0, [r7, #4]	@ tmp143, ulTempCounter
 2370 0034 821A     		subs	r2, r0, r2	@ D.7042, tmp143, ulTaskSwitchedInTime.95
 2371 0036 0A44     		add	r2, r2, r1	@ D.7042, D.7042
 2372 0038 DA64     		str	r2, [r3, #76]	@ D.7042, pxCurrentTCB.94_9->ulRunTimeCounter
1624:FreeRTOS/tasks.c **** 				ulTaskSwitchedInTime = ulTempCounter;
 2373              		.loc 1 1624 0
 2374 003a 204B     		ldr	r3, .L155+20	@ tmp144,
 2375 003c 7A68     		ldr	r2, [r7, #4]	@ tmp145, ulTempCounter
 2376 003e 1A60     		str	r2, [r3]	@ tmp145, ulTaskSwitchedInTime
 2377              	.LBE6:
1625:FreeRTOS/tasks.c **** 		}
1626:FreeRTOS/tasks.c **** 		#endif
1627:FreeRTOS/tasks.c **** 	
1628:FreeRTOS/tasks.c **** 		taskFIRST_CHECK_FOR_STACK_OVERFLOW();
1629:FreeRTOS/tasks.c **** 		taskSECOND_CHECK_FOR_STACK_OVERFLOW();
1630:FreeRTOS/tasks.c **** 	
1631:FreeRTOS/tasks.c **** 		/* Find the highest priority queue that contains ready tasks. */
1632:FreeRTOS/tasks.c **** 		while( listLIST_IS_EMPTY( &( pxReadyTasksLists[ uxTopReadyPriority ] ) ) )
 2378              		.loc 1 1632 0
 2379 0040 04E0     		b	.L152	@
 2380              	.L153:
1633:FreeRTOS/tasks.c **** 		{
1634:FreeRTOS/tasks.c **** 			configASSERT( uxTopReadyPriority );
1635:FreeRTOS/tasks.c **** 			--uxTopReadyPriority;
 2381              		.loc 1 1635 0
ARM GAS  C:\Users\Adrian\AppData\Local\Temp\ccgZ1piN.s 			page 72


 2382 0042 1F4B     		ldr	r3, .L155+24	@ tmp146,
 2383 0044 1B68     		ldr	r3, [r3]	@ uxTopReadyPriority.96, uxTopReadyPriority
 2384 0046 5A1E     		subs	r2, r3, #1	@ uxTopReadyPriority.97, uxTopReadyPriority.96,
 2385 0048 1D4B     		ldr	r3, .L155+24	@ tmp147,
 2386 004a 1A60     		str	r2, [r3]	@ uxTopReadyPriority.97, uxTopReadyPriority
 2387              	.L152:
1632:FreeRTOS/tasks.c **** 		while( listLIST_IS_EMPTY( &( pxReadyTasksLists[ uxTopReadyPriority ] ) ) )
 2388              		.loc 1 1632 0 discriminator 1
 2389 004c 1C4B     		ldr	r3, .L155+24	@ tmp148,
 2390 004e 1A68     		ldr	r2, [r3]	@ uxTopReadyPriority.98, uxTopReadyPriority
 2391 0050 1C49     		ldr	r1, .L155+28	@ tmp149,
 2392 0052 1346     		mov	r3, r2	@ tmp150, uxTopReadyPriority.98
 2393 0054 9B00     		lsls	r3, r3, #2	@ tmp150, tmp150,
 2394 0056 1344     		add	r3, r3, r2	@ tmp150, uxTopReadyPriority.98
 2395 0058 9B00     		lsls	r3, r3, #2	@ tmp151, tmp150,
 2396 005a 0B44     		add	r3, r3, r1	@ tmp152, tmp149
 2397 005c 1B68     		ldr	r3, [r3]	@ D.7042, pxReadyTasksLists[uxTopReadyPriority.98_14].uxNumberOfItems
 2398 005e 002B     		cmp	r3, #0	@ D.7042,
 2399 0060 EFD0     		beq	.L153	@,
 2400              	.LBB7:
1636:FreeRTOS/tasks.c **** 		}
1637:FreeRTOS/tasks.c **** 	
1638:FreeRTOS/tasks.c **** 		/* listGET_OWNER_OF_NEXT_ENTRY walks through the list, so the tasks of the
1639:FreeRTOS/tasks.c **** 		same priority get an equal share of the processor time. */
1640:FreeRTOS/tasks.c **** 		listGET_OWNER_OF_NEXT_ENTRY( pxCurrentTCB, &( pxReadyTasksLists[ uxTopReadyPriority ] ) );
 2401              		.loc 1 1640 0
 2402 0062 174B     		ldr	r3, .L155+24	@ tmp153,
 2403 0064 1A68     		ldr	r2, [r3]	@ uxTopReadyPriority.99, uxTopReadyPriority
 2404 0066 1346     		mov	r3, r2	@ tmp154, uxTopReadyPriority.99
 2405 0068 9B00     		lsls	r3, r3, #2	@ tmp154, tmp154,
 2406 006a 1344     		add	r3, r3, r2	@ tmp154, uxTopReadyPriority.99
 2407 006c 9B00     		lsls	r3, r3, #2	@ tmp155, tmp154,
 2408 006e 154A     		ldr	r2, .L155+28	@ tmp157,
 2409 0070 1344     		add	r3, r3, r2	@ tmp156, tmp157
 2410 0072 3B60     		str	r3, [r7]	@ tmp156, pxConstList
 2411 0074 3B68     		ldr	r3, [r7]	@ tmp158, pxConstList
 2412 0076 5B68     		ldr	r3, [r3, #4]	@ D.7044, pxConstList_19->pxIndex
 2413 0078 5A68     		ldr	r2, [r3, #4]	@ D.7045, _20->pxNext
 2414 007a 3B68     		ldr	r3, [r7]	@ tmp159, pxConstList
 2415 007c 5A60     		str	r2, [r3, #4]	@ D.7045, pxConstList_19->pxIndex
 2416 007e 3B68     		ldr	r3, [r7]	@ tmp160, pxConstList
 2417 0080 5A68     		ldr	r2, [r3, #4]	@ D.7044, pxConstList_19->pxIndex
 2418 0082 3B68     		ldr	r3, [r7]	@ tmp161, pxConstList
 2419 0084 0833     		adds	r3, r3, #8	@ D.7046, tmp161,
 2420 0086 9A42     		cmp	r2, r3	@ D.7044, D.7046
 2421 0088 04D1     		bne	.L154	@,
 2422              		.loc 1 1640 0 is_stmt 0 discriminator 1
 2423 008a 3B68     		ldr	r3, [r7]	@ tmp162, pxConstList
 2424 008c 5B68     		ldr	r3, [r3, #4]	@ D.7044, pxConstList_19->pxIndex
 2425 008e 5A68     		ldr	r2, [r3, #4]	@ D.7045, _24->pxNext
 2426 0090 3B68     		ldr	r3, [r7]	@ tmp163, pxConstList
 2427 0092 5A60     		str	r2, [r3, #4]	@ D.7045, pxConstList_19->pxIndex
 2428              	.L154:
 2429              		.loc 1 1640 0 discriminator 2
 2430 0094 3B68     		ldr	r3, [r7]	@ tmp164, pxConstList
 2431 0096 5B68     		ldr	r3, [r3, #4]	@ D.7044, pxConstList_19->pxIndex
 2432 0098 DA68     		ldr	r2, [r3, #12]	@ pxCurrentTCB.100, _26->pvOwner
ARM GAS  C:\Users\Adrian\AppData\Local\Temp\ccgZ1piN.s 			page 73


 2433 009a 074B     		ldr	r3, .L155+16	@ tmp165,
 2434 009c 1A60     		str	r2, [r3]	@ pxCurrentTCB.100, pxCurrentTCB
 2435              	.L149:
 2436              	.LBE7:
1641:FreeRTOS/tasks.c **** 	
1642:FreeRTOS/tasks.c **** 		traceTASK_SWITCHED_IN();
1643:FreeRTOS/tasks.c **** 	}
1644:FreeRTOS/tasks.c **** }
 2437              		.loc 1 1644 0 is_stmt 1
 2438 009e 0C37     		adds	r7, r7, #12	@,,
 2439 00a0 BD46     		mov	sp, r7	@,
 2440              		@ sp needed	@
 2441 00a2 5DF8047B 		ldr	r7, [sp], #4	@,
 2442 00a6 7047     		bx	lr	@
 2443              	.L156:
 2444              		.align	2
 2445              	.L155:
 2446 00a8 00000000 		.word	uxSchedulerSuspended
 2447 00ac 00000000 		.word	xMissedYield
 2448 00b0 00000000 		.word	tim6OverflowCount
 2449 00b4 00100040 		.word	1073745920
 2450 00b8 00000000 		.word	pxCurrentTCB
 2451 00bc 00000000 		.word	ulTaskSwitchedInTime
 2452 00c0 00000000 		.word	uxTopReadyPriority
 2453 00c4 00000000 		.word	pxReadyTasksLists
 2454              		.cfi_endproc
 2455              	.LFE75:
 2456              		.size	vTaskSwitchContext, .-vTaskSwitchContext
 2457              		.section	.text.vTaskPlaceOnEventList,"ax",%progbits
 2458              		.align	2
 2459              		.global	vTaskPlaceOnEventList
 2460              		.thumb
 2461              		.thumb_func
 2462              		.type	vTaskPlaceOnEventList, %function
 2463              	vTaskPlaceOnEventList:
 2464              	.LFB76:
1645:FreeRTOS/tasks.c **** /*-----------------------------------------------------------*/
1646:FreeRTOS/tasks.c **** 
1647:FreeRTOS/tasks.c **** void vTaskPlaceOnEventList( const xList * const pxEventList, portTickType xTicksToWait )
1648:FreeRTOS/tasks.c **** {
 2465              		.loc 1 1648 0
 2466              		.cfi_startproc
 2467              		@ args = 0, pretend = 0, frame = 16
 2468              		@ frame_needed = 1, uses_anonymous_args = 0
 2469 0000 80B5     		push	{r7, lr}	@
 2470              		.cfi_def_cfa_offset 8
 2471              		.cfi_offset 7, -8
 2472              		.cfi_offset 14, -4
 2473 0002 84B0     		sub	sp, sp, #16	@,,
 2474              		.cfi_def_cfa_offset 24
 2475 0004 00AF     		add	r7, sp, #0	@,,
 2476              		.cfi_def_cfa_register 7
 2477 0006 7860     		str	r0, [r7, #4]	@ pxEventList, pxEventList
 2478 0008 3960     		str	r1, [r7]	@ xTicksToWait, xTicksToWait
1649:FreeRTOS/tasks.c **** portTickType xTimeToWake;
1650:FreeRTOS/tasks.c **** 
1651:FreeRTOS/tasks.c **** 	configASSERT( pxEventList );
ARM GAS  C:\Users\Adrian\AppData\Local\Temp\ccgZ1piN.s 			page 74


1652:FreeRTOS/tasks.c **** 
1653:FreeRTOS/tasks.c **** 	/* THIS FUNCTION MUST BE CALLED WITH INTERRUPTS DISABLED OR THE
1654:FreeRTOS/tasks.c **** 	SCHEDULER SUSPENDED. */
1655:FreeRTOS/tasks.c **** 
1656:FreeRTOS/tasks.c **** 	/* Place the event list item of the TCB in the appropriate event list.
1657:FreeRTOS/tasks.c **** 	This is placed in the list in priority order so the highest priority task
1658:FreeRTOS/tasks.c **** 	is the first to be woken by the event. */
1659:FreeRTOS/tasks.c **** 	vListInsert( ( xList * ) pxEventList, ( xListItem * ) &( pxCurrentTCB->xEventListItem ) );
 2479              		.loc 1 1659 0
 2480 000a 124B     		ldr	r3, .L160	@ tmp117,
 2481 000c 1B68     		ldr	r3, [r3]	@ pxCurrentTCB.101, pxCurrentTCB
 2482 000e 1833     		adds	r3, r3, #24	@ D.7047, pxCurrentTCB.101,
 2483 0010 7868     		ldr	r0, [r7, #4]	@, pxEventList
 2484 0012 1946     		mov	r1, r3	@, D.7047
 2485 0014 FFF7FEFF 		bl	vListInsert	@
1660:FreeRTOS/tasks.c **** 
1661:FreeRTOS/tasks.c **** 	/* We must remove ourselves from the ready list before adding ourselves
1662:FreeRTOS/tasks.c **** 	to the blocked list as the same list item is used for both lists.  We have
1663:FreeRTOS/tasks.c **** 	exclusive access to the ready lists as the scheduler is locked. */
1664:FreeRTOS/tasks.c **** 	vListRemove( ( xListItem * ) &( pxCurrentTCB->xGenericListItem ) );
 2486              		.loc 1 1664 0
 2487 0018 0E4B     		ldr	r3, .L160	@ tmp118,
 2488 001a 1B68     		ldr	r3, [r3]	@ pxCurrentTCB.102, pxCurrentTCB
 2489 001c 0433     		adds	r3, r3, #4	@ D.7047, pxCurrentTCB.102,
 2490 001e 1846     		mov	r0, r3	@, D.7047
 2491 0020 FFF7FEFF 		bl	vListRemove	@
1665:FreeRTOS/tasks.c **** 
1666:FreeRTOS/tasks.c **** 
1667:FreeRTOS/tasks.c **** 	#if ( INCLUDE_vTaskSuspend == 1 )
1668:FreeRTOS/tasks.c **** 	{
1669:FreeRTOS/tasks.c **** 		if( xTicksToWait == portMAX_DELAY )
 2492              		.loc 1 1669 0
 2493 0024 3B68     		ldr	r3, [r7]	@ tmp119, xTicksToWait
 2494 0026 B3F1FF3F 		cmp	r3, #-1	@ tmp119,
 2495 002a 07D1     		bne	.L158	@,
1670:FreeRTOS/tasks.c **** 		{
1671:FreeRTOS/tasks.c **** 			/* Add ourselves to the suspended task list instead of a delayed task
1672:FreeRTOS/tasks.c **** 			list to ensure we are not woken by a timing event.  We will block
1673:FreeRTOS/tasks.c **** 			indefinitely. */
1674:FreeRTOS/tasks.c **** 			vListInsertEnd( ( xList * ) &xSuspendedTaskList, ( xListItem * ) &( pxCurrentTCB->xGenericListIt
 2496              		.loc 1 1674 0
 2497 002c 094B     		ldr	r3, .L160	@ tmp120,
 2498 002e 1B68     		ldr	r3, [r3]	@ pxCurrentTCB.103, pxCurrentTCB
 2499 0030 0433     		adds	r3, r3, #4	@ D.7047, pxCurrentTCB.103,
 2500 0032 0948     		ldr	r0, .L160+4	@,
 2501 0034 1946     		mov	r1, r3	@, D.7047
 2502 0036 FFF7FEFF 		bl	vListInsertEnd	@
 2503 003a 07E0     		b	.L157	@
 2504              	.L158:
1675:FreeRTOS/tasks.c **** 		}
1676:FreeRTOS/tasks.c **** 		else
1677:FreeRTOS/tasks.c **** 		{
1678:FreeRTOS/tasks.c **** 			/* Calculate the time at which the task should be woken if the event does
1679:FreeRTOS/tasks.c **** 			not occur.  This may overflow but this doesn't matter. */
1680:FreeRTOS/tasks.c **** 			xTimeToWake = xTickCount + xTicksToWait;
 2505              		.loc 1 1680 0
 2506 003c 074B     		ldr	r3, .L160+8	@ tmp121,
ARM GAS  C:\Users\Adrian\AppData\Local\Temp\ccgZ1piN.s 			page 75


 2507 003e 1A68     		ldr	r2, [r3]	@ xTickCount.104, xTickCount
 2508 0040 3B68     		ldr	r3, [r7]	@ tmp123, xTicksToWait
 2509 0042 1344     		add	r3, r3, r2	@ tmp122, xTickCount.104
 2510 0044 FB60     		str	r3, [r7, #12]	@ tmp122, xTimeToWake
1681:FreeRTOS/tasks.c **** 			prvAddCurrentTaskToDelayedList( xTimeToWake );
 2511              		.loc 1 1681 0
 2512 0046 F868     		ldr	r0, [r7, #12]	@, xTimeToWake
 2513 0048 FFF7FEFF 		bl	prvAddCurrentTaskToDelayedList	@
 2514              	.L157:
1682:FreeRTOS/tasks.c **** 		}
1683:FreeRTOS/tasks.c **** 	}
1684:FreeRTOS/tasks.c **** 	#else
1685:FreeRTOS/tasks.c **** 	{
1686:FreeRTOS/tasks.c **** 			/* Calculate the time at which the task should be woken if the event does
1687:FreeRTOS/tasks.c **** 			not occur.  This may overflow but this doesn't matter. */
1688:FreeRTOS/tasks.c **** 			xTimeToWake = xTickCount + xTicksToWait;
1689:FreeRTOS/tasks.c **** 			prvAddCurrentTaskToDelayedList( xTimeToWake );
1690:FreeRTOS/tasks.c **** 	}
1691:FreeRTOS/tasks.c **** 	#endif
1692:FreeRTOS/tasks.c **** }
 2515              		.loc 1 1692 0
 2516 004c 1037     		adds	r7, r7, #16	@,,
 2517 004e BD46     		mov	sp, r7	@,
 2518              		@ sp needed	@
 2519 0050 80BD     		pop	{r7, pc}	@
 2520              	.L161:
 2521 0052 00BF     		.align	2
 2522              	.L160:
 2523 0054 00000000 		.word	pxCurrentTCB
 2524 0058 00000000 		.word	xSuspendedTaskList
 2525 005c 00000000 		.word	xTickCount
 2526              		.cfi_endproc
 2527              	.LFE76:
 2528              		.size	vTaskPlaceOnEventList, .-vTaskPlaceOnEventList
 2529              		.section	.text.xTaskRemoveFromEventList,"ax",%progbits
 2530              		.align	2
 2531              		.global	xTaskRemoveFromEventList
 2532              		.thumb
 2533              		.thumb_func
 2534              		.type	xTaskRemoveFromEventList, %function
 2535              	xTaskRemoveFromEventList:
 2536              	.LFB77:
1693:FreeRTOS/tasks.c **** /*-----------------------------------------------------------*/
1694:FreeRTOS/tasks.c **** 
1695:FreeRTOS/tasks.c **** #if configUSE_TIMERS == 1
1696:FreeRTOS/tasks.c **** 
1697:FreeRTOS/tasks.c **** 	void vTaskPlaceOnEventListRestricted( const xList * const pxEventList, portTickType xTicksToWait )
1698:FreeRTOS/tasks.c **** 	{
1699:FreeRTOS/tasks.c **** 	portTickType xTimeToWake;
1700:FreeRTOS/tasks.c **** 
1701:FreeRTOS/tasks.c **** 		configASSERT( pxEventList );
1702:FreeRTOS/tasks.c **** 
1703:FreeRTOS/tasks.c **** 		/* This function should not be called by application code hence the
1704:FreeRTOS/tasks.c **** 		'Restricted' in its name.  It is not part of the public API.  It is
1705:FreeRTOS/tasks.c **** 		designed for use by kernel code, and has special calling requirements -
1706:FreeRTOS/tasks.c **** 		it should be called from a critical section. */
1707:FreeRTOS/tasks.c **** 
ARM GAS  C:\Users\Adrian\AppData\Local\Temp\ccgZ1piN.s 			page 76


1708:FreeRTOS/tasks.c **** 	
1709:FreeRTOS/tasks.c **** 		/* Place the event list item of the TCB in the appropriate event list.
1710:FreeRTOS/tasks.c **** 		In this case it is assume that this is the only task that is going to
1711:FreeRTOS/tasks.c **** 		be waiting on this event list, so the faster vListInsertEnd() function
1712:FreeRTOS/tasks.c **** 		can be used in place of vListInsert. */
1713:FreeRTOS/tasks.c **** 		vListInsertEnd( ( xList * ) pxEventList, ( xListItem * ) &( pxCurrentTCB->xEventListItem ) );
1714:FreeRTOS/tasks.c **** 
1715:FreeRTOS/tasks.c **** 		/* We must remove this task from the ready list before adding it to the
1716:FreeRTOS/tasks.c **** 		blocked list as the same list item is used for both lists.  This
1717:FreeRTOS/tasks.c **** 		function is called form a critical section. */
1718:FreeRTOS/tasks.c **** 		vListRemove( ( xListItem * ) &( pxCurrentTCB->xGenericListItem ) );
1719:FreeRTOS/tasks.c **** 
1720:FreeRTOS/tasks.c **** 		/* Calculate the time at which the task should be woken if the event does
1721:FreeRTOS/tasks.c **** 		not occur.  This may overflow but this doesn't matter. */
1722:FreeRTOS/tasks.c **** 		xTimeToWake = xTickCount + xTicksToWait;
1723:FreeRTOS/tasks.c **** 		prvAddCurrentTaskToDelayedList( xTimeToWake );
1724:FreeRTOS/tasks.c **** 	}
1725:FreeRTOS/tasks.c **** 	
1726:FreeRTOS/tasks.c **** #endif /* configUSE_TIMERS */
1727:FreeRTOS/tasks.c **** /*-----------------------------------------------------------*/
1728:FreeRTOS/tasks.c **** 
1729:FreeRTOS/tasks.c **** signed portBASE_TYPE xTaskRemoveFromEventList( const xList * const pxEventList )
1730:FreeRTOS/tasks.c **** {
 2537              		.loc 1 1730 0
 2538              		.cfi_startproc
 2539              		@ args = 0, pretend = 0, frame = 16
 2540              		@ frame_needed = 1, uses_anonymous_args = 0
 2541 0000 80B5     		push	{r7, lr}	@
 2542              		.cfi_def_cfa_offset 8
 2543              		.cfi_offset 7, -8
 2544              		.cfi_offset 14, -4
 2545 0002 84B0     		sub	sp, sp, #16	@,,
 2546              		.cfi_def_cfa_offset 24
 2547 0004 00AF     		add	r7, sp, #0	@,,
 2548              		.cfi_def_cfa_register 7
 2549 0006 7860     		str	r0, [r7, #4]	@ pxEventList, pxEventList
1731:FreeRTOS/tasks.c **** tskTCB *pxUnblockedTCB;
1732:FreeRTOS/tasks.c **** portBASE_TYPE xReturn;
1733:FreeRTOS/tasks.c **** 
1734:FreeRTOS/tasks.c **** 	/* THIS FUNCTION MUST BE CALLED WITH INTERRUPTS DISABLED OR THE
1735:FreeRTOS/tasks.c **** 	SCHEDULER SUSPENDED.  It can also be called from within an ISR. */
1736:FreeRTOS/tasks.c **** 
1737:FreeRTOS/tasks.c **** 	/* The event list is sorted in priority order, so we can remove the
1738:FreeRTOS/tasks.c **** 	first in the list, remove the TCB from the delayed list, and add
1739:FreeRTOS/tasks.c **** 	it to the ready list.
1740:FreeRTOS/tasks.c **** 
1741:FreeRTOS/tasks.c **** 	If an event is for a queue that is locked then this function will never
1742:FreeRTOS/tasks.c **** 	get called - the lock count on the queue will get modified instead.  This
1743:FreeRTOS/tasks.c **** 	means we can always expect exclusive access to the event list here.
1744:FreeRTOS/tasks.c **** 	
1745:FreeRTOS/tasks.c **** 	This function assumes that a check has already been made to ensure that
1746:FreeRTOS/tasks.c **** 	pxEventList is not empty. */
1747:FreeRTOS/tasks.c **** 	pxUnblockedTCB = ( tskTCB * ) listGET_OWNER_OF_HEAD_ENTRY( pxEventList );
 2550              		.loc 1 1747 0
 2551 0008 7B68     		ldr	r3, [r7, #4]	@ tmp126, pxEventList
 2552 000a DB68     		ldr	r3, [r3, #12]	@ D.7048, pxEventList_2(D)->xListEnd.pxNext
 2553 000c DB68     		ldr	r3, [r3, #12]	@ tmp127, _3->pvOwner
ARM GAS  C:\Users\Adrian\AppData\Local\Temp\ccgZ1piN.s 			page 77


 2554 000e BB60     		str	r3, [r7, #8]	@ tmp127, pxUnblockedTCB
1748:FreeRTOS/tasks.c **** 	configASSERT( pxUnblockedTCB );
1749:FreeRTOS/tasks.c **** 	vListRemove( &( pxUnblockedTCB->xEventListItem ) );
 2555              		.loc 1 1749 0
 2556 0010 BB68     		ldr	r3, [r7, #8]	@ tmp128, pxUnblockedTCB
 2557 0012 1833     		adds	r3, r3, #24	@ D.7049, tmp128,
 2558 0014 1846     		mov	r0, r3	@, D.7049
 2559 0016 FFF7FEFF 		bl	vListRemove	@
1750:FreeRTOS/tasks.c **** 
1751:FreeRTOS/tasks.c **** 	if( uxSchedulerSuspended == ( unsigned portBASE_TYPE ) pdFALSE )
 2560              		.loc 1 1751 0
 2561 001a 1C4B     		ldr	r3, .L169	@ tmp129,
 2562 001c 1B68     		ldr	r3, [r3]	@ uxSchedulerSuspended.105, uxSchedulerSuspended
 2563 001e 002B     		cmp	r3, #0	@ uxSchedulerSuspended.105,
 2564 0020 1DD1     		bne	.L163	@,
1752:FreeRTOS/tasks.c **** 	{
1753:FreeRTOS/tasks.c **** 		vListRemove( &( pxUnblockedTCB->xGenericListItem ) );
 2565              		.loc 1 1753 0
 2566 0022 BB68     		ldr	r3, [r7, #8]	@ tmp130, pxUnblockedTCB
 2567 0024 0433     		adds	r3, r3, #4	@ D.7049, tmp130,
 2568 0026 1846     		mov	r0, r3	@, D.7049
 2569 0028 FFF7FEFF 		bl	vListRemove	@
1754:FreeRTOS/tasks.c **** 		prvAddTaskToReadyQueue( pxUnblockedTCB );
 2570              		.loc 1 1754 0
 2571 002c BB68     		ldr	r3, [r7, #8]	@ tmp131, pxUnblockedTCB
 2572 002e DA6A     		ldr	r2, [r3, #44]	@ D.7050, pxUnblockedTCB_4->uxPriority
 2573 0030 174B     		ldr	r3, .L169+4	@ tmp132,
 2574 0032 1B68     		ldr	r3, [r3]	@ uxTopReadyPriority.106, uxTopReadyPriority
 2575 0034 9A42     		cmp	r2, r3	@ D.7050, uxTopReadyPriority.106
 2576 0036 03D9     		bls	.L164	@,
 2577              		.loc 1 1754 0 is_stmt 0 discriminator 1
 2578 0038 BB68     		ldr	r3, [r7, #8]	@ tmp133, pxUnblockedTCB
 2579 003a DA6A     		ldr	r2, [r3, #44]	@ uxTopReadyPriority.107, pxUnblockedTCB_4->uxPriority
 2580 003c 144B     		ldr	r3, .L169+4	@ tmp134,
 2581 003e 1A60     		str	r2, [r3]	@ uxTopReadyPriority.107, uxTopReadyPriority
 2582              	.L164:
 2583              		.loc 1 1754 0 discriminator 2
 2584 0040 BB68     		ldr	r3, [r7, #8]	@ tmp135, pxUnblockedTCB
 2585 0042 DA6A     		ldr	r2, [r3, #44]	@ D.7050, pxUnblockedTCB_4->uxPriority
 2586 0044 1346     		mov	r3, r2	@ tmp136, D.7050
 2587 0046 9B00     		lsls	r3, r3, #2	@ tmp136, tmp136,
 2588 0048 1344     		add	r3, r3, r2	@ tmp136, D.7050
 2589 004a 9B00     		lsls	r3, r3, #2	@ tmp137, tmp136,
 2590 004c 114A     		ldr	r2, .L169+8	@ tmp138,
 2591 004e 1A44     		add	r2, r2, r3	@ D.7051, tmp136
 2592 0050 BB68     		ldr	r3, [r7, #8]	@ tmp139, pxUnblockedTCB
 2593 0052 0433     		adds	r3, r3, #4	@ D.7049, tmp139,
 2594 0054 1046     		mov	r0, r2	@, D.7051
 2595 0056 1946     		mov	r1, r3	@, D.7049
 2596 0058 FFF7FEFF 		bl	vListInsertEnd	@
 2597 005c 05E0     		b	.L165	@
 2598              	.L163:
1755:FreeRTOS/tasks.c **** 	}
1756:FreeRTOS/tasks.c **** 	else
1757:FreeRTOS/tasks.c **** 	{
1758:FreeRTOS/tasks.c **** 		/* We cannot access the delayed or ready lists, so will hold this
1759:FreeRTOS/tasks.c **** 		task pending until the scheduler is resumed. */
ARM GAS  C:\Users\Adrian\AppData\Local\Temp\ccgZ1piN.s 			page 78


1760:FreeRTOS/tasks.c **** 		vListInsertEnd( ( xList * ) &( xPendingReadyList ), &( pxUnblockedTCB->xEventListItem ) );
 2599              		.loc 1 1760 0 is_stmt 1
 2600 005e BB68     		ldr	r3, [r7, #8]	@ tmp140, pxUnblockedTCB
 2601 0060 1833     		adds	r3, r3, #24	@ D.7049, tmp140,
 2602 0062 0D48     		ldr	r0, .L169+12	@,
 2603 0064 1946     		mov	r1, r3	@, D.7049
 2604 0066 FFF7FEFF 		bl	vListInsertEnd	@
 2605              	.L165:
1761:FreeRTOS/tasks.c **** 	}
1762:FreeRTOS/tasks.c **** 
1763:FreeRTOS/tasks.c **** 	if( pxUnblockedTCB->uxPriority >= pxCurrentTCB->uxPriority )
 2606              		.loc 1 1763 0
 2607 006a BB68     		ldr	r3, [r7, #8]	@ tmp141, pxUnblockedTCB
 2608 006c DA6A     		ldr	r2, [r3, #44]	@ D.7050, pxUnblockedTCB_4->uxPriority
 2609 006e 0B4B     		ldr	r3, .L169+16	@ tmp142,
 2610 0070 1B68     		ldr	r3, [r3]	@ pxCurrentTCB.108, pxCurrentTCB
 2611 0072 DB6A     		ldr	r3, [r3, #44]	@ D.7050, pxCurrentTCB.108_16->uxPriority
 2612 0074 9A42     		cmp	r2, r3	@ D.7050, D.7050
 2613 0076 02D3     		bcc	.L166	@,
1764:FreeRTOS/tasks.c **** 	{
1765:FreeRTOS/tasks.c **** 		/* Return true if the task removed from the event list has
1766:FreeRTOS/tasks.c **** 		a higher priority than the calling task.  This allows
1767:FreeRTOS/tasks.c **** 		the calling task to know if it should force a context
1768:FreeRTOS/tasks.c **** 		switch now. */
1769:FreeRTOS/tasks.c **** 		xReturn = pdTRUE;
 2614              		.loc 1 1769 0
 2615 0078 0123     		movs	r3, #1	@ tmp143,
 2616 007a FB60     		str	r3, [r7, #12]	@ tmp143, xReturn
 2617 007c 01E0     		b	.L167	@
 2618              	.L166:
1770:FreeRTOS/tasks.c **** 	}
1771:FreeRTOS/tasks.c **** 	else
1772:FreeRTOS/tasks.c **** 	{
1773:FreeRTOS/tasks.c **** 		xReturn = pdFALSE;
 2619              		.loc 1 1773 0
 2620 007e 0023     		movs	r3, #0	@ tmp144,
 2621 0080 FB60     		str	r3, [r7, #12]	@ tmp144, xReturn
 2622              	.L167:
1774:FreeRTOS/tasks.c **** 	}
1775:FreeRTOS/tasks.c **** 
1776:FreeRTOS/tasks.c **** 	return xReturn;
 2623              		.loc 1 1776 0
 2624 0082 FB68     		ldr	r3, [r7, #12]	@ D.7052, xReturn
1777:FreeRTOS/tasks.c **** }
 2625              		.loc 1 1777 0
 2626 0084 1846     		mov	r0, r3	@, <retval>
 2627 0086 1037     		adds	r7, r7, #16	@,,
 2628 0088 BD46     		mov	sp, r7	@,
 2629              		@ sp needed	@
 2630 008a 80BD     		pop	{r7, pc}	@
 2631              	.L170:
 2632              		.align	2
 2633              	.L169:
 2634 008c 00000000 		.word	uxSchedulerSuspended
 2635 0090 00000000 		.word	uxTopReadyPriority
 2636 0094 00000000 		.word	pxReadyTasksLists
 2637 0098 00000000 		.word	xPendingReadyList
ARM GAS  C:\Users\Adrian\AppData\Local\Temp\ccgZ1piN.s 			page 79


 2638 009c 00000000 		.word	pxCurrentTCB
 2639              		.cfi_endproc
 2640              	.LFE77:
 2641              		.size	xTaskRemoveFromEventList, .-xTaskRemoveFromEventList
 2642              		.section	.text.vTaskSetTimeOutState,"ax",%progbits
 2643              		.align	2
 2644              		.global	vTaskSetTimeOutState
 2645              		.thumb
 2646              		.thumb_func
 2647              		.type	vTaskSetTimeOutState, %function
 2648              	vTaskSetTimeOutState:
 2649              	.LFB78:
1778:FreeRTOS/tasks.c **** /*-----------------------------------------------------------*/
1779:FreeRTOS/tasks.c **** 
1780:FreeRTOS/tasks.c **** void vTaskSetTimeOutState( xTimeOutType * const pxTimeOut )
1781:FreeRTOS/tasks.c **** {
 2650              		.loc 1 1781 0
 2651              		.cfi_startproc
 2652              		@ args = 0, pretend = 0, frame = 8
 2653              		@ frame_needed = 1, uses_anonymous_args = 0
 2654              		@ link register save eliminated.
 2655 0000 80B4     		push	{r7}	@
 2656              		.cfi_def_cfa_offset 4
 2657              		.cfi_offset 7, -4
 2658 0002 83B0     		sub	sp, sp, #12	@,,
 2659              		.cfi_def_cfa_offset 16
 2660 0004 00AF     		add	r7, sp, #0	@,,
 2661              		.cfi_def_cfa_register 7
 2662 0006 7860     		str	r0, [r7, #4]	@ pxTimeOut, pxTimeOut
1782:FreeRTOS/tasks.c **** 	configASSERT( pxTimeOut );
1783:FreeRTOS/tasks.c **** 	pxTimeOut->xOverflowCount = xNumOfOverflows;
 2663              		.loc 1 1783 0
 2664 0008 064B     		ldr	r3, .L172	@ tmp112,
 2665 000a 1A68     		ldr	r2, [r3]	@ xNumOfOverflows.109, xNumOfOverflows
 2666 000c 7B68     		ldr	r3, [r7, #4]	@ tmp113, pxTimeOut
 2667 000e 1A60     		str	r2, [r3]	@ xNumOfOverflows.109, pxTimeOut_2(D)->xOverflowCount
1784:FreeRTOS/tasks.c **** 	pxTimeOut->xTimeOnEntering = xTickCount;
 2668              		.loc 1 1784 0
 2669 0010 054B     		ldr	r3, .L172+4	@ tmp114,
 2670 0012 1A68     		ldr	r2, [r3]	@ xTickCount.110, xTickCount
 2671 0014 7B68     		ldr	r3, [r7, #4]	@ tmp115, pxTimeOut
 2672 0016 5A60     		str	r2, [r3, #4]	@ xTickCount.110, pxTimeOut_2(D)->xTimeOnEntering
1785:FreeRTOS/tasks.c **** }
 2673              		.loc 1 1785 0
 2674 0018 0C37     		adds	r7, r7, #12	@,,
 2675 001a BD46     		mov	sp, r7	@,
 2676              		@ sp needed	@
 2677 001c 5DF8047B 		ldr	r7, [sp], #4	@,
 2678 0020 7047     		bx	lr	@
 2679              	.L173:
 2680 0022 00BF     		.align	2
 2681              	.L172:
 2682 0024 00000000 		.word	xNumOfOverflows
 2683 0028 00000000 		.word	xTickCount
 2684              		.cfi_endproc
 2685              	.LFE78:
 2686              		.size	vTaskSetTimeOutState, .-vTaskSetTimeOutState
ARM GAS  C:\Users\Adrian\AppData\Local\Temp\ccgZ1piN.s 			page 80


 2687              		.section	.text.xTaskCheckForTimeOut,"ax",%progbits
 2688              		.align	2
 2689              		.global	xTaskCheckForTimeOut
 2690              		.thumb
 2691              		.thumb_func
 2692              		.type	xTaskCheckForTimeOut, %function
 2693              	xTaskCheckForTimeOut:
 2694              	.LFB79:
1786:FreeRTOS/tasks.c **** /*-----------------------------------------------------------*/
1787:FreeRTOS/tasks.c **** 
1788:FreeRTOS/tasks.c **** portBASE_TYPE xTaskCheckForTimeOut( xTimeOutType * const pxTimeOut, portTickType * const pxTicksToW
1789:FreeRTOS/tasks.c **** {
 2695              		.loc 1 1789 0
 2696              		.cfi_startproc
 2697              		@ args = 0, pretend = 0, frame = 16
 2698              		@ frame_needed = 1, uses_anonymous_args = 0
 2699 0000 80B5     		push	{r7, lr}	@
 2700              		.cfi_def_cfa_offset 8
 2701              		.cfi_offset 7, -8
 2702              		.cfi_offset 14, -4
 2703 0002 84B0     		sub	sp, sp, #16	@,,
 2704              		.cfi_def_cfa_offset 24
 2705 0004 00AF     		add	r7, sp, #0	@,,
 2706              		.cfi_def_cfa_register 7
 2707 0006 7860     		str	r0, [r7, #4]	@ pxTimeOut, pxTimeOut
 2708 0008 3960     		str	r1, [r7]	@ pxTicksToWait, pxTicksToWait
1790:FreeRTOS/tasks.c **** portBASE_TYPE xReturn;
1791:FreeRTOS/tasks.c **** 
1792:FreeRTOS/tasks.c **** 	configASSERT( pxTimeOut );
1793:FreeRTOS/tasks.c **** 	configASSERT( pxTicksToWait );
1794:FreeRTOS/tasks.c **** 
1795:FreeRTOS/tasks.c **** 	taskENTER_CRITICAL();
 2709              		.loc 1 1795 0
 2710 000a FFF7FEFF 		bl	vPortEnterCritical	@
1796:FreeRTOS/tasks.c **** 	{
1797:FreeRTOS/tasks.c **** 		#if ( INCLUDE_vTaskSuspend == 1 )
1798:FreeRTOS/tasks.c **** 			/* If INCLUDE_vTaskSuspend is set to 1 and the block time specified is
1799:FreeRTOS/tasks.c **** 			the maximum block time then the task should block indefinitely, and
1800:FreeRTOS/tasks.c **** 			therefore never time out. */
1801:FreeRTOS/tasks.c **** 			if( *pxTicksToWait == portMAX_DELAY )
 2711              		.loc 1 1801 0
 2712 000e 3B68     		ldr	r3, [r7]	@ tmp126, pxTicksToWait
 2713 0010 1B68     		ldr	r3, [r3]	@ D.7053, *pxTicksToWait_2(D)
 2714 0012 B3F1FF3F 		cmp	r3, #-1	@ D.7053,
 2715 0016 02D1     		bne	.L175	@,
1802:FreeRTOS/tasks.c **** 			{
1803:FreeRTOS/tasks.c **** 				xReturn = pdFALSE;
 2716              		.loc 1 1803 0
 2717 0018 0023     		movs	r3, #0	@ tmp127,
 2718 001a FB60     		str	r3, [r7, #12]	@ tmp127, xReturn
 2719 001c 29E0     		b	.L176	@
 2720              	.L175:
1804:FreeRTOS/tasks.c **** 			}
1805:FreeRTOS/tasks.c **** 			else /* We are not blocking indefinitely, perform the checks below. */
1806:FreeRTOS/tasks.c **** 		#endif
1807:FreeRTOS/tasks.c **** 
1808:FreeRTOS/tasks.c **** 		if( ( xNumOfOverflows != pxTimeOut->xOverflowCount ) && ( ( portTickType ) xTickCount >= ( portTi
ARM GAS  C:\Users\Adrian\AppData\Local\Temp\ccgZ1piN.s 			page 81


 2721              		.loc 1 1808 0
 2722 001e 7B68     		ldr	r3, [r7, #4]	@ tmp128, pxTimeOut
 2723 0020 1A68     		ldr	r2, [r3]	@ D.7054, pxTimeOut_5(D)->xOverflowCount
 2724 0022 174B     		ldr	r3, .L180	@ tmp129,
 2725 0024 1B68     		ldr	r3, [r3]	@ xNumOfOverflows.111, xNumOfOverflows
 2726 0026 9A42     		cmp	r2, r3	@ D.7054, xNumOfOverflows.111
 2727 0028 08D0     		beq	.L177	@,
 2728              		.loc 1 1808 0 is_stmt 0 discriminator 1
 2729 002a 7B68     		ldr	r3, [r7, #4]	@ tmp130, pxTimeOut
 2730 002c 5A68     		ldr	r2, [r3, #4]	@ D.7053, pxTimeOut_5(D)->xTimeOnEntering
 2731 002e 154B     		ldr	r3, .L180+4	@ tmp131,
 2732 0030 1B68     		ldr	r3, [r3]	@ xTickCount.112, xTickCount
 2733 0032 9A42     		cmp	r2, r3	@ D.7053, xTickCount.112
 2734 0034 02D8     		bhi	.L177	@,
1809:FreeRTOS/tasks.c **** 		{
1810:FreeRTOS/tasks.c **** 			/* The tick count is greater than the time at which vTaskSetTimeout()
1811:FreeRTOS/tasks.c **** 			was called, but has also overflowed since vTaskSetTimeOut() was called.
1812:FreeRTOS/tasks.c **** 			It must have wrapped all the way around and gone past us again. This
1813:FreeRTOS/tasks.c **** 			passed since vTaskSetTimeout() was called. */
1814:FreeRTOS/tasks.c **** 			xReturn = pdTRUE;
 2735              		.loc 1 1814 0 is_stmt 1
 2736 0036 0123     		movs	r3, #1	@ tmp132,
 2737 0038 FB60     		str	r3, [r7, #12]	@ tmp132, xReturn
 2738 003a 1AE0     		b	.L176	@
 2739              	.L177:
1815:FreeRTOS/tasks.c **** 		}
1816:FreeRTOS/tasks.c **** 		else if( ( ( portTickType ) ( ( portTickType ) xTickCount - ( portTickType ) pxTimeOut->xTimeOnEn
 2740              		.loc 1 1816 0
 2741 003c 114B     		ldr	r3, .L180+4	@ tmp133,
 2742 003e 1A68     		ldr	r2, [r3]	@ xTickCount.113, xTickCount
 2743 0040 7B68     		ldr	r3, [r7, #4]	@ tmp134, pxTimeOut
 2744 0042 5B68     		ldr	r3, [r3, #4]	@ D.7053, pxTimeOut_5(D)->xTimeOnEntering
 2745 0044 D21A     		subs	r2, r2, r3	@ D.7053, xTickCount.113, D.7053
 2746 0046 3B68     		ldr	r3, [r7]	@ tmp135, pxTicksToWait
 2747 0048 1B68     		ldr	r3, [r3]	@ D.7053, *pxTicksToWait_2(D)
 2748 004a 9A42     		cmp	r2, r3	@ D.7053, D.7053
 2749 004c 0FD2     		bcs	.L178	@,
1817:FreeRTOS/tasks.c **** 		{
1818:FreeRTOS/tasks.c **** 			/* Not a genuine timeout. Adjust parameters for time remaining. */
1819:FreeRTOS/tasks.c **** 			*pxTicksToWait -= ( ( portTickType ) xTickCount - ( portTickType ) pxTimeOut->xTimeOnEntering );
 2750              		.loc 1 1819 0
 2751 004e 3B68     		ldr	r3, [r7]	@ tmp136, pxTicksToWait
 2752 0050 1A68     		ldr	r2, [r3]	@ D.7053, *pxTicksToWait_2(D)
 2753 0052 7B68     		ldr	r3, [r7, #4]	@ tmp137, pxTimeOut
 2754 0054 5968     		ldr	r1, [r3, #4]	@ D.7053, pxTimeOut_5(D)->xTimeOnEntering
 2755 0056 0B4B     		ldr	r3, .L180+4	@ tmp138,
 2756 0058 1B68     		ldr	r3, [r3]	@ xTickCount.114, xTickCount
 2757 005a CB1A     		subs	r3, r1, r3	@ D.7053, D.7053, xTickCount.114
 2758 005c 1A44     		add	r2, r2, r3	@ D.7053, D.7053
 2759 005e 3B68     		ldr	r3, [r7]	@ tmp139, pxTicksToWait
 2760 0060 1A60     		str	r2, [r3]	@ D.7053, *pxTicksToWait_2(D)
1820:FreeRTOS/tasks.c **** 			vTaskSetTimeOutState( pxTimeOut );
 2761              		.loc 1 1820 0
 2762 0062 7868     		ldr	r0, [r7, #4]	@, pxTimeOut
 2763 0064 FFF7FEFF 		bl	vTaskSetTimeOutState	@
1821:FreeRTOS/tasks.c **** 			xReturn = pdFALSE;
 2764              		.loc 1 1821 0
ARM GAS  C:\Users\Adrian\AppData\Local\Temp\ccgZ1piN.s 			page 82


 2765 0068 0023     		movs	r3, #0	@ tmp140,
 2766 006a FB60     		str	r3, [r7, #12]	@ tmp140, xReturn
 2767 006c 01E0     		b	.L176	@
 2768              	.L178:
1822:FreeRTOS/tasks.c **** 		}
1823:FreeRTOS/tasks.c **** 		else
1824:FreeRTOS/tasks.c **** 		{
1825:FreeRTOS/tasks.c **** 			xReturn = pdTRUE;
 2769              		.loc 1 1825 0
 2770 006e 0123     		movs	r3, #1	@ tmp141,
 2771 0070 FB60     		str	r3, [r7, #12]	@ tmp141, xReturn
 2772              	.L176:
1826:FreeRTOS/tasks.c **** 		}
1827:FreeRTOS/tasks.c **** 	}
1828:FreeRTOS/tasks.c **** 	taskEXIT_CRITICAL();
 2773              		.loc 1 1828 0
 2774 0072 FFF7FEFF 		bl	vPortExitCritical	@
1829:FreeRTOS/tasks.c **** 
1830:FreeRTOS/tasks.c **** 	return xReturn;
 2775              		.loc 1 1830 0
 2776 0076 FB68     		ldr	r3, [r7, #12]	@ D.7054, xReturn
1831:FreeRTOS/tasks.c **** }
 2777              		.loc 1 1831 0
 2778 0078 1846     		mov	r0, r3	@, <retval>
 2779 007a 1037     		adds	r7, r7, #16	@,,
 2780 007c BD46     		mov	sp, r7	@,
