ARM GAS  /tmp/ccSINqkc.s 			page 1


   1              		.syntax unified
   2              		.cpu cortex-m3
   3              		.fpu softvfp
   4              		.eabi_attribute 20, 1	@ Tag_ABI_FP_denormal
   5              		.eabi_attribute 21, 1	@ Tag_ABI_FP_exceptions
   6              		.eabi_attribute 23, 3	@ Tag_ABI_FP_number_model
   7              		.eabi_attribute 24, 1	@ Tag_ABI_align8_needed
   8              		.eabi_attribute 25, 1	@ Tag_ABI_align8_preserved
   9              		.eabi_attribute 26, 1	@ Tag_ABI_enum_size
  10              		.eabi_attribute 30, 4	@ Tag_ABI_optimization_goals
  11              		.eabi_attribute 34, 1	@ Tag_CPU_unaligned_access
  12              		.eabi_attribute 18, 4	@ Tag_ABI_PCS_wchar_t
  13              		.file	"usart.cpp"
  14              	@ GNU C++ (GNU Tools for ARM Embedded Processors) version 4.7.3 20130312 (release) [ARM/embedded-4_
  15              	@	compiled by GNU C version 4.3.6, GMP version 4.3.2, MPFR version 2.4.2, MPC version 0.8.1
  16              	@ GGC heuristics: --param ggc-min-expand=100 --param ggc-min-heapsize=131072
  17              	@ options passed:  -I . -I inc -I FreeRTOS/include
  18              	@ -I FreeRTOS/portable/GCC/ARM_CM3 -I FatFS -I peripherals
  19              	@ -imultilib armv7-m
  20              	@ -iprefix /home/maciek/gcc-arm-none-eabi/gcc-arm-none-eabi-4_7-2013q1/bin/../lib/gcc/arm-none-eabi
  21              	@ -isysroot /home/maciek/gcc-arm-none-eabi/gcc-arm-none-eabi-4_7-2013q1/bin/../arm-none-eabi
  22              	@ -MD out/usart.d -MF out/usart.d -MP -MQ out/usart.o -D__USES_INITFINI__
  23              	@ -D STM32L1XX_MD peripherals/usart.cpp -mcpu=cortex-m3 -mthumb
  24              	@ -auxbase-strip out/usart.o -g -ggdb3 -Os -Wall -Wextra -std=gnu++11
  25              	@ -ffunction-sections -fdata-sections -fno-rtti -fno-exceptions
  26              	@ -fverbose-asm
  27              	@ options enabled:  -fauto-inc-dec -fbranch-count-reg -fcaller-saves
  28              	@ -fcombine-stack-adjustments -fcommon -fcompare-elim -fcprop-registers
  29              	@ -fcrossjumping -fcse-follow-jumps -fdata-sections -fdebug-types-section
  30              	@ -fdefer-pop -fdelete-null-pointer-checks -fdevirtualize -fdwarf2-cfi-asm
  31              	@ -fearly-inlining -feliminate-unused-debug-types -fexpensive-optimizations
  32              	@ -fforward-propagate -ffunction-cse -ffunction-sections -fgcse -fgcse-lm
  33              	@ -fgnu-runtime -fguess-branch-probability -fident -fif-conversion
  34              	@ -fif-conversion2 -findirect-inlining -finline -finline-atomics
  35              	@ -finline-functions -finline-functions-called-once
  36              	@ -finline-small-functions -fipa-cp -fipa-profile -fipa-pure-const
  37              	@ -fipa-reference -fipa-sra -fira-share-save-slots -fira-share-spill-slots
  38              	@ -fivopts -fkeep-static-consts -fleading-underscore -fmath-errno
  39              	@ -fmerge-constants -fmerge-debug-strings -fomit-frame-pointer
  40              	@ -foptimize-register-move -foptimize-sibling-calls -fpartial-inlining
  41              	@ -fpeephole -fpeephole2 -fprefetch-loop-arrays -freg-struct-return
  42              	@ -fregmove -frename-registers -freorder-blocks -freorder-functions
  43              	@ -frerun-cse-after-loop -fsched-critical-path-heuristic
  44              	@ -fsched-dep-count-heuristic -fsched-group-heuristic -fsched-interblock
  45              	@ -fsched-last-insn-heuristic -fsched-rank-heuristic -fsched-spec
  46              	@ -fsched-spec-insn-heuristic -fsched-stalled-insns-dep -fschedule-insns2
  47              	@ -fsection-anchors -fshow-column -fshrink-wrap -fsigned-zeros
  48              	@ -fsplit-ivs-in-unroller -fsplit-wide-types -fstrict-aliasing
  49              	@ -fstrict-overflow -fstrict-volatile-bitfields -fthread-jumps
  50              	@ -ftoplevel-reorder -ftrapping-math -ftree-bit-ccp -ftree-builtin-call-dce
  51              	@ -ftree-ccp -ftree-ch -ftree-copy-prop -ftree-copyrename -ftree-cselim
  52              	@ -ftree-dce -ftree-dominator-opts -ftree-dse -ftree-forwprop -ftree-fre
  53              	@ -ftree-loop-if-convert -ftree-loop-im -ftree-loop-ivcanon
  54              	@ -ftree-loop-optimize -ftree-parallelize-loops= -ftree-phiprop -ftree-pre
  55              	@ -ftree-pta -ftree-reassoc -ftree-scev-cprop -ftree-sink
  56              	@ -ftree-slp-vectorize -ftree-sra -ftree-switch-conversion
  57              	@ -ftree-tail-merge -ftree-ter -ftree-vect-loop-version -ftree-vrp
ARM GAS  /tmp/ccSINqkc.s 			page 2


  58              	@ -funit-at-a-time -funroll-loops -fvar-tracking -fvar-tracking-assignments
  59              	@ -fverbose-asm -fweb -fzero-initialized-in-bss -mfix-cortex-m3-ldrd
  60              	@ -mlittle-endian -msched-prolog -mthumb -munaligned-access
  61              	@ -mvectorize-with-neon-quad
  62              	
  63              		.text
  64              	.Ltext0:
  65              		.cfi_sections	.debug_frame
  66              		.section	.text._ZL7_txTaskPv,"ax",%progbits
  67              		.align	1
  68              		.thumb
  69              		.thumb_func
  70              		.type	_ZL7_txTaskPv, %function
  71              	_ZL7_txTaskPv:
  72              	.LFB62:
  73              		.file 1 "peripherals/usart.cpp"
   1:peripherals/usart.cpp **** /**
   2:peripherals/usart.cpp ****  * \file usart.cpp
   3:peripherals/usart.cpp ****  * \brief USART driver
   4:peripherals/usart.cpp ****  *
   5:peripherals/usart.cpp ****  * Functions for USART control
   6:peripherals/usart.cpp ****  *
   7:peripherals/usart.cpp ****  * chip: STM32L1xx; prefix: usart
   8:peripherals/usart.cpp ****  *
   9:peripherals/usart.cpp ****  * \author Freddie Chopin, http://www.freddiechopin.info http://www.distortec.com
  10:peripherals/usart.cpp ****  * \date 2012-08-30
  11:peripherals/usart.cpp ****  */
  12:peripherals/usart.cpp **** 
  13:peripherals/usart.cpp **** #include <stdint.h>
  14:peripherals/usart.cpp **** #include <string.h>
  15:peripherals/usart.cpp **** #include <stdarg.h>
  16:peripherals/usart.cpp **** #include <stdio.h>
  17:peripherals/usart.cpp **** 
  18:peripherals/usart.cpp **** #include "inc/stm32l1xx.h"
  19:peripherals/usart.cpp **** 
  20:peripherals/usart.cpp **** #include "config.h"
  21:peripherals/usart.cpp **** 
  22:peripherals/usart.cpp **** #include "hdr/hdr_usart.h"
  23:peripherals/usart.cpp **** #include "hdr/hdr_gpio.h"
  24:peripherals/usart.cpp **** #include "hdr/hdr_rcc.h"
  25:peripherals/usart.cpp **** #include "hdr/hdr_dma.h"
  26:peripherals/usart.cpp **** 
  27:peripherals/usart.cpp **** #include "gpio.h"
  28:peripherals/usart.cpp **** #include "rcc.h"
  29:peripherals/usart.cpp **** #include "usart.h"
  30:peripherals/usart.cpp **** #include "command.h"
  31:peripherals/usart.cpp **** #include "helper.h"
  32:peripherals/usart.cpp **** #include "error.h"
  33:peripherals/usart.cpp **** 
  34:peripherals/usart.cpp **** #include "FreeRTOS.h"
  35:peripherals/usart.cpp **** #include "task.h"
  36:peripherals/usart.cpp **** #include "queue.h"
  37:peripherals/usart.cpp **** #include "semphr.h"
  38:peripherals/usart.cpp **** 
  39:peripherals/usart.cpp **** /*-------------------------------------------------------------------------------------------------
  40:peripherals/usart.cpp ****  | local variables' types
  41:peripherals/usart.cpp ****  +-------------------------------------------------------------------------------------------------
ARM GAS  /tmp/ccSINqkc.s 			page 3


  42:peripherals/usart.cpp **** 
  43:peripherals/usart.cpp **** /// list of possible statuses of RX queue message
  44:peripherals/usart.cpp **** enum _RxStatus {
  45:peripherals/usart.cpp **** 	RX_STATUS_HAD_NONE,						///< there was/is no "\r\n" sequence
  46:peripherals/usart.cpp **** 	RX_STATUS_HAD_CR,						///< there was/is '\r'
  47:peripherals/usart.cpp **** 	RX_STATUS_HAD_CR_LF,					///< there is a "\r\n" sequence
  48:peripherals/usart.cpp **** };
  49:peripherals/usart.cpp **** 
  50:peripherals/usart.cpp **** /// message for UART RX queue
  51:peripherals/usart.cpp **** struct _RxMessage {
  52:peripherals/usart.cpp **** 	size_t length;							///< length of string
  53:peripherals/usart.cpp **** 	enum _RxStatus status;					///< status of received data
  54:peripherals/usart.cpp **** 	char string[USARTx_RX_QUEUE_BUFFER_LENGTH];	///< string buffer, not null-terminated!
  55:peripherals/usart.cpp **** };
  56:peripherals/usart.cpp **** 
  57:peripherals/usart.cpp **** /// message for USART TX queue
  58:peripherals/usart.cpp **** struct _TxMessage {
  59:peripherals/usart.cpp **** 	size_t length;			///< length of string, not including trailing '\0'
  60:peripherals/usart.cpp **** 	char *string;///< pointer to null-terminated string, either in flash or in dynamic buffer
  61:peripherals/usart.cpp **** };
  62:peripherals/usart.cpp **** 
  63:peripherals/usart.cpp **** /*-------------------------------------------------------------------------------------------------
  64:peripherals/usart.cpp ****  | local functions' declarations
  65:peripherals/usart.cpp ****  +-------------------------------------------------------------------------------------------------
  66:peripherals/usart.cpp **** 
  67:peripherals/usart.cpp **** static void _rxTask(void *parameters);
  68:peripherals/usart.cpp **** static void _txTask(void *parameters);
  69:peripherals/usart.cpp **** 
  70:peripherals/usart.cpp **** /*-------------------------------------------------------------------------------------------------
  71:peripherals/usart.cpp ****  | local defines
  72:peripherals/usart.cpp ****  +-------------------------------------------------------------------------------------------------
  73:peripherals/usart.cpp **** 
  74:peripherals/usart.cpp **** #define _INPUT_BUFFER_SIZE					128
  75:peripherals/usart.cpp **** #define _OUTPUT_BUFFER_SIZE					512
  76:peripherals/usart.cpp **** 
  77:peripherals/usart.cpp **** /*-------------------------------------------------------------------------------------------------
  78:peripherals/usart.cpp ****  | local variables
  79:peripherals/usart.cpp ****  +-------------------------------------------------------------------------------------------------
  80:peripherals/usart.cpp **** 
  81:peripherals/usart.cpp **** extern char __ram_start[];					// imported from linker script
  82:peripherals/usart.cpp **** 
  83:peripherals/usart.cpp **** static xQueueHandle _rxQueue;
  84:peripherals/usart.cpp **** static xQueueHandle _txQueue;
  85:peripherals/usart.cpp **** static xSemaphoreHandle _dmaTxSemaphore;
  86:peripherals/usart.cpp **** 
  87:peripherals/usart.cpp **** static char _inputBuffer[_INPUT_BUFFER_SIZE];
  88:peripherals/usart.cpp **** static char _outputBuffer[_OUTPUT_BUFFER_SIZE];
  89:peripherals/usart.cpp **** 
  90:peripherals/usart.cpp **** /*-------------------------------------------------------------------------------------------------
  91:peripherals/usart.cpp ****  | global functions
  92:peripherals/usart.cpp ****  +-------------------------------------------------------------------------------------------------
  93:peripherals/usart.cpp **** 
  94:peripherals/usart.cpp **** /**
  95:peripherals/usart.cpp ****  * \brief Initializes USART
  96:peripherals/usart.cpp ****  *
  97:peripherals/usart.cpp ****  * Initializes USART
  98:peripherals/usart.cpp ****  *
ARM GAS  /tmp/ccSINqkc.s 			page 4


  99:peripherals/usart.cpp ****  * \return ERROR_NONE if the semaphore and queues were successfully created and
 100:peripherals/usart.cpp ****  * tasks were successfully created and added to a ready list, otherwise an error
 101:peripherals/usart.cpp ****  * code defined in the file error.h
 102:peripherals/usart.cpp ****  */
 103:peripherals/usart.cpp **** 
 104:peripherals/usart.cpp **** enum Error usartInitialize(void) {
 105:peripherals/usart.cpp **** 	gpioConfigurePin(USARTx_TX_GPIO, USARTx_TX_PIN, USARTx_TX_CONFIGURATION);
 106:peripherals/usart.cpp **** 	gpioConfigurePin(USARTx_RX_GPIO, USARTx_RX_PIN, USARTx_RX_CONFIGURATION);
 107:peripherals/usart.cpp **** 
 108:peripherals/usart.cpp **** 	RCC_APBxENR_USARTxEN_bb = 1;			// enable USART in RCC
 109:peripherals/usart.cpp **** 
 110:peripherals/usart.cpp **** 	USARTx->BRR = (rccGetCoreFrequency() + USARTx_BAUDRATE / 2)
 111:peripherals/usart.cpp **** 			/ USARTx_BAUDRATE;	// calculate baudrate (with rounding)
 112:peripherals/usart.cpp **** 	// enable peripheral, transmitter and receiver, enable RXNE interrupt
 113:peripherals/usart.cpp **** 	USARTx->CR1 = USART_CR1_UE | USART_CR1_RXNEIE | USART_CR1_TE | USART_CR1_RE;
 114:peripherals/usart.cpp **** 	USARTx->CR3 = USART_CR3_DMAT;
 115:peripherals/usart.cpp **** 
 116:peripherals/usart.cpp **** 	NVIC_SetPriority(USARTx_IRQn, USARTx_IRQ_PRIORITY);	// set USART priority
 117:peripherals/usart.cpp **** 	NVIC_EnableIRQ(USARTx_IRQn);				// enable USART IRQ
 118:peripherals/usart.cpp **** 
 119:peripherals/usart.cpp **** 	RCC_AHBENR_DMAxEN_bb = 1;				// enable DMA
 120:peripherals/usart.cpp **** 
 121:peripherals/usart.cpp **** 	NVIC_SetPriority(USARTx_DMAx_TX_CH_IRQn, USARTx_DMAx_TX_CH_IRQ_PRIORITY);// set DMA IRQ priority
 122:peripherals/usart.cpp **** 	NVIC_EnableIRQ(USARTx_DMAx_TX_CH_IRQn);	// enable IRQ
 123:peripherals/usart.cpp **** 
 124:peripherals/usart.cpp **** 	vSemaphoreCreateBinary(_dmaTxSemaphore);
 125:peripherals/usart.cpp **** 
 126:peripherals/usart.cpp **** 	if (_dmaTxSemaphore == NULL)			// semaphore not created?
 127:peripherals/usart.cpp **** 		return ERROR_FreeRTOS_errCOULD_NOT_ALLOCATE_REQUIRED_MEMORY;// return with error
 128:peripherals/usart.cpp **** 
 129:peripherals/usart.cpp **** 	_txQueue = xQueueCreate(USARTx_TX_QUEUE_LENGTH, sizeof(struct _TxMessage));
 130:peripherals/usart.cpp **** 
 131:peripherals/usart.cpp **** 	if (_txQueue == NULL)					// queue not created?
 132:peripherals/usart.cpp **** 		return ERROR_FreeRTOS_errCOULD_NOT_ALLOCATE_REQUIRED_MEMORY;// return with error
 133:peripherals/usart.cpp **** 
 134:peripherals/usart.cpp **** 	_rxQueue = xQueueCreate(USARTx_RX_QUEUE_LENGTH, sizeof(struct _RxMessage));
 135:peripherals/usart.cpp **** 
 136:peripherals/usart.cpp **** 	if (_rxQueue == NULL)					// queue not created?
 137:peripherals/usart.cpp **** 		return ERROR_FreeRTOS_errCOULD_NOT_ALLOCATE_REQUIRED_MEMORY;// return with error
 138:peripherals/usart.cpp **** 
 139:peripherals/usart.cpp **** 	portBASE_TYPE ret = xTaskCreate(_txTask, (signed char* )"USART TX",
 140:peripherals/usart.cpp **** 			USART_TX_STACK_SIZE, NULL, USART_TX_TASK_PRIORITY, NULL);
 141:peripherals/usart.cpp **** 
 142:peripherals/usart.cpp **** 	enum Error error = errorConvert_portBASE_TYPE(ret);
 143:peripherals/usart.cpp **** 
 144:peripherals/usart.cpp **** 	if (error != ERROR_NONE)
 145:peripherals/usart.cpp **** 		return error;
 146:peripherals/usart.cpp **** 
 147:peripherals/usart.cpp **** 	ret = xTaskCreate(_rxTask, (signed char* )"USART RX", USART_RX_STACK_SIZE,
 148:peripherals/usart.cpp **** 			NULL, USART_RX_TASK_PRIORITY, NULL);
 149:peripherals/usart.cpp **** 
 150:peripherals/usart.cpp **** 	error = errorConvert_portBASE_TYPE(ret);
 151:peripherals/usart.cpp **** 
 152:peripherals/usart.cpp **** 	return error;
 153:peripherals/usart.cpp **** }
 154:peripherals/usart.cpp **** 
 155:peripherals/usart.cpp **** /**
ARM GAS  /tmp/ccSINqkc.s 			page 5


 156:peripherals/usart.cpp ****  * \brief Sends one formatted string via USART.
 157:peripherals/usart.cpp ****  *
 158:peripherals/usart.cpp ****  * Sends one formatted string via USART.
 159:peripherals/usart.cpp ****  *
 160:peripherals/usart.cpp ****  * \param [in] ticks_to_wait is the amount of time the call should block while waiting for the oper
 161:peripherals/usart.cpp ****  * portMAX_DELAY to suspend
 162:peripherals/usart.cpp ****  * \param [in] string is a format string, printf() style
 163:peripherals/usart.cpp ****  *
 164:peripherals/usart.cpp ****  * \return ERROR_NONE on success, otherwise an error code defined in the file error.h
 165:peripherals/usart.cpp ****  */
 166:peripherals/usart.cpp **** 
 167:peripherals/usart.cpp **** enum Error usartPrintf(portTickType ticks_to_wait, const char *format, ...) {
 168:peripherals/usart.cpp **** 	char *buffer = (char*) pvPortMalloc(strlen(format) * 2);
 169:peripherals/usart.cpp **** 
 170:peripherals/usart.cpp **** 	if (buffer == NULL)
 171:peripherals/usart.cpp **** 		return ERROR_FreeRTOS_errCOULD_NOT_ALLOCATE_REQUIRED_MEMORY;
 172:peripherals/usart.cpp **** 
 173:peripherals/usart.cpp **** 	va_list args;
 174:peripherals/usart.cpp **** 
 175:peripherals/usart.cpp **** 	va_start(args, format);
 176:peripherals/usart.cpp **** 
 177:peripherals/usart.cpp **** 	vsprintf(buffer, format, args);
 178:peripherals/usart.cpp **** 
 179:peripherals/usart.cpp **** 	enum Error error = usartSendString(buffer, ticks_to_wait);
 180:peripherals/usart.cpp **** 
 181:peripherals/usart.cpp **** 	vPortFree(buffer);
 182:peripherals/usart.cpp **** 
 183:peripherals/usart.cpp **** 	return error;
 184:peripherals/usart.cpp **** }
 185:peripherals/usart.cpp **** 
 186:peripherals/usart.cpp **** /**
 187:peripherals/usart.cpp ****  * \brief Low-level character print.
 188:peripherals/usart.cpp ****  *
 189:peripherals/usart.cpp ****  * Low-level character print. Should be used for debugging only.
 190:peripherals/usart.cpp ****  *
 191:peripherals/usart.cpp ****  * \param [in] c is the character that will be printed
 192:peripherals/usart.cpp ****  */
 193:peripherals/usart.cpp **** 
 194:peripherals/usart.cpp **** void usartSendCharacter(char c) {
 195:peripherals/usart.cpp **** 	while (!(USARTx_SR_TXE_bb(USARTx)))
 196:peripherals/usart.cpp **** 		;
 197:peripherals/usart.cpp **** 	USARTx->DR = c;
 198:peripherals/usart.cpp **** }
 199:peripherals/usart.cpp **** 
 200:peripherals/usart.cpp **** /**
 201:peripherals/usart.cpp ****  * \brief Adds one string to UART TX queue.
 202:peripherals/usart.cpp ****  *
 203:peripherals/usart.cpp ****  * Adds one string to UART TX queue. Calling task should have read-only access to shared_data secti
 204:peripherals/usart.cpp ****  *
 205:peripherals/usart.cpp ****  * \param [in] string is the pointer to zero terminated string
 206:peripherals/usart.cpp ****  * \param [in] ticks_to_wait is the amount of time the call should block while waiting for the oper
 207:peripherals/usart.cpp ****  * portMAX_DELAY to suspend
 208:peripherals/usart.cpp ****  *
 209:peripherals/usart.cpp ****  * \return ERROR_NONE on success, otherwise an error code defined in the file error.h
 210:peripherals/usart.cpp ****  */
 211:peripherals/usart.cpp **** 
 212:peripherals/usart.cpp **** enum Error usartSendString(const char *string, portTickType ticks_to_wait) {
ARM GAS  /tmp/ccSINqkc.s 			page 6


 213:peripherals/usart.cpp **** 	struct _TxMessage message;
 214:peripherals/usart.cpp **** 
 215:peripherals/usart.cpp **** 	message.length = strlen(string);
 216:peripherals/usart.cpp **** 
 217:peripherals/usart.cpp **** 	if (message.length == 0)
 218:peripherals/usart.cpp **** 		return ERROR_NONE;
 219:peripherals/usart.cpp **** 
 220:peripherals/usart.cpp **** 	if (string >= __ram_start)				// is the string in RAM?
 221:peripherals/usart.cpp **** 			{
 222:peripherals/usart.cpp **** 		message.string = (char*) pvPortMalloc(message.length);
 223:peripherals/usart.cpp **** 		if (message.string == NULL)
 224:peripherals/usart.cpp **** 			return ERROR_FreeRTOS_errCOULD_NOT_ALLOCATE_REQUIRED_MEMORY;
 225:peripherals/usart.cpp **** 
 226:peripherals/usart.cpp **** 		memcpy(message.string, string, message.length);
 227:peripherals/usart.cpp **** 	} else
 228:peripherals/usart.cpp **** 		message.string = (char*) string;// no, string in ROM - just use the address
 229:peripherals/usart.cpp **** 
 230:peripherals/usart.cpp **** 	portBASE_TYPE ret = xQueueSend(_txQueue, &message, ticks_to_wait);
 231:peripherals/usart.cpp **** 
 232:peripherals/usart.cpp **** 	enum Error error = errorConvert_portBASE_TYPE(ret);
 233:peripherals/usart.cpp **** 
 234:peripherals/usart.cpp **** 	if (error != ERROR_NONE)
 235:peripherals/usart.cpp **** 		if (message.string >= __ram_start)				// is the string in RAM?
 236:peripherals/usart.cpp **** 			vPortFree(message.string);
 237:peripherals/usart.cpp **** 
 238:peripherals/usart.cpp **** 	return error;
 239:peripherals/usart.cpp **** }
 240:peripherals/usart.cpp **** 
 241:peripherals/usart.cpp **** /*-------------------------------------------------------------------------------------------------
 242:peripherals/usart.cpp ****  | local functions
 243:peripherals/usart.cpp ****  +-------------------------------------------------------------------------------------------------
 244:peripherals/usart.cpp **** 
 245:peripherals/usart.cpp **** /**
 246:peripherals/usart.cpp ****  * \brief USART RX task.
 247:peripherals/usart.cpp ****  *
 248:peripherals/usart.cpp ****  * USART RX task - handles input.
 249:peripherals/usart.cpp ****  */
 250:peripherals/usart.cpp **** 
 251:peripherals/usart.cpp **** static void _rxTask(void *parameters) {
 252:peripherals/usart.cpp **** 	size_t input_length = 0;
 253:peripherals/usart.cpp **** 
 254:peripherals/usart.cpp **** 	(void) parameters;						// suppress warning
 255:peripherals/usart.cpp **** 
 256:peripherals/usart.cpp **** 	while (1) {
 257:peripherals/usart.cpp **** 		struct _RxMessage message;
 258:peripherals/usart.cpp **** 
 259:peripherals/usart.cpp **** 		xQueueReceive(_rxQueue, &message, portMAX_DELAY);
 260:peripherals/usart.cpp **** 
 261:peripherals/usart.cpp **** 		if ((_INPUT_BUFFER_SIZE - 1) < (message.length + input_length))	// does input fit into buffer?
 262:peripherals/usart.cpp **** 				{									// no - reset sequence
 263:peripherals/usart.cpp **** 			usartSendString(
 264:peripherals/usart.cpp **** 					"ERROR: input is longer than buffer length! (" __FILE__ ":" STRINGIZE(__LINE__) ")\r\n",
 265:peripherals/usart.cpp **** 					0);
 266:peripherals/usart.cpp **** 			input_length = 0;
 267:peripherals/usart.cpp **** 			continue;
 268:peripherals/usart.cpp **** 		}
 269:peripherals/usart.cpp **** 
ARM GAS  /tmp/ccSINqkc.s 			page 7


 270:peripherals/usart.cpp **** 		memcpy(&_inputBuffer[input_length], message.string, message.length);
 271:peripherals/usart.cpp **** 		input_length += message.length;
 272:peripherals/usart.cpp **** 
 273:peripherals/usart.cpp **** 		if (message.status == RX_STATUS_HAD_CR_LF)// is the message complete (terminated with "\r\n" sequ
 274:peripherals/usart.cpp **** 				{									// yes - start processing
 275:peripherals/usart.cpp **** 			_inputBuffer[input_length] = '\0';	// terminate input string
 276:peripherals/usart.cpp **** 
 277:peripherals/usart.cpp **** 			enum Error error = commandProcessInput(_inputBuffer, _outputBuffer,
 278:peripherals/usart.cpp **** 			_OUTPUT_BUFFER_SIZE);	// process input
 279:peripherals/usart.cpp **** 
 280:peripherals/usart.cpp **** 			if (error == ERROR_NONE)		// input processed successfully?
 281:peripherals/usart.cpp **** 				usartSendString(_outputBuffer, 0);
 282:peripherals/usart.cpp **** 			else
 283:peripherals/usart.cpp **** 				// input processing error
 284:peripherals/usart.cpp **** 				usartPrintf(0,
 285:peripherals/usart.cpp **** 						"ERROR: command handler execution failed with code %d! (" __FILE__ ":" STRINGIZE(__LINE__) ")
 286:peripherals/usart.cpp **** 						error);
 287:peripherals/usart.cpp **** 
 288:peripherals/usart.cpp **** 			input_length = 0;				// reset sequence
 289:peripherals/usart.cpp **** 		}
 290:peripherals/usart.cpp **** 
 291:peripherals/usart.cpp **** 	}
 292:peripherals/usart.cpp **** }
 293:peripherals/usart.cpp **** 
 294:peripherals/usart.cpp **** /**
 295:peripherals/usart.cpp ****  * \brief USART TX task.
 296:peripherals/usart.cpp ****  *
 297:peripherals/usart.cpp ****  * USART TX task - handles output.
 298:peripherals/usart.cpp ****  */
 299:peripherals/usart.cpp **** 
 300:peripherals/usart.cpp **** static void _txTask(void *parameters) {
  74              		.loc 1 300 0
  75              		.cfi_startproc
  76              		@ args = 0, pretend = 0, frame = 8
  77              		@ frame_needed = 0, uses_anonymous_args = 0
  78              	.LVL0:
  79 0000 13B5     		push	{r0, r1, r4, lr}	@
  80              	.LCFI0:
  81              		.cfi_def_cfa_offset 16
  82              		.cfi_offset 0, -16
  83              		.cfi_offset 1, -12
  84              		.cfi_offset 4, -8
  85              		.cfi_offset 14, -4
 301:peripherals/usart.cpp **** 	char *previous_string = NULL;
  86              		.loc 1 301 0
  87 0002 0024     		movs	r4, #0	@ previous_string,
  88              	.LVL1:
  89              	.L3:
  90              	.LBB10:
  91              	.LBB11:
 302:peripherals/usart.cpp **** 
 303:peripherals/usart.cpp **** 	(void) parameters;						// suppress warning
 304:peripherals/usart.cpp **** 
 305:peripherals/usart.cpp **** 	while (1) {
 306:peripherals/usart.cpp **** 		struct _TxMessage message;
 307:peripherals/usart.cpp **** 
 308:peripherals/usart.cpp **** 		xQueueReceive(_txQueue, &message, portMAX_DELAY);	// get data to send
ARM GAS  /tmp/ccSINqkc.s 			page 8


  92              		.loc 1 308 0
  93 0004 104B     		ldr	r3, .L5	@ tmp140,
  94 0006 6946     		mov	r1, sp	@,
  95 0008 1868     		ldr	r0, [r3, #0]	@, _txQueue
  96 000a 4FF0FF32 		mov	r2, #-1	@,
  97 000e 0023     		movs	r3, #0	@,
  98 0010 FFF7FEFF 		bl	xQueueGenericReceive	@
  99              	.LVL2:
 309:peripherals/usart.cpp **** 
 310:peripherals/usart.cpp **** 		xSemaphoreTake(_dmaTxSemaphore, portMAX_DELAY);	// wait for DMA to be free
 100              		.loc 1 310 0
 101 0014 0D48     		ldr	r0, .L5+4	@ tmp142,
 102 0016 0021     		movs	r1, #0	@,
 103 0018 0B46     		mov	r3, r1	@,
 104 001a 0068     		ldr	r0, [r0, #0]	@, _dmaTxSemaphore
 105 001c 4FF0FF32 		mov	r2, #-1	@,
 106 0020 FFF7FEFF 		bl	xQueueGenericReceive	@
 107              	.LVL3:
 311:peripherals/usart.cpp **** 
 312:peripherals/usart.cpp **** 		if (previous_string >= __ram_start)	// was the previously used string in RAM?
 108              		.loc 1 312 0
 109 0024 0A49     		ldr	r1, .L5+8	@ tmp143,
 110 0026 8C42     		cmp	r4, r1	@ previous_string, tmp143
 111 0028 02D3     		bcc	.L2	@,
 313:peripherals/usart.cpp **** 			vPortFree(previous_string);		// yes - free the temporary buffer
 112              		.loc 1 313 0
 113 002a 2046     		mov	r0, r4	@, previous_string
 114 002c FFF7FEFF 		bl	vPortFree	@
 115              	.LVL4:
 116              	.L2:
 314:peripherals/usart.cpp **** 
 315:peripherals/usart.cpp **** 		USARTx_DMAx_TX_CH->CCR = 0;				// disable channel
 117              		.loc 1 315 0
 118 0030 084B     		ldr	r3, .L5+12	@ tmp144,
 316:peripherals/usart.cpp **** 		USARTx_DMAx_TX_CH->CMAR = (uint32_t) message.string;	// source
 119              		.loc 1 316 0
 120 0032 019C     		ldr	r4, [sp, #4]	@ previous_string, message.string
 121              	.LVL5:
 315:peripherals/usart.cpp **** 		USARTx_DMAx_TX_CH->CCR = 0;				// disable channel
 122              		.loc 1 315 0
 123 0034 0022     		movs	r2, #0	@ tmp145,
 317:peripherals/usart.cpp **** 		USARTx_DMAx_TX_CH->CPAR = (uint32_t) & USARTx->DR;	// destination
 318:peripherals/usart.cpp **** 		USARTx_DMAx_TX_CH->CNDTR = message.length;	// length
 124              		.loc 1 318 0
 125 0036 0099     		ldr	r1, [sp, #0]	@ D.7617, message.length
 317:peripherals/usart.cpp **** 		USARTx_DMAx_TX_CH->CPAR = (uint32_t) & USARTx->DR;	// destination
 126              		.loc 1 317 0
 127 0038 0748     		ldr	r0, .L5+16	@ tmp148,
 315:peripherals/usart.cpp **** 		USARTx_DMAx_TX_CH->CCR = 0;				// disable channel
 128              		.loc 1 315 0
 129 003a 1A60     		str	r2, [r3, #0]	@ tmp145, MEM[(struct DMA_Channel_TypeDef *)1073897540B].CCR
 319:peripherals/usart.cpp **** 		// low priority, 8-bit source and destination, memory increment mode, memory to peripheral, trans
 320:peripherals/usart.cpp **** 		// interrupt enable, enable channel
 321:peripherals/usart.cpp **** 		USARTx_DMAx_TX_CH->CCR = DMA_CCR_PL_LOW | DMA_CCR_MSIZE_8
 322:peripherals/usart.cpp **** 				| DMA_CCR_PSIZE_8 | DMA_CCR_MINC | DMA_CCR_DIR |
 323:peripherals/usart.cpp **** 				DMA_CCR_TCIE | DMA_CCR_EN;
 130              		.loc 1 323 0
ARM GAS  /tmp/ccSINqkc.s 			page 9


 131 003c 9322     		movs	r2, #147	@ tmp151,
 316:peripherals/usart.cpp **** 		USARTx_DMAx_TX_CH->CMAR = (uint32_t) message.string;	// source
 132              		.loc 1 316 0
 133 003e DC60     		str	r4, [r3, #12]	@ previous_string, MEM[(struct DMA_Channel_TypeDef *)1073897540B].CMAR
 317:peripherals/usart.cpp **** 		USARTx_DMAx_TX_CH->CPAR = (uint32_t) & USARTx->DR;	// destination
 134              		.loc 1 317 0
 135 0040 9860     		str	r0, [r3, #8]	@ tmp148, MEM[(struct DMA_Channel_TypeDef *)1073897540B].CPAR
 318:peripherals/usart.cpp **** 		USARTx_DMAx_TX_CH->CNDTR = message.length;	// length
 136              		.loc 1 318 0
 137 0042 5960     		str	r1, [r3, #4]	@ D.7617, MEM[(struct DMA_Channel_TypeDef *)1073897540B].CNDTR
 138              		.loc 1 323 0
 139 0044 1A60     		str	r2, [r3, #0]	@ tmp151, MEM[(struct DMA_Channel_TypeDef *)1073897540B].CCR
 140              	.LVL6:
 141              	.LBE11:
 305:peripherals/usart.cpp **** 	while (1) {
 142              		.loc 1 305 0
 143 0046 DDE7     		b	.L3	@
 144              	.L6:
 145              		.align	2
 146              	.L5:
 147 0048 00000000 		.word	.LANCHOR0
 148 004c 00000000 		.word	.LANCHOR1
 149 0050 00000000 		.word	__ram_start
 150 0054 44600240 		.word	1073897540
 151 0058 04380140 		.word	1073821700
 152              	.LBE10:
 153              		.cfi_endproc
 154              	.LFE62:
 155              		.size	_ZL7_txTaskPv, .-_ZL7_txTaskPv
 156              		.section	.text._Z15usartInitializev,"ax",%progbits
 157              		.align	1
 158              		.global	_Z15usartInitializev
 159              		.thumb
 160              		.thumb_func
 161              		.type	_Z15usartInitializev, %function
 162              	_Z15usartInitializev:
 163              	.LFB57:
 104:peripherals/usart.cpp **** enum Error usartInitialize(void) {
 164              		.loc 1 104 0
 165              		.cfi_startproc
 166              		@ args = 0, pretend = 0, frame = 0
 167              		@ frame_needed = 0, uses_anonymous_args = 0
 168 0000 1FB5     		push	{r0, r1, r2, r3, r4, lr}	@
 169              	.LCFI1:
 170              		.cfi_def_cfa_offset 24
 171              		.cfi_offset 0, -24
 172              		.cfi_offset 1, -20
 173              		.cfi_offset 2, -16
 174              		.cfi_offset 3, -12
 175              		.cfi_offset 4, -8
 176              		.cfi_offset 14, -4
 177              	.LBB25:
 105:peripherals/usart.cpp **** 	gpioConfigurePin(USARTx_TX_GPIO, USARTx_TX_PIN, USARTx_TX_CONFIGURATION);
 178              		.loc 1 105 0
 179 0002 3548     		ldr	r0, .L21	@,
 180 0004 0921     		movs	r1, #9	@,
 181 0006 354A     		ldr	r2, .L21+4	@,
ARM GAS  /tmp/ccSINqkc.s 			page 10


 182 0008 FFF7FEFF 		bl	_Z16gpioConfigurePinP12GPIO_TypeDef7GpioPin17GpioConfiguration	@
 183              	.LVL7:
 106:peripherals/usart.cpp **** 	gpioConfigurePin(USARTx_RX_GPIO, USARTx_RX_PIN, USARTx_RX_CONFIGURATION);
 184              		.loc 1 106 0
 185 000c 0A21     		movs	r1, #10	@,
 186 000e 334A     		ldr	r2, .L21+4	@,
 187 0010 3148     		ldr	r0, .L21	@,
 188 0012 FFF7FEFF 		bl	_Z16gpioConfigurePinP12GPIO_TypeDef7GpioPin17GpioConfiguration	@
 189              	.LVL8:
 108:peripherals/usart.cpp **** 	RCC_APBxENR_USARTxEN_bb = 1;			// enable USART in RCC
 190              		.loc 1 108 0
 191 0016 324B     		ldr	r3, .L21+8	@ tmp154,
 192 0018 0124     		movs	r4, #1	@ tmp155,
 193 001a 1C60     		str	r4, [r3, #0]	@ tmp155, MEM[(volatile long unsigned int *)1111950392B]
 110:peripherals/usart.cpp **** 	USARTx->BRR = (rccGetCoreFrequency() + USARTx_BAUDRATE / 2)
 194              		.loc 1 110 0
 195 001c FFF7FEFF 		bl	rccGetCoreFrequency	@
 196              	.LVL9:
 111:peripherals/usart.cpp **** 			/ USARTx_BAUDRATE;	// calculate baudrate (with rounding)
 197              		.loc 1 111 0
 198 0020 4FF4E131 		mov	r1, #115200	@ tmp159,
 199 0024 00F56140 		add	r0, r0, #57600	@ tmp156,,
 200 0028 2E4B     		ldr	r3, .L21+12	@ tmp160,
 201 002a B0FBF1F2 		udiv	r2, r0, r1	@ tmp158, tmp156, tmp159
 202 002e 90B2     		uxth	r0, r2	@ D.7546, tmp158
 113:peripherals/usart.cpp **** 	USARTx->CR1 = USART_CR1_UE | USART_CR1_RXNEIE | USART_CR1_TE | USART_CR1_RE;
 203              		.loc 1 113 0
 204 0030 42F22C01 		movw	r1, #8236	@ tmp164,
 114:peripherals/usart.cpp **** 	USARTx->CR3 = USART_CR3_DMAT;
 205              		.loc 1 114 0
 206 0034 8022     		movs	r2, #128	@ tmp167,
 111:peripherals/usart.cpp **** 			/ USARTx_BAUDRATE;	// calculate baudrate (with rounding)
 207              		.loc 1 111 0
 208 0036 1881     		strh	r0, [r3, #8]	@ movhi	@ D.7546, MEM[(struct USART_TypeDef *)1073821696B].BRR
 113:peripherals/usart.cpp **** 	USARTx->CR1 = USART_CR1_UE | USART_CR1_RXNEIE | USART_CR1_TE | USART_CR1_RE;
 209              		.loc 1 113 0
 210 0038 9981     		strh	r1, [r3, #12]	@ movhi	@ tmp164, MEM[(struct USART_TypeDef *)1073821696B].CR1
 211              	.LBB26:
 212              	.LBB27:
 213              		.file 2 "./inc/core_cm3.h"
   1:./inc/core_cm3.h **** /**************************************************************************//**
   2:./inc/core_cm3.h ****  * @file     core_cm3.h
   3:./inc/core_cm3.h ****  * @brief    CMSIS Cortex-M3 Core Peripheral Access Layer Header File
   4:./inc/core_cm3.h ****  * @version  V2.10
   5:./inc/core_cm3.h ****  * @date     19. July 2011
   6:./inc/core_cm3.h ****  *
   7:./inc/core_cm3.h ****  * @note
   8:./inc/core_cm3.h ****  * Copyright (C) 2009-2011 ARM Limited. All rights reserved.
   9:./inc/core_cm3.h ****  *
  10:./inc/core_cm3.h ****  * @par
  11:./inc/core_cm3.h ****  * ARM Limited (ARM) is supplying this software for use with Cortex-M
  12:./inc/core_cm3.h ****  * processor based microcontrollers.  This file can be freely distributed
  13:./inc/core_cm3.h ****  * within development tools that are supporting such ARM based processors.
  14:./inc/core_cm3.h ****  *
  15:./inc/core_cm3.h ****  * @par
  16:./inc/core_cm3.h ****  * THIS SOFTWARE IS PROVIDED "AS IS".  NO WARRANTIES, WHETHER EXPRESS, IMPLIED
  17:./inc/core_cm3.h ****  * OR STATUTORY, INCLUDING, BUT NOT LIMITED TO, IMPLIED WARRANTIES OF
ARM GAS  /tmp/ccSINqkc.s 			page 11


  18:./inc/core_cm3.h ****  * MERCHANTABILITY AND FITNESS FOR A PARTICULAR PURPOSE APPLY TO THIS SOFTWARE.
  19:./inc/core_cm3.h ****  * ARM SHALL NOT, IN ANY CIRCUMSTANCES, BE LIABLE FOR SPECIAL, INCIDENTAL, OR
  20:./inc/core_cm3.h ****  * CONSEQUENTIAL DAMAGES, FOR ANY REASON WHATSOEVER.
  21:./inc/core_cm3.h ****  *
  22:./inc/core_cm3.h ****  ******************************************************************************/
  23:./inc/core_cm3.h **** #if defined ( __ICCARM__ )
  24:./inc/core_cm3.h ****  #pragma system_include  /* treat file as system include file for MISRA check */
  25:./inc/core_cm3.h **** #endif
  26:./inc/core_cm3.h **** 
  27:./inc/core_cm3.h **** #ifdef __cplusplus
  28:./inc/core_cm3.h ****  extern "C" {
  29:./inc/core_cm3.h **** #endif
  30:./inc/core_cm3.h **** 
  31:./inc/core_cm3.h **** #ifndef __CORE_CM3_H_GENERIC
  32:./inc/core_cm3.h **** #define __CORE_CM3_H_GENERIC
  33:./inc/core_cm3.h **** 
  34:./inc/core_cm3.h **** 
  35:./inc/core_cm3.h **** /** \mainpage CMSIS Cortex-M3
  36:./inc/core_cm3.h **** 
  37:./inc/core_cm3.h ****   This documentation describes the CMSIS Cortex-M Core Peripheral Access Layer.
  38:./inc/core_cm3.h ****   It consists of:
  39:./inc/core_cm3.h **** 
  40:./inc/core_cm3.h ****      - Cortex-M Core Register Definitions
  41:./inc/core_cm3.h ****      - Cortex-M functions
  42:./inc/core_cm3.h ****      - Cortex-M instructions
  43:./inc/core_cm3.h **** 
  44:./inc/core_cm3.h ****   The CMSIS Cortex-M3 Core Peripheral Access Layer contains C and assembly functions that ease
  45:./inc/core_cm3.h ****   access to the Cortex-M Core
  46:./inc/core_cm3.h ****  */
  47:./inc/core_cm3.h **** 
  48:./inc/core_cm3.h **** /** \defgroup CMSIS_MISRA_Exceptions  CMSIS MISRA-C:2004 Compliance Exceptions
  49:./inc/core_cm3.h ****   CMSIS violates following MISRA-C2004 Rules:
  50:./inc/core_cm3.h ****   
  51:./inc/core_cm3.h ****    - Violates MISRA 2004 Required Rule 8.5, object/function definition in header file.<br>
  52:./inc/core_cm3.h ****      Function definitions in header files are used to allow 'inlining'. 
  53:./inc/core_cm3.h **** 
  54:./inc/core_cm3.h ****    - Violates MISRA 2004 Required Rule 18.4, declaration of union type or object of union type: '{.
  55:./inc/core_cm3.h ****      Unions are used for effective representation of core registers.
  56:./inc/core_cm3.h ****    
  57:./inc/core_cm3.h ****    - Violates MISRA 2004 Advisory Rule 19.7, Function-like macro defined.<br>
  58:./inc/core_cm3.h ****      Function-like macros are used to allow more efficient code. 
  59:./inc/core_cm3.h **** 
  60:./inc/core_cm3.h ****  */
  61:./inc/core_cm3.h **** 
  62:./inc/core_cm3.h **** 
  63:./inc/core_cm3.h **** /*******************************************************************************
  64:./inc/core_cm3.h ****  *                 CMSIS definitions
  65:./inc/core_cm3.h ****  ******************************************************************************/
  66:./inc/core_cm3.h **** /** \defgroup CMSIS_core_definitions CMSIS Core Definitions
  67:./inc/core_cm3.h ****   This file defines all structures and symbols for CMSIS core:
  68:./inc/core_cm3.h ****    - CMSIS version number
  69:./inc/core_cm3.h ****    - Cortex-M core
  70:./inc/core_cm3.h ****    - Cortex-M core Revision Number
  71:./inc/core_cm3.h ****   @{
  72:./inc/core_cm3.h ****  */
  73:./inc/core_cm3.h **** 
  74:./inc/core_cm3.h **** /*  CMSIS CM3 definitions */
ARM GAS  /tmp/ccSINqkc.s 			page 12


  75:./inc/core_cm3.h **** #define __CM3_CMSIS_VERSION_MAIN  (0x02)                                                       /*!<
  76:./inc/core_cm3.h **** #define __CM3_CMSIS_VERSION_SUB   (0x10)                                                       /*!<
  77:./inc/core_cm3.h **** #define __CM3_CMSIS_VERSION       ((__CM3_CMSIS_VERSION_MAIN << 16) | __CM3_CMSIS_VERSION_SUB) /*!<
  78:./inc/core_cm3.h **** 
  79:./inc/core_cm3.h **** #define __CORTEX_M                (0x03)                                                       /*!<
  80:./inc/core_cm3.h **** 
  81:./inc/core_cm3.h **** 
  82:./inc/core_cm3.h **** #if   defined ( __CC_ARM )
  83:./inc/core_cm3.h ****   #define __ASM            __asm                                      /*!< asm keyword for ARM Comp
  84:./inc/core_cm3.h ****   #define __INLINE         __inline                                   /*!< inline keyword for ARM C
  85:./inc/core_cm3.h **** 
  86:./inc/core_cm3.h **** #elif defined ( __ICCARM__ )
  87:./inc/core_cm3.h ****   #define __ASM           __asm                                       /*!< asm keyword for IAR Comp
  88:./inc/core_cm3.h ****   #define __INLINE        inline                                      /*!< inline keyword for IAR C
  89:./inc/core_cm3.h **** 
  90:./inc/core_cm3.h **** #elif defined ( __GNUC__ )
  91:./inc/core_cm3.h ****   #define __ASM            __asm                                      /*!< asm keyword for GNU Comp
  92:./inc/core_cm3.h ****   #define __INLINE         inline                                     /*!< inline keyword for GNU C
  93:./inc/core_cm3.h **** 
  94:./inc/core_cm3.h **** #elif defined ( __TASKING__ )
  95:./inc/core_cm3.h ****   #define __ASM            __asm                                      /*!< asm keyword for TASKING 
  96:./inc/core_cm3.h ****   #define __INLINE         inline                                     /*!< inline keyword for TASKI
  97:./inc/core_cm3.h **** 
  98:./inc/core_cm3.h **** #endif
  99:./inc/core_cm3.h **** 
 100:./inc/core_cm3.h **** /*!< __FPU_USED to be checked prior to making use of FPU specific registers and functions */
 101:./inc/core_cm3.h **** #define __FPU_USED       0
 102:./inc/core_cm3.h **** 
 103:./inc/core_cm3.h **** #if defined ( __CC_ARM )
 104:./inc/core_cm3.h ****   #if defined __TARGET_FPU_VFP
 105:./inc/core_cm3.h ****     #warning "Compiler generates FPU instructions for a device without an FPU (check __FPU_PRESENT)
 106:./inc/core_cm3.h ****   #endif
 107:./inc/core_cm3.h **** #elif defined ( __ICCARM__ )
 108:./inc/core_cm3.h ****   #if defined __ARMVFP__
 109:./inc/core_cm3.h ****     #warning "Compiler generates FPU instructions for a device without an FPU (check __FPU_PRESENT)
 110:./inc/core_cm3.h ****   #endif
 111:./inc/core_cm3.h **** 
 112:./inc/core_cm3.h **** #elif defined ( __GNUC__ )
 113:./inc/core_cm3.h ****   #if defined (__VFP_FP__) && !defined(__SOFTFP__)
 114:./inc/core_cm3.h ****     #warning "Compiler generates FPU instructions for a device without an FPU (check __FPU_PRESENT)
 115:./inc/core_cm3.h ****   #endif
 116:./inc/core_cm3.h **** 
 117:./inc/core_cm3.h **** #elif defined ( __TASKING__ )
 118:./inc/core_cm3.h ****     /* add preprocessor checks */
 119:./inc/core_cm3.h **** #endif
 120:./inc/core_cm3.h **** 
 121:./inc/core_cm3.h **** #include <stdint.h>                      /*!< standard types definitions                      */
 122:./inc/core_cm3.h **** #include "core_cmInstr.h"                /*!< Core Instruction Access                         */
 123:./inc/core_cm3.h **** #include "core_cmFunc.h"                 /*!< Core Function Access                            */
 124:./inc/core_cm3.h **** 
 125:./inc/core_cm3.h **** #endif /* __CORE_CM3_H_GENERIC */
 126:./inc/core_cm3.h **** 
 127:./inc/core_cm3.h **** #ifndef __CMSIS_GENERIC
 128:./inc/core_cm3.h **** 
 129:./inc/core_cm3.h **** #ifndef __CORE_CM3_H_DEPENDANT
 130:./inc/core_cm3.h **** #define __CORE_CM3_H_DEPENDANT
 131:./inc/core_cm3.h **** 
ARM GAS  /tmp/ccSINqkc.s 			page 13


 132:./inc/core_cm3.h **** /* check device defines and use defaults */
 133:./inc/core_cm3.h **** #if defined __CHECK_DEVICE_DEFINES
 134:./inc/core_cm3.h ****   #ifndef __CM3_REV
 135:./inc/core_cm3.h ****     #define __CM3_REV               0x0200
 136:./inc/core_cm3.h ****     #warning "__CM3_REV not defined in device header file; using default!"
 137:./inc/core_cm3.h ****   #endif
 138:./inc/core_cm3.h **** 
 139:./inc/core_cm3.h ****   #ifndef __MPU_PRESENT
 140:./inc/core_cm3.h ****     #define __MPU_PRESENT             0
 141:./inc/core_cm3.h ****     #warning "__MPU_PRESENT not defined in device header file; using default!"
 142:./inc/core_cm3.h ****   #endif
 143:./inc/core_cm3.h **** 
 144:./inc/core_cm3.h ****   #ifndef __NVIC_PRIO_BITS
 145:./inc/core_cm3.h ****     #define __NVIC_PRIO_BITS          4
 146:./inc/core_cm3.h ****     #warning "__NVIC_PRIO_BITS not defined in device header file; using default!"
 147:./inc/core_cm3.h ****   #endif
 148:./inc/core_cm3.h **** 
 149:./inc/core_cm3.h ****   #ifndef __Vendor_SysTickConfig
 150:./inc/core_cm3.h ****     #define __Vendor_SysTickConfig    0
 151:./inc/core_cm3.h ****     #warning "__Vendor_SysTickConfig not defined in device header file; using default!"
 152:./inc/core_cm3.h ****   #endif
 153:./inc/core_cm3.h **** #endif
 154:./inc/core_cm3.h **** 
 155:./inc/core_cm3.h **** /* IO definitions (access restrictions to peripheral registers) */
 156:./inc/core_cm3.h **** #ifdef __cplusplus
 157:./inc/core_cm3.h ****   #define   __I     volatile             /*!< defines 'read only' permissions                 */
 158:./inc/core_cm3.h **** #else
 159:./inc/core_cm3.h ****   #define   __I     volatile const       /*!< defines 'read only' permissions                 */
 160:./inc/core_cm3.h **** #endif
 161:./inc/core_cm3.h **** #define     __O     volatile             /*!< defines 'write only' permissions                */
 162:./inc/core_cm3.h **** #define     __IO    volatile             /*!< defines 'read / write' permissions              */
 163:./inc/core_cm3.h **** 
 164:./inc/core_cm3.h **** /*@} end of group CMSIS_core_definitions */
 165:./inc/core_cm3.h **** 
 166:./inc/core_cm3.h **** 
 167:./inc/core_cm3.h **** 
 168:./inc/core_cm3.h **** /*******************************************************************************
 169:./inc/core_cm3.h ****  *                 Register Abstraction
 170:./inc/core_cm3.h ****  ******************************************************************************/
 171:./inc/core_cm3.h **** /** \defgroup CMSIS_core_register CMSIS Core Register
 172:./inc/core_cm3.h ****   Core Register contain:
 173:./inc/core_cm3.h ****   - Core Register
 174:./inc/core_cm3.h ****   - Core NVIC Register
 175:./inc/core_cm3.h ****   - Core SCB Register
 176:./inc/core_cm3.h ****   - Core SysTick Register
 177:./inc/core_cm3.h ****   - Core Debug Register
 178:./inc/core_cm3.h ****   - Core MPU Register
 179:./inc/core_cm3.h **** */
 180:./inc/core_cm3.h **** 
 181:./inc/core_cm3.h **** /** \ingroup  CMSIS_core_register
 182:./inc/core_cm3.h ****     \defgroup CMSIS_CORE CMSIS Core
 183:./inc/core_cm3.h ****   Type definitions for the Cortex-M Core Registers
 184:./inc/core_cm3.h ****   @{
 185:./inc/core_cm3.h ****  */
 186:./inc/core_cm3.h **** 
 187:./inc/core_cm3.h **** /** \brief  Union type to access the Application Program Status Register (APSR).
 188:./inc/core_cm3.h ****  */
ARM GAS  /tmp/ccSINqkc.s 			page 14


 189:./inc/core_cm3.h **** typedef union
 190:./inc/core_cm3.h **** {
 191:./inc/core_cm3.h ****   struct
 192:./inc/core_cm3.h ****   {
 193:./inc/core_cm3.h **** #if (__CORTEX_M != 0x04)
 194:./inc/core_cm3.h ****     uint32_t _reserved0:27;              /*!< bit:  0..26  Reserved                           */
 195:./inc/core_cm3.h **** #else
 196:./inc/core_cm3.h ****     uint32_t _reserved0:16;              /*!< bit:  0..15  Reserved                           */
 197:./inc/core_cm3.h ****     uint32_t GE:4;                       /*!< bit: 16..19  Greater than or Equal flags        */
 198:./inc/core_cm3.h ****     uint32_t _reserved1:7;               /*!< bit: 20..26  Reserved                           */
 199:./inc/core_cm3.h **** #endif
 200:./inc/core_cm3.h ****     uint32_t Q:1;                        /*!< bit:     27  Saturation condition flag          */
 201:./inc/core_cm3.h ****     uint32_t V:1;                        /*!< bit:     28  Overflow condition code flag       */
 202:./inc/core_cm3.h ****     uint32_t C:1;                        /*!< bit:     29  Carry condition code flag          */
 203:./inc/core_cm3.h ****     uint32_t Z:1;                        /*!< bit:     30  Zero condition code flag           */
 204:./inc/core_cm3.h ****     uint32_t N:1;                        /*!< bit:     31  Negative condition code flag       */
 205:./inc/core_cm3.h ****   } b;                                   /*!< Structure used for bit  access                  */
 206:./inc/core_cm3.h ****   uint32_t w;                            /*!< Type      used for word access                  */
 207:./inc/core_cm3.h **** } APSR_Type;
 208:./inc/core_cm3.h **** 
 209:./inc/core_cm3.h **** 
 210:./inc/core_cm3.h **** /** \brief  Union type to access the Interrupt Program Status Register (IPSR).
 211:./inc/core_cm3.h ****  */
 212:./inc/core_cm3.h **** typedef union
 213:./inc/core_cm3.h **** {
 214:./inc/core_cm3.h ****   struct
 215:./inc/core_cm3.h ****   {
 216:./inc/core_cm3.h ****     uint32_t ISR:9;                      /*!< bit:  0.. 8  Exception number                   */
 217:./inc/core_cm3.h ****     uint32_t _reserved0:23;              /*!< bit:  9..31  Reserved                           */
 218:./inc/core_cm3.h ****   } b;                                   /*!< Structure used for bit  access                  */
 219:./inc/core_cm3.h ****   uint32_t w;                            /*!< Type      used for word access                  */
 220:./inc/core_cm3.h **** } IPSR_Type;
 221:./inc/core_cm3.h **** 
 222:./inc/core_cm3.h **** 
 223:./inc/core_cm3.h **** /** \brief  Union type to access the Special-Purpose Program Status Registers (xPSR).
 224:./inc/core_cm3.h ****  */
 225:./inc/core_cm3.h **** typedef union
 226:./inc/core_cm3.h **** {
 227:./inc/core_cm3.h ****   struct
 228:./inc/core_cm3.h ****   {
 229:./inc/core_cm3.h ****     uint32_t ISR:9;                      /*!< bit:  0.. 8  Exception number                   */
 230:./inc/core_cm3.h **** #if (__CORTEX_M != 0x04)
 231:./inc/core_cm3.h ****     uint32_t _reserved0:15;              /*!< bit:  9..23  Reserved                           */
 232:./inc/core_cm3.h **** #else
 233:./inc/core_cm3.h ****     uint32_t _reserved0:7;               /*!< bit:  9..15  Reserved                           */
 234:./inc/core_cm3.h ****     uint32_t GE:4;                       /*!< bit: 16..19  Greater than or Equal flags        */
 235:./inc/core_cm3.h ****     uint32_t _reserved1:4;               /*!< bit: 20..23  Reserved                           */
 236:./inc/core_cm3.h **** #endif
 237:./inc/core_cm3.h ****     uint32_t T:1;                        /*!< bit:     24  Thumb bit        (read 0)          */
 238:./inc/core_cm3.h ****     uint32_t IT:2;                       /*!< bit: 25..26  saved IT state   (read 0)          */
 239:./inc/core_cm3.h ****     uint32_t Q:1;                        /*!< bit:     27  Saturation condition flag          */
 240:./inc/core_cm3.h ****     uint32_t V:1;                        /*!< bit:     28  Overflow condition code flag       */
 241:./inc/core_cm3.h ****     uint32_t C:1;                        /*!< bit:     29  Carry condition code flag          */
 242:./inc/core_cm3.h ****     uint32_t Z:1;                        /*!< bit:     30  Zero condition code flag           */
 243:./inc/core_cm3.h ****     uint32_t N:1;                        /*!< bit:     31  Negative condition code flag       */
 244:./inc/core_cm3.h ****   } b;                                   /*!< Structure used for bit  access                  */
 245:./inc/core_cm3.h ****   uint32_t w;                            /*!< Type      used for word access                  */
ARM GAS  /tmp/ccSINqkc.s 			page 15


 246:./inc/core_cm3.h **** } xPSR_Type;
 247:./inc/core_cm3.h **** 
 248:./inc/core_cm3.h **** 
 249:./inc/core_cm3.h **** /** \brief  Union type to access the Control Registers (CONTROL).
 250:./inc/core_cm3.h ****  */
 251:./inc/core_cm3.h **** typedef union
 252:./inc/core_cm3.h **** {
 253:./inc/core_cm3.h ****   struct
 254:./inc/core_cm3.h ****   {
 255:./inc/core_cm3.h ****     uint32_t nPRIV:1;                    /*!< bit:      0  Execution privilege in Thread mode */
 256:./inc/core_cm3.h ****     uint32_t SPSEL:1;                    /*!< bit:      1  Stack to be used                   */
 257:./inc/core_cm3.h ****     uint32_t FPCA:1;                     /*!< bit:      2  FP extension active flag           */
 258:./inc/core_cm3.h ****     uint32_t _reserved0:29;              /*!< bit:  3..31  Reserved                           */
 259:./inc/core_cm3.h ****   } b;                                   /*!< Structure used for bit  access                  */
 260:./inc/core_cm3.h ****   uint32_t w;                            /*!< Type      used for word access                  */
 261:./inc/core_cm3.h **** } CONTROL_Type;
 262:./inc/core_cm3.h **** 
 263:./inc/core_cm3.h **** /*@} end of group CMSIS_CORE */
 264:./inc/core_cm3.h **** 
 265:./inc/core_cm3.h **** 
 266:./inc/core_cm3.h **** /** \ingroup  CMSIS_core_register
 267:./inc/core_cm3.h ****     \defgroup CMSIS_NVIC CMSIS NVIC
 268:./inc/core_cm3.h ****   Type definitions for the Cortex-M NVIC Registers
 269:./inc/core_cm3.h ****   @{
 270:./inc/core_cm3.h ****  */
 271:./inc/core_cm3.h **** 
 272:./inc/core_cm3.h **** /** \brief  Structure type to access the Nested Vectored Interrupt Controller (NVIC).
 273:./inc/core_cm3.h ****  */
 274:./inc/core_cm3.h **** typedef struct
 275:./inc/core_cm3.h **** {
 276:./inc/core_cm3.h ****   __IO uint32_t ISER[8];                 /*!< Offset: 0x000 (R/W)  Interrupt Set Enable Register   
 277:./inc/core_cm3.h ****        uint32_t RESERVED0[24];
 278:./inc/core_cm3.h ****   __IO uint32_t ICER[8];                 /*!< Offset: 0x080 (R/W)  Interrupt Clear Enable Register 
 279:./inc/core_cm3.h ****        uint32_t RSERVED1[24];
 280:./inc/core_cm3.h ****   __IO uint32_t ISPR[8];                 /*!< Offset: 0x100 (R/W)  Interrupt Set Pending Register  
 281:./inc/core_cm3.h ****        uint32_t RESERVED2[24];
 282:./inc/core_cm3.h ****   __IO uint32_t ICPR[8];                 /*!< Offset: 0x180 (R/W)  Interrupt Clear Pending Register
 283:./inc/core_cm3.h ****        uint32_t RESERVED3[24];
 284:./inc/core_cm3.h ****   __IO uint32_t IABR[8];                 /*!< Offset: 0x200 (R/W)  Interrupt Active bit Register   
 285:./inc/core_cm3.h ****        uint32_t RESERVED4[56];
 286:./inc/core_cm3.h ****   __IO uint8_t  IP[240];                 /*!< Offset: 0x300 (R/W)  Interrupt Priority Register (8Bi
 287:./inc/core_cm3.h ****        uint32_t RESERVED5[644];
 288:./inc/core_cm3.h ****   __O  uint32_t STIR;                    /*!< Offset: 0xE00 ( /W)  Software Trigger Interrupt Regis
 289:./inc/core_cm3.h **** }  NVIC_Type;
 290:./inc/core_cm3.h **** 
 291:./inc/core_cm3.h **** /* Software Triggered Interrupt Register Definitions */
 292:./inc/core_cm3.h **** #define NVIC_STIR_INTID_Pos                 0                                          /*!< STIR: I
 293:./inc/core_cm3.h **** #define NVIC_STIR_INTID_Msk                (0x1FFUL << NVIC_STIR_INTID_Pos)            /*!< STIR: I
 294:./inc/core_cm3.h **** 
 295:./inc/core_cm3.h **** /*@} end of group CMSIS_NVIC */
 296:./inc/core_cm3.h **** 
 297:./inc/core_cm3.h **** 
 298:./inc/core_cm3.h **** /** \ingroup  CMSIS_core_register
 299:./inc/core_cm3.h ****     \defgroup CMSIS_SCB CMSIS SCB
 300:./inc/core_cm3.h ****   Type definitions for the Cortex-M System Control Block Registers
 301:./inc/core_cm3.h ****   @{
 302:./inc/core_cm3.h ****  */
ARM GAS  /tmp/ccSINqkc.s 			page 16


 303:./inc/core_cm3.h **** 
 304:./inc/core_cm3.h **** /** \brief  Structure type to access the System Control Block (SCB).
 305:./inc/core_cm3.h ****  */
 306:./inc/core_cm3.h **** typedef struct
 307:./inc/core_cm3.h **** {
 308:./inc/core_cm3.h ****   __I  uint32_t CPUID;                   /*!< Offset: 0x000 (R/ )  CPUID Base Register             
 309:./inc/core_cm3.h ****   __IO uint32_t ICSR;                    /*!< Offset: 0x004 (R/W)  Interrupt Control and State Regi
 310:./inc/core_cm3.h ****   __IO uint32_t VTOR;                    /*!< Offset: 0x008 (R/W)  Vector Table Offset Register    
 311:./inc/core_cm3.h ****   __IO uint32_t AIRCR;                   /*!< Offset: 0x00C (R/W)  Application Interrupt and Reset 
 312:./inc/core_cm3.h ****   __IO uint32_t SCR;                     /*!< Offset: 0x010 (R/W)  System Control Register         
 313:./inc/core_cm3.h ****   __IO uint32_t CCR;                     /*!< Offset: 0x014 (R/W)  Configuration Control Register  
 314:./inc/core_cm3.h ****   __IO uint8_t  SHP[12];                 /*!< Offset: 0x018 (R/W)  System Handlers Priority Registe
 315:./inc/core_cm3.h ****   __IO uint32_t SHCSR;                   /*!< Offset: 0x024 (R/W)  System Handler Control and State
 316:./inc/core_cm3.h ****   __IO uint32_t CFSR;                    /*!< Offset: 0x028 (R/W)  Configurable Fault Status Regist
 317:./inc/core_cm3.h ****   __IO uint32_t HFSR;                    /*!< Offset: 0x02C (R/W)  HardFault Status Register       
 318:./inc/core_cm3.h ****   __IO uint32_t DFSR;                    /*!< Offset: 0x030 (R/W)  Debug Fault Status Register     
 319:./inc/core_cm3.h ****   __IO uint32_t MMFAR;                   /*!< Offset: 0x034 (R/W)  MemManage Fault Address Register
 320:./inc/core_cm3.h ****   __IO uint32_t BFAR;                    /*!< Offset: 0x038 (R/W)  BusFault Address Register       
 321:./inc/core_cm3.h ****   __IO uint32_t AFSR;                    /*!< Offset: 0x03C (R/W)  Auxiliary Fault Status Register 
 322:./inc/core_cm3.h ****   __I  uint32_t PFR[2];                  /*!< Offset: 0x040 (R/ )  Processor Feature Register      
 323:./inc/core_cm3.h ****   __I  uint32_t DFR;                     /*!< Offset: 0x048 (R/ )  Debug Feature Register          
 324:./inc/core_cm3.h ****   __I  uint32_t ADR;                     /*!< Offset: 0x04C (R/ )  Auxiliary Feature Register      
 325:./inc/core_cm3.h ****   __I  uint32_t MMFR[4];                 /*!< Offset: 0x050 (R/ )  Memory Model Feature Register   
 326:./inc/core_cm3.h ****   __I  uint32_t ISAR[5];                 /*!< Offset: 0x060 (R/ )  Instruction Set Attributes Regis
 327:./inc/core_cm3.h ****        uint32_t RESERVED0[5];
 328:./inc/core_cm3.h ****   __IO uint32_t CPACR;                   /*!< Offset: 0x088 (R/W)  Coprocessor Access Control Regis
 329:./inc/core_cm3.h **** } SCB_Type;
 330:./inc/core_cm3.h **** 
 331:./inc/core_cm3.h **** /* SCB CPUID Register Definitions */
 332:./inc/core_cm3.h **** #define SCB_CPUID_IMPLEMENTER_Pos          24                                             /*!< SCB 
 333:./inc/core_cm3.h **** #define SCB_CPUID_IMPLEMENTER_Msk          (0xFFUL << SCB_CPUID_IMPLEMENTER_Pos)          /*!< SCB 
 334:./inc/core_cm3.h **** 
 335:./inc/core_cm3.h **** #define SCB_CPUID_VARIANT_Pos              20                                             /*!< SCB 
 336:./inc/core_cm3.h **** #define SCB_CPUID_VARIANT_Msk              (0xFUL << SCB_CPUID_VARIANT_Pos)               /*!< SCB 
 337:./inc/core_cm3.h **** 
 338:./inc/core_cm3.h **** #define SCB_CPUID_ARCHITECTURE_Pos         16                                             /*!< SCB 
 339:./inc/core_cm3.h **** #define SCB_CPUID_ARCHITECTURE_Msk         (0xFUL << SCB_CPUID_ARCHITECTURE_Pos)          /*!< SCB 
 340:./inc/core_cm3.h **** 
 341:./inc/core_cm3.h **** #define SCB_CPUID_PARTNO_Pos                4                                             /*!< SCB 
 342:./inc/core_cm3.h **** #define SCB_CPUID_PARTNO_Msk               (0xFFFUL << SCB_CPUID_PARTNO_Pos)              /*!< SCB 
 343:./inc/core_cm3.h **** 
 344:./inc/core_cm3.h **** #define SCB_CPUID_REVISION_Pos              0                                             /*!< SCB 
 345:./inc/core_cm3.h **** #define SCB_CPUID_REVISION_Msk             (0xFUL << SCB_CPUID_REVISION_Pos)              /*!< SCB 
 346:./inc/core_cm3.h **** 
 347:./inc/core_cm3.h **** /* SCB Interrupt Control State Register Definitions */
 348:./inc/core_cm3.h **** #define SCB_ICSR_NMIPENDSET_Pos            31                                             /*!< SCB 
 349:./inc/core_cm3.h **** #define SCB_ICSR_NMIPENDSET_Msk            (1UL << SCB_ICSR_NMIPENDSET_Pos)               /*!< SCB 
 350:./inc/core_cm3.h **** 
 351:./inc/core_cm3.h **** #define SCB_ICSR_PENDSVSET_Pos             28                                             /*!< SCB 
 352:./inc/core_cm3.h **** #define SCB_ICSR_PENDSVSET_Msk             (1UL << SCB_ICSR_PENDSVSET_Pos)                /*!< SCB 
 353:./inc/core_cm3.h **** 
 354:./inc/core_cm3.h **** #define SCB_ICSR_PENDSVCLR_Pos             27                                             /*!< SCB 
 355:./inc/core_cm3.h **** #define SCB_ICSR_PENDSVCLR_Msk             (1UL << SCB_ICSR_PENDSVCLR_Pos)                /*!< SCB 
 356:./inc/core_cm3.h **** 
 357:./inc/core_cm3.h **** #define SCB_ICSR_PENDSTSET_Pos             26                                             /*!< SCB 
 358:./inc/core_cm3.h **** #define SCB_ICSR_PENDSTSET_Msk             (1UL << SCB_ICSR_PENDSTSET_Pos)                /*!< SCB 
 359:./inc/core_cm3.h **** 
ARM GAS  /tmp/ccSINqkc.s 			page 17


 360:./inc/core_cm3.h **** #define SCB_ICSR_PENDSTCLR_Pos             25                                             /*!< SCB 
 361:./inc/core_cm3.h **** #define SCB_ICSR_PENDSTCLR_Msk             (1UL << SCB_ICSR_PENDSTCLR_Pos)                /*!< SCB 
 362:./inc/core_cm3.h **** 
 363:./inc/core_cm3.h **** #define SCB_ICSR_ISRPREEMPT_Pos            23                                             /*!< SCB 
 364:./inc/core_cm3.h **** #define SCB_ICSR_ISRPREEMPT_Msk            (1UL << SCB_ICSR_ISRPREEMPT_Pos)               /*!< SCB 
 365:./inc/core_cm3.h **** 
 366:./inc/core_cm3.h **** #define SCB_ICSR_ISRPENDING_Pos            22                                             /*!< SCB 
 367:./inc/core_cm3.h **** #define SCB_ICSR_ISRPENDING_Msk            (1UL << SCB_ICSR_ISRPENDING_Pos)               /*!< SCB 
 368:./inc/core_cm3.h **** 
 369:./inc/core_cm3.h **** #define SCB_ICSR_VECTPENDING_Pos           12                                             /*!< SCB 
 370:./inc/core_cm3.h **** #define SCB_ICSR_VECTPENDING_Msk           (0x1FFUL << SCB_ICSR_VECTPENDING_Pos)          /*!< SCB 
 371:./inc/core_cm3.h **** 
 372:./inc/core_cm3.h **** #define SCB_ICSR_RETTOBASE_Pos             11                                             /*!< SCB 
 373:./inc/core_cm3.h **** #define SCB_ICSR_RETTOBASE_Msk             (1UL << SCB_ICSR_RETTOBASE_Pos)                /*!< SCB 
 374:./inc/core_cm3.h **** 
 375:./inc/core_cm3.h **** #define SCB_ICSR_VECTACTIVE_Pos             0                                             /*!< SCB 
 376:./inc/core_cm3.h **** #define SCB_ICSR_VECTACTIVE_Msk            (0x1FFUL << SCB_ICSR_VECTACTIVE_Pos)           /*!< SCB 
 377:./inc/core_cm3.h **** 
 378:./inc/core_cm3.h **** /* SCB Vector Table Offset Register Definitions */
 379:./inc/core_cm3.h **** #define SCB_VTOR_TBLOFF_Pos                 7                                             /*!< SCB 
 380:./inc/core_cm3.h **** #define SCB_VTOR_TBLOFF_Msk                (0x1FFFFFFUL << SCB_VTOR_TBLOFF_Pos)           /*!< SCB 
 381:./inc/core_cm3.h **** 
 382:./inc/core_cm3.h **** /* SCB Application Interrupt and Reset Control Register Definitions */
 383:./inc/core_cm3.h **** #define SCB_AIRCR_VECTKEY_Pos              16                                             /*!< SCB 
 384:./inc/core_cm3.h **** #define SCB_AIRCR_VECTKEY_Msk              (0xFFFFUL << SCB_AIRCR_VECTKEY_Pos)            /*!< SCB 
 385:./inc/core_cm3.h **** 
 386:./inc/core_cm3.h **** #define SCB_AIRCR_VECTKEYSTAT_Pos          16                                             /*!< SCB 
 387:./inc/core_cm3.h **** #define SCB_AIRCR_VECTKEYSTAT_Msk          (0xFFFFUL << SCB_AIRCR_VECTKEYSTAT_Pos)        /*!< SCB 
 388:./inc/core_cm3.h **** 
 389:./inc/core_cm3.h **** #define SCB_AIRCR_ENDIANESS_Pos            15                                             /*!< SCB 
 390:./inc/core_cm3.h **** #define SCB_AIRCR_ENDIANESS_Msk            (1UL << SCB_AIRCR_ENDIANESS_Pos)               /*!< SCB 
 391:./inc/core_cm3.h **** 
 392:./inc/core_cm3.h **** #define SCB_AIRCR_PRIGROUP_Pos              8                                             /*!< SCB 
 393:./inc/core_cm3.h **** #define SCB_AIRCR_PRIGROUP_Msk             (7UL << SCB_AIRCR_PRIGROUP_Pos)                /*!< SCB 
 394:./inc/core_cm3.h **** 
 395:./inc/core_cm3.h **** #define SCB_AIRCR_SYSRESETREQ_Pos           2                                             /*!< SCB 
 396:./inc/core_cm3.h **** #define SCB_AIRCR_SYSRESETREQ_Msk          (1UL << SCB_AIRCR_SYSRESETREQ_Pos)             /*!< SCB 
 397:./inc/core_cm3.h **** 
 398:./inc/core_cm3.h **** #define SCB_AIRCR_VECTCLRACTIVE_Pos         1                                             /*!< SCB 
 399:./inc/core_cm3.h **** #define SCB_AIRCR_VECTCLRACTIVE_Msk        (1UL << SCB_AIRCR_VECTCLRACTIVE_Pos)           /*!< SCB 
 400:./inc/core_cm3.h **** 
 401:./inc/core_cm3.h **** #define SCB_AIRCR_VECTRESET_Pos             0                                             /*!< SCB 
 402:./inc/core_cm3.h **** #define SCB_AIRCR_VECTRESET_Msk            (1UL << SCB_AIRCR_VECTRESET_Pos)               /*!< SCB 
 403:./inc/core_cm3.h **** 
 404:./inc/core_cm3.h **** /* SCB System Control Register Definitions */
 405:./inc/core_cm3.h **** #define SCB_SCR_SEVONPEND_Pos               4                                             /*!< SCB 
 406:./inc/core_cm3.h **** #define SCB_SCR_SEVONPEND_Msk              (1UL << SCB_SCR_SEVONPEND_Pos)                 /*!< SCB 
 407:./inc/core_cm3.h **** 
 408:./inc/core_cm3.h **** #define SCB_SCR_SLEEPDEEP_Pos               2                                             /*!< SCB 
 409:./inc/core_cm3.h **** #define SCB_SCR_SLEEPDEEP_Msk              (1UL << SCB_SCR_SLEEPDEEP_Pos)                 /*!< SCB 
 410:./inc/core_cm3.h **** 
 411:./inc/core_cm3.h **** #define SCB_SCR_SLEEPONEXIT_Pos             1                                             /*!< SCB 
 412:./inc/core_cm3.h **** #define SCB_SCR_SLEEPONEXIT_Msk            (1UL << SCB_SCR_SLEEPONEXIT_Pos)               /*!< SCB 
 413:./inc/core_cm3.h **** 
 414:./inc/core_cm3.h **** /* SCB Configuration Control Register Definitions */
 415:./inc/core_cm3.h **** #define SCB_CCR_STKALIGN_Pos                9                                             /*!< SCB 
 416:./inc/core_cm3.h **** #define SCB_CCR_STKALIGN_Msk               (1UL << SCB_CCR_STKALIGN_Pos)                  /*!< SCB 
ARM GAS  /tmp/ccSINqkc.s 			page 18


 417:./inc/core_cm3.h **** 
 418:./inc/core_cm3.h **** #define SCB_CCR_BFHFNMIGN_Pos               8                                             /*!< SCB 
 419:./inc/core_cm3.h **** #define SCB_CCR_BFHFNMIGN_Msk              (1UL << SCB_CCR_BFHFNMIGN_Pos)                 /*!< SCB 
 420:./inc/core_cm3.h **** 
 421:./inc/core_cm3.h **** #define SCB_CCR_DIV_0_TRP_Pos               4                                             /*!< SCB 
 422:./inc/core_cm3.h **** #define SCB_CCR_DIV_0_TRP_Msk              (1UL << SCB_CCR_DIV_0_TRP_Pos)                 /*!< SCB 
 423:./inc/core_cm3.h **** 
 424:./inc/core_cm3.h **** #define SCB_CCR_UNALIGN_TRP_Pos             3                                             /*!< SCB 
 425:./inc/core_cm3.h **** #define SCB_CCR_UNALIGN_TRP_Msk            (1UL << SCB_CCR_UNALIGN_TRP_Pos)               /*!< SCB 
 426:./inc/core_cm3.h **** 
 427:./inc/core_cm3.h **** #define SCB_CCR_USERSETMPEND_Pos            1                                             /*!< SCB 
 428:./inc/core_cm3.h **** #define SCB_CCR_USERSETMPEND_Msk           (1UL << SCB_CCR_USERSETMPEND_Pos)              /*!< SCB 
 429:./inc/core_cm3.h **** 
 430:./inc/core_cm3.h **** #define SCB_CCR_NONBASETHRDENA_Pos          0                                             /*!< SCB 
 431:./inc/core_cm3.h **** #define SCB_CCR_NONBASETHRDENA_Msk         (1UL << SCB_CCR_NONBASETHRDENA_Pos)            /*!< SCB 
 432:./inc/core_cm3.h **** 
 433:./inc/core_cm3.h **** /* SCB System Handler Control and State Register Definitions */
 434:./inc/core_cm3.h **** #define SCB_SHCSR_USGFAULTENA_Pos          18                                             /*!< SCB 
 435:./inc/core_cm3.h **** #define SCB_SHCSR_USGFAULTENA_Msk          (1UL << SCB_SHCSR_USGFAULTENA_Pos)             /*!< SCB 
 436:./inc/core_cm3.h **** 
 437:./inc/core_cm3.h **** #define SCB_SHCSR_BUSFAULTENA_Pos          17                                             /*!< SCB 
 438:./inc/core_cm3.h **** #define SCB_SHCSR_BUSFAULTENA_Msk          (1UL << SCB_SHCSR_BUSFAULTENA_Pos)             /*!< SCB 
 439:./inc/core_cm3.h **** 
 440:./inc/core_cm3.h **** #define SCB_SHCSR_MEMFAULTENA_Pos          16                                             /*!< SCB 
 441:./inc/core_cm3.h **** #define SCB_SHCSR_MEMFAULTENA_Msk          (1UL << SCB_SHCSR_MEMFAULTENA_Pos)             /*!< SCB 
 442:./inc/core_cm3.h **** 
 443:./inc/core_cm3.h **** #define SCB_SHCSR_SVCALLPENDED_Pos         15                                             /*!< SCB 
 444:./inc/core_cm3.h **** #define SCB_SHCSR_SVCALLPENDED_Msk         (1UL << SCB_SHCSR_SVCALLPENDED_Pos)            /*!< SCB 
 445:./inc/core_cm3.h **** 
 446:./inc/core_cm3.h **** #define SCB_SHCSR_BUSFAULTPENDED_Pos       14                                             /*!< SCB 
 447:./inc/core_cm3.h **** #define SCB_SHCSR_BUSFAULTPENDED_Msk       (1UL << SCB_SHCSR_BUSFAULTPENDED_Pos)          /*!< SCB 
 448:./inc/core_cm3.h **** 
 449:./inc/core_cm3.h **** #define SCB_SHCSR_MEMFAULTPENDED_Pos       13                                             /*!< SCB 
 450:./inc/core_cm3.h **** #define SCB_SHCSR_MEMFAULTPENDED_Msk       (1UL << SCB_SHCSR_MEMFAULTPENDED_Pos)          /*!< SCB 
 451:./inc/core_cm3.h **** 
 452:./inc/core_cm3.h **** #define SCB_SHCSR_USGFAULTPENDED_Pos       12                                             /*!< SCB 
 453:./inc/core_cm3.h **** #define SCB_SHCSR_USGFAULTPENDED_Msk       (1UL << SCB_SHCSR_USGFAULTPENDED_Pos)          /*!< SCB 
 454:./inc/core_cm3.h **** 
 455:./inc/core_cm3.h **** #define SCB_SHCSR_SYSTICKACT_Pos           11                                             /*!< SCB 
 456:./inc/core_cm3.h **** #define SCB_SHCSR_SYSTICKACT_Msk           (1UL << SCB_SHCSR_SYSTICKACT_Pos)              /*!< SCB 
 457:./inc/core_cm3.h **** 
 458:./inc/core_cm3.h **** #define SCB_SHCSR_PENDSVACT_Pos            10                                             /*!< SCB 
 459:./inc/core_cm3.h **** #define SCB_SHCSR_PENDSVACT_Msk            (1UL << SCB_SHCSR_PENDSVACT_Pos)               /*!< SCB 
 460:./inc/core_cm3.h **** 
 461:./inc/core_cm3.h **** #define SCB_SHCSR_MONITORACT_Pos            8                                             /*!< SCB 
 462:./inc/core_cm3.h **** #define SCB_SHCSR_MONITORACT_Msk           (1UL << SCB_SHCSR_MONITORACT_Pos)              /*!< SCB 
 463:./inc/core_cm3.h **** 
 464:./inc/core_cm3.h **** #define SCB_SHCSR_SVCALLACT_Pos             7                                             /*!< SCB 
 465:./inc/core_cm3.h **** #define SCB_SHCSR_SVCALLACT_Msk            (1UL << SCB_SHCSR_SVCALLACT_Pos)               /*!< SCB 
 466:./inc/core_cm3.h **** 
 467:./inc/core_cm3.h **** #define SCB_SHCSR_USGFAULTACT_Pos           3                                             /*!< SCB 
 468:./inc/core_cm3.h **** #define SCB_SHCSR_USGFAULTACT_Msk          (1UL << SCB_SHCSR_USGFAULTACT_Pos)             /*!< SCB 
 469:./inc/core_cm3.h **** 
 470:./inc/core_cm3.h **** #define SCB_SHCSR_BUSFAULTACT_Pos           1                                             /*!< SCB 
 471:./inc/core_cm3.h **** #define SCB_SHCSR_BUSFAULTACT_Msk          (1UL << SCB_SHCSR_BUSFAULTACT_Pos)             /*!< SCB 
 472:./inc/core_cm3.h **** 
 473:./inc/core_cm3.h **** #define SCB_SHCSR_MEMFAULTACT_Pos           0                                             /*!< SCB 
ARM GAS  /tmp/ccSINqkc.s 			page 19


 474:./inc/core_cm3.h **** #define SCB_SHCSR_MEMFAULTACT_Msk          (1UL << SCB_SHCSR_MEMFAULTACT_Pos)             /*!< SCB 
 475:./inc/core_cm3.h **** 
 476:./inc/core_cm3.h **** /* SCB Configurable Fault Status Registers Definitions */
 477:./inc/core_cm3.h **** #define SCB_CFSR_USGFAULTSR_Pos            16                                             /*!< SCB 
 478:./inc/core_cm3.h **** #define SCB_CFSR_USGFAULTSR_Msk            (0xFFFFUL << SCB_CFSR_USGFAULTSR_Pos)          /*!< SCB 
 479:./inc/core_cm3.h **** 
 480:./inc/core_cm3.h **** #define SCB_CFSR_BUSFAULTSR_Pos             8                                             /*!< SCB 
 481:./inc/core_cm3.h **** #define SCB_CFSR_BUSFAULTSR_Msk            (0xFFUL << SCB_CFSR_BUSFAULTSR_Pos)            /*!< SCB 
 482:./inc/core_cm3.h **** 
 483:./inc/core_cm3.h **** #define SCB_CFSR_MEMFAULTSR_Pos             0                                             /*!< SCB 
 484:./inc/core_cm3.h **** #define SCB_CFSR_MEMFAULTSR_Msk            (0xFFUL << SCB_CFSR_MEMFAULTSR_Pos)            /*!< SCB 
 485:./inc/core_cm3.h **** 
 486:./inc/core_cm3.h **** /* SCB Hard Fault Status Registers Definitions */
 487:./inc/core_cm3.h **** #define SCB_HFSR_DEBUGEVT_Pos              31                                             /*!< SCB 
 488:./inc/core_cm3.h **** #define SCB_HFSR_DEBUGEVT_Msk              (1UL << SCB_HFSR_DEBUGEVT_Pos)                 /*!< SCB 
 489:./inc/core_cm3.h **** 
 490:./inc/core_cm3.h **** #define SCB_HFSR_FORCED_Pos                30                                             /*!< SCB 
 491:./inc/core_cm3.h **** #define SCB_HFSR_FORCED_Msk                (1UL << SCB_HFSR_FORCED_Pos)                   /*!< SCB 
 492:./inc/core_cm3.h **** 
 493:./inc/core_cm3.h **** #define SCB_HFSR_VECTTBL_Pos                1                                             /*!< SCB 
 494:./inc/core_cm3.h **** #define SCB_HFSR_VECTTBL_Msk               (1UL << SCB_HFSR_VECTTBL_Pos)                  /*!< SCB 
 495:./inc/core_cm3.h **** 
 496:./inc/core_cm3.h **** /* SCB Debug Fault Status Register Definitions */
 497:./inc/core_cm3.h **** #define SCB_DFSR_EXTERNAL_Pos               4                                             /*!< SCB 
 498:./inc/core_cm3.h **** #define SCB_DFSR_EXTERNAL_Msk              (1UL << SCB_DFSR_EXTERNAL_Pos)                 /*!< SCB 
 499:./inc/core_cm3.h **** 
 500:./inc/core_cm3.h **** #define SCB_DFSR_VCATCH_Pos                 3                                             /*!< SCB 
 501:./inc/core_cm3.h **** #define SCB_DFSR_VCATCH_Msk                (1UL << SCB_DFSR_VCATCH_Pos)                   /*!< SCB 
 502:./inc/core_cm3.h **** 
 503:./inc/core_cm3.h **** #define SCB_DFSR_DWTTRAP_Pos                2                                             /*!< SCB 
 504:./inc/core_cm3.h **** #define SCB_DFSR_DWTTRAP_Msk               (1UL << SCB_DFSR_DWTTRAP_Pos)                  /*!< SCB 
 505:./inc/core_cm3.h **** 
 506:./inc/core_cm3.h **** #define SCB_DFSR_BKPT_Pos                   1                                             /*!< SCB 
 507:./inc/core_cm3.h **** #define SCB_DFSR_BKPT_Msk                  (1UL << SCB_DFSR_BKPT_Pos)                     /*!< SCB 
 508:./inc/core_cm3.h **** 
 509:./inc/core_cm3.h **** #define SCB_DFSR_HALTED_Pos                 0                                             /*!< SCB 
 510:./inc/core_cm3.h **** #define SCB_DFSR_HALTED_Msk                (1UL << SCB_DFSR_HALTED_Pos)                   /*!< SCB 
 511:./inc/core_cm3.h **** 
 512:./inc/core_cm3.h **** /*@} end of group CMSIS_SCB */
 513:./inc/core_cm3.h **** 
 514:./inc/core_cm3.h **** 
 515:./inc/core_cm3.h **** /** \ingroup  CMSIS_core_register
 516:./inc/core_cm3.h ****     \defgroup CMSIS_SCnSCB CMSIS System Control and ID Register not in the SCB
 517:./inc/core_cm3.h ****   Type definitions for the Cortex-M System Control and ID Register not in the SCB
 518:./inc/core_cm3.h ****   @{
 519:./inc/core_cm3.h ****  */
 520:./inc/core_cm3.h **** 
 521:./inc/core_cm3.h **** /** \brief  Structure type to access the System Control and ID Register not in the SCB.
 522:./inc/core_cm3.h ****  */
 523:./inc/core_cm3.h **** typedef struct
 524:./inc/core_cm3.h **** {
 525:./inc/core_cm3.h ****        uint32_t RESERVED0[1];
 526:./inc/core_cm3.h ****   __I  uint32_t ICTR;                    /*!< Offset: 0x004 (R/ )  Interrupt Controller Type Regist
 527:./inc/core_cm3.h **** #if ((defined __CM3_REV) && (__CM3_REV >= 0x200))
 528:./inc/core_cm3.h ****   __IO uint32_t ACTLR;                   /*!< Offset: 0x008 (R/W)  Auxiliary Control Register      
 529:./inc/core_cm3.h **** #else
 530:./inc/core_cm3.h ****        uint32_t RESERVED1[1];
ARM GAS  /tmp/ccSINqkc.s 			page 20


 531:./inc/core_cm3.h **** #endif
 532:./inc/core_cm3.h **** } SCnSCB_Type;
 533:./inc/core_cm3.h **** 
 534:./inc/core_cm3.h **** /* Interrupt Controller Type Register Definitions */
 535:./inc/core_cm3.h **** #define SCnSCB_ICTR_INTLINESNUM_Pos         0                                          /*!< ICTR: I
 536:./inc/core_cm3.h **** #define SCnSCB_ICTR_INTLINESNUM_Msk        (0xFUL << SCnSCB_ICTR_INTLINESNUM_Pos)      /*!< ICTR: I
 537:./inc/core_cm3.h **** 
 538:./inc/core_cm3.h **** /* Auxiliary Control Register Definitions */
 539:./inc/core_cm3.h **** 
 540:./inc/core_cm3.h **** #define SCnSCB_ACTLR_DISFOLD_Pos            2                                          /*!< ACTLR: 
 541:./inc/core_cm3.h **** #define SCnSCB_ACTLR_DISFOLD_Msk           (1UL << SCnSCB_ACTLR_DISFOLD_Pos)           /*!< ACTLR: 
 542:./inc/core_cm3.h **** 
 543:./inc/core_cm3.h **** #define SCnSCB_ACTLR_DISDEFWBUF_Pos         1                                          /*!< ACTLR: 
 544:./inc/core_cm3.h **** #define SCnSCB_ACTLR_DISDEFWBUF_Msk        (1UL << SCnSCB_ACTLR_DISDEFWBUF_Pos)        /*!< ACTLR: 
 545:./inc/core_cm3.h **** 
 546:./inc/core_cm3.h **** #define SCnSCB_ACTLR_DISMCYCINT_Pos         0                                          /*!< ACTLR: 
 547:./inc/core_cm3.h **** #define SCnSCB_ACTLR_DISMCYCINT_Msk        (1UL << SCnSCB_ACTLR_DISMCYCINT_Pos)        /*!< ACTLR: 
 548:./inc/core_cm3.h **** 
 549:./inc/core_cm3.h **** /*@} end of group CMSIS_SCnotSCB */
 550:./inc/core_cm3.h **** 
 551:./inc/core_cm3.h **** 
 552:./inc/core_cm3.h **** /** \ingroup  CMSIS_core_register
 553:./inc/core_cm3.h ****     \defgroup CMSIS_SysTick CMSIS SysTick
 554:./inc/core_cm3.h ****   Type definitions for the Cortex-M System Timer Registers
 555:./inc/core_cm3.h ****   @{
 556:./inc/core_cm3.h ****  */
 557:./inc/core_cm3.h **** 
 558:./inc/core_cm3.h **** /** \brief  Structure type to access the System Timer (SysTick).
 559:./inc/core_cm3.h ****  */
 560:./inc/core_cm3.h **** typedef struct
 561:./inc/core_cm3.h **** {
 562:./inc/core_cm3.h ****   __IO uint32_t CTRL;                    /*!< Offset: 0x000 (R/W)  SysTick Control and Status Regis
 563:./inc/core_cm3.h ****   __IO uint32_t LOAD;                    /*!< Offset: 0x004 (R/W)  SysTick Reload Value Register   
 564:./inc/core_cm3.h ****   __IO uint32_t VAL;                     /*!< Offset: 0x008 (R/W)  SysTick Current Value Register  
 565:./inc/core_cm3.h ****   __I  uint32_t CALIB;                   /*!< Offset: 0x00C (R/ )  SysTick Calibration Register    
 566:./inc/core_cm3.h **** } SysTick_Type;
 567:./inc/core_cm3.h **** 
 568:./inc/core_cm3.h **** /* SysTick Control / Status Register Definitions */
 569:./inc/core_cm3.h **** #define SysTick_CTRL_COUNTFLAG_Pos         16                                             /*!< SysT
 570:./inc/core_cm3.h **** #define SysTick_CTRL_COUNTFLAG_Msk         (1UL << SysTick_CTRL_COUNTFLAG_Pos)            /*!< SysT
 571:./inc/core_cm3.h **** 
 572:./inc/core_cm3.h **** #define SysTick_CTRL_CLKSOURCE_Pos          2                                             /*!< SysT
 573:./inc/core_cm3.h **** #define SysTick_CTRL_CLKSOURCE_Msk         (1UL << SysTick_CTRL_CLKSOURCE_Pos)            /*!< SysT
 574:./inc/core_cm3.h **** 
 575:./inc/core_cm3.h **** #define SysTick_CTRL_TICKINT_Pos            1                                             /*!< SysT
 576:./inc/core_cm3.h **** #define SysTick_CTRL_TICKINT_Msk           (1UL << SysTick_CTRL_TICKINT_Pos)              /*!< SysT
 577:./inc/core_cm3.h **** 
 578:./inc/core_cm3.h **** #define SysTick_CTRL_ENABLE_Pos             0                                             /*!< SysT
 579:./inc/core_cm3.h **** #define SysTick_CTRL_ENABLE_Msk            (1UL << SysTick_CTRL_ENABLE_Pos)               /*!< SysT
 580:./inc/core_cm3.h **** 
 581:./inc/core_cm3.h **** /* SysTick Reload Register Definitions */
 582:./inc/core_cm3.h **** #define SysTick_LOAD_RELOAD_Pos             0                                             /*!< SysT
 583:./inc/core_cm3.h **** #define SysTick_LOAD_RELOAD_Msk            (0xFFFFFFUL << SysTick_LOAD_RELOAD_Pos)        /*!< SysT
 584:./inc/core_cm3.h **** 
 585:./inc/core_cm3.h **** /* SysTick Current Register Definitions */
 586:./inc/core_cm3.h **** #define SysTick_VAL_CURRENT_Pos             0                                             /*!< SysT
 587:./inc/core_cm3.h **** #define SysTick_VAL_CURRENT_Msk            (0xFFFFFFUL << SysTick_VAL_CURRENT_Pos)        /*!< SysT
ARM GAS  /tmp/ccSINqkc.s 			page 21


 588:./inc/core_cm3.h **** 
 589:./inc/core_cm3.h **** /* SysTick Calibration Register Definitions */
 590:./inc/core_cm3.h **** #define SysTick_CALIB_NOREF_Pos            31                                             /*!< SysT
 591:./inc/core_cm3.h **** #define SysTick_CALIB_NOREF_Msk            (1UL << SysTick_CALIB_NOREF_Pos)               /*!< SysT
 592:./inc/core_cm3.h **** 
 593:./inc/core_cm3.h **** #define SysTick_CALIB_SKEW_Pos             30                                             /*!< SysT
 594:./inc/core_cm3.h **** #define SysTick_CALIB_SKEW_Msk             (1UL << SysTick_CALIB_SKEW_Pos)                /*!< SysT
 595:./inc/core_cm3.h **** 
 596:./inc/core_cm3.h **** #define SysTick_CALIB_TENMS_Pos             0                                             /*!< SysT
 597:./inc/core_cm3.h **** #define SysTick_CALIB_TENMS_Msk            (0xFFFFFFUL << SysTick_VAL_CURRENT_Pos)        /*!< SysT
 598:./inc/core_cm3.h **** 
 599:./inc/core_cm3.h **** /*@} end of group CMSIS_SysTick */
 600:./inc/core_cm3.h **** 
 601:./inc/core_cm3.h **** 
 602:./inc/core_cm3.h **** /** \ingroup  CMSIS_core_register
 603:./inc/core_cm3.h ****     \defgroup CMSIS_ITM CMSIS ITM
 604:./inc/core_cm3.h ****   Type definitions for the Cortex-M Instrumentation Trace Macrocell (ITM)
 605:./inc/core_cm3.h ****   @{
 606:./inc/core_cm3.h ****  */
 607:./inc/core_cm3.h **** 
 608:./inc/core_cm3.h **** /** \brief  Structure type to access the Instrumentation Trace Macrocell Register (ITM).
 609:./inc/core_cm3.h ****  */
 610:./inc/core_cm3.h **** typedef struct
 611:./inc/core_cm3.h **** {
 612:./inc/core_cm3.h ****   __O  union
 613:./inc/core_cm3.h ****   {
 614:./inc/core_cm3.h ****     __O  uint8_t    u8;                  /*!< Offset: 0x000 ( /W)  ITM Stimulus Port 8-bit         
 615:./inc/core_cm3.h ****     __O  uint16_t   u16;                 /*!< Offset: 0x000 ( /W)  ITM Stimulus Port 16-bit        
 616:./inc/core_cm3.h ****     __O  uint32_t   u32;                 /*!< Offset: 0x000 ( /W)  ITM Stimulus Port 32-bit        
 617:./inc/core_cm3.h ****   }  PORT [32];                          /*!< Offset: 0x000 ( /W)  ITM Stimulus Port Registers     
 618:./inc/core_cm3.h ****        uint32_t RESERVED0[864];
 619:./inc/core_cm3.h ****   __IO uint32_t TER;                     /*!< Offset: 0xE00 (R/W)  ITM Trace Enable Register       
 620:./inc/core_cm3.h ****        uint32_t RESERVED1[15];
 621:./inc/core_cm3.h ****   __IO uint32_t TPR;                     /*!< Offset: 0xE40 (R/W)  ITM Trace Privilege Register    
 622:./inc/core_cm3.h ****        uint32_t RESERVED2[15];
 623:./inc/core_cm3.h ****   __IO uint32_t TCR;                     /*!< Offset: 0xE80 (R/W)  ITM Trace Control Register      
 624:./inc/core_cm3.h **** } ITM_Type;
 625:./inc/core_cm3.h **** 
 626:./inc/core_cm3.h **** /* ITM Trace Privilege Register Definitions */
 627:./inc/core_cm3.h **** #define ITM_TPR_PRIVMASK_Pos                0                                          /*!< ITM TPR
 628:./inc/core_cm3.h **** #define ITM_TPR_PRIVMASK_Msk               (0xFUL << ITM_TPR_PRIVMASK_Pos)             /*!< ITM TPR
 629:./inc/core_cm3.h **** 
 630:./inc/core_cm3.h **** /* ITM Trace Control Register Definitions */
 631:./inc/core_cm3.h **** #define ITM_TCR_BUSY_Pos                   23                                          /*!< ITM TCR
 632:./inc/core_cm3.h **** #define ITM_TCR_BUSY_Msk                   (1UL << ITM_TCR_BUSY_Pos)                   /*!< ITM TCR
 633:./inc/core_cm3.h **** 
 634:./inc/core_cm3.h **** #define ITM_TCR_TraceBusID_Pos             16                                          /*!< ITM TCR
 635:./inc/core_cm3.h **** #define ITM_TCR_TraceBusID_Msk             (0x7FUL << ITM_TCR_TraceBusID_Pos)          /*!< ITM TCR
 636:./inc/core_cm3.h **** 
 637:./inc/core_cm3.h **** #define ITM_TCR_GTSFREQ_Pos                10                                          /*!< ITM TCR
 638:./inc/core_cm3.h **** #define ITM_TCR_GTSFREQ_Msk                (3UL << ITM_TCR_GTSFREQ_Pos)                /*!< ITM TCR
 639:./inc/core_cm3.h **** 
 640:./inc/core_cm3.h **** #define ITM_TCR_TSPrescale_Pos              8                                          /*!< ITM TCR
 641:./inc/core_cm3.h **** #define ITM_TCR_TSPrescale_Msk             (3UL << ITM_TCR_TSPrescale_Pos)             /*!< ITM TCR
 642:./inc/core_cm3.h **** 
 643:./inc/core_cm3.h **** #define ITM_TCR_SWOENA_Pos                  4                                          /*!< ITM TCR
 644:./inc/core_cm3.h **** #define ITM_TCR_SWOENA_Msk                 (1UL << ITM_TCR_SWOENA_Pos)                 /*!< ITM TCR
ARM GAS  /tmp/ccSINqkc.s 			page 22


 645:./inc/core_cm3.h **** 
 646:./inc/core_cm3.h **** #define ITM_TCR_TXENA_Pos                   3                                          /*!< ITM TCR
 647:./inc/core_cm3.h **** #define ITM_TCR_TXENA_Msk                  (1UL << ITM_TCR_TXENA_Pos)                  /*!< ITM TCR
 648:./inc/core_cm3.h **** 
 649:./inc/core_cm3.h **** #define ITM_TCR_SYNCENA_Pos                 2                                          /*!< ITM TCR
 650:./inc/core_cm3.h **** #define ITM_TCR_SYNCENA_Msk                (1UL << ITM_TCR_SYNCENA_Pos)                /*!< ITM TCR
 651:./inc/core_cm3.h **** 
 652:./inc/core_cm3.h **** #define ITM_TCR_TSENA_Pos                   1                                          /*!< ITM TCR
 653:./inc/core_cm3.h **** #define ITM_TCR_TSENA_Msk                  (1UL << ITM_TCR_TSENA_Pos)                  /*!< ITM TCR
 654:./inc/core_cm3.h **** 
 655:./inc/core_cm3.h **** #define ITM_TCR_ITMENA_Pos                  0                                          /*!< ITM TCR
 656:./inc/core_cm3.h **** #define ITM_TCR_ITMENA_Msk                 (1UL << ITM_TCR_ITMENA_Pos)                 /*!< ITM TCR
 657:./inc/core_cm3.h **** 
 658:./inc/core_cm3.h **** /*@}*/ /* end of group CMSIS_ITM */
 659:./inc/core_cm3.h **** 
 660:./inc/core_cm3.h **** 
 661:./inc/core_cm3.h **** #if (__MPU_PRESENT == 1)
 662:./inc/core_cm3.h **** /** \ingroup  CMSIS_core_register
 663:./inc/core_cm3.h ****     \defgroup CMSIS_MPU CMSIS MPU
 664:./inc/core_cm3.h ****   Type definitions for the Cortex-M Memory Protection Unit (MPU)
 665:./inc/core_cm3.h ****   @{
 666:./inc/core_cm3.h ****  */
 667:./inc/core_cm3.h **** 
 668:./inc/core_cm3.h **** /** \brief  Structure type to access the Memory Protection Unit (MPU).
 669:./inc/core_cm3.h ****  */
 670:./inc/core_cm3.h **** typedef struct
 671:./inc/core_cm3.h **** {
 672:./inc/core_cm3.h ****   __I  uint32_t TYPE;                    /*!< Offset: 0x000 (R/ )  MPU Type Register               
 673:./inc/core_cm3.h ****   __IO uint32_t CTRL;                    /*!< Offset: 0x004 (R/W)  MPU Control Register            
 674:./inc/core_cm3.h ****   __IO uint32_t RNR;                     /*!< Offset: 0x008 (R/W)  MPU Region RNRber Register      
 675:./inc/core_cm3.h ****   __IO uint32_t RBAR;                    /*!< Offset: 0x00C (R/W)  MPU Region Base Address Register
 676:./inc/core_cm3.h ****   __IO uint32_t RASR;                    /*!< Offset: 0x010 (R/W)  MPU Region Attribute and Size Re
 677:./inc/core_cm3.h ****   __IO uint32_t RBAR_A1;                 /*!< Offset: 0x014 (R/W)  MPU Alias 1 Region Base Address 
 678:./inc/core_cm3.h ****   __IO uint32_t RASR_A1;                 /*!< Offset: 0x018 (R/W)  MPU Alias 1 Region Attribute and
 679:./inc/core_cm3.h ****   __IO uint32_t RBAR_A2;                 /*!< Offset: 0x01C (R/W)  MPU Alias 2 Region Base Address 
 680:./inc/core_cm3.h ****   __IO uint32_t RASR_A2;                 /*!< Offset: 0x020 (R/W)  MPU Alias 2 Region Attribute and
 681:./inc/core_cm3.h ****   __IO uint32_t RBAR_A3;                 /*!< Offset: 0x024 (R/W)  MPU Alias 3 Region Base Address 
 682:./inc/core_cm3.h ****   __IO uint32_t RASR_A3;                 /*!< Offset: 0x028 (R/W)  MPU Alias 3 Region Attribute and
 683:./inc/core_cm3.h **** } MPU_Type;
 684:./inc/core_cm3.h **** 
 685:./inc/core_cm3.h **** /* MPU Type Register */
 686:./inc/core_cm3.h **** #define MPU_TYPE_IREGION_Pos               16                                             /*!< MPU 
 687:./inc/core_cm3.h **** #define MPU_TYPE_IREGION_Msk               (0xFFUL << MPU_TYPE_IREGION_Pos)               /*!< MPU 
 688:./inc/core_cm3.h **** 
 689:./inc/core_cm3.h **** #define MPU_TYPE_DREGION_Pos                8                                             /*!< MPU 
 690:./inc/core_cm3.h **** #define MPU_TYPE_DREGION_Msk               (0xFFUL << MPU_TYPE_DREGION_Pos)               /*!< MPU 
 691:./inc/core_cm3.h **** 
 692:./inc/core_cm3.h **** #define MPU_TYPE_SEPARATE_Pos               0                                             /*!< MPU 
 693:./inc/core_cm3.h **** #define MPU_TYPE_SEPARATE_Msk              (1UL << MPU_TYPE_SEPARATE_Pos)                 /*!< MPU 
 694:./inc/core_cm3.h **** 
 695:./inc/core_cm3.h **** /* MPU Control Register */
 696:./inc/core_cm3.h **** #define MPU_CTRL_PRIVDEFENA_Pos             2                                             /*!< MPU 
 697:./inc/core_cm3.h **** #define MPU_CTRL_PRIVDEFENA_Msk            (1UL << MPU_CTRL_PRIVDEFENA_Pos)               /*!< MPU 
 698:./inc/core_cm3.h **** 
 699:./inc/core_cm3.h **** #define MPU_CTRL_HFNMIENA_Pos               1                                             /*!< MPU 
 700:./inc/core_cm3.h **** #define MPU_CTRL_HFNMIENA_Msk              (1UL << MPU_CTRL_HFNMIENA_Pos)                 /*!< MPU 
 701:./inc/core_cm3.h **** 
ARM GAS  /tmp/ccSINqkc.s 			page 23


 702:./inc/core_cm3.h **** #define MPU_CTRL_ENABLE_Pos                 0                                             /*!< MPU 
 703:./inc/core_cm3.h **** #define MPU_CTRL_ENABLE_Msk                (1UL << MPU_CTRL_ENABLE_Pos)                   /*!< MPU 
 704:./inc/core_cm3.h **** 
 705:./inc/core_cm3.h **** /* MPU Region Number Register */
 706:./inc/core_cm3.h **** #define MPU_RNR_REGION_Pos                  0                                             /*!< MPU 
 707:./inc/core_cm3.h **** #define MPU_RNR_REGION_Msk                 (0xFFUL << MPU_RNR_REGION_Pos)                 /*!< MPU 
 708:./inc/core_cm3.h **** 
 709:./inc/core_cm3.h **** /* MPU Region Base Address Register */
 710:./inc/core_cm3.h **** #define MPU_RBAR_ADDR_Pos                   5                                             /*!< MPU 
 711:./inc/core_cm3.h **** #define MPU_RBAR_ADDR_Msk                  (0x7FFFFFFUL << MPU_RBAR_ADDR_Pos)             /*!< MPU 
 712:./inc/core_cm3.h **** 
 713:./inc/core_cm3.h **** #define MPU_RBAR_VALID_Pos                  4                                             /*!< MPU 
 714:./inc/core_cm3.h **** #define MPU_RBAR_VALID_Msk                 (1UL << MPU_RBAR_VALID_Pos)                    /*!< MPU 
 715:./inc/core_cm3.h **** 
 716:./inc/core_cm3.h **** #define MPU_RBAR_REGION_Pos                 0                                             /*!< MPU 
 717:./inc/core_cm3.h **** #define MPU_RBAR_REGION_Msk                (0xFUL << MPU_RBAR_REGION_Pos)                 /*!< MPU 
 718:./inc/core_cm3.h **** 
 719:./inc/core_cm3.h **** /* MPU Region Attribute and Size Register */
 720:./inc/core_cm3.h **** #define MPU_RASR_ATTRS_Pos                 16                                             /*!< MPU 
 721:./inc/core_cm3.h **** #define MPU_RASR_ATTRS_Msk                 (0xFFFFUL << MPU_RASR_ATTRS_Pos)               /*!< MPU 
 722:./inc/core_cm3.h **** 
 723:./inc/core_cm3.h **** #define MPU_RASR_SRD_Pos                    8                                             /*!< MPU 
 724:./inc/core_cm3.h **** #define MPU_RASR_SRD_Msk                   (0xFFUL << MPU_RASR_SRD_Pos)                   /*!< MPU 
 725:./inc/core_cm3.h **** 
 726:./inc/core_cm3.h **** #define MPU_RASR_SIZE_Pos                   1                                             /*!< MPU 
 727:./inc/core_cm3.h **** #define MPU_RASR_SIZE_Msk                  (0x1FUL << MPU_RASR_SIZE_Pos)                  /*!< MPU 
 728:./inc/core_cm3.h **** 
 729:./inc/core_cm3.h **** #define MPU_RASR_ENABLE_Pos                 0                                             /*!< MPU 
 730:./inc/core_cm3.h **** #define MPU_RASR_ENABLE_Msk                (1UL << MPU_RASR_ENABLE_Pos)                   /*!< MPU 
 731:./inc/core_cm3.h **** 
 732:./inc/core_cm3.h **** /*@} end of group CMSIS_MPU */
 733:./inc/core_cm3.h **** #endif
 734:./inc/core_cm3.h **** 
 735:./inc/core_cm3.h **** 
 736:./inc/core_cm3.h **** /** \ingroup  CMSIS_core_register
 737:./inc/core_cm3.h ****     \defgroup CMSIS_CoreDebug CMSIS Core Debug
 738:./inc/core_cm3.h ****   Type definitions for the Cortex-M Core Debug Registers
 739:./inc/core_cm3.h ****   @{
 740:./inc/core_cm3.h ****  */
 741:./inc/core_cm3.h **** 
 742:./inc/core_cm3.h **** /** \brief  Structure type to access the Core Debug Register (CoreDebug).
 743:./inc/core_cm3.h ****  */
 744:./inc/core_cm3.h **** typedef struct
 745:./inc/core_cm3.h **** {
 746:./inc/core_cm3.h ****   __IO uint32_t DHCSR;                   /*!< Offset: 0x000 (R/W)  Debug Halting Control and Status
 747:./inc/core_cm3.h ****   __O  uint32_t DCRSR;                   /*!< Offset: 0x004 ( /W)  Debug Core Register Selector Reg
 748:./inc/core_cm3.h ****   __IO uint32_t DCRDR;                   /*!< Offset: 0x008 (R/W)  Debug Core Register Data Registe
 749:./inc/core_cm3.h ****   __IO uint32_t DEMCR;                   /*!< Offset: 0x00C (R/W)  Debug Exception and Monitor Cont
 750:./inc/core_cm3.h **** } CoreDebug_Type;
 751:./inc/core_cm3.h **** 
 752:./inc/core_cm3.h **** /* Debug Halting Control and Status Register */
 753:./inc/core_cm3.h **** #define CoreDebug_DHCSR_DBGKEY_Pos         16                                             /*!< Core
 754:./inc/core_cm3.h **** #define CoreDebug_DHCSR_DBGKEY_Msk         (0xFFFFUL << CoreDebug_DHCSR_DBGKEY_Pos)       /*!< Core
 755:./inc/core_cm3.h **** 
 756:./inc/core_cm3.h **** #define CoreDebug_DHCSR_S_RESET_ST_Pos     25                                             /*!< Core
 757:./inc/core_cm3.h **** #define CoreDebug_DHCSR_S_RESET_ST_Msk     (1UL << CoreDebug_DHCSR_S_RESET_ST_Pos)        /*!< Core
 758:./inc/core_cm3.h **** 
ARM GAS  /tmp/ccSINqkc.s 			page 24


 759:./inc/core_cm3.h **** #define CoreDebug_DHCSR_S_RETIRE_ST_Pos    24                                             /*!< Core
 760:./inc/core_cm3.h **** #define CoreDebug_DHCSR_S_RETIRE_ST_Msk    (1UL << CoreDebug_DHCSR_S_RETIRE_ST_Pos)       /*!< Core
 761:./inc/core_cm3.h **** 
 762:./inc/core_cm3.h **** #define CoreDebug_DHCSR_S_LOCKUP_Pos       19                                             /*!< Core
 763:./inc/core_cm3.h **** #define CoreDebug_DHCSR_S_LOCKUP_Msk       (1UL << CoreDebug_DHCSR_S_LOCKUP_Pos)          /*!< Core
 764:./inc/core_cm3.h **** 
 765:./inc/core_cm3.h **** #define CoreDebug_DHCSR_S_SLEEP_Pos        18                                             /*!< Core
 766:./inc/core_cm3.h **** #define CoreDebug_DHCSR_S_SLEEP_Msk        (1UL << CoreDebug_DHCSR_S_SLEEP_Pos)           /*!< Core
 767:./inc/core_cm3.h **** 
 768:./inc/core_cm3.h **** #define CoreDebug_DHCSR_S_HALT_Pos         17                                             /*!< Core
 769:./inc/core_cm3.h **** #define CoreDebug_DHCSR_S_HALT_Msk         (1UL << CoreDebug_DHCSR_S_HALT_Pos)            /*!< Core
 770:./inc/core_cm3.h **** 
 771:./inc/core_cm3.h **** #define CoreDebug_DHCSR_S_REGRDY_Pos       16                                             /*!< Core
 772:./inc/core_cm3.h **** #define CoreDebug_DHCSR_S_REGRDY_Msk       (1UL << CoreDebug_DHCSR_S_REGRDY_Pos)          /*!< Core
 773:./inc/core_cm3.h **** 
 774:./inc/core_cm3.h **** #define CoreDebug_DHCSR_C_SNAPSTALL_Pos     5                                             /*!< Core
 775:./inc/core_cm3.h **** #define CoreDebug_DHCSR_C_SNAPSTALL_Msk    (1UL << CoreDebug_DHCSR_C_SNAPSTALL_Pos)       /*!< Core
 776:./inc/core_cm3.h **** 
 777:./inc/core_cm3.h **** #define CoreDebug_DHCSR_C_MASKINTS_Pos      3                                             /*!< Core
 778:./inc/core_cm3.h **** #define CoreDebug_DHCSR_C_MASKINTS_Msk     (1UL << CoreDebug_DHCSR_C_MASKINTS_Pos)        /*!< Core
 779:./inc/core_cm3.h **** 
 780:./inc/core_cm3.h **** #define CoreDebug_DHCSR_C_STEP_Pos          2                                             /*!< Core
 781:./inc/core_cm3.h **** #define CoreDebug_DHCSR_C_STEP_Msk         (1UL << CoreDebug_DHCSR_C_STEP_Pos)            /*!< Core
 782:./inc/core_cm3.h **** 
 783:./inc/core_cm3.h **** #define CoreDebug_DHCSR_C_HALT_Pos          1                                             /*!< Core
 784:./inc/core_cm3.h **** #define CoreDebug_DHCSR_C_HALT_Msk         (1UL << CoreDebug_DHCSR_C_HALT_Pos)            /*!< Core
 785:./inc/core_cm3.h **** 
 786:./inc/core_cm3.h **** #define CoreDebug_DHCSR_C_DEBUGEN_Pos       0                                             /*!< Core
 787:./inc/core_cm3.h **** #define CoreDebug_DHCSR_C_DEBUGEN_Msk      (1UL << CoreDebug_DHCSR_C_DEBUGEN_Pos)         /*!< Core
 788:./inc/core_cm3.h **** 
 789:./inc/core_cm3.h **** /* Debug Core Register Selector Register */
 790:./inc/core_cm3.h **** #define CoreDebug_DCRSR_REGWnR_Pos         16                                             /*!< Core
 791:./inc/core_cm3.h **** #define CoreDebug_DCRSR_REGWnR_Msk         (1UL << CoreDebug_DCRSR_REGWnR_Pos)            /*!< Core
 792:./inc/core_cm3.h **** 
 793:./inc/core_cm3.h **** #define CoreDebug_DCRSR_REGSEL_Pos          0                                             /*!< Core
 794:./inc/core_cm3.h **** #define CoreDebug_DCRSR_REGSEL_Msk         (0x1FUL << CoreDebug_DCRSR_REGSEL_Pos)         /*!< Core
 795:./inc/core_cm3.h **** 
 796:./inc/core_cm3.h **** /* Debug Exception and Monitor Control Register */
 797:./inc/core_cm3.h **** #define CoreDebug_DEMCR_TRCENA_Pos         24                                             /*!< Core
 798:./inc/core_cm3.h **** #define CoreDebug_DEMCR_TRCENA_Msk         (1UL << CoreDebug_DEMCR_TRCENA_Pos)            /*!< Core
 799:./inc/core_cm3.h **** 
 800:./inc/core_cm3.h **** #define CoreDebug_DEMCR_MON_REQ_Pos        19                                             /*!< Core
 801:./inc/core_cm3.h **** #define CoreDebug_DEMCR_MON_REQ_Msk        (1UL << CoreDebug_DEMCR_MON_REQ_Pos)           /*!< Core
 802:./inc/core_cm3.h **** 
 803:./inc/core_cm3.h **** #define CoreDebug_DEMCR_MON_STEP_Pos       18                                             /*!< Core
 804:./inc/core_cm3.h **** #define CoreDebug_DEMCR_MON_STEP_Msk       (1UL << CoreDebug_DEMCR_MON_STEP_Pos)          /*!< Core
 805:./inc/core_cm3.h **** 
 806:./inc/core_cm3.h **** #define CoreDebug_DEMCR_MON_PEND_Pos       17                                             /*!< Core
 807:./inc/core_cm3.h **** #define CoreDebug_DEMCR_MON_PEND_Msk       (1UL << CoreDebug_DEMCR_MON_PEND_Pos)          /*!< Core
 808:./inc/core_cm3.h **** 
 809:./inc/core_cm3.h **** #define CoreDebug_DEMCR_MON_EN_Pos         16                                             /*!< Core
 810:./inc/core_cm3.h **** #define CoreDebug_DEMCR_MON_EN_Msk         (1UL << CoreDebug_DEMCR_MON_EN_Pos)            /*!< Core
 811:./inc/core_cm3.h **** 
 812:./inc/core_cm3.h **** #define CoreDebug_DEMCR_VC_HARDERR_Pos     10                                             /*!< Core
 813:./inc/core_cm3.h **** #define CoreDebug_DEMCR_VC_HARDERR_Msk     (1UL << CoreDebug_DEMCR_VC_HARDERR_Pos)        /*!< Core
 814:./inc/core_cm3.h **** 
 815:./inc/core_cm3.h **** #define CoreDebug_DEMCR_VC_INTERR_Pos       9                                             /*!< Core
ARM GAS  /tmp/ccSINqkc.s 			page 25


 816:./inc/core_cm3.h **** #define CoreDebug_DEMCR_VC_INTERR_Msk      (1UL << CoreDebug_DEMCR_VC_INTERR_Pos)         /*!< Core
 817:./inc/core_cm3.h **** 
 818:./inc/core_cm3.h **** #define CoreDebug_DEMCR_VC_BUSERR_Pos       8                                             /*!< Core
 819:./inc/core_cm3.h **** #define CoreDebug_DEMCR_VC_BUSERR_Msk      (1UL << CoreDebug_DEMCR_VC_BUSERR_Pos)         /*!< Core
 820:./inc/core_cm3.h **** 
 821:./inc/core_cm3.h **** #define CoreDebug_DEMCR_VC_STATERR_Pos      7                                             /*!< Core
 822:./inc/core_cm3.h **** #define CoreDebug_DEMCR_VC_STATERR_Msk     (1UL << CoreDebug_DEMCR_VC_STATERR_Pos)        /*!< Core
 823:./inc/core_cm3.h **** 
 824:./inc/core_cm3.h **** #define CoreDebug_DEMCR_VC_CHKERR_Pos       6                                             /*!< Core
 825:./inc/core_cm3.h **** #define CoreDebug_DEMCR_VC_CHKERR_Msk      (1UL << CoreDebug_DEMCR_VC_CHKERR_Pos)         /*!< Core
 826:./inc/core_cm3.h **** 
 827:./inc/core_cm3.h **** #define CoreDebug_DEMCR_VC_NOCPERR_Pos      5                                             /*!< Core
 828:./inc/core_cm3.h **** #define CoreDebug_DEMCR_VC_NOCPERR_Msk     (1UL << CoreDebug_DEMCR_VC_NOCPERR_Pos)        /*!< Core
 829:./inc/core_cm3.h **** 
 830:./inc/core_cm3.h **** #define CoreDebug_DEMCR_VC_MMERR_Pos        4                                             /*!< Core
 831:./inc/core_cm3.h **** #define CoreDebug_DEMCR_VC_MMERR_Msk       (1UL << CoreDebug_DEMCR_VC_MMERR_Pos)          /*!< Core
 832:./inc/core_cm3.h **** 
 833:./inc/core_cm3.h **** #define CoreDebug_DEMCR_VC_CORERESET_Pos    0                                             /*!< Core
 834:./inc/core_cm3.h **** #define CoreDebug_DEMCR_VC_CORERESET_Msk   (1UL << CoreDebug_DEMCR_VC_CORERESET_Pos)      /*!< Core
 835:./inc/core_cm3.h **** 
 836:./inc/core_cm3.h **** /*@} end of group CMSIS_CoreDebug */
 837:./inc/core_cm3.h **** 
 838:./inc/core_cm3.h **** 
 839:./inc/core_cm3.h **** /** \ingroup  CMSIS_core_register
 840:./inc/core_cm3.h ****   @{
 841:./inc/core_cm3.h ****  */
 842:./inc/core_cm3.h **** 
 843:./inc/core_cm3.h **** /* Memory mapping of Cortex-M3 Hardware */
 844:./inc/core_cm3.h **** #define SCS_BASE            (0xE000E000UL)                            /*!< System Control Space Bas
 845:./inc/core_cm3.h **** #define ITM_BASE            (0xE0000000UL)                            /*!< ITM Base Address        
 846:./inc/core_cm3.h **** #define CoreDebug_BASE      (0xE000EDF0UL)                            /*!< Core Debug Base Address 
 847:./inc/core_cm3.h **** #define SysTick_BASE        (SCS_BASE +  0x0010UL)                    /*!< SysTick Base Address    
 848:./inc/core_cm3.h **** #define NVIC_BASE           (SCS_BASE +  0x0100UL)                    /*!< NVIC Base Address       
 849:./inc/core_cm3.h **** #define SCB_BASE            (SCS_BASE +  0x0D00UL)                    /*!< System Control Block Bas
 850:./inc/core_cm3.h **** 
 851:./inc/core_cm3.h **** #define SCnSCB              ((SCnSCB_Type    *)     SCS_BASE      )   /*!< System control Register 
 852:./inc/core_cm3.h **** #define SCB                 ((SCB_Type       *)     SCB_BASE      )   /*!< SCB configuration struct
 853:./inc/core_cm3.h **** #define SysTick             ((SysTick_Type   *)     SysTick_BASE  )   /*!< SysTick configuration st
 854:./inc/core_cm3.h **** #define NVIC                ((NVIC_Type      *)     NVIC_BASE     )   /*!< NVIC configuration struc
 855:./inc/core_cm3.h **** #define ITM                 ((ITM_Type       *)     ITM_BASE      )   /*!< ITM configuration struct
 856:./inc/core_cm3.h **** #define CoreDebug           ((CoreDebug_Type *)     CoreDebug_BASE)   /*!< Core Debug configuration
 857:./inc/core_cm3.h **** 
 858:./inc/core_cm3.h **** #if (__MPU_PRESENT == 1)
 859:./inc/core_cm3.h ****   #define MPU_BASE          (SCS_BASE +  0x0D90UL)                    /*!< Memory Protection Unit  
 860:./inc/core_cm3.h ****   #define MPU               ((MPU_Type       *)     MPU_BASE      )   /*!< Memory Protection Unit  
 861:./inc/core_cm3.h **** #endif
 862:./inc/core_cm3.h **** 
 863:./inc/core_cm3.h **** /*@} */
 864:./inc/core_cm3.h **** 
 865:./inc/core_cm3.h **** 
 866:./inc/core_cm3.h **** 
 867:./inc/core_cm3.h **** /*******************************************************************************
 868:./inc/core_cm3.h ****  *                Hardware Abstraction Layer
 869:./inc/core_cm3.h ****  ******************************************************************************/
 870:./inc/core_cm3.h **** /** \defgroup CMSIS_Core_FunctionInterface CMSIS Core Function Interface
 871:./inc/core_cm3.h ****   Core Function Interface contains:
 872:./inc/core_cm3.h ****   - Core NVIC Functions
ARM GAS  /tmp/ccSINqkc.s 			page 26


 873:./inc/core_cm3.h ****   - Core SysTick Functions
 874:./inc/core_cm3.h ****   - Core Debug Functions
 875:./inc/core_cm3.h ****   - Core Register Access Functions
 876:./inc/core_cm3.h **** */
 877:./inc/core_cm3.h **** 
 878:./inc/core_cm3.h **** 
 879:./inc/core_cm3.h **** 
 880:./inc/core_cm3.h **** /* ##########################   NVIC functions  #################################### */
 881:./inc/core_cm3.h **** /** \ingroup  CMSIS_Core_FunctionInterface
 882:./inc/core_cm3.h ****     \defgroup CMSIS_Core_NVICFunctions CMSIS Core NVIC Functions
 883:./inc/core_cm3.h ****   @{
 884:./inc/core_cm3.h ****  */
 885:./inc/core_cm3.h **** 
 886:./inc/core_cm3.h **** /** \brief  Set Priority Grouping
 887:./inc/core_cm3.h **** 
 888:./inc/core_cm3.h ****   This function sets the priority grouping field using the required unlock sequence.
 889:./inc/core_cm3.h ****   The parameter PriorityGroup is assigned to the field SCB->AIRCR [10:8] PRIGROUP field.
 890:./inc/core_cm3.h ****   Only values from 0..7 are used.
 891:./inc/core_cm3.h ****   In case of a conflict between priority grouping and available
 892:./inc/core_cm3.h ****   priority bits (__NVIC_PRIO_BITS) the smallest possible priority group is set.
 893:./inc/core_cm3.h **** 
 894:./inc/core_cm3.h ****     \param [in]      PriorityGroup  Priority grouping field
 895:./inc/core_cm3.h ****  */
 896:./inc/core_cm3.h **** static __INLINE void NVIC_SetPriorityGrouping(uint32_t PriorityGroup)
 897:./inc/core_cm3.h **** {
 898:./inc/core_cm3.h ****   uint32_t reg_value;
 899:./inc/core_cm3.h ****   uint32_t PriorityGroupTmp = (PriorityGroup & (uint32_t)0x07);               /* only values 0..7 a
 900:./inc/core_cm3.h **** 
 901:./inc/core_cm3.h ****   reg_value  =  SCB->AIRCR;                                                   /* read old register 
 902:./inc/core_cm3.h ****   reg_value &= ~(SCB_AIRCR_VECTKEY_Msk | SCB_AIRCR_PRIGROUP_Msk);             /* clear bits to chan
 903:./inc/core_cm3.h ****   reg_value  =  (reg_value                                 |
 904:./inc/core_cm3.h ****                 ((uint32_t)0x5FA << SCB_AIRCR_VECTKEY_Pos) |
 905:./inc/core_cm3.h ****                 (PriorityGroupTmp << 8));                                     /* Insert write key a
 906:./inc/core_cm3.h ****   SCB->AIRCR =  reg_value;
 907:./inc/core_cm3.h **** }
 908:./inc/core_cm3.h **** 
 909:./inc/core_cm3.h **** 
 910:./inc/core_cm3.h **** /** \brief  Get Priority Grouping
 911:./inc/core_cm3.h **** 
 912:./inc/core_cm3.h ****   This function gets the priority grouping from NVIC Interrupt Controller.
 913:./inc/core_cm3.h ****   Priority grouping is SCB->AIRCR [10:8] PRIGROUP field.
 914:./inc/core_cm3.h **** 
 915:./inc/core_cm3.h ****     \return                Priority grouping field
 916:./inc/core_cm3.h ****  */
 917:./inc/core_cm3.h **** static __INLINE uint32_t NVIC_GetPriorityGrouping(void)
 918:./inc/core_cm3.h **** {
 919:./inc/core_cm3.h ****   return ((SCB->AIRCR & SCB_AIRCR_PRIGROUP_Msk) >> SCB_AIRCR_PRIGROUP_Pos);   /* read priority grou
 920:./inc/core_cm3.h **** }
 921:./inc/core_cm3.h **** 
 922:./inc/core_cm3.h **** 
 923:./inc/core_cm3.h **** /** \brief  Enable External Interrupt
 924:./inc/core_cm3.h **** 
 925:./inc/core_cm3.h ****     This function enables a device specific interrupt in the NVIC interrupt controller.
 926:./inc/core_cm3.h ****     The interrupt number cannot be a negative value.
 927:./inc/core_cm3.h **** 
 928:./inc/core_cm3.h ****     \param [in]      IRQn  Number of the external interrupt to enable
 929:./inc/core_cm3.h ****  */
ARM GAS  /tmp/ccSINqkc.s 			page 27


 930:./inc/core_cm3.h **** static __INLINE void NVIC_EnableIRQ(IRQn_Type IRQn)
 931:./inc/core_cm3.h **** {
 932:./inc/core_cm3.h ****   NVIC->ISER[((uint32_t)(IRQn) >> 5)] = (1 << ((uint32_t)(IRQn) & 0x1F)); /* enable interrupt */
 933:./inc/core_cm3.h **** }
 934:./inc/core_cm3.h **** 
 935:./inc/core_cm3.h **** 
 936:./inc/core_cm3.h **** /** \brief  Disable External Interrupt
 937:./inc/core_cm3.h **** 
 938:./inc/core_cm3.h ****     This function disables a device specific interrupt in the NVIC interrupt controller.
 939:./inc/core_cm3.h ****     The interrupt number cannot be a negative value.
 940:./inc/core_cm3.h **** 
 941:./inc/core_cm3.h ****     \param [in]      IRQn  Number of the external interrupt to disable
 942:./inc/core_cm3.h ****  */
 943:./inc/core_cm3.h **** static __INLINE void NVIC_DisableIRQ(IRQn_Type IRQn)
 944:./inc/core_cm3.h **** {
 945:./inc/core_cm3.h ****   NVIC->ICER[((uint32_t)(IRQn) >> 5)] = (1 << ((uint32_t)(IRQn) & 0x1F)); /* disable interrupt */
 946:./inc/core_cm3.h **** }
 947:./inc/core_cm3.h **** 
 948:./inc/core_cm3.h **** 
 949:./inc/core_cm3.h **** /** \brief  Get Pending Interrupt
 950:./inc/core_cm3.h **** 
 951:./inc/core_cm3.h ****     This function reads the pending register in the NVIC and returns the pending bit
 952:./inc/core_cm3.h ****     for the specified interrupt.
 953:./inc/core_cm3.h **** 
 954:./inc/core_cm3.h ****     \param [in]      IRQn  Number of the interrupt for get pending
 955:./inc/core_cm3.h ****     \return             0  Interrupt status is not pending
 956:./inc/core_cm3.h ****     \return             1  Interrupt status is pending
 957:./inc/core_cm3.h ****  */
 958:./inc/core_cm3.h **** static __INLINE uint32_t NVIC_GetPendingIRQ(IRQn_Type IRQn)
 959:./inc/core_cm3.h **** {
 960:./inc/core_cm3.h ****   return((uint32_t) ((NVIC->ISPR[(uint32_t)(IRQn) >> 5] & (1 << ((uint32_t)(IRQn) & 0x1F)))?1:0)); 
 961:./inc/core_cm3.h **** }
 962:./inc/core_cm3.h **** 
 963:./inc/core_cm3.h **** 
 964:./inc/core_cm3.h **** /** \brief  Set Pending Interrupt
 965:./inc/core_cm3.h **** 
 966:./inc/core_cm3.h ****     This function sets the pending bit for the specified interrupt.
 967:./inc/core_cm3.h ****     The interrupt number cannot be a negative value.
 968:./inc/core_cm3.h **** 
 969:./inc/core_cm3.h ****     \param [in]      IRQn  Number of the interrupt for set pending
 970:./inc/core_cm3.h ****  */
 971:./inc/core_cm3.h **** static __INLINE void NVIC_SetPendingIRQ(IRQn_Type IRQn)
 972:./inc/core_cm3.h **** {
 973:./inc/core_cm3.h ****   NVIC->ISPR[((uint32_t)(IRQn) >> 5)] = (1 << ((uint32_t)(IRQn) & 0x1F)); /* set interrupt pending 
 974:./inc/core_cm3.h **** }
 975:./inc/core_cm3.h **** 
 976:./inc/core_cm3.h **** 
 977:./inc/core_cm3.h **** /** \brief  Clear Pending Interrupt
 978:./inc/core_cm3.h **** 
 979:./inc/core_cm3.h ****     This function clears the pending bit for the specified interrupt.
 980:./inc/core_cm3.h ****     The interrupt number cannot be a negative value.
 981:./inc/core_cm3.h **** 
 982:./inc/core_cm3.h ****     \param [in]      IRQn  Number of the interrupt for clear pending
 983:./inc/core_cm3.h ****  */
 984:./inc/core_cm3.h **** static __INLINE void NVIC_ClearPendingIRQ(IRQn_Type IRQn)
 985:./inc/core_cm3.h **** {
 986:./inc/core_cm3.h ****   NVIC->ICPR[((uint32_t)(IRQn) >> 5)] = (1 << ((uint32_t)(IRQn) & 0x1F)); /* Clear pending interrup
ARM GAS  /tmp/ccSINqkc.s 			page 28


 987:./inc/core_cm3.h **** }
 988:./inc/core_cm3.h **** 
 989:./inc/core_cm3.h **** 
 990:./inc/core_cm3.h **** /** \brief  Get Active Interrupt
 991:./inc/core_cm3.h **** 
 992:./inc/core_cm3.h ****     This function reads the active register in NVIC and returns the active bit.
 993:./inc/core_cm3.h ****     \param [in]      IRQn  Number of the interrupt for get active
 994:./inc/core_cm3.h ****     \return             0  Interrupt status is not active
 995:./inc/core_cm3.h ****     \return             1  Interrupt status is active
 996:./inc/core_cm3.h ****  */
 997:./inc/core_cm3.h **** static __INLINE uint32_t NVIC_GetActive(IRQn_Type IRQn)
 998:./inc/core_cm3.h **** {
 999:./inc/core_cm3.h ****   return((uint32_t)((NVIC->IABR[(uint32_t)(IRQn) >> 5] & (1 << ((uint32_t)(IRQn) & 0x1F)))?1:0)); /
1000:./inc/core_cm3.h **** }
1001:./inc/core_cm3.h **** 
1002:./inc/core_cm3.h **** 
1003:./inc/core_cm3.h **** /** \brief  Set Interrupt Priority
1004:./inc/core_cm3.h **** 
1005:./inc/core_cm3.h ****     This function sets the priority for the specified interrupt. The interrupt
1006:./inc/core_cm3.h ****     number can be positive to specify an external (device specific)
1007:./inc/core_cm3.h ****     interrupt, or negative to specify an internal (core) interrupt.
1008:./inc/core_cm3.h **** 
1009:./inc/core_cm3.h ****     Note: The priority cannot be set for every core interrupt.
1010:./inc/core_cm3.h **** 
1011:./inc/core_cm3.h ****     \param [in]      IRQn  Number of the interrupt for set priority
1012:./inc/core_cm3.h ****     \param [in]  priority  Priority to set
1013:./inc/core_cm3.h ****  */
1014:./inc/core_cm3.h **** static __INLINE void NVIC_SetPriority(IRQn_Type IRQn, uint32_t priority)
1015:./inc/core_cm3.h **** {
1016:./inc/core_cm3.h ****   if(IRQn < 0) {
1017:./inc/core_cm3.h ****     SCB->SHP[((uint32_t)(IRQn) & 0xF)-4] = ((priority << (8 - __NVIC_PRIO_BITS)) & 0xff); } /* set 
1018:./inc/core_cm3.h ****   else {
1019:./inc/core_cm3.h ****     NVIC->IP[(uint32_t)(IRQn)] = ((priority << (8 - __NVIC_PRIO_BITS)) & 0xff);    }        /* set 
 214              		.loc 2 1019 0
 215 003a 2B48     		ldr	r0, .L21+16	@ tmp168,
 216              	.LBE27:
 217              	.LBE26:
 114:peripherals/usart.cpp **** 	USARTx->CR3 = USART_CR3_DMAT;
 218              		.loc 1 114 0
 219 003c 9A82     		strh	r2, [r3, #20]	@ movhi	@ tmp167, MEM[(struct USART_TypeDef *)1073821696B].CR3
 220              	.LVL10:
 119:peripherals/usart.cpp **** 	RCC_AHBENR_DMAxEN_bb = 1;				// enable DMA
 221              		.loc 1 119 0
 222 003e 2B4A     		ldr	r2, .L21+20	@ tmp173,
 223              	.LBB30:
 224              	.LBB28:
 225              		.loc 2 1019 0
 226 0040 A023     		movs	r3, #160	@ tmp169,
 227              	.LBE28:
 228              	.LBE30:
 229              	.LBB31:
 230              	.LBB32:
 932:./inc/core_cm3.h ****   NVIC->ISER[((uint32_t)(IRQn) >> 5)] = (1 << ((uint32_t)(IRQn) & 0x1F)); /* enable interrupt */
 231              		.loc 2 932 0
 232 0042 2021     		movs	r1, #32	@ tmp172,
 233              	.LBE32:
 234              	.LBE31:
ARM GAS  /tmp/ccSINqkc.s 			page 29


 235              	.LBB34:
 236              	.LBB29:
 237              		.loc 2 1019 0
 238 0044 80F82533 		strb	r3, [r0, #805]	@ tmp169, MEM[(struct NVIC_Type *)3758153984B].IP
 239              	.LVL11:
 240              	.LBE29:
 241              	.LBE34:
 242              	.LBB35:
 243              	.LBB33:
 932:./inc/core_cm3.h ****   NVIC->ISER[((uint32_t)(IRQn) >> 5)] = (1 << ((uint32_t)(IRQn) & 0x1F)); /* enable interrupt */
 244              		.loc 2 932 0
 245 0048 4160     		str	r1, [r0, #4]	@ tmp172, MEM[(struct NVIC_Type *)3758153984B].ISER
 246              	.LBE33:
 247              	.LBE35:
 119:peripherals/usart.cpp **** 	RCC_AHBENR_DMAxEN_bb = 1;				// enable DMA
 248              		.loc 1 119 0
 249 004a 1460     		str	r4, [r2, #0]	@ tmp155, MEM[(volatile long unsigned int *)1111950304B]
 250              	.LVL12:
 251              	.LBB36:
 252              	.LBB37:
 253              		.loc 2 1019 0
 254 004c 80F80E33 		strb	r3, [r0, #782]	@ tmp169, MEM[(struct NVIC_Type *)3758153984B].IP
 255              	.LVL13:
 256              	.LBE37:
 257              	.LBE36:
 258              	.LBB38:
 259              	.LBB39:
 932:./inc/core_cm3.h ****   NVIC->ISER[((uint32_t)(IRQn) >> 5)] = (1 << ((uint32_t)(IRQn) & 0x1F)); /* enable interrupt */
 260              		.loc 2 932 0
 261 0050 4FF48043 		mov	r3, #16384	@ tmp179,
 262 0054 0360     		str	r3, [r0, #0]	@ tmp179, MEM[(struct NVIC_Type *)3758153984B].ISER
 263              	.LBE39:
 264              	.LBE38:
 124:peripherals/usart.cpp **** 	vSemaphoreCreateBinary(_dmaTxSemaphore);
 265              		.loc 1 124 0
 266 0056 0021     		movs	r1, #0	@,
 267 0058 2046     		mov	r0, r4	@, tmp155
 268 005a 0322     		movs	r2, #3	@,
 269 005c FFF7FEFF 		bl	xQueueGenericCreate	@
 270              	.LVL14:
 271 0060 234C     		ldr	r4, .L21+24	@ tmp180,
 272 0062 2060     		str	r0, [r4, #0]	@ _dmaTxSemaphore.7, _dmaTxSemaphore
 273 0064 20B1     		cbz	r0, .L8	@ _dmaTxSemaphore.7,
 124:peripherals/usart.cpp **** 	vSemaphoreCreateBinary(_dmaTxSemaphore);
 274              		.loc 1 124 0 is_stmt 0 discriminator 1
 275 0066 0021     		movs	r1, #0	@,
 276 0068 0A46     		mov	r2, r1	@,
 277 006a 0B46     		mov	r3, r1	@,
 278 006c FFF7FEFF 		bl	xQueueGenericSend	@
 279              	.LVL15:
 280              	.L8:
 126:peripherals/usart.cpp **** 	if (_dmaTxSemaphore == NULL)			// semaphore not created?
 281              		.loc 1 126 0 is_stmt 1
 282 0070 2068     		ldr	r0, [r4, #0]	@ _dmaTxSemaphore, _dmaTxSemaphore
 283 0072 08B9     		cbnz	r0, .L9	@ _dmaTxSemaphore,
 284              	.L11:
 285              	.LBE25:
ARM GAS  /tmp/ccSINqkc.s 			page 30


 127:peripherals/usart.cpp **** 		return ERROR_FreeRTOS_errCOULD_NOT_ALLOCATE_REQUIRED_MEMORY;// return with error
 286              		.loc 1 127 0
 287 0074 FE23     		movs	r3, #254	@ error,
 288 0076 2CE0     		b	.L10	@
 289              	.L9:
 290              	.LBB44:
 129:peripherals/usart.cpp **** 	_txQueue = xQueueCreate(USARTx_TX_QUEUE_LENGTH, sizeof(struct _TxMessage));
 291              		.loc 1 129 0
 292 0078 0022     		movs	r2, #0	@,
 293 007a 1020     		movs	r0, #16	@,
 294 007c 0821     		movs	r1, #8	@,
 295 007e FFF7FEFF 		bl	xQueueGenericCreate	@
 296              	.LVL16:
 297 0082 1C4A     		ldr	r2, .L21+28	@ tmp183,
 298 0084 1060     		str	r0, [r2, #0]	@ _txQueue.9, _txQueue
 131:peripherals/usart.cpp **** 	if (_txQueue == NULL)					// queue not created?
 299              		.loc 1 131 0
 300 0086 0028     		cmp	r0, #0	@ _txQueue.9
 301 0088 F4D0     		beq	.L11	@
 134:peripherals/usart.cpp **** 	_rxQueue = xQueueCreate(USARTx_RX_QUEUE_LENGTH, sizeof(struct _RxMessage));
 302              		.loc 1 134 0
 303 008a 1020     		movs	r0, #16	@,
 304 008c 1821     		movs	r1, #24	@,
 305 008e 0022     		movs	r2, #0	@,
 306 0090 FFF7FEFF 		bl	xQueueGenericCreate	@
 307              	.LVL17:
 308 0094 184B     		ldr	r3, .L21+32	@ tmp184,
 309 0096 1860     		str	r0, [r3, #0]	@ _rxQueue.11, _rxQueue
 136:peripherals/usart.cpp **** 	if (_rxQueue == NULL)					// queue not created?
 310              		.loc 1 136 0
 311 0098 0028     		cmp	r0, #0	@ _rxQueue.11
 312 009a EBD0     		beq	.L11	@
 139:peripherals/usart.cpp **** 	portBASE_TYPE ret = xTaskCreate(_txTask, (signed char* )"USART TX",
 313              		.loc 1 139 0
 314 009c 0023     		movs	r3, #0	@ tmp188,
 315 009e 0124     		movs	r4, #1	@ tmp187,
 316 00a0 0193     		str	r3, [sp, #4]	@ tmp188,
 317 00a2 0293     		str	r3, [sp, #8]	@ tmp188,
 318 00a4 0393     		str	r3, [sp, #12]	@ tmp188,
 319 00a6 1549     		ldr	r1, .L21+36	@,
 320 00a8 8022     		movs	r2, #128	@,
 321 00aa 0094     		str	r4, [sp, #0]	@ tmp187,
 322 00ac 1448     		ldr	r0, .L21+40	@,
 323 00ae FFF7FEFF 		bl	xTaskGenericCreate	@
 324              	.LVL18:
 325              	.LBB40:
 326              	.LBB41:
 327              		.file 3 "./error.h"
   1:./error.h     **** /**
   2:./error.h     ****  * \file error.h
   3:./error.h     ****  * \brief Error codes used in program, functions for error handling.
   4:./error.h     ****  *
   5:./error.h     ****  * Error codes used in program, functions for error handling.
   6:./error.h     ****  *
   7:./error.h     ****  * prefix: error
   8:./error.h     ****  *
   9:./error.h     ****  * \author grochu
ARM GAS  /tmp/ccSINqkc.s 			page 31


  10:./error.h     ****  * \date 2012-08-30
  11:./error.h     ****  */
  12:./error.h     **** 
  13:./error.h     **** #ifndef ERROR_H_
  14:./error.h     **** #define ERROR_H_
  15:./error.h     **** 
  16:./error.h     **** #include <cstdint>
  17:./error.h     **** 
  18:./error.h     **** #include "FreeRTOS.h"
  19:./error.h     **** #include "projdefs.h"
  20:./error.h     **** 
  21:./error.h     **** #include "ff.h"
  22:./error.h     **** 
  23:./error.h     **** /*-------------------------------------------------------------------------------------------------
  24:./error.h     **** | global variables' types
  25:./error.h     **** +--------------------------------------------------------------------------------------------------
  26:./error.h     **** 
  27:./error.h     **** /// error (and result) values for whole project. It is assumed that 0 means "no error", negative va
  28:./error.h     **** /// errors, while positive are for non-fatal ones
  29:./error.h     **** enum Error
  30:./error.h     **** {
  31:./error.h     **** 	// --- negative values ---
  32:./error.h     **** 
  33:./error.h     **** 	// FreeRTOS errors from projdefs.h
  34:./error.h     **** 
  35:./error.h     **** 	ERROR_FreeRTOS_errQUEUE_YIELD = -6,		// errQUEUE_YIELD == -5 in FreeRTOS
  36:./error.h     **** 	ERROR_FreeRTOS_errQUEUE_BLOCKED,		// errQUEUE_BLOCKED == -4 in FreeRTOS
  37:./error.h     **** 	// -3 is not assigned to any error in FreeRTOS
  38:./error.h     **** 	ERROR_FreeRTOS_errNO_TASK_TO_RUN = ERROR_FreeRTOS_errQUEUE_BLOCKED + 2,	// errNO_TASK_TO_RUN == -2
  39:./error.h     **** 	ERROR_FreeRTOS_errCOULD_NOT_ALLOCATE_REQUIRED_MEMORY,	// errCOULD_NOT_ALLOCATE_REQUIRED_MEMORY == 
  40:./error.h     **** 	// pdFAIL == errQUEUE_EMPTY == errQUEUE_FULL == 0 in FreeRTOS
  41:./error.h     **** 	ERROR_FreeRTOS_pdFAIL, ERROR_FreeRTOS_errQUEUE_EMPTY = ERROR_FreeRTOS_pdFAIL, ERROR_FreeRTOS_errQU
  42:./error.h     **** 
  43:./error.h     **** 	// --- success value 0 ---
  44:./error.h     **** 
  45:./error.h     **** 	ERROR_NONE = 0,
  46:./error.h     **** 
  47:./error.h     **** 	ERROR_FreeRTOS_pdPASS = ERROR_NONE, // pdPASS == 1 in FreeRTOS
  48:./error.h     **** 	ERROR_FatFS_FR_OK = ERROR_NONE,									/* (0) Succeeded */
  49:./error.h     **** 
  50:./error.h     **** 	// FatFS results from ff.h
  51:./error.h     **** 
  52:./error.h     **** 	ERROR_FatFS_FR_DISK_ERR = FR_DISK_ERR,							/* (1) A hard error occured in the low level disk I/O
  53:./error.h     **** 	ERROR_FatFS_FR_INT_ERR = FR_INT_ERR,							/* (2) Assertion failed */
  54:./error.h     **** 	ERROR_FatFS_FR_NOT_READY = FR_NOT_READY,						/* (3) The physical drive cannot work */
  55:./error.h     **** 	ERROR_FatFS_FR_NO_FILE = FR_NO_FILE,							/* (4) Could not find the file */
  56:./error.h     **** 	ERROR_FatFS_FR_NO_PATH = FR_NO_PATH,							/* (5) Could not find the path */
  57:./error.h     **** 	ERROR_FatFS_FR_INVALID_NAME = FR_INVALID_NAME,					/* (6) The path name format is invalid */
  58:./error.h     **** 	ERROR_FatFS_FR_DENIED = FR_DENIED,								/* (7) Acces denied due to prohibited access or director
  59:./error.h     **** 	ERROR_FatFS_FR_EXIST = FR_EXIST,								/* (8) Acces denied due to prohibited access */
  60:./error.h     **** 	ERROR_FatFS_FR_INVALID_OBJECT = FR_INVALID_OBJECT,				/* (9) The file/directory object is invalid 
  61:./error.h     **** 	ERROR_FatFS_FR_WRITE_PROTECTED = FR_WRITE_PROTECTED,			/* (10) The physical drive is write protect
  62:./error.h     **** 	ERROR_FatFS_FR_INVALID_DRIVE = FR_INVALID_DRIVE,				/* (11) The logical drive number is invalid */
  63:./error.h     **** 	ERROR_FatFS_FR_NOT_ENABLED = FR_NOT_ENABLED,					/* (12) The volume has no work area */
  64:./error.h     **** 	ERROR_FatFS_FR_NO_FILESYSTEM = FR_NO_FILESYSTEM,				/* (13) There is no valid FAT volume */
  65:./error.h     **** 	ERROR_FatFS_FR_MKFS_ABORTED = FR_MKFS_ABORTED,					/* (14) The f_mkfs() aborted due to any paramet
  66:./error.h     **** 	ERROR_FatFS_FR_TIMEOUT = FR_TIMEOUT,							/* (15) Could not get a grant to access the volume with
ARM GAS  /tmp/ccSINqkc.s 			page 32


  67:./error.h     **** 	ERROR_FatFS_FR_LOCKED = FR_LOCKED,								/* (16) The operation is rejected according to the file 
  68:./error.h     **** 	ERROR_FatFS_FR_NOT_ENOUGH_CORE = FR_NOT_ENOUGH_CORE,			/* (17) LFN working buffer could not be all
  69:./error.h     **** 	ERROR_FatFS_FR_TOO_MANY_OPEN_FILES = FR_TOO_MANY_OPEN_FILES,	/* (18) Number of open files > _FS_SH
  70:./error.h     **** 	ERROR_FatFS_FR_INVALID_PARAMETER = FR_INVALID_PARAMETER,		/* (19) Given parameter is invalid */
  71:./error.h     **** 
  72:./error.h     **** 	// --- communications on MainBus <I2C> errors ---
  73:./error.h     **** 	ERROR_MAINBUSS_TARGET_UNREACHABLE,
  74:./error.h     **** 	ERROR_MAINBUSS_MODULE_NOT_READY,
  75:./error.h     **** 	ERROR_MAINBUSS_DATA_NOT_READY,
  76:./error.h     **** 	ERROR_MAINBUSS_BUS_CORRUPTION,
  77:./error.h     **** 
  78:./error.h     **** 	// --- positive values ---
  79:./error.h     **** 
  80:./error.h     **** 	// commands
  81:./error.h     **** 
  82:./error.h     **** 	ERROR_COMMAND_NOT_FOUND,
  83:./error.h     **** 
  84:./error.h     **** 	// various
  85:./error.h     **** 
  86:./error.h     **** 	ERROR_BUFFER_OVERFLOW,
  87:./error.h     **** };
  88:./error.h     **** 
  89:./error.h     **** /*-------------------------------------------------------------------------------------------------
  90:./error.h     **** | global functions
  91:./error.h     **** +--------------------------------------------------------------------------------------------------
  92:./error.h     **** 
  93:./error.h     **** /**
  94:./error.h     ****  * \brief Converts FatFS FRESULT to enum Error.
  95:./error.h     ****  *
  96:./error.h     ****  * Converts FatFS FRESULT to enum Error.
  97:./error.h     ****  *
  98:./error.h     ****  * \param [in] fresult is a FRESULT from FatFS
  99:./error.h     ****  *
 100:./error.h     ****  * \return fresult converted to enum Error
 101:./error.h     ****  */
 102:./error.h     **** 
 103:./error.h     **** static inline enum Error errorConvert_FRESULT(FRESULT fresult)
 104:./error.h     **** {
 105:./error.h     **** 	return (enum Error)(fresult + ERROR_FatFS_FR_OK);
 106:./error.h     **** }
 107:./error.h     **** 
 108:./error.h     **** /**
 109:./error.h     ****  * \brief Converts FreeRTOS portBASE_TYPE to enum Error.
 110:./error.h     ****  *
 111:./error.h     ****  * Converts FreeRTOS portBASE_TYPE to enum Error.
 112:./error.h     ****  *
 113:./error.h     ****  * \param [in] ret is a portBASE_TYPE return value from FreeRTOS
 114:./error.h     ****  *
 115:./error.h     ****  * \return ret converted to enum Error
 116:./error.h     ****  */
 117:./error.h     **** 
 118:./error.h     **** static inline enum Error errorConvert_portBASE_TYPE(portBASE_TYPE ret)
 119:./error.h     **** {
 120:./error.h     **** 	return (enum Error)(ret - pdPASS + (int32_t)ERROR_FreeRTOS_pdPASS);
 328              		.loc 3 120 0
 329 00b2 411E     		subs	r1, r0, #1	@ tmp192,,
 330              	.LBE41:
ARM GAS  /tmp/ccSINqkc.s 			page 33


 331              	.LBE40:
 144:peripherals/usart.cpp **** 	if (error != ERROR_NONE)
 332              		.loc 1 144 0
 333 00b4 11F0FF03 		ands	r3, r1, #255	@ error, tmp192,
 334 00b8 0BD1     		bne	.L10	@,
 148:peripherals/usart.cpp **** 			NULL, USART_RX_TASK_PRIORITY, NULL);
 335              		.loc 1 148 0
 336 00ba 0193     		str	r3, [sp, #4]	@ error,
 337 00bc 0293     		str	r3, [sp, #8]	@ error,
 338 00be 0393     		str	r3, [sp, #12]	@ error,
 339 00c0 0094     		str	r4, [sp, #0]	@ tmp187,
 340 00c2 1048     		ldr	r0, .L21+44	@,
 341              	.LVL19:
 342 00c4 1049     		ldr	r1, .L21+48	@,
 343              	.LVL20:
 344 00c6 4FF48072 		mov	r2, #256	@,
 345 00ca FFF7FEFF 		bl	xTaskGenericCreate	@
 346              	.LVL21:
 347              	.LBB42:
 348              	.LBB43:
 349              		.loc 3 120 0
 350 00ce 0138     		subs	r0, r0, #1	@ tmp200,,
 351              	.LVL22:
 352 00d0 C3B2     		uxtb	r3, r0	@ error, tmp200
 353              	.LVL23:
 354              	.L10:
 355              	.LBE43:
 356              	.LBE42:
 357              	.LBE44:
 153:peripherals/usart.cpp **** }
 358              		.loc 1 153 0
 359 00d2 58B2     		sxtb	r0, r3	@, error
 360 00d4 04B0     		add	sp, sp, #16	@,,
 361 00d6 10BD     		pop	{r4, pc}
 362              	.L22:
 363              		.align	2
 364              	.L21:
 365 00d8 00000240 		.word	1073872896
 366 00dc 02130700 		.word	463618
 367 00e0 38044742 		.word	1111950392
 368 00e4 00380140 		.word	1073821696
 369 00e8 00E100E0 		.word	-536813312
 370 00ec E0034742 		.word	1111950304
 371 00f0 00000000 		.word	.LANCHOR1
 372 00f4 00000000 		.word	.LANCHOR0
 373 00f8 00000000 		.word	.LANCHOR2
 374 00fc 00000000 		.word	.LC0
 375 0100 00000000 		.word	_ZL7_txTaskPv
 376 0104 00000000 		.word	_ZL7_rxTaskPv
 377 0108 09000000 		.word	.LC1
 378              		.cfi_endproc
 379              	.LFE57:
 380              		.size	_Z15usartInitializev, .-_Z15usartInitializev
 381              		.section	.text.usartSendCharacter,"ax",%progbits
 382              		.align	1
 383              		.global	usartSendCharacter
 384              		.thumb
ARM GAS  /tmp/ccSINqkc.s 			page 34


 385              		.thumb_func
 386              		.type	usartSendCharacter, %function
 387              	usartSendCharacter:
 388              	.LFB59:
 194:peripherals/usart.cpp **** void usartSendCharacter(char c) {
 389              		.loc 1 194 0
 390              		.cfi_startproc
 391              		@ args = 0, pretend = 0, frame = 0
 392              		@ frame_needed = 0, uses_anonymous_args = 0
 393              		@ link register save eliminated.
 394              	.LVL24:
 395              	.L24:
 195:peripherals/usart.cpp **** 	while (!(USARTx_SR_TXE_bb(USARTx)))
 396              		.loc 1 195 0 discriminator 1
 397 0000 034B     		ldr	r3, .L29	@ tmp137,
 398 0002 1968     		ldr	r1, [r3, #0]	@ D.7531, MEM[(volatile long unsigned int *)1109852188B]
 399 0004 0029     		cmp	r1, #0	@ D.7531
 400 0006 FBD0     		beq	.L24	@
 197:peripherals/usart.cpp **** 	USARTx->DR = c;
 401              		.loc 1 197 0
 402 0008 024A     		ldr	r2, .L29+4	@ tmp138,
 403 000a 9080     		strh	r0, [r2, #4]	@ movhi	@ c, MEM[(struct USART_TypeDef *)1073821696B].DR
 404 000c 7047     		bx	lr	@
 405              	.L30:
 406 000e 00BF     		.align	2
 407              	.L29:
 408 0010 1C002742 		.word	1109852188
 409 0014 00380140 		.word	1073821696
 410              		.cfi_endproc
 411              	.LFE59:
 412              		.size	usartSendCharacter, .-usartSendCharacter
 413              		.section	.text._Z15usartSendStringPKcm,"ax",%progbits
 414              		.align	1
 415              		.global	_Z15usartSendStringPKcm
 416              		.thumb
 417              		.thumb_func
 418              		.type	_Z15usartSendStringPKcm, %function
 419              	_Z15usartSendStringPKcm:
 420              	.LFB60:
 212:peripherals/usart.cpp **** enum Error usartSendString(const char *string, portTickType ticks_to_wait) {
 421              		.loc 1 212 0
 422              		.cfi_startproc
 423              		@ args = 0, pretend = 0, frame = 8
 424              		@ frame_needed = 0, uses_anonymous_args = 0
 425              	.LVL25:
 426 0000 37B5     		push	{r0, r1, r2, r4, r5, lr}	@
 427              	.LCFI2:
 428              		.cfi_def_cfa_offset 24
 429              		.cfi_offset 0, -24
 430              		.cfi_offset 1, -20
 431              		.cfi_offset 2, -16
 432              		.cfi_offset 4, -12
 433              		.cfi_offset 5, -8
 434              		.cfi_offset 14, -4
 212:peripherals/usart.cpp **** enum Error usartSendString(const char *string, portTickType ticks_to_wait) {
 435              		.loc 1 212 0
 436 0002 0446     		mov	r4, r0	@ string, string
ARM GAS  /tmp/ccSINqkc.s 			page 35


 437 0004 0D46     		mov	r5, r1	@ ticks_to_wait, ticks_to_wait
 438              	.LBB45:
 215:peripherals/usart.cpp **** 	message.length = strlen(string);
 439              		.loc 1 215 0
 440 0006 FFF7FEFF 		bl	strlen	@
 441              	.LVL26:
 442 000a 0090     		str	r0, [sp, #0]	@ tmp146, message.length
 217:peripherals/usart.cpp **** 	if (message.length == 0)
 443              		.loc 1 217 0
 444 000c 08B9     		cbnz	r0, .L32	@ tmp146,
 445              	.LVL27:
 446              	.L36:
 447              	.LBE45:
 218:peripherals/usart.cpp **** 		return ERROR_NONE;
 448              		.loc 1 218 0
 449 000e 0024     		movs	r4, #0	@ error,
 450 0010 1FE0     		b	.L33	@
 451              	.LVL28:
 452              	.L32:
 453              	.LBB48:
 220:peripherals/usart.cpp **** 	if (string >= __ram_start)				// is the string in RAM?
 454              		.loc 1 220 0
 455 0012 1149     		ldr	r1, .L41	@ tmp147,
 456 0014 8C42     		cmp	r4, r1	@ string, tmp147
 457 0016 08D3     		bcc	.L34	@,
 222:peripherals/usart.cpp **** 		message.string = (char*) pvPortMalloc(message.length);
 458              		.loc 1 222 0
 459 0018 FFF7FEFF 		bl	pvPortMalloc	@
 460              	.LVL29:
 461 001c 0190     		str	r0, [sp, #4]	@ D.7508, message.string
 223:peripherals/usart.cpp **** 		if (message.string == NULL)
 462              		.loc 1 223 0
 463 001e B8B1     		cbz	r0, .L37	@ D.7508,
 226:peripherals/usart.cpp **** 		memcpy(message.string, string, message.length);
 464              		.loc 1 226 0
 465 0020 2146     		mov	r1, r4	@, string
 466 0022 009A     		ldr	r2, [sp, #0]	@, message.length
 467 0024 FFF7FEFF 		bl	memcpy	@
 468              	.LVL30:
 469 0028 00E0     		b	.L35	@
 470              	.L34:
 228:peripherals/usart.cpp **** 		message.string = (char*) string;// no, string in ROM - just use the address
 471              		.loc 1 228 0
 472 002a 0194     		str	r4, [sp, #4]	@ string, message.string
 473              	.L35:
 230:peripherals/usart.cpp **** 	portBASE_TYPE ret = xQueueSend(_txQueue, &message, ticks_to_wait);
 474              		.loc 1 230 0
 475 002c 0B48     		ldr	r0, .L41+4	@ tmp152,
 476 002e 0023     		movs	r3, #0	@,
 477 0030 0068     		ldr	r0, [r0, #0]	@, _txQueue
 478 0032 6946     		mov	r1, sp	@,
 479 0034 2A46     		mov	r2, r5	@, ticks_to_wait
 480 0036 FFF7FEFF 		bl	xQueueGenericSend	@
 481              	.LVL31:
 482              	.LBB46:
 483              	.LBB47:
 484              		.loc 3 120 0
ARM GAS  /tmp/ccSINqkc.s 			page 36


 485 003a 441E     		subs	r4, r0, #1	@ tmp155,,
 486              	.LVL32:
 487              	.LBE47:
 488              	.LBE46:
 234:peripherals/usart.cpp **** 	if (error != ERROR_NONE)
 489              		.loc 1 234 0
 490 003c 14F0FF04 		ands	r4, r4, #255	@ error, tmp155,
 491 0040 E5D0     		beq	.L36	@,
 235:peripherals/usart.cpp **** 		if (message.string >= __ram_start)				// is the string in RAM?
 492              		.loc 1 235 0
 493 0042 0198     		ldr	r0, [sp, #4]	@ D.7509, message.string
 494              	.LVL33:
 495 0044 044B     		ldr	r3, .L41	@ tmp156,
 496 0046 9842     		cmp	r0, r3	@ D.7509, tmp156
 497 0048 03D3     		bcc	.L33	@,
 236:peripherals/usart.cpp **** 			vPortFree(message.string);
 498              		.loc 1 236 0
 499 004a FFF7FEFF 		bl	vPortFree	@
 500              	.LVL34:
 501 004e 00E0     		b	.L33	@
 502              	.LVL35:
 503              	.L37:
 224:peripherals/usart.cpp **** 			return ERROR_FreeRTOS_errCOULD_NOT_ALLOCATE_REQUIRED_MEMORY;
 504              		.loc 1 224 0
 505 0050 FE24     		movs	r4, #254	@ error,
 506              	.LVL36:
 507              	.L33:
 508              	.LBE48:
 239:peripherals/usart.cpp **** }
 509              		.loc 1 239 0
 510 0052 60B2     		sxtb	r0, r4	@, error
 511 0054 3EBD     		pop	{r1, r2, r3, r4, r5, pc}
 512              	.L42:
 513 0056 00BF     		.align	2
 514              	.L41:
 515 0058 00000000 		.word	__ram_start
 516 005c 00000000 		.word	.LANCHOR0
 517              		.cfi_endproc
 518              	.LFE60:
 519              		.size	_Z15usartSendStringPKcm, .-_Z15usartSendStringPKcm
 520              		.section	.text._Z11usartPrintfmPKcz,"ax",%progbits
 521              		.align	1
 522              		.global	_Z11usartPrintfmPKcz
 523              		.thumb
 524              		.thumb_func
 525              		.type	_Z11usartPrintfmPKcz, %function
 526              	_Z11usartPrintfmPKcz:
 527              	.LFB58:
 167:peripherals/usart.cpp **** enum Error usartPrintf(portTickType ticks_to_wait, const char *format, ...) {
 528              		.loc 1 167 0
 529              		.cfi_startproc
 530              		@ args = 4, pretend = 12, frame = 8
 531              		@ frame_needed = 0, uses_anonymous_args = 1
 532              	.LVL37:
 533 0000 0EB4     		push	{r1, r2, r3}	@
 534              	.LCFI3:
 535              		.cfi_def_cfa_offset 12
ARM GAS  /tmp/ccSINqkc.s 			page 37


 536              		.cfi_offset 1, -12
 537              		.cfi_offset 2, -8
 538              		.cfi_offset 3, -4
 539 0002 77B5     		push	{r0, r1, r2, r4, r5, r6, lr}	@
 540              	.LCFI4:
 541              		.cfi_def_cfa_offset 40
 542              		.cfi_offset 0, -40
 543              		.cfi_offset 1, -36
 544              		.cfi_offset 2, -32
 545              		.cfi_offset 4, -28
 546              		.cfi_offset 5, -24
 547              		.cfi_offset 6, -20
 548              		.cfi_offset 14, -16
 167:peripherals/usart.cpp **** enum Error usartPrintf(portTickType ticks_to_wait, const char *format, ...) {
 549              		.loc 1 167 0
 550 0004 079D     		ldr	r5, [sp, #28]	@ format, format
 551 0006 0646     		mov	r6, r0	@ ticks_to_wait, ticks_to_wait
 552              	.LBB49:
 168:peripherals/usart.cpp **** 	char *buffer = (char*) pvPortMalloc(strlen(format) * 2);
 553              		.loc 1 168 0
 554 0008 2846     		mov	r0, r5	@, format
 555              	.LVL38:
 556 000a FFF7FEFF 		bl	strlen	@
 557              	.LVL39:
 558 000e 4000     		lsls	r0, r0, #1	@,,
 559 0010 FFF7FEFF 		bl	pvPortMalloc	@
 560              	.LVL40:
 170:peripherals/usart.cpp **** 	if (buffer == NULL)
 561              		.loc 1 170 0
 562 0014 0446     		mov	r4, r0	@ buffer,
 563 0016 68B1     		cbz	r0, .L45	@,
 175:peripherals/usart.cpp **** 	va_start(args, format);
 564              		.loc 1 175 0
 565 0018 08AA     		add	r2, sp, #32	@ tmp143,,
 177:peripherals/usart.cpp **** 	vsprintf(buffer, format, args);
 566              		.loc 1 177 0
 567 001a 2946     		mov	r1, r5	@, format
 175:peripherals/usart.cpp **** 	va_start(args, format);
 568              		.loc 1 175 0
 569 001c 0192     		str	r2, [sp, #4]	@ tmp143, MEM[(struct  *)&args].__ap
 177:peripherals/usart.cpp **** 	vsprintf(buffer, format, args);
 570              		.loc 1 177 0
 571 001e FFF7FEFF 		bl	vsprintf	@
 572              	.LVL41:
 179:peripherals/usart.cpp **** 	enum Error error = usartSendString(buffer, ticks_to_wait);
 573              		.loc 1 179 0
 574 0022 2046     		mov	r0, r4	@, buffer
 575 0024 3146     		mov	r1, r6	@, ticks_to_wait
 576 0026 FFF7FEFF 		bl	_Z15usartSendStringPKcm	@
 577              	.LVL42:
 578 002a 0546     		mov	r5, r0	@ error,
 579              	.LVL43:
 181:peripherals/usart.cpp **** 	vPortFree(buffer);
 580              		.loc 1 181 0
 581 002c 2046     		mov	r0, r4	@, buffer
 582              	.LVL44:
 583 002e FFF7FEFF 		bl	vPortFree	@
ARM GAS  /tmp/ccSINqkc.s 			page 38


 584              	.LVL45:
 585 0032 00E0     		b	.L44	@
 586              	.LVL46:
 587              	.L45:
 171:peripherals/usart.cpp **** 		return ERROR_FreeRTOS_errCOULD_NOT_ALLOCATE_REQUIRED_MEMORY;
 588              		.loc 1 171 0
 589 0034 FE25     		movs	r5, #254	@ error,
 590              	.LVL47:
 591              	.L44:
 592              	.LBE49:
 184:peripherals/usart.cpp **** }
 593              		.loc 1 184 0
 594 0036 68B2     		sxtb	r0, r5	@, error
 595 0038 BDE87E40 		pop	{r1, r2, r3, r4, r5, r6, lr}
 596 003c 03B0     		add	sp, sp, #12	@,,
 597 003e 7047     		bx	lr
 598              		.cfi_endproc
 599              	.LFE58:
 600              		.size	_Z11usartPrintfmPKcz, .-_Z11usartPrintfmPKcz
 601              		.section	.text._ZL7_rxTaskPv,"ax",%progbits
 602              		.align	1
 603              		.thumb
 604              		.thumb_func
 605              		.type	_ZL7_rxTaskPv, %function
 606              	_ZL7_rxTaskPv:
 607              	.LFB61:
 251:peripherals/usart.cpp **** static void _rxTask(void *parameters) {
 608              		.loc 1 251 0
 609              		.cfi_startproc
 610              		@ args = 0, pretend = 0, frame = 24
 611              		@ frame_needed = 0, uses_anonymous_args = 0
 612              	.LVL48:
 613 0000 70B5     		push	{r4, r5, r6, lr}	@
 614              	.LCFI5:
 615              		.cfi_def_cfa_offset 16
 616              		.cfi_offset 4, -16
 617              		.cfi_offset 5, -12
 618              		.cfi_offset 6, -8
 619              		.cfi_offset 14, -4
 620 0002 86B0     		sub	sp, sp, #24	@,,
 621              	.LCFI6:
 622              		.cfi_def_cfa_offset 40
 623              	.LVL49:
 624              	.L53:
 625              	.LBB50:
 626              	.LBB51:
 252:peripherals/usart.cpp **** 	size_t input_length = 0;
 627              		.loc 1 252 0
 628 0004 0025     		movs	r5, #0	@ input_length,
 629              	.LVL50:
 630              	.L52:
 259:peripherals/usart.cpp **** 		xQueueReceive(_rxQueue, &message, portMAX_DELAY);
 631              		.loc 1 259 0
 632 0006 194B     		ldr	r3, .L54	@ tmp143,
 633 0008 4FF0FF32 		mov	r2, #-1	@,
 634 000c 1868     		ldr	r0, [r3, #0]	@, _rxQueue
 635 000e 6946     		mov	r1, sp	@,
ARM GAS  /tmp/ccSINqkc.s 			page 39


 636 0010 0023     		movs	r3, #0	@,
 637 0012 FFF7FEFF 		bl	xQueueGenericReceive	@
 638              	.LVL51:
 261:peripherals/usart.cpp **** 		if ((_INPUT_BUFFER_SIZE - 1) < (message.length + input_length))	// does input fit into buffer?
 639              		.loc 1 261 0
 640 0016 009A     		ldr	r2, [sp, #0]	@ D.7591, message.length
 641 0018 AC18     		adds	r4, r5, r2	@ input_length, input_length, D.7591
 642 001a 7F2C     		cmp	r4, #127	@ input_length,
 643 001c 04D9     		bls	.L48	@,
 265:peripherals/usart.cpp **** 					0);
 644              		.loc 1 265 0
 645 001e 0021     		movs	r1, #0	@,
 646 0020 1348     		ldr	r0, .L54+4	@,
 647 0022 FFF7FEFF 		bl	_Z15usartSendStringPKcm	@
 648              	.LVL52:
 649 0026 EDE7     		b	.L53	@
 650              	.LVL53:
 651              	.L48:
 270:peripherals/usart.cpp **** 		memcpy(&_inputBuffer[input_length], message.string, message.length);
 652              		.loc 1 270 0
 653 0028 124E     		ldr	r6, .L54+8	@ tmp146,
 654 002a 0DF10501 		add	r1, sp, #5	@,,
 655 002e 7019     		adds	r0, r6, r5	@, tmp146, input_length
 656 0030 FFF7FEFF 		bl	memcpy	@
 657              	.LVL54:
 658              	.LBB52:
 273:peripherals/usart.cpp **** 		if (message.status == RX_STATUS_HAD_CR_LF)// is the message complete (terminated with "\r\n" sequ
 659              		.loc 1 273 0
 660 0034 9DF80400 		ldrb	r0, [sp, #4]	@ zero_extendqisi2	@ message.status, message.status
 661 0038 0228     		cmp	r0, #2	@ message.status,
 662 003a 14D1     		bne	.L50	@,
 663              	.LBB53:
 275:peripherals/usart.cpp **** 			_inputBuffer[input_length] = '\0';	// terminate input string
 664              		.loc 1 275 0
 665 003c 0025     		movs	r5, #0	@ tmp156,
 278:peripherals/usart.cpp **** 			_OUTPUT_BUFFER_SIZE);	// process input
 666              		.loc 1 278 0
 667 003e 3046     		mov	r0, r6	@, tmp146
 668 0040 0D49     		ldr	r1, .L54+12	@,
 669 0042 4FF40072 		mov	r2, #512	@,
 275:peripherals/usart.cpp **** 			_inputBuffer[input_length] = '\0';	// terminate input string
 670              		.loc 1 275 0
 671 0046 3555     		strb	r5, [r6, r4]	@ tmp156, _inputBuffer
 278:peripherals/usart.cpp **** 			_OUTPUT_BUFFER_SIZE);	// process input
 672              		.loc 1 278 0
 673 0048 FFF7FEFF 		bl	_Z19commandProcessInputPcS_j	@
 674              	.LVL55:
 280:peripherals/usart.cpp **** 			if (error == ERROR_NONE)		// input processed successfully?
 675              		.loc 1 280 0
 676 004c 0446     		mov	r4, r0	@ tmp160,
 677              	.LVL56:
 678 004e 20B9     		cbnz	r0, .L51	@ tmp160,
 281:peripherals/usart.cpp **** 				usartSendString(_outputBuffer, 0);
 679              		.loc 1 281 0
 680 0050 2146     		mov	r1, r4	@, tmp160
 681 0052 0948     		ldr	r0, .L54+12	@,
 682              	.LVL57:
ARM GAS  /tmp/ccSINqkc.s 			page 40


 683 0054 FFF7FEFF 		bl	_Z15usartSendStringPKcm	@
 684              	.LVL58:
 685 0058 05E0     		b	.L50	@
 686              	.LVL59:
 687              	.L51:
 286:peripherals/usart.cpp **** 						error);
 688              		.loc 1 286 0
 689 005a 2246     		mov	r2, r4	@, tmp160
 690 005c 2846     		mov	r0, r5	@, tmp156
 691              	.LVL60:
 692 005e 0749     		ldr	r1, .L54+16	@,
 693 0060 FFF7FEFF 		bl	_Z11usartPrintfmPKcz	@
 694              	.LVL61:
 288:peripherals/usart.cpp **** 			input_length = 0;				// reset sequence
 695              		.loc 1 288 0
 696 0064 2C46     		mov	r4, r5	@ input_length, tmp156
 697              	.L50:
 698              	.LVL62:
 699 0066 2546     		mov	r5, r4	@ input_length, input_length
 700 0068 CDE7     		b	.L52	@
 701              	.L55:
 702 006a 00BF     		.align	2
 703              	.L54:
 704 006c 00000000 		.word	.LANCHOR2
 705 0070 12000000 		.word	.LC2
 706 0074 00000000 		.word	.LANCHOR3
 707 0078 00000000 		.word	.LANCHOR4
 708 007c 5B000000 		.word	.LC3
 709              	.LBE53:
 710              	.LBE52:
 711              	.LBE51:
 712              	.LBE50:
 713              		.cfi_endproc
 714              	.LFE61:
 715              		.size	_ZL7_rxTaskPv, .-_ZL7_rxTaskPv
 716              		.section	.text.DMA1_Channel4_IRQHandler,"ax",%progbits
 717              		.align	1
 718              		.global	DMA1_Channel4_IRQHandler
 719              		.thumb
 720              		.thumb_func
 721              		.type	DMA1_Channel4_IRQHandler, %function
 722              	DMA1_Channel4_IRQHandler:
 723              	.LFB63:
 324:peripherals/usart.cpp **** 
 325:peripherals/usart.cpp **** 		// save address for next iteration so that it could be freed after transfer (if it's in RAM);
 326:peripherals/usart.cpp **** 		previous_string = message.string;
 327:peripherals/usart.cpp **** 	}
 328:peripherals/usart.cpp **** }
 329:peripherals/usart.cpp **** 
 330:peripherals/usart.cpp **** /*-------------------------------------------------------------------------------------------------
 331:peripherals/usart.cpp ****  | ISRs
 332:peripherals/usart.cpp ****  +-------------------------------------------------------------------------------------------------
 333:peripherals/usart.cpp **** 
 334:peripherals/usart.cpp **** /**
 335:peripherals/usart.cpp ****  * \brief DMA channel interrupt handler
 336:peripherals/usart.cpp ****  *
 337:peripherals/usart.cpp ****  * DMA channel interrupt handler
ARM GAS  /tmp/ccSINqkc.s 			page 41


 338:peripherals/usart.cpp ****  */
 339:peripherals/usart.cpp **** 
 340:peripherals/usart.cpp **** extern "C" void USARTx_DMAx_TX_CH_IRQHandler(void) __attribute__ ((interrupt));
 341:peripherals/usart.cpp **** void USARTx_DMAx_TX_CH_IRQHandler(void) {
 724              		.loc 1 341 0
 725              		.cfi_startproc
 726              		@ Stack Align: May be called with mis-aligned SP.
 727              		@ args = 0, pretend = 0, frame = 8
 728              		@ frame_needed = 0, uses_anonymous_args = 0
 729 0000 6846     		mov	r0, sp	@,
 730              		.cfi_register 13, 0
 731 0002 20F00701 		bic	r1, r0, #7	@,,
 732 0006 8D46     		mov	sp, r1	@,
 733 0008 01B5     		push	{r0, lr}	@
 734              	.LCFI7:
 735              		.cfi_def_cfa_offset 8
 736              		.cfi_offset 13, -8
 737              		.cfi_offset 14, -4
 738              	.LBB54:
 342:peripherals/usart.cpp **** 	signed portBASE_TYPE higher_priority_task_woken;
 343:peripherals/usart.cpp **** 
 344:peripherals/usart.cpp **** 	xSemaphoreGiveFromISR(_dmaTxSemaphore, &higher_priority_task_woken);
 739              		.loc 1 344 0
 740 000a 0A4B     		ldr	r3, .L61	@ tmp136,
 741              	.LBE54:
 341:peripherals/usart.cpp **** void USARTx_DMAx_TX_CH_IRQHandler(void) {
 742              		.loc 1 341 0
 743 000c 82B0     		sub	sp, sp, #8	@,,
 744              	.LCFI8:
 745              		.cfi_def_cfa_offset 16
 746              	.LBB55:
 747              		.loc 1 344 0
 748 000e 0021     		movs	r1, #0	@,
 749 0010 1868     		ldr	r0, [r3, #0]	@, _dmaTxSemaphore
 750 0012 01AA     		add	r2, sp, #4	@,,
 751 0014 0B46     		mov	r3, r1	@,
 752 0016 FFF7FEFF 		bl	xQueueGenericSendFromISR	@
 753              	.LVL63:
 345:peripherals/usart.cpp **** 
 346:peripherals/usart.cpp **** 	USARTx_DMAx_TX_IFCR_CTCIFx_bb = 1;			// clear interrupt flag
 754              		.loc 1 346 0
 755 001a 0748     		ldr	r0, .L61+4	@ tmp138,
 756 001c 0122     		movs	r2, #1	@ tmp139,
 757 001e 0260     		str	r2, [r0, #0]	@ tmp139, MEM[(volatile long unsigned int *)1112277172B]
 758              	.LVL64:
 347:peripherals/usart.cpp **** 
 348:peripherals/usart.cpp **** 	portEND_SWITCHING_ISR(higher_priority_task_woken);
 759              		.loc 1 348 0
 760 0020 0199     		ldr	r1, [sp, #4]	@ higher_priority_task_woken, higher_priority_task_woken
 761 0022 09B1     		cbz	r1, .L56	@ higher_priority_task_woken,
 762              		.loc 1 348 0 is_stmt 0 discriminator 1
 763 0024 FFF7FEFF 		bl	vPortYieldFromISR	@
 764              	.LVL65:
 765              	.L56:
 766              	.LBE55:
 349:peripherals/usart.cpp **** }
 767              		.loc 1 349 0 is_stmt 1
ARM GAS  /tmp/ccSINqkc.s 			page 42


 768 0028 02B0     		add	sp, sp, #8	@,,
 769 002a BDE80140 		pop	{r0, lr}
 770 002e 8546     		mov	sp, r0
 771 0030 7047     		bx	lr
 772              	.L62:
 773 0032 00BF     		.align	2
 774              	.L61:
 775 0034 00000000 		.word	.LANCHOR1
 776 0038 B4004C42 		.word	1112277172
 777              		.cfi_endproc
 778              	.LFE63:
 779              		.size	DMA1_Channel4_IRQHandler, .-DMA1_Channel4_IRQHandler
 780              		.section	.text.USART1_IRQHandler,"ax",%progbits
 781              		.align	1
 782              		.global	USART1_IRQHandler
 783              		.thumb
 784              		.thumb_func
 785              		.type	USART1_IRQHandler, %function
 786              	USART1_IRQHandler:
 787              	.LFB64:
 350:peripherals/usart.cpp **** 
 351:peripherals/usart.cpp **** /**
 352:peripherals/usart.cpp ****  * \brief USART interrupt handler
 353:peripherals/usart.cpp ****  *
 354:peripherals/usart.cpp ****  * USART interrupt handler
 355:peripherals/usart.cpp ****  */
 356:peripherals/usart.cpp **** 
 357:peripherals/usart.cpp **** extern "C" void USARTx_IRQHandler(void) __attribute((interrupt));
 358:peripherals/usart.cpp **** void USARTx_IRQHandler(void) {
 788              		.loc 1 358 0
 789              		.cfi_startproc
 790              		@ Stack Align: May be called with mis-aligned SP.
 791              		@ args = 0, pretend = 0, frame = 8
 792              		@ frame_needed = 0, uses_anonymous_args = 0
 793 0000 6846     		mov	r0, sp	@,
 794              		.cfi_register 13, 0
 795 0002 20F00701 		bic	r1, r0, #7	@,,
 796 0006 8D46     		mov	sp, r1	@,
 797 0008 11B5     		push	{r0, r4, lr}	@
 798              	.LCFI9:
 799              		.cfi_def_cfa_offset 12
 800              		.cfi_offset 13, -12
 801              		.cfi_offset 4, -8
 802              		.cfi_offset 14, -4
 803              	.LBB56:
 359:peripherals/usart.cpp **** 	portBASE_TYPE higher_priority_task_woken = pdFALSE;
 804              		.loc 1 359 0
 805 000a 0023     		movs	r3, #0	@ tmp144,
 806              	.LBE56:
 358:peripherals/usart.cpp **** void USARTx_IRQHandler(void) {
 807              		.loc 1 358 0
 808 000c 83B0     		sub	sp, sp, #12	@,,
 809              	.LCFI10:
 810              		.cfi_def_cfa_offset 24
 811              	.LBB58:
 812              		.loc 1 359 0
 813 000e 0193     		str	r3, [sp, #4]	@ tmp144, higher_priority_task_woken
ARM GAS  /tmp/ccSINqkc.s 			page 43


 814              	.LVL66:
 815              	.L81:
 360:peripherals/usart.cpp **** 	static struct _RxMessage message;
 361:peripherals/usart.cpp **** 
 362:peripherals/usart.cpp **** 	while (USARTx_SR_RXNE_bb(USARTx))		// loop while data is available
 816              		.loc 1 362 0 discriminator 1
 817 0010 1A48     		ldr	r0, .L84	@ tmp176,
 818 0012 0268     		ldr	r2, [r0, #0]	@ D.7471, MEM[(volatile long unsigned int *)1109852180B]
 819 0014 4AB3     		cbz	r2, .L83	@ D.7471,
 820              	.L71:
 821              	.LBB57:
 363:peripherals/usart.cpp **** 	{
 364:peripherals/usart.cpp **** 		char c = USARTx->DR;
 822              		.loc 1 364 0
 823 0016 1A4B     		ldr	r3, .L84+4	@ tmp145,
 824 0018 9888     		ldrh	r0, [r3, #4]	@, MEM[(struct USART_TypeDef *)1073821696B].DR
 365:peripherals/usart.cpp **** 		message.string[message.length++] = c;	// get char to buffer
 825              		.loc 1 365 0
 826 001a 1A4B     		ldr	r3, .L84+8	@ tmp148,
 364:peripherals/usart.cpp **** 		char c = USARTx->DR;
 827              		.loc 1 364 0
 828 001c C2B2     		uxtb	r2, r0	@ c, MEM[(struct USART_TypeDef *)1073821696B].DR
 829              	.LVL67:
 830              		.loc 1 365 0
 831 001e 1968     		ldr	r1, [r3, #0]	@ D.7474, message.length
 832 0020 5818     		adds	r0, r3, r1	@ tmp150, tmp148, D.7474
 833              	.LVL68:
 834 0022 4271     		strb	r2, [r0, #5]	@ c, message.string
 366:peripherals/usart.cpp **** 
 367:peripherals/usart.cpp **** 		// check for "\r\n" sequence in the string
 368:peripherals/usart.cpp **** 		if ((message.status == RX_STATUS_HAD_CR) && (c == '\n'))
 835              		.loc 1 368 0
 836 0024 1879     		ldrb	r0, [r3, #4]	@ zero_extendqisi2	@ message.status, message.status
 365:peripherals/usart.cpp **** 		message.string[message.length++] = c;	// get char to buffer
 837              		.loc 1 365 0
 838 0026 0131     		adds	r1, r1, #1	@ D.7475, D.7474,
 839              		.loc 1 368 0
 840 0028 0128     		cmp	r0, #1	@ message.status,
 365:peripherals/usart.cpp **** 		message.string[message.length++] = c;	// get char to buffer
 841              		.loc 1 365 0
 842 002a 1960     		str	r1, [r3, #0]	@ D.7475, message.length
 843              		.loc 1 368 0
 844 002c 03D1     		bne	.L65	@,
 845              		.loc 1 368 0 is_stmt 0 discriminator 1
 846 002e 0A2A     		cmp	r2, #10	@ c,
 847 0030 01D1     		bne	.L65	@,
 369:peripherals/usart.cpp **** 			message.status = RX_STATUS_HAD_CR_LF;
 848              		.loc 1 369 0 is_stmt 1
 849 0032 0222     		movs	r2, #2	@ tmp156,
 850              	.LVL69:
 851 0034 04E0     		b	.L82	@
 852              	.LVL70:
 853              	.L65:
 370:peripherals/usart.cpp **** 		else if (c == '\r')
 854              		.loc 1 370 0
 855 0036 0D2A     		cmp	r2, #13	@ c,
 856 0038 01D1     		bne	.L67	@,
ARM GAS  /tmp/ccSINqkc.s 			page 44


 371:peripherals/usart.cpp **** 			message.status = RX_STATUS_HAD_CR;
 857              		.loc 1 371 0
 858 003a 0122     		movs	r2, #1	@ tmp159,
 859              	.LVL71:
 860 003c 00E0     		b	.L82	@
 861              	.LVL72:
 862              	.L67:
 372:peripherals/usart.cpp **** 		else
 373:peripherals/usart.cpp **** 			message.status = RX_STATUS_HAD_NONE;
 863              		.loc 1 373 0
 864 003e 0022     		movs	r2, #0	@ tmp162,
 865              	.LVL73:
 866              	.L82:
 374:peripherals/usart.cpp **** 
 375:peripherals/usart.cpp **** 		// transfer block only if out of space or "\r\n" sequence was found
 376:peripherals/usart.cpp **** 		if ((message.length >= USARTx_RX_QUEUE_BUFFER_LENGTH)
 867              		.loc 1 376 0
 868 0040 0F29     		cmp	r1, #15	@ D.7475,
 373:peripherals/usart.cpp **** 			message.status = RX_STATUS_HAD_NONE;
 869              		.loc 1 373 0
 870 0042 1A71     		strb	r2, [r3, #4]	@ tmp162, message.status
 871              		.loc 1 376 0
 872 0044 02D8     		bhi	.L68	@,
 873              		.loc 1 376 0 is_stmt 0 discriminator 1
 874 0046 1B79     		ldrb	r3, [r3, #4]	@ zero_extendqisi2	@ message.status, message.status
 875 0048 022B     		cmp	r3, #2	@ message.status,
 876 004a E1D1     		bne	.L81	@,
 877              	.L68:
 377:peripherals/usart.cpp **** 				|| (message.status == RX_STATUS_HAD_CR_LF)) {
 378:peripherals/usart.cpp **** 			xQueueSendFromISR(_rxQueue, &message, &higher_priority_task_woken);
 878              		.loc 1 378 0 is_stmt 1
 879 004c 0D4C     		ldr	r4, .L84+8	@ tmp167,
 880 004e 0E49     		ldr	r1, .L84+12	@ tmp166,
 881 0050 01AA     		add	r2, sp, #4	@,,
 882 0052 0868     		ldr	r0, [r1, #0]	@, _rxQueue
 883 0054 0023     		movs	r3, #0	@,
 884 0056 2146     		mov	r1, r4	@, tmp167
 885 0058 FFF7FEFF 		bl	xQueueGenericSendFromISR	@
 886              	.LVL74:
 379:peripherals/usart.cpp **** 
 380:peripherals/usart.cpp **** 			message.length = 0;
 381:peripherals/usart.cpp **** 
 382:peripherals/usart.cpp **** 			if (message.status == RX_STATUS_HAD_CR_LF)
 887              		.loc 1 382 0
 888 005c 2279     		ldrb	r2, [r4, #4]	@ zero_extendqisi2	@ message.status, message.status
 380:peripherals/usart.cpp **** 			message.length = 0;
 889              		.loc 1 380 0
 890 005e 0020     		movs	r0, #0	@ tmp170,
 891              		.loc 1 382 0
 892 0060 022A     		cmp	r2, #2	@ message.status,
 380:peripherals/usart.cpp **** 			message.length = 0;
 893              		.loc 1 380 0
 894 0062 2060     		str	r0, [r4, #0]	@ tmp170, message.length
 383:peripherals/usart.cpp **** 				message.status = RX_STATUS_HAD_NONE;
 895              		.loc 1 383 0
 896 0064 08BF     		it	eq
 897 0066 2071     		strbeq	r0, [r4, #4]	@ tmp170, message.status
ARM GAS  /tmp/ccSINqkc.s 			page 45


 898 0068 D2E7     		b	.L81	@
 899              	.L83:
 900              	.LBE57:
 384:peripherals/usart.cpp **** 		}
 385:peripherals/usart.cpp **** 	}
 386:peripherals/usart.cpp **** 
 387:peripherals/usart.cpp **** 	portEND_SWITCHING_ISR(higher_priority_task_woken);
 901              		.loc 1 387 0
 902 006a 0199     		ldr	r1, [sp, #4]	@ higher_priority_task_woken, higher_priority_task_woken
 903 006c 09B1     		cbz	r1, .L63	@ higher_priority_task_woken,
 904              		.loc 1 387 0 is_stmt 0 discriminator 1
 905 006e FFF7FEFF 		bl	vPortYieldFromISR	@
 906              	.LVL75:
 907              	.L63:
 908              	.LBE58:
 388:peripherals/usart.cpp **** }
 909              		.loc 1 388 0 is_stmt 1
 910 0072 03B0     		add	sp, sp, #12	@,,
 911 0074 BDE81140 		pop	{r0, r4, lr}
 912 0078 8546     		mov	sp, r0
 913 007a 7047     		bx	lr
 914              	.L85:
 915              		.align	2
 916              	.L84:
 917 007c 14002742 		.word	1109852180
 918 0080 00380140 		.word	1073821696
 919 0084 00000000 		.word	.LANCHOR5
 920 0088 00000000 		.word	.LANCHOR2
 921              		.cfi_endproc
 922              	.LFE64:
 923              		.size	USART1_IRQHandler, .-USART1_IRQHandler
 924              		.section	.bss._ZL13_outputBuffer,"aw",%nobits
 925              		.set	.LANCHOR4,. + 0
 926              		.type	_ZL13_outputBuffer, %object
 927              		.size	_ZL13_outputBuffer, 512
 928              	_ZL13_outputBuffer:
 929 0000 00000000 		.space	512
 929      00000000 
 929      00000000 
 929      00000000 
 929      00000000 
 930              		.section	.bss._ZL8_rxQueue,"aw",%nobits
 931              		.align	2
 932              		.set	.LANCHOR2,. + 0
 933              		.type	_ZL8_rxQueue, %object
 934              		.size	_ZL8_rxQueue, 4
 935              	_ZL8_rxQueue:
 936 0000 00000000 		.space	4
 937              		.section	.bss._ZZ17USART1_IRQHandlerE7message,"aw",%nobits
 938              		.align	2
 939              		.set	.LANCHOR5,. + 0
 940              		.type	_ZZ17USART1_IRQHandlerE7message, %object
 941              		.size	_ZZ17USART1_IRQHandlerE7message, 24
 942              	_ZZ17USART1_IRQHandlerE7message:
 943 0000 00000000 		.space	24
 943      00000000 
 943      00000000 
ARM GAS  /tmp/ccSINqkc.s 			page 46


 943      00000000 
 943      00000000 
 944              		.section	.rodata.str1.1,"aMS",%progbits,1
 945              	.LC0:
 946 0000 55534152 		.ascii	"USART TX\000"
 946      54205458 
 946      00
 947              	.LC1:
 948 0009 55534152 		.ascii	"USART RX\000"
 948      54205258 
 948      00
 949              	.LC2:
 950 0012 4552524F 		.ascii	"ERROR: input is longer than buffer length! (periphe"
 950      523A2069 
 950      6E707574 
 950      20697320 
 950      6C6F6E67 
 951 0045 72616C73 		.ascii	"rals/usart.cpp:264)\015\012\000"
 951      2F757361 
 951      72742E63 
 951      70703A32 
 951      3634290D 
 952              	.LC3:
 953 005b 4552524F 		.ascii	"ERROR: command handler execution failed with code %"
 953      523A2063 
 953      6F6D6D61 
 953      6E642068 
 953      616E646C 
 954 008e 64212028 		.ascii	"d! (peripherals/usart.cpp:285)\015\012\000"
 954      70657269 
 954      70686572 
 954      616C732F 
 954      75736172 
 955              		.section	.bss._ZL8_txQueue,"aw",%nobits
 956              		.align	2
 957              		.set	.LANCHOR0,. + 0
 958              		.type	_ZL8_txQueue, %object
 959              		.size	_ZL8_txQueue, 4
 960              	_ZL8_txQueue:
 961 0000 00000000 		.space	4
 962              		.section	.bss._ZL12_inputBuffer,"aw",%nobits
 963              		.set	.LANCHOR3,. + 0
 964              		.type	_ZL12_inputBuffer, %object
 965              		.size	_ZL12_inputBuffer, 128
 966              	_ZL12_inputBuffer:
 967 0000 00000000 		.space	128
 967      00000000 
 967      00000000 
 967      00000000 
 967      00000000 
 968              		.section	.bss._ZL15_dmaTxSemaphore,"aw",%nobits
 969              		.align	2
 970              		.set	.LANCHOR1,. + 0
 971              		.type	_ZL15_dmaTxSemaphore, %object
 972              		.size	_ZL15_dmaTxSemaphore, 4
 973              	_ZL15_dmaTxSemaphore:
 974 0000 00000000 		.space	4
ARM GAS  /tmp/ccSINqkc.s 			page 47


 975              		.text
 976              	.Letext0:
 977              		.file 4 "/home/maciek/gcc-arm-none-eabi/gcc-arm-none-eabi-4_7-2013q1/bin/../lib/gcc/arm-none-eabi/
 978              		.file 5 "/home/maciek/gcc-arm-none-eabi/gcc-arm-none-eabi-4_7-2013q1/bin/../lib/gcc/arm-none-eabi/
 979              		.file 6 "/home/maciek/gcc-arm-none-eabi/gcc-arm-none-eabi-4_7-2013q1/bin/../lib/gcc/arm-none-eabi/
 980              		.file 7 "./inc/stm32l1xx.h"
 981              		.file 8 "peripherals/gpio.h"
 982              		.file 9 "FreeRTOS/include/projdefs.h"
 983              		.file 10 "FreeRTOS/portable/GCC/ARM_CM3/portmacro.h"
 984              		.file 11 "/home/maciek/gcc-arm-none-eabi/gcc-arm-none-eabi-4_7-2013q1/bin/../lib/gcc/arm-none-eabi
 985              		.file 12 "FreeRTOS/include/queue.h"
 986              		.file 13 "FreeRTOS/include/semphr.h"
 987              		.file 14 "FatFS/ff.h"
 988              		.file 15 "FreeRTOS/include/task.h"
 989              		.file 16 "<built-in>"
 990              		.file 17 "/home/maciek/gcc-arm-none-eabi/gcc-arm-none-eabi-4_7-2013q1/bin/../lib/gcc/arm-none-eabi
 991              		.file 18 "FreeRTOS/include/portable.h"
 992              		.file 19 "/home/maciek/gcc-arm-none-eabi/gcc-arm-none-eabi-4_7-2013q1/bin/../lib/gcc/arm-none-eabi
 993              		.file 20 "peripherals/rcc.h"
 994              		.file 21 "peripherals/command.h"