ARM GAS  /tmp/ccDhuaqR.s 			page 1


   1              		.syntax unified
   2              		.cpu cortex-m3
   3              		.fpu softvfp
   4              		.eabi_attribute 20, 1	@ Tag_ABI_FP_denormal
   5              		.eabi_attribute 21, 1	@ Tag_ABI_FP_exceptions
   6              		.eabi_attribute 23, 3	@ Tag_ABI_FP_number_model
   7              		.eabi_attribute 24, 1	@ Tag_ABI_align8_needed
   8              		.eabi_attribute 25, 1	@ Tag_ABI_align8_preserved
   9              		.eabi_attribute 26, 1	@ Tag_ABI_enum_size
  10              		.eabi_attribute 30, 6	@ Tag_ABI_optimization_goals
  11              		.eabi_attribute 34, 1	@ Tag_CPU_unaligned_access
  12              		.eabi_attribute 18, 4	@ Tag_ABI_PCS_wchar_t
  13              		.file	"usbd_desc.cpp"
  14              	@ GNU C++ (GNU Tools for ARM Embedded Processors) version 4.7.3 20130312 (release) [ARM/embedded-4_
  15              	@	compiled by GNU C version 4.3.6, GMP version 4.3.2, MPFR version 2.4.2, MPC version 0.8.1
  16              	@ GGC heuristics: --param ggc-min-expand=100 --param ggc-min-heapsize=131072
  17              	@ options passed:  -I . -I Src -I hdr -I Inc -I Middlewares
  18              	@ -I Middlewares/ST -I Middlewares/ST/STM32_USB_Device_Library/Class/CDC
  19              	@ -I Middlewares/ST/STM32_USB_Device_Library/Core -I Drivers
  20              	@ -I Drivers/CMSIS -I Drivers/CMSIS/Device/ST/STM32L1xx
  21              	@ -I Drivers/CMSIS/Include -I Drivers/STM32L1xx_HAL_Driver
  22              	@ -imultilib armv7-m
  23              	@ -iprefix /home/maciek/gcc-arm-none-eabi/gcc-arm-none-eabi-4_7-2013q1/bin/../lib/gcc/arm-none-eabi
  24              	@ -isysroot /home/maciek/gcc-arm-none-eabi/gcc-arm-none-eabi-4_7-2013q1/bin/../arm-none-eabi
  25              	@ -MD out/usbd_desc.d -MF out/usbd_desc.d -MP -MQ out/usbd_desc.o
  26              	@ -D__USES_INITFINI__ -D STM32L1XX_MD Src/usbd_desc.cpp -mcpu=cortex-m3
  27              	@ -mthumb -auxbase-strip out/usbd_desc.o -g -ggdb3 -O0 -Wall -Wextra
  28              	@ -std=gnu++11 -ffunction-sections -fdata-sections -fno-rtti
  29              	@ -fno-exceptions -fverbose-asm
  30              	@ options enabled:  -fauto-inc-dec -fbranch-count-reg -fcommon
  31              	@ -fdata-sections -fdebug-types-section -fdelete-null-pointer-checks
  32              	@ -fdwarf2-cfi-asm -fearly-inlining -feliminate-unused-debug-types
  33              	@ -ffunction-cse -ffunction-sections -fgcse-lm -fgnu-runtime -fident
  34              	@ -finline-atomics -fira-share-save-slots -fira-share-spill-slots -fivopts
  35              	@ -fkeep-static-consts -fleading-underscore -fmath-errno
  36              	@ -fmerge-debug-strings -fmove-loop-invariants -fpeephole
  37              	@ -fprefetch-loop-arrays -freg-struct-return
  38              	@ -fsched-critical-path-heuristic -fsched-dep-count-heuristic
  39              	@ -fsched-group-heuristic -fsched-interblock -fsched-last-insn-heuristic
  40              	@ -fsched-rank-heuristic -fsched-spec -fsched-spec-insn-heuristic
  41              	@ -fsched-stalled-insns-dep -fshow-column -fsigned-zeros
  42              	@ -fsplit-ivs-in-unroller -fstrict-volatile-bitfields -ftrapping-math
  43              	@ -ftree-cselim -ftree-forwprop -ftree-loop-if-convert -ftree-loop-im
  44              	@ -ftree-loop-ivcanon -ftree-loop-optimize -ftree-parallelize-loops=
  45              	@ -ftree-phiprop -ftree-pta -ftree-reassoc -ftree-scev-cprop
  46              	@ -ftree-slp-vectorize -ftree-vect-loop-version -funit-at-a-time
  47              	@ -fverbose-asm -fzero-initialized-in-bss -mfix-cortex-m3-ldrd
  48              	@ -mlittle-endian -msched-prolog -mthumb -munaligned-access
  49              	@ -mvectorize-with-neon-quad
  50              	
  51              		.text
  52              	.Ltext0:
  53              		.cfi_sections	.debug_frame
  54              		.global	FS_Desc
  55              		.section	.data.FS_Desc,"aw",%progbits
  56              		.align	2
  57              		.type	FS_Desc, %object
ARM GAS  /tmp/ccDhuaqR.s 			page 2


  58              		.size	FS_Desc, 28
  59              	FS_Desc:
  60              	@ GetDeviceDescriptor:
  61 0000 00000000 		.word	_Z24USBD_FS_DeviceDescriptor17USBD_SpeedTypeDefPt
  62              	@ GetLangIDStrDescriptor:
  63 0004 00000000 		.word	_Z27USBD_FS_LangIDStrDescriptor17USBD_SpeedTypeDefPt
  64              	@ GetManufacturerStrDescriptor:
  65 0008 00000000 		.word	_Z33USBD_FS_ManufacturerStrDescriptor17USBD_SpeedTypeDefPt
  66              	@ GetProductStrDescriptor:
  67 000c 00000000 		.word	_Z28USBD_FS_ProductStrDescriptor17USBD_SpeedTypeDefPt
  68              	@ GetSerialStrDescriptor:
  69 0010 00000000 		.word	_Z27USBD_FS_SerialStrDescriptor17USBD_SpeedTypeDefPt
  70              	@ GetConfigurationStrDescriptor:
  71 0014 00000000 		.word	_Z27USBD_FS_ConfigStrDescriptor17USBD_SpeedTypeDefPt
  72              	@ GetInterfaceStrDescriptor:
  73 0018 00000000 		.word	_Z30USBD_FS_InterfaceStrDescriptor17USBD_SpeedTypeDefPt
  74              		.global	USBD_FS_DeviceDesc
  75              		.section	.data.USBD_FS_DeviceDesc,"aw",%progbits
  76              		.align	2
  77              		.type	USBD_FS_DeviceDesc, %object
  78              		.size	USBD_FS_DeviceDesc, 18
  79              	USBD_FS_DeviceDesc:
  80 0000 12       		.byte	18
  81 0001 01       		.byte	1
  82 0002 00       		.byte	0
  83 0003 02       		.byte	2
  84 0004 00       		.byte	0
  85 0005 00       		.byte	0
  86 0006 00       		.byte	0
  87 0007 40       		.byte	64
  88 0008 83       		.byte	-125
  89 0009 04       		.byte	4
  90 000a 40       		.byte	64
  91 000b 57       		.byte	87
  92 000c 00       		.byte	0
  93 000d 02       		.byte	2
  94 000e 01       		.byte	1
  95 000f 02       		.byte	2
  96 0010 03       		.byte	3
  97 0011 01       		.byte	1
  98              		.global	USBD_LangIDDesc
  99 0012 0000     		.section	.data.USBD_LangIDDesc,"aw",%progbits
 100              		.align	2
 101              		.type	USBD_LangIDDesc, %object
 102              		.size	USBD_LangIDDesc, 4
 103              	USBD_LangIDDesc:
 104 0000 04       		.byte	4
 105 0001 03       		.byte	3
 106 0002 09       		.byte	9
 107 0003 04       		.byte	4
 108              		.global	USBD_StrDesc
 109              		.section	.bss.USBD_StrDesc,"aw",%nobits
 110              		.align	2
 111              		.type	USBD_StrDesc, %object
 112              		.size	USBD_StrDesc, 512
 113              	USBD_StrDesc:
 114 0000 00000000 		.space	512
ARM GAS  /tmp/ccDhuaqR.s 			page 3


 114      00000000 
 114      00000000 
 114      00000000 
 114      00000000 
 115              		.section	.text._Z24USBD_FS_DeviceDescriptor17USBD_SpeedTypeDefPt,"ax",%progbits
 116              		.align	2
 117              		.global	_Z24USBD_FS_DeviceDescriptor17USBD_SpeedTypeDefPt
 118              		.thumb
 119              		.thumb_func
 120              		.type	_Z24USBD_FS_DeviceDescriptor17USBD_SpeedTypeDefPt, %function
 121              	_Z24USBD_FS_DeviceDescriptor17USBD_SpeedTypeDefPt:
 122              	.LFB56:
 123              		.file 1 "Src/usbd_desc.cpp"
   1:Src/usbd_desc.cpp **** /**
   2:Src/usbd_desc.cpp ****   ******************************************************************************
   3:Src/usbd_desc.cpp ****   * @file           : usbd_desc.c
   4:Src/usbd_desc.cpp ****   * @date           : 15/12/2014 14:52:45  
   5:Src/usbd_desc.cpp ****   * @version        : v1.0_Cube
   6:Src/usbd_desc.cpp ****   * @brief          : This file implements the USB Device descriptors
   7:Src/usbd_desc.cpp ****   ******************************************************************************
   8:Src/usbd_desc.cpp ****   *
   9:Src/usbd_desc.cpp ****   * COPYRIGHT(c) 2014 STMicroelectronics
  10:Src/usbd_desc.cpp ****   *
  11:Src/usbd_desc.cpp ****   * Redistribution and use in source and binary forms, with or without modification,
  12:Src/usbd_desc.cpp ****   * are permitted provided that the following conditions are met:
  13:Src/usbd_desc.cpp ****   * 1. Redistributions of source code must retain the above copyright notice,
  14:Src/usbd_desc.cpp ****   * this list of conditions and the following disclaimer.
  15:Src/usbd_desc.cpp ****   * 2. Redistributions in binary form must reproduce the above copyright notice,
  16:Src/usbd_desc.cpp ****   * this list of conditions and the following disclaimer in the documentation
  17:Src/usbd_desc.cpp ****   * and/or other materials provided with the distribution.
  18:Src/usbd_desc.cpp ****   * 3. Neither the name of STMicroelectronics nor the names of its contributors
  19:Src/usbd_desc.cpp ****   * may be used to endorse or promote products derived from this software
  20:Src/usbd_desc.cpp ****   * without specific prior written permission.
  21:Src/usbd_desc.cpp ****   *
  22:Src/usbd_desc.cpp ****   * THIS SOFTWARE IS PROVIDED BY THE COPYRIGHT HOLDERS AND CONTRIBUTORS "AS IS"
  23:Src/usbd_desc.cpp ****   * AND ANY EXPRESS OR IMPLIED WARRANTIES, INCLUDING, BUT NOT LIMITED TO, THE
  24:Src/usbd_desc.cpp ****   * IMPLIED WARRANTIES OF MERCHANTABILITY AND FITNESS FOR A PARTICULAR PURPOSE ARE
  25:Src/usbd_desc.cpp ****   * DISCLAIMED. IN NO EVENT SHALL THE COPYRIGHT HOLDER OR CONTRIBUTORS BE LIABLE
  26:Src/usbd_desc.cpp ****   * FOR ANY DIRECT, INDIRECT, INCIDENTAL, SPECIAL, EXEMPLARY, OR CONSEQUENTIAL
  27:Src/usbd_desc.cpp ****   * DAMAGES (INCLUDING, BUT NOT LIMITED TO, PROCUREMENT OF SUBSTITUTE GOODS OR
  28:Src/usbd_desc.cpp ****   * SERVICES; LOSS OF USE, DATA, OR PROFITS; OR BUSINESS INTERRUPTION) HOWEVER
  29:Src/usbd_desc.cpp ****   * CAUSED AND ON ANY THEORY OF LIABILITY, WHETHER IN CONTRACT, STRICT LIABILITY,
  30:Src/usbd_desc.cpp ****   * OR TORT (INCLUDING NEGLIGENCE OR OTHERWISE) ARISING IN ANY WAY OUT OF THE USE
  31:Src/usbd_desc.cpp ****   * OF THIS SOFTWARE, EVEN IF ADVISED OF THE POSSIBILITY OF SUCH DAMAGE.
  32:Src/usbd_desc.cpp ****   *
  33:Src/usbd_desc.cpp ****   ******************************************************************************
  34:Src/usbd_desc.cpp **** */
  35:Src/usbd_desc.cpp **** 
  36:Src/usbd_desc.cpp **** /* Includes ------------------------------------------------------------------*/
  37:Src/usbd_desc.cpp **** #include "usbd_core.h"
  38:Src/usbd_desc.cpp **** #include "usbd_desc.h"
  39:Src/usbd_desc.cpp **** #include "usbd_conf.h"
  40:Src/usbd_desc.cpp **** /** @addtogroup STM32_USB_OTG_DEVICE_LIBRARY
  41:Src/usbd_desc.cpp ****   * @{
  42:Src/usbd_desc.cpp ****   */
  43:Src/usbd_desc.cpp **** 
  44:Src/usbd_desc.cpp **** /** @defgroup USBD_DESC 
ARM GAS  /tmp/ccDhuaqR.s 			page 4


  45:Src/usbd_desc.cpp ****   * @brief USBD descriptors module
  46:Src/usbd_desc.cpp ****   * @{
  47:Src/usbd_desc.cpp ****   */ 
  48:Src/usbd_desc.cpp **** 
  49:Src/usbd_desc.cpp **** /** @defgroup USBD_DESC_Private_TypesDefinitions
  50:Src/usbd_desc.cpp ****   * @{
  51:Src/usbd_desc.cpp ****   */ 
  52:Src/usbd_desc.cpp **** /**
  53:Src/usbd_desc.cpp ****   * @}
  54:Src/usbd_desc.cpp ****   */ 
  55:Src/usbd_desc.cpp **** 
  56:Src/usbd_desc.cpp **** /** @defgroup USBD_DESC_Private_Defines
  57:Src/usbd_desc.cpp ****   * @{
  58:Src/usbd_desc.cpp ****   */ 
  59:Src/usbd_desc.cpp **** #define USBD_VID     1155
  60:Src/usbd_desc.cpp **** #define USBD_LANGID_STRING     1033
  61:Src/usbd_desc.cpp **** #define USBD_MANUFACTURER_STRING     "STMicroelectronics"
  62:Src/usbd_desc.cpp **** #define USBD_PID_FS     22336
  63:Src/usbd_desc.cpp **** #define USBD_PRODUCT_STRING_FS     "STM32 Virtual ComPort"
  64:Src/usbd_desc.cpp **** #define USBD_SERIALNUMBER_STRING_FS     "00000000001A"
  65:Src/usbd_desc.cpp **** #define USBD_CONFIGURATION_STRING_FS     "CDC Config"
  66:Src/usbd_desc.cpp **** #define USBD_INTERFACE_STRING_FS     "CDC Interface"
  67:Src/usbd_desc.cpp **** 
  68:Src/usbd_desc.cpp **** /**
  69:Src/usbd_desc.cpp ****   * @}
  70:Src/usbd_desc.cpp ****   */ 
  71:Src/usbd_desc.cpp **** 
  72:Src/usbd_desc.cpp **** /** @defgroup USBD_DESC_Private_Macros
  73:Src/usbd_desc.cpp ****   * @{
  74:Src/usbd_desc.cpp ****   */ 
  75:Src/usbd_desc.cpp **** /**
  76:Src/usbd_desc.cpp ****   * @}
  77:Src/usbd_desc.cpp ****   */ 
  78:Src/usbd_desc.cpp **** 
  79:Src/usbd_desc.cpp **** /** @defgroup USBD_DESC_Private_Variables
  80:Src/usbd_desc.cpp ****   * @{
  81:Src/usbd_desc.cpp ****   */ 
  82:Src/usbd_desc.cpp **** uint8_t *     USBD_FS_DeviceDescriptor( USBD_SpeedTypeDef speed , uint16_t *length);
  83:Src/usbd_desc.cpp **** uint8_t *     USBD_FS_LangIDStrDescriptor( USBD_SpeedTypeDef speed , uint16_t *length);
  84:Src/usbd_desc.cpp **** uint8_t *     USBD_FS_ManufacturerStrDescriptor ( USBD_SpeedTypeDef speed , uint16_t *length);
  85:Src/usbd_desc.cpp **** uint8_t *     USBD_FS_ProductStrDescriptor ( USBD_SpeedTypeDef speed , uint16_t *length);
  86:Src/usbd_desc.cpp **** uint8_t *     USBD_FS_SerialStrDescriptor( USBD_SpeedTypeDef speed , uint16_t *length);
  87:Src/usbd_desc.cpp **** uint8_t *     USBD_FS_ConfigStrDescriptor( USBD_SpeedTypeDef speed , uint16_t *length);
  88:Src/usbd_desc.cpp **** uint8_t *     USBD_FS_InterfaceStrDescriptor( USBD_SpeedTypeDef speed , uint16_t *length);
  89:Src/usbd_desc.cpp **** 
  90:Src/usbd_desc.cpp **** #ifdef USB_SUPPORT_USER_STRING_DESC
  91:Src/usbd_desc.cpp **** uint8_t *     USBD_FS_USRStringDesc (USBD_SpeedTypeDef speed, uint8_t idx , uint16_t *length);  
  92:Src/usbd_desc.cpp **** #endif /* USB_SUPPORT_USER_STRING_DESC */  
  93:Src/usbd_desc.cpp **** 
  94:Src/usbd_desc.cpp **** USBD_DescriptorsTypeDef FS_Desc =
  95:Src/usbd_desc.cpp **** {
  96:Src/usbd_desc.cpp ****   USBD_FS_DeviceDescriptor,
  97:Src/usbd_desc.cpp ****   USBD_FS_LangIDStrDescriptor, 
  98:Src/usbd_desc.cpp ****   USBD_FS_ManufacturerStrDescriptor,
  99:Src/usbd_desc.cpp ****   USBD_FS_ProductStrDescriptor,
 100:Src/usbd_desc.cpp ****   USBD_FS_SerialStrDescriptor,
 101:Src/usbd_desc.cpp ****   USBD_FS_ConfigStrDescriptor,
ARM GAS  /tmp/ccDhuaqR.s 			page 5


 102:Src/usbd_desc.cpp ****   USBD_FS_InterfaceStrDescriptor,
 103:Src/usbd_desc.cpp **** };
 104:Src/usbd_desc.cpp **** 
 105:Src/usbd_desc.cpp **** #if defined ( __ICCARM__ ) /*!< IAR Compiler */
 106:Src/usbd_desc.cpp ****   #pragma data_alignment=4   
 107:Src/usbd_desc.cpp **** #endif
 108:Src/usbd_desc.cpp **** /* USB Standard Device Descriptor */
 109:Src/usbd_desc.cpp **** __ALIGN_BEGIN uint8_t USBD_FS_DeviceDesc[USB_LEN_DEV_DESC] __ALIGN_END =
 110:Src/usbd_desc.cpp ****   {
 111:Src/usbd_desc.cpp ****     0x12,                       /*bLength */
 112:Src/usbd_desc.cpp ****     USB_DESC_TYPE_DEVICE,       /*bDescriptorType*/
 113:Src/usbd_desc.cpp ****     0x00,                       /*bcdUSB */
 114:Src/usbd_desc.cpp ****     0x02,
 115:Src/usbd_desc.cpp ****     0x00,                       /*bDeviceClass*/
 116:Src/usbd_desc.cpp ****     0x00,                       /*bDeviceSubClass*/
 117:Src/usbd_desc.cpp ****     0x00,                       /*bDeviceProtocol*/
 118:Src/usbd_desc.cpp ****     USB_MAX_EP0_SIZE,          /*bMaxPacketSize*/
 119:Src/usbd_desc.cpp ****     LOBYTE(USBD_VID),           /*idVendor*/
 120:Src/usbd_desc.cpp ****     HIBYTE(USBD_VID),           /*idVendor*/
 121:Src/usbd_desc.cpp ****     LOBYTE(USBD_PID_FS),           /*idVendor*/
 122:Src/usbd_desc.cpp ****     HIBYTE(USBD_PID_FS),           /*idVendor*/
 123:Src/usbd_desc.cpp ****     0x00,                       /*bcdDevice rel. 2.00*/
 124:Src/usbd_desc.cpp ****     0x02,
 125:Src/usbd_desc.cpp ****     USBD_IDX_MFC_STR,           /*Index of manufacturer  string*/
 126:Src/usbd_desc.cpp ****     USBD_IDX_PRODUCT_STR,       /*Index of product string*/
 127:Src/usbd_desc.cpp ****     USBD_IDX_SERIAL_STR,        /*Index of serial number string*/
 128:Src/usbd_desc.cpp ****     USBD_MAX_NUM_CONFIGURATION  /*bNumConfigurations*/
 129:Src/usbd_desc.cpp ****   } ; /* USB_DeviceDescriptor */
 130:Src/usbd_desc.cpp **** 
 131:Src/usbd_desc.cpp **** #if defined ( __ICCARM__ ) /*!< IAR Compiler */
 132:Src/usbd_desc.cpp ****   #pragma data_alignment=4   
 133:Src/usbd_desc.cpp **** #endif
 134:Src/usbd_desc.cpp **** 
 135:Src/usbd_desc.cpp **** /* USB Standard Device Descriptor */
 136:Src/usbd_desc.cpp **** __ALIGN_BEGIN uint8_t USBD_LangIDDesc[USB_LEN_LANGID_STR_DESC] __ALIGN_END =
 137:Src/usbd_desc.cpp **** {
 138:Src/usbd_desc.cpp ****      USB_LEN_LANGID_STR_DESC,         
 139:Src/usbd_desc.cpp ****      USB_DESC_TYPE_STRING,       
 140:Src/usbd_desc.cpp ****      LOBYTE(USBD_LANGID_STRING),
 141:Src/usbd_desc.cpp ****      HIBYTE(USBD_LANGID_STRING), 
 142:Src/usbd_desc.cpp **** };
 143:Src/usbd_desc.cpp **** 
 144:Src/usbd_desc.cpp **** #if defined ( __ICCARM__ ) /*!< IAR Compiler */
 145:Src/usbd_desc.cpp ****   #pragma data_alignment=4   
 146:Src/usbd_desc.cpp **** #endif
 147:Src/usbd_desc.cpp **** __ALIGN_BEGIN uint8_t USBD_StrDesc[USBD_MAX_STR_DESC_SIZ] __ALIGN_END;
 148:Src/usbd_desc.cpp **** /**
 149:Src/usbd_desc.cpp ****   * @}
 150:Src/usbd_desc.cpp ****   */ 
 151:Src/usbd_desc.cpp **** 
 152:Src/usbd_desc.cpp **** /** @defgroup USBD_DESC_Private_FunctionPrototypes
 153:Src/usbd_desc.cpp ****   * @{
 154:Src/usbd_desc.cpp ****   */ 
 155:Src/usbd_desc.cpp **** /**
 156:Src/usbd_desc.cpp ****   * @}
 157:Src/usbd_desc.cpp ****   */ 
 158:Src/usbd_desc.cpp **** 
ARM GAS  /tmp/ccDhuaqR.s 			page 6


 159:Src/usbd_desc.cpp **** /** @defgroup USBD_DESC_Private_Functions
 160:Src/usbd_desc.cpp ****   * @{
 161:Src/usbd_desc.cpp ****   */ 
 162:Src/usbd_desc.cpp **** 
 163:Src/usbd_desc.cpp **** /**
 164:Src/usbd_desc.cpp **** * @brief  USBD_FS_DeviceDescriptor 
 165:Src/usbd_desc.cpp **** *         return the device descriptor
 166:Src/usbd_desc.cpp **** * @param  speed : current device speed
 167:Src/usbd_desc.cpp **** * @param  length : pointer to data length variable
 168:Src/usbd_desc.cpp **** * @retval pointer to descriptor buffer
 169:Src/usbd_desc.cpp **** */
 170:Src/usbd_desc.cpp **** uint8_t *  USBD_FS_DeviceDescriptor( USBD_SpeedTypeDef speed , uint16_t *length)
 171:Src/usbd_desc.cpp **** {
 124              		.loc 1 171 0
 125              		.cfi_startproc
 126              		@ args = 0, pretend = 0, frame = 8
 127              		@ frame_needed = 1, uses_anonymous_args = 0
 128              		@ link register save eliminated.
 129 0000 80B4     		push	{r7}	@
 130              	.LCFI0:
 131              		.cfi_def_cfa_offset 4
 132              		.cfi_offset 7, -4
 133 0002 83B0     		sub	sp, sp, #12	@,,
 134              	.LCFI1:
 135              		.cfi_def_cfa_offset 16
 136 0004 00AF     		add	r7, sp, #0	@,,
 137              	.LCFI2:
 138              		.cfi_def_cfa_register 7
 139 0006 0346     		mov	r3, r0	@ tmp136, speed
 140 0008 3960     		str	r1, [r7, #0]	@ length, length
 141 000a FB71     		strb	r3, [r7, #7]	@ tmp137, speed
 172:Src/usbd_desc.cpp ****   *length = sizeof(USBD_FS_DeviceDesc);
 142              		.loc 1 172 0
 143 000c 3B68     		ldr	r3, [r7, #0]	@ tmp138, length
 144 000e 4FF01202 		mov	r2, #18	@ tmp140,
 145 0012 1A80     		strh	r2, [r3, #0]	@ movhi	@ tmp139, *length_1(D)
 173:Src/usbd_desc.cpp ****   return USBD_FS_DeviceDesc;
 146              		.loc 1 173 0
 147 0014 40F20003 		movw	r3, #:lower16:USBD_FS_DeviceDesc	@ D.7640,
 148 0018 C0F20003 		movt	r3, #:upper16:USBD_FS_DeviceDesc	@ D.7640,
 174:Src/usbd_desc.cpp **** }
 149              		.loc 1 174 0
 150 001c 1846     		mov	r0, r3	@, <retval>
 151 001e 07F10C07 		add	r7, r7, #12	@,,
 152 0022 BD46     		mov	sp, r7
 153 0024 80BC     		pop	{r7}
 154 0026 7047     		bx	lr
 155              		.cfi_endproc
 156              	.LFE56:
 157              		.size	_Z24USBD_FS_DeviceDescriptor17USBD_SpeedTypeDefPt, .-_Z24USBD_FS_DeviceDescriptor17USBD_Spee
 158              		.section	.text._Z27USBD_FS_LangIDStrDescriptor17USBD_SpeedTypeDefPt,"ax",%progbits
 159              		.align	2
 160              		.global	_Z27USBD_FS_LangIDStrDescriptor17USBD_SpeedTypeDefPt
 161              		.thumb
 162              		.thumb_func
 163              		.type	_Z27USBD_FS_LangIDStrDescriptor17USBD_SpeedTypeDefPt, %function
 164              	_Z27USBD_FS_LangIDStrDescriptor17USBD_SpeedTypeDefPt:
ARM GAS  /tmp/ccDhuaqR.s 			page 7


 165              	.LFB57:
 175:Src/usbd_desc.cpp **** 
 176:Src/usbd_desc.cpp **** /**
 177:Src/usbd_desc.cpp **** * @brief  USBD_FS_LangIDStrDescriptor 
 178:Src/usbd_desc.cpp **** *         return the LangID string descriptor
 179:Src/usbd_desc.cpp **** * @param  speed : current device speed
 180:Src/usbd_desc.cpp **** * @param  length : pointer to data length variable
 181:Src/usbd_desc.cpp **** * @retval pointer to descriptor buffer
 182:Src/usbd_desc.cpp **** */
 183:Src/usbd_desc.cpp **** uint8_t *  USBD_FS_LangIDStrDescriptor( USBD_SpeedTypeDef speed , uint16_t *length)
 184:Src/usbd_desc.cpp **** {
 166              		.loc 1 184 0
 167              		.cfi_startproc
 168              		@ args = 0, pretend = 0, frame = 8
 169              		@ frame_needed = 1, uses_anonymous_args = 0
 170              		@ link register save eliminated.
 171 0000 80B4     		push	{r7}	@
 172              	.LCFI3:
 173              		.cfi_def_cfa_offset 4
 174              		.cfi_offset 7, -4
 175 0002 83B0     		sub	sp, sp, #12	@,,
 176              	.LCFI4:
 177              		.cfi_def_cfa_offset 16
 178 0004 00AF     		add	r7, sp, #0	@,,
 179              	.LCFI5:
 180              		.cfi_def_cfa_register 7
 181 0006 0346     		mov	r3, r0	@ tmp136, speed
 182 0008 3960     		str	r1, [r7, #0]	@ length, length
 183 000a FB71     		strb	r3, [r7, #7]	@ tmp137, speed
 185:Src/usbd_desc.cpp ****   *length =  sizeof(USBD_LangIDDesc);  
 184              		.loc 1 185 0
 185 000c 3B68     		ldr	r3, [r7, #0]	@ tmp138, length
 186 000e 4FF00402 		mov	r2, #4	@ tmp140,
 187 0012 1A80     		strh	r2, [r3, #0]	@ movhi	@ tmp139, *length_1(D)
 186:Src/usbd_desc.cpp ****   return USBD_LangIDDesc;
 188              		.loc 1 186 0
 189 0014 40F20003 		movw	r3, #:lower16:USBD_LangIDDesc	@ D.7638,
 190 0018 C0F20003 		movt	r3, #:upper16:USBD_LangIDDesc	@ D.7638,
 187:Src/usbd_desc.cpp **** }
 191              		.loc 1 187 0
 192 001c 1846     		mov	r0, r3	@, <retval>
 193 001e 07F10C07 		add	r7, r7, #12	@,,
 194 0022 BD46     		mov	sp, r7
 195 0024 80BC     		pop	{r7}
 196 0026 7047     		bx	lr
 197              		.cfi_endproc
 198              	.LFE57:
 199              		.size	_Z27USBD_FS_LangIDStrDescriptor17USBD_SpeedTypeDefPt, .-_Z27USBD_FS_LangIDStrDescriptor17USB
 200              		.section	.rodata
 201              		.align	2
 202              	.LC0:
 203 0000 53544D33 		.ascii	"STM32 Virtual ComPort\000"
 203      32205669 
 203      72747561 
 203      6C20436F 
 203      6D506F72 
 204              		.section	.text._Z28USBD_FS_ProductStrDescriptor17USBD_SpeedTypeDefPt,"ax",%progbits
ARM GAS  /tmp/ccDhuaqR.s 			page 8


 205              		.align	2
 206              		.global	_Z28USBD_FS_ProductStrDescriptor17USBD_SpeedTypeDefPt
 207              		.thumb
 208              		.thumb_func
 209              		.type	_Z28USBD_FS_ProductStrDescriptor17USBD_SpeedTypeDefPt, %function
 210              	_Z28USBD_FS_ProductStrDescriptor17USBD_SpeedTypeDefPt:
 211              	.LFB58:
 188:Src/usbd_desc.cpp **** 
 189:Src/usbd_desc.cpp **** /**
 190:Src/usbd_desc.cpp **** * @brief  USBD_FS_ProductStrDescriptor 
 191:Src/usbd_desc.cpp **** *         return the product string descriptor
 192:Src/usbd_desc.cpp **** * @param  speed : current device speed
 193:Src/usbd_desc.cpp **** * @param  length : pointer to data length variable
 194:Src/usbd_desc.cpp **** * @retval pointer to descriptor buffer
 195:Src/usbd_desc.cpp **** */
 196:Src/usbd_desc.cpp **** uint8_t *  USBD_FS_ProductStrDescriptor( USBD_SpeedTypeDef speed , uint16_t *length)
 197:Src/usbd_desc.cpp **** {
 212              		.loc 1 197 0
 213              		.cfi_startproc
 214              		@ args = 0, pretend = 0, frame = 8
 215              		@ frame_needed = 1, uses_anonymous_args = 0
 216 0000 80B5     		push	{r7, lr}	@
 217              	.LCFI6:
 218              		.cfi_def_cfa_offset 8
 219              		.cfi_offset 7, -8
 220              		.cfi_offset 14, -4
 221 0002 82B0     		sub	sp, sp, #8	@,,
 222              	.LCFI7:
 223              		.cfi_def_cfa_offset 16
 224 0004 00AF     		add	r7, sp, #0	@,,
 225              	.LCFI8:
 226              		.cfi_def_cfa_register 7
 227 0006 0346     		mov	r3, r0	@ tmp136, speed
 228 0008 3960     		str	r1, [r7, #0]	@ length, length
 229 000a FB71     		strb	r3, [r7, #7]	@ tmp137, speed
 198:Src/usbd_desc.cpp ****   if(speed == 0)
 230              		.loc 1 198 0
 231 000c FB79     		ldrb	r3, [r7, #7]	@ zero_extendqisi2	@ tmp138, speed
 232 000e 002B     		cmp	r3, #0	@ tmp138,
 233 0010 0BD1     		bne	.L6	@,
 199:Src/usbd_desc.cpp ****   {   
 200:Src/usbd_desc.cpp ****     USBD_GetString (USBD_PRODUCT_STRING_FS, USBD_StrDesc, length);
 234              		.loc 1 200 0
 235 0012 40F20000 		movw	r0, #:lower16:.LC0	@,
 236 0016 C0F20000 		movt	r0, #:upper16:.LC0	@,
 237 001a 40F20001 		movw	r1, #:lower16:USBD_StrDesc	@,
 238 001e C0F20001 		movt	r1, #:upper16:USBD_StrDesc	@,
 239 0022 3A68     		ldr	r2, [r7, #0]	@, length
 240 0024 FFF7FEFF 		bl	_Z14USBD_GetStringPhS_Pt	@
 241 0028 0AE0     		b	.L7	@
 242              	.L6:
 201:Src/usbd_desc.cpp ****   }
 202:Src/usbd_desc.cpp ****   else
 203:Src/usbd_desc.cpp ****   {
 204:Src/usbd_desc.cpp ****     USBD_GetString (USBD_PRODUCT_STRING_FS, USBD_StrDesc, length);    
 243              		.loc 1 204 0
 244 002a 40F20000 		movw	r0, #:lower16:.LC0	@,
ARM GAS  /tmp/ccDhuaqR.s 			page 9


 245 002e C0F20000 		movt	r0, #:upper16:.LC0	@,
 246 0032 40F20001 		movw	r1, #:lower16:USBD_StrDesc	@,
 247 0036 C0F20001 		movt	r1, #:upper16:USBD_StrDesc	@,
 248 003a 3A68     		ldr	r2, [r7, #0]	@, length
 249 003c FFF7FEFF 		bl	_Z14USBD_GetStringPhS_Pt	@
 250              	.L7:
 205:Src/usbd_desc.cpp ****   }
 206:Src/usbd_desc.cpp ****   return USBD_StrDesc;
 251              		.loc 1 206 0
 252 0040 40F20003 		movw	r3, #:lower16:USBD_StrDesc	@ D.7636,
 253 0044 C0F20003 		movt	r3, #:upper16:USBD_StrDesc	@ D.7636,
 207:Src/usbd_desc.cpp **** }
 254              		.loc 1 207 0
 255 0048 1846     		mov	r0, r3	@, <retval>
 256 004a 07F10807 		add	r7, r7, #8	@,,
 257 004e BD46     		mov	sp, r7
 258 0050 80BD     		pop	{r7, pc}
 259              		.cfi_endproc
 260              	.LFE58:
 261              		.size	_Z28USBD_FS_ProductStrDescriptor17USBD_SpeedTypeDefPt, .-_Z28USBD_FS_ProductStrDescriptor17U
 262 0052 00BF     		.section	.rodata
 263 0016 0000     		.align	2
 264              	.LC1:
 265 0018 53544D69 		.ascii	"STMicroelectronics\000"
 265      63726F65 
 265      6C656374 
 265      726F6E69 
 265      637300
 266              		.section	.text._Z33USBD_FS_ManufacturerStrDescriptor17USBD_SpeedTypeDefPt,"ax",%progbits
 267              		.align	2
 268              		.global	_Z33USBD_FS_ManufacturerStrDescriptor17USBD_SpeedTypeDefPt
 269              		.thumb
 270              		.thumb_func
 271              		.type	_Z33USBD_FS_ManufacturerStrDescriptor17USBD_SpeedTypeDefPt, %function
 272              	_Z33USBD_FS_ManufacturerStrDescriptor17USBD_SpeedTypeDefPt:
 273              	.LFB59:
 208:Src/usbd_desc.cpp **** 
 209:Src/usbd_desc.cpp **** /**
 210:Src/usbd_desc.cpp **** * @brief  USBD_FS_ManufacturerStrDescriptor 
 211:Src/usbd_desc.cpp **** *         return the manufacturer string descriptor
 212:Src/usbd_desc.cpp **** * @param  speed : current device speed
 213:Src/usbd_desc.cpp **** * @param  length : pointer to data length variable
 214:Src/usbd_desc.cpp **** * @retval pointer to descriptor buffer
 215:Src/usbd_desc.cpp **** */
 216:Src/usbd_desc.cpp **** uint8_t *  USBD_FS_ManufacturerStrDescriptor( USBD_SpeedTypeDef speed , uint16_t *length)
 217:Src/usbd_desc.cpp **** {
 274              		.loc 1 217 0
 275              		.cfi_startproc
 276              		@ args = 0, pretend = 0, frame = 8
 277              		@ frame_needed = 1, uses_anonymous_args = 0
 278 0000 80B5     		push	{r7, lr}	@
 279              	.LCFI9:
 280              		.cfi_def_cfa_offset 8
 281              		.cfi_offset 7, -8
 282              		.cfi_offset 14, -4
 283 0002 82B0     		sub	sp, sp, #8	@,,
 284              	.LCFI10:
ARM GAS  /tmp/ccDhuaqR.s 			page 10


 285              		.cfi_def_cfa_offset 16
 286 0004 00AF     		add	r7, sp, #0	@,,
 287              	.LCFI11:
 288              		.cfi_def_cfa_register 7
 289 0006 0346     		mov	r3, r0	@ tmp136, speed
 290 0008 3960     		str	r1, [r7, #0]	@ length, length
 291 000a FB71     		strb	r3, [r7, #7]	@ tmp137, speed
 218:Src/usbd_desc.cpp ****   USBD_GetString (USBD_MANUFACTURER_STRING, USBD_StrDesc, length);
 292              		.loc 1 218 0
 293 000c 40F20000 		movw	r0, #:lower16:.LC1	@,
 294 0010 C0F20000 		movt	r0, #:upper16:.LC1	@,
 295 0014 40F20001 		movw	r1, #:lower16:USBD_StrDesc	@,
 296 0018 C0F20001 		movt	r1, #:upper16:USBD_StrDesc	@,
 297 001c 3A68     		ldr	r2, [r7, #0]	@, length
 298 001e FFF7FEFF 		bl	_Z14USBD_GetStringPhS_Pt	@
 219:Src/usbd_desc.cpp ****   return USBD_StrDesc;
 299              		.loc 1 219 0
 300 0022 40F20003 		movw	r3, #:lower16:USBD_StrDesc	@ D.7631,
 301 0026 C0F20003 		movt	r3, #:upper16:USBD_StrDesc	@ D.7631,
 220:Src/usbd_desc.cpp **** }
 302              		.loc 1 220 0
 303 002a 1846     		mov	r0, r3	@, <retval>
 304 002c 07F10807 		add	r7, r7, #8	@,,
 305 0030 BD46     		mov	sp, r7
 306 0032 80BD     		pop	{r7, pc}
 307              		.cfi_endproc
 308              	.LFE59:
 309              		.size	_Z33USBD_FS_ManufacturerStrDescriptor17USBD_SpeedTypeDefPt, .-_Z33USBD_FS_ManufacturerStrDes
 310              		.section	.rodata
 311 002b 00       		.align	2
 312              	.LC2:
 313 002c 30303030 		.ascii	"00000000001A\000"
 313      30303030 
 313      30303141 
 313      00
 314              		.section	.text._Z27USBD_FS_SerialStrDescriptor17USBD_SpeedTypeDefPt,"ax",%progbits
 315              		.align	2
 316              		.global	_Z27USBD_FS_SerialStrDescriptor17USBD_SpeedTypeDefPt
 317              		.thumb
 318              		.thumb_func
 319              		.type	_Z27USBD_FS_SerialStrDescriptor17USBD_SpeedTypeDefPt, %function
 320              	_Z27USBD_FS_SerialStrDescriptor17USBD_SpeedTypeDefPt:
 321              	.LFB60:
 221:Src/usbd_desc.cpp **** 
 222:Src/usbd_desc.cpp **** /**
 223:Src/usbd_desc.cpp **** * @brief  USBD_FS_SerialStrDescriptor 
 224:Src/usbd_desc.cpp **** *         return the serial number string descriptor
 225:Src/usbd_desc.cpp **** * @param  speed : current device speed
 226:Src/usbd_desc.cpp **** * @param  length : pointer to data length variable
 227:Src/usbd_desc.cpp **** * @retval pointer to descriptor buffer
 228:Src/usbd_desc.cpp **** */
 229:Src/usbd_desc.cpp **** uint8_t *  USBD_FS_SerialStrDescriptor( USBD_SpeedTypeDef speed , uint16_t *length)
 230:Src/usbd_desc.cpp **** {
 322              		.loc 1 230 0
 323              		.cfi_startproc
 324              		@ args = 0, pretend = 0, frame = 8
 325              		@ frame_needed = 1, uses_anonymous_args = 0
ARM GAS  /tmp/ccDhuaqR.s 			page 11


 326 0000 80B5     		push	{r7, lr}	@
 327              	.LCFI12:
 328              		.cfi_def_cfa_offset 8
 329              		.cfi_offset 7, -8
 330              		.cfi_offset 14, -4
 331 0002 82B0     		sub	sp, sp, #8	@,,
 332              	.LCFI13:
 333              		.cfi_def_cfa_offset 16
 334 0004 00AF     		add	r7, sp, #0	@,,
 335              	.LCFI14:
 336              		.cfi_def_cfa_register 7
 337 0006 0346     		mov	r3, r0	@ tmp136, speed
 338 0008 3960     		str	r1, [r7, #0]	@ length, length
 339 000a FB71     		strb	r3, [r7, #7]	@ tmp137, speed
 231:Src/usbd_desc.cpp ****   if(speed  == USBD_SPEED_HIGH)
 340              		.loc 1 231 0
 341 000c FB79     		ldrb	r3, [r7, #7]	@ zero_extendqisi2	@ tmp138, speed
 342 000e 002B     		cmp	r3, #0	@ tmp138,
 343 0010 0BD1     		bne	.L12	@,
 232:Src/usbd_desc.cpp ****   {    
 233:Src/usbd_desc.cpp ****     USBD_GetString (USBD_SERIALNUMBER_STRING_FS, USBD_StrDesc, length);
 344              		.loc 1 233 0
 345 0012 40F20000 		movw	r0, #:lower16:.LC2	@,
 346 0016 C0F20000 		movt	r0, #:upper16:.LC2	@,
 347 001a 40F20001 		movw	r1, #:lower16:USBD_StrDesc	@,
 348 001e C0F20001 		movt	r1, #:upper16:USBD_StrDesc	@,
 349 0022 3A68     		ldr	r2, [r7, #0]	@, length
 350 0024 FFF7FEFF 		bl	_Z14USBD_GetStringPhS_Pt	@
 351 0028 0AE0     		b	.L13	@
 352              	.L12:
 234:Src/usbd_desc.cpp ****   }
 235:Src/usbd_desc.cpp ****   else
 236:Src/usbd_desc.cpp ****   {
 237:Src/usbd_desc.cpp ****     USBD_GetString (USBD_SERIALNUMBER_STRING_FS, USBD_StrDesc, length);    
 353              		.loc 1 237 0
 354 002a 40F20000 		movw	r0, #:lower16:.LC2	@,
 355 002e C0F20000 		movt	r0, #:upper16:.LC2	@,
 356 0032 40F20001 		movw	r1, #:lower16:USBD_StrDesc	@,
 357 0036 C0F20001 		movt	r1, #:upper16:USBD_StrDesc	@,
 358 003a 3A68     		ldr	r2, [r7, #0]	@, length
 359 003c FFF7FEFF 		bl	_Z14USBD_GetStringPhS_Pt	@
 360              	.L13:
 238:Src/usbd_desc.cpp ****   }
 239:Src/usbd_desc.cpp ****   return USBD_StrDesc;
 361              		.loc 1 239 0
 362 0040 40F20003 		movw	r3, #:lower16:USBD_StrDesc	@ D.7629,
 363 0044 C0F20003 		movt	r3, #:upper16:USBD_StrDesc	@ D.7629,
 240:Src/usbd_desc.cpp **** }
 364              		.loc 1 240 0
 365 0048 1846     		mov	r0, r3	@, <retval>
 366 004a 07F10807 		add	r7, r7, #8	@,,
 367 004e BD46     		mov	sp, r7
 368 0050 80BD     		pop	{r7, pc}
 369              		.cfi_endproc
 370              	.LFE60:
 371              		.size	_Z27USBD_FS_SerialStrDescriptor17USBD_SpeedTypeDefPt, .-_Z27USBD_FS_SerialStrDescriptor17USB
 372 0052 00BF     		.section	.rodata
ARM GAS  /tmp/ccDhuaqR.s 			page 12


 373 0039 000000   		.align	2
 374              	.LC3:
 375 003c 43444320 		.ascii	"CDC Config\000"
 375      436F6E66 
 375      696700
 376              		.section	.text._Z27USBD_FS_ConfigStrDescriptor17USBD_SpeedTypeDefPt,"ax",%progbits
 377              		.align	2
 378              		.global	_Z27USBD_FS_ConfigStrDescriptor17USBD_SpeedTypeDefPt
 379              		.thumb
 380              		.thumb_func
 381              		.type	_Z27USBD_FS_ConfigStrDescriptor17USBD_SpeedTypeDefPt, %function
 382              	_Z27USBD_FS_ConfigStrDescriptor17USBD_SpeedTypeDefPt:
 383              	.LFB61:
 241:Src/usbd_desc.cpp **** 
 242:Src/usbd_desc.cpp **** /**
 243:Src/usbd_desc.cpp **** * @brief  USBD_FS_ConfigStrDescriptor 
 244:Src/usbd_desc.cpp **** *         return the configuration string descriptor
 245:Src/usbd_desc.cpp **** * @param  speed : current device speed
 246:Src/usbd_desc.cpp **** * @param  length : pointer to data length variable
 247:Src/usbd_desc.cpp **** * @retval pointer to descriptor buffer
 248:Src/usbd_desc.cpp **** */
 249:Src/usbd_desc.cpp **** uint8_t *  USBD_FS_ConfigStrDescriptor( USBD_SpeedTypeDef speed , uint16_t *length)
 250:Src/usbd_desc.cpp **** {
 384              		.loc 1 250 0
 385              		.cfi_startproc
 386              		@ args = 0, pretend = 0, frame = 8
 387              		@ frame_needed = 1, uses_anonymous_args = 0
 388 0000 80B5     		push	{r7, lr}	@
 389              	.LCFI15:
 390              		.cfi_def_cfa_offset 8
 391              		.cfi_offset 7, -8
 392              		.cfi_offset 14, -4
 393 0002 82B0     		sub	sp, sp, #8	@,,
 394              	.LCFI16:
 395              		.cfi_def_cfa_offset 16
 396 0004 00AF     		add	r7, sp, #0	@,,
 397              	.LCFI17:
 398              		.cfi_def_cfa_register 7
 399 0006 0346     		mov	r3, r0	@ tmp136, speed
 400 0008 3960     		str	r1, [r7, #0]	@ length, length
 401 000a FB71     		strb	r3, [r7, #7]	@ tmp137, speed
 251:Src/usbd_desc.cpp ****   if(speed  == USBD_SPEED_HIGH)
 402              		.loc 1 251 0
 403 000c FB79     		ldrb	r3, [r7, #7]	@ zero_extendqisi2	@ tmp138, speed
 404 000e 002B     		cmp	r3, #0	@ tmp138,
 405 0010 0BD1     		bne	.L16	@,
 252:Src/usbd_desc.cpp ****   {  
 253:Src/usbd_desc.cpp ****     USBD_GetString (USBD_CONFIGURATION_STRING_FS, USBD_StrDesc, length);
 406              		.loc 1 253 0
 407 0012 40F20000 		movw	r0, #:lower16:.LC3	@,
 408 0016 C0F20000 		movt	r0, #:upper16:.LC3	@,
 409 001a 40F20001 		movw	r1, #:lower16:USBD_StrDesc	@,
 410 001e C0F20001 		movt	r1, #:upper16:USBD_StrDesc	@,
 411 0022 3A68     		ldr	r2, [r7, #0]	@, length
 412 0024 FFF7FEFF 		bl	_Z14USBD_GetStringPhS_Pt	@
 413 0028 0AE0     		b	.L17	@
 414              	.L16:
ARM GAS  /tmp/ccDhuaqR.s 			page 13


 254:Src/usbd_desc.cpp ****   }
 255:Src/usbd_desc.cpp ****   else
 256:Src/usbd_desc.cpp ****   {
 257:Src/usbd_desc.cpp ****     USBD_GetString (USBD_CONFIGURATION_STRING_FS, USBD_StrDesc, length); 
 415              		.loc 1 257 0
 416 002a 40F20000 		movw	r0, #:lower16:.LC3	@,
 417 002e C0F20000 		movt	r0, #:upper16:.LC3	@,
 418 0032 40F20001 		movw	r1, #:lower16:USBD_StrDesc	@,
 419 0036 C0F20001 		movt	r1, #:upper16:USBD_StrDesc	@,
 420 003a 3A68     		ldr	r2, [r7, #0]	@, length
 421 003c FFF7FEFF 		bl	_Z14USBD_GetStringPhS_Pt	@
 422              	.L17:
 258:Src/usbd_desc.cpp ****   }
 259:Src/usbd_desc.cpp ****   return USBD_StrDesc;  
 423              		.loc 1 259 0
 424 0040 40F20003 		movw	r3, #:lower16:USBD_StrDesc	@ D.7624,
 425 0044 C0F20003 		movt	r3, #:upper16:USBD_StrDesc	@ D.7624,
 260:Src/usbd_desc.cpp **** }
 426              		.loc 1 260 0
 427 0048 1846     		mov	r0, r3	@, <retval>
 428 004a 07F10807 		add	r7, r7, #8	@,,
 429 004e BD46     		mov	sp, r7
 430 0050 80BD     		pop	{r7, pc}
 431              		.cfi_endproc
 432              	.LFE61:
 433              		.size	_Z27USBD_FS_ConfigStrDescriptor17USBD_SpeedTypeDefPt, .-_Z27USBD_FS_ConfigStrDescriptor17USB
 434 0052 00BF     		.section	.rodata
 435 0047 00       		.align	2
 436              	.LC4:
 437 0048 43444320 		.ascii	"CDC Interface\000"
 437      496E7465 
 437      72666163 
 437      6500
 438 0056 0000     		.section	.text._Z30USBD_FS_InterfaceStrDescriptor17USBD_SpeedTypeDefPt,"ax",%progbits
 439              		.align	2
 440              		.global	_Z30USBD_FS_InterfaceStrDescriptor17USBD_SpeedTypeDefPt
 441              		.thumb
 442              		.thumb_func
 443              		.type	_Z30USBD_FS_InterfaceStrDescriptor17USBD_SpeedTypeDefPt, %function
 444              	_Z30USBD_FS_InterfaceStrDescriptor17USBD_SpeedTypeDefPt:
 445              	.LFB62:
 261:Src/usbd_desc.cpp **** 
 262:Src/usbd_desc.cpp **** /**
 263:Src/usbd_desc.cpp **** * @brief  USBD_HS_InterfaceStrDescriptor 
 264:Src/usbd_desc.cpp **** *         return the interface string descriptor
 265:Src/usbd_desc.cpp **** * @param  speed : current device speed
 266:Src/usbd_desc.cpp **** * @param  length : pointer to data length variable
 267:Src/usbd_desc.cpp **** * @retval pointer to descriptor buffer
 268:Src/usbd_desc.cpp **** */
 269:Src/usbd_desc.cpp **** uint8_t *  USBD_FS_InterfaceStrDescriptor( USBD_SpeedTypeDef speed , uint16_t *length)
 270:Src/usbd_desc.cpp **** {
 446              		.loc 1 270 0
 447              		.cfi_startproc
 448              		@ args = 0, pretend = 0, frame = 8
 449              		@ frame_needed = 1, uses_anonymous_args = 0
 450 0000 80B5     		push	{r7, lr}	@
 451              	.LCFI18:
ARM GAS  /tmp/ccDhuaqR.s 			page 14


 452              		.cfi_def_cfa_offset 8
 453              		.cfi_offset 7, -8
 454              		.cfi_offset 14, -4
 455 0002 82B0     		sub	sp, sp, #8	@,,
 456              	.LCFI19:
 457              		.cfi_def_cfa_offset 16
 458 0004 00AF     		add	r7, sp, #0	@,,
 459              	.LCFI20:
 460              		.cfi_def_cfa_register 7
 461 0006 0346     		mov	r3, r0	@ tmp136, speed
 462 0008 3960     		str	r1, [r7, #0]	@ length, length
 463 000a FB71     		strb	r3, [r7, #7]	@ tmp137, speed
 271:Src/usbd_desc.cpp ****   if(speed == 0)
 464              		.loc 1 271 0
 465 000c FB79     		ldrb	r3, [r7, #7]	@ zero_extendqisi2	@ tmp138, speed
 466 000e 002B     		cmp	r3, #0	@ tmp138,
 467 0010 0BD1     		bne	.L20	@,
 272:Src/usbd_desc.cpp ****   {
 273:Src/usbd_desc.cpp ****     USBD_GetString (USBD_INTERFACE_STRING_FS, USBD_StrDesc, length);
 468              		.loc 1 273 0
 469 0012 40F20000 		movw	r0, #:lower16:.LC4	@,
 470 0016 C0F20000 		movt	r0, #:upper16:.LC4	@,
 471 001a 40F20001 		movw	r1, #:lower16:USBD_StrDesc	@,
 472 001e C0F20001 		movt	r1, #:upper16:USBD_StrDesc	@,
 473 0022 3A68     		ldr	r2, [r7, #0]	@, length
 474 0024 FFF7FEFF 		bl	_Z14USBD_GetStringPhS_Pt	@
 475 0028 0AE0     		b	.L21	@
 476              	.L20:
 274:Src/usbd_desc.cpp ****   }
 275:Src/usbd_desc.cpp ****   else
 276:Src/usbd_desc.cpp ****   {
 277:Src/usbd_desc.cpp ****     USBD_GetString (USBD_INTERFACE_STRING_FS, USBD_StrDesc, length);
 477              		.loc 1 277 0
 478 002a 40F20000 		movw	r0, #:lower16:.LC4	@,
 479 002e C0F20000 		movt	r0, #:upper16:.LC4	@,
 480 0032 40F20001 		movw	r1, #:lower16:USBD_StrDesc	@,
 481 0036 C0F20001 		movt	r1, #:upper16:USBD_StrDesc	@,
 482 003a 3A68     		ldr	r2, [r7, #0]	@, length
 483 003c FFF7FEFF 		bl	_Z14USBD_GetStringPhS_Pt	@
 484              	.L21:
 278:Src/usbd_desc.cpp ****   }
 279:Src/usbd_desc.cpp ****   return USBD_StrDesc;  
 485              		.loc 1 279 0
 486 0040 40F20003 		movw	r3, #:lower16:USBD_StrDesc	@ D.7619,
 487 0044 C0F20003 		movt	r3, #:upper16:USBD_StrDesc	@ D.7619,
 280:Src/usbd_desc.cpp **** }
 488              		.loc 1 280 0
 489 0048 1846     		mov	r0, r3	@, <retval>
 490 004a 07F10807 		add	r7, r7, #8	@,,
 491 004e BD46     		mov	sp, r7
 492 0050 80BD     		pop	{r7, pc}
 493              		.cfi_endproc
 494              	.LFE62:
 495              		.size	_Z30USBD_FS_InterfaceStrDescriptor17USBD_SpeedTypeDefPt, .-_Z30USBD_FS_InterfaceStrDescripto
 496 0052 00BF     		.text
 497              	.Letext0:
 498              		.file 2 "/home/maciek/gcc-arm-none-eabi/gcc-arm-none-eabi-4_7-2013q1/bin/../lib/gcc/arm-none-eabi/
ARM GAS  /tmp/ccDhuaqR.s 			page 15


 499              		.file 3 "Middlewares/ST/STM32_USB_Device_Library/Core/usbd_def.h"
 500              		.file 4 "Drivers/CMSIS/Include/core_cm3.h"