ARM GAS  /tmp/ccdGXLxk.s 			page 1


   1              		.syntax unified
   2              		.cpu cortex-m3
   3              		.fpu softvfp
   4              		.eabi_attribute 20, 1	@ Tag_ABI_FP_denormal
   5              		.eabi_attribute 21, 1	@ Tag_ABI_FP_exceptions
   6              		.eabi_attribute 23, 3	@ Tag_ABI_FP_number_model
   7              		.eabi_attribute 24, 1	@ Tag_ABI_align8_needed
   8              		.eabi_attribute 25, 1	@ Tag_ABI_align8_preserved
   9              		.eabi_attribute 26, 1	@ Tag_ABI_enum_size
  10              		.eabi_attribute 30, 6	@ Tag_ABI_optimization_goals
  11              		.eabi_attribute 34, 1	@ Tag_CPU_unaligned_access
  12              		.eabi_attribute 18, 4	@ Tag_ABI_PCS_wchar_t
  13              		.file	"usbd_cdc_if_template.cpp"
  14              	@ GNU C++ (GNU Tools for ARM Embedded Processors) version 4.7.3 20130312 (release) [ARM/embedded-4_
  15              	@	compiled by GNU C version 4.3.6, GMP version 4.3.2, MPFR version 2.4.2, MPC version 0.8.1
  16              	@ GGC heuristics: --param ggc-min-expand=100 --param ggc-min-heapsize=131072
  17              	@ options passed:  -I . -I Src -I hdr -I Inc -I Middlewares
  18              	@ -I Middlewares/ST -I Middlewares/ST/STM32_USB_Device_Library/Class/CDC
  19              	@ -I Middlewares/ST/STM32_USB_Device_Library/Core -I Drivers
  20              	@ -I Drivers/CMSIS -I Drivers/CMSIS/Device/ST/STM32L1xx
  21              	@ -I Drivers/CMSIS/Include -I Drivers/STM32L1xx_HAL_Driver
  22              	@ -imultilib armv7-m
  23              	@ -iprefix /home/maciek/gcc-arm-none-eabi/gcc-arm-none-eabi-4_7-2013q1/bin/../lib/gcc/arm-none-eabi
  24              	@ -isysroot /home/maciek/gcc-arm-none-eabi/gcc-arm-none-eabi-4_7-2013q1/bin/../arm-none-eabi
  25              	@ -MD out/usbd_cdc_if_template.d -MF out/usbd_cdc_if_template.d -MP
  26              	@ -MQ out/usbd_cdc_if_template.o -D__USES_INITFINI__ -D STM32L1XX_MD
  27              	@ Middlewares/ST/STM32_USB_Device_Library/Class/CDC/usbd_cdc_if_template.cpp
  28              	@ -mcpu=cortex-m3 -mthumb -auxbase-strip out/usbd_cdc_if_template.o -g
  29              	@ -ggdb3 -O0 -Wall -Wextra -std=gnu++11 -ffunction-sections -fdata-sections
  30              	@ -fno-rtti -fno-exceptions -fverbose-asm
  31              	@ options enabled:  -fauto-inc-dec -fbranch-count-reg -fcommon
  32              	@ -fdata-sections -fdebug-types-section -fdelete-null-pointer-checks
  33              	@ -fdwarf2-cfi-asm -fearly-inlining -feliminate-unused-debug-types
  34              	@ -ffunction-cse -ffunction-sections -fgcse-lm -fgnu-runtime -fident
  35              	@ -finline-atomics -fira-share-save-slots -fira-share-spill-slots -fivopts
  36              	@ -fkeep-static-consts -fleading-underscore -fmath-errno
  37              	@ -fmerge-debug-strings -fmove-loop-invariants -fpeephole
  38              	@ -fprefetch-loop-arrays -freg-struct-return
  39              	@ -fsched-critical-path-heuristic -fsched-dep-count-heuristic
  40              	@ -fsched-group-heuristic -fsched-interblock -fsched-last-insn-heuristic
  41              	@ -fsched-rank-heuristic -fsched-spec -fsched-spec-insn-heuristic
  42              	@ -fsched-stalled-insns-dep -fshow-column -fsigned-zeros
  43              	@ -fsplit-ivs-in-unroller -fstrict-volatile-bitfields -ftrapping-math
  44              	@ -ftree-cselim -ftree-forwprop -ftree-loop-if-convert -ftree-loop-im
  45              	@ -ftree-loop-ivcanon -ftree-loop-optimize -ftree-parallelize-loops=
  46              	@ -ftree-phiprop -ftree-pta -ftree-reassoc -ftree-scev-cprop
  47              	@ -ftree-slp-vectorize -ftree-vect-loop-version -funit-at-a-time
  48              	@ -fverbose-asm -fzero-initialized-in-bss -mfix-cortex-m3-ldrd
  49              	@ -mlittle-endian -msched-prolog -mthumb -munaligned-access
  50              	@ -mvectorize-with-neon-quad
  51              	
  52              		.text
  53              	.Ltext0:
  54              		.cfi_sections	.debug_frame
  55              		.global	USBD_CDC_Template_fops
  56              		.section	.data.USBD_CDC_Template_fops,"aw",%progbits
  57              		.align	2
ARM GAS  /tmp/ccdGXLxk.s 			page 2


  58              		.type	USBD_CDC_Template_fops, %object
  59              		.size	USBD_CDC_Template_fops, 16
  60              	USBD_CDC_Template_fops:
  61              	@ Init:
  62 0000 00000000 		.word	_ZL13TEMPLATE_Initv
  63              	@ DeInit:
  64 0004 00000000 		.word	_ZL15TEMPLATE_DeInitv
  65              	@ Control:
  66 0008 00000000 		.word	_ZL16TEMPLATE_ControlhPht
  67              	@ Receive:
  68 000c 00000000 		.word	_ZL16TEMPLATE_ReceivePhPm
  69              		.global	linecoding
  70              		.section	.data.linecoding,"aw",%progbits
  71              		.align	2
  72              		.type	linecoding, %object
  73              		.size	linecoding, 8
  74              	linecoding:
  75              	@ bitrate:
  76 0000 00C20100 		.word	115200
  77              	@ format:
  78 0004 00       		.byte	0
  79              	@ paritytype:
  80 0005 00       		.byte	0
  81              	@ datatype:
  82 0006 08       		.byte	8
  83 0007 00       		.space	1
  84              		.section	.text._ZL13TEMPLATE_Initv,"ax",%progbits
  85              		.align	2
  86              		.thumb
  87              		.thumb_func
  88              		.type	_ZL13TEMPLATE_Initv, %function
  89              	_ZL13TEMPLATE_Initv:
  90              	.LFB56:
  91              		.file 1 "Middlewares/ST/STM32_USB_Device_Library/Class/CDC/usbd_cdc_if_template.cpp"
   1:Middlewares/ST/STM32_USB_Device_Library/Class/CDC/usbd_cdc_if_template.cpp **** /**
   2:Middlewares/ST/STM32_USB_Device_Library/Class/CDC/usbd_cdc_if_template.cpp ****   ******************************************************************************
   3:Middlewares/ST/STM32_USB_Device_Library/Class/CDC/usbd_cdc_if_template.cpp ****   * @file    usbd_cdc_if_template.c
   4:Middlewares/ST/STM32_USB_Device_Library/Class/CDC/usbd_cdc_if_template.cpp ****   * @author  MCD Application Team
   5:Middlewares/ST/STM32_USB_Device_Library/Class/CDC/usbd_cdc_if_template.cpp ****   * @version V2.2.0
   6:Middlewares/ST/STM32_USB_Device_Library/Class/CDC/usbd_cdc_if_template.cpp ****   * @date    13-June-2014
   7:Middlewares/ST/STM32_USB_Device_Library/Class/CDC/usbd_cdc_if_template.cpp ****   * @brief   Generic media access Layer.
   8:Middlewares/ST/STM32_USB_Device_Library/Class/CDC/usbd_cdc_if_template.cpp ****   ******************************************************************************
   9:Middlewares/ST/STM32_USB_Device_Library/Class/CDC/usbd_cdc_if_template.cpp ****   * @attention
  10:Middlewares/ST/STM32_USB_Device_Library/Class/CDC/usbd_cdc_if_template.cpp ****   *
  11:Middlewares/ST/STM32_USB_Device_Library/Class/CDC/usbd_cdc_if_template.cpp ****   * <h2><center>&copy; COPYRIGHT 2014 STMicroelectronics</center></h2>
  12:Middlewares/ST/STM32_USB_Device_Library/Class/CDC/usbd_cdc_if_template.cpp ****   *
  13:Middlewares/ST/STM32_USB_Device_Library/Class/CDC/usbd_cdc_if_template.cpp ****   * Licensed under MCD-ST Liberty SW License Agreement V2, (the "License");
  14:Middlewares/ST/STM32_USB_Device_Library/Class/CDC/usbd_cdc_if_template.cpp ****   * You may not use this file except in compliance with the License.
  15:Middlewares/ST/STM32_USB_Device_Library/Class/CDC/usbd_cdc_if_template.cpp ****   * You may obtain a copy of the License at:
  16:Middlewares/ST/STM32_USB_Device_Library/Class/CDC/usbd_cdc_if_template.cpp ****   *
  17:Middlewares/ST/STM32_USB_Device_Library/Class/CDC/usbd_cdc_if_template.cpp ****   *        http://www.st.com/software_license_agreement_liberty_v2
  18:Middlewares/ST/STM32_USB_Device_Library/Class/CDC/usbd_cdc_if_template.cpp ****   *
  19:Middlewares/ST/STM32_USB_Device_Library/Class/CDC/usbd_cdc_if_template.cpp ****   * Unless required by applicable law or agreed to in writing, software 
  20:Middlewares/ST/STM32_USB_Device_Library/Class/CDC/usbd_cdc_if_template.cpp ****   * distributed under the License is distributed on an "AS IS" BASIS, 
  21:Middlewares/ST/STM32_USB_Device_Library/Class/CDC/usbd_cdc_if_template.cpp ****   * WITHOUT WARRANTIES OR CONDITIONS OF ANY KIND, either express or implied.
  22:Middlewares/ST/STM32_USB_Device_Library/Class/CDC/usbd_cdc_if_template.cpp ****   * See the License for the specific language governing permissions and
  23:Middlewares/ST/STM32_USB_Device_Library/Class/CDC/usbd_cdc_if_template.cpp ****   * limitations under the License.
ARM GAS  /tmp/ccdGXLxk.s 			page 3


  24:Middlewares/ST/STM32_USB_Device_Library/Class/CDC/usbd_cdc_if_template.cpp ****   *
  25:Middlewares/ST/STM32_USB_Device_Library/Class/CDC/usbd_cdc_if_template.cpp ****   ******************************************************************************
  26:Middlewares/ST/STM32_USB_Device_Library/Class/CDC/usbd_cdc_if_template.cpp ****   */ 
  27:Middlewares/ST/STM32_USB_Device_Library/Class/CDC/usbd_cdc_if_template.cpp **** 
  28:Middlewares/ST/STM32_USB_Device_Library/Class/CDC/usbd_cdc_if_template.cpp **** /* Includes ------------------------------------------------------------------*/
  29:Middlewares/ST/STM32_USB_Device_Library/Class/CDC/usbd_cdc_if_template.cpp **** #include "usbd_cdc_if_template.h"
  30:Middlewares/ST/STM32_USB_Device_Library/Class/CDC/usbd_cdc_if_template.cpp **** 
  31:Middlewares/ST/STM32_USB_Device_Library/Class/CDC/usbd_cdc_if_template.cpp **** /** @addtogroup STM32_USB_DEVICE_LIBRARY
  32:Middlewares/ST/STM32_USB_Device_Library/Class/CDC/usbd_cdc_if_template.cpp ****   * @{
  33:Middlewares/ST/STM32_USB_Device_Library/Class/CDC/usbd_cdc_if_template.cpp ****   */
  34:Middlewares/ST/STM32_USB_Device_Library/Class/CDC/usbd_cdc_if_template.cpp **** 
  35:Middlewares/ST/STM32_USB_Device_Library/Class/CDC/usbd_cdc_if_template.cpp **** 
  36:Middlewares/ST/STM32_USB_Device_Library/Class/CDC/usbd_cdc_if_template.cpp **** /** @defgroup USBD_CDC 
  37:Middlewares/ST/STM32_USB_Device_Library/Class/CDC/usbd_cdc_if_template.cpp ****   * @brief usbd core module
  38:Middlewares/ST/STM32_USB_Device_Library/Class/CDC/usbd_cdc_if_template.cpp ****   * @{
  39:Middlewares/ST/STM32_USB_Device_Library/Class/CDC/usbd_cdc_if_template.cpp ****   */ 
  40:Middlewares/ST/STM32_USB_Device_Library/Class/CDC/usbd_cdc_if_template.cpp **** 
  41:Middlewares/ST/STM32_USB_Device_Library/Class/CDC/usbd_cdc_if_template.cpp **** /** @defgroup USBD_CDC_Private_TypesDefinitions
  42:Middlewares/ST/STM32_USB_Device_Library/Class/CDC/usbd_cdc_if_template.cpp ****   * @{
  43:Middlewares/ST/STM32_USB_Device_Library/Class/CDC/usbd_cdc_if_template.cpp ****   */ 
  44:Middlewares/ST/STM32_USB_Device_Library/Class/CDC/usbd_cdc_if_template.cpp **** /**
  45:Middlewares/ST/STM32_USB_Device_Library/Class/CDC/usbd_cdc_if_template.cpp ****   * @}
  46:Middlewares/ST/STM32_USB_Device_Library/Class/CDC/usbd_cdc_if_template.cpp ****   */ 
  47:Middlewares/ST/STM32_USB_Device_Library/Class/CDC/usbd_cdc_if_template.cpp **** 
  48:Middlewares/ST/STM32_USB_Device_Library/Class/CDC/usbd_cdc_if_template.cpp **** 
  49:Middlewares/ST/STM32_USB_Device_Library/Class/CDC/usbd_cdc_if_template.cpp **** /** @defgroup USBD_CDC_Private_Defines
  50:Middlewares/ST/STM32_USB_Device_Library/Class/CDC/usbd_cdc_if_template.cpp ****   * @{
  51:Middlewares/ST/STM32_USB_Device_Library/Class/CDC/usbd_cdc_if_template.cpp ****   */ 
  52:Middlewares/ST/STM32_USB_Device_Library/Class/CDC/usbd_cdc_if_template.cpp **** /**
  53:Middlewares/ST/STM32_USB_Device_Library/Class/CDC/usbd_cdc_if_template.cpp ****   * @}
  54:Middlewares/ST/STM32_USB_Device_Library/Class/CDC/usbd_cdc_if_template.cpp ****   */ 
  55:Middlewares/ST/STM32_USB_Device_Library/Class/CDC/usbd_cdc_if_template.cpp **** 
  56:Middlewares/ST/STM32_USB_Device_Library/Class/CDC/usbd_cdc_if_template.cpp **** 
  57:Middlewares/ST/STM32_USB_Device_Library/Class/CDC/usbd_cdc_if_template.cpp **** /** @defgroup USBD_CDC_Private_Macros
  58:Middlewares/ST/STM32_USB_Device_Library/Class/CDC/usbd_cdc_if_template.cpp ****   * @{
  59:Middlewares/ST/STM32_USB_Device_Library/Class/CDC/usbd_cdc_if_template.cpp ****   */ 
  60:Middlewares/ST/STM32_USB_Device_Library/Class/CDC/usbd_cdc_if_template.cpp **** 
  61:Middlewares/ST/STM32_USB_Device_Library/Class/CDC/usbd_cdc_if_template.cpp **** /**
  62:Middlewares/ST/STM32_USB_Device_Library/Class/CDC/usbd_cdc_if_template.cpp ****   * @}
  63:Middlewares/ST/STM32_USB_Device_Library/Class/CDC/usbd_cdc_if_template.cpp ****   */ 
  64:Middlewares/ST/STM32_USB_Device_Library/Class/CDC/usbd_cdc_if_template.cpp **** 
  65:Middlewares/ST/STM32_USB_Device_Library/Class/CDC/usbd_cdc_if_template.cpp **** 
  66:Middlewares/ST/STM32_USB_Device_Library/Class/CDC/usbd_cdc_if_template.cpp **** /** @defgroup USBD_CDC_Private_FunctionPrototypes
  67:Middlewares/ST/STM32_USB_Device_Library/Class/CDC/usbd_cdc_if_template.cpp ****   * @{
  68:Middlewares/ST/STM32_USB_Device_Library/Class/CDC/usbd_cdc_if_template.cpp ****   */
  69:Middlewares/ST/STM32_USB_Device_Library/Class/CDC/usbd_cdc_if_template.cpp **** 
  70:Middlewares/ST/STM32_USB_Device_Library/Class/CDC/usbd_cdc_if_template.cpp **** static int8_t TEMPLATE_Init     (void);
  71:Middlewares/ST/STM32_USB_Device_Library/Class/CDC/usbd_cdc_if_template.cpp **** static int8_t TEMPLATE_DeInit   (void);
  72:Middlewares/ST/STM32_USB_Device_Library/Class/CDC/usbd_cdc_if_template.cpp **** static int8_t TEMPLATE_Control  (uint8_t cmd, uint8_t* pbuf, uint16_t length);
  73:Middlewares/ST/STM32_USB_Device_Library/Class/CDC/usbd_cdc_if_template.cpp **** static int8_t TEMPLATE_Receive  (uint8_t* pbuf, uint32_t *Len);
  74:Middlewares/ST/STM32_USB_Device_Library/Class/CDC/usbd_cdc_if_template.cpp **** 
  75:Middlewares/ST/STM32_USB_Device_Library/Class/CDC/usbd_cdc_if_template.cpp **** USBD_CDC_ItfTypeDef USBD_CDC_Template_fops = 
  76:Middlewares/ST/STM32_USB_Device_Library/Class/CDC/usbd_cdc_if_template.cpp **** {
  77:Middlewares/ST/STM32_USB_Device_Library/Class/CDC/usbd_cdc_if_template.cpp ****   TEMPLATE_Init,
  78:Middlewares/ST/STM32_USB_Device_Library/Class/CDC/usbd_cdc_if_template.cpp ****   TEMPLATE_DeInit,
  79:Middlewares/ST/STM32_USB_Device_Library/Class/CDC/usbd_cdc_if_template.cpp ****   TEMPLATE_Control,
  80:Middlewares/ST/STM32_USB_Device_Library/Class/CDC/usbd_cdc_if_template.cpp ****   TEMPLATE_Receive
ARM GAS  /tmp/ccdGXLxk.s 			page 4


  81:Middlewares/ST/STM32_USB_Device_Library/Class/CDC/usbd_cdc_if_template.cpp **** };
  82:Middlewares/ST/STM32_USB_Device_Library/Class/CDC/usbd_cdc_if_template.cpp **** 
  83:Middlewares/ST/STM32_USB_Device_Library/Class/CDC/usbd_cdc_if_template.cpp **** USBD_CDC_LineCodingTypeDef linecoding =
  84:Middlewares/ST/STM32_USB_Device_Library/Class/CDC/usbd_cdc_if_template.cpp ****   {
  85:Middlewares/ST/STM32_USB_Device_Library/Class/CDC/usbd_cdc_if_template.cpp ****     115200, /* baud rate*/
  86:Middlewares/ST/STM32_USB_Device_Library/Class/CDC/usbd_cdc_if_template.cpp ****     0x00,   /* stop bits-1*/
  87:Middlewares/ST/STM32_USB_Device_Library/Class/CDC/usbd_cdc_if_template.cpp ****     0x00,   /* parity - none*/
  88:Middlewares/ST/STM32_USB_Device_Library/Class/CDC/usbd_cdc_if_template.cpp ****     0x08    /* nb. of bits 8*/
  89:Middlewares/ST/STM32_USB_Device_Library/Class/CDC/usbd_cdc_if_template.cpp ****   };
  90:Middlewares/ST/STM32_USB_Device_Library/Class/CDC/usbd_cdc_if_template.cpp **** 
  91:Middlewares/ST/STM32_USB_Device_Library/Class/CDC/usbd_cdc_if_template.cpp **** /* Private functions ---------------------------------------------------------*/
  92:Middlewares/ST/STM32_USB_Device_Library/Class/CDC/usbd_cdc_if_template.cpp **** 
  93:Middlewares/ST/STM32_USB_Device_Library/Class/CDC/usbd_cdc_if_template.cpp **** /**
  94:Middlewares/ST/STM32_USB_Device_Library/Class/CDC/usbd_cdc_if_template.cpp ****   * @brief  TEMPLATE_Init
  95:Middlewares/ST/STM32_USB_Device_Library/Class/CDC/usbd_cdc_if_template.cpp ****   *         Initializes the CDC media low layer
  96:Middlewares/ST/STM32_USB_Device_Library/Class/CDC/usbd_cdc_if_template.cpp ****   * @param  None
  97:Middlewares/ST/STM32_USB_Device_Library/Class/CDC/usbd_cdc_if_template.cpp ****   * @retval Result of the opeartion: USBD_OK if all operations are OK else USBD_FAIL
  98:Middlewares/ST/STM32_USB_Device_Library/Class/CDC/usbd_cdc_if_template.cpp ****   */
  99:Middlewares/ST/STM32_USB_Device_Library/Class/CDC/usbd_cdc_if_template.cpp **** static int8_t TEMPLATE_Init(void)
 100:Middlewares/ST/STM32_USB_Device_Library/Class/CDC/usbd_cdc_if_template.cpp **** {
  92              		.loc 1 100 0
  93              		.cfi_startproc
  94              		@ args = 0, pretend = 0, frame = 0
  95              		@ frame_needed = 1, uses_anonymous_args = 0
  96              		@ link register save eliminated.
  97 0000 80B4     		push	{r7}	@
  98              	.LCFI0:
  99              		.cfi_def_cfa_offset 4
 100              		.cfi_offset 7, -4
 101 0002 00AF     		add	r7, sp, #0	@,,
 102              	.LCFI1:
 103              		.cfi_def_cfa_register 7
 101:Middlewares/ST/STM32_USB_Device_Library/Class/CDC/usbd_cdc_if_template.cpp ****   /*
 102:Middlewares/ST/STM32_USB_Device_Library/Class/CDC/usbd_cdc_if_template.cpp ****      Add your initialization code here 
 103:Middlewares/ST/STM32_USB_Device_Library/Class/CDC/usbd_cdc_if_template.cpp ****   */  
 104:Middlewares/ST/STM32_USB_Device_Library/Class/CDC/usbd_cdc_if_template.cpp ****   return (0);
 104              		.loc 1 104 0
 105 0004 4FF00003 		mov	r3, #0	@ D.7692,
 106 0008 5BB2     		sxtb	r3, r3	@ tmp137, D.7692
 105:Middlewares/ST/STM32_USB_Device_Library/Class/CDC/usbd_cdc_if_template.cpp **** }
 107              		.loc 1 105 0
 108 000a 1846     		mov	r0, r3	@, <retval>
 109 000c BD46     		mov	sp, r7
 110 000e 80BC     		pop	{r7}
 111 0010 7047     		bx	lr
 112              		.cfi_endproc
 113              	.LFE56:
 114              		.size	_ZL13TEMPLATE_Initv, .-_ZL13TEMPLATE_Initv
 115 0012 00BF     		.section	.text._ZL15TEMPLATE_DeInitv,"ax",%progbits
 116              		.align	2
 117              		.thumb
 118              		.thumb_func
 119              		.type	_ZL15TEMPLATE_DeInitv, %function
 120              	_ZL15TEMPLATE_DeInitv:
 121              	.LFB57:
 106:Middlewares/ST/STM32_USB_Device_Library/Class/CDC/usbd_cdc_if_template.cpp **** 
 107:Middlewares/ST/STM32_USB_Device_Library/Class/CDC/usbd_cdc_if_template.cpp **** /**
ARM GAS  /tmp/ccdGXLxk.s 			page 5


 108:Middlewares/ST/STM32_USB_Device_Library/Class/CDC/usbd_cdc_if_template.cpp ****   * @brief  TEMPLATE_DeInit
 109:Middlewares/ST/STM32_USB_Device_Library/Class/CDC/usbd_cdc_if_template.cpp ****   *         DeInitializes the CDC media low layer
 110:Middlewares/ST/STM32_USB_Device_Library/Class/CDC/usbd_cdc_if_template.cpp ****   * @param  None
 111:Middlewares/ST/STM32_USB_Device_Library/Class/CDC/usbd_cdc_if_template.cpp ****   * @retval Result of the opeartion: USBD_OK if all operations are OK else USBD_FAIL
 112:Middlewares/ST/STM32_USB_Device_Library/Class/CDC/usbd_cdc_if_template.cpp ****   */
 113:Middlewares/ST/STM32_USB_Device_Library/Class/CDC/usbd_cdc_if_template.cpp **** static int8_t TEMPLATE_DeInit(void)
 114:Middlewares/ST/STM32_USB_Device_Library/Class/CDC/usbd_cdc_if_template.cpp **** {
 122              		.loc 1 114 0
 123              		.cfi_startproc
 124              		@ args = 0, pretend = 0, frame = 0
 125              		@ frame_needed = 1, uses_anonymous_args = 0
 126              		@ link register save eliminated.
 127 0000 80B4     		push	{r7}	@
 128              	.LCFI2:
 129              		.cfi_def_cfa_offset 4
 130              		.cfi_offset 7, -4
 131 0002 00AF     		add	r7, sp, #0	@,,
 132              	.LCFI3:
 133              		.cfi_def_cfa_register 7
 115:Middlewares/ST/STM32_USB_Device_Library/Class/CDC/usbd_cdc_if_template.cpp ****   /*
 116:Middlewares/ST/STM32_USB_Device_Library/Class/CDC/usbd_cdc_if_template.cpp ****      Add your deinitialization code here 
 117:Middlewares/ST/STM32_USB_Device_Library/Class/CDC/usbd_cdc_if_template.cpp ****   */  
 118:Middlewares/ST/STM32_USB_Device_Library/Class/CDC/usbd_cdc_if_template.cpp ****   return (0);
 134              		.loc 1 118 0
 135 0004 4FF00003 		mov	r3, #0	@ D.7690,
 136 0008 5BB2     		sxtb	r3, r3	@ tmp137, D.7690
 119:Middlewares/ST/STM32_USB_Device_Library/Class/CDC/usbd_cdc_if_template.cpp **** }
 137              		.loc 1 119 0
 138 000a 1846     		mov	r0, r3	@, <retval>
 139 000c BD46     		mov	sp, r7
 140 000e 80BC     		pop	{r7}
 141 0010 7047     		bx	lr
 142              		.cfi_endproc
 143              	.LFE57:
 144              		.size	_ZL15TEMPLATE_DeInitv, .-_ZL15TEMPLATE_DeInitv
 145 0012 00BF     		.section	.text._ZL16TEMPLATE_ControlhPht,"ax",%progbits
 146              		.align	2
 147              		.thumb
 148              		.thumb_func
 149              		.type	_ZL16TEMPLATE_ControlhPht, %function
 150              	_ZL16TEMPLATE_ControlhPht:
 151              	.LFB58:
 120:Middlewares/ST/STM32_USB_Device_Library/Class/CDC/usbd_cdc_if_template.cpp **** 
 121:Middlewares/ST/STM32_USB_Device_Library/Class/CDC/usbd_cdc_if_template.cpp **** 
 122:Middlewares/ST/STM32_USB_Device_Library/Class/CDC/usbd_cdc_if_template.cpp **** /**
 123:Middlewares/ST/STM32_USB_Device_Library/Class/CDC/usbd_cdc_if_template.cpp ****   * @brief  TEMPLATE_Control
 124:Middlewares/ST/STM32_USB_Device_Library/Class/CDC/usbd_cdc_if_template.cpp ****   *         Manage the CDC class requests
 125:Middlewares/ST/STM32_USB_Device_Library/Class/CDC/usbd_cdc_if_template.cpp ****   * @param  Cmd: Command code            
 126:Middlewares/ST/STM32_USB_Device_Library/Class/CDC/usbd_cdc_if_template.cpp ****   * @param  Buf: Buffer containing command data (request parameters)
 127:Middlewares/ST/STM32_USB_Device_Library/Class/CDC/usbd_cdc_if_template.cpp ****   * @param  Len: Number of data to be sent (in bytes)
 128:Middlewares/ST/STM32_USB_Device_Library/Class/CDC/usbd_cdc_if_template.cpp ****   * @retval Result of the opeartion: USBD_OK if all operations are OK else USBD_FAIL
 129:Middlewares/ST/STM32_USB_Device_Library/Class/CDC/usbd_cdc_if_template.cpp ****   */
 130:Middlewares/ST/STM32_USB_Device_Library/Class/CDC/usbd_cdc_if_template.cpp **** static int8_t TEMPLATE_Control  (uint8_t cmd, uint8_t* pbuf, uint16_t length)
 131:Middlewares/ST/STM32_USB_Device_Library/Class/CDC/usbd_cdc_if_template.cpp **** { 
 152              		.loc 1 131 0
 153              		.cfi_startproc
 154              		@ args = 0, pretend = 0, frame = 8
ARM GAS  /tmp/ccdGXLxk.s 			page 6


 155              		@ frame_needed = 1, uses_anonymous_args = 0
 156              		@ link register save eliminated.
 157 0000 80B4     		push	{r7}	@
 158              	.LCFI4:
 159              		.cfi_def_cfa_offset 4
 160              		.cfi_offset 7, -4
 161 0002 83B0     		sub	sp, sp, #12	@,,
 162              	.LCFI5:
 163              		.cfi_def_cfa_offset 16
 164 0004 00AF     		add	r7, sp, #0	@,,
 165              	.LCFI6:
 166              		.cfi_def_cfa_register 7
 167 0006 3960     		str	r1, [r7, #0]	@ pbuf, pbuf
 168 0008 1346     		mov	r3, r2	@ tmp180, length
 169 000a 0246     		mov	r2, r0	@ tmp179, tmp178
 170 000c FA71     		strb	r2, [r7, #7]	@ tmp179, cmd
 171 000e BB80     		strh	r3, [r7, #4]	@ movhi	@ tmp181, length
 132:Middlewares/ST/STM32_USB_Device_Library/Class/CDC/usbd_cdc_if_template.cpp ****   switch (cmd)
 172              		.loc 1 132 0
 173 0010 FB79     		ldrb	r3, [r7, #7]	@ zero_extendqisi2	@ D.7646, cmd
 174 0012 232B     		cmp	r3, #35	@ D.7646,
 175 0014 00F2C880 		bhi	.L19	@
 176 0018 01A2     		adr	r2, .L16	@,
 177 001a 52F823F0 		ldr	pc, [r2, r3, lsl #2]	@, D.7646
 178 001e 00BF     		.align	2
 179              	.L16:
 180 0020 A9010000 		.word	.L19+1
 181 0024 A9010000 		.word	.L19+1
 182 0028 A9010000 		.word	.L19+1
 183 002c A9010000 		.word	.L19+1
 184 0030 A9010000 		.word	.L19+1
 185 0034 A9010000 		.word	.L19+1
 186 0038 A9010000 		.word	.L19+1
 187 003c A9010000 		.word	.L19+1
 188 0040 A9010000 		.word	.L19+1
 189 0044 A9010000 		.word	.L19+1
 190 0048 A9010000 		.word	.L19+1
 191 004c A9010000 		.word	.L19+1
 192 0050 A9010000 		.word	.L19+1
 193 0054 A9010000 		.word	.L19+1
 194 0058 A9010000 		.word	.L19+1
 195 005c A9010000 		.word	.L19+1
 196 0060 A9010000 		.word	.L19+1
 197 0064 A9010000 		.word	.L19+1
 198 0068 A9010000 		.word	.L19+1
 199 006c A9010000 		.word	.L19+1
 200 0070 A9010000 		.word	.L19+1
 201 0074 A9010000 		.word	.L19+1
 202 0078 A9010000 		.word	.L19+1
 203 007c A9010000 		.word	.L19+1
 204 0080 A9010000 		.word	.L19+1
 205 0084 A9010000 		.word	.L19+1
 206 0088 A9010000 		.word	.L19+1
 207 008c A9010000 		.word	.L19+1
 208 0090 A9010000 		.word	.L19+1
 209 0094 A9010000 		.word	.L19+1
 210 0098 A9010000 		.word	.L19+1
ARM GAS  /tmp/ccdGXLxk.s 			page 7


 211 009c A9010000 		.word	.L19+1
 212 00a0 B1000000 		.word	.L12+1
 213 00a4 19010000 		.word	.L13+1
 214 00a8 A9010000 		.word	.L19+1
 215 00ac A9010000 		.word	.L19+1
 216              	.L12:
 133:Middlewares/ST/STM32_USB_Device_Library/Class/CDC/usbd_cdc_if_template.cpp ****   {
 134:Middlewares/ST/STM32_USB_Device_Library/Class/CDC/usbd_cdc_if_template.cpp ****   case CDC_SEND_ENCAPSULATED_COMMAND:
 135:Middlewares/ST/STM32_USB_Device_Library/Class/CDC/usbd_cdc_if_template.cpp ****     /* Add your code here */
 136:Middlewares/ST/STM32_USB_Device_Library/Class/CDC/usbd_cdc_if_template.cpp ****     break;
 137:Middlewares/ST/STM32_USB_Device_Library/Class/CDC/usbd_cdc_if_template.cpp **** 
 138:Middlewares/ST/STM32_USB_Device_Library/Class/CDC/usbd_cdc_if_template.cpp ****   case CDC_GET_ENCAPSULATED_RESPONSE:
 139:Middlewares/ST/STM32_USB_Device_Library/Class/CDC/usbd_cdc_if_template.cpp ****     /* Add your code here */
 140:Middlewares/ST/STM32_USB_Device_Library/Class/CDC/usbd_cdc_if_template.cpp ****     break;
 141:Middlewares/ST/STM32_USB_Device_Library/Class/CDC/usbd_cdc_if_template.cpp **** 
 142:Middlewares/ST/STM32_USB_Device_Library/Class/CDC/usbd_cdc_if_template.cpp ****   case CDC_SET_COMM_FEATURE:
 143:Middlewares/ST/STM32_USB_Device_Library/Class/CDC/usbd_cdc_if_template.cpp ****     /* Add your code here */
 144:Middlewares/ST/STM32_USB_Device_Library/Class/CDC/usbd_cdc_if_template.cpp ****     break;
 145:Middlewares/ST/STM32_USB_Device_Library/Class/CDC/usbd_cdc_if_template.cpp **** 
 146:Middlewares/ST/STM32_USB_Device_Library/Class/CDC/usbd_cdc_if_template.cpp ****   case CDC_GET_COMM_FEATURE:
 147:Middlewares/ST/STM32_USB_Device_Library/Class/CDC/usbd_cdc_if_template.cpp ****     /* Add your code here */
 148:Middlewares/ST/STM32_USB_Device_Library/Class/CDC/usbd_cdc_if_template.cpp ****     break;
 149:Middlewares/ST/STM32_USB_Device_Library/Class/CDC/usbd_cdc_if_template.cpp **** 
 150:Middlewares/ST/STM32_USB_Device_Library/Class/CDC/usbd_cdc_if_template.cpp ****   case CDC_CLEAR_COMM_FEATURE:
 151:Middlewares/ST/STM32_USB_Device_Library/Class/CDC/usbd_cdc_if_template.cpp ****     /* Add your code here */
 152:Middlewares/ST/STM32_USB_Device_Library/Class/CDC/usbd_cdc_if_template.cpp ****     break;
 153:Middlewares/ST/STM32_USB_Device_Library/Class/CDC/usbd_cdc_if_template.cpp **** 
 154:Middlewares/ST/STM32_USB_Device_Library/Class/CDC/usbd_cdc_if_template.cpp ****   case CDC_SET_LINE_CODING:
 155:Middlewares/ST/STM32_USB_Device_Library/Class/CDC/usbd_cdc_if_template.cpp ****     linecoding.bitrate    = (uint32_t)(pbuf[0] | (pbuf[1] << 8) |\
 217              		.loc 1 155 0
 218 00b0 3B68     		ldr	r3, [r7, #0]	@ tmp182, pbuf
 219 00b2 1B78     		ldrb	r3, [r3, #0]	@ zero_extendqisi2	@ D.7647, *pbuf_3(D)
 156:Middlewares/ST/STM32_USB_Device_Library/Class/CDC/usbd_cdc_if_template.cpp ****                             (pbuf[2] << 16) | (pbuf[3] << 24));
 220              		.loc 1 156 0
 221 00b4 1A46     		mov	r2, r3	@ D.7648, D.7647
 155:Middlewares/ST/STM32_USB_Device_Library/Class/CDC/usbd_cdc_if_template.cpp ****     linecoding.bitrate    = (uint32_t)(pbuf[0] | (pbuf[1] << 8) |\
 222              		.loc 1 155 0
 223 00b6 3B68     		ldr	r3, [r7, #0]	@ tmp183, pbuf
 224 00b8 03F10103 		add	r3, r3, #1	@ D.7649, tmp183,
 225 00bc 1B78     		ldrb	r3, [r3, #0]	@ zero_extendqisi2	@ D.7650, *D.7649_6
 226              		.loc 1 156 0
 227 00be 4FEA0323 		lsl	r3, r3, #8	@ D.7652, D.7651,
 228 00c2 1A43     		orrs	r2, r2, r3	@, D.7653, D.7648, D.7652
 229 00c4 3B68     		ldr	r3, [r7, #0]	@ tmp184, pbuf
 230 00c6 03F10203 		add	r3, r3, #2	@ D.7654, tmp184,
 231 00ca 1B78     		ldrb	r3, [r3, #0]	@ zero_extendqisi2	@ D.7655, *D.7654_11
 232 00cc 4FEA0343 		lsl	r3, r3, #16	@ D.7657, D.7656,
 233 00d0 1A43     		orrs	r2, r2, r3	@, D.7658, D.7653, D.7657
 234 00d2 3B68     		ldr	r3, [r7, #0]	@ tmp185, pbuf
 235 00d4 03F10303 		add	r3, r3, #3	@ D.7659, tmp185,
 236 00d8 1B78     		ldrb	r3, [r3, #0]	@ zero_extendqisi2	@ D.7660, *D.7659_16
 237 00da 4FEA0363 		lsl	r3, r3, #24	@ D.7662, D.7661,
 238 00de 1343     		orrs	r3, r3, r2	@, D.7663, D.7662, D.7658
 239 00e0 1A46     		mov	r2, r3	@ D.7664, D.7663
 240 00e2 40F20003 		movw	r3, #:lower16:linecoding	@ tmp186,
 241 00e6 C0F20003 		movt	r3, #:upper16:linecoding	@ tmp186,
 242 00ea 1A60     		str	r2, [r3, #0]	@ D.7664, linecoding.bitrate
ARM GAS  /tmp/ccdGXLxk.s 			page 8


 157:Middlewares/ST/STM32_USB_Device_Library/Class/CDC/usbd_cdc_if_template.cpp ****     linecoding.format     = pbuf[4];
 243              		.loc 1 157 0
 244 00ec 3B68     		ldr	r3, [r7, #0]	@ tmp187, pbuf
 245 00ee 1A79     		ldrb	r2, [r3, #4]	@ zero_extendqisi2	@ D.7665, MEM[(uint8_t *)pbuf_3(D) + 4B]
 246 00f0 40F20003 		movw	r3, #:lower16:linecoding	@ tmp188,
 247 00f4 C0F20003 		movt	r3, #:upper16:linecoding	@ tmp188,
 248 00f8 1A71     		strb	r2, [r3, #4]	@ tmp189, linecoding.format
 158:Middlewares/ST/STM32_USB_Device_Library/Class/CDC/usbd_cdc_if_template.cpp ****     linecoding.paritytype = pbuf[5];
 249              		.loc 1 158 0
 250 00fa 3B68     		ldr	r3, [r7, #0]	@ tmp190, pbuf
 251 00fc 5A79     		ldrb	r2, [r3, #5]	@ zero_extendqisi2	@ D.7666, MEM[(uint8_t *)pbuf_3(D) + 5B]
 252 00fe 40F20003 		movw	r3, #:lower16:linecoding	@ tmp191,
 253 0102 C0F20003 		movt	r3, #:upper16:linecoding	@ tmp191,
 254 0106 5A71     		strb	r2, [r3, #5]	@ tmp192, linecoding.paritytype
 159:Middlewares/ST/STM32_USB_Device_Library/Class/CDC/usbd_cdc_if_template.cpp ****     linecoding.datatype   = pbuf[6];
 255              		.loc 1 159 0
 256 0108 3B68     		ldr	r3, [r7, #0]	@ tmp193, pbuf
 257 010a 9A79     		ldrb	r2, [r3, #6]	@ zero_extendqisi2	@ D.7667, MEM[(uint8_t *)pbuf_3(D) + 6B]
 258 010c 40F20003 		movw	r3, #:lower16:linecoding	@ tmp194,
 259 0110 C0F20003 		movt	r3, #:upper16:linecoding	@ tmp194,
 260 0114 9A71     		strb	r2, [r3, #6]	@ tmp195, linecoding.datatype
 160:Middlewares/ST/STM32_USB_Device_Library/Class/CDC/usbd_cdc_if_template.cpp ****     
 161:Middlewares/ST/STM32_USB_Device_Library/Class/CDC/usbd_cdc_if_template.cpp ****     /* Add your code here */
 162:Middlewares/ST/STM32_USB_Device_Library/Class/CDC/usbd_cdc_if_template.cpp ****     break;
 261              		.loc 1 162 0
 262 0116 48E0     		b	.L17	@
 263              	.L13:
 163:Middlewares/ST/STM32_USB_Device_Library/Class/CDC/usbd_cdc_if_template.cpp **** 
 164:Middlewares/ST/STM32_USB_Device_Library/Class/CDC/usbd_cdc_if_template.cpp ****   case CDC_GET_LINE_CODING:
 165:Middlewares/ST/STM32_USB_Device_Library/Class/CDC/usbd_cdc_if_template.cpp ****     pbuf[0] = (uint8_t)(linecoding.bitrate);
 264              		.loc 1 165 0
 265 0118 40F20003 		movw	r3, #:lower16:linecoding	@ tmp196,
 266 011c C0F20003 		movt	r3, #:upper16:linecoding	@ tmp196,
 267 0120 1B68     		ldr	r3, [r3, #0]	@ D.7668, linecoding.bitrate
 268 0122 DAB2     		uxtb	r2, r3	@ D.7669, D.7668
 269 0124 3B68     		ldr	r3, [r7, #0]	@ tmp197, pbuf
 270 0126 1A70     		strb	r2, [r3, #0]	@ tmp198, *pbuf_3(D)
 166:Middlewares/ST/STM32_USB_Device_Library/Class/CDC/usbd_cdc_if_template.cpp ****     pbuf[1] = (uint8_t)(linecoding.bitrate >> 8);
 271              		.loc 1 166 0
 272 0128 3B68     		ldr	r3, [r7, #0]	@ tmp199, pbuf
 273 012a 03F10102 		add	r2, r3, #1	@ D.7670, tmp199,
 274 012e 40F20003 		movw	r3, #:lower16:linecoding	@ tmp200,
 275 0132 C0F20003 		movt	r3, #:upper16:linecoding	@ tmp200,
 276 0136 1B68     		ldr	r3, [r3, #0]	@ D.7671, linecoding.bitrate
 277 0138 4FEA1323 		lsr	r3, r3, #8	@ D.7672, D.7671,
 278 013c DBB2     		uxtb	r3, r3	@ D.7673, D.7672
 279 013e 1370     		strb	r3, [r2, #0]	@ tmp201, *D.7670_27
 167:Middlewares/ST/STM32_USB_Device_Library/Class/CDC/usbd_cdc_if_template.cpp ****     pbuf[2] = (uint8_t)(linecoding.bitrate >> 16);
 280              		.loc 1 167 0
 281 0140 3B68     		ldr	r3, [r7, #0]	@ tmp202, pbuf
 282 0142 03F10202 		add	r2, r3, #2	@ D.7674, tmp202,
 283 0146 40F20003 		movw	r3, #:lower16:linecoding	@ tmp203,
 284 014a C0F20003 		movt	r3, #:upper16:linecoding	@ tmp203,
 285 014e 1B68     		ldr	r3, [r3, #0]	@ D.7675, linecoding.bitrate
 286 0150 4FEA1343 		lsr	r3, r3, #16	@ D.7676, D.7675,
 287 0154 DBB2     		uxtb	r3, r3	@ D.7677, D.7676
 288 0156 1370     		strb	r3, [r2, #0]	@ tmp204, *D.7674_31
ARM GAS  /tmp/ccdGXLxk.s 			page 9


 168:Middlewares/ST/STM32_USB_Device_Library/Class/CDC/usbd_cdc_if_template.cpp ****     pbuf[3] = (uint8_t)(linecoding.bitrate >> 24);
 289              		.loc 1 168 0
 290 0158 3B68     		ldr	r3, [r7, #0]	@ tmp205, pbuf
 291 015a 03F10302 		add	r2, r3, #3	@ D.7678, tmp205,
 292 015e 40F20003 		movw	r3, #:lower16:linecoding	@ tmp206,
 293 0162 C0F20003 		movt	r3, #:upper16:linecoding	@ tmp206,
 294 0166 1B68     		ldr	r3, [r3, #0]	@ D.7679, linecoding.bitrate
 295 0168 4FEA1363 		lsr	r3, r3, #24	@ D.7680, D.7679,
 296 016c DBB2     		uxtb	r3, r3	@ D.7681, D.7680
 297 016e 1370     		strb	r3, [r2, #0]	@ tmp207, *D.7678_35
 169:Middlewares/ST/STM32_USB_Device_Library/Class/CDC/usbd_cdc_if_template.cpp ****     pbuf[4] = linecoding.format;
 298              		.loc 1 169 0
 299 0170 3B68     		ldr	r3, [r7, #0]	@ tmp208, pbuf
 300 0172 03F10402 		add	r2, r3, #4	@ D.7682, tmp208,
 301 0176 40F20003 		movw	r3, #:lower16:linecoding	@ tmp209,
 302 017a C0F20003 		movt	r3, #:upper16:linecoding	@ tmp209,
 303 017e 1B79     		ldrb	r3, [r3, #4]	@ zero_extendqisi2	@ D.7683, linecoding.format
 304 0180 1370     		strb	r3, [r2, #0]	@ tmp210, *D.7682_39
 170:Middlewares/ST/STM32_USB_Device_Library/Class/CDC/usbd_cdc_if_template.cpp ****     pbuf[5] = linecoding.paritytype;
 305              		.loc 1 170 0
 306 0182 3B68     		ldr	r3, [r7, #0]	@ tmp211, pbuf
 307 0184 03F10502 		add	r2, r3, #5	@ D.7684, tmp211,
 308 0188 40F20003 		movw	r3, #:lower16:linecoding	@ tmp212,
 309 018c C0F20003 		movt	r3, #:upper16:linecoding	@ tmp212,
 310 0190 5B79     		ldrb	r3, [r3, #5]	@ zero_extendqisi2	@ D.7685, linecoding.paritytype
 311 0192 1370     		strb	r3, [r2, #0]	@ tmp213, *D.7684_41
 171:Middlewares/ST/STM32_USB_Device_Library/Class/CDC/usbd_cdc_if_template.cpp ****     pbuf[6] = linecoding.datatype;     
 312              		.loc 1 171 0
 313 0194 3B68     		ldr	r3, [r7, #0]	@ tmp214, pbuf
 314 0196 03F10602 		add	r2, r3, #6	@ D.7686, tmp214,
 315 019a 40F20003 		movw	r3, #:lower16:linecoding	@ tmp215,
 316 019e C0F20003 		movt	r3, #:upper16:linecoding	@ tmp215,
 317 01a2 9B79     		ldrb	r3, [r3, #6]	@ zero_extendqisi2	@ D.7687, linecoding.datatype
 318 01a4 1370     		strb	r3, [r2, #0]	@ tmp216, *D.7686_43
 172:Middlewares/ST/STM32_USB_Device_Library/Class/CDC/usbd_cdc_if_template.cpp ****     
 173:Middlewares/ST/STM32_USB_Device_Library/Class/CDC/usbd_cdc_if_template.cpp ****     /* Add your code here */
 174:Middlewares/ST/STM32_USB_Device_Library/Class/CDC/usbd_cdc_if_template.cpp ****     break;
 319              		.loc 1 174 0
 320 01a6 00E0     		b	.L17	@
 321              	.L19:
 175:Middlewares/ST/STM32_USB_Device_Library/Class/CDC/usbd_cdc_if_template.cpp **** 
 176:Middlewares/ST/STM32_USB_Device_Library/Class/CDC/usbd_cdc_if_template.cpp ****   case CDC_SET_CONTROL_LINE_STATE:
 177:Middlewares/ST/STM32_USB_Device_Library/Class/CDC/usbd_cdc_if_template.cpp ****     /* Add your code here */
 178:Middlewares/ST/STM32_USB_Device_Library/Class/CDC/usbd_cdc_if_template.cpp ****     break;
 179:Middlewares/ST/STM32_USB_Device_Library/Class/CDC/usbd_cdc_if_template.cpp **** 
 180:Middlewares/ST/STM32_USB_Device_Library/Class/CDC/usbd_cdc_if_template.cpp ****   case CDC_SEND_BREAK:
 181:Middlewares/ST/STM32_USB_Device_Library/Class/CDC/usbd_cdc_if_template.cpp ****      /* Add your code here */
 182:Middlewares/ST/STM32_USB_Device_Library/Class/CDC/usbd_cdc_if_template.cpp ****     break;    
 183:Middlewares/ST/STM32_USB_Device_Library/Class/CDC/usbd_cdc_if_template.cpp ****     
 184:Middlewares/ST/STM32_USB_Device_Library/Class/CDC/usbd_cdc_if_template.cpp ****   default:
 185:Middlewares/ST/STM32_USB_Device_Library/Class/CDC/usbd_cdc_if_template.cpp ****     break;
 322              		.loc 1 185 0
 323 01a8 00BF     		nop
 324              	.L17:
 186:Middlewares/ST/STM32_USB_Device_Library/Class/CDC/usbd_cdc_if_template.cpp ****   }
 187:Middlewares/ST/STM32_USB_Device_Library/Class/CDC/usbd_cdc_if_template.cpp **** 
 188:Middlewares/ST/STM32_USB_Device_Library/Class/CDC/usbd_cdc_if_template.cpp ****   return (0);
ARM GAS  /tmp/ccdGXLxk.s 			page 10


 325              		.loc 1 188 0
 326 01aa 4FF00003 		mov	r3, #0	@ D.7688,
 327 01ae 5BB2     		sxtb	r3, r3	@ tmp218, D.7688
 189:Middlewares/ST/STM32_USB_Device_Library/Class/CDC/usbd_cdc_if_template.cpp **** }
 328              		.loc 1 189 0
 329 01b0 1846     		mov	r0, r3	@, <retval>
 330 01b2 07F10C07 		add	r7, r7, #12	@,,
 331 01b6 BD46     		mov	sp, r7
 332 01b8 80BC     		pop	{r7}
 333 01ba 7047     		bx	lr
 334              		.cfi_endproc
 335              	.LFE58:
 336              		.size	_ZL16TEMPLATE_ControlhPht, .-_ZL16TEMPLATE_ControlhPht
 337              		.section	.text._ZL16TEMPLATE_ReceivePhPm,"ax",%progbits
 338              		.align	2
 339              		.thumb
 340              		.thumb_func
 341              		.type	_ZL16TEMPLATE_ReceivePhPm, %function
 342              	_ZL16TEMPLATE_ReceivePhPm:
 343              	.LFB59:
 190:Middlewares/ST/STM32_USB_Device_Library/Class/CDC/usbd_cdc_if_template.cpp **** 
 191:Middlewares/ST/STM32_USB_Device_Library/Class/CDC/usbd_cdc_if_template.cpp **** /**
 192:Middlewares/ST/STM32_USB_Device_Library/Class/CDC/usbd_cdc_if_template.cpp ****   * @brief  TEMPLATE_DataRx
 193:Middlewares/ST/STM32_USB_Device_Library/Class/CDC/usbd_cdc_if_template.cpp ****   *         Data received over USB OUT endpoint are sent over CDC interface 
 194:Middlewares/ST/STM32_USB_Device_Library/Class/CDC/usbd_cdc_if_template.cpp ****   *         through this function.
 195:Middlewares/ST/STM32_USB_Device_Library/Class/CDC/usbd_cdc_if_template.cpp ****   *           
 196:Middlewares/ST/STM32_USB_Device_Library/Class/CDC/usbd_cdc_if_template.cpp ****   *         @note
 197:Middlewares/ST/STM32_USB_Device_Library/Class/CDC/usbd_cdc_if_template.cpp ****   *         This function will block any OUT packet reception on USB endpoint 
 198:Middlewares/ST/STM32_USB_Device_Library/Class/CDC/usbd_cdc_if_template.cpp ****   *         untill exiting this function. If you exit this function before transfer
 199:Middlewares/ST/STM32_USB_Device_Library/Class/CDC/usbd_cdc_if_template.cpp ****   *         is complete on CDC interface (ie. using DMA controller) it will result 
 200:Middlewares/ST/STM32_USB_Device_Library/Class/CDC/usbd_cdc_if_template.cpp ****   *         in receiving more data while previous ones are still not sent.
 201:Middlewares/ST/STM32_USB_Device_Library/Class/CDC/usbd_cdc_if_template.cpp ****   *                 
 202:Middlewares/ST/STM32_USB_Device_Library/Class/CDC/usbd_cdc_if_template.cpp ****   * @param  Buf: Buffer of data to be received
 203:Middlewares/ST/STM32_USB_Device_Library/Class/CDC/usbd_cdc_if_template.cpp ****   * @param  Len: Number of data received (in bytes)
 204:Middlewares/ST/STM32_USB_Device_Library/Class/CDC/usbd_cdc_if_template.cpp ****   * @retval Result of the opeartion: USBD_OK if all operations are OK else USBD_FAIL
 205:Middlewares/ST/STM32_USB_Device_Library/Class/CDC/usbd_cdc_if_template.cpp ****   */
 206:Middlewares/ST/STM32_USB_Device_Library/Class/CDC/usbd_cdc_if_template.cpp **** static int8_t TEMPLATE_Receive (uint8_t* Buf, uint32_t *Len)
 207:Middlewares/ST/STM32_USB_Device_Library/Class/CDC/usbd_cdc_if_template.cpp **** {
 344              		.loc 1 207 0
 345              		.cfi_startproc
 346              		@ args = 0, pretend = 0, frame = 8
 347              		@ frame_needed = 1, uses_anonymous_args = 0
 348              		@ link register save eliminated.
 349 0000 80B4     		push	{r7}	@
 350              	.LCFI7:
 351              		.cfi_def_cfa_offset 4
 352              		.cfi_offset 7, -4
 353 0002 83B0     		sub	sp, sp, #12	@,,
 354              	.LCFI8:
 355              		.cfi_def_cfa_offset 16
 356 0004 00AF     		add	r7, sp, #0	@,,
 357              	.LCFI9:
 358              		.cfi_def_cfa_register 7
 359 0006 7860     		str	r0, [r7, #4]	@ Buf, Buf
 360 0008 3960     		str	r1, [r7, #0]	@ Len, Len
 208:Middlewares/ST/STM32_USB_Device_Library/Class/CDC/usbd_cdc_if_template.cpp ****  
 209:Middlewares/ST/STM32_USB_Device_Library/Class/CDC/usbd_cdc_if_template.cpp ****   return (0);
ARM GAS  /tmp/ccdGXLxk.s 			page 11


 361              		.loc 1 209 0
 362 000a 4FF00003 		mov	r3, #0	@ D.7643,
 363 000e 5BB2     		sxtb	r3, r3	@ tmp137, D.7643
 210:Middlewares/ST/STM32_USB_Device_Library/Class/CDC/usbd_cdc_if_template.cpp **** }
 364              		.loc 1 210 0
 365 0010 1846     		mov	r0, r3	@, <retval>
 366 0012 07F10C07 		add	r7, r7, #12	@,,
 367 0016 BD46     		mov	sp, r7
 368 0018 80BC     		pop	{r7}
 369 001a 7047     		bx	lr
 370              		.cfi_endproc
 371              	.LFE59:
 372              		.size	_ZL16TEMPLATE_ReceivePhPm, .-_ZL16TEMPLATE_ReceivePhPm
 373              		.text
 374              	.Letext0:
 375              		.file 2 "/home/maciek/gcc-arm-none-eabi/gcc-arm-none-eabi-4_7-2013q1/bin/../lib/gcc/arm-none-eabi/
 376              		.file 3 "Middlewares/ST/STM32_USB_Device_Library/Class/CDC/usbd_cdc.h"
 377              		.file 4 "Drivers/CMSIS/Include/core_cm3.h"