ARM GAS  /tmp/ccxt9WWh.s 			page 1


   1              		.syntax unified
   2              		.cpu cortex-m3
   3              		.fpu softvfp
   4              		.eabi_attribute 20, 1	@ Tag_ABI_FP_denormal
   5              		.eabi_attribute 21, 1	@ Tag_ABI_FP_exceptions
   6              		.eabi_attribute 23, 3	@ Tag_ABI_FP_number_model
   7              		.eabi_attribute 24, 1	@ Tag_ABI_align8_needed
   8              		.eabi_attribute 25, 1	@ Tag_ABI_align8_preserved
   9              		.eabi_attribute 26, 1	@ Tag_ABI_enum_size
  10              		.eabi_attribute 30, 6	@ Tag_ABI_optimization_goals
  11              		.eabi_attribute 34, 1	@ Tag_CPU_unaligned_access
  12              		.eabi_attribute 18, 4	@ Tag_ABI_PCS_wchar_t
  13              		.file	"usbd_cdc.cpp"
  14              	@ GNU C++ (GNU Tools for ARM Embedded Processors) version 4.7.3 20130312 (release) [ARM/embedded-4_
  15              	@	compiled by GNU C version 4.3.6, GMP version 4.3.2, MPFR version 2.4.2, MPC version 0.8.1
  16              	@ GGC heuristics: --param ggc-min-expand=100 --param ggc-min-heapsize=131072
  17              	@ options passed:  -I . -I Src -I hdr -I Inc -I Middlewares
  18              	@ -I Middlewares/ST -I Middlewares/ST/STM32_USB_Device_Library/Class/CDC
  19              	@ -I Middlewares/ST/STM32_USB_Device_Library/Core -I Drivers
  20              	@ -I Drivers/CMSIS -I Drivers/CMSIS/Device/ST/STM32L1xx
  21              	@ -I Drivers/CMSIS/Include -I Drivers/STM32L1xx_HAL_Driver
  22              	@ -imultilib armv7-m
  23              	@ -iprefix /home/maciek/gcc-arm-none-eabi/gcc-arm-none-eabi-4_7-2013q1/bin/../lib/gcc/arm-none-eabi
  24              	@ -isysroot /home/maciek/gcc-arm-none-eabi/gcc-arm-none-eabi-4_7-2013q1/bin/../arm-none-eabi
  25              	@ -MD out/usbd_cdc.d -MF out/usbd_cdc.d -MP -MQ out/usbd_cdc.o
  26              	@ -D__USES_INITFINI__ -D STM32L1XX_MD
  27              	@ Middlewares/ST/STM32_USB_Device_Library/Class/CDC/usbd_cdc.cpp
  28              	@ -mcpu=cortex-m3 -mthumb -auxbase-strip out/usbd_cdc.o -g -ggdb3 -O0 -Wall
  29              	@ -Wextra -std=gnu++11 -ffunction-sections -fdata-sections -fno-rtti
  30              	@ -fno-exceptions -fverbose-asm
  31              	@ options enabled:  -fauto-inc-dec -fbranch-count-reg -fcommon
  32              	@ -fdata-sections -fdebug-types-section -fdelete-null-pointer-checks
  33              	@ -fdwarf2-cfi-asm -fearly-inlining -feliminate-unused-debug-types
  34              	@ -ffunction-cse -ffunction-sections -fgcse-lm -fgnu-runtime -fident
  35              	@ -finline-atomics -fira-share-save-slots -fira-share-spill-slots -fivopts
  36              	@ -fkeep-static-consts -fleading-underscore -fmath-errno
  37              	@ -fmerge-debug-strings -fmove-loop-invariants -fpeephole
  38              	@ -fprefetch-loop-arrays -freg-struct-return
  39              	@ -fsched-critical-path-heuristic -fsched-dep-count-heuristic
  40              	@ -fsched-group-heuristic -fsched-interblock -fsched-last-insn-heuristic
  41              	@ -fsched-rank-heuristic -fsched-spec -fsched-spec-insn-heuristic
  42              	@ -fsched-stalled-insns-dep -fshow-column -fsigned-zeros
  43              	@ -fsplit-ivs-in-unroller -fstrict-volatile-bitfields -ftrapping-math
  44              	@ -ftree-cselim -ftree-forwprop -ftree-loop-if-convert -ftree-loop-im
  45              	@ -ftree-loop-ivcanon -ftree-loop-optimize -ftree-parallelize-loops=
  46              	@ -ftree-phiprop -ftree-pta -ftree-reassoc -ftree-scev-cprop
  47              	@ -ftree-slp-vectorize -ftree-vect-loop-version -funit-at-a-time
  48              	@ -fverbose-asm -fzero-initialized-in-bss -mfix-cortex-m3-ldrd
  49              	@ -mlittle-endian -msched-prolog -mthumb -munaligned-access
  50              	@ -mvectorize-with-neon-quad
  51              	
  52              		.text
  53              	.Ltext0:
  54              		.cfi_sections	.debug_frame
  55              		.section	.data._ZL28USBD_CDC_DeviceQualifierDesc,"aw",%progbits
  56              		.align	2
  57              		.type	_ZL28USBD_CDC_DeviceQualifierDesc, %object
ARM GAS  /tmp/ccxt9WWh.s 			page 2


  58              		.size	_ZL28USBD_CDC_DeviceQualifierDesc, 10
  59              	_ZL28USBD_CDC_DeviceQualifierDesc:
  60 0000 0A       		.byte	10
  61 0001 06       		.byte	6
  62 0002 00       		.byte	0
  63 0003 02       		.byte	2
  64 0004 00       		.byte	0
  65 0005 00       		.byte	0
  66 0006 00       		.byte	0
  67 0007 40       		.byte	64
  68 0008 01       		.byte	1
  69 0009 00       		.byte	0
  70              		.global	USBD_CDC
  71 000a 0000     		.section	.data.USBD_CDC,"aw",%progbits
  72              		.align	2
  73              		.type	USBD_CDC, %object
  74              		.size	USBD_CDC, 56
  75              	USBD_CDC:
  76              	@ Init:
  77 0000 00000000 		.word	_ZL13USBD_CDC_InitP19_USBD_HandleTypeDefh
  78              	@ DeInit:
  79 0004 00000000 		.word	_ZL15USBD_CDC_DeInitP19_USBD_HandleTypeDefh
  80              	@ Setup:
  81 0008 00000000 		.word	_ZL14USBD_CDC_SetupP19_USBD_HandleTypeDefP13usb_setup_req
  82              	@ EP0_TxSent:
  83 000c 00000000 		.word	0
  84              	@ EP0_RxReady:
  85 0010 00000000 		.word	_ZL20USBD_CDC_EP0_RxReadyP19_USBD_HandleTypeDef
  86              	@ DataIn:
  87 0014 00000000 		.word	_ZL15USBD_CDC_DataInP19_USBD_HandleTypeDefh
  88              	@ DataOut:
  89 0018 00000000 		.word	_ZL16USBD_CDC_DataOutP19_USBD_HandleTypeDefh
  90              	@ SOF:
  91 001c 00000000 		.word	0
  92              	@ IsoINIncomplete:
  93 0020 00000000 		.word	0
  94              	@ IsoOUTIncomplete:
  95 0024 00000000 		.word	0
  96              	@ GetHSConfigDescriptor:
  97 0028 00000000 		.word	_ZL21USBD_CDC_GetHSCfgDescPt
  98              	@ GetFSConfigDescriptor:
  99 002c 00000000 		.word	_ZL21USBD_CDC_GetFSCfgDescPt
 100              	@ GetOtherSpeedConfigDescriptor:
 101 0030 00000000 		.word	_ZL29USBD_CDC_GetOtherSpeedCfgDescPt
 102              	@ GetDeviceQualifierDescriptor:
 103 0034 00000000 		.word	_Z37USBD_CDC_GetDeviceQualifierDescriptorPt
 104              		.global	USBD_CDC_CfgHSDesc
 105              		.section	.data.USBD_CDC_CfgHSDesc,"aw",%progbits
 106              		.align	2
 107              		.type	USBD_CDC_CfgHSDesc, %object
 108              		.size	USBD_CDC_CfgHSDesc, 67
 109              	USBD_CDC_CfgHSDesc:
 110 0000 09       		.byte	9
 111 0001 02       		.byte	2
 112 0002 43       		.byte	67
 113 0003 00       		.byte	0
 114 0004 02       		.byte	2
ARM GAS  /tmp/ccxt9WWh.s 			page 3


 115 0005 01       		.byte	1
 116 0006 00       		.byte	0
 117 0007 C0       		.byte	-64
 118 0008 32       		.byte	50
 119 0009 09       		.byte	9
 120 000a 04       		.byte	4
 121 000b 00       		.byte	0
 122 000c 00       		.byte	0
 123 000d 01       		.byte	1
 124 000e 02       		.byte	2
 125 000f 02       		.byte	2
 126 0010 01       		.byte	1
 127 0011 00       		.byte	0
 128 0012 05       		.byte	5
 129 0013 24       		.byte	36
 130 0014 00       		.byte	0
 131 0015 10       		.byte	16
 132 0016 01       		.byte	1
 133 0017 05       		.byte	5
 134 0018 24       		.byte	36
 135 0019 01       		.byte	1
 136 001a 00       		.byte	0
 137 001b 01       		.byte	1
 138 001c 04       		.byte	4
 139 001d 24       		.byte	36
 140 001e 02       		.byte	2
 141 001f 02       		.byte	2
 142 0020 05       		.byte	5
 143 0021 24       		.byte	36
 144 0022 06       		.byte	6
 145 0023 00       		.byte	0
 146 0024 01       		.byte	1
 147 0025 07       		.byte	7
 148 0026 05       		.byte	5
 149 0027 82       		.byte	-126
 150 0028 03       		.byte	3
 151 0029 08       		.byte	8
 152 002a 00       		.byte	0
 153 002b 10       		.byte	16
 154 002c 09       		.byte	9
 155 002d 04       		.byte	4
 156 002e 01       		.byte	1
 157 002f 00       		.byte	0
 158 0030 02       		.byte	2
 159 0031 0A       		.byte	10
 160 0032 00       		.byte	0
 161 0033 00       		.byte	0
 162 0034 00       		.byte	0
 163 0035 07       		.byte	7
 164 0036 05       		.byte	5
 165 0037 01       		.byte	1
 166 0038 02       		.byte	2
 167 0039 00       		.byte	0
 168 003a 02       		.byte	2
 169 003b 00       		.byte	0
 170 003c 07       		.byte	7
 171 003d 05       		.byte	5
ARM GAS  /tmp/ccxt9WWh.s 			page 4


 172 003e 81       		.byte	-127
 173 003f 02       		.byte	2
 174 0040 00       		.byte	0
 175 0041 02       		.byte	2
 176 0042 00       		.byte	0
 177              		.global	USBD_CDC_CfgFSDesc
 178 0043 00       		.section	.data.USBD_CDC_CfgFSDesc,"aw",%progbits
 179              		.align	2
 180              		.type	USBD_CDC_CfgFSDesc, %object
 181              		.size	USBD_CDC_CfgFSDesc, 67
 182              	USBD_CDC_CfgFSDesc:
 183 0000 09       		.byte	9
 184 0001 02       		.byte	2
 185 0002 43       		.byte	67
 186 0003 00       		.byte	0
 187 0004 02       		.byte	2
 188 0005 01       		.byte	1
 189 0006 00       		.byte	0
 190 0007 C0       		.byte	-64
 191 0008 32       		.byte	50
 192 0009 09       		.byte	9
 193 000a 04       		.byte	4
 194 000b 00       		.byte	0
 195 000c 00       		.byte	0
 196 000d 01       		.byte	1
 197 000e 02       		.byte	2
 198 000f 02       		.byte	2
 199 0010 01       		.byte	1
 200 0011 00       		.byte	0
 201 0012 05       		.byte	5
 202 0013 24       		.byte	36
 203 0014 00       		.byte	0
 204 0015 10       		.byte	16
 205 0016 01       		.byte	1
 206 0017 05       		.byte	5
 207 0018 24       		.byte	36
 208 0019 01       		.byte	1
 209 001a 00       		.byte	0
 210 001b 01       		.byte	1
 211 001c 04       		.byte	4
 212 001d 24       		.byte	36
 213 001e 02       		.byte	2
 214 001f 02       		.byte	2
 215 0020 05       		.byte	5
 216 0021 24       		.byte	36
 217 0022 06       		.byte	6
 218 0023 00       		.byte	0
 219 0024 01       		.byte	1
 220 0025 07       		.byte	7
 221 0026 05       		.byte	5
 222 0027 82       		.byte	-126
 223 0028 03       		.byte	3
 224 0029 08       		.byte	8
 225 002a 00       		.byte	0
 226 002b 10       		.byte	16
 227 002c 09       		.byte	9
 228 002d 04       		.byte	4
ARM GAS  /tmp/ccxt9WWh.s 			page 5


 229 002e 01       		.byte	1
 230 002f 00       		.byte	0
 231 0030 02       		.byte	2
 232 0031 0A       		.byte	10
 233 0032 00       		.byte	0
 234 0033 00       		.byte	0
 235 0034 00       		.byte	0
 236 0035 07       		.byte	7
 237 0036 05       		.byte	5
 238 0037 01       		.byte	1
 239 0038 02       		.byte	2
 240 0039 40       		.byte	64
 241 003a 00       		.byte	0
 242 003b 00       		.byte	0
 243 003c 07       		.byte	7
 244 003d 05       		.byte	5
 245 003e 81       		.byte	-127
 246 003f 02       		.byte	2
 247 0040 40       		.byte	64
 248 0041 00       		.byte	0
 249 0042 00       		.byte	0
 250              		.global	USBD_CDC_OtherSpeedCfgDesc
 251 0043 00       		.section	.data.USBD_CDC_OtherSpeedCfgDesc,"aw",%progbits
 252              		.align	2
 253              		.type	USBD_CDC_OtherSpeedCfgDesc, %object
 254              		.size	USBD_CDC_OtherSpeedCfgDesc, 67
 255              	USBD_CDC_OtherSpeedCfgDesc:
 256 0000 09       		.byte	9
 257 0001 07       		.byte	7
 258 0002 43       		.byte	67
 259 0003 00       		.byte	0
 260 0004 02       		.byte	2
 261 0005 01       		.byte	1
 262 0006 04       		.byte	4
 263 0007 C0       		.byte	-64
 264 0008 32       		.byte	50
 265 0009 09       		.byte	9
 266 000a 04       		.byte	4
 267 000b 00       		.byte	0
 268 000c 00       		.byte	0
 269 000d 01       		.byte	1
 270 000e 02       		.byte	2
 271 000f 02       		.byte	2
 272 0010 01       		.byte	1
 273 0011 00       		.byte	0
 274 0012 05       		.byte	5
 275 0013 24       		.byte	36
 276 0014 00       		.byte	0
 277 0015 10       		.byte	16
 278 0016 01       		.byte	1
 279 0017 05       		.byte	5
 280 0018 24       		.byte	36
 281 0019 01       		.byte	1
 282 001a 00       		.byte	0
 283 001b 01       		.byte	1
 284 001c 04       		.byte	4
 285 001d 24       		.byte	36
ARM GAS  /tmp/ccxt9WWh.s 			page 6


 286 001e 02       		.byte	2
 287 001f 02       		.byte	2
 288 0020 05       		.byte	5
 289 0021 24       		.byte	36
 290 0022 06       		.byte	6
 291 0023 00       		.byte	0
 292 0024 01       		.byte	1
 293 0025 07       		.byte	7
 294 0026 05       		.byte	5
 295 0027 82       		.byte	-126
 296 0028 03       		.byte	3
 297 0029 08       		.byte	8
 298 002a 00       		.byte	0
 299 002b FF       		.byte	-1
 300 002c 09       		.byte	9
 301 002d 04       		.byte	4
 302 002e 01       		.byte	1
 303 002f 00       		.byte	0
 304 0030 02       		.byte	2
 305 0031 0A       		.byte	10
 306 0032 00       		.byte	0
 307 0033 00       		.byte	0
 308 0034 00       		.byte	0
 309 0035 07       		.byte	7
 310 0036 05       		.byte	5
 311 0037 01       		.byte	1
 312 0038 02       		.byte	2
 313 0039 40       		.byte	64
 314 003a 00       		.byte	0
 315 003b 00       		.byte	0
 316 003c 07       		.byte	7
 317 003d 05       		.byte	5
 318 003e 81       		.byte	-127
 319 003f 02       		.byte	2
 320 0040 40       		.byte	64
 321 0041 00       		.byte	0
 322 0042 00       		.byte	0
 323 0043 00       		.section	.text._ZL13USBD_CDC_InitP19_USBD_HandleTypeDefh,"ax",%progbits
 324              		.align	2
 325              		.thumb
 326              		.thumb_func
 327              		.type	_ZL13USBD_CDC_InitP19_USBD_HandleTypeDefh, %function
 328              	_ZL13USBD_CDC_InitP19_USBD_HandleTypeDefh:
 329              	.LFB56:
 330              		.file 1 "Middlewares/ST/STM32_USB_Device_Library/Class/CDC/usbd_cdc.cpp"
   1:Middlewares/ST/STM32_USB_Device_Library/Class/CDC/usbd_cdc.cpp **** /**
   2:Middlewares/ST/STM32_USB_Device_Library/Class/CDC/usbd_cdc.cpp ****   ******************************************************************************
   3:Middlewares/ST/STM32_USB_Device_Library/Class/CDC/usbd_cdc.cpp ****   * @file    usbd_cdc.c
   4:Middlewares/ST/STM32_USB_Device_Library/Class/CDC/usbd_cdc.cpp ****   * @author  MCD Application Team
   5:Middlewares/ST/STM32_USB_Device_Library/Class/CDC/usbd_cdc.cpp ****   * @version V2.2.0
   6:Middlewares/ST/STM32_USB_Device_Library/Class/CDC/usbd_cdc.cpp ****   * @date    13-June-2014
   7:Middlewares/ST/STM32_USB_Device_Library/Class/CDC/usbd_cdc.cpp ****   * @brief   This file provides the high layer firmware functions to manage the 
   8:Middlewares/ST/STM32_USB_Device_Library/Class/CDC/usbd_cdc.cpp ****   *          following functionalities of the USB CDC Class:
   9:Middlewares/ST/STM32_USB_Device_Library/Class/CDC/usbd_cdc.cpp ****   *           - Initialization and Configuration of high and low layer
  10:Middlewares/ST/STM32_USB_Device_Library/Class/CDC/usbd_cdc.cpp ****   *           - Enumeration as CDC Device (and enumeration for each implemented memory interface)
  11:Middlewares/ST/STM32_USB_Device_Library/Class/CDC/usbd_cdc.cpp ****   *           - OUT/IN data transfer
  12:Middlewares/ST/STM32_USB_Device_Library/Class/CDC/usbd_cdc.cpp ****   *           - Command IN transfer (class requests management)
ARM GAS  /tmp/ccxt9WWh.s 			page 7


  13:Middlewares/ST/STM32_USB_Device_Library/Class/CDC/usbd_cdc.cpp ****   *           - Error management
  14:Middlewares/ST/STM32_USB_Device_Library/Class/CDC/usbd_cdc.cpp ****   *           
  15:Middlewares/ST/STM32_USB_Device_Library/Class/CDC/usbd_cdc.cpp ****   *  @verbatim
  16:Middlewares/ST/STM32_USB_Device_Library/Class/CDC/usbd_cdc.cpp ****   *      
  17:Middlewares/ST/STM32_USB_Device_Library/Class/CDC/usbd_cdc.cpp ****   *          ===================================================================      
  18:Middlewares/ST/STM32_USB_Device_Library/Class/CDC/usbd_cdc.cpp ****   *                                CDC Class Driver Description
  19:Middlewares/ST/STM32_USB_Device_Library/Class/CDC/usbd_cdc.cpp ****   *          =================================================================== 
  20:Middlewares/ST/STM32_USB_Device_Library/Class/CDC/usbd_cdc.cpp ****   *           This driver manages the "Universal Serial Bus Class Definitions for Communications De
  21:Middlewares/ST/STM32_USB_Device_Library/Class/CDC/usbd_cdc.cpp ****   *           Revision 1.2 November 16, 2007" and the sub-protocol specification of "Universal Seri
  22:Middlewares/ST/STM32_USB_Device_Library/Class/CDC/usbd_cdc.cpp ****   *           Communications Class Subclass Specification for PSTN Devices Revision 1.2 February 9,
  23:Middlewares/ST/STM32_USB_Device_Library/Class/CDC/usbd_cdc.cpp ****   *           This driver implements the following aspects of the specification:
  24:Middlewares/ST/STM32_USB_Device_Library/Class/CDC/usbd_cdc.cpp ****   *             - Device descriptor management
  25:Middlewares/ST/STM32_USB_Device_Library/Class/CDC/usbd_cdc.cpp ****   *             - Configuration descriptor management
  26:Middlewares/ST/STM32_USB_Device_Library/Class/CDC/usbd_cdc.cpp ****   *             - Enumeration as CDC device with 2 data endpoints (IN and OUT) and 1 command endpoi
  27:Middlewares/ST/STM32_USB_Device_Library/Class/CDC/usbd_cdc.cpp ****   *             - Requests management (as described in section 6.2 in specification)
  28:Middlewares/ST/STM32_USB_Device_Library/Class/CDC/usbd_cdc.cpp ****   *             - Abstract Control Model compliant
  29:Middlewares/ST/STM32_USB_Device_Library/Class/CDC/usbd_cdc.cpp ****   *             - Union Functional collection (using 1 IN endpoint for control)
  30:Middlewares/ST/STM32_USB_Device_Library/Class/CDC/usbd_cdc.cpp ****   *             - Data interface class
  31:Middlewares/ST/STM32_USB_Device_Library/Class/CDC/usbd_cdc.cpp ****   * 
  32:Middlewares/ST/STM32_USB_Device_Library/Class/CDC/usbd_cdc.cpp ****   *           These aspects may be enriched or modified for a specific user application.
  33:Middlewares/ST/STM32_USB_Device_Library/Class/CDC/usbd_cdc.cpp ****   *          
  34:Middlewares/ST/STM32_USB_Device_Library/Class/CDC/usbd_cdc.cpp ****   *            This driver doesn't implement the following aspects of the specification 
  35:Middlewares/ST/STM32_USB_Device_Library/Class/CDC/usbd_cdc.cpp ****   *            (but it is possible to manage these features with some modifications on this driver)
  36:Middlewares/ST/STM32_USB_Device_Library/Class/CDC/usbd_cdc.cpp ****   *             - Any class-specific aspect relative to communication classes should be managed by 
  37:Middlewares/ST/STM32_USB_Device_Library/Class/CDC/usbd_cdc.cpp ****   *             - All communication classes other than PSTN are not managed
  38:Middlewares/ST/STM32_USB_Device_Library/Class/CDC/usbd_cdc.cpp ****   *      
  39:Middlewares/ST/STM32_USB_Device_Library/Class/CDC/usbd_cdc.cpp ****   *  @endverbatim
  40:Middlewares/ST/STM32_USB_Device_Library/Class/CDC/usbd_cdc.cpp ****   *                                  
  41:Middlewares/ST/STM32_USB_Device_Library/Class/CDC/usbd_cdc.cpp ****   ******************************************************************************
  42:Middlewares/ST/STM32_USB_Device_Library/Class/CDC/usbd_cdc.cpp ****   * @attention
  43:Middlewares/ST/STM32_USB_Device_Library/Class/CDC/usbd_cdc.cpp ****   *
  44:Middlewares/ST/STM32_USB_Device_Library/Class/CDC/usbd_cdc.cpp ****   * <h2><center>&copy; COPYRIGHT 2014 STMicroelectronics</center></h2>
  45:Middlewares/ST/STM32_USB_Device_Library/Class/CDC/usbd_cdc.cpp ****   *
  46:Middlewares/ST/STM32_USB_Device_Library/Class/CDC/usbd_cdc.cpp ****   * Licensed under MCD-ST Liberty SW License Agreement V2, (the "License");
  47:Middlewares/ST/STM32_USB_Device_Library/Class/CDC/usbd_cdc.cpp ****   * You may not use this file except in compliance with the License.
  48:Middlewares/ST/STM32_USB_Device_Library/Class/CDC/usbd_cdc.cpp ****   * You may obtain a copy of the License at:
  49:Middlewares/ST/STM32_USB_Device_Library/Class/CDC/usbd_cdc.cpp ****   *
  50:Middlewares/ST/STM32_USB_Device_Library/Class/CDC/usbd_cdc.cpp ****   *        http://www.st.com/software_license_agreement_liberty_v2
  51:Middlewares/ST/STM32_USB_Device_Library/Class/CDC/usbd_cdc.cpp ****   *
  52:Middlewares/ST/STM32_USB_Device_Library/Class/CDC/usbd_cdc.cpp ****   * Unless required by applicable law or agreed to in writing, software 
  53:Middlewares/ST/STM32_USB_Device_Library/Class/CDC/usbd_cdc.cpp ****   * distributed under the License is distributed on an "AS IS" BASIS, 
  54:Middlewares/ST/STM32_USB_Device_Library/Class/CDC/usbd_cdc.cpp ****   * WITHOUT WARRANTIES OR CONDITIONS OF ANY KIND, either express or implied.
  55:Middlewares/ST/STM32_USB_Device_Library/Class/CDC/usbd_cdc.cpp ****   * See the License for the specific language governing permissions and
  56:Middlewares/ST/STM32_USB_Device_Library/Class/CDC/usbd_cdc.cpp ****   * limitations under the License.
  57:Middlewares/ST/STM32_USB_Device_Library/Class/CDC/usbd_cdc.cpp ****   *
  58:Middlewares/ST/STM32_USB_Device_Library/Class/CDC/usbd_cdc.cpp ****   ******************************************************************************
  59:Middlewares/ST/STM32_USB_Device_Library/Class/CDC/usbd_cdc.cpp ****   */ 
  60:Middlewares/ST/STM32_USB_Device_Library/Class/CDC/usbd_cdc.cpp **** 
  61:Middlewares/ST/STM32_USB_Device_Library/Class/CDC/usbd_cdc.cpp **** /* Includes ------------------------------------------------------------------*/
  62:Middlewares/ST/STM32_USB_Device_Library/Class/CDC/usbd_cdc.cpp **** #include "usbd_cdc.h"
  63:Middlewares/ST/STM32_USB_Device_Library/Class/CDC/usbd_cdc.cpp **** #include "usbd_desc.h"
  64:Middlewares/ST/STM32_USB_Device_Library/Class/CDC/usbd_cdc.cpp **** #include "usbd_ctlreq.h"
  65:Middlewares/ST/STM32_USB_Device_Library/Class/CDC/usbd_cdc.cpp **** 
  66:Middlewares/ST/STM32_USB_Device_Library/Class/CDC/usbd_cdc.cpp **** 
  67:Middlewares/ST/STM32_USB_Device_Library/Class/CDC/usbd_cdc.cpp **** /** @addtogroup STM32_USB_DEVICE_LIBRARY
  68:Middlewares/ST/STM32_USB_Device_Library/Class/CDC/usbd_cdc.cpp ****   * @{
  69:Middlewares/ST/STM32_USB_Device_Library/Class/CDC/usbd_cdc.cpp ****   */
ARM GAS  /tmp/ccxt9WWh.s 			page 8


  70:Middlewares/ST/STM32_USB_Device_Library/Class/CDC/usbd_cdc.cpp **** 
  71:Middlewares/ST/STM32_USB_Device_Library/Class/CDC/usbd_cdc.cpp **** 
  72:Middlewares/ST/STM32_USB_Device_Library/Class/CDC/usbd_cdc.cpp **** /** @defgroup USBD_CDC 
  73:Middlewares/ST/STM32_USB_Device_Library/Class/CDC/usbd_cdc.cpp ****   * @brief usbd core module
  74:Middlewares/ST/STM32_USB_Device_Library/Class/CDC/usbd_cdc.cpp ****   * @{
  75:Middlewares/ST/STM32_USB_Device_Library/Class/CDC/usbd_cdc.cpp ****   */ 
  76:Middlewares/ST/STM32_USB_Device_Library/Class/CDC/usbd_cdc.cpp **** 
  77:Middlewares/ST/STM32_USB_Device_Library/Class/CDC/usbd_cdc.cpp **** /** @defgroup USBD_CDC_Private_TypesDefinitions
  78:Middlewares/ST/STM32_USB_Device_Library/Class/CDC/usbd_cdc.cpp ****   * @{
  79:Middlewares/ST/STM32_USB_Device_Library/Class/CDC/usbd_cdc.cpp ****   */ 
  80:Middlewares/ST/STM32_USB_Device_Library/Class/CDC/usbd_cdc.cpp **** /**
  81:Middlewares/ST/STM32_USB_Device_Library/Class/CDC/usbd_cdc.cpp ****   * @}
  82:Middlewares/ST/STM32_USB_Device_Library/Class/CDC/usbd_cdc.cpp ****   */ 
  83:Middlewares/ST/STM32_USB_Device_Library/Class/CDC/usbd_cdc.cpp **** 
  84:Middlewares/ST/STM32_USB_Device_Library/Class/CDC/usbd_cdc.cpp **** 
  85:Middlewares/ST/STM32_USB_Device_Library/Class/CDC/usbd_cdc.cpp **** /** @defgroup USBD_CDC_Private_Defines
  86:Middlewares/ST/STM32_USB_Device_Library/Class/CDC/usbd_cdc.cpp ****   * @{
  87:Middlewares/ST/STM32_USB_Device_Library/Class/CDC/usbd_cdc.cpp ****   */ 
  88:Middlewares/ST/STM32_USB_Device_Library/Class/CDC/usbd_cdc.cpp **** /**
  89:Middlewares/ST/STM32_USB_Device_Library/Class/CDC/usbd_cdc.cpp ****   * @}
  90:Middlewares/ST/STM32_USB_Device_Library/Class/CDC/usbd_cdc.cpp ****   */ 
  91:Middlewares/ST/STM32_USB_Device_Library/Class/CDC/usbd_cdc.cpp **** 
  92:Middlewares/ST/STM32_USB_Device_Library/Class/CDC/usbd_cdc.cpp **** 
  93:Middlewares/ST/STM32_USB_Device_Library/Class/CDC/usbd_cdc.cpp **** /** @defgroup USBD_CDC_Private_Macros
  94:Middlewares/ST/STM32_USB_Device_Library/Class/CDC/usbd_cdc.cpp ****   * @{
  95:Middlewares/ST/STM32_USB_Device_Library/Class/CDC/usbd_cdc.cpp ****   */ 
  96:Middlewares/ST/STM32_USB_Device_Library/Class/CDC/usbd_cdc.cpp **** 
  97:Middlewares/ST/STM32_USB_Device_Library/Class/CDC/usbd_cdc.cpp **** /**
  98:Middlewares/ST/STM32_USB_Device_Library/Class/CDC/usbd_cdc.cpp ****   * @}
  99:Middlewares/ST/STM32_USB_Device_Library/Class/CDC/usbd_cdc.cpp ****   */ 
 100:Middlewares/ST/STM32_USB_Device_Library/Class/CDC/usbd_cdc.cpp **** 
 101:Middlewares/ST/STM32_USB_Device_Library/Class/CDC/usbd_cdc.cpp **** 
 102:Middlewares/ST/STM32_USB_Device_Library/Class/CDC/usbd_cdc.cpp **** /** @defgroup USBD_CDC_Private_FunctionPrototypes
 103:Middlewares/ST/STM32_USB_Device_Library/Class/CDC/usbd_cdc.cpp ****   * @{
 104:Middlewares/ST/STM32_USB_Device_Library/Class/CDC/usbd_cdc.cpp ****   */
 105:Middlewares/ST/STM32_USB_Device_Library/Class/CDC/usbd_cdc.cpp **** 
 106:Middlewares/ST/STM32_USB_Device_Library/Class/CDC/usbd_cdc.cpp **** 
 107:Middlewares/ST/STM32_USB_Device_Library/Class/CDC/usbd_cdc.cpp **** static uint8_t  USBD_CDC_Init (USBD_HandleTypeDef *pdev, 
 108:Middlewares/ST/STM32_USB_Device_Library/Class/CDC/usbd_cdc.cpp ****                                uint8_t cfgidx);
 109:Middlewares/ST/STM32_USB_Device_Library/Class/CDC/usbd_cdc.cpp **** 
 110:Middlewares/ST/STM32_USB_Device_Library/Class/CDC/usbd_cdc.cpp **** static uint8_t  USBD_CDC_DeInit (USBD_HandleTypeDef *pdev, 
 111:Middlewares/ST/STM32_USB_Device_Library/Class/CDC/usbd_cdc.cpp ****                                  uint8_t cfgidx);
 112:Middlewares/ST/STM32_USB_Device_Library/Class/CDC/usbd_cdc.cpp **** 
 113:Middlewares/ST/STM32_USB_Device_Library/Class/CDC/usbd_cdc.cpp **** static uint8_t  USBD_CDC_Setup (USBD_HandleTypeDef *pdev, 
 114:Middlewares/ST/STM32_USB_Device_Library/Class/CDC/usbd_cdc.cpp ****                                 USBD_SetupReqTypedef *req);
 115:Middlewares/ST/STM32_USB_Device_Library/Class/CDC/usbd_cdc.cpp **** 
 116:Middlewares/ST/STM32_USB_Device_Library/Class/CDC/usbd_cdc.cpp **** static uint8_t  USBD_CDC_DataIn (USBD_HandleTypeDef *pdev, 
 117:Middlewares/ST/STM32_USB_Device_Library/Class/CDC/usbd_cdc.cpp ****                                  uint8_t epnum);
 118:Middlewares/ST/STM32_USB_Device_Library/Class/CDC/usbd_cdc.cpp **** 
 119:Middlewares/ST/STM32_USB_Device_Library/Class/CDC/usbd_cdc.cpp **** static uint8_t  USBD_CDC_DataOut (USBD_HandleTypeDef *pdev, 
 120:Middlewares/ST/STM32_USB_Device_Library/Class/CDC/usbd_cdc.cpp ****                                  uint8_t epnum);
 121:Middlewares/ST/STM32_USB_Device_Library/Class/CDC/usbd_cdc.cpp **** 
 122:Middlewares/ST/STM32_USB_Device_Library/Class/CDC/usbd_cdc.cpp **** static uint8_t  USBD_CDC_EP0_RxReady (USBD_HandleTypeDef *pdev);
 123:Middlewares/ST/STM32_USB_Device_Library/Class/CDC/usbd_cdc.cpp **** 
 124:Middlewares/ST/STM32_USB_Device_Library/Class/CDC/usbd_cdc.cpp **** static uint8_t  *USBD_CDC_GetFSCfgDesc (uint16_t *length);
 125:Middlewares/ST/STM32_USB_Device_Library/Class/CDC/usbd_cdc.cpp **** 
 126:Middlewares/ST/STM32_USB_Device_Library/Class/CDC/usbd_cdc.cpp **** static uint8_t  *USBD_CDC_GetHSCfgDesc (uint16_t *length);
ARM GAS  /tmp/ccxt9WWh.s 			page 9


 127:Middlewares/ST/STM32_USB_Device_Library/Class/CDC/usbd_cdc.cpp **** 
 128:Middlewares/ST/STM32_USB_Device_Library/Class/CDC/usbd_cdc.cpp **** static uint8_t  *USBD_CDC_GetOtherSpeedCfgDesc (uint16_t *length);
 129:Middlewares/ST/STM32_USB_Device_Library/Class/CDC/usbd_cdc.cpp **** 
 130:Middlewares/ST/STM32_USB_Device_Library/Class/CDC/usbd_cdc.cpp **** static uint8_t  *USBD_CDC_GetOtherSpeedCfgDesc (uint16_t *length);
 131:Middlewares/ST/STM32_USB_Device_Library/Class/CDC/usbd_cdc.cpp **** 
 132:Middlewares/ST/STM32_USB_Device_Library/Class/CDC/usbd_cdc.cpp **** uint8_t  *USBD_CDC_GetDeviceQualifierDescriptor (uint16_t *length);
 133:Middlewares/ST/STM32_USB_Device_Library/Class/CDC/usbd_cdc.cpp **** 
 134:Middlewares/ST/STM32_USB_Device_Library/Class/CDC/usbd_cdc.cpp **** /* USB Standard Device Descriptor */
 135:Middlewares/ST/STM32_USB_Device_Library/Class/CDC/usbd_cdc.cpp **** __ALIGN_BEGIN static uint8_t USBD_CDC_DeviceQualifierDesc[USB_LEN_DEV_QUALIFIER_DESC] __ALIGN_END =
 136:Middlewares/ST/STM32_USB_Device_Library/Class/CDC/usbd_cdc.cpp **** {
 137:Middlewares/ST/STM32_USB_Device_Library/Class/CDC/usbd_cdc.cpp ****   USB_LEN_DEV_QUALIFIER_DESC,
 138:Middlewares/ST/STM32_USB_Device_Library/Class/CDC/usbd_cdc.cpp ****   USB_DESC_TYPE_DEVICE_QUALIFIER,
 139:Middlewares/ST/STM32_USB_Device_Library/Class/CDC/usbd_cdc.cpp ****   0x00,
 140:Middlewares/ST/STM32_USB_Device_Library/Class/CDC/usbd_cdc.cpp ****   0x02,
 141:Middlewares/ST/STM32_USB_Device_Library/Class/CDC/usbd_cdc.cpp ****   0x00,
 142:Middlewares/ST/STM32_USB_Device_Library/Class/CDC/usbd_cdc.cpp ****   0x00,
 143:Middlewares/ST/STM32_USB_Device_Library/Class/CDC/usbd_cdc.cpp ****   0x00,
 144:Middlewares/ST/STM32_USB_Device_Library/Class/CDC/usbd_cdc.cpp ****   0x40,
 145:Middlewares/ST/STM32_USB_Device_Library/Class/CDC/usbd_cdc.cpp ****   0x01,
 146:Middlewares/ST/STM32_USB_Device_Library/Class/CDC/usbd_cdc.cpp ****   0x00,
 147:Middlewares/ST/STM32_USB_Device_Library/Class/CDC/usbd_cdc.cpp **** };
 148:Middlewares/ST/STM32_USB_Device_Library/Class/CDC/usbd_cdc.cpp **** 
 149:Middlewares/ST/STM32_USB_Device_Library/Class/CDC/usbd_cdc.cpp **** /**
 150:Middlewares/ST/STM32_USB_Device_Library/Class/CDC/usbd_cdc.cpp ****   * @}
 151:Middlewares/ST/STM32_USB_Device_Library/Class/CDC/usbd_cdc.cpp ****   */ 
 152:Middlewares/ST/STM32_USB_Device_Library/Class/CDC/usbd_cdc.cpp **** 
 153:Middlewares/ST/STM32_USB_Device_Library/Class/CDC/usbd_cdc.cpp **** /** @defgroup USBD_CDC_Private_Variables
 154:Middlewares/ST/STM32_USB_Device_Library/Class/CDC/usbd_cdc.cpp ****   * @{
 155:Middlewares/ST/STM32_USB_Device_Library/Class/CDC/usbd_cdc.cpp ****   */ 
 156:Middlewares/ST/STM32_USB_Device_Library/Class/CDC/usbd_cdc.cpp **** 
 157:Middlewares/ST/STM32_USB_Device_Library/Class/CDC/usbd_cdc.cpp **** 
 158:Middlewares/ST/STM32_USB_Device_Library/Class/CDC/usbd_cdc.cpp **** /* CDC interface class callbacks structure */
 159:Middlewares/ST/STM32_USB_Device_Library/Class/CDC/usbd_cdc.cpp **** USBD_ClassTypeDef  USBD_CDC = 
 160:Middlewares/ST/STM32_USB_Device_Library/Class/CDC/usbd_cdc.cpp **** {
 161:Middlewares/ST/STM32_USB_Device_Library/Class/CDC/usbd_cdc.cpp ****   USBD_CDC_Init,
 162:Middlewares/ST/STM32_USB_Device_Library/Class/CDC/usbd_cdc.cpp ****   USBD_CDC_DeInit,
 163:Middlewares/ST/STM32_USB_Device_Library/Class/CDC/usbd_cdc.cpp ****   USBD_CDC_Setup,
 164:Middlewares/ST/STM32_USB_Device_Library/Class/CDC/usbd_cdc.cpp ****   NULL,                 /* EP0_TxSent, */
 165:Middlewares/ST/STM32_USB_Device_Library/Class/CDC/usbd_cdc.cpp ****   USBD_CDC_EP0_RxReady,
 166:Middlewares/ST/STM32_USB_Device_Library/Class/CDC/usbd_cdc.cpp ****   USBD_CDC_DataIn,
 167:Middlewares/ST/STM32_USB_Device_Library/Class/CDC/usbd_cdc.cpp ****   USBD_CDC_DataOut,
 168:Middlewares/ST/STM32_USB_Device_Library/Class/CDC/usbd_cdc.cpp ****   NULL,
 169:Middlewares/ST/STM32_USB_Device_Library/Class/CDC/usbd_cdc.cpp ****   NULL,
 170:Middlewares/ST/STM32_USB_Device_Library/Class/CDC/usbd_cdc.cpp ****   NULL,     
 171:Middlewares/ST/STM32_USB_Device_Library/Class/CDC/usbd_cdc.cpp ****   USBD_CDC_GetHSCfgDesc,  
 172:Middlewares/ST/STM32_USB_Device_Library/Class/CDC/usbd_cdc.cpp ****   USBD_CDC_GetFSCfgDesc,    
 173:Middlewares/ST/STM32_USB_Device_Library/Class/CDC/usbd_cdc.cpp ****   USBD_CDC_GetOtherSpeedCfgDesc, 
 174:Middlewares/ST/STM32_USB_Device_Library/Class/CDC/usbd_cdc.cpp ****   USBD_CDC_GetDeviceQualifierDescriptor,
 175:Middlewares/ST/STM32_USB_Device_Library/Class/CDC/usbd_cdc.cpp **** };
 176:Middlewares/ST/STM32_USB_Device_Library/Class/CDC/usbd_cdc.cpp **** 
 177:Middlewares/ST/STM32_USB_Device_Library/Class/CDC/usbd_cdc.cpp **** /* USB CDC device Configuration Descriptor */
 178:Middlewares/ST/STM32_USB_Device_Library/Class/CDC/usbd_cdc.cpp **** __ALIGN_BEGIN uint8_t USBD_CDC_CfgHSDesc[USB_CDC_CONFIG_DESC_SIZ] __ALIGN_END =
 179:Middlewares/ST/STM32_USB_Device_Library/Class/CDC/usbd_cdc.cpp **** {
 180:Middlewares/ST/STM32_USB_Device_Library/Class/CDC/usbd_cdc.cpp ****   /*Configuration Descriptor*/
 181:Middlewares/ST/STM32_USB_Device_Library/Class/CDC/usbd_cdc.cpp ****   0x09,   /* bLength: Configuration Descriptor size */
 182:Middlewares/ST/STM32_USB_Device_Library/Class/CDC/usbd_cdc.cpp ****   USB_DESC_TYPE_CONFIGURATION,      /* bDescriptorType: Configuration */
 183:Middlewares/ST/STM32_USB_Device_Library/Class/CDC/usbd_cdc.cpp ****   USB_CDC_CONFIG_DESC_SIZ,                /* wTotalLength:no of returned bytes */
ARM GAS  /tmp/ccxt9WWh.s 			page 10


 184:Middlewares/ST/STM32_USB_Device_Library/Class/CDC/usbd_cdc.cpp ****   0x00,
 185:Middlewares/ST/STM32_USB_Device_Library/Class/CDC/usbd_cdc.cpp ****   0x02,   /* bNumInterfaces: 2 interface */
 186:Middlewares/ST/STM32_USB_Device_Library/Class/CDC/usbd_cdc.cpp ****   0x01,   /* bConfigurationValue: Configuration value */
 187:Middlewares/ST/STM32_USB_Device_Library/Class/CDC/usbd_cdc.cpp ****   0x00,   /* iConfiguration: Index of string descriptor describing the configuration */
 188:Middlewares/ST/STM32_USB_Device_Library/Class/CDC/usbd_cdc.cpp ****   0xC0,   /* bmAttributes: self powered */
 189:Middlewares/ST/STM32_USB_Device_Library/Class/CDC/usbd_cdc.cpp ****   0x32,   /* MaxPower 0 mA */
 190:Middlewares/ST/STM32_USB_Device_Library/Class/CDC/usbd_cdc.cpp ****   
 191:Middlewares/ST/STM32_USB_Device_Library/Class/CDC/usbd_cdc.cpp ****   /*---------------------------------------------------------------------------*/
 192:Middlewares/ST/STM32_USB_Device_Library/Class/CDC/usbd_cdc.cpp ****   
 193:Middlewares/ST/STM32_USB_Device_Library/Class/CDC/usbd_cdc.cpp ****   /*Interface Descriptor */
 194:Middlewares/ST/STM32_USB_Device_Library/Class/CDC/usbd_cdc.cpp ****   0x09,   /* bLength: Interface Descriptor size */
 195:Middlewares/ST/STM32_USB_Device_Library/Class/CDC/usbd_cdc.cpp ****   USB_DESC_TYPE_INTERFACE,  /* bDescriptorType: Interface */
 196:Middlewares/ST/STM32_USB_Device_Library/Class/CDC/usbd_cdc.cpp ****   /* Interface descriptor type */
 197:Middlewares/ST/STM32_USB_Device_Library/Class/CDC/usbd_cdc.cpp ****   0x00,   /* bInterfaceNumber: Number of Interface */
 198:Middlewares/ST/STM32_USB_Device_Library/Class/CDC/usbd_cdc.cpp ****   0x00,   /* bAlternateSetting: Alternate setting */
 199:Middlewares/ST/STM32_USB_Device_Library/Class/CDC/usbd_cdc.cpp ****   0x01,   /* bNumEndpoints: One endpoints used */
 200:Middlewares/ST/STM32_USB_Device_Library/Class/CDC/usbd_cdc.cpp ****   0x02,   /* bInterfaceClass: Communication Interface Class */
 201:Middlewares/ST/STM32_USB_Device_Library/Class/CDC/usbd_cdc.cpp ****   0x02,   /* bInterfaceSubClass: Abstract Control Model */
 202:Middlewares/ST/STM32_USB_Device_Library/Class/CDC/usbd_cdc.cpp ****   0x01,   /* bInterfaceProtocol: Common AT commands */
 203:Middlewares/ST/STM32_USB_Device_Library/Class/CDC/usbd_cdc.cpp ****   0x00,   /* iInterface: */
 204:Middlewares/ST/STM32_USB_Device_Library/Class/CDC/usbd_cdc.cpp ****   
 205:Middlewares/ST/STM32_USB_Device_Library/Class/CDC/usbd_cdc.cpp ****   /*Header Functional Descriptor*/
 206:Middlewares/ST/STM32_USB_Device_Library/Class/CDC/usbd_cdc.cpp ****   0x05,   /* bLength: Endpoint Descriptor size */
 207:Middlewares/ST/STM32_USB_Device_Library/Class/CDC/usbd_cdc.cpp ****   0x24,   /* bDescriptorType: CS_INTERFACE */
 208:Middlewares/ST/STM32_USB_Device_Library/Class/CDC/usbd_cdc.cpp ****   0x00,   /* bDescriptorSubtype: Header Func Desc */
 209:Middlewares/ST/STM32_USB_Device_Library/Class/CDC/usbd_cdc.cpp ****   0x10,   /* bcdCDC: spec release number */
 210:Middlewares/ST/STM32_USB_Device_Library/Class/CDC/usbd_cdc.cpp ****   0x01,
 211:Middlewares/ST/STM32_USB_Device_Library/Class/CDC/usbd_cdc.cpp ****   
 212:Middlewares/ST/STM32_USB_Device_Library/Class/CDC/usbd_cdc.cpp ****   /*Call Management Functional Descriptor*/
 213:Middlewares/ST/STM32_USB_Device_Library/Class/CDC/usbd_cdc.cpp ****   0x05,   /* bFunctionLength */
 214:Middlewares/ST/STM32_USB_Device_Library/Class/CDC/usbd_cdc.cpp ****   0x24,   /* bDescriptorType: CS_INTERFACE */
 215:Middlewares/ST/STM32_USB_Device_Library/Class/CDC/usbd_cdc.cpp ****   0x01,   /* bDescriptorSubtype: Call Management Func Desc */
 216:Middlewares/ST/STM32_USB_Device_Library/Class/CDC/usbd_cdc.cpp ****   0x00,   /* bmCapabilities: D0+D1 */
 217:Middlewares/ST/STM32_USB_Device_Library/Class/CDC/usbd_cdc.cpp ****   0x01,   /* bDataInterface: 1 */
 218:Middlewares/ST/STM32_USB_Device_Library/Class/CDC/usbd_cdc.cpp ****   
 219:Middlewares/ST/STM32_USB_Device_Library/Class/CDC/usbd_cdc.cpp ****   /*ACM Functional Descriptor*/
 220:Middlewares/ST/STM32_USB_Device_Library/Class/CDC/usbd_cdc.cpp ****   0x04,   /* bFunctionLength */
 221:Middlewares/ST/STM32_USB_Device_Library/Class/CDC/usbd_cdc.cpp ****   0x24,   /* bDescriptorType: CS_INTERFACE */
 222:Middlewares/ST/STM32_USB_Device_Library/Class/CDC/usbd_cdc.cpp ****   0x02,   /* bDescriptorSubtype: Abstract Control Management desc */
 223:Middlewares/ST/STM32_USB_Device_Library/Class/CDC/usbd_cdc.cpp ****   0x02,   /* bmCapabilities */
 224:Middlewares/ST/STM32_USB_Device_Library/Class/CDC/usbd_cdc.cpp ****   
 225:Middlewares/ST/STM32_USB_Device_Library/Class/CDC/usbd_cdc.cpp ****   /*Union Functional Descriptor*/
 226:Middlewares/ST/STM32_USB_Device_Library/Class/CDC/usbd_cdc.cpp ****   0x05,   /* bFunctionLength */
 227:Middlewares/ST/STM32_USB_Device_Library/Class/CDC/usbd_cdc.cpp ****   0x24,   /* bDescriptorType: CS_INTERFACE */
 228:Middlewares/ST/STM32_USB_Device_Library/Class/CDC/usbd_cdc.cpp ****   0x06,   /* bDescriptorSubtype: Union func desc */
 229:Middlewares/ST/STM32_USB_Device_Library/Class/CDC/usbd_cdc.cpp ****   0x00,   /* bMasterInterface: Communication class interface */
 230:Middlewares/ST/STM32_USB_Device_Library/Class/CDC/usbd_cdc.cpp ****   0x01,   /* bSlaveInterface0: Data Class Interface */
 231:Middlewares/ST/STM32_USB_Device_Library/Class/CDC/usbd_cdc.cpp ****   
 232:Middlewares/ST/STM32_USB_Device_Library/Class/CDC/usbd_cdc.cpp ****   /*Endpoint 2 Descriptor*/
 233:Middlewares/ST/STM32_USB_Device_Library/Class/CDC/usbd_cdc.cpp ****   0x07,                           /* bLength: Endpoint Descriptor size */
 234:Middlewares/ST/STM32_USB_Device_Library/Class/CDC/usbd_cdc.cpp ****   USB_DESC_TYPE_ENDPOINT,   /* bDescriptorType: Endpoint */
 235:Middlewares/ST/STM32_USB_Device_Library/Class/CDC/usbd_cdc.cpp ****   CDC_CMD_EP,                     /* bEndpointAddress */
 236:Middlewares/ST/STM32_USB_Device_Library/Class/CDC/usbd_cdc.cpp ****   0x03,                           /* bmAttributes: Interrupt */
 237:Middlewares/ST/STM32_USB_Device_Library/Class/CDC/usbd_cdc.cpp ****   LOBYTE(CDC_CMD_PACKET_SIZE),     /* wMaxPacketSize: */
 238:Middlewares/ST/STM32_USB_Device_Library/Class/CDC/usbd_cdc.cpp ****   HIBYTE(CDC_CMD_PACKET_SIZE),
 239:Middlewares/ST/STM32_USB_Device_Library/Class/CDC/usbd_cdc.cpp ****   0x10,                           /* bInterval: */ 
 240:Middlewares/ST/STM32_USB_Device_Library/Class/CDC/usbd_cdc.cpp ****   /*---------------------------------------------------------------------------*/
ARM GAS  /tmp/ccxt9WWh.s 			page 11


 241:Middlewares/ST/STM32_USB_Device_Library/Class/CDC/usbd_cdc.cpp ****   
 242:Middlewares/ST/STM32_USB_Device_Library/Class/CDC/usbd_cdc.cpp ****   /*Data class interface descriptor*/
 243:Middlewares/ST/STM32_USB_Device_Library/Class/CDC/usbd_cdc.cpp ****   0x09,   /* bLength: Endpoint Descriptor size */
 244:Middlewares/ST/STM32_USB_Device_Library/Class/CDC/usbd_cdc.cpp ****   USB_DESC_TYPE_INTERFACE,  /* bDescriptorType: */
 245:Middlewares/ST/STM32_USB_Device_Library/Class/CDC/usbd_cdc.cpp ****   0x01,   /* bInterfaceNumber: Number of Interface */
 246:Middlewares/ST/STM32_USB_Device_Library/Class/CDC/usbd_cdc.cpp ****   0x00,   /* bAlternateSetting: Alternate setting */
 247:Middlewares/ST/STM32_USB_Device_Library/Class/CDC/usbd_cdc.cpp ****   0x02,   /* bNumEndpoints: Two endpoints used */
 248:Middlewares/ST/STM32_USB_Device_Library/Class/CDC/usbd_cdc.cpp ****   0x0A,   /* bInterfaceClass: CDC */
 249:Middlewares/ST/STM32_USB_Device_Library/Class/CDC/usbd_cdc.cpp ****   0x00,   /* bInterfaceSubClass: */
 250:Middlewares/ST/STM32_USB_Device_Library/Class/CDC/usbd_cdc.cpp ****   0x00,   /* bInterfaceProtocol: */
 251:Middlewares/ST/STM32_USB_Device_Library/Class/CDC/usbd_cdc.cpp ****   0x00,   /* iInterface: */
 252:Middlewares/ST/STM32_USB_Device_Library/Class/CDC/usbd_cdc.cpp ****   
 253:Middlewares/ST/STM32_USB_Device_Library/Class/CDC/usbd_cdc.cpp ****   /*Endpoint OUT Descriptor*/
 254:Middlewares/ST/STM32_USB_Device_Library/Class/CDC/usbd_cdc.cpp ****   0x07,   /* bLength: Endpoint Descriptor size */
 255:Middlewares/ST/STM32_USB_Device_Library/Class/CDC/usbd_cdc.cpp ****   USB_DESC_TYPE_ENDPOINT,      /* bDescriptorType: Endpoint */
 256:Middlewares/ST/STM32_USB_Device_Library/Class/CDC/usbd_cdc.cpp ****   CDC_OUT_EP,                        /* bEndpointAddress */
 257:Middlewares/ST/STM32_USB_Device_Library/Class/CDC/usbd_cdc.cpp ****   0x02,                              /* bmAttributes: Bulk */
 258:Middlewares/ST/STM32_USB_Device_Library/Class/CDC/usbd_cdc.cpp ****   LOBYTE(CDC_DATA_HS_MAX_PACKET_SIZE),  /* wMaxPacketSize: */
 259:Middlewares/ST/STM32_USB_Device_Library/Class/CDC/usbd_cdc.cpp ****   HIBYTE(CDC_DATA_HS_MAX_PACKET_SIZE),
 260:Middlewares/ST/STM32_USB_Device_Library/Class/CDC/usbd_cdc.cpp ****   0x00,                              /* bInterval: ignore for Bulk transfer */
 261:Middlewares/ST/STM32_USB_Device_Library/Class/CDC/usbd_cdc.cpp ****   
 262:Middlewares/ST/STM32_USB_Device_Library/Class/CDC/usbd_cdc.cpp ****   /*Endpoint IN Descriptor*/
 263:Middlewares/ST/STM32_USB_Device_Library/Class/CDC/usbd_cdc.cpp ****   0x07,   /* bLength: Endpoint Descriptor size */
 264:Middlewares/ST/STM32_USB_Device_Library/Class/CDC/usbd_cdc.cpp ****   USB_DESC_TYPE_ENDPOINT,      /* bDescriptorType: Endpoint */
 265:Middlewares/ST/STM32_USB_Device_Library/Class/CDC/usbd_cdc.cpp ****   CDC_IN_EP,                         /* bEndpointAddress */
 266:Middlewares/ST/STM32_USB_Device_Library/Class/CDC/usbd_cdc.cpp ****   0x02,                              /* bmAttributes: Bulk */
 267:Middlewares/ST/STM32_USB_Device_Library/Class/CDC/usbd_cdc.cpp ****   LOBYTE(CDC_DATA_HS_MAX_PACKET_SIZE),  /* wMaxPacketSize: */
 268:Middlewares/ST/STM32_USB_Device_Library/Class/CDC/usbd_cdc.cpp ****   HIBYTE(CDC_DATA_HS_MAX_PACKET_SIZE),
 269:Middlewares/ST/STM32_USB_Device_Library/Class/CDC/usbd_cdc.cpp ****   0x00                               /* bInterval: ignore for Bulk transfer */
 270:Middlewares/ST/STM32_USB_Device_Library/Class/CDC/usbd_cdc.cpp **** } ;
 271:Middlewares/ST/STM32_USB_Device_Library/Class/CDC/usbd_cdc.cpp **** 
 272:Middlewares/ST/STM32_USB_Device_Library/Class/CDC/usbd_cdc.cpp **** 
 273:Middlewares/ST/STM32_USB_Device_Library/Class/CDC/usbd_cdc.cpp **** /* USB CDC device Configuration Descriptor */
 274:Middlewares/ST/STM32_USB_Device_Library/Class/CDC/usbd_cdc.cpp **** __ALIGN_BEGIN uint8_t USBD_CDC_CfgFSDesc[USB_CDC_CONFIG_DESC_SIZ] __ALIGN_END =
 275:Middlewares/ST/STM32_USB_Device_Library/Class/CDC/usbd_cdc.cpp **** {
 276:Middlewares/ST/STM32_USB_Device_Library/Class/CDC/usbd_cdc.cpp ****   /*Configuration Descriptor*/
 277:Middlewares/ST/STM32_USB_Device_Library/Class/CDC/usbd_cdc.cpp ****   0x09,   /* bLength: Configuration Descriptor size */
 278:Middlewares/ST/STM32_USB_Device_Library/Class/CDC/usbd_cdc.cpp ****   USB_DESC_TYPE_CONFIGURATION,      /* bDescriptorType: Configuration */
 279:Middlewares/ST/STM32_USB_Device_Library/Class/CDC/usbd_cdc.cpp ****   USB_CDC_CONFIG_DESC_SIZ,                /* wTotalLength:no of returned bytes */
 280:Middlewares/ST/STM32_USB_Device_Library/Class/CDC/usbd_cdc.cpp ****   0x00,
 281:Middlewares/ST/STM32_USB_Device_Library/Class/CDC/usbd_cdc.cpp ****   0x02,   /* bNumInterfaces: 2 interface */
 282:Middlewares/ST/STM32_USB_Device_Library/Class/CDC/usbd_cdc.cpp ****   0x01,   /* bConfigurationValue: Configuration value */
 283:Middlewares/ST/STM32_USB_Device_Library/Class/CDC/usbd_cdc.cpp ****   0x00,   /* iConfiguration: Index of string descriptor describing the configuration */
 284:Middlewares/ST/STM32_USB_Device_Library/Class/CDC/usbd_cdc.cpp ****   0xC0,   /* bmAttributes: self powered */
 285:Middlewares/ST/STM32_USB_Device_Library/Class/CDC/usbd_cdc.cpp ****   0x32,   /* MaxPower 0 mA */
 286:Middlewares/ST/STM32_USB_Device_Library/Class/CDC/usbd_cdc.cpp ****   
 287:Middlewares/ST/STM32_USB_Device_Library/Class/CDC/usbd_cdc.cpp ****   /*---------------------------------------------------------------------------*/
 288:Middlewares/ST/STM32_USB_Device_Library/Class/CDC/usbd_cdc.cpp ****   
 289:Middlewares/ST/STM32_USB_Device_Library/Class/CDC/usbd_cdc.cpp ****   /*Interface Descriptor */
 290:Middlewares/ST/STM32_USB_Device_Library/Class/CDC/usbd_cdc.cpp ****   0x09,   /* bLength: Interface Descriptor size */
 291:Middlewares/ST/STM32_USB_Device_Library/Class/CDC/usbd_cdc.cpp ****   USB_DESC_TYPE_INTERFACE,  /* bDescriptorType: Interface */
 292:Middlewares/ST/STM32_USB_Device_Library/Class/CDC/usbd_cdc.cpp ****   /* Interface descriptor type */
 293:Middlewares/ST/STM32_USB_Device_Library/Class/CDC/usbd_cdc.cpp ****   0x00,   /* bInterfaceNumber: Number of Interface */
 294:Middlewares/ST/STM32_USB_Device_Library/Class/CDC/usbd_cdc.cpp ****   0x00,   /* bAlternateSetting: Alternate setting */
 295:Middlewares/ST/STM32_USB_Device_Library/Class/CDC/usbd_cdc.cpp ****   0x01,   /* bNumEndpoints: One endpoints used */
 296:Middlewares/ST/STM32_USB_Device_Library/Class/CDC/usbd_cdc.cpp ****   0x02,   /* bInterfaceClass: Communication Interface Class */
 297:Middlewares/ST/STM32_USB_Device_Library/Class/CDC/usbd_cdc.cpp ****   0x02,   /* bInterfaceSubClass: Abstract Control Model */
ARM GAS  /tmp/ccxt9WWh.s 			page 12


 298:Middlewares/ST/STM32_USB_Device_Library/Class/CDC/usbd_cdc.cpp ****   0x01,   /* bInterfaceProtocol: Common AT commands */
 299:Middlewares/ST/STM32_USB_Device_Library/Class/CDC/usbd_cdc.cpp ****   0x00,   /* iInterface: */
 300:Middlewares/ST/STM32_USB_Device_Library/Class/CDC/usbd_cdc.cpp ****   
 301:Middlewares/ST/STM32_USB_Device_Library/Class/CDC/usbd_cdc.cpp ****   /*Header Functional Descriptor*/
 302:Middlewares/ST/STM32_USB_Device_Library/Class/CDC/usbd_cdc.cpp ****   0x05,   /* bLength: Endpoint Descriptor size */
 303:Middlewares/ST/STM32_USB_Device_Library/Class/CDC/usbd_cdc.cpp ****   0x24,   /* bDescriptorType: CS_INTERFACE */
 304:Middlewares/ST/STM32_USB_Device_Library/Class/CDC/usbd_cdc.cpp ****   0x00,   /* bDescriptorSubtype: Header Func Desc */
 305:Middlewares/ST/STM32_USB_Device_Library/Class/CDC/usbd_cdc.cpp ****   0x10,   /* bcdCDC: spec release number */
 306:Middlewares/ST/STM32_USB_Device_Library/Class/CDC/usbd_cdc.cpp ****   0x01,
 307:Middlewares/ST/STM32_USB_Device_Library/Class/CDC/usbd_cdc.cpp ****   
 308:Middlewares/ST/STM32_USB_Device_Library/Class/CDC/usbd_cdc.cpp ****   /*Call Management Functional Descriptor*/
 309:Middlewares/ST/STM32_USB_Device_Library/Class/CDC/usbd_cdc.cpp ****   0x05,   /* bFunctionLength */
 310:Middlewares/ST/STM32_USB_Device_Library/Class/CDC/usbd_cdc.cpp ****   0x24,   /* bDescriptorType: CS_INTERFACE */
 311:Middlewares/ST/STM32_USB_Device_Library/Class/CDC/usbd_cdc.cpp ****   0x01,   /* bDescriptorSubtype: Call Management Func Desc */
 312:Middlewares/ST/STM32_USB_Device_Library/Class/CDC/usbd_cdc.cpp ****   0x00,   /* bmCapabilities: D0+D1 */
 313:Middlewares/ST/STM32_USB_Device_Library/Class/CDC/usbd_cdc.cpp ****   0x01,   /* bDataInterface: 1 */
 314:Middlewares/ST/STM32_USB_Device_Library/Class/CDC/usbd_cdc.cpp ****   
 315:Middlewares/ST/STM32_USB_Device_Library/Class/CDC/usbd_cdc.cpp ****   /*ACM Functional Descriptor*/
 316:Middlewares/ST/STM32_USB_Device_Library/Class/CDC/usbd_cdc.cpp ****   0x04,   /* bFunctionLength */
 317:Middlewares/ST/STM32_USB_Device_Library/Class/CDC/usbd_cdc.cpp ****   0x24,   /* bDescriptorType: CS_INTERFACE */
 318:Middlewares/ST/STM32_USB_Device_Library/Class/CDC/usbd_cdc.cpp ****   0x02,   /* bDescriptorSubtype: Abstract Control Management desc */
 319:Middlewares/ST/STM32_USB_Device_Library/Class/CDC/usbd_cdc.cpp ****   0x02,   /* bmCapabilities */
 320:Middlewares/ST/STM32_USB_Device_Library/Class/CDC/usbd_cdc.cpp ****   
 321:Middlewares/ST/STM32_USB_Device_Library/Class/CDC/usbd_cdc.cpp ****   /*Union Functional Descriptor*/
 322:Middlewares/ST/STM32_USB_Device_Library/Class/CDC/usbd_cdc.cpp ****   0x05,   /* bFunctionLength */
 323:Middlewares/ST/STM32_USB_Device_Library/Class/CDC/usbd_cdc.cpp ****   0x24,   /* bDescriptorType: CS_INTERFACE */
 324:Middlewares/ST/STM32_USB_Device_Library/Class/CDC/usbd_cdc.cpp ****   0x06,   /* bDescriptorSubtype: Union func desc */
 325:Middlewares/ST/STM32_USB_Device_Library/Class/CDC/usbd_cdc.cpp ****   0x00,   /* bMasterInterface: Communication class interface */
 326:Middlewares/ST/STM32_USB_Device_Library/Class/CDC/usbd_cdc.cpp ****   0x01,   /* bSlaveInterface0: Data Class Interface */
 327:Middlewares/ST/STM32_USB_Device_Library/Class/CDC/usbd_cdc.cpp ****   
 328:Middlewares/ST/STM32_USB_Device_Library/Class/CDC/usbd_cdc.cpp ****   /*Endpoint 2 Descriptor*/
 329:Middlewares/ST/STM32_USB_Device_Library/Class/CDC/usbd_cdc.cpp ****   0x07,                           /* bLength: Endpoint Descriptor size */
 330:Middlewares/ST/STM32_USB_Device_Library/Class/CDC/usbd_cdc.cpp ****   USB_DESC_TYPE_ENDPOINT,   /* bDescriptorType: Endpoint */
 331:Middlewares/ST/STM32_USB_Device_Library/Class/CDC/usbd_cdc.cpp ****   CDC_CMD_EP,                     /* bEndpointAddress */
 332:Middlewares/ST/STM32_USB_Device_Library/Class/CDC/usbd_cdc.cpp ****   0x03,                           /* bmAttributes: Interrupt */
 333:Middlewares/ST/STM32_USB_Device_Library/Class/CDC/usbd_cdc.cpp ****   LOBYTE(CDC_CMD_PACKET_SIZE),     /* wMaxPacketSize: */
 334:Middlewares/ST/STM32_USB_Device_Library/Class/CDC/usbd_cdc.cpp ****   HIBYTE(CDC_CMD_PACKET_SIZE),
 335:Middlewares/ST/STM32_USB_Device_Library/Class/CDC/usbd_cdc.cpp ****   0x10,                           /* bInterval: */ 
 336:Middlewares/ST/STM32_USB_Device_Library/Class/CDC/usbd_cdc.cpp ****   /*---------------------------------------------------------------------------*/
 337:Middlewares/ST/STM32_USB_Device_Library/Class/CDC/usbd_cdc.cpp ****   
 338:Middlewares/ST/STM32_USB_Device_Library/Class/CDC/usbd_cdc.cpp ****   /*Data class interface descriptor*/
 339:Middlewares/ST/STM32_USB_Device_Library/Class/CDC/usbd_cdc.cpp ****   0x09,   /* bLength: Endpoint Descriptor size */
 340:Middlewares/ST/STM32_USB_Device_Library/Class/CDC/usbd_cdc.cpp ****   USB_DESC_TYPE_INTERFACE,  /* bDescriptorType: */
 341:Middlewares/ST/STM32_USB_Device_Library/Class/CDC/usbd_cdc.cpp ****   0x01,   /* bInterfaceNumber: Number of Interface */
 342:Middlewares/ST/STM32_USB_Device_Library/Class/CDC/usbd_cdc.cpp ****   0x00,   /* bAlternateSetting: Alternate setting */
 343:Middlewares/ST/STM32_USB_Device_Library/Class/CDC/usbd_cdc.cpp ****   0x02,   /* bNumEndpoints: Two endpoints used */
 344:Middlewares/ST/STM32_USB_Device_Library/Class/CDC/usbd_cdc.cpp ****   0x0A,   /* bInterfaceClass: CDC */
 345:Middlewares/ST/STM32_USB_Device_Library/Class/CDC/usbd_cdc.cpp ****   0x00,   /* bInterfaceSubClass: */
 346:Middlewares/ST/STM32_USB_Device_Library/Class/CDC/usbd_cdc.cpp ****   0x00,   /* bInterfaceProtocol: */
 347:Middlewares/ST/STM32_USB_Device_Library/Class/CDC/usbd_cdc.cpp ****   0x00,   /* iInterface: */
 348:Middlewares/ST/STM32_USB_Device_Library/Class/CDC/usbd_cdc.cpp ****   
 349:Middlewares/ST/STM32_USB_Device_Library/Class/CDC/usbd_cdc.cpp ****   /*Endpoint OUT Descriptor*/
 350:Middlewares/ST/STM32_USB_Device_Library/Class/CDC/usbd_cdc.cpp ****   0x07,   /* bLength: Endpoint Descriptor size */
 351:Middlewares/ST/STM32_USB_Device_Library/Class/CDC/usbd_cdc.cpp ****   USB_DESC_TYPE_ENDPOINT,      /* bDescriptorType: Endpoint */
 352:Middlewares/ST/STM32_USB_Device_Library/Class/CDC/usbd_cdc.cpp ****   CDC_OUT_EP,                        /* bEndpointAddress */
 353:Middlewares/ST/STM32_USB_Device_Library/Class/CDC/usbd_cdc.cpp ****   0x02,                              /* bmAttributes: Bulk */
 354:Middlewares/ST/STM32_USB_Device_Library/Class/CDC/usbd_cdc.cpp ****   LOBYTE(CDC_DATA_FS_MAX_PACKET_SIZE),  /* wMaxPacketSize: */
ARM GAS  /tmp/ccxt9WWh.s 			page 13


 355:Middlewares/ST/STM32_USB_Device_Library/Class/CDC/usbd_cdc.cpp ****   HIBYTE(CDC_DATA_FS_MAX_PACKET_SIZE),
 356:Middlewares/ST/STM32_USB_Device_Library/Class/CDC/usbd_cdc.cpp ****   0x00,                              /* bInterval: ignore for Bulk transfer */
 357:Middlewares/ST/STM32_USB_Device_Library/Class/CDC/usbd_cdc.cpp ****   
 358:Middlewares/ST/STM32_USB_Device_Library/Class/CDC/usbd_cdc.cpp ****   /*Endpoint IN Descriptor*/
 359:Middlewares/ST/STM32_USB_Device_Library/Class/CDC/usbd_cdc.cpp ****   0x07,   /* bLength: Endpoint Descriptor size */
 360:Middlewares/ST/STM32_USB_Device_Library/Class/CDC/usbd_cdc.cpp ****   USB_DESC_TYPE_ENDPOINT,      /* bDescriptorType: Endpoint */
 361:Middlewares/ST/STM32_USB_Device_Library/Class/CDC/usbd_cdc.cpp ****   CDC_IN_EP,                         /* bEndpointAddress */
 362:Middlewares/ST/STM32_USB_Device_Library/Class/CDC/usbd_cdc.cpp ****   0x02,                              /* bmAttributes: Bulk */
 363:Middlewares/ST/STM32_USB_Device_Library/Class/CDC/usbd_cdc.cpp ****   LOBYTE(CDC_DATA_FS_MAX_PACKET_SIZE),  /* wMaxPacketSize: */
 364:Middlewares/ST/STM32_USB_Device_Library/Class/CDC/usbd_cdc.cpp ****   HIBYTE(CDC_DATA_FS_MAX_PACKET_SIZE),
 365:Middlewares/ST/STM32_USB_Device_Library/Class/CDC/usbd_cdc.cpp ****   0x00                               /* bInterval: ignore for Bulk transfer */
 366:Middlewares/ST/STM32_USB_Device_Library/Class/CDC/usbd_cdc.cpp **** } ;
 367:Middlewares/ST/STM32_USB_Device_Library/Class/CDC/usbd_cdc.cpp **** 
 368:Middlewares/ST/STM32_USB_Device_Library/Class/CDC/usbd_cdc.cpp **** __ALIGN_BEGIN uint8_t USBD_CDC_OtherSpeedCfgDesc[USB_CDC_CONFIG_DESC_SIZ] __ALIGN_END =
 369:Middlewares/ST/STM32_USB_Device_Library/Class/CDC/usbd_cdc.cpp **** { 
 370:Middlewares/ST/STM32_USB_Device_Library/Class/CDC/usbd_cdc.cpp ****   0x09,   /* bLength: Configuation Descriptor size */
 371:Middlewares/ST/STM32_USB_Device_Library/Class/CDC/usbd_cdc.cpp ****   USB_DESC_TYPE_OTHER_SPEED_CONFIGURATION,   
 372:Middlewares/ST/STM32_USB_Device_Library/Class/CDC/usbd_cdc.cpp ****   USB_CDC_CONFIG_DESC_SIZ,
 373:Middlewares/ST/STM32_USB_Device_Library/Class/CDC/usbd_cdc.cpp ****   0x00,
 374:Middlewares/ST/STM32_USB_Device_Library/Class/CDC/usbd_cdc.cpp ****   0x02,   /* bNumInterfaces: 2 interfaces */
 375:Middlewares/ST/STM32_USB_Device_Library/Class/CDC/usbd_cdc.cpp ****   0x01,   /* bConfigurationValue: */
 376:Middlewares/ST/STM32_USB_Device_Library/Class/CDC/usbd_cdc.cpp ****   0x04,   /* iConfiguration: */
 377:Middlewares/ST/STM32_USB_Device_Library/Class/CDC/usbd_cdc.cpp ****   0xC0,   /* bmAttributes: */
 378:Middlewares/ST/STM32_USB_Device_Library/Class/CDC/usbd_cdc.cpp ****   0x32,   /* MaxPower 100 mA */  
 379:Middlewares/ST/STM32_USB_Device_Library/Class/CDC/usbd_cdc.cpp ****   
 380:Middlewares/ST/STM32_USB_Device_Library/Class/CDC/usbd_cdc.cpp ****   /*Interface Descriptor */
 381:Middlewares/ST/STM32_USB_Device_Library/Class/CDC/usbd_cdc.cpp ****   0x09,   /* bLength: Interface Descriptor size */
 382:Middlewares/ST/STM32_USB_Device_Library/Class/CDC/usbd_cdc.cpp ****   USB_DESC_TYPE_INTERFACE,  /* bDescriptorType: Interface */
 383:Middlewares/ST/STM32_USB_Device_Library/Class/CDC/usbd_cdc.cpp ****   /* Interface descriptor type */
 384:Middlewares/ST/STM32_USB_Device_Library/Class/CDC/usbd_cdc.cpp ****   0x00,   /* bInterfaceNumber: Number of Interface */
 385:Middlewares/ST/STM32_USB_Device_Library/Class/CDC/usbd_cdc.cpp ****   0x00,   /* bAlternateSetting: Alternate setting */
 386:Middlewares/ST/STM32_USB_Device_Library/Class/CDC/usbd_cdc.cpp ****   0x01,   /* bNumEndpoints: One endpoints used */
 387:Middlewares/ST/STM32_USB_Device_Library/Class/CDC/usbd_cdc.cpp ****   0x02,   /* bInterfaceClass: Communication Interface Class */
 388:Middlewares/ST/STM32_USB_Device_Library/Class/CDC/usbd_cdc.cpp ****   0x02,   /* bInterfaceSubClass: Abstract Control Model */
 389:Middlewares/ST/STM32_USB_Device_Library/Class/CDC/usbd_cdc.cpp ****   0x01,   /* bInterfaceProtocol: Common AT commands */
 390:Middlewares/ST/STM32_USB_Device_Library/Class/CDC/usbd_cdc.cpp ****   0x00,   /* iInterface: */
 391:Middlewares/ST/STM32_USB_Device_Library/Class/CDC/usbd_cdc.cpp ****   
 392:Middlewares/ST/STM32_USB_Device_Library/Class/CDC/usbd_cdc.cpp ****   /*Header Functional Descriptor*/
 393:Middlewares/ST/STM32_USB_Device_Library/Class/CDC/usbd_cdc.cpp ****   0x05,   /* bLength: Endpoint Descriptor size */
 394:Middlewares/ST/STM32_USB_Device_Library/Class/CDC/usbd_cdc.cpp ****   0x24,   /* bDescriptorType: CS_INTERFACE */
 395:Middlewares/ST/STM32_USB_Device_Library/Class/CDC/usbd_cdc.cpp ****   0x00,   /* bDescriptorSubtype: Header Func Desc */
 396:Middlewares/ST/STM32_USB_Device_Library/Class/CDC/usbd_cdc.cpp ****   0x10,   /* bcdCDC: spec release number */
 397:Middlewares/ST/STM32_USB_Device_Library/Class/CDC/usbd_cdc.cpp ****   0x01,
 398:Middlewares/ST/STM32_USB_Device_Library/Class/CDC/usbd_cdc.cpp ****   
 399:Middlewares/ST/STM32_USB_Device_Library/Class/CDC/usbd_cdc.cpp ****   /*Call Management Functional Descriptor*/
 400:Middlewares/ST/STM32_USB_Device_Library/Class/CDC/usbd_cdc.cpp ****   0x05,   /* bFunctionLength */
 401:Middlewares/ST/STM32_USB_Device_Library/Class/CDC/usbd_cdc.cpp ****   0x24,   /* bDescriptorType: CS_INTERFACE */
 402:Middlewares/ST/STM32_USB_Device_Library/Class/CDC/usbd_cdc.cpp ****   0x01,   /* bDescriptorSubtype: Call Management Func Desc */
 403:Middlewares/ST/STM32_USB_Device_Library/Class/CDC/usbd_cdc.cpp ****   0x00,   /* bmCapabilities: D0+D1 */
 404:Middlewares/ST/STM32_USB_Device_Library/Class/CDC/usbd_cdc.cpp ****   0x01,   /* bDataInterface: 1 */
 405:Middlewares/ST/STM32_USB_Device_Library/Class/CDC/usbd_cdc.cpp ****   
 406:Middlewares/ST/STM32_USB_Device_Library/Class/CDC/usbd_cdc.cpp ****   /*ACM Functional Descriptor*/
 407:Middlewares/ST/STM32_USB_Device_Library/Class/CDC/usbd_cdc.cpp ****   0x04,   /* bFunctionLength */
 408:Middlewares/ST/STM32_USB_Device_Library/Class/CDC/usbd_cdc.cpp ****   0x24,   /* bDescriptorType: CS_INTERFACE */
 409:Middlewares/ST/STM32_USB_Device_Library/Class/CDC/usbd_cdc.cpp ****   0x02,   /* bDescriptorSubtype: Abstract Control Management desc */
 410:Middlewares/ST/STM32_USB_Device_Library/Class/CDC/usbd_cdc.cpp ****   0x02,   /* bmCapabilities */
 411:Middlewares/ST/STM32_USB_Device_Library/Class/CDC/usbd_cdc.cpp ****   
ARM GAS  /tmp/ccxt9WWh.s 			page 14


 412:Middlewares/ST/STM32_USB_Device_Library/Class/CDC/usbd_cdc.cpp ****   /*Union Functional Descriptor*/
 413:Middlewares/ST/STM32_USB_Device_Library/Class/CDC/usbd_cdc.cpp ****   0x05,   /* bFunctionLength */
 414:Middlewares/ST/STM32_USB_Device_Library/Class/CDC/usbd_cdc.cpp ****   0x24,   /* bDescriptorType: CS_INTERFACE */
 415:Middlewares/ST/STM32_USB_Device_Library/Class/CDC/usbd_cdc.cpp ****   0x06,   /* bDescriptorSubtype: Union func desc */
 416:Middlewares/ST/STM32_USB_Device_Library/Class/CDC/usbd_cdc.cpp ****   0x00,   /* bMasterInterface: Communication class interface */
 417:Middlewares/ST/STM32_USB_Device_Library/Class/CDC/usbd_cdc.cpp ****   0x01,   /* bSlaveInterface0: Data Class Interface */
 418:Middlewares/ST/STM32_USB_Device_Library/Class/CDC/usbd_cdc.cpp ****   
 419:Middlewares/ST/STM32_USB_Device_Library/Class/CDC/usbd_cdc.cpp ****   /*Endpoint 2 Descriptor*/
 420:Middlewares/ST/STM32_USB_Device_Library/Class/CDC/usbd_cdc.cpp ****   0x07,                           /* bLength: Endpoint Descriptor size */
 421:Middlewares/ST/STM32_USB_Device_Library/Class/CDC/usbd_cdc.cpp ****   USB_DESC_TYPE_ENDPOINT      ,   /* bDescriptorType: Endpoint */
 422:Middlewares/ST/STM32_USB_Device_Library/Class/CDC/usbd_cdc.cpp ****   CDC_CMD_EP,                     /* bEndpointAddress */
 423:Middlewares/ST/STM32_USB_Device_Library/Class/CDC/usbd_cdc.cpp ****   0x03,                           /* bmAttributes: Interrupt */
 424:Middlewares/ST/STM32_USB_Device_Library/Class/CDC/usbd_cdc.cpp ****   LOBYTE(CDC_CMD_PACKET_SIZE),     /* wMaxPacketSize: */
 425:Middlewares/ST/STM32_USB_Device_Library/Class/CDC/usbd_cdc.cpp ****   HIBYTE(CDC_CMD_PACKET_SIZE),
 426:Middlewares/ST/STM32_USB_Device_Library/Class/CDC/usbd_cdc.cpp ****   0xFF,                           /* bInterval: */
 427:Middlewares/ST/STM32_USB_Device_Library/Class/CDC/usbd_cdc.cpp ****   
 428:Middlewares/ST/STM32_USB_Device_Library/Class/CDC/usbd_cdc.cpp ****   /*---------------------------------------------------------------------------*/
 429:Middlewares/ST/STM32_USB_Device_Library/Class/CDC/usbd_cdc.cpp ****   
 430:Middlewares/ST/STM32_USB_Device_Library/Class/CDC/usbd_cdc.cpp ****   /*Data class interface descriptor*/
 431:Middlewares/ST/STM32_USB_Device_Library/Class/CDC/usbd_cdc.cpp ****   0x09,   /* bLength: Endpoint Descriptor size */
 432:Middlewares/ST/STM32_USB_Device_Library/Class/CDC/usbd_cdc.cpp ****   USB_DESC_TYPE_INTERFACE,  /* bDescriptorType: */
 433:Middlewares/ST/STM32_USB_Device_Library/Class/CDC/usbd_cdc.cpp ****   0x01,   /* bInterfaceNumber: Number of Interface */
 434:Middlewares/ST/STM32_USB_Device_Library/Class/CDC/usbd_cdc.cpp ****   0x00,   /* bAlternateSetting: Alternate setting */
 435:Middlewares/ST/STM32_USB_Device_Library/Class/CDC/usbd_cdc.cpp ****   0x02,   /* bNumEndpoints: Two endpoints used */
 436:Middlewares/ST/STM32_USB_Device_Library/Class/CDC/usbd_cdc.cpp ****   0x0A,   /* bInterfaceClass: CDC */
 437:Middlewares/ST/STM32_USB_Device_Library/Class/CDC/usbd_cdc.cpp ****   0x00,   /* bInterfaceSubClass: */
 438:Middlewares/ST/STM32_USB_Device_Library/Class/CDC/usbd_cdc.cpp ****   0x00,   /* bInterfaceProtocol: */
 439:Middlewares/ST/STM32_USB_Device_Library/Class/CDC/usbd_cdc.cpp ****   0x00,   /* iInterface: */
 440:Middlewares/ST/STM32_USB_Device_Library/Class/CDC/usbd_cdc.cpp ****   
 441:Middlewares/ST/STM32_USB_Device_Library/Class/CDC/usbd_cdc.cpp ****   /*Endpoint OUT Descriptor*/
 442:Middlewares/ST/STM32_USB_Device_Library/Class/CDC/usbd_cdc.cpp ****   0x07,   /* bLength: Endpoint Descriptor size */
 443:Middlewares/ST/STM32_USB_Device_Library/Class/CDC/usbd_cdc.cpp ****   USB_DESC_TYPE_ENDPOINT,      /* bDescriptorType: Endpoint */
 444:Middlewares/ST/STM32_USB_Device_Library/Class/CDC/usbd_cdc.cpp ****   CDC_OUT_EP,                        /* bEndpointAddress */
 445:Middlewares/ST/STM32_USB_Device_Library/Class/CDC/usbd_cdc.cpp ****   0x02,                              /* bmAttributes: Bulk */
 446:Middlewares/ST/STM32_USB_Device_Library/Class/CDC/usbd_cdc.cpp ****   0x40,                              /* wMaxPacketSize: */
 447:Middlewares/ST/STM32_USB_Device_Library/Class/CDC/usbd_cdc.cpp ****   0x00,
 448:Middlewares/ST/STM32_USB_Device_Library/Class/CDC/usbd_cdc.cpp ****   0x00,                              /* bInterval: ignore for Bulk transfer */
 449:Middlewares/ST/STM32_USB_Device_Library/Class/CDC/usbd_cdc.cpp ****   
 450:Middlewares/ST/STM32_USB_Device_Library/Class/CDC/usbd_cdc.cpp ****   /*Endpoint IN Descriptor*/
 451:Middlewares/ST/STM32_USB_Device_Library/Class/CDC/usbd_cdc.cpp ****   0x07,   /* bLength: Endpoint Descriptor size */
 452:Middlewares/ST/STM32_USB_Device_Library/Class/CDC/usbd_cdc.cpp ****   USB_DESC_TYPE_ENDPOINT,     /* bDescriptorType: Endpoint */
 453:Middlewares/ST/STM32_USB_Device_Library/Class/CDC/usbd_cdc.cpp ****   CDC_IN_EP,                        /* bEndpointAddress */
 454:Middlewares/ST/STM32_USB_Device_Library/Class/CDC/usbd_cdc.cpp ****   0x02,                             /* bmAttributes: Bulk */
 455:Middlewares/ST/STM32_USB_Device_Library/Class/CDC/usbd_cdc.cpp ****   0x40,                             /* wMaxPacketSize: */
 456:Middlewares/ST/STM32_USB_Device_Library/Class/CDC/usbd_cdc.cpp ****   0x00,
 457:Middlewares/ST/STM32_USB_Device_Library/Class/CDC/usbd_cdc.cpp ****   0x00                              /* bInterval */
 458:Middlewares/ST/STM32_USB_Device_Library/Class/CDC/usbd_cdc.cpp **** };
 459:Middlewares/ST/STM32_USB_Device_Library/Class/CDC/usbd_cdc.cpp **** 
 460:Middlewares/ST/STM32_USB_Device_Library/Class/CDC/usbd_cdc.cpp **** /**
 461:Middlewares/ST/STM32_USB_Device_Library/Class/CDC/usbd_cdc.cpp ****   * @}
 462:Middlewares/ST/STM32_USB_Device_Library/Class/CDC/usbd_cdc.cpp ****   */ 
 463:Middlewares/ST/STM32_USB_Device_Library/Class/CDC/usbd_cdc.cpp **** 
 464:Middlewares/ST/STM32_USB_Device_Library/Class/CDC/usbd_cdc.cpp **** /** @defgroup USBD_CDC_Private_Functions
 465:Middlewares/ST/STM32_USB_Device_Library/Class/CDC/usbd_cdc.cpp ****   * @{
 466:Middlewares/ST/STM32_USB_Device_Library/Class/CDC/usbd_cdc.cpp ****   */ 
 467:Middlewares/ST/STM32_USB_Device_Library/Class/CDC/usbd_cdc.cpp **** 
 468:Middlewares/ST/STM32_USB_Device_Library/Class/CDC/usbd_cdc.cpp **** /**
ARM GAS  /tmp/ccxt9WWh.s 			page 15


 469:Middlewares/ST/STM32_USB_Device_Library/Class/CDC/usbd_cdc.cpp ****   * @brief  USBD_CDC_Init
 470:Middlewares/ST/STM32_USB_Device_Library/Class/CDC/usbd_cdc.cpp ****   *         Initilaize the CDC interface
 471:Middlewares/ST/STM32_USB_Device_Library/Class/CDC/usbd_cdc.cpp ****   * @param  pdev: device instance
 472:Middlewares/ST/STM32_USB_Device_Library/Class/CDC/usbd_cdc.cpp ****   * @param  cfgidx: Configuration index
 473:Middlewares/ST/STM32_USB_Device_Library/Class/CDC/usbd_cdc.cpp ****   * @retval status
 474:Middlewares/ST/STM32_USB_Device_Library/Class/CDC/usbd_cdc.cpp ****   */
 475:Middlewares/ST/STM32_USB_Device_Library/Class/CDC/usbd_cdc.cpp **** static uint8_t  USBD_CDC_Init (USBD_HandleTypeDef *pdev, 
 476:Middlewares/ST/STM32_USB_Device_Library/Class/CDC/usbd_cdc.cpp ****                                uint8_t cfgidx)
 477:Middlewares/ST/STM32_USB_Device_Library/Class/CDC/usbd_cdc.cpp **** {
 331              		.loc 1 477 0
 332              		.cfi_startproc
 333              		@ args = 0, pretend = 0, frame = 16
 334              		@ frame_needed = 1, uses_anonymous_args = 0
 335 0000 80B5     		push	{r7, lr}	@
 336              	.LCFI0:
 337              		.cfi_def_cfa_offset 8
 338              		.cfi_offset 7, -8
 339              		.cfi_offset 14, -4
 340 0002 84B0     		sub	sp, sp, #16	@,,
 341              	.LCFI1:
 342              		.cfi_def_cfa_offset 24
 343 0004 00AF     		add	r7, sp, #0	@,,
 344              	.LCFI2:
 345              		.cfi_def_cfa_register 7
 346 0006 7860     		str	r0, [r7, #4]	@ pdev, pdev
 347 0008 0B46     		mov	r3, r1	@ tmp144, cfgidx
 348 000a FB70     		strb	r3, [r7, #3]	@ tmp145, cfgidx
 349              	.LBB2:
 478:Middlewares/ST/STM32_USB_Device_Library/Class/CDC/usbd_cdc.cpp ****   uint8_t ret = 0;
 350              		.loc 1 478 0
 351 000c 4FF00003 		mov	r3, #0	@ tmp146,
 352 0010 FB73     		strb	r3, [r7, #15]	@ tmp147, ret
 479:Middlewares/ST/STM32_USB_Device_Library/Class/CDC/usbd_cdc.cpp ****   USBD_CDC_HandleTypeDef   *hcdc;
 480:Middlewares/ST/STM32_USB_Device_Library/Class/CDC/usbd_cdc.cpp ****   
 481:Middlewares/ST/STM32_USB_Device_Library/Class/CDC/usbd_cdc.cpp ****   if(pdev->dev_speed == USBD_SPEED_HIGH  ) 
 353              		.loc 1 481 0
 354 0012 7B68     		ldr	r3, [r7, #4]	@ tmp148, pdev
 355 0014 1B7C     		ldrb	r3, [r3, #16]	@ zero_extendqisi2	@ D.7819, pdev_3(D)->dev_speed
 356 0016 002B     		cmp	r3, #0	@ D.7819,
 357 0018 12D1     		bne	.L2	@,
 482:Middlewares/ST/STM32_USB_Device_Library/Class/CDC/usbd_cdc.cpp ****   {  
 483:Middlewares/ST/STM32_USB_Device_Library/Class/CDC/usbd_cdc.cpp ****     /* Open EP IN */
 484:Middlewares/ST/STM32_USB_Device_Library/Class/CDC/usbd_cdc.cpp ****     USBD_LL_OpenEP(pdev,
 485:Middlewares/ST/STM32_USB_Device_Library/Class/CDC/usbd_cdc.cpp ****                    CDC_IN_EP,
 486:Middlewares/ST/STM32_USB_Device_Library/Class/CDC/usbd_cdc.cpp ****                    USBD_EP_TYPE_BULK,
 487:Middlewares/ST/STM32_USB_Device_Library/Class/CDC/usbd_cdc.cpp ****                    CDC_DATA_HS_IN_PACKET_SIZE);
 358              		.loc 1 487 0
 359 001a 7868     		ldr	r0, [r7, #4]	@, pdev
 360 001c 4FF08101 		mov	r1, #129	@,
 361 0020 4FF00202 		mov	r2, #2	@,
 362 0024 4FF40073 		mov	r3, #512	@,
 363 0028 FFF7FEFF 		bl	_Z14USBD_LL_OpenEPP19_USBD_HandleTypeDefhht	@
 488:Middlewares/ST/STM32_USB_Device_Library/Class/CDC/usbd_cdc.cpp ****     
 489:Middlewares/ST/STM32_USB_Device_Library/Class/CDC/usbd_cdc.cpp ****     /* Open EP OUT */
 490:Middlewares/ST/STM32_USB_Device_Library/Class/CDC/usbd_cdc.cpp ****     USBD_LL_OpenEP(pdev,
 491:Middlewares/ST/STM32_USB_Device_Library/Class/CDC/usbd_cdc.cpp ****                    CDC_OUT_EP,
 492:Middlewares/ST/STM32_USB_Device_Library/Class/CDC/usbd_cdc.cpp ****                    USBD_EP_TYPE_BULK,
ARM GAS  /tmp/ccxt9WWh.s 			page 16


 493:Middlewares/ST/STM32_USB_Device_Library/Class/CDC/usbd_cdc.cpp ****                    CDC_DATA_HS_OUT_PACKET_SIZE);
 364              		.loc 1 493 0
 365 002c 7868     		ldr	r0, [r7, #4]	@, pdev
 366 002e 4FF00101 		mov	r1, #1	@,
 367 0032 4FF00202 		mov	r2, #2	@,
 368 0036 4FF40073 		mov	r3, #512	@,
 369 003a FFF7FEFF 		bl	_Z14USBD_LL_OpenEPP19_USBD_HandleTypeDefhht	@
 370 003e 11E0     		b	.L3	@
 371              	.L2:
 494:Middlewares/ST/STM32_USB_Device_Library/Class/CDC/usbd_cdc.cpp ****     
 495:Middlewares/ST/STM32_USB_Device_Library/Class/CDC/usbd_cdc.cpp ****   }
 496:Middlewares/ST/STM32_USB_Device_Library/Class/CDC/usbd_cdc.cpp ****   else
 497:Middlewares/ST/STM32_USB_Device_Library/Class/CDC/usbd_cdc.cpp ****   {
 498:Middlewares/ST/STM32_USB_Device_Library/Class/CDC/usbd_cdc.cpp ****     /* Open EP IN */
 499:Middlewares/ST/STM32_USB_Device_Library/Class/CDC/usbd_cdc.cpp ****     USBD_LL_OpenEP(pdev,
 500:Middlewares/ST/STM32_USB_Device_Library/Class/CDC/usbd_cdc.cpp ****                    CDC_IN_EP,
 501:Middlewares/ST/STM32_USB_Device_Library/Class/CDC/usbd_cdc.cpp ****                    USBD_EP_TYPE_BULK,
 502:Middlewares/ST/STM32_USB_Device_Library/Class/CDC/usbd_cdc.cpp ****                    CDC_DATA_FS_IN_PACKET_SIZE);
 372              		.loc 1 502 0
 373 0040 7868     		ldr	r0, [r7, #4]	@, pdev
 374 0042 4FF08101 		mov	r1, #129	@,
 375 0046 4FF00202 		mov	r2, #2	@,
 376 004a 4FF04003 		mov	r3, #64	@,
 377 004e FFF7FEFF 		bl	_Z14USBD_LL_OpenEPP19_USBD_HandleTypeDefhht	@
 503:Middlewares/ST/STM32_USB_Device_Library/Class/CDC/usbd_cdc.cpp ****     
 504:Middlewares/ST/STM32_USB_Device_Library/Class/CDC/usbd_cdc.cpp ****     /* Open EP OUT */
 505:Middlewares/ST/STM32_USB_Device_Library/Class/CDC/usbd_cdc.cpp ****     USBD_LL_OpenEP(pdev,
 506:Middlewares/ST/STM32_USB_Device_Library/Class/CDC/usbd_cdc.cpp ****                    CDC_OUT_EP,
 507:Middlewares/ST/STM32_USB_Device_Library/Class/CDC/usbd_cdc.cpp ****                    USBD_EP_TYPE_BULK,
 508:Middlewares/ST/STM32_USB_Device_Library/Class/CDC/usbd_cdc.cpp ****                    CDC_DATA_FS_OUT_PACKET_SIZE);
 378              		.loc 1 508 0
 379 0052 7868     		ldr	r0, [r7, #4]	@, pdev
 380 0054 4FF00101 		mov	r1, #1	@,
 381 0058 4FF00202 		mov	r2, #2	@,
 382 005c 4FF04003 		mov	r3, #64	@,
 383 0060 FFF7FEFF 		bl	_Z14USBD_LL_OpenEPP19_USBD_HandleTypeDefhht	@
 384              	.L3:
 509:Middlewares/ST/STM32_USB_Device_Library/Class/CDC/usbd_cdc.cpp ****   }
 510:Middlewares/ST/STM32_USB_Device_Library/Class/CDC/usbd_cdc.cpp ****   /* Open Command IN EP */
 511:Middlewares/ST/STM32_USB_Device_Library/Class/CDC/usbd_cdc.cpp ****   USBD_LL_OpenEP(pdev,
 512:Middlewares/ST/STM32_USB_Device_Library/Class/CDC/usbd_cdc.cpp ****                  CDC_CMD_EP,
 513:Middlewares/ST/STM32_USB_Device_Library/Class/CDC/usbd_cdc.cpp ****                  USBD_EP_TYPE_INTR,
 514:Middlewares/ST/STM32_USB_Device_Library/Class/CDC/usbd_cdc.cpp ****                  CDC_CMD_PACKET_SIZE);
 385              		.loc 1 514 0
 386 0064 7868     		ldr	r0, [r7, #4]	@, pdev
 387 0066 4FF08201 		mov	r1, #130	@,
 388 006a 4FF00302 		mov	r2, #3	@,
 389 006e 4FF00803 		mov	r3, #8	@,
 390 0072 FFF7FEFF 		bl	_Z14USBD_LL_OpenEPP19_USBD_HandleTypeDefhht	@
 515:Middlewares/ST/STM32_USB_Device_Library/Class/CDC/usbd_cdc.cpp ****   
 516:Middlewares/ST/STM32_USB_Device_Library/Class/CDC/usbd_cdc.cpp ****     
 517:Middlewares/ST/STM32_USB_Device_Library/Class/CDC/usbd_cdc.cpp ****   pdev->pClassData = USBD_malloc(sizeof (USBD_CDC_HandleTypeDef));
 391              		.loc 1 517 0
 392 0076 4FF40770 		mov	r0, #540	@,
 393 007a FFF7FEFF 		bl	_Z18USBD_static_mallocm	@
 394 007e 0246     		mov	r2, r0	@ D.7823,
 395 0080 7B68     		ldr	r3, [r7, #4]	@ tmp149, pdev
ARM GAS  /tmp/ccxt9WWh.s 			page 17


 396 0082 C3F81822 		str	r2, [r3, #536]	@ D.7823, pdev_3(D)->pClassData
 518:Middlewares/ST/STM32_USB_Device_Library/Class/CDC/usbd_cdc.cpp ****   
 519:Middlewares/ST/STM32_USB_Device_Library/Class/CDC/usbd_cdc.cpp ****   if(pdev->pClassData == NULL)
 397              		.loc 1 519 0
 398 0086 7B68     		ldr	r3, [r7, #4]	@ tmp150, pdev
 399 0088 D3F81832 		ldr	r3, [r3, #536]	@ D.7824, pdev_3(D)->pClassData
 400 008c 002B     		cmp	r3, #0	@ D.7824,
 401 008e 03D1     		bne	.L4	@,
 520:Middlewares/ST/STM32_USB_Device_Library/Class/CDC/usbd_cdc.cpp ****   {
 521:Middlewares/ST/STM32_USB_Device_Library/Class/CDC/usbd_cdc.cpp ****     ret = 1; 
 402              		.loc 1 521 0
 403 0090 4FF00103 		mov	r3, #1	@ tmp151,
 404 0094 FB73     		strb	r3, [r7, #15]	@ tmp152, ret
 405 0096 2DE0     		b	.L5	@
 406              	.L4:
 522:Middlewares/ST/STM32_USB_Device_Library/Class/CDC/usbd_cdc.cpp ****   }
 523:Middlewares/ST/STM32_USB_Device_Library/Class/CDC/usbd_cdc.cpp ****   else
 524:Middlewares/ST/STM32_USB_Device_Library/Class/CDC/usbd_cdc.cpp ****   {
 525:Middlewares/ST/STM32_USB_Device_Library/Class/CDC/usbd_cdc.cpp ****     hcdc = pdev->pClassData;
 407              		.loc 1 525 0
 408 0098 7B68     		ldr	r3, [r7, #4]	@ tmp153, pdev
 409 009a D3F81832 		ldr	r3, [r3, #536]	@ tmp154, pdev_3(D)->pClassData
 410 009e BB60     		str	r3, [r7, #8]	@ tmp154, hcdc
 526:Middlewares/ST/STM32_USB_Device_Library/Class/CDC/usbd_cdc.cpp ****     
 527:Middlewares/ST/STM32_USB_Device_Library/Class/CDC/usbd_cdc.cpp ****     /* Init  physical Interface components */
 528:Middlewares/ST/STM32_USB_Device_Library/Class/CDC/usbd_cdc.cpp ****     ((USBD_CDC_ItfTypeDef *)pdev->pUserData)->Init();
 411              		.loc 1 528 0
 412 00a0 7B68     		ldr	r3, [r7, #4]	@ tmp155, pdev
 413 00a2 D3F81C32 		ldr	r3, [r3, #540]	@ D.7828, pdev_3(D)->pUserData
 414 00a6 1B68     		ldr	r3, [r3, #0]	@ D.7829, MEM[(struct USBD_CDC_ItfTypeDef *)D.7828_9].Init
 415 00a8 9847     		blx	r3	@ D.7829
 529:Middlewares/ST/STM32_USB_Device_Library/Class/CDC/usbd_cdc.cpp ****     
 530:Middlewares/ST/STM32_USB_Device_Library/Class/CDC/usbd_cdc.cpp ****     /* Init Xfer states */
 531:Middlewares/ST/STM32_USB_Device_Library/Class/CDC/usbd_cdc.cpp ****     hcdc->TxState =0;
 416              		.loc 1 531 0
 417 00aa BB68     		ldr	r3, [r7, #8]	@ tmp156, hcdc
 418 00ac 4FF00002 		mov	r2, #0	@ tmp157,
 419 00b0 C3F81422 		str	r2, [r3, #532]	@ tmp157, hcdc_8->TxState
 532:Middlewares/ST/STM32_USB_Device_Library/Class/CDC/usbd_cdc.cpp ****     hcdc->RxState =0;
 420              		.loc 1 532 0
 421 00b4 BB68     		ldr	r3, [r7, #8]	@ tmp158, hcdc
 422 00b6 4FF00002 		mov	r2, #0	@ tmp159,
 423 00ba C3F81822 		str	r2, [r3, #536]	@ tmp159, hcdc_8->RxState
 533:Middlewares/ST/STM32_USB_Device_Library/Class/CDC/usbd_cdc.cpp ****        
 534:Middlewares/ST/STM32_USB_Device_Library/Class/CDC/usbd_cdc.cpp ****     if(pdev->dev_speed == USBD_SPEED_HIGH  ) 
 424              		.loc 1 534 0
 425 00be 7B68     		ldr	r3, [r7, #4]	@ tmp160, pdev
 426 00c0 1B7C     		ldrb	r3, [r3, #16]	@ zero_extendqisi2	@ D.7830, pdev_3(D)->dev_speed
 427 00c2 002B     		cmp	r3, #0	@ D.7830,
 428 00c4 0BD1     		bne	.L6	@,
 535:Middlewares/ST/STM32_USB_Device_Library/Class/CDC/usbd_cdc.cpp ****     {      
 536:Middlewares/ST/STM32_USB_Device_Library/Class/CDC/usbd_cdc.cpp ****       /* Prepare Out endpoint to receive next packet */
 537:Middlewares/ST/STM32_USB_Device_Library/Class/CDC/usbd_cdc.cpp ****       USBD_LL_PrepareReceive(pdev,
 538:Middlewares/ST/STM32_USB_Device_Library/Class/CDC/usbd_cdc.cpp ****                              CDC_OUT_EP,
 539:Middlewares/ST/STM32_USB_Device_Library/Class/CDC/usbd_cdc.cpp ****                              hcdc->RxBuffer,
 540:Middlewares/ST/STM32_USB_Device_Library/Class/CDC/usbd_cdc.cpp ****                              CDC_DATA_HS_OUT_PACKET_SIZE);
 429              		.loc 1 540 0
ARM GAS  /tmp/ccxt9WWh.s 			page 18


 430 00c6 BB68     		ldr	r3, [r7, #8]	@ tmp161, hcdc
 431 00c8 D3F80432 		ldr	r3, [r3, #516]	@ D.7833, hcdc_8->RxBuffer
 432 00cc 7868     		ldr	r0, [r7, #4]	@, pdev
 433 00ce 4FF00101 		mov	r1, #1	@,
 434 00d2 1A46     		mov	r2, r3	@, D.7833
 435 00d4 4FF40073 		mov	r3, #512	@,
 436 00d8 FFF7FEFF 		bl	_Z22USBD_LL_PrepareReceiveP19_USBD_HandleTypeDefhPht	@
 437 00dc 0AE0     		b	.L5	@
 438              	.L6:
 541:Middlewares/ST/STM32_USB_Device_Library/Class/CDC/usbd_cdc.cpp ****     }
 542:Middlewares/ST/STM32_USB_Device_Library/Class/CDC/usbd_cdc.cpp ****     else
 543:Middlewares/ST/STM32_USB_Device_Library/Class/CDC/usbd_cdc.cpp ****     {
 544:Middlewares/ST/STM32_USB_Device_Library/Class/CDC/usbd_cdc.cpp ****       /* Prepare Out endpoint to receive next packet */
 545:Middlewares/ST/STM32_USB_Device_Library/Class/CDC/usbd_cdc.cpp ****       USBD_LL_PrepareReceive(pdev,
 546:Middlewares/ST/STM32_USB_Device_Library/Class/CDC/usbd_cdc.cpp ****                              CDC_OUT_EP,
 547:Middlewares/ST/STM32_USB_Device_Library/Class/CDC/usbd_cdc.cpp ****                              hcdc->RxBuffer,
 548:Middlewares/ST/STM32_USB_Device_Library/Class/CDC/usbd_cdc.cpp ****                              CDC_DATA_FS_OUT_PACKET_SIZE);
 439              		.loc 1 548 0
 440 00de BB68     		ldr	r3, [r7, #8]	@ tmp162, hcdc
 441 00e0 D3F80432 		ldr	r3, [r3, #516]	@ D.7835, hcdc_8->RxBuffer
 442 00e4 7868     		ldr	r0, [r7, #4]	@, pdev
 443 00e6 4FF00101 		mov	r1, #1	@,
 444 00ea 1A46     		mov	r2, r3	@, D.7835
 445 00ec 4FF04003 		mov	r3, #64	@,
 446 00f0 FFF7FEFF 		bl	_Z22USBD_LL_PrepareReceiveP19_USBD_HandleTypeDefhPht	@
 447              	.L5:
 549:Middlewares/ST/STM32_USB_Device_Library/Class/CDC/usbd_cdc.cpp ****     }
 550:Middlewares/ST/STM32_USB_Device_Library/Class/CDC/usbd_cdc.cpp ****     
 551:Middlewares/ST/STM32_USB_Device_Library/Class/CDC/usbd_cdc.cpp ****     
 552:Middlewares/ST/STM32_USB_Device_Library/Class/CDC/usbd_cdc.cpp ****   }
 553:Middlewares/ST/STM32_USB_Device_Library/Class/CDC/usbd_cdc.cpp ****   return ret;
 448              		.loc 1 553 0
 449 00f4 FB7B     		ldrb	r3, [r7, #15]	@ zero_extendqisi2	@ D.7836, ret
 450              	.LBE2:
 554:Middlewares/ST/STM32_USB_Device_Library/Class/CDC/usbd_cdc.cpp **** }
 451              		.loc 1 554 0
 452 00f6 1846     		mov	r0, r3	@, <retval>
 453 00f8 07F11007 		add	r7, r7, #16	@,,
 454 00fc BD46     		mov	sp, r7
 455 00fe 80BD     		pop	{r7, pc}
 456              		.cfi_endproc
 457              	.LFE56:
 458              		.size	_ZL13USBD_CDC_InitP19_USBD_HandleTypeDefh, .-_ZL13USBD_CDC_InitP19_USBD_HandleTypeDefh
 459              		.section	.text._ZL15USBD_CDC_DeInitP19_USBD_HandleTypeDefh,"ax",%progbits
 460              		.align	2
 461              		.thumb
 462              		.thumb_func
 463              		.type	_ZL15USBD_CDC_DeInitP19_USBD_HandleTypeDefh, %function
 464              	_ZL15USBD_CDC_DeInitP19_USBD_HandleTypeDefh:
 465              	.LFB57:
 555:Middlewares/ST/STM32_USB_Device_Library/Class/CDC/usbd_cdc.cpp **** 
 556:Middlewares/ST/STM32_USB_Device_Library/Class/CDC/usbd_cdc.cpp **** /**
 557:Middlewares/ST/STM32_USB_Device_Library/Class/CDC/usbd_cdc.cpp ****   * @brief  USBD_CDC_Init
 558:Middlewares/ST/STM32_USB_Device_Library/Class/CDC/usbd_cdc.cpp ****   *         DeInitialize the CDC layer
 559:Middlewares/ST/STM32_USB_Device_Library/Class/CDC/usbd_cdc.cpp ****   * @param  pdev: device instance
 560:Middlewares/ST/STM32_USB_Device_Library/Class/CDC/usbd_cdc.cpp ****   * @param  cfgidx: Configuration index
 561:Middlewares/ST/STM32_USB_Device_Library/Class/CDC/usbd_cdc.cpp ****   * @retval status
ARM GAS  /tmp/ccxt9WWh.s 			page 19


 562:Middlewares/ST/STM32_USB_Device_Library/Class/CDC/usbd_cdc.cpp ****   */
 563:Middlewares/ST/STM32_USB_Device_Library/Class/CDC/usbd_cdc.cpp **** static uint8_t  USBD_CDC_DeInit (USBD_HandleTypeDef *pdev, 
 564:Middlewares/ST/STM32_USB_Device_Library/Class/CDC/usbd_cdc.cpp ****                                  uint8_t cfgidx)
 565:Middlewares/ST/STM32_USB_Device_Library/Class/CDC/usbd_cdc.cpp **** {
 466              		.loc 1 565 0
 467              		.cfi_startproc
 468              		@ args = 0, pretend = 0, frame = 16
 469              		@ frame_needed = 1, uses_anonymous_args = 0
 470 0000 80B5     		push	{r7, lr}	@
 471              	.LCFI3:
 472              		.cfi_def_cfa_offset 8
 473              		.cfi_offset 7, -8
 474              		.cfi_offset 14, -4
 475 0002 84B0     		sub	sp, sp, #16	@,,
 476              	.LCFI4:
 477              		.cfi_def_cfa_offset 24
 478 0004 00AF     		add	r7, sp, #0	@,,
 479              	.LCFI5:
 480              		.cfi_def_cfa_register 7
 481 0006 7860     		str	r0, [r7, #4]	@ pdev, pdev
 482 0008 0B46     		mov	r3, r1	@ tmp140, cfgidx
 483 000a FB70     		strb	r3, [r7, #3]	@ tmp141, cfgidx
 484              	.LBB3:
 566:Middlewares/ST/STM32_USB_Device_Library/Class/CDC/usbd_cdc.cpp ****   uint8_t ret = 0;
 485              		.loc 1 566 0
 486 000c 4FF00003 		mov	r3, #0	@ tmp142,
 487 0010 FB73     		strb	r3, [r7, #15]	@ tmp143, ret
 567:Middlewares/ST/STM32_USB_Device_Library/Class/CDC/usbd_cdc.cpp ****   
 568:Middlewares/ST/STM32_USB_Device_Library/Class/CDC/usbd_cdc.cpp ****   /* Open EP IN */
 569:Middlewares/ST/STM32_USB_Device_Library/Class/CDC/usbd_cdc.cpp ****   USBD_LL_CloseEP(pdev,
 570:Middlewares/ST/STM32_USB_Device_Library/Class/CDC/usbd_cdc.cpp ****               CDC_IN_EP);
 488              		.loc 1 570 0
 489 0012 7868     		ldr	r0, [r7, #4]	@, pdev
 490 0014 4FF08101 		mov	r1, #129	@,
 491 0018 FFF7FEFF 		bl	_Z15USBD_LL_CloseEPP19_USBD_HandleTypeDefh	@
 571:Middlewares/ST/STM32_USB_Device_Library/Class/CDC/usbd_cdc.cpp ****   
 572:Middlewares/ST/STM32_USB_Device_Library/Class/CDC/usbd_cdc.cpp ****   /* Open EP OUT */
 573:Middlewares/ST/STM32_USB_Device_Library/Class/CDC/usbd_cdc.cpp ****   USBD_LL_CloseEP(pdev,
 574:Middlewares/ST/STM32_USB_Device_Library/Class/CDC/usbd_cdc.cpp ****               CDC_OUT_EP);
 492              		.loc 1 574 0
 493 001c 7868     		ldr	r0, [r7, #4]	@, pdev
 494 001e 4FF00101 		mov	r1, #1	@,
 495 0022 FFF7FEFF 		bl	_Z15USBD_LL_CloseEPP19_USBD_HandleTypeDefh	@
 575:Middlewares/ST/STM32_USB_Device_Library/Class/CDC/usbd_cdc.cpp ****   
 576:Middlewares/ST/STM32_USB_Device_Library/Class/CDC/usbd_cdc.cpp ****   /* Open Command IN EP */
 577:Middlewares/ST/STM32_USB_Device_Library/Class/CDC/usbd_cdc.cpp ****   USBD_LL_CloseEP(pdev,
 578:Middlewares/ST/STM32_USB_Device_Library/Class/CDC/usbd_cdc.cpp ****               CDC_CMD_EP);
 496              		.loc 1 578 0
 497 0026 7868     		ldr	r0, [r7, #4]	@, pdev
 498 0028 4FF08201 		mov	r1, #130	@,
 499 002c FFF7FEFF 		bl	_Z15USBD_LL_CloseEPP19_USBD_HandleTypeDefh	@
 579:Middlewares/ST/STM32_USB_Device_Library/Class/CDC/usbd_cdc.cpp ****   
 580:Middlewares/ST/STM32_USB_Device_Library/Class/CDC/usbd_cdc.cpp ****   
 581:Middlewares/ST/STM32_USB_Device_Library/Class/CDC/usbd_cdc.cpp ****   /* DeInit  physical Interface components */
 582:Middlewares/ST/STM32_USB_Device_Library/Class/CDC/usbd_cdc.cpp ****   if(pdev->pClassData != NULL)
 500              		.loc 1 582 0
 501 0030 7B68     		ldr	r3, [r7, #4]	@ tmp144, pdev
ARM GAS  /tmp/ccxt9WWh.s 			page 20


 502 0032 D3F81832 		ldr	r3, [r3, #536]	@ D.7810, pdev_2(D)->pClassData
 503 0036 002B     		cmp	r3, #0	@ D.7810,
 504 0038 0FD0     		beq	.L9	@,
 583:Middlewares/ST/STM32_USB_Device_Library/Class/CDC/usbd_cdc.cpp ****   {
 584:Middlewares/ST/STM32_USB_Device_Library/Class/CDC/usbd_cdc.cpp ****     ((USBD_CDC_ItfTypeDef *)pdev->pUserData)->DeInit();
 505              		.loc 1 584 0
 506 003a 7B68     		ldr	r3, [r7, #4]	@ tmp145, pdev
 507 003c D3F81C32 		ldr	r3, [r3, #540]	@ D.7813, pdev_2(D)->pUserData
 508 0040 5B68     		ldr	r3, [r3, #4]	@ D.7814, MEM[(struct USBD_CDC_ItfTypeDef *)D.7813_4].DeInit
 509 0042 9847     		blx	r3	@ D.7814
 585:Middlewares/ST/STM32_USB_Device_Library/Class/CDC/usbd_cdc.cpp ****     USBD_free(pdev->pClassData);
 510              		.loc 1 585 0
 511 0044 7B68     		ldr	r3, [r7, #4]	@ tmp146, pdev
 512 0046 D3F81832 		ldr	r3, [r3, #536]	@ D.7815, pdev_2(D)->pClassData
 513 004a 1846     		mov	r0, r3	@, D.7815
 514 004c FFF7FEFF 		bl	_Z16USBD_static_freePv	@
 586:Middlewares/ST/STM32_USB_Device_Library/Class/CDC/usbd_cdc.cpp ****     pdev->pClassData = NULL;
 515              		.loc 1 586 0
 516 0050 7B68     		ldr	r3, [r7, #4]	@ tmp147, pdev
 517 0052 4FF00002 		mov	r2, #0	@ tmp148,
 518 0056 C3F81822 		str	r2, [r3, #536]	@ tmp148, pdev_2(D)->pClassData
 519              	.L9:
 587:Middlewares/ST/STM32_USB_Device_Library/Class/CDC/usbd_cdc.cpp ****   }
 588:Middlewares/ST/STM32_USB_Device_Library/Class/CDC/usbd_cdc.cpp ****   
 589:Middlewares/ST/STM32_USB_Device_Library/Class/CDC/usbd_cdc.cpp ****   return ret;
 520              		.loc 1 589 0
 521 005a FB7B     		ldrb	r3, [r7, #15]	@ zero_extendqisi2	@ D.7817, ret
 522              	.LBE3:
 590:Middlewares/ST/STM32_USB_Device_Library/Class/CDC/usbd_cdc.cpp **** }
 523              		.loc 1 590 0
 524 005c 1846     		mov	r0, r3	@, <retval>
 525 005e 07F11007 		add	r7, r7, #16	@,,
 526 0062 BD46     		mov	sp, r7
 527 0064 80BD     		pop	{r7, pc}
 528              		.cfi_endproc
 529              	.LFE57:
 530              		.size	_ZL15USBD_CDC_DeInitP19_USBD_HandleTypeDefh, .-_ZL15USBD_CDC_DeInitP19_USBD_HandleTypeDefh
 531 0066 00BF     		.section	.text._ZL14USBD_CDC_SetupP19_USBD_HandleTypeDefP13usb_setup_req,"ax",%progbits
 532              		.align	2
 533              		.thumb
 534              		.thumb_func
 535              		.type	_ZL14USBD_CDC_SetupP19_USBD_HandleTypeDefP13usb_setup_req, %function
 536              	_ZL14USBD_CDC_SetupP19_USBD_HandleTypeDefP13usb_setup_req:
 537              	.LFB58:
 591:Middlewares/ST/STM32_USB_Device_Library/Class/CDC/usbd_cdc.cpp **** 
 592:Middlewares/ST/STM32_USB_Device_Library/Class/CDC/usbd_cdc.cpp **** /**
 593:Middlewares/ST/STM32_USB_Device_Library/Class/CDC/usbd_cdc.cpp ****   * @brief  USBD_CDC_Setup
 594:Middlewares/ST/STM32_USB_Device_Library/Class/CDC/usbd_cdc.cpp ****   *         Handle the CDC specific requests
 595:Middlewares/ST/STM32_USB_Device_Library/Class/CDC/usbd_cdc.cpp ****   * @param  pdev: instance
 596:Middlewares/ST/STM32_USB_Device_Library/Class/CDC/usbd_cdc.cpp ****   * @param  req: usb requests
 597:Middlewares/ST/STM32_USB_Device_Library/Class/CDC/usbd_cdc.cpp ****   * @retval status
 598:Middlewares/ST/STM32_USB_Device_Library/Class/CDC/usbd_cdc.cpp ****   */
 599:Middlewares/ST/STM32_USB_Device_Library/Class/CDC/usbd_cdc.cpp **** static uint8_t  USBD_CDC_Setup (USBD_HandleTypeDef *pdev, 
 600:Middlewares/ST/STM32_USB_Device_Library/Class/CDC/usbd_cdc.cpp ****                                 USBD_SetupReqTypedef *req)
 601:Middlewares/ST/STM32_USB_Device_Library/Class/CDC/usbd_cdc.cpp **** {
 538              		.loc 1 601 0
 539              		.cfi_startproc
ARM GAS  /tmp/ccxt9WWh.s 			page 21


 540              		@ args = 0, pretend = 0, frame = 16
 541              		@ frame_needed = 1, uses_anonymous_args = 0
 542 0000 80B5     		push	{r7, lr}	@
 543              	.LCFI6:
 544              		.cfi_def_cfa_offset 8
 545              		.cfi_offset 7, -8
 546              		.cfi_offset 14, -4
 547 0002 84B0     		sub	sp, sp, #16	@,,
 548              	.LCFI7:
 549              		.cfi_def_cfa_offset 24
 550 0004 00AF     		add	r7, sp, #0	@,,
 551              	.LCFI8:
 552              		.cfi_def_cfa_register 7
 553 0006 7860     		str	r0, [r7, #4]	@ pdev, pdev
 554 0008 3960     		str	r1, [r7, #0]	@ req, req
 555              	.LBB4:
 602:Middlewares/ST/STM32_USB_Device_Library/Class/CDC/usbd_cdc.cpp ****   USBD_CDC_HandleTypeDef   *hcdc = pdev->pClassData;
 556              		.loc 1 602 0
 557 000a 7B68     		ldr	r3, [r7, #4]	@ tmp157, pdev
 558 000c D3F81832 		ldr	r3, [r3, #536]	@ tmp158, pdev_1(D)->pClassData
 559 0010 FB60     		str	r3, [r7, #12]	@ tmp158, hcdc
 603:Middlewares/ST/STM32_USB_Device_Library/Class/CDC/usbd_cdc.cpp ****   
 604:Middlewares/ST/STM32_USB_Device_Library/Class/CDC/usbd_cdc.cpp ****   switch (req->bmRequest & USB_REQ_TYPE_MASK)
 560              		.loc 1 604 0
 561 0012 3B68     		ldr	r3, [r7, #0]	@ tmp159, req
 562 0014 1B78     		ldrb	r3, [r3, #0]	@ zero_extendqisi2	@ D.7781, req_3(D)->bmRequest
 563 0016 03F06003 		and	r3, r3, #96	@ D.7783, D.7782,
 564 001a 202B     		cmp	r3, #32	@ D.7783,
 565 001c 3DD1     		bne	.L19	@,
 566              	.L13:
 605:Middlewares/ST/STM32_USB_Device_Library/Class/CDC/usbd_cdc.cpp ****   {
 606:Middlewares/ST/STM32_USB_Device_Library/Class/CDC/usbd_cdc.cpp ****   case USB_REQ_TYPE_CLASS :
 607:Middlewares/ST/STM32_USB_Device_Library/Class/CDC/usbd_cdc.cpp ****     if (req->wLength)
 567              		.loc 1 607 0
 568 001e 3B68     		ldr	r3, [r7, #0]	@ tmp160, req
 569 0020 DB88     		ldrh	r3, [r3, #6]	@ D.7784, req_3(D)->wLength
 570 0022 002B     		cmp	r3, #0	@ D.7784,
 571 0024 2CD0     		beq	.L14	@,
 608:Middlewares/ST/STM32_USB_Device_Library/Class/CDC/usbd_cdc.cpp ****     {
 609:Middlewares/ST/STM32_USB_Device_Library/Class/CDC/usbd_cdc.cpp ****       if (req->bmRequest & 0x80)
 572              		.loc 1 609 0
 573 0026 3B68     		ldr	r3, [r7, #0]	@ tmp161, req
 574 0028 1B78     		ldrb	r3, [r3, #0]	@ zero_extendqisi2	@ D.7787, req_3(D)->bmRequest
 575 002a DBB2     		uxtb	r3, r3	@ D.7788, D.7787
 576 002c 5BB2     		sxtb	r3, r3	@ tmp162, D.7788
 577 002e 002B     		cmp	r3, #0	@ tmp162,
 578 0030 12DA     		bge	.L15	@,
 610:Middlewares/ST/STM32_USB_Device_Library/Class/CDC/usbd_cdc.cpp ****       {
 611:Middlewares/ST/STM32_USB_Device_Library/Class/CDC/usbd_cdc.cpp ****         ((USBD_CDC_ItfTypeDef *)pdev->pUserData)->Control(req->bRequest,
 612:Middlewares/ST/STM32_USB_Device_Library/Class/CDC/usbd_cdc.cpp ****                                                           (uint8_t *)hcdc->data,
 613:Middlewares/ST/STM32_USB_Device_Library/Class/CDC/usbd_cdc.cpp ****                                                           req->wLength);
 579              		.loc 1 613 0
 580 0032 7B68     		ldr	r3, [r7, #4]	@ tmp163, pdev
 581 0034 D3F81C32 		ldr	r3, [r3, #540]	@ D.7791, pdev_1(D)->pUserData
 582 0038 9B68     		ldr	r3, [r3, #8]	@ D.7792, MEM[(struct USBD_CDC_ItfTypeDef *)D.7791_10].Control
 583 003a 3A68     		ldr	r2, [r7, #0]	@ tmp164, req
 584 003c 5078     		ldrb	r0, [r2, #1]	@ zero_extendqisi2	@ D.7793, req_3(D)->bRequest
ARM GAS  /tmp/ccxt9WWh.s 			page 22


 585 003e F968     		ldr	r1, [r7, #12]	@ D.7794, hcdc
 586 0040 3A68     		ldr	r2, [r7, #0]	@ tmp165, req
 587 0042 D288     		ldrh	r2, [r2, #6]	@ D.7795, req_3(D)->wLength
 588 0044 9847     		blx	r3	@ D.7792
 614:Middlewares/ST/STM32_USB_Device_Library/Class/CDC/usbd_cdc.cpp ****           USBD_CtlSendData (pdev, 
 615:Middlewares/ST/STM32_USB_Device_Library/Class/CDC/usbd_cdc.cpp ****                             (uint8_t *)hcdc->data,
 616:Middlewares/ST/STM32_USB_Device_Library/Class/CDC/usbd_cdc.cpp ****                             req->wLength);
 589              		.loc 1 616 0
 590 0046 FA68     		ldr	r2, [r7, #12]	@ D.7796, hcdc
 591 0048 3B68     		ldr	r3, [r7, #0]	@ tmp166, req
 592 004a DB88     		ldrh	r3, [r3, #6]	@ D.7797, req_3(D)->wLength
 593 004c 7868     		ldr	r0, [r7, #4]	@, pdev
 594 004e 1146     		mov	r1, r2	@, D.7796
 595 0050 1A46     		mov	r2, r3	@, D.7797
 596 0052 FFF7FEFF 		bl	_Z16USBD_CtlSendDataP19_USBD_HandleTypeDefPht	@
 617:Middlewares/ST/STM32_USB_Device_Library/Class/CDC/usbd_cdc.cpp ****       }
 618:Middlewares/ST/STM32_USB_Device_Library/Class/CDC/usbd_cdc.cpp ****       else
 619:Middlewares/ST/STM32_USB_Device_Library/Class/CDC/usbd_cdc.cpp ****       {
 620:Middlewares/ST/STM32_USB_Device_Library/Class/CDC/usbd_cdc.cpp ****         hcdc->CmdOpCode = req->bRequest;
 621:Middlewares/ST/STM32_USB_Device_Library/Class/CDC/usbd_cdc.cpp ****         hcdc->CmdLength = req->wLength;
 622:Middlewares/ST/STM32_USB_Device_Library/Class/CDC/usbd_cdc.cpp ****         
 623:Middlewares/ST/STM32_USB_Device_Library/Class/CDC/usbd_cdc.cpp ****         USBD_CtlPrepareRx (pdev, 
 624:Middlewares/ST/STM32_USB_Device_Library/Class/CDC/usbd_cdc.cpp ****                            (uint8_t *)hcdc->data,
 625:Middlewares/ST/STM32_USB_Device_Library/Class/CDC/usbd_cdc.cpp ****                            req->wLength);
 626:Middlewares/ST/STM32_USB_Device_Library/Class/CDC/usbd_cdc.cpp ****       }
 627:Middlewares/ST/STM32_USB_Device_Library/Class/CDC/usbd_cdc.cpp ****       
 628:Middlewares/ST/STM32_USB_Device_Library/Class/CDC/usbd_cdc.cpp ****     }
 629:Middlewares/ST/STM32_USB_Device_Library/Class/CDC/usbd_cdc.cpp ****     else
 630:Middlewares/ST/STM32_USB_Device_Library/Class/CDC/usbd_cdc.cpp ****     {
 631:Middlewares/ST/STM32_USB_Device_Library/Class/CDC/usbd_cdc.cpp ****         ((USBD_CDC_ItfTypeDef *)pdev->pUserData)->Control(req->bRequest,
 632:Middlewares/ST/STM32_USB_Device_Library/Class/CDC/usbd_cdc.cpp ****                                                           NULL,
 633:Middlewares/ST/STM32_USB_Device_Library/Class/CDC/usbd_cdc.cpp ****                                                           0);
 634:Middlewares/ST/STM32_USB_Device_Library/Class/CDC/usbd_cdc.cpp ****     }
 635:Middlewares/ST/STM32_USB_Device_Library/Class/CDC/usbd_cdc.cpp ****     break;
 597              		.loc 1 635 0
 598 0056 21E0     		b	.L17	@
 599              	.L15:
 620:Middlewares/ST/STM32_USB_Device_Library/Class/CDC/usbd_cdc.cpp ****         hcdc->CmdOpCode = req->bRequest;
 600              		.loc 1 620 0
 601 0058 3B68     		ldr	r3, [r7, #0]	@ tmp167, req
 602 005a 5A78     		ldrb	r2, [r3, #1]	@ zero_extendqisi2	@ D.7799, req_3(D)->bRequest
 603 005c FB68     		ldr	r3, [r7, #12]	@ tmp168, hcdc
 604 005e 83F80022 		strb	r2, [r3, #512]	@ tmp169, hcdc_2->CmdOpCode
 621:Middlewares/ST/STM32_USB_Device_Library/Class/CDC/usbd_cdc.cpp ****         hcdc->CmdLength = req->wLength;
 605              		.loc 1 621 0
 606 0062 3B68     		ldr	r3, [r7, #0]	@ tmp170, req
 607 0064 DB88     		ldrh	r3, [r3, #6]	@ D.7800, req_3(D)->wLength
 608 0066 DAB2     		uxtb	r2, r3	@ D.7801, D.7800
 609 0068 FB68     		ldr	r3, [r7, #12]	@ tmp171, hcdc
 610 006a 83F80122 		strb	r2, [r3, #513]	@ tmp172, hcdc_2->CmdLength
 625:Middlewares/ST/STM32_USB_Device_Library/Class/CDC/usbd_cdc.cpp ****                            req->wLength);
 611              		.loc 1 625 0
 612 006e FA68     		ldr	r2, [r7, #12]	@ D.7802, hcdc
 613 0070 3B68     		ldr	r3, [r7, #0]	@ tmp173, req
 614 0072 DB88     		ldrh	r3, [r3, #6]	@ D.7803, req_3(D)->wLength
 615 0074 7868     		ldr	r0, [r7, #4]	@, pdev
 616 0076 1146     		mov	r1, r2	@, D.7802
ARM GAS  /tmp/ccxt9WWh.s 			page 23


 617 0078 1A46     		mov	r2, r3	@, D.7803
 618 007a FFF7FEFF 		bl	_Z17USBD_CtlPrepareRxP19_USBD_HandleTypeDefPht	@
 619              		.loc 1 635 0
 620 007e 0DE0     		b	.L17	@
 621              	.L14:
 633:Middlewares/ST/STM32_USB_Device_Library/Class/CDC/usbd_cdc.cpp ****                                                           0);
 622              		.loc 1 633 0
 623 0080 7B68     		ldr	r3, [r7, #4]	@ tmp174, pdev
 624 0082 D3F81C32 		ldr	r3, [r3, #540]	@ D.7805, pdev_1(D)->pUserData
 625 0086 9B68     		ldr	r3, [r3, #8]	@ D.7806, MEM[(struct USBD_CDC_ItfTypeDef *)D.7805_22].Control
 626 0088 3A68     		ldr	r2, [r7, #0]	@ tmp175, req
 627 008a 5278     		ldrb	r2, [r2, #1]	@ zero_extendqisi2	@ D.7807, req_3(D)->bRequest
 628 008c 1046     		mov	r0, r2	@, D.7807
 629 008e 4FF00001 		mov	r1, #0	@,
 630 0092 4FF00002 		mov	r2, #0	@,
 631 0096 9847     		blx	r3	@ D.7806
 632              		.loc 1 635 0
 633 0098 00E0     		b	.L17	@
 634              	.L19:
 636:Middlewares/ST/STM32_USB_Device_Library/Class/CDC/usbd_cdc.cpp ****  
 637:Middlewares/ST/STM32_USB_Device_Library/Class/CDC/usbd_cdc.cpp ****   default: 
 638:Middlewares/ST/STM32_USB_Device_Library/Class/CDC/usbd_cdc.cpp ****     break;
 635              		.loc 1 638 0
 636 009a 00BF     		nop
 637              	.L17:
 639:Middlewares/ST/STM32_USB_Device_Library/Class/CDC/usbd_cdc.cpp ****   }
 640:Middlewares/ST/STM32_USB_Device_Library/Class/CDC/usbd_cdc.cpp ****   return USBD_OK;
 638              		.loc 1 640 0
 639 009c 4FF00003 		mov	r3, #0	@ D.7808,
 640              	.LBE4:
 641:Middlewares/ST/STM32_USB_Device_Library/Class/CDC/usbd_cdc.cpp **** }
 641              		.loc 1 641 0
 642 00a0 1846     		mov	r0, r3	@, <retval>
 643 00a2 07F11007 		add	r7, r7, #16	@,,
 644 00a6 BD46     		mov	sp, r7
 645 00a8 80BD     		pop	{r7, pc}
 646              		.cfi_endproc
 647              	.LFE58:
 648              		.size	_ZL14USBD_CDC_SetupP19_USBD_HandleTypeDefP13usb_setup_req, .-_ZL14USBD_CDC_SetupP19_USBD_Han
 649 00aa 00BF     		.section	.text._ZL15USBD_CDC_DataInP19_USBD_HandleTypeDefh,"ax",%progbits
 650              		.align	2
 651              		.thumb
 652              		.thumb_func
 653              		.type	_ZL15USBD_CDC_DataInP19_USBD_HandleTypeDefh, %function
 654              	_ZL15USBD_CDC_DataInP19_USBD_HandleTypeDefh:
 655              	.LFB59:
 642:Middlewares/ST/STM32_USB_Device_Library/Class/CDC/usbd_cdc.cpp **** 
 643:Middlewares/ST/STM32_USB_Device_Library/Class/CDC/usbd_cdc.cpp **** /**
 644:Middlewares/ST/STM32_USB_Device_Library/Class/CDC/usbd_cdc.cpp ****   * @brief  usbd_audio_DataIn
 645:Middlewares/ST/STM32_USB_Device_Library/Class/CDC/usbd_cdc.cpp ****   *         Data sent on non-control IN endpoint
 646:Middlewares/ST/STM32_USB_Device_Library/Class/CDC/usbd_cdc.cpp ****   * @param  pdev: device instance
 647:Middlewares/ST/STM32_USB_Device_Library/Class/CDC/usbd_cdc.cpp ****   * @param  epnum: endpoint number
 648:Middlewares/ST/STM32_USB_Device_Library/Class/CDC/usbd_cdc.cpp ****   * @retval status
 649:Middlewares/ST/STM32_USB_Device_Library/Class/CDC/usbd_cdc.cpp ****   */
 650:Middlewares/ST/STM32_USB_Device_Library/Class/CDC/usbd_cdc.cpp **** static uint8_t  USBD_CDC_DataIn (USBD_HandleTypeDef *pdev, uint8_t epnum)
 651:Middlewares/ST/STM32_USB_Device_Library/Class/CDC/usbd_cdc.cpp **** {
 656              		.loc 1 651 0
ARM GAS  /tmp/ccxt9WWh.s 			page 24


 657              		.cfi_startproc
 658              		@ args = 0, pretend = 0, frame = 16
 659              		@ frame_needed = 1, uses_anonymous_args = 0
 660              		@ link register save eliminated.
 661 0000 80B4     		push	{r7}	@
 662              	.LCFI9:
 663              		.cfi_def_cfa_offset 4
 664              		.cfi_offset 7, -4
 665 0002 85B0     		sub	sp, sp, #20	@,,
 666              	.LCFI10:
 667              		.cfi_def_cfa_offset 24
 668 0004 00AF     		add	r7, sp, #0	@,,
 669              	.LCFI11:
 670              		.cfi_def_cfa_register 7
 671 0006 7860     		str	r0, [r7, #4]	@ pdev, pdev
 672 0008 0B46     		mov	r3, r1	@ tmp137, epnum
 673 000a FB70     		strb	r3, [r7, #3]	@ tmp138, epnum
 674              	.LBB5:
 652:Middlewares/ST/STM32_USB_Device_Library/Class/CDC/usbd_cdc.cpp ****   USBD_CDC_HandleTypeDef   *hcdc = pdev->pClassData;
 675              		.loc 1 652 0
 676 000c 7B68     		ldr	r3, [r7, #4]	@ tmp139, pdev
 677 000e D3F81832 		ldr	r3, [r3, #536]	@ tmp140, pdev_2(D)->pClassData
 678 0012 FB60     		str	r3, [r7, #12]	@ tmp140, hcdc
 653:Middlewares/ST/STM32_USB_Device_Library/Class/CDC/usbd_cdc.cpp ****   
 654:Middlewares/ST/STM32_USB_Device_Library/Class/CDC/usbd_cdc.cpp ****   if(pdev->pClassData != NULL)
 679              		.loc 1 654 0
 680 0014 7B68     		ldr	r3, [r7, #4]	@ tmp141, pdev
 681 0016 D3F81832 		ldr	r3, [r3, #536]	@ D.7775, pdev_2(D)->pClassData
 682 001a 002B     		cmp	r3, #0	@ D.7775,
 683 001c 07D0     		beq	.L21	@,
 655:Middlewares/ST/STM32_USB_Device_Library/Class/CDC/usbd_cdc.cpp ****   {
 656:Middlewares/ST/STM32_USB_Device_Library/Class/CDC/usbd_cdc.cpp ****     
 657:Middlewares/ST/STM32_USB_Device_Library/Class/CDC/usbd_cdc.cpp ****     hcdc->TxState = 0;
 684              		.loc 1 657 0
 685 001e FB68     		ldr	r3, [r7, #12]	@ tmp142, hcdc
 686 0020 4FF00002 		mov	r2, #0	@ tmp143,
 687 0024 C3F81422 		str	r2, [r3, #532]	@ tmp143, hcdc_3->TxState
 658:Middlewares/ST/STM32_USB_Device_Library/Class/CDC/usbd_cdc.cpp **** 
 659:Middlewares/ST/STM32_USB_Device_Library/Class/CDC/usbd_cdc.cpp ****     return USBD_OK;
 688              		.loc 1 659 0
 689 0028 4FF00003 		mov	r3, #0	@ D.7778,
 690 002c 01E0     		b	.L22	@
 691              	.L21:
 660:Middlewares/ST/STM32_USB_Device_Library/Class/CDC/usbd_cdc.cpp ****   }
 661:Middlewares/ST/STM32_USB_Device_Library/Class/CDC/usbd_cdc.cpp ****   else
 662:Middlewares/ST/STM32_USB_Device_Library/Class/CDC/usbd_cdc.cpp ****   {
 663:Middlewares/ST/STM32_USB_Device_Library/Class/CDC/usbd_cdc.cpp ****     return USBD_FAIL;
 692              		.loc 1 663 0
 693 002e 4FF00203 		mov	r3, #2	@ D.7778,
 694              	.L22:
 695              	.LBE5:
 664:Middlewares/ST/STM32_USB_Device_Library/Class/CDC/usbd_cdc.cpp ****   }
 665:Middlewares/ST/STM32_USB_Device_Library/Class/CDC/usbd_cdc.cpp **** }
 696              		.loc 1 665 0
 697 0032 1846     		mov	r0, r3	@, <retval>
 698 0034 07F11407 		add	r7, r7, #20	@,,
 699 0038 BD46     		mov	sp, r7
ARM GAS  /tmp/ccxt9WWh.s 			page 25


 700 003a 80BC     		pop	{r7}
 701 003c 7047     		bx	lr
 702              		.cfi_endproc
 703              	.LFE59:
 704              		.size	_ZL15USBD_CDC_DataInP19_USBD_HandleTypeDefh, .-_ZL15USBD_CDC_DataInP19_USBD_HandleTypeDefh
 705 003e 00BF     		.section	.text._ZL16USBD_CDC_DataOutP19_USBD_HandleTypeDefh,"ax",%progbits
 706              		.align	2
 707              		.thumb
 708              		.thumb_func
 709              		.type	_ZL16USBD_CDC_DataOutP19_USBD_HandleTypeDefh, %function
 710              	_ZL16USBD_CDC_DataOutP19_USBD_HandleTypeDefh:
 711              	.LFB60:
 666:Middlewares/ST/STM32_USB_Device_Library/Class/CDC/usbd_cdc.cpp **** 
 667:Middlewares/ST/STM32_USB_Device_Library/Class/CDC/usbd_cdc.cpp **** /**
 668:Middlewares/ST/STM32_USB_Device_Library/Class/CDC/usbd_cdc.cpp ****   * @brief  USBD_CDC_DataOut
 669:Middlewares/ST/STM32_USB_Device_Library/Class/CDC/usbd_cdc.cpp ****   *         Data received on non-control Out endpoint
 670:Middlewares/ST/STM32_USB_Device_Library/Class/CDC/usbd_cdc.cpp ****   * @param  pdev: device instance
 671:Middlewares/ST/STM32_USB_Device_Library/Class/CDC/usbd_cdc.cpp ****   * @param  epnum: endpoint number
 672:Middlewares/ST/STM32_USB_Device_Library/Class/CDC/usbd_cdc.cpp ****   * @retval status
 673:Middlewares/ST/STM32_USB_Device_Library/Class/CDC/usbd_cdc.cpp ****   */
 674:Middlewares/ST/STM32_USB_Device_Library/Class/CDC/usbd_cdc.cpp **** static uint8_t  USBD_CDC_DataOut (USBD_HandleTypeDef *pdev, uint8_t epnum)
 675:Middlewares/ST/STM32_USB_Device_Library/Class/CDC/usbd_cdc.cpp **** {      
 712              		.loc 1 675 0
 713              		.cfi_startproc
 714              		@ args = 0, pretend = 0, frame = 16
 715              		@ frame_needed = 1, uses_anonymous_args = 0
 716 0000 80B5     		push	{r7, lr}	@
 717              	.LCFI12:
 718              		.cfi_def_cfa_offset 8
 719              		.cfi_offset 7, -8
 720              		.cfi_offset 14, -4
 721 0002 84B0     		sub	sp, sp, #16	@,,
 722              	.LCFI13:
 723              		.cfi_def_cfa_offset 24
 724 0004 00AF     		add	r7, sp, #0	@,,
 725              	.LCFI14:
 726              		.cfi_def_cfa_register 7
 727 0006 7860     		str	r0, [r7, #4]	@ pdev, pdev
 728 0008 0B46     		mov	r3, r1	@ tmp142, epnum
 729 000a FB70     		strb	r3, [r7, #3]	@ tmp143, epnum
 730              	.LBB6:
 676:Middlewares/ST/STM32_USB_Device_Library/Class/CDC/usbd_cdc.cpp ****   USBD_CDC_HandleTypeDef   *hcdc = pdev->pClassData;
 731              		.loc 1 676 0
 732 000c 7B68     		ldr	r3, [r7, #4]	@ tmp144, pdev
 733 000e D3F81832 		ldr	r3, [r3, #536]	@ tmp145, pdev_2(D)->pClassData
 734 0012 FB60     		str	r3, [r7, #12]	@ tmp145, hcdc
 677:Middlewares/ST/STM32_USB_Device_Library/Class/CDC/usbd_cdc.cpp ****   
 678:Middlewares/ST/STM32_USB_Device_Library/Class/CDC/usbd_cdc.cpp ****   /* Get the received data length */
 679:Middlewares/ST/STM32_USB_Device_Library/Class/CDC/usbd_cdc.cpp ****   hcdc->RxLength = USBD_LL_GetRxDataSize (pdev, epnum);
 735              		.loc 1 679 0
 736 0014 FB78     		ldrb	r3, [r7, #3]	@ zero_extendqisi2	@ tmp146, epnum
 737 0016 7868     		ldr	r0, [r7, #4]	@, pdev
 738 0018 1946     		mov	r1, r3	@, tmp146
 739 001a FFF7FEFF 		bl	_Z21USBD_LL_GetRxDataSizeP19_USBD_HandleTypeDefh	@
 740 001e 0246     		mov	r2, r0	@ D.7765,
 741 0020 FB68     		ldr	r3, [r7, #12]	@ tmp147, hcdc
 742 0022 C3F80C22 		str	r2, [r3, #524]	@ D.7765, hcdc_3->RxLength
ARM GAS  /tmp/ccxt9WWh.s 			page 26


 680:Middlewares/ST/STM32_USB_Device_Library/Class/CDC/usbd_cdc.cpp ****   
 681:Middlewares/ST/STM32_USB_Device_Library/Class/CDC/usbd_cdc.cpp ****   /* USB data will be immediately processed, this allow next USB traffic being 
 682:Middlewares/ST/STM32_USB_Device_Library/Class/CDC/usbd_cdc.cpp ****   NAKed till the end of the application Xfer */
 683:Middlewares/ST/STM32_USB_Device_Library/Class/CDC/usbd_cdc.cpp ****   if(pdev->pClassData != NULL)
 743              		.loc 1 683 0
 744 0026 7B68     		ldr	r3, [r7, #4]	@ tmp148, pdev
 745 0028 D3F81832 		ldr	r3, [r3, #536]	@ D.7766, pdev_2(D)->pClassData
 746 002c 002B     		cmp	r3, #0	@ D.7766,
 747 002e 0FD0     		beq	.L24	@,
 684:Middlewares/ST/STM32_USB_Device_Library/Class/CDC/usbd_cdc.cpp ****   {
 685:Middlewares/ST/STM32_USB_Device_Library/Class/CDC/usbd_cdc.cpp ****     ((USBD_CDC_ItfTypeDef *)pdev->pUserData)->Receive(hcdc->RxBuffer, &hcdc->RxLength);
 748              		.loc 1 685 0
 749 0030 7B68     		ldr	r3, [r7, #4]	@ tmp149, pdev
 750 0032 D3F81C32 		ldr	r3, [r3, #540]	@ D.7769, pdev_2(D)->pUserData
 751 0036 DB68     		ldr	r3, [r3, #12]	@ D.7770, MEM[(struct USBD_CDC_ItfTypeDef *)D.7769_7].Receive
 752 0038 FA68     		ldr	r2, [r7, #12]	@ tmp150, hcdc
 753 003a D2F80412 		ldr	r1, [r2, #516]	@ D.7771, hcdc_3->RxBuffer
 754 003e FA68     		ldr	r2, [r7, #12]	@ tmp151, hcdc
 755 0040 02F50372 		add	r2, r2, #524	@ D.7772, tmp151,
 756 0044 0846     		mov	r0, r1	@, D.7771
 757 0046 1146     		mov	r1, r2	@, D.7772
 758 0048 9847     		blx	r3	@ D.7770
 686:Middlewares/ST/STM32_USB_Device_Library/Class/CDC/usbd_cdc.cpp **** 
 687:Middlewares/ST/STM32_USB_Device_Library/Class/CDC/usbd_cdc.cpp ****     return USBD_OK;
 759              		.loc 1 687 0
 760 004a 4FF00003 		mov	r3, #0	@ D.7773,
 761 004e 01E0     		b	.L25	@
 762              	.L24:
 688:Middlewares/ST/STM32_USB_Device_Library/Class/CDC/usbd_cdc.cpp ****   }
 689:Middlewares/ST/STM32_USB_Device_Library/Class/CDC/usbd_cdc.cpp ****   else
 690:Middlewares/ST/STM32_USB_Device_Library/Class/CDC/usbd_cdc.cpp ****   {
 691:Middlewares/ST/STM32_USB_Device_Library/Class/CDC/usbd_cdc.cpp ****     return USBD_FAIL;
 763              		.loc 1 691 0
 764 0050 4FF00203 		mov	r3, #2	@ D.7773,
 765              	.L25:
 766              	.LBE6:
 692:Middlewares/ST/STM32_USB_Device_Library/Class/CDC/usbd_cdc.cpp ****   }
 693:Middlewares/ST/STM32_USB_Device_Library/Class/CDC/usbd_cdc.cpp **** }
 767              		.loc 1 693 0
 768 0054 1846     		mov	r0, r3	@, <retval>
 769 0056 07F11007 		add	r7, r7, #16	@,,
 770 005a BD46     		mov	sp, r7
 771 005c 80BD     		pop	{r7, pc}
 772              		.cfi_endproc
 773              	.LFE60:
 774              		.size	_ZL16USBD_CDC_DataOutP19_USBD_HandleTypeDefh, .-_ZL16USBD_CDC_DataOutP19_USBD_HandleTypeDefh
 775 005e 00BF     		.section	.text._ZL20USBD_CDC_EP0_RxReadyP19_USBD_HandleTypeDef,"ax",%progbits
 776              		.align	2
 777              		.thumb
 778              		.thumb_func
 779              		.type	_ZL20USBD_CDC_EP0_RxReadyP19_USBD_HandleTypeDef, %function
 780              	_ZL20USBD_CDC_EP0_RxReadyP19_USBD_HandleTypeDef:
 781              	.LFB61:
 694:Middlewares/ST/STM32_USB_Device_Library/Class/CDC/usbd_cdc.cpp **** 
 695:Middlewares/ST/STM32_USB_Device_Library/Class/CDC/usbd_cdc.cpp **** 
 696:Middlewares/ST/STM32_USB_Device_Library/Class/CDC/usbd_cdc.cpp **** 
 697:Middlewares/ST/STM32_USB_Device_Library/Class/CDC/usbd_cdc.cpp **** /**
ARM GAS  /tmp/ccxt9WWh.s 			page 27


 698:Middlewares/ST/STM32_USB_Device_Library/Class/CDC/usbd_cdc.cpp ****   * @brief  USBD_CDC_DataOut
 699:Middlewares/ST/STM32_USB_Device_Library/Class/CDC/usbd_cdc.cpp ****   *         Data received on non-control Out endpoint
 700:Middlewares/ST/STM32_USB_Device_Library/Class/CDC/usbd_cdc.cpp ****   * @param  pdev: device instance
 701:Middlewares/ST/STM32_USB_Device_Library/Class/CDC/usbd_cdc.cpp ****   * @param  epnum: endpoint number
 702:Middlewares/ST/STM32_USB_Device_Library/Class/CDC/usbd_cdc.cpp ****   * @retval status
 703:Middlewares/ST/STM32_USB_Device_Library/Class/CDC/usbd_cdc.cpp ****   */
 704:Middlewares/ST/STM32_USB_Device_Library/Class/CDC/usbd_cdc.cpp **** static uint8_t  USBD_CDC_EP0_RxReady (USBD_HandleTypeDef *pdev)
 705:Middlewares/ST/STM32_USB_Device_Library/Class/CDC/usbd_cdc.cpp **** { 
 782              		.loc 1 705 0
 783              		.cfi_startproc
 784              		@ args = 0, pretend = 0, frame = 16
 785              		@ frame_needed = 1, uses_anonymous_args = 0
 786 0000 80B5     		push	{r7, lr}	@
 787              	.LCFI15:
 788              		.cfi_def_cfa_offset 8
 789              		.cfi_offset 7, -8
 790              		.cfi_offset 14, -4
 791 0002 84B0     		sub	sp, sp, #16	@,,
 792              	.LCFI16:
 793              		.cfi_def_cfa_offset 24
 794 0004 00AF     		add	r7, sp, #0	@,,
 795              	.LCFI17:
 796              		.cfi_def_cfa_register 7
 797 0006 7860     		str	r0, [r7, #4]	@ pdev, pdev
 798              	.LBB7:
 706:Middlewares/ST/STM32_USB_Device_Library/Class/CDC/usbd_cdc.cpp ****   USBD_CDC_HandleTypeDef   *hcdc = pdev->pClassData;
 799              		.loc 1 706 0
 800 0008 7B68     		ldr	r3, [r7, #4]	@ tmp144, pdev
 801 000a D3F81832 		ldr	r3, [r3, #536]	@ tmp145, pdev_1(D)->pClassData
 802 000e FB60     		str	r3, [r7, #12]	@ tmp145, hcdc
 707:Middlewares/ST/STM32_USB_Device_Library/Class/CDC/usbd_cdc.cpp ****   
 708:Middlewares/ST/STM32_USB_Device_Library/Class/CDC/usbd_cdc.cpp ****   if((pdev->pUserData != NULL) && (hcdc->CmdOpCode != 0xFF))
 803              		.loc 1 708 0
 804 0010 7B68     		ldr	r3, [r7, #4]	@ tmp146, pdev
 805 0012 D3F81C32 		ldr	r3, [r3, #540]	@ D.7750, pdev_1(D)->pUserData
 806 0016 002B     		cmp	r3, #0	@ D.7750,
 807 0018 15D0     		beq	.L27	@,
 808              		.loc 1 708 0 is_stmt 0 discriminator 1
 809 001a FB68     		ldr	r3, [r7, #12]	@ tmp147, hcdc
 810 001c 93F80032 		ldrb	r3, [r3, #512]	@ zero_extendqisi2	@ D.7753, hcdc_2->CmdOpCode
 811 0020 FF2B     		cmp	r3, #255	@ D.7753,
 812 0022 10D0     		beq	.L27	@,
 709:Middlewares/ST/STM32_USB_Device_Library/Class/CDC/usbd_cdc.cpp ****   {
 710:Middlewares/ST/STM32_USB_Device_Library/Class/CDC/usbd_cdc.cpp ****     ((USBD_CDC_ItfTypeDef *)pdev->pUserData)->Control(hcdc->CmdOpCode,
 711:Middlewares/ST/STM32_USB_Device_Library/Class/CDC/usbd_cdc.cpp ****                                                       (uint8_t *)hcdc->data,
 712:Middlewares/ST/STM32_USB_Device_Library/Class/CDC/usbd_cdc.cpp ****                                                       hcdc->CmdLength);
 813              		.loc 1 712 0 is_stmt 1
 814 0024 7B68     		ldr	r3, [r7, #4]	@ tmp148, pdev
 815 0026 D3F81C32 		ldr	r3, [r3, #540]	@ D.7756, pdev_1(D)->pUserData
 816 002a 9B68     		ldr	r3, [r3, #8]	@ D.7757, MEM[(struct USBD_CDC_ItfTypeDef *)D.7756_5].Control
 817 002c FA68     		ldr	r2, [r7, #12]	@ tmp149, hcdc
 818 002e 92F80002 		ldrb	r0, [r2, #512]	@ zero_extendqisi2	@ D.7758, hcdc_2->CmdOpCode
 819 0032 F968     		ldr	r1, [r7, #12]	@ D.7759, hcdc
 820 0034 FA68     		ldr	r2, [r7, #12]	@ tmp150, hcdc
 821 0036 92F80122 		ldrb	r2, [r2, #513]	@ zero_extendqisi2	@ D.7760, hcdc_2->CmdLength
 822 003a 9847     		blx	r3	@ D.7757
 713:Middlewares/ST/STM32_USB_Device_Library/Class/CDC/usbd_cdc.cpp ****       hcdc->CmdOpCode = 0xFF; 
ARM GAS  /tmp/ccxt9WWh.s 			page 28


 823              		.loc 1 713 0
 824 003c FB68     		ldr	r3, [r7, #12]	@ tmp151, hcdc
 825 003e 4FF0FF02 		mov	r2, #255	@ tmp152,
 826 0042 83F80022 		strb	r2, [r3, #512]	@ tmp153, hcdc_2->CmdOpCode
 827              	.L27:
 714:Middlewares/ST/STM32_USB_Device_Library/Class/CDC/usbd_cdc.cpp ****       
 715:Middlewares/ST/STM32_USB_Device_Library/Class/CDC/usbd_cdc.cpp ****   }
 716:Middlewares/ST/STM32_USB_Device_Library/Class/CDC/usbd_cdc.cpp ****   return USBD_OK;
 828              		.loc 1 716 0
 829 0046 4FF00003 		mov	r3, #0	@ D.7763,
 830              	.LBE7:
 717:Middlewares/ST/STM32_USB_Device_Library/Class/CDC/usbd_cdc.cpp **** }
 831              		.loc 1 717 0
 832 004a 1846     		mov	r0, r3	@, <retval>
 833 004c 07F11007 		add	r7, r7, #16	@,,
 834 0050 BD46     		mov	sp, r7
 835 0052 80BD     		pop	{r7, pc}
 836              		.cfi_endproc
 837              	.LFE61:
 838              		.size	_ZL20USBD_CDC_EP0_RxReadyP19_USBD_HandleTypeDef, .-_ZL20USBD_CDC_EP0_RxReadyP19_USBD_HandleT
 839              		.section	.text._ZL21USBD_CDC_GetFSCfgDescPt,"ax",%progbits
 840              		.align	2
 841              		.thumb
 842              		.thumb_func
 843              		.type	_ZL21USBD_CDC_GetFSCfgDescPt, %function
 844              	_ZL21USBD_CDC_GetFSCfgDescPt:
 845              	.LFB62:
 718:Middlewares/ST/STM32_USB_Device_Library/Class/CDC/usbd_cdc.cpp **** 
 719:Middlewares/ST/STM32_USB_Device_Library/Class/CDC/usbd_cdc.cpp **** /**
 720:Middlewares/ST/STM32_USB_Device_Library/Class/CDC/usbd_cdc.cpp ****   * @brief  USBD_CDC_GetFSCfgDesc 
 721:Middlewares/ST/STM32_USB_Device_Library/Class/CDC/usbd_cdc.cpp ****   *         Return configuration descriptor
 722:Middlewares/ST/STM32_USB_Device_Library/Class/CDC/usbd_cdc.cpp ****   * @param  speed : current device speed
 723:Middlewares/ST/STM32_USB_Device_Library/Class/CDC/usbd_cdc.cpp ****   * @param  length : pointer data length
 724:Middlewares/ST/STM32_USB_Device_Library/Class/CDC/usbd_cdc.cpp ****   * @retval pointer to descriptor buffer
 725:Middlewares/ST/STM32_USB_Device_Library/Class/CDC/usbd_cdc.cpp ****   */
 726:Middlewares/ST/STM32_USB_Device_Library/Class/CDC/usbd_cdc.cpp **** static uint8_t  *USBD_CDC_GetFSCfgDesc (uint16_t *length)
 727:Middlewares/ST/STM32_USB_Device_Library/Class/CDC/usbd_cdc.cpp **** {
 846              		.loc 1 727 0
 847              		.cfi_startproc
 848              		@ args = 0, pretend = 0, frame = 8
 849              		@ frame_needed = 1, uses_anonymous_args = 0
 850              		@ link register save eliminated.
 851 0000 80B4     		push	{r7}	@
 852              	.LCFI18:
 853              		.cfi_def_cfa_offset 4
 854              		.cfi_offset 7, -4
 855 0002 83B0     		sub	sp, sp, #12	@,,
 856              	.LCFI19:
 857              		.cfi_def_cfa_offset 16
 858 0004 00AF     		add	r7, sp, #0	@,,
 859              	.LCFI20:
 860              		.cfi_def_cfa_register 7
 861 0006 7860     		str	r0, [r7, #4]	@ length, length
 728:Middlewares/ST/STM32_USB_Device_Library/Class/CDC/usbd_cdc.cpp ****   *length = sizeof (USBD_CDC_CfgFSDesc);
 862              		.loc 1 728 0
 863 0008 7B68     		ldr	r3, [r7, #4]	@ tmp136, length
 864 000a 4FF04302 		mov	r2, #67	@ tmp138,
ARM GAS  /tmp/ccxt9WWh.s 			page 29


 865 000e 1A80     		strh	r2, [r3, #0]	@ movhi	@ tmp137, *length_1(D)
 729:Middlewares/ST/STM32_USB_Device_Library/Class/CDC/usbd_cdc.cpp ****   return USBD_CDC_CfgFSDesc;
 866              		.loc 1 729 0
 867 0010 40F20003 		movw	r3, #:lower16:USBD_CDC_CfgFSDesc	@ D.7748,
 868 0014 C0F20003 		movt	r3, #:upper16:USBD_CDC_CfgFSDesc	@ D.7748,
 730:Middlewares/ST/STM32_USB_Device_Library/Class/CDC/usbd_cdc.cpp **** }
 869              		.loc 1 730 0
 870 0018 1846     		mov	r0, r3	@, <retval>
 871 001a 07F10C07 		add	r7, r7, #12	@,,
 872 001e BD46     		mov	sp, r7
 873 0020 80BC     		pop	{r7}
 874 0022 7047     		bx	lr
 875              		.cfi_endproc
 876              	.LFE62:
 877              		.size	_ZL21USBD_CDC_GetFSCfgDescPt, .-_ZL21USBD_CDC_GetFSCfgDescPt
 878              		.section	.text._ZL21USBD_CDC_GetHSCfgDescPt,"ax",%progbits
 879              		.align	2
 880              		.thumb
 881              		.thumb_func
 882              		.type	_ZL21USBD_CDC_GetHSCfgDescPt, %function
 883              	_ZL21USBD_CDC_GetHSCfgDescPt:
 884              	.LFB63:
 731:Middlewares/ST/STM32_USB_Device_Library/Class/CDC/usbd_cdc.cpp **** 
 732:Middlewares/ST/STM32_USB_Device_Library/Class/CDC/usbd_cdc.cpp **** /**
 733:Middlewares/ST/STM32_USB_Device_Library/Class/CDC/usbd_cdc.cpp ****   * @brief  USBD_CDC_GetHSCfgDesc 
 734:Middlewares/ST/STM32_USB_Device_Library/Class/CDC/usbd_cdc.cpp ****   *         Return configuration descriptor
 735:Middlewares/ST/STM32_USB_Device_Library/Class/CDC/usbd_cdc.cpp ****   * @param  speed : current device speed
 736:Middlewares/ST/STM32_USB_Device_Library/Class/CDC/usbd_cdc.cpp ****   * @param  length : pointer data length
 737:Middlewares/ST/STM32_USB_Device_Library/Class/CDC/usbd_cdc.cpp ****   * @retval pointer to descriptor buffer
 738:Middlewares/ST/STM32_USB_Device_Library/Class/CDC/usbd_cdc.cpp ****   */
 739:Middlewares/ST/STM32_USB_Device_Library/Class/CDC/usbd_cdc.cpp **** static uint8_t  *USBD_CDC_GetHSCfgDesc (uint16_t *length)
 740:Middlewares/ST/STM32_USB_Device_Library/Class/CDC/usbd_cdc.cpp **** {
 885              		.loc 1 740 0
 886              		.cfi_startproc
 887              		@ args = 0, pretend = 0, frame = 8
 888              		@ frame_needed = 1, uses_anonymous_args = 0
 889              		@ link register save eliminated.
 890 0000 80B4     		push	{r7}	@
 891              	.LCFI21:
 892              		.cfi_def_cfa_offset 4
 893              		.cfi_offset 7, -4
 894 0002 83B0     		sub	sp, sp, #12	@,,
 895              	.LCFI22:
 896              		.cfi_def_cfa_offset 16
 897 0004 00AF     		add	r7, sp, #0	@,,
 898              	.LCFI23:
 899              		.cfi_def_cfa_register 7
 900 0006 7860     		str	r0, [r7, #4]	@ length, length
 741:Middlewares/ST/STM32_USB_Device_Library/Class/CDC/usbd_cdc.cpp ****   *length = sizeof (USBD_CDC_CfgHSDesc);
 901              		.loc 1 741 0
 902 0008 7B68     		ldr	r3, [r7, #4]	@ tmp136, length
 903 000a 4FF04302 		mov	r2, #67	@ tmp138,
 904 000e 1A80     		strh	r2, [r3, #0]	@ movhi	@ tmp137, *length_1(D)
 742:Middlewares/ST/STM32_USB_Device_Library/Class/CDC/usbd_cdc.cpp ****   return USBD_CDC_CfgHSDesc;
 905              		.loc 1 742 0
 906 0010 40F20003 		movw	r3, #:lower16:USBD_CDC_CfgHSDesc	@ D.7746,
 907 0014 C0F20003 		movt	r3, #:upper16:USBD_CDC_CfgHSDesc	@ D.7746,
ARM GAS  /tmp/ccxt9WWh.s 			page 30


 743:Middlewares/ST/STM32_USB_Device_Library/Class/CDC/usbd_cdc.cpp **** }
 908              		.loc 1 743 0
 909 0018 1846     		mov	r0, r3	@, <retval>
 910 001a 07F10C07 		add	r7, r7, #12	@,,
 911 001e BD46     		mov	sp, r7
 912 0020 80BC     		pop	{r7}
 913 0022 7047     		bx	lr
 914              		.cfi_endproc
 915              	.LFE63:
 916              		.size	_ZL21USBD_CDC_GetHSCfgDescPt, .-_ZL21USBD_CDC_GetHSCfgDescPt
 917              		.section	.text._ZL29USBD_CDC_GetOtherSpeedCfgDescPt,"ax",%progbits
 918              		.align	2
 919              		.thumb
 920              		.thumb_func
 921              		.type	_ZL29USBD_CDC_GetOtherSpeedCfgDescPt, %function
 922              	_ZL29USBD_CDC_GetOtherSpeedCfgDescPt:
 923              	.LFB64:
 744:Middlewares/ST/STM32_USB_Device_Library/Class/CDC/usbd_cdc.cpp **** 
 745:Middlewares/ST/STM32_USB_Device_Library/Class/CDC/usbd_cdc.cpp **** /**
 746:Middlewares/ST/STM32_USB_Device_Library/Class/CDC/usbd_cdc.cpp ****   * @brief  USBD_CDC_GetCfgDesc 
 747:Middlewares/ST/STM32_USB_Device_Library/Class/CDC/usbd_cdc.cpp ****   *         Return configuration descriptor
 748:Middlewares/ST/STM32_USB_Device_Library/Class/CDC/usbd_cdc.cpp ****   * @param  speed : current device speed
 749:Middlewares/ST/STM32_USB_Device_Library/Class/CDC/usbd_cdc.cpp ****   * @param  length : pointer data length
 750:Middlewares/ST/STM32_USB_Device_Library/Class/CDC/usbd_cdc.cpp ****   * @retval pointer to descriptor buffer
 751:Middlewares/ST/STM32_USB_Device_Library/Class/CDC/usbd_cdc.cpp ****   */
 752:Middlewares/ST/STM32_USB_Device_Library/Class/CDC/usbd_cdc.cpp **** static uint8_t  *USBD_CDC_GetOtherSpeedCfgDesc (uint16_t *length)
 753:Middlewares/ST/STM32_USB_Device_Library/Class/CDC/usbd_cdc.cpp **** {
 924              		.loc 1 753 0
 925              		.cfi_startproc
 926              		@ args = 0, pretend = 0, frame = 8
 927              		@ frame_needed = 1, uses_anonymous_args = 0
 928              		@ link register save eliminated.
 929 0000 80B4     		push	{r7}	@
 930              	.LCFI24:
 931              		.cfi_def_cfa_offset 4
 932              		.cfi_offset 7, -4
 933 0002 83B0     		sub	sp, sp, #12	@,,
 934              	.LCFI25:
 935              		.cfi_def_cfa_offset 16
 936 0004 00AF     		add	r7, sp, #0	@,,
 937              	.LCFI26:
 938              		.cfi_def_cfa_register 7
 939 0006 7860     		str	r0, [r7, #4]	@ length, length
 754:Middlewares/ST/STM32_USB_Device_Library/Class/CDC/usbd_cdc.cpp ****   *length = sizeof (USBD_CDC_OtherSpeedCfgDesc);
 940              		.loc 1 754 0
 941 0008 7B68     		ldr	r3, [r7, #4]	@ tmp136, length
 942 000a 4FF04302 		mov	r2, #67	@ tmp138,
 943 000e 1A80     		strh	r2, [r3, #0]	@ movhi	@ tmp137, *length_1(D)
 755:Middlewares/ST/STM32_USB_Device_Library/Class/CDC/usbd_cdc.cpp ****   return USBD_CDC_OtherSpeedCfgDesc;
 944              		.loc 1 755 0
 945 0010 40F20003 		movw	r3, #:lower16:USBD_CDC_OtherSpeedCfgDesc	@ D.7744,
 946 0014 C0F20003 		movt	r3, #:upper16:USBD_CDC_OtherSpeedCfgDesc	@ D.7744,
 756:Middlewares/ST/STM32_USB_Device_Library/Class/CDC/usbd_cdc.cpp **** }
 947              		.loc 1 756 0
 948 0018 1846     		mov	r0, r3	@, <retval>
 949 001a 07F10C07 		add	r7, r7, #12	@,,
 950 001e BD46     		mov	sp, r7
ARM GAS  /tmp/ccxt9WWh.s 			page 31


 951 0020 80BC     		pop	{r7}
 952 0022 7047     		bx	lr
 953              		.cfi_endproc
 954              	.LFE64:
 955              		.size	_ZL29USBD_CDC_GetOtherSpeedCfgDescPt, .-_ZL29USBD_CDC_GetOtherSpeedCfgDescPt
 956              		.section	.text._Z37USBD_CDC_GetDeviceQualifierDescriptorPt,"ax",%progbits
 957              		.align	2
 958              		.global	_Z37USBD_CDC_GetDeviceQualifierDescriptorPt
 959              		.thumb
 960              		.thumb_func
 961              		.type	_Z37USBD_CDC_GetDeviceQualifierDescriptorPt, %function
 962              	_Z37USBD_CDC_GetDeviceQualifierDescriptorPt:
 963              	.LFB65:
 757:Middlewares/ST/STM32_USB_Device_Library/Class/CDC/usbd_cdc.cpp **** 
 758:Middlewares/ST/STM32_USB_Device_Library/Class/CDC/usbd_cdc.cpp **** /**
 759:Middlewares/ST/STM32_USB_Device_Library/Class/CDC/usbd_cdc.cpp **** * @brief  DeviceQualifierDescriptor 
 760:Middlewares/ST/STM32_USB_Device_Library/Class/CDC/usbd_cdc.cpp **** *         return Device Qualifier descriptor
 761:Middlewares/ST/STM32_USB_Device_Library/Class/CDC/usbd_cdc.cpp **** * @param  length : pointer data length
 762:Middlewares/ST/STM32_USB_Device_Library/Class/CDC/usbd_cdc.cpp **** * @retval pointer to descriptor buffer
 763:Middlewares/ST/STM32_USB_Device_Library/Class/CDC/usbd_cdc.cpp **** */
 764:Middlewares/ST/STM32_USB_Device_Library/Class/CDC/usbd_cdc.cpp **** uint8_t  *USBD_CDC_GetDeviceQualifierDescriptor (uint16_t *length)
 765:Middlewares/ST/STM32_USB_Device_Library/Class/CDC/usbd_cdc.cpp **** {
 964              		.loc 1 765 0
 965              		.cfi_startproc
 966              		@ args = 0, pretend = 0, frame = 8
 967              		@ frame_needed = 1, uses_anonymous_args = 0
 968              		@ link register save eliminated.
 969 0000 80B4     		push	{r7}	@
 970              	.LCFI27:
 971              		.cfi_def_cfa_offset 4
 972              		.cfi_offset 7, -4
 973 0002 83B0     		sub	sp, sp, #12	@,,
 974              	.LCFI28:
 975              		.cfi_def_cfa_offset 16
 976 0004 00AF     		add	r7, sp, #0	@,,
 977              	.LCFI29:
 978              		.cfi_def_cfa_register 7
 979 0006 7860     		str	r0, [r7, #4]	@ length, length
 766:Middlewares/ST/STM32_USB_Device_Library/Class/CDC/usbd_cdc.cpp ****   *length = sizeof (USBD_CDC_DeviceQualifierDesc);
 980              		.loc 1 766 0
 981 0008 7B68     		ldr	r3, [r7, #4]	@ tmp136, length
 982 000a 4FF00A02 		mov	r2, #10	@ tmp138,
 983 000e 1A80     		strh	r2, [r3, #0]	@ movhi	@ tmp137, *length_1(D)
 767:Middlewares/ST/STM32_USB_Device_Library/Class/CDC/usbd_cdc.cpp ****   return USBD_CDC_DeviceQualifierDesc;
 984              		.loc 1 767 0
 985 0010 40F20003 		movw	r3, #:lower16:_ZL28USBD_CDC_DeviceQualifierDesc	@ D.7742,
 986 0014 C0F20003 		movt	r3, #:upper16:_ZL28USBD_CDC_DeviceQualifierDesc	@ D.7742,
 768:Middlewares/ST/STM32_USB_Device_Library/Class/CDC/usbd_cdc.cpp **** }
 987              		.loc 1 768 0
 988 0018 1846     		mov	r0, r3	@, <retval>
 989 001a 07F10C07 		add	r7, r7, #12	@,,
 990 001e BD46     		mov	sp, r7
 991 0020 80BC     		pop	{r7}
 992 0022 7047     		bx	lr
 993              		.cfi_endproc
 994              	.LFE65:
 995              		.size	_Z37USBD_CDC_GetDeviceQualifierDescriptorPt, .-_Z37USBD_CDC_GetDeviceQualifierDescriptorPt
ARM GAS  /tmp/ccxt9WWh.s 			page 32


 996              		.section	.text._Z26USBD_CDC_RegisterInterfaceP19_USBD_HandleTypeDefP13_USBD_CDC_Itf,"ax",%progbits
 997              		.align	2
 998              		.global	_Z26USBD_CDC_RegisterInterfaceP19_USBD_HandleTypeDefP13_USBD_CDC_Itf
 999              		.thumb
 1000              		.thumb_func
 1001              		.type	_Z26USBD_CDC_RegisterInterfaceP19_USBD_HandleTypeDefP13_USBD_CDC_Itf, %function
 1002              	_Z26USBD_CDC_RegisterInterfaceP19_USBD_HandleTypeDefP13_USBD_CDC_Itf:
 1003              	.LFB66:
 769:Middlewares/ST/STM32_USB_Device_Library/Class/CDC/usbd_cdc.cpp **** 
 770:Middlewares/ST/STM32_USB_Device_Library/Class/CDC/usbd_cdc.cpp **** /**
 771:Middlewares/ST/STM32_USB_Device_Library/Class/CDC/usbd_cdc.cpp **** * @brief  USBD_CDC_RegisterInterface
 772:Middlewares/ST/STM32_USB_Device_Library/Class/CDC/usbd_cdc.cpp ****   * @param  pdev: device instance
 773:Middlewares/ST/STM32_USB_Device_Library/Class/CDC/usbd_cdc.cpp ****   * @param  fops: CD  Interface callback
 774:Middlewares/ST/STM32_USB_Device_Library/Class/CDC/usbd_cdc.cpp ****   * @retval status
 775:Middlewares/ST/STM32_USB_Device_Library/Class/CDC/usbd_cdc.cpp ****   */
 776:Middlewares/ST/STM32_USB_Device_Library/Class/CDC/usbd_cdc.cpp **** uint8_t  USBD_CDC_RegisterInterface  (USBD_HandleTypeDef   *pdev, 
 777:Middlewares/ST/STM32_USB_Device_Library/Class/CDC/usbd_cdc.cpp ****                                       USBD_CDC_ItfTypeDef *fops)
 778:Middlewares/ST/STM32_USB_Device_Library/Class/CDC/usbd_cdc.cpp **** {
 1004              		.loc 1 778 0
 1005              		.cfi_startproc
 1006              		@ args = 0, pretend = 0, frame = 16
 1007              		@ frame_needed = 1, uses_anonymous_args = 0
 1008              		@ link register save eliminated.
 1009 0000 80B4     		push	{r7}	@
 1010              	.LCFI30:
 1011              		.cfi_def_cfa_offset 4
 1012              		.cfi_offset 7, -4
 1013 0002 85B0     		sub	sp, sp, #20	@,,
 1014              	.LCFI31:
 1015              		.cfi_def_cfa_offset 24
 1016 0004 00AF     		add	r7, sp, #0	@,,
 1017              	.LCFI32:
 1018              		.cfi_def_cfa_register 7
 1019 0006 7860     		str	r0, [r7, #4]	@ pdev, pdev
 1020 0008 3960     		str	r1, [r7, #0]	@ fops, fops
 1021              	.LBB8:
 779:Middlewares/ST/STM32_USB_Device_Library/Class/CDC/usbd_cdc.cpp ****   uint8_t  ret = USBD_FAIL;
 1022              		.loc 1 779 0
 1023 000a 4FF00203 		mov	r3, #2	@ tmp136,
 1024 000e FB73     		strb	r3, [r7, #15]	@ tmp137, ret
 780:Middlewares/ST/STM32_USB_Device_Library/Class/CDC/usbd_cdc.cpp ****   
 781:Middlewares/ST/STM32_USB_Device_Library/Class/CDC/usbd_cdc.cpp ****   if(fops != NULL)
 1025              		.loc 1 781 0
 1026 0010 3B68     		ldr	r3, [r7, #0]	@ tmp138, fops
 1027 0012 002B     		cmp	r3, #0	@ tmp138,
 1028 0014 06D0     		beq	.L38	@,
 782:Middlewares/ST/STM32_USB_Device_Library/Class/CDC/usbd_cdc.cpp ****   {
 783:Middlewares/ST/STM32_USB_Device_Library/Class/CDC/usbd_cdc.cpp ****     pdev->pUserData= fops;
 1029              		.loc 1 783 0
 1030 0016 7B68     		ldr	r3, [r7, #4]	@ tmp139, pdev
 1031 0018 3A68     		ldr	r2, [r7, #0]	@ tmp140, fops
 1032 001a C3F81C22 		str	r2, [r3, #540]	@ tmp140, pdev_4(D)->pUserData
 784:Middlewares/ST/STM32_USB_Device_Library/Class/CDC/usbd_cdc.cpp ****     ret = USBD_OK;    
 1033              		.loc 1 784 0
 1034 001e 4FF00003 		mov	r3, #0	@ tmp141,
 1035 0022 FB73     		strb	r3, [r7, #15]	@ tmp142, ret
 1036              	.L38:
ARM GAS  /tmp/ccxt9WWh.s 			page 33


 785:Middlewares/ST/STM32_USB_Device_Library/Class/CDC/usbd_cdc.cpp ****   }
 786:Middlewares/ST/STM32_USB_Device_Library/Class/CDC/usbd_cdc.cpp ****   
 787:Middlewares/ST/STM32_USB_Device_Library/Class/CDC/usbd_cdc.cpp ****   return ret;
 1037              		.loc 1 787 0
 1038 0024 FB7B     		ldrb	r3, [r7, #15]	@ zero_extendqisi2	@ D.7740, ret
 1039              	.LBE8:
 788:Middlewares/ST/STM32_USB_Device_Library/Class/CDC/usbd_cdc.cpp **** }
 1040              		.loc 1 788 0
 1041 0026 1846     		mov	r0, r3	@, <retval>
 1042 0028 07F11407 		add	r7, r7, #20	@,,
 1043 002c BD46     		mov	sp, r7
 1044 002e 80BC     		pop	{r7}
 1045 0030 7047     		bx	lr
 1046              		.cfi_endproc
 1047              	.LFE66:
 1048              		.size	_Z26USBD_CDC_RegisterInterfaceP19_USBD_HandleTypeDefP13_USBD_CDC_Itf, .-_Z26USBD_CDC_Registe
 1049 0032 00BF     		.section	.text._Z20USBD_CDC_SetTxBufferP19_USBD_HandleTypeDefPht,"ax",%progbits
 1050              		.align	2
 1051              		.global	_Z20USBD_CDC_SetTxBufferP19_USBD_HandleTypeDefPht
 1052              		.thumb
 1053              		.thumb_func
 1054              		.type	_Z20USBD_CDC_SetTxBufferP19_USBD_HandleTypeDefPht, %function
 1055              	_Z20USBD_CDC_SetTxBufferP19_USBD_HandleTypeDefPht:
 1056              	.LFB67:
 789:Middlewares/ST/STM32_USB_Device_Library/Class/CDC/usbd_cdc.cpp **** 
 790:Middlewares/ST/STM32_USB_Device_Library/Class/CDC/usbd_cdc.cpp **** /**
 791:Middlewares/ST/STM32_USB_Device_Library/Class/CDC/usbd_cdc.cpp ****   * @brief  USBD_CDC_SetTxBuffer
 792:Middlewares/ST/STM32_USB_Device_Library/Class/CDC/usbd_cdc.cpp ****   * @param  pdev: device instance
 793:Middlewares/ST/STM32_USB_Device_Library/Class/CDC/usbd_cdc.cpp ****   * @param  pbuff: Tx Buffer
 794:Middlewares/ST/STM32_USB_Device_Library/Class/CDC/usbd_cdc.cpp ****   * @retval status
 795:Middlewares/ST/STM32_USB_Device_Library/Class/CDC/usbd_cdc.cpp ****   */
 796:Middlewares/ST/STM32_USB_Device_Library/Class/CDC/usbd_cdc.cpp **** uint8_t  USBD_CDC_SetTxBuffer  (USBD_HandleTypeDef   *pdev,
 797:Middlewares/ST/STM32_USB_Device_Library/Class/CDC/usbd_cdc.cpp ****                                 uint8_t  *pbuff,
 798:Middlewares/ST/STM32_USB_Device_Library/Class/CDC/usbd_cdc.cpp ****                                 uint16_t length)
 799:Middlewares/ST/STM32_USB_Device_Library/Class/CDC/usbd_cdc.cpp **** {
 1057              		.loc 1 799 0
 1058              		.cfi_startproc
 1059              		@ args = 0, pretend = 0, frame = 24
 1060              		@ frame_needed = 1, uses_anonymous_args = 0
 1061              		@ link register save eliminated.
 1062 0000 80B4     		push	{r7}	@
 1063              	.LCFI33:
 1064              		.cfi_def_cfa_offset 4
 1065              		.cfi_offset 7, -4
 1066 0002 87B0     		sub	sp, sp, #28	@,,
 1067              	.LCFI34:
 1068              		.cfi_def_cfa_offset 32
 1069 0004 00AF     		add	r7, sp, #0	@,,
 1070              	.LCFI35:
 1071              		.cfi_def_cfa_register 7
 1072 0006 F860     		str	r0, [r7, #12]	@ pdev, pdev
 1073 0008 B960     		str	r1, [r7, #8]	@ pbuff, pbuff
 1074 000a 1346     		mov	r3, r2	@ tmp137, length
 1075 000c FB80     		strh	r3, [r7, #6]	@ movhi	@ tmp138, length
 1076              	.LBB9:
 800:Middlewares/ST/STM32_USB_Device_Library/Class/CDC/usbd_cdc.cpp ****   USBD_CDC_HandleTypeDef   *hcdc = pdev->pClassData;
 1077              		.loc 1 800 0
ARM GAS  /tmp/ccxt9WWh.s 			page 34


 1078 000e FB68     		ldr	r3, [r7, #12]	@ tmp139, pdev
 1079 0010 D3F81832 		ldr	r3, [r3, #536]	@ tmp140, pdev_1(D)->pClassData
 1080 0014 7B61     		str	r3, [r7, #20]	@ tmp140, hcdc
 801:Middlewares/ST/STM32_USB_Device_Library/Class/CDC/usbd_cdc.cpp ****   
 802:Middlewares/ST/STM32_USB_Device_Library/Class/CDC/usbd_cdc.cpp ****   hcdc->TxBuffer = pbuff;
 1081              		.loc 1 802 0
 1082 0016 7B69     		ldr	r3, [r7, #20]	@ tmp141, hcdc
 1083 0018 BA68     		ldr	r2, [r7, #8]	@ tmp142, pbuff
 1084 001a C3F80822 		str	r2, [r3, #520]	@ tmp142, hcdc_2->TxBuffer
 803:Middlewares/ST/STM32_USB_Device_Library/Class/CDC/usbd_cdc.cpp ****   hcdc->TxLength = length;  
 1085              		.loc 1 803 0
 1086 001e FA88     		ldrh	r2, [r7, #6]	@ D.7734, length
 1087 0020 7B69     		ldr	r3, [r7, #20]	@ tmp143, hcdc
 1088 0022 C3F81022 		str	r2, [r3, #528]	@ D.7734, hcdc_2->TxLength
 804:Middlewares/ST/STM32_USB_Device_Library/Class/CDC/usbd_cdc.cpp ****   
 805:Middlewares/ST/STM32_USB_Device_Library/Class/CDC/usbd_cdc.cpp ****   return USBD_OK;  
 1089              		.loc 1 805 0
 1090 0026 4FF00003 		mov	r3, #0	@ D.7735,
 1091              	.LBE9:
 806:Middlewares/ST/STM32_USB_Device_Library/Class/CDC/usbd_cdc.cpp **** }
 1092              		.loc 1 806 0
 1093 002a 1846     		mov	r0, r3	@, <retval>
 1094 002c 07F11C07 		add	r7, r7, #28	@,,
 1095 0030 BD46     		mov	sp, r7
 1096 0032 80BC     		pop	{r7}
 1097 0034 7047     		bx	lr
 1098              		.cfi_endproc
 1099              	.LFE67:
 1100              		.size	_Z20USBD_CDC_SetTxBufferP19_USBD_HandleTypeDefPht, .-_Z20USBD_CDC_SetTxBufferP19_USBD_Handle
 1101 0036 00BF     		.section	.text._Z20USBD_CDC_SetRxBufferP19_USBD_HandleTypeDefPh,"ax",%progbits
 1102              		.align	2
 1103              		.global	_Z20USBD_CDC_SetRxBufferP19_USBD_HandleTypeDefPh
 1104              		.thumb
 1105              		.thumb_func
 1106              		.type	_Z20USBD_CDC_SetRxBufferP19_USBD_HandleTypeDefPh, %function
 1107              	_Z20USBD_CDC_SetRxBufferP19_USBD_HandleTypeDefPh:
 1108              	.LFB68:
 807:Middlewares/ST/STM32_USB_Device_Library/Class/CDC/usbd_cdc.cpp **** 
 808:Middlewares/ST/STM32_USB_Device_Library/Class/CDC/usbd_cdc.cpp **** 
 809:Middlewares/ST/STM32_USB_Device_Library/Class/CDC/usbd_cdc.cpp **** /**
 810:Middlewares/ST/STM32_USB_Device_Library/Class/CDC/usbd_cdc.cpp ****   * @brief  USBD_CDC_SetRxBuffer
 811:Middlewares/ST/STM32_USB_Device_Library/Class/CDC/usbd_cdc.cpp ****   * @param  pdev: device instance
 812:Middlewares/ST/STM32_USB_Device_Library/Class/CDC/usbd_cdc.cpp ****   * @param  pbuff: Rx Buffer
 813:Middlewares/ST/STM32_USB_Device_Library/Class/CDC/usbd_cdc.cpp ****   * @retval status
 814:Middlewares/ST/STM32_USB_Device_Library/Class/CDC/usbd_cdc.cpp ****   */
 815:Middlewares/ST/STM32_USB_Device_Library/Class/CDC/usbd_cdc.cpp **** uint8_t  USBD_CDC_SetRxBuffer  (USBD_HandleTypeDef   *pdev,
 816:Middlewares/ST/STM32_USB_Device_Library/Class/CDC/usbd_cdc.cpp ****                                    uint8_t  *pbuff)
 817:Middlewares/ST/STM32_USB_Device_Library/Class/CDC/usbd_cdc.cpp **** {
 1109              		.loc 1 817 0
 1110              		.cfi_startproc
 1111              		@ args = 0, pretend = 0, frame = 16
 1112              		@ frame_needed = 1, uses_anonymous_args = 0
 1113              		@ link register save eliminated.
 1114 0000 80B4     		push	{r7}	@
 1115              	.LCFI36:
 1116              		.cfi_def_cfa_offset 4
 1117              		.cfi_offset 7, -4
ARM GAS  /tmp/ccxt9WWh.s 			page 35


 1118 0002 85B0     		sub	sp, sp, #20	@,,
 1119              	.LCFI37:
 1120              		.cfi_def_cfa_offset 24
 1121 0004 00AF     		add	r7, sp, #0	@,,
 1122              	.LCFI38:
 1123              		.cfi_def_cfa_register 7
 1124 0006 7860     		str	r0, [r7, #4]	@ pdev, pdev
 1125 0008 3960     		str	r1, [r7, #0]	@ pbuff, pbuff
 1126              	.LBB10:
 818:Middlewares/ST/STM32_USB_Device_Library/Class/CDC/usbd_cdc.cpp ****   USBD_CDC_HandleTypeDef   *hcdc = pdev->pClassData;
 1127              		.loc 1 818 0
 1128 000a 7B68     		ldr	r3, [r7, #4]	@ tmp136, pdev
 1129 000c D3F81832 		ldr	r3, [r3, #536]	@ tmp137, pdev_1(D)->pClassData
 1130 0010 FB60     		str	r3, [r7, #12]	@ tmp137, hcdc
 819:Middlewares/ST/STM32_USB_Device_Library/Class/CDC/usbd_cdc.cpp ****   
 820:Middlewares/ST/STM32_USB_Device_Library/Class/CDC/usbd_cdc.cpp ****   hcdc->RxBuffer = pbuff;
 1131              		.loc 1 820 0
 1132 0012 FB68     		ldr	r3, [r7, #12]	@ tmp138, hcdc
 1133 0014 3A68     		ldr	r2, [r7, #0]	@ tmp139, pbuff
 1134 0016 C3F80422 		str	r2, [r3, #516]	@ tmp139, hcdc_2->RxBuffer
 821:Middlewares/ST/STM32_USB_Device_Library/Class/CDC/usbd_cdc.cpp ****   
 822:Middlewares/ST/STM32_USB_Device_Library/Class/CDC/usbd_cdc.cpp ****   return USBD_OK;
 1135              		.loc 1 822 0
 1136 001a 4FF00003 		mov	r3, #0	@ D.7732,
 1137              	.LBE10:
 823:Middlewares/ST/STM32_USB_Device_Library/Class/CDC/usbd_cdc.cpp **** }
 1138              		.loc 1 823 0
 1139 001e 1846     		mov	r0, r3	@, <retval>
 1140 0020 07F11407 		add	r7, r7, #20	@,,
 1141 0024 BD46     		mov	sp, r7
 1142 0026 80BC     		pop	{r7}
 1143 0028 7047     		bx	lr
 1144              		.cfi_endproc
 1145              	.LFE68:
 1146              		.size	_Z20USBD_CDC_SetRxBufferP19_USBD_HandleTypeDefPh, .-_Z20USBD_CDC_SetRxBufferP19_USBD_HandleT
 1147 002a 00BF     		.section	.text._Z23USBD_CDC_TransmitPacketP19_USBD_HandleTypeDef,"ax",%progbits
 1148              		.align	2
 1149              		.global	_Z23USBD_CDC_TransmitPacketP19_USBD_HandleTypeDef
 1150              		.thumb
 1151              		.thumb_func
 1152              		.type	_Z23USBD_CDC_TransmitPacketP19_USBD_HandleTypeDef, %function
 1153              	_Z23USBD_CDC_TransmitPacketP19_USBD_HandleTypeDef:
 1154              	.LFB69:
 824:Middlewares/ST/STM32_USB_Device_Library/Class/CDC/usbd_cdc.cpp **** 
 825:Middlewares/ST/STM32_USB_Device_Library/Class/CDC/usbd_cdc.cpp **** /**
 826:Middlewares/ST/STM32_USB_Device_Library/Class/CDC/usbd_cdc.cpp ****   * @brief  USBD_CDC_DataOut
 827:Middlewares/ST/STM32_USB_Device_Library/Class/CDC/usbd_cdc.cpp ****   *         Data received on non-control Out endpoint
 828:Middlewares/ST/STM32_USB_Device_Library/Class/CDC/usbd_cdc.cpp ****   * @param  pdev: device instance
 829:Middlewares/ST/STM32_USB_Device_Library/Class/CDC/usbd_cdc.cpp ****   * @param  epnum: endpoint number
 830:Middlewares/ST/STM32_USB_Device_Library/Class/CDC/usbd_cdc.cpp ****   * @retval status
 831:Middlewares/ST/STM32_USB_Device_Library/Class/CDC/usbd_cdc.cpp ****   */
 832:Middlewares/ST/STM32_USB_Device_Library/Class/CDC/usbd_cdc.cpp **** uint8_t  USBD_CDC_TransmitPacket(USBD_HandleTypeDef *pdev)
 833:Middlewares/ST/STM32_USB_Device_Library/Class/CDC/usbd_cdc.cpp **** {      
 1155              		.loc 1 833 0
 1156              		.cfi_startproc
 1157              		@ args = 0, pretend = 0, frame = 16
 1158              		@ frame_needed = 1, uses_anonymous_args = 0
ARM GAS  /tmp/ccxt9WWh.s 			page 36


 1159 0000 80B5     		push	{r7, lr}	@
 1160              	.LCFI39:
 1161              		.cfi_def_cfa_offset 8
 1162              		.cfi_offset 7, -8
 1163              		.cfi_offset 14, -4
 1164 0002 84B0     		sub	sp, sp, #16	@,,
 1165              	.LCFI40:
 1166              		.cfi_def_cfa_offset 24
 1167 0004 00AF     		add	r7, sp, #0	@,,
 1168              	.LCFI41:
 1169              		.cfi_def_cfa_register 7
 1170 0006 7860     		str	r0, [r7, #4]	@ pdev, pdev
 1171              	.LBB11:
 834:Middlewares/ST/STM32_USB_Device_Library/Class/CDC/usbd_cdc.cpp ****   USBD_CDC_HandleTypeDef   *hcdc = pdev->pClassData;
 1172              		.loc 1 834 0
 1173 0008 7B68     		ldr	r3, [r7, #4]	@ tmp142, pdev
 1174 000a D3F81832 		ldr	r3, [r3, #536]	@ tmp143, pdev_2(D)->pClassData
 1175 000e FB60     		str	r3, [r7, #12]	@ tmp143, hcdc
 835:Middlewares/ST/STM32_USB_Device_Library/Class/CDC/usbd_cdc.cpp ****   
 836:Middlewares/ST/STM32_USB_Device_Library/Class/CDC/usbd_cdc.cpp ****   if(pdev->pClassData != NULL)
 1176              		.loc 1 836 0
 1177 0010 7B68     		ldr	r3, [r7, #4]	@ tmp144, pdev
 1178 0012 D3F81832 		ldr	r3, [r3, #536]	@ D.7720, pdev_2(D)->pClassData
 1179 0016 002B     		cmp	r3, #0	@ D.7720,
 1180 0018 20D0     		beq	.L45	@,
 837:Middlewares/ST/STM32_USB_Device_Library/Class/CDC/usbd_cdc.cpp ****   {
 838:Middlewares/ST/STM32_USB_Device_Library/Class/CDC/usbd_cdc.cpp ****     if(hcdc->TxState == 0)
 1181              		.loc 1 838 0
 1182 001a FB68     		ldr	r3, [r7, #12]	@ tmp145, hcdc
 1183 001c D3F81432 		ldr	r3, [r3, #532]	@ D.7724, hcdc_3->TxState
 1184 0020 002B     		cmp	r3, #0	@ D.7724,
 1185 0022 14BF     		ite	ne	@
 1186 0024 0023     		movne	r3, #0	@, tmp147
 1187 0026 0123     		moveq	r3, #1	@, tmp147
 1188 0028 DBB2     		uxtb	r3, r3	@ retval.0, tmp146
 1189 002a 002B     		cmp	r3, #0	@ retval.0,
 1190 002c 13D0     		beq	.L46	@,
 839:Middlewares/ST/STM32_USB_Device_Library/Class/CDC/usbd_cdc.cpp ****     {
 840:Middlewares/ST/STM32_USB_Device_Library/Class/CDC/usbd_cdc.cpp ****       
 841:Middlewares/ST/STM32_USB_Device_Library/Class/CDC/usbd_cdc.cpp ****       /* Transmit next packet */
 842:Middlewares/ST/STM32_USB_Device_Library/Class/CDC/usbd_cdc.cpp ****       USBD_LL_Transmit(pdev,
 843:Middlewares/ST/STM32_USB_Device_Library/Class/CDC/usbd_cdc.cpp ****                        CDC_IN_EP,
 844:Middlewares/ST/STM32_USB_Device_Library/Class/CDC/usbd_cdc.cpp ****                        hcdc->TxBuffer,
 845:Middlewares/ST/STM32_USB_Device_Library/Class/CDC/usbd_cdc.cpp ****                        hcdc->TxLength);
 1191              		.loc 1 845 0
 1192 002e FB68     		ldr	r3, [r7, #12]	@ tmp148, hcdc
 1193 0030 D3F80822 		ldr	r2, [r3, #520]	@ D.7727, hcdc_3->TxBuffer
 1194 0034 FB68     		ldr	r3, [r7, #12]	@ tmp149, hcdc
 1195 0036 D3F81032 		ldr	r3, [r3, #528]	@ D.7728, hcdc_3->TxLength
 1196 003a 9BB2     		uxth	r3, r3	@ D.7729, D.7728
 1197 003c 7868     		ldr	r0, [r7, #4]	@, pdev
 1198 003e 4FF08101 		mov	r1, #129	@,
 1199 0042 FFF7FEFF 		bl	_Z16USBD_LL_TransmitP19_USBD_HandleTypeDefhPht	@
 846:Middlewares/ST/STM32_USB_Device_Library/Class/CDC/usbd_cdc.cpp ****       
 847:Middlewares/ST/STM32_USB_Device_Library/Class/CDC/usbd_cdc.cpp ****       /* Tx Transfer in progress */
 848:Middlewares/ST/STM32_USB_Device_Library/Class/CDC/usbd_cdc.cpp ****       hcdc->TxState = 1;
 1200              		.loc 1 848 0
ARM GAS  /tmp/ccxt9WWh.s 			page 37


 1201 0046 FB68     		ldr	r3, [r7, #12]	@ tmp150, hcdc
 1202 0048 4FF00102 		mov	r2, #1	@ tmp151,
 1203 004c C3F81422 		str	r2, [r3, #532]	@ tmp151, hcdc_3->TxState
 849:Middlewares/ST/STM32_USB_Device_Library/Class/CDC/usbd_cdc.cpp ****       return USBD_OK;
 1204              		.loc 1 849 0
 1205 0050 4FF00003 		mov	r3, #0	@ D.7730,
 1206 0054 04E0     		b	.L47	@
 1207              	.L46:
 850:Middlewares/ST/STM32_USB_Device_Library/Class/CDC/usbd_cdc.cpp ****     }
 851:Middlewares/ST/STM32_USB_Device_Library/Class/CDC/usbd_cdc.cpp ****     else
 852:Middlewares/ST/STM32_USB_Device_Library/Class/CDC/usbd_cdc.cpp ****     {
 853:Middlewares/ST/STM32_USB_Device_Library/Class/CDC/usbd_cdc.cpp ****       return USBD_BUSY;
 1208              		.loc 1 853 0
 1209 0056 4FF00103 		mov	r3, #1	@ D.7730,
 1210 005a 01E0     		b	.L47	@
 1211              	.L45:
 854:Middlewares/ST/STM32_USB_Device_Library/Class/CDC/usbd_cdc.cpp ****     }
 855:Middlewares/ST/STM32_USB_Device_Library/Class/CDC/usbd_cdc.cpp ****   }
 856:Middlewares/ST/STM32_USB_Device_Library/Class/CDC/usbd_cdc.cpp ****   else
 857:Middlewares/ST/STM32_USB_Device_Library/Class/CDC/usbd_cdc.cpp ****   {
 858:Middlewares/ST/STM32_USB_Device_Library/Class/CDC/usbd_cdc.cpp ****     return USBD_FAIL;
 1212              		.loc 1 858 0
 1213 005c 4FF00203 		mov	r3, #2	@ D.7730,
 1214              	.L47:
 1215              	.LBE11:
 859:Middlewares/ST/STM32_USB_Device_Library/Class/CDC/usbd_cdc.cpp ****   }
 860:Middlewares/ST/STM32_USB_Device_Library/Class/CDC/usbd_cdc.cpp **** }
 1216              		.loc 1 860 0
 1217 0060 1846     		mov	r0, r3	@, <retval>
 1218 0062 07F11007 		add	r7, r7, #16	@,,
 1219 0066 BD46     		mov	sp, r7
 1220 0068 80BD     		pop	{r7, pc}
 1221              		.cfi_endproc
 1222              	.LFE69:
 1223              		.size	_Z23USBD_CDC_TransmitPacketP19_USBD_HandleTypeDef, .-_Z23USBD_CDC_TransmitPacketP19_USBD_Han
 1224 006a 00BF     		.section	.text._Z22USBD_CDC_ReceivePacketP19_USBD_HandleTypeDef,"ax",%progbits
 1225              		.align	2
 1226              		.global	_Z22USBD_CDC_ReceivePacketP19_USBD_HandleTypeDef
 1227              		.thumb
 1228              		.thumb_func
 1229              		.type	_Z22USBD_CDC_ReceivePacketP19_USBD_HandleTypeDef, %function
 1230              	_Z22USBD_CDC_ReceivePacketP19_USBD_HandleTypeDef:
 1231              	.LFB70:
 861:Middlewares/ST/STM32_USB_Device_Library/Class/CDC/usbd_cdc.cpp **** 
 862:Middlewares/ST/STM32_USB_Device_Library/Class/CDC/usbd_cdc.cpp **** 
 863:Middlewares/ST/STM32_USB_Device_Library/Class/CDC/usbd_cdc.cpp **** /**
 864:Middlewares/ST/STM32_USB_Device_Library/Class/CDC/usbd_cdc.cpp ****   * @brief  USBD_CDC_ReceivePacket
 865:Middlewares/ST/STM32_USB_Device_Library/Class/CDC/usbd_cdc.cpp ****   *         prepare OUT Endpoint for reception
 866:Middlewares/ST/STM32_USB_Device_Library/Class/CDC/usbd_cdc.cpp ****   * @param  pdev: device instance
 867:Middlewares/ST/STM32_USB_Device_Library/Class/CDC/usbd_cdc.cpp ****   * @retval status
 868:Middlewares/ST/STM32_USB_Device_Library/Class/CDC/usbd_cdc.cpp ****   */
 869:Middlewares/ST/STM32_USB_Device_Library/Class/CDC/usbd_cdc.cpp **** uint8_t  USBD_CDC_ReceivePacket(USBD_HandleTypeDef *pdev)
 870:Middlewares/ST/STM32_USB_Device_Library/Class/CDC/usbd_cdc.cpp **** {      
 1232              		.loc 1 870 0
 1233              		.cfi_startproc
 1234              		@ args = 0, pretend = 0, frame = 16
 1235              		@ frame_needed = 1, uses_anonymous_args = 0
ARM GAS  /tmp/ccxt9WWh.s 			page 38


 1236 0000 80B5     		push	{r7, lr}	@
 1237              	.LCFI42:
 1238              		.cfi_def_cfa_offset 8
 1239              		.cfi_offset 7, -8
 1240              		.cfi_offset 14, -4
 1241 0002 84B0     		sub	sp, sp, #16	@,,
 1242              	.LCFI43:
 1243              		.cfi_def_cfa_offset 24
 1244 0004 00AF     		add	r7, sp, #0	@,,
 1245              	.LCFI44:
 1246              		.cfi_def_cfa_register 7
 1247 0006 7860     		str	r0, [r7, #4]	@ pdev, pdev
 1248              	.LBB12:
 871:Middlewares/ST/STM32_USB_Device_Library/Class/CDC/usbd_cdc.cpp ****   USBD_CDC_HandleTypeDef   *hcdc = pdev->pClassData;
 1249              		.loc 1 871 0
 1250 0008 7B68     		ldr	r3, [r7, #4]	@ tmp140, pdev
 1251 000a D3F81832 		ldr	r3, [r3, #536]	@ tmp141, pdev_2(D)->pClassData
 1252 000e FB60     		str	r3, [r7, #12]	@ tmp141, hcdc
 872:Middlewares/ST/STM32_USB_Device_Library/Class/CDC/usbd_cdc.cpp ****   
 873:Middlewares/ST/STM32_USB_Device_Library/Class/CDC/usbd_cdc.cpp ****   /* Suspend or Resume USB Out process */
 874:Middlewares/ST/STM32_USB_Device_Library/Class/CDC/usbd_cdc.cpp ****   if(pdev->pClassData != NULL)
 1253              		.loc 1 874 0
 1254 0010 7B68     		ldr	r3, [r7, #4]	@ tmp142, pdev
 1255 0012 D3F81832 		ldr	r3, [r3, #536]	@ D.7709, pdev_2(D)->pClassData
 1256 0016 002B     		cmp	r3, #0	@ D.7709,
 1257 0018 1DD0     		beq	.L49	@,
 875:Middlewares/ST/STM32_USB_Device_Library/Class/CDC/usbd_cdc.cpp ****   {
 876:Middlewares/ST/STM32_USB_Device_Library/Class/CDC/usbd_cdc.cpp ****     if(pdev->dev_speed == USBD_SPEED_HIGH  ) 
 1258              		.loc 1 876 0
 1259 001a 7B68     		ldr	r3, [r7, #4]	@ tmp143, pdev
 1260 001c 1B7C     		ldrb	r3, [r3, #16]	@ zero_extendqisi2	@ D.7712, pdev_2(D)->dev_speed
 1261 001e 002B     		cmp	r3, #0	@ D.7712,
 1262 0020 0BD1     		bne	.L50	@,
 877:Middlewares/ST/STM32_USB_Device_Library/Class/CDC/usbd_cdc.cpp ****     {      
 878:Middlewares/ST/STM32_USB_Device_Library/Class/CDC/usbd_cdc.cpp ****       /* Prepare Out endpoint to receive next packet */
 879:Middlewares/ST/STM32_USB_Device_Library/Class/CDC/usbd_cdc.cpp ****       USBD_LL_PrepareReceive(pdev,
 880:Middlewares/ST/STM32_USB_Device_Library/Class/CDC/usbd_cdc.cpp ****                              CDC_OUT_EP,
 881:Middlewares/ST/STM32_USB_Device_Library/Class/CDC/usbd_cdc.cpp ****                              hcdc->RxBuffer,
 882:Middlewares/ST/STM32_USB_Device_Library/Class/CDC/usbd_cdc.cpp ****                              CDC_DATA_HS_OUT_PACKET_SIZE);
 1263              		.loc 1 882 0
 1264 0022 FB68     		ldr	r3, [r7, #12]	@ tmp144, hcdc
 1265 0024 D3F80432 		ldr	r3, [r3, #516]	@ D.7715, hcdc_3->RxBuffer
 1266 0028 7868     		ldr	r0, [r7, #4]	@, pdev
 1267 002a 4FF00101 		mov	r1, #1	@,
 1268 002e 1A46     		mov	r2, r3	@, D.7715
 1269 0030 4FF40073 		mov	r3, #512	@,
 1270 0034 FFF7FEFF 		bl	_Z22USBD_LL_PrepareReceiveP19_USBD_HandleTypeDefhPht	@
 1271 0038 0AE0     		b	.L51	@
 1272              	.L50:
 883:Middlewares/ST/STM32_USB_Device_Library/Class/CDC/usbd_cdc.cpp ****     }
 884:Middlewares/ST/STM32_USB_Device_Library/Class/CDC/usbd_cdc.cpp ****     else
 885:Middlewares/ST/STM32_USB_Device_Library/Class/CDC/usbd_cdc.cpp ****     {
 886:Middlewares/ST/STM32_USB_Device_Library/Class/CDC/usbd_cdc.cpp ****       /* Prepare Out endpoint to receive next packet */
 887:Middlewares/ST/STM32_USB_Device_Library/Class/CDC/usbd_cdc.cpp ****       USBD_LL_PrepareReceive(pdev,
 888:Middlewares/ST/STM32_USB_Device_Library/Class/CDC/usbd_cdc.cpp ****                              CDC_OUT_EP,
 889:Middlewares/ST/STM32_USB_Device_Library/Class/CDC/usbd_cdc.cpp ****                              hcdc->RxBuffer,
 890:Middlewares/ST/STM32_USB_Device_Library/Class/CDC/usbd_cdc.cpp ****                              CDC_DATA_FS_OUT_PACKET_SIZE);
ARM GAS  /tmp/ccxt9WWh.s 			page 39


 1273              		.loc 1 890 0
 1274 003a FB68     		ldr	r3, [r7, #12]	@ tmp145, hcdc
 1275 003c D3F80432 		ldr	r3, [r3, #516]	@ D.7717, hcdc_3->RxBuffer
 1276 0040 7868     		ldr	r0, [r7, #4]	@, pdev
 1277 0042 4FF00101 		mov	r1, #1	@,
 1278 0046 1A46     		mov	r2, r3	@, D.7717
 1279 0048 4FF04003 		mov	r3, #64	@,
 1280 004c FFF7FEFF 		bl	_Z22USBD_LL_PrepareReceiveP19_USBD_HandleTypeDefhPht	@
 1281              	.L51:
 891:Middlewares/ST/STM32_USB_Device_Library/Class/CDC/usbd_cdc.cpp ****     }
 892:Middlewares/ST/STM32_USB_Device_Library/Class/CDC/usbd_cdc.cpp ****     return USBD_OK;
 1282              		.loc 1 892 0
 1283 0050 4FF00003 		mov	r3, #0	@ D.7718,
 1284 0054 01E0     		b	.L52	@
 1285              	.L49:
 893:Middlewares/ST/STM32_USB_Device_Library/Class/CDC/usbd_cdc.cpp ****   }
 894:Middlewares/ST/STM32_USB_Device_Library/Class/CDC/usbd_cdc.cpp ****   else
 895:Middlewares/ST/STM32_USB_Device_Library/Class/CDC/usbd_cdc.cpp ****   {
 896:Middlewares/ST/STM32_USB_Device_Library/Class/CDC/usbd_cdc.cpp ****     return USBD_FAIL;
 1286              		.loc 1 896 0
 1287 0056 4FF00203 		mov	r3, #2	@ D.7718,
 1288              	.L52:
 1289              	.LBE12:
 897:Middlewares/ST/STM32_USB_Device_Library/Class/CDC/usbd_cdc.cpp ****   }
 898:Middlewares/ST/STM32_USB_Device_Library/Class/CDC/usbd_cdc.cpp **** }
 1290              		.loc 1 898 0
 1291 005a 1846     		mov	r0, r3	@, <retval>
 1292 005c 07F11007 		add	r7, r7, #16	@,,
 1293 0060 BD46     		mov	sp, r7
 1294 0062 80BD     		pop	{r7, pc}
 1295              		.cfi_endproc
 1296              	.LFE70:
 1297              		.size	_Z22USBD_CDC_ReceivePacketP19_USBD_HandleTypeDef, .-_Z22USBD_CDC_ReceivePacketP19_USBD_Handl
 1298              		.text
 1299              	.Letext0:
 1300              		.file 2 "/home/maciek/gcc-arm-none-eabi/gcc-arm-none-eabi-4_7-2013q1/bin/../lib/gcc/arm-none-eabi/
 1301              		.file 3 "Middlewares/ST/STM32_USB_Device_Library/Core/usbd_def.h"
 1302              		.file 4 "Middlewares/ST/STM32_USB_Device_Library/Class/CDC/usbd_cdc.h"
 1303              		.file 5 "Drivers/CMSIS/Include/core_cm3.h"