ARM GAS  /tmp/ccHL1Gl4.s 			page 1


   1              		.syntax unified
   2              		.cpu cortex-m3
   3              		.fpu softvfp
   4              		.eabi_attribute 20, 1	@ Tag_ABI_FP_denormal
   5              		.eabi_attribute 21, 1	@ Tag_ABI_FP_exceptions
   6              		.eabi_attribute 23, 3	@ Tag_ABI_FP_number_model
   7              		.eabi_attribute 24, 1	@ Tag_ABI_align8_needed
   8              		.eabi_attribute 25, 1	@ Tag_ABI_align8_preserved
   9              		.eabi_attribute 26, 1	@ Tag_ABI_enum_size
  10              		.eabi_attribute 30, 6	@ Tag_ABI_optimization_goals
  11              		.eabi_attribute 34, 1	@ Tag_CPU_unaligned_access
  12              		.eabi_attribute 18, 4	@ Tag_ABI_PCS_wchar_t
  13              		.file	"usbd_ioreq.cpp"
  14              	@ GNU C++ (GNU Tools for ARM Embedded Processors) version 4.7.3 20130312 (release) [ARM/embedded-4_
  15              	@	compiled by GNU C version 4.3.6, GMP version 4.3.2, MPFR version 2.4.2, MPC version 0.8.1
  16              	@ GGC heuristics: --param ggc-min-expand=100 --param ggc-min-heapsize=131072
  17              	@ options passed:  -I . -I Src -I hdr -I Inc -I Middlewares
  18              	@ -I Middlewares/ST -I Middlewares/ST/STM32_USB_Device_Library/Class/CDC
  19              	@ -I Middlewares/ST/STM32_USB_Device_Library/Core -I Drivers
  20              	@ -I Drivers/CMSIS -I Drivers/CMSIS/Device/ST/STM32L1xx
  21              	@ -I Drivers/CMSIS/Include -I Drivers/STM32L1xx_HAL_Driver
  22              	@ -imultilib armv7-m
  23              	@ -iprefix /home/maciek/gcc-arm-none-eabi/gcc-arm-none-eabi-4_7-2013q1/bin/../lib/gcc/arm-none-eabi
  24              	@ -isysroot /home/maciek/gcc-arm-none-eabi/gcc-arm-none-eabi-4_7-2013q1/bin/../arm-none-eabi
  25              	@ -MD out/usbd_ioreq.d -MF out/usbd_ioreq.d -MP -MQ out/usbd_ioreq.o
  26              	@ -D__USES_INITFINI__ -D STM32L1XX_MD
  27              	@ Middlewares/ST/STM32_USB_Device_Library/Core/usbd_ioreq.cpp
  28              	@ -mcpu=cortex-m3 -mthumb -auxbase-strip out/usbd_ioreq.o -g -ggdb3 -O0
  29              	@ -Wall -Wextra -std=gnu++11 -ffunction-sections -fdata-sections -fno-rtti
  30              	@ -fno-exceptions -fverbose-asm
  31              	@ options enabled:  -fauto-inc-dec -fbranch-count-reg -fcommon
  32              	@ -fdata-sections -fdebug-types-section -fdelete-null-pointer-checks
  33              	@ -fdwarf2-cfi-asm -fearly-inlining -feliminate-unused-debug-types
  34              	@ -ffunction-cse -ffunction-sections -fgcse-lm -fgnu-runtime -fident
  35              	@ -finline-atomics -fira-share-save-slots -fira-share-spill-slots -fivopts
  36              	@ -fkeep-static-consts -fleading-underscore -fmath-errno
  37              	@ -fmerge-debug-strings -fmove-loop-invariants -fpeephole
  38              	@ -fprefetch-loop-arrays -freg-struct-return
  39              	@ -fsched-critical-path-heuristic -fsched-dep-count-heuristic
  40              	@ -fsched-group-heuristic -fsched-interblock -fsched-last-insn-heuristic
  41              	@ -fsched-rank-heuristic -fsched-spec -fsched-spec-insn-heuristic
  42              	@ -fsched-stalled-insns-dep -fshow-column -fsigned-zeros
  43              	@ -fsplit-ivs-in-unroller -fstrict-volatile-bitfields -ftrapping-math
  44              	@ -ftree-cselim -ftree-forwprop -ftree-loop-if-convert -ftree-loop-im
  45              	@ -ftree-loop-ivcanon -ftree-loop-optimize -ftree-parallelize-loops=
  46              	@ -ftree-phiprop -ftree-pta -ftree-reassoc -ftree-scev-cprop
  47              	@ -ftree-slp-vectorize -ftree-vect-loop-version -funit-at-a-time
  48              	@ -fverbose-asm -fzero-initialized-in-bss -mfix-cortex-m3-ldrd
  49              	@ -mlittle-endian -msched-prolog -mthumb -munaligned-access
  50              	@ -mvectorize-with-neon-quad
  51              	
  52              		.text
  53              	.Ltext0:
  54              		.cfi_sections	.debug_frame
  55              		.section	.text._Z16USBD_CtlSendDataP19_USBD_HandleTypeDefPht,"ax",%progbits
  56              		.align	2
  57              		.global	_Z16USBD_CtlSendDataP19_USBD_HandleTypeDefPht
ARM GAS  /tmp/ccHL1Gl4.s 			page 2


  58              		.thumb
  59              		.thumb_func
  60              		.type	_Z16USBD_CtlSendDataP19_USBD_HandleTypeDefPht, %function
  61              	_Z16USBD_CtlSendDataP19_USBD_HandleTypeDefPht:
  62              	.LFB56:
  63              		.file 1 "Middlewares/ST/STM32_USB_Device_Library/Core/usbd_ioreq.cpp"
   1:Middlewares/ST/STM32_USB_Device_Library/Core/usbd_ioreq.cpp **** /**
   2:Middlewares/ST/STM32_USB_Device_Library/Core/usbd_ioreq.cpp ****   ******************************************************************************
   3:Middlewares/ST/STM32_USB_Device_Library/Core/usbd_ioreq.cpp ****   * @file    usbd_ioreq.c
   4:Middlewares/ST/STM32_USB_Device_Library/Core/usbd_ioreq.cpp ****   * @author  MCD Application Team
   5:Middlewares/ST/STM32_USB_Device_Library/Core/usbd_ioreq.cpp ****   * @version V2.2.0
   6:Middlewares/ST/STM32_USB_Device_Library/Core/usbd_ioreq.cpp ****   * @date    13-June-2014
   7:Middlewares/ST/STM32_USB_Device_Library/Core/usbd_ioreq.cpp ****   * @brief   This file provides the IO requests APIs for control endpoints.
   8:Middlewares/ST/STM32_USB_Device_Library/Core/usbd_ioreq.cpp ****   ******************************************************************************
   9:Middlewares/ST/STM32_USB_Device_Library/Core/usbd_ioreq.cpp ****   * @attention
  10:Middlewares/ST/STM32_USB_Device_Library/Core/usbd_ioreq.cpp ****   *
  11:Middlewares/ST/STM32_USB_Device_Library/Core/usbd_ioreq.cpp ****   * <h2><center>&copy; COPYRIGHT 2014 STMicroelectronics</center></h2>
  12:Middlewares/ST/STM32_USB_Device_Library/Core/usbd_ioreq.cpp ****   *
  13:Middlewares/ST/STM32_USB_Device_Library/Core/usbd_ioreq.cpp ****   * Licensed under MCD-ST Liberty SW License Agreement V2, (the "License");
  14:Middlewares/ST/STM32_USB_Device_Library/Core/usbd_ioreq.cpp ****   * You may not use this file except in compliance with the License.
  15:Middlewares/ST/STM32_USB_Device_Library/Core/usbd_ioreq.cpp ****   * You may obtain a copy of the License at:
  16:Middlewares/ST/STM32_USB_Device_Library/Core/usbd_ioreq.cpp ****   *
  17:Middlewares/ST/STM32_USB_Device_Library/Core/usbd_ioreq.cpp ****   *        http://www.st.com/software_license_agreement_liberty_v2
  18:Middlewares/ST/STM32_USB_Device_Library/Core/usbd_ioreq.cpp ****   *
  19:Middlewares/ST/STM32_USB_Device_Library/Core/usbd_ioreq.cpp ****   * Unless required by applicable law or agreed to in writing, software 
  20:Middlewares/ST/STM32_USB_Device_Library/Core/usbd_ioreq.cpp ****   * distributed under the License is distributed on an "AS IS" BASIS, 
  21:Middlewares/ST/STM32_USB_Device_Library/Core/usbd_ioreq.cpp ****   * WITHOUT WARRANTIES OR CONDITIONS OF ANY KIND, either express or implied.
  22:Middlewares/ST/STM32_USB_Device_Library/Core/usbd_ioreq.cpp ****   * See the License for the specific language governing permissions and
  23:Middlewares/ST/STM32_USB_Device_Library/Core/usbd_ioreq.cpp ****   * limitations under the License.
  24:Middlewares/ST/STM32_USB_Device_Library/Core/usbd_ioreq.cpp ****   *
  25:Middlewares/ST/STM32_USB_Device_Library/Core/usbd_ioreq.cpp ****   ******************************************************************************
  26:Middlewares/ST/STM32_USB_Device_Library/Core/usbd_ioreq.cpp ****   */ 
  27:Middlewares/ST/STM32_USB_Device_Library/Core/usbd_ioreq.cpp **** 
  28:Middlewares/ST/STM32_USB_Device_Library/Core/usbd_ioreq.cpp **** /* Includes ------------------------------------------------------------------*/
  29:Middlewares/ST/STM32_USB_Device_Library/Core/usbd_ioreq.cpp **** #include "usbd_ioreq.h"
  30:Middlewares/ST/STM32_USB_Device_Library/Core/usbd_ioreq.cpp **** 
  31:Middlewares/ST/STM32_USB_Device_Library/Core/usbd_ioreq.cpp **** /** @addtogroup STM32_USB_DEVICE_LIBRARY
  32:Middlewares/ST/STM32_USB_Device_Library/Core/usbd_ioreq.cpp ****   * @{
  33:Middlewares/ST/STM32_USB_Device_Library/Core/usbd_ioreq.cpp ****   */
  34:Middlewares/ST/STM32_USB_Device_Library/Core/usbd_ioreq.cpp **** 
  35:Middlewares/ST/STM32_USB_Device_Library/Core/usbd_ioreq.cpp **** 
  36:Middlewares/ST/STM32_USB_Device_Library/Core/usbd_ioreq.cpp **** /** @defgroup USBD_IOREQ 
  37:Middlewares/ST/STM32_USB_Device_Library/Core/usbd_ioreq.cpp ****   * @brief control I/O requests module
  38:Middlewares/ST/STM32_USB_Device_Library/Core/usbd_ioreq.cpp ****   * @{
  39:Middlewares/ST/STM32_USB_Device_Library/Core/usbd_ioreq.cpp ****   */ 
  40:Middlewares/ST/STM32_USB_Device_Library/Core/usbd_ioreq.cpp **** 
  41:Middlewares/ST/STM32_USB_Device_Library/Core/usbd_ioreq.cpp **** /** @defgroup USBD_IOREQ_Private_TypesDefinitions
  42:Middlewares/ST/STM32_USB_Device_Library/Core/usbd_ioreq.cpp ****   * @{
  43:Middlewares/ST/STM32_USB_Device_Library/Core/usbd_ioreq.cpp ****   */ 
  44:Middlewares/ST/STM32_USB_Device_Library/Core/usbd_ioreq.cpp **** /**
  45:Middlewares/ST/STM32_USB_Device_Library/Core/usbd_ioreq.cpp ****   * @}
  46:Middlewares/ST/STM32_USB_Device_Library/Core/usbd_ioreq.cpp ****   */ 
  47:Middlewares/ST/STM32_USB_Device_Library/Core/usbd_ioreq.cpp **** 
  48:Middlewares/ST/STM32_USB_Device_Library/Core/usbd_ioreq.cpp **** 
  49:Middlewares/ST/STM32_USB_Device_Library/Core/usbd_ioreq.cpp **** /** @defgroup USBD_IOREQ_Private_Defines
  50:Middlewares/ST/STM32_USB_Device_Library/Core/usbd_ioreq.cpp ****   * @{
  51:Middlewares/ST/STM32_USB_Device_Library/Core/usbd_ioreq.cpp ****   */ 
ARM GAS  /tmp/ccHL1Gl4.s 			page 3


  52:Middlewares/ST/STM32_USB_Device_Library/Core/usbd_ioreq.cpp **** 
  53:Middlewares/ST/STM32_USB_Device_Library/Core/usbd_ioreq.cpp **** /**
  54:Middlewares/ST/STM32_USB_Device_Library/Core/usbd_ioreq.cpp ****   * @}
  55:Middlewares/ST/STM32_USB_Device_Library/Core/usbd_ioreq.cpp ****   */ 
  56:Middlewares/ST/STM32_USB_Device_Library/Core/usbd_ioreq.cpp **** 
  57:Middlewares/ST/STM32_USB_Device_Library/Core/usbd_ioreq.cpp **** 
  58:Middlewares/ST/STM32_USB_Device_Library/Core/usbd_ioreq.cpp **** /** @defgroup USBD_IOREQ_Private_Macros
  59:Middlewares/ST/STM32_USB_Device_Library/Core/usbd_ioreq.cpp ****   * @{
  60:Middlewares/ST/STM32_USB_Device_Library/Core/usbd_ioreq.cpp ****   */ 
  61:Middlewares/ST/STM32_USB_Device_Library/Core/usbd_ioreq.cpp **** /**
  62:Middlewares/ST/STM32_USB_Device_Library/Core/usbd_ioreq.cpp ****   * @}
  63:Middlewares/ST/STM32_USB_Device_Library/Core/usbd_ioreq.cpp ****   */ 
  64:Middlewares/ST/STM32_USB_Device_Library/Core/usbd_ioreq.cpp **** 
  65:Middlewares/ST/STM32_USB_Device_Library/Core/usbd_ioreq.cpp **** 
  66:Middlewares/ST/STM32_USB_Device_Library/Core/usbd_ioreq.cpp **** /** @defgroup USBD_IOREQ_Private_Variables
  67:Middlewares/ST/STM32_USB_Device_Library/Core/usbd_ioreq.cpp ****   * @{
  68:Middlewares/ST/STM32_USB_Device_Library/Core/usbd_ioreq.cpp ****   */ 
  69:Middlewares/ST/STM32_USB_Device_Library/Core/usbd_ioreq.cpp **** 
  70:Middlewares/ST/STM32_USB_Device_Library/Core/usbd_ioreq.cpp **** /**
  71:Middlewares/ST/STM32_USB_Device_Library/Core/usbd_ioreq.cpp ****   * @}
  72:Middlewares/ST/STM32_USB_Device_Library/Core/usbd_ioreq.cpp ****   */ 
  73:Middlewares/ST/STM32_USB_Device_Library/Core/usbd_ioreq.cpp **** 
  74:Middlewares/ST/STM32_USB_Device_Library/Core/usbd_ioreq.cpp **** 
  75:Middlewares/ST/STM32_USB_Device_Library/Core/usbd_ioreq.cpp **** /** @defgroup USBD_IOREQ_Private_FunctionPrototypes
  76:Middlewares/ST/STM32_USB_Device_Library/Core/usbd_ioreq.cpp ****   * @{
  77:Middlewares/ST/STM32_USB_Device_Library/Core/usbd_ioreq.cpp ****   */ 
  78:Middlewares/ST/STM32_USB_Device_Library/Core/usbd_ioreq.cpp **** /**
  79:Middlewares/ST/STM32_USB_Device_Library/Core/usbd_ioreq.cpp ****   * @}
  80:Middlewares/ST/STM32_USB_Device_Library/Core/usbd_ioreq.cpp ****   */ 
  81:Middlewares/ST/STM32_USB_Device_Library/Core/usbd_ioreq.cpp **** 
  82:Middlewares/ST/STM32_USB_Device_Library/Core/usbd_ioreq.cpp **** 
  83:Middlewares/ST/STM32_USB_Device_Library/Core/usbd_ioreq.cpp **** /** @defgroup USBD_IOREQ_Private_Functions
  84:Middlewares/ST/STM32_USB_Device_Library/Core/usbd_ioreq.cpp ****   * @{
  85:Middlewares/ST/STM32_USB_Device_Library/Core/usbd_ioreq.cpp ****   */ 
  86:Middlewares/ST/STM32_USB_Device_Library/Core/usbd_ioreq.cpp **** 
  87:Middlewares/ST/STM32_USB_Device_Library/Core/usbd_ioreq.cpp **** /**
  88:Middlewares/ST/STM32_USB_Device_Library/Core/usbd_ioreq.cpp **** * @brief  USBD_CtlSendData
  89:Middlewares/ST/STM32_USB_Device_Library/Core/usbd_ioreq.cpp **** *         send data on the ctl pipe
  90:Middlewares/ST/STM32_USB_Device_Library/Core/usbd_ioreq.cpp **** * @param  pdev: device instance
  91:Middlewares/ST/STM32_USB_Device_Library/Core/usbd_ioreq.cpp **** * @param  buff: pointer to data buffer
  92:Middlewares/ST/STM32_USB_Device_Library/Core/usbd_ioreq.cpp **** * @param  len: length of data to be sent
  93:Middlewares/ST/STM32_USB_Device_Library/Core/usbd_ioreq.cpp **** * @retval status
  94:Middlewares/ST/STM32_USB_Device_Library/Core/usbd_ioreq.cpp **** */
  95:Middlewares/ST/STM32_USB_Device_Library/Core/usbd_ioreq.cpp **** USBD_StatusTypeDef  USBD_CtlSendData (USBD_HandleTypeDef  *pdev, 
  96:Middlewares/ST/STM32_USB_Device_Library/Core/usbd_ioreq.cpp ****                                uint8_t *pbuf,
  97:Middlewares/ST/STM32_USB_Device_Library/Core/usbd_ioreq.cpp ****                                uint16_t len)
  98:Middlewares/ST/STM32_USB_Device_Library/Core/usbd_ioreq.cpp **** {
  64              		.loc 1 98 0
  65              		.cfi_startproc
  66              		@ args = 0, pretend = 0, frame = 16
  67              		@ frame_needed = 1, uses_anonymous_args = 0
  68 0000 80B5     		push	{r7, lr}	@
  69              	.LCFI0:
  70              		.cfi_def_cfa_offset 8
  71              		.cfi_offset 7, -8
  72              		.cfi_offset 14, -4
  73 0002 84B0     		sub	sp, sp, #16	@,,
ARM GAS  /tmp/ccHL1Gl4.s 			page 4


  74              	.LCFI1:
  75              		.cfi_def_cfa_offset 24
  76 0004 00AF     		add	r7, sp, #0	@,,
  77              	.LCFI2:
  78              		.cfi_def_cfa_register 7
  79 0006 F860     		str	r0, [r7, #12]	@ pdev, pdev
  80 0008 B960     		str	r1, [r7, #8]	@ pbuf, pbuf
  81 000a 1346     		mov	r3, r2	@ tmp138, len
  82 000c FB80     		strh	r3, [r7, #6]	@ movhi	@ tmp139, len
  99:Middlewares/ST/STM32_USB_Device_Library/Core/usbd_ioreq.cpp ****   /* Set EP0 State */
 100:Middlewares/ST/STM32_USB_Device_Library/Core/usbd_ioreq.cpp ****   pdev->ep0_state          = USBD_EP0_DATA_IN;                                      
  83              		.loc 1 100 0
  84 000e FB68     		ldr	r3, [r7, #12]	@ tmp140, pdev
  85 0010 4FF00202 		mov	r2, #2	@ tmp141,
  86 0014 C3F8F421 		str	r2, [r3, #500]	@ tmp141, pdev_1(D)->ep0_state
 101:Middlewares/ST/STM32_USB_Device_Library/Core/usbd_ioreq.cpp ****   pdev->ep_in[0].total_length = len;
  87              		.loc 1 101 0
  88 0018 FA88     		ldrh	r2, [r7, #6]	@ D.7607, len
  89 001a FB68     		ldr	r3, [r7, #12]	@ tmp142, pdev
  90 001c 9A61     		str	r2, [r3, #24]	@ D.7607, pdev_1(D)->ep_in[0].total_length
 102:Middlewares/ST/STM32_USB_Device_Library/Core/usbd_ioreq.cpp ****   pdev->ep_in[0].rem_length   = len;
  91              		.loc 1 102 0
  92 001e FA88     		ldrh	r2, [r7, #6]	@ D.7608, len
  93 0020 FB68     		ldr	r3, [r7, #12]	@ tmp143, pdev
  94 0022 DA61     		str	r2, [r3, #28]	@ D.7608, pdev_1(D)->ep_in[0].rem_length
 103:Middlewares/ST/STM32_USB_Device_Library/Core/usbd_ioreq.cpp ****  /* Start the transfer */
 104:Middlewares/ST/STM32_USB_Device_Library/Core/usbd_ioreq.cpp ****   USBD_LL_Transmit (pdev, 0x00, pbuf, len);  
  95              		.loc 1 104 0
  96 0024 FB88     		ldrh	r3, [r7, #6]	@ tmp144, len
  97 0026 F868     		ldr	r0, [r7, #12]	@, pdev
  98 0028 4FF00001 		mov	r1, #0	@,
  99 002c BA68     		ldr	r2, [r7, #8]	@, pbuf
 100 002e FFF7FEFF 		bl	_Z16USBD_LL_TransmitP19_USBD_HandleTypeDefhPht	@
 105:Middlewares/ST/STM32_USB_Device_Library/Core/usbd_ioreq.cpp ****   
 106:Middlewares/ST/STM32_USB_Device_Library/Core/usbd_ioreq.cpp ****   return USBD_OK;
 101              		.loc 1 106 0
 102 0032 4FF00003 		mov	r3, #0	@ D.7609,
 107:Middlewares/ST/STM32_USB_Device_Library/Core/usbd_ioreq.cpp **** }
 103              		.loc 1 107 0
 104 0036 1846     		mov	r0, r3	@, <retval>
 105 0038 07F11007 		add	r7, r7, #16	@,,
 106 003c BD46     		mov	sp, r7
 107 003e 80BD     		pop	{r7, pc}
 108              		.cfi_endproc
 109              	.LFE56:
 110              		.size	_Z16USBD_CtlSendDataP19_USBD_HandleTypeDefPht, .-_Z16USBD_CtlSendDataP19_USBD_HandleTypeDefP
 111              		.section	.text._Z24USBD_CtlContinueSendDataP19_USBD_HandleTypeDefPht,"ax",%progbits
 112              		.align	2
 113              		.global	_Z24USBD_CtlContinueSendDataP19_USBD_HandleTypeDefPht
 114              		.thumb
 115              		.thumb_func
 116              		.type	_Z24USBD_CtlContinueSendDataP19_USBD_HandleTypeDefPht, %function
 117              	_Z24USBD_CtlContinueSendDataP19_USBD_HandleTypeDefPht:
 118              	.LFB57:
 108:Middlewares/ST/STM32_USB_Device_Library/Core/usbd_ioreq.cpp **** 
 109:Middlewares/ST/STM32_USB_Device_Library/Core/usbd_ioreq.cpp **** /**
 110:Middlewares/ST/STM32_USB_Device_Library/Core/usbd_ioreq.cpp **** * @brief  USBD_CtlContinueSendData
ARM GAS  /tmp/ccHL1Gl4.s 			page 5


 111:Middlewares/ST/STM32_USB_Device_Library/Core/usbd_ioreq.cpp **** *         continue sending data on the ctl pipe
 112:Middlewares/ST/STM32_USB_Device_Library/Core/usbd_ioreq.cpp **** * @param  pdev: device instance
 113:Middlewares/ST/STM32_USB_Device_Library/Core/usbd_ioreq.cpp **** * @param  buff: pointer to data buffer
 114:Middlewares/ST/STM32_USB_Device_Library/Core/usbd_ioreq.cpp **** * @param  len: length of data to be sent
 115:Middlewares/ST/STM32_USB_Device_Library/Core/usbd_ioreq.cpp **** * @retval status
 116:Middlewares/ST/STM32_USB_Device_Library/Core/usbd_ioreq.cpp **** */
 117:Middlewares/ST/STM32_USB_Device_Library/Core/usbd_ioreq.cpp **** USBD_StatusTypeDef  USBD_CtlContinueSendData (USBD_HandleTypeDef  *pdev, 
 118:Middlewares/ST/STM32_USB_Device_Library/Core/usbd_ioreq.cpp ****                                        uint8_t *pbuf,
 119:Middlewares/ST/STM32_USB_Device_Library/Core/usbd_ioreq.cpp ****                                        uint16_t len)
 120:Middlewares/ST/STM32_USB_Device_Library/Core/usbd_ioreq.cpp **** {
 119              		.loc 1 120 0
 120              		.cfi_startproc
 121              		@ args = 0, pretend = 0, frame = 16
 122              		@ frame_needed = 1, uses_anonymous_args = 0
 123 0000 80B5     		push	{r7, lr}	@
 124              	.LCFI3:
 125              		.cfi_def_cfa_offset 8
 126              		.cfi_offset 7, -8
 127              		.cfi_offset 14, -4
 128 0002 84B0     		sub	sp, sp, #16	@,,
 129              	.LCFI4:
 130              		.cfi_def_cfa_offset 24
 131 0004 00AF     		add	r7, sp, #0	@,,
 132              	.LCFI5:
 133              		.cfi_def_cfa_register 7
 134 0006 F860     		str	r0, [r7, #12]	@ pdev, pdev
 135 0008 B960     		str	r1, [r7, #8]	@ pbuf, pbuf
 136 000a 1346     		mov	r3, r2	@ tmp136, len
 137 000c FB80     		strh	r3, [r7, #6]	@ movhi	@ tmp137, len
 121:Middlewares/ST/STM32_USB_Device_Library/Core/usbd_ioreq.cpp ****  /* Start the next transfer */
 122:Middlewares/ST/STM32_USB_Device_Library/Core/usbd_ioreq.cpp ****   USBD_LL_Transmit (pdev, 0x00, pbuf, len);   
 138              		.loc 1 122 0
 139 000e FB88     		ldrh	r3, [r7, #6]	@ tmp138, len
 140 0010 F868     		ldr	r0, [r7, #12]	@, pdev
 141 0012 4FF00001 		mov	r1, #0	@,
 142 0016 BA68     		ldr	r2, [r7, #8]	@, pbuf
 143 0018 FFF7FEFF 		bl	_Z16USBD_LL_TransmitP19_USBD_HandleTypeDefhPht	@
 123:Middlewares/ST/STM32_USB_Device_Library/Core/usbd_ioreq.cpp ****   
 124:Middlewares/ST/STM32_USB_Device_Library/Core/usbd_ioreq.cpp ****   return USBD_OK;
 144              		.loc 1 124 0
 145 001c 4FF00003 		mov	r3, #0	@ D.7605,
 125:Middlewares/ST/STM32_USB_Device_Library/Core/usbd_ioreq.cpp **** }
 146              		.loc 1 125 0
 147 0020 1846     		mov	r0, r3	@, <retval>
 148 0022 07F11007 		add	r7, r7, #16	@,,
 149 0026 BD46     		mov	sp, r7
 150 0028 80BD     		pop	{r7, pc}
 151              		.cfi_endproc
 152              	.LFE57:
 153              		.size	_Z24USBD_CtlContinueSendDataP19_USBD_HandleTypeDefPht, .-_Z24USBD_CtlContinueSendDataP19_USB
 154 002a 00BF     		.section	.text._Z17USBD_CtlPrepareRxP19_USBD_HandleTypeDefPht,"ax",%progbits
 155              		.align	2
 156              		.global	_Z17USBD_CtlPrepareRxP19_USBD_HandleTypeDefPht
 157              		.thumb
 158              		.thumb_func
 159              		.type	_Z17USBD_CtlPrepareRxP19_USBD_HandleTypeDefPht, %function
 160              	_Z17USBD_CtlPrepareRxP19_USBD_HandleTypeDefPht:
ARM GAS  /tmp/ccHL1Gl4.s 			page 6


 161              	.LFB58:
 126:Middlewares/ST/STM32_USB_Device_Library/Core/usbd_ioreq.cpp **** 
 127:Middlewares/ST/STM32_USB_Device_Library/Core/usbd_ioreq.cpp **** /**
 128:Middlewares/ST/STM32_USB_Device_Library/Core/usbd_ioreq.cpp **** * @brief  USBD_CtlPrepareRx
 129:Middlewares/ST/STM32_USB_Device_Library/Core/usbd_ioreq.cpp **** *         receive data on the ctl pipe
 130:Middlewares/ST/STM32_USB_Device_Library/Core/usbd_ioreq.cpp **** * @param  pdev: device instance
 131:Middlewares/ST/STM32_USB_Device_Library/Core/usbd_ioreq.cpp **** * @param  buff: pointer to data buffer
 132:Middlewares/ST/STM32_USB_Device_Library/Core/usbd_ioreq.cpp **** * @param  len: length of data to be received
 133:Middlewares/ST/STM32_USB_Device_Library/Core/usbd_ioreq.cpp **** * @retval status
 134:Middlewares/ST/STM32_USB_Device_Library/Core/usbd_ioreq.cpp **** */
 135:Middlewares/ST/STM32_USB_Device_Library/Core/usbd_ioreq.cpp **** USBD_StatusTypeDef  USBD_CtlPrepareRx (USBD_HandleTypeDef  *pdev,
 136:Middlewares/ST/STM32_USB_Device_Library/Core/usbd_ioreq.cpp ****                                   uint8_t *pbuf,                                  
 137:Middlewares/ST/STM32_USB_Device_Library/Core/usbd_ioreq.cpp ****                                   uint16_t len)
 138:Middlewares/ST/STM32_USB_Device_Library/Core/usbd_ioreq.cpp **** {
 162              		.loc 1 138 0
 163              		.cfi_startproc
 164              		@ args = 0, pretend = 0, frame = 16
 165              		@ frame_needed = 1, uses_anonymous_args = 0
 166 0000 80B5     		push	{r7, lr}	@
 167              	.LCFI6:
 168              		.cfi_def_cfa_offset 8
 169              		.cfi_offset 7, -8
 170              		.cfi_offset 14, -4
 171 0002 84B0     		sub	sp, sp, #16	@,,
 172              	.LCFI7:
 173              		.cfi_def_cfa_offset 24
 174 0004 00AF     		add	r7, sp, #0	@,,
 175              	.LCFI8:
 176              		.cfi_def_cfa_register 7
 177 0006 F860     		str	r0, [r7, #12]	@ pdev, pdev
 178 0008 B960     		str	r1, [r7, #8]	@ pbuf, pbuf
 179 000a 1346     		mov	r3, r2	@ tmp138, len
 180 000c FB80     		strh	r3, [r7, #6]	@ movhi	@ tmp139, len
 139:Middlewares/ST/STM32_USB_Device_Library/Core/usbd_ioreq.cpp ****   /* Set EP0 State */
 140:Middlewares/ST/STM32_USB_Device_Library/Core/usbd_ioreq.cpp ****   pdev->ep0_state = USBD_EP0_DATA_OUT; 
 181              		.loc 1 140 0
 182 000e FB68     		ldr	r3, [r7, #12]	@ tmp140, pdev
 183 0010 4FF00302 		mov	r2, #3	@ tmp141,
 184 0014 C3F8F421 		str	r2, [r3, #500]	@ tmp141, pdev_1(D)->ep0_state
 141:Middlewares/ST/STM32_USB_Device_Library/Core/usbd_ioreq.cpp ****   pdev->ep_out[0].total_length = len;
 185              		.loc 1 141 0
 186 0018 FA88     		ldrh	r2, [r7, #6]	@ D.7601, len
 187 001a FB68     		ldr	r3, [r7, #12]	@ tmp142, pdev
 188 001c C3F80821 		str	r2, [r3, #264]	@ D.7601, pdev_1(D)->ep_out[0].total_length
 142:Middlewares/ST/STM32_USB_Device_Library/Core/usbd_ioreq.cpp ****   pdev->ep_out[0].rem_length   = len;
 189              		.loc 1 142 0
 190 0020 FA88     		ldrh	r2, [r7, #6]	@ D.7602, len
 191 0022 FB68     		ldr	r3, [r7, #12]	@ tmp143, pdev
 192 0024 C3F80C21 		str	r2, [r3, #268]	@ D.7602, pdev_1(D)->ep_out[0].rem_length
 143:Middlewares/ST/STM32_USB_Device_Library/Core/usbd_ioreq.cpp ****   /* Start the transfer */
 144:Middlewares/ST/STM32_USB_Device_Library/Core/usbd_ioreq.cpp ****   USBD_LL_PrepareReceive (pdev,
 145:Middlewares/ST/STM32_USB_Device_Library/Core/usbd_ioreq.cpp ****                           0,
 146:Middlewares/ST/STM32_USB_Device_Library/Core/usbd_ioreq.cpp ****                           pbuf,
 147:Middlewares/ST/STM32_USB_Device_Library/Core/usbd_ioreq.cpp ****                          len);
 193              		.loc 1 147 0
 194 0028 FB88     		ldrh	r3, [r7, #6]	@ tmp144, len
 195 002a F868     		ldr	r0, [r7, #12]	@, pdev
ARM GAS  /tmp/ccHL1Gl4.s 			page 7


 196 002c 4FF00001 		mov	r1, #0	@,
 197 0030 BA68     		ldr	r2, [r7, #8]	@, pbuf
 198 0032 FFF7FEFF 		bl	_Z22USBD_LL_PrepareReceiveP19_USBD_HandleTypeDefhPht	@
 148:Middlewares/ST/STM32_USB_Device_Library/Core/usbd_ioreq.cpp ****   
 149:Middlewares/ST/STM32_USB_Device_Library/Core/usbd_ioreq.cpp ****   return USBD_OK;
 199              		.loc 1 149 0
 200 0036 4FF00003 		mov	r3, #0	@ D.7603,
 150:Middlewares/ST/STM32_USB_Device_Library/Core/usbd_ioreq.cpp **** }
 201              		.loc 1 150 0
 202 003a 1846     		mov	r0, r3	@, <retval>
 203 003c 07F11007 		add	r7, r7, #16	@,,
 204 0040 BD46     		mov	sp, r7
 205 0042 80BD     		pop	{r7, pc}
 206              		.cfi_endproc
 207              	.LFE58:
 208              		.size	_Z17USBD_CtlPrepareRxP19_USBD_HandleTypeDefPht, .-_Z17USBD_CtlPrepareRxP19_USBD_HandleTypeDe
 209              		.section	.text._Z18USBD_CtlContinueRxP19_USBD_HandleTypeDefPht,"ax",%progbits
 210              		.align	2
 211              		.global	_Z18USBD_CtlContinueRxP19_USBD_HandleTypeDefPht
 212              		.thumb
 213              		.thumb_func
 214              		.type	_Z18USBD_CtlContinueRxP19_USBD_HandleTypeDefPht, %function
 215              	_Z18USBD_CtlContinueRxP19_USBD_HandleTypeDefPht:
 216              	.LFB59:
 151:Middlewares/ST/STM32_USB_Device_Library/Core/usbd_ioreq.cpp **** 
 152:Middlewares/ST/STM32_USB_Device_Library/Core/usbd_ioreq.cpp **** /**
 153:Middlewares/ST/STM32_USB_Device_Library/Core/usbd_ioreq.cpp **** * @brief  USBD_CtlContinueRx
 154:Middlewares/ST/STM32_USB_Device_Library/Core/usbd_ioreq.cpp **** *         continue receive data on the ctl pipe
 155:Middlewares/ST/STM32_USB_Device_Library/Core/usbd_ioreq.cpp **** * @param  pdev: device instance
 156:Middlewares/ST/STM32_USB_Device_Library/Core/usbd_ioreq.cpp **** * @param  buff: pointer to data buffer
 157:Middlewares/ST/STM32_USB_Device_Library/Core/usbd_ioreq.cpp **** * @param  len: length of data to be received
 158:Middlewares/ST/STM32_USB_Device_Library/Core/usbd_ioreq.cpp **** * @retval status
 159:Middlewares/ST/STM32_USB_Device_Library/Core/usbd_ioreq.cpp **** */
 160:Middlewares/ST/STM32_USB_Device_Library/Core/usbd_ioreq.cpp **** USBD_StatusTypeDef  USBD_CtlContinueRx (USBD_HandleTypeDef  *pdev, 
 161:Middlewares/ST/STM32_USB_Device_Library/Core/usbd_ioreq.cpp ****                                           uint8_t *pbuf,                                          
 162:Middlewares/ST/STM32_USB_Device_Library/Core/usbd_ioreq.cpp ****                                           uint16_t len)
 163:Middlewares/ST/STM32_USB_Device_Library/Core/usbd_ioreq.cpp **** {
 217              		.loc 1 163 0
 218              		.cfi_startproc
 219              		@ args = 0, pretend = 0, frame = 16
 220              		@ frame_needed = 1, uses_anonymous_args = 0
 221 0000 80B5     		push	{r7, lr}	@
 222              	.LCFI9:
 223              		.cfi_def_cfa_offset 8
 224              		.cfi_offset 7, -8
 225              		.cfi_offset 14, -4
 226 0002 84B0     		sub	sp, sp, #16	@,,
 227              	.LCFI10:
 228              		.cfi_def_cfa_offset 24
 229 0004 00AF     		add	r7, sp, #0	@,,
 230              	.LCFI11:
 231              		.cfi_def_cfa_register 7
 232 0006 F860     		str	r0, [r7, #12]	@ pdev, pdev
 233 0008 B960     		str	r1, [r7, #8]	@ pbuf, pbuf
 234 000a 1346     		mov	r3, r2	@ tmp136, len
 235 000c FB80     		strh	r3, [r7, #6]	@ movhi	@ tmp137, len
 164:Middlewares/ST/STM32_USB_Device_Library/Core/usbd_ioreq.cpp **** 
ARM GAS  /tmp/ccHL1Gl4.s 			page 8


 165:Middlewares/ST/STM32_USB_Device_Library/Core/usbd_ioreq.cpp ****   USBD_LL_PrepareReceive (pdev,
 166:Middlewares/ST/STM32_USB_Device_Library/Core/usbd_ioreq.cpp ****                           0,                     
 167:Middlewares/ST/STM32_USB_Device_Library/Core/usbd_ioreq.cpp ****                           pbuf,                         
 168:Middlewares/ST/STM32_USB_Device_Library/Core/usbd_ioreq.cpp ****                           len);
 236              		.loc 1 168 0
 237 000e FB88     		ldrh	r3, [r7, #6]	@ tmp138, len
 238 0010 F868     		ldr	r0, [r7, #12]	@, pdev
 239 0012 4FF00001 		mov	r1, #0	@,
 240 0016 BA68     		ldr	r2, [r7, #8]	@, pbuf
 241 0018 FFF7FEFF 		bl	_Z22USBD_LL_PrepareReceiveP19_USBD_HandleTypeDefhPht	@
 169:Middlewares/ST/STM32_USB_Device_Library/Core/usbd_ioreq.cpp ****   return USBD_OK;
 242              		.loc 1 169 0
 243 001c 4FF00003 		mov	r3, #0	@ D.7599,
 170:Middlewares/ST/STM32_USB_Device_Library/Core/usbd_ioreq.cpp **** }
 244              		.loc 1 170 0
 245 0020 1846     		mov	r0, r3	@, <retval>
 246 0022 07F11007 		add	r7, r7, #16	@,,
 247 0026 BD46     		mov	sp, r7
 248 0028 80BD     		pop	{r7, pc}
 249              		.cfi_endproc
 250              	.LFE59:
 251              		.size	_Z18USBD_CtlContinueRxP19_USBD_HandleTypeDefPht, .-_Z18USBD_CtlContinueRxP19_USBD_HandleType
 252 002a 00BF     		.section	.text._Z18USBD_CtlSendStatusP19_USBD_HandleTypeDef,"ax",%progbits
 253              		.align	2
 254              		.global	_Z18USBD_CtlSendStatusP19_USBD_HandleTypeDef
 255              		.thumb
 256              		.thumb_func
 257              		.type	_Z18USBD_CtlSendStatusP19_USBD_HandleTypeDef, %function
 258              	_Z18USBD_CtlSendStatusP19_USBD_HandleTypeDef:
 259              	.LFB60:
 171:Middlewares/ST/STM32_USB_Device_Library/Core/usbd_ioreq.cpp **** /**
 172:Middlewares/ST/STM32_USB_Device_Library/Core/usbd_ioreq.cpp **** * @brief  USBD_CtlSendStatus
 173:Middlewares/ST/STM32_USB_Device_Library/Core/usbd_ioreq.cpp **** *         send zero lzngth packet on the ctl pipe
 174:Middlewares/ST/STM32_USB_Device_Library/Core/usbd_ioreq.cpp **** * @param  pdev: device instance
 175:Middlewares/ST/STM32_USB_Device_Library/Core/usbd_ioreq.cpp **** * @retval status
 176:Middlewares/ST/STM32_USB_Device_Library/Core/usbd_ioreq.cpp **** */
 177:Middlewares/ST/STM32_USB_Device_Library/Core/usbd_ioreq.cpp **** USBD_StatusTypeDef  USBD_CtlSendStatus (USBD_HandleTypeDef  *pdev)
 178:Middlewares/ST/STM32_USB_Device_Library/Core/usbd_ioreq.cpp **** {
 260              		.loc 1 178 0
 261              		.cfi_startproc
 262              		@ args = 0, pretend = 0, frame = 8
 263              		@ frame_needed = 1, uses_anonymous_args = 0
 264 0000 80B5     		push	{r7, lr}	@
 265              	.LCFI12:
 266              		.cfi_def_cfa_offset 8
 267              		.cfi_offset 7, -8
 268              		.cfi_offset 14, -4
 269 0002 82B0     		sub	sp, sp, #8	@,,
 270              	.LCFI13:
 271              		.cfi_def_cfa_offset 16
 272 0004 00AF     		add	r7, sp, #0	@,,
 273              	.LCFI14:
 274              		.cfi_def_cfa_register 7
 275 0006 7860     		str	r0, [r7, #4]	@ pdev, pdev
 179:Middlewares/ST/STM32_USB_Device_Library/Core/usbd_ioreq.cpp **** 
 180:Middlewares/ST/STM32_USB_Device_Library/Core/usbd_ioreq.cpp ****   /* Set EP0 State */
 181:Middlewares/ST/STM32_USB_Device_Library/Core/usbd_ioreq.cpp ****   pdev->ep0_state = USBD_EP0_STATUS_IN;
ARM GAS  /tmp/ccHL1Gl4.s 			page 9


 276              		.loc 1 181 0
 277 0008 7B68     		ldr	r3, [r7, #4]	@ tmp136, pdev
 278 000a 4FF00402 		mov	r2, #4	@ tmp137,
 279 000e C3F8F421 		str	r2, [r3, #500]	@ tmp137, pdev_1(D)->ep0_state
 182:Middlewares/ST/STM32_USB_Device_Library/Core/usbd_ioreq.cpp ****   
 183:Middlewares/ST/STM32_USB_Device_Library/Core/usbd_ioreq.cpp ****  /* Start the transfer */
 184:Middlewares/ST/STM32_USB_Device_Library/Core/usbd_ioreq.cpp ****   USBD_LL_Transmit (pdev, 0x00, NULL, 0);   
 280              		.loc 1 184 0
 281 0012 7868     		ldr	r0, [r7, #4]	@, pdev
 282 0014 4FF00001 		mov	r1, #0	@,
 283 0018 4FF00002 		mov	r2, #0	@,
 284 001c 4FF00003 		mov	r3, #0	@,
 285 0020 FFF7FEFF 		bl	_Z16USBD_LL_TransmitP19_USBD_HandleTypeDefhPht	@
 185:Middlewares/ST/STM32_USB_Device_Library/Core/usbd_ioreq.cpp ****   
 186:Middlewares/ST/STM32_USB_Device_Library/Core/usbd_ioreq.cpp ****   return USBD_OK;
 286              		.loc 1 186 0
 287 0024 4FF00003 		mov	r3, #0	@ D.7597,
 187:Middlewares/ST/STM32_USB_Device_Library/Core/usbd_ioreq.cpp **** }
 288              		.loc 1 187 0
 289 0028 1846     		mov	r0, r3	@, <retval>
 290 002a 07F10807 		add	r7, r7, #8	@,,
 291 002e BD46     		mov	sp, r7
 292 0030 80BD     		pop	{r7, pc}
 293              		.cfi_endproc
 294              	.LFE60:
 295              		.size	_Z18USBD_CtlSendStatusP19_USBD_HandleTypeDef, .-_Z18USBD_CtlSendStatusP19_USBD_HandleTypeDef
 296 0032 00BF     		.section	.text._Z21USBD_CtlReceiveStatusP19_USBD_HandleTypeDef,"ax",%progbits
 297              		.align	2
 298              		.global	_Z21USBD_CtlReceiveStatusP19_USBD_HandleTypeDef
 299              		.thumb
 300              		.thumb_func
 301              		.type	_Z21USBD_CtlReceiveStatusP19_USBD_HandleTypeDef, %function
 302              	_Z21USBD_CtlReceiveStatusP19_USBD_HandleTypeDef:
 303              	.LFB61:
 188:Middlewares/ST/STM32_USB_Device_Library/Core/usbd_ioreq.cpp **** 
 189:Middlewares/ST/STM32_USB_Device_Library/Core/usbd_ioreq.cpp **** /**
 190:Middlewares/ST/STM32_USB_Device_Library/Core/usbd_ioreq.cpp **** * @brief  USBD_CtlReceiveStatus
 191:Middlewares/ST/STM32_USB_Device_Library/Core/usbd_ioreq.cpp **** *         receive zero lzngth packet on the ctl pipe
 192:Middlewares/ST/STM32_USB_Device_Library/Core/usbd_ioreq.cpp **** * @param  pdev: device instance
 193:Middlewares/ST/STM32_USB_Device_Library/Core/usbd_ioreq.cpp **** * @retval status
 194:Middlewares/ST/STM32_USB_Device_Library/Core/usbd_ioreq.cpp **** */
 195:Middlewares/ST/STM32_USB_Device_Library/Core/usbd_ioreq.cpp **** USBD_StatusTypeDef  USBD_CtlReceiveStatus (USBD_HandleTypeDef  *pdev)
 196:Middlewares/ST/STM32_USB_Device_Library/Core/usbd_ioreq.cpp **** {
 304              		.loc 1 196 0
 305              		.cfi_startproc
 306              		@ args = 0, pretend = 0, frame = 8
 307              		@ frame_needed = 1, uses_anonymous_args = 0
 308 0000 80B5     		push	{r7, lr}	@
 309              	.LCFI15:
 310              		.cfi_def_cfa_offset 8
 311              		.cfi_offset 7, -8
 312              		.cfi_offset 14, -4
 313 0002 82B0     		sub	sp, sp, #8	@,,
 314              	.LCFI16:
 315              		.cfi_def_cfa_offset 16
 316 0004 00AF     		add	r7, sp, #0	@,,
 317              	.LCFI17:
ARM GAS  /tmp/ccHL1Gl4.s 			page 10


 318              		.cfi_def_cfa_register 7
 319 0006 7860     		str	r0, [r7, #4]	@ pdev, pdev
 197:Middlewares/ST/STM32_USB_Device_Library/Core/usbd_ioreq.cpp ****   /* Set EP0 State */
 198:Middlewares/ST/STM32_USB_Device_Library/Core/usbd_ioreq.cpp ****   pdev->ep0_state = USBD_EP0_STATUS_OUT; 
 320              		.loc 1 198 0
 321 0008 7B68     		ldr	r3, [r7, #4]	@ tmp136, pdev
 322 000a 4FF00502 		mov	r2, #5	@ tmp137,
 323 000e C3F8F421 		str	r2, [r3, #500]	@ tmp137, pdev_1(D)->ep0_state
 199:Middlewares/ST/STM32_USB_Device_Library/Core/usbd_ioreq.cpp ****   
 200:Middlewares/ST/STM32_USB_Device_Library/Core/usbd_ioreq.cpp ****  /* Start the transfer */  
 201:Middlewares/ST/STM32_USB_Device_Library/Core/usbd_ioreq.cpp ****   USBD_LL_PrepareReceive ( pdev,
 202:Middlewares/ST/STM32_USB_Device_Library/Core/usbd_ioreq.cpp ****                     0,
 203:Middlewares/ST/STM32_USB_Device_Library/Core/usbd_ioreq.cpp ****                     NULL,
 204:Middlewares/ST/STM32_USB_Device_Library/Core/usbd_ioreq.cpp ****                     0);  
 324              		.loc 1 204 0
 325 0012 7868     		ldr	r0, [r7, #4]	@, pdev
 326 0014 4FF00001 		mov	r1, #0	@,
 327 0018 4FF00002 		mov	r2, #0	@,
 328 001c 4FF00003 		mov	r3, #0	@,
 329 0020 FFF7FEFF 		bl	_Z22USBD_LL_PrepareReceiveP19_USBD_HandleTypeDefhPht	@
 205:Middlewares/ST/STM32_USB_Device_Library/Core/usbd_ioreq.cpp **** 
 206:Middlewares/ST/STM32_USB_Device_Library/Core/usbd_ioreq.cpp ****   return USBD_OK;
 330              		.loc 1 206 0
 331 0024 4FF00003 		mov	r3, #0	@ D.7595,
 207:Middlewares/ST/STM32_USB_Device_Library/Core/usbd_ioreq.cpp **** }
 332              		.loc 1 207 0
 333 0028 1846     		mov	r0, r3	@, <retval>
 334 002a 07F10807 		add	r7, r7, #8	@,,
 335 002e BD46     		mov	sp, r7
 336 0030 80BD     		pop	{r7, pc}
 337              		.cfi_endproc
 338              	.LFE61:
 339              		.size	_Z21USBD_CtlReceiveStatusP19_USBD_HandleTypeDef, .-_Z21USBD_CtlReceiveStatusP19_USBD_HandleT
 340 0032 00BF     		.section	.text._Z15USBD_GetRxCountP19_USBD_HandleTypeDefh,"ax",%progbits
 341              		.align	2
 342              		.global	_Z15USBD_GetRxCountP19_USBD_HandleTypeDefh
 343              		.thumb
 344              		.thumb_func
 345              		.type	_Z15USBD_GetRxCountP19_USBD_HandleTypeDefh, %function
 346              	_Z15USBD_GetRxCountP19_USBD_HandleTypeDefh:
 347              	.LFB62:
 208:Middlewares/ST/STM32_USB_Device_Library/Core/usbd_ioreq.cpp **** 
 209:Middlewares/ST/STM32_USB_Device_Library/Core/usbd_ioreq.cpp **** 
 210:Middlewares/ST/STM32_USB_Device_Library/Core/usbd_ioreq.cpp **** /**
 211:Middlewares/ST/STM32_USB_Device_Library/Core/usbd_ioreq.cpp **** * @brief  USBD_GetRxCount
 212:Middlewares/ST/STM32_USB_Device_Library/Core/usbd_ioreq.cpp **** *         returns the received data length
 213:Middlewares/ST/STM32_USB_Device_Library/Core/usbd_ioreq.cpp **** * @param  pdev: device instance
 214:Middlewares/ST/STM32_USB_Device_Library/Core/usbd_ioreq.cpp **** * @param  ep_addr: endpoint address
 215:Middlewares/ST/STM32_USB_Device_Library/Core/usbd_ioreq.cpp **** * @retval Rx Data blength
 216:Middlewares/ST/STM32_USB_Device_Library/Core/usbd_ioreq.cpp **** */
 217:Middlewares/ST/STM32_USB_Device_Library/Core/usbd_ioreq.cpp **** uint16_t  USBD_GetRxCount (USBD_HandleTypeDef  *pdev , uint8_t ep_addr)
 218:Middlewares/ST/STM32_USB_Device_Library/Core/usbd_ioreq.cpp **** {
 348              		.loc 1 218 0
 349              		.cfi_startproc
 350              		@ args = 0, pretend = 0, frame = 8
 351              		@ frame_needed = 1, uses_anonymous_args = 0
 352 0000 80B5     		push	{r7, lr}	@
ARM GAS  /tmp/ccHL1Gl4.s 			page 11


 353              	.LCFI18:
 354              		.cfi_def_cfa_offset 8
 355              		.cfi_offset 7, -8
 356              		.cfi_offset 14, -4
 357 0002 82B0     		sub	sp, sp, #8	@,,
 358              	.LCFI19:
 359              		.cfi_def_cfa_offset 16
 360 0004 00AF     		add	r7, sp, #0	@,,
 361              	.LCFI20:
 362              		.cfi_def_cfa_register 7
 363 0006 7860     		str	r0, [r7, #4]	@ pdev, pdev
 364 0008 0B46     		mov	r3, r1	@ tmp137, ep_addr
 365 000a FB70     		strb	r3, [r7, #3]	@ tmp138, ep_addr
 219:Middlewares/ST/STM32_USB_Device_Library/Core/usbd_ioreq.cpp ****   return USBD_LL_GetRxDataSize(pdev, ep_addr);
 366              		.loc 1 219 0
 367 000c FB78     		ldrb	r3, [r7, #3]	@ zero_extendqisi2	@ tmp139, ep_addr
 368 000e 7868     		ldr	r0, [r7, #4]	@, pdev
 369 0010 1946     		mov	r1, r3	@, tmp139
 370 0012 FFF7FEFF 		bl	_Z21USBD_LL_GetRxDataSizeP19_USBD_HandleTypeDefh	@
 371 0016 0346     		mov	r3, r0	@ D.7593,
 372 0018 9BB2     		uxth	r3, r3	@ D.7592, D.7593
 220:Middlewares/ST/STM32_USB_Device_Library/Core/usbd_ioreq.cpp **** }
 373              		.loc 1 220 0
 374 001a 1846     		mov	r0, r3	@, <retval>
 375 001c 07F10807 		add	r7, r7, #8	@,,
 376 0020 BD46     		mov	sp, r7
 377 0022 80BD     		pop	{r7, pc}
 378              		.cfi_endproc
 379              	.LFE62:
 380              		.size	_Z15USBD_GetRxCountP19_USBD_HandleTypeDefh, .-_Z15USBD_GetRxCountP19_USBD_HandleTypeDefh
 381              		.text
 382              	.Letext0:
 383              		.file 2 "/home/maciek/gcc-arm-none-eabi/gcc-arm-none-eabi-4_7-2013q1/bin/../lib/gcc/arm-none-eabi/
 384              		.file 3 "Middlewares/ST/STM32_USB_Device_Library/Core/usbd_def.h"
 385              		.file 4 "Drivers/CMSIS/Include/core_cm3.h"