ARM GAS  /tmp/cctHw1ny.s 			page 1


   1              		.syntax unified
   2              		.cpu cortex-m3
   3              		.fpu softvfp
   4              		.eabi_attribute 20, 1	@ Tag_ABI_FP_denormal
   5              		.eabi_attribute 21, 1	@ Tag_ABI_FP_exceptions
   6              		.eabi_attribute 23, 3	@ Tag_ABI_FP_number_model
   7              		.eabi_attribute 24, 1	@ Tag_ABI_align8_needed
   8              		.eabi_attribute 25, 1	@ Tag_ABI_align8_preserved
   9              		.eabi_attribute 26, 1	@ Tag_ABI_enum_size
  10              		.eabi_attribute 30, 6	@ Tag_ABI_optimization_goals
  11              		.eabi_attribute 34, 1	@ Tag_CPU_unaligned_access
  12              		.eabi_attribute 18, 4	@ Tag_ABI_PCS_wchar_t
  13              		.file	"usbd_core.cpp"
  14              	@ GNU C++ (GNU Tools for ARM Embedded Processors) version 4.7.3 20130312 (release) [ARM/embedded-4_
  15              	@	compiled by GNU C version 4.3.6, GMP version 4.3.2, MPFR version 2.4.2, MPC version 0.8.1
  16              	@ GGC heuristics: --param ggc-min-expand=100 --param ggc-min-heapsize=131072
  17              	@ options passed:  -I . -I Src -I hdr -I Inc -I Middlewares
  18              	@ -I Middlewares/ST -I Middlewares/ST/STM32_USB_Device_Library/Class/CDC
  19              	@ -I Middlewares/ST/STM32_USB_Device_Library/Core -I Drivers
  20              	@ -I Drivers/CMSIS -I Drivers/CMSIS/Device/ST/STM32L1xx
  21              	@ -I Drivers/CMSIS/Include -I Drivers/STM32L1xx_HAL_Driver
  22              	@ -imultilib armv7-m
  23              	@ -iprefix /home/maciek/gcc-arm-none-eabi/gcc-arm-none-eabi-4_7-2013q1/bin/../lib/gcc/arm-none-eabi
  24              	@ -isysroot /home/maciek/gcc-arm-none-eabi/gcc-arm-none-eabi-4_7-2013q1/bin/../arm-none-eabi
  25              	@ -MD out/usbd_core.d -MF out/usbd_core.d -MP -MQ out/usbd_core.o
  26              	@ -D__USES_INITFINI__ -D STM32L1XX_MD
  27              	@ Middlewares/ST/STM32_USB_Device_Library/Core/usbd_core.cpp
  28              	@ -mcpu=cortex-m3 -mthumb -auxbase-strip out/usbd_core.o -g -ggdb3 -O0
  29              	@ -Wall -Wextra -std=gnu++11 -ffunction-sections -fdata-sections -fno-rtti
  30              	@ -fno-exceptions -fverbose-asm
  31              	@ options enabled:  -fauto-inc-dec -fbranch-count-reg -fcommon
  32              	@ -fdata-sections -fdebug-types-section -fdelete-null-pointer-checks
  33              	@ -fdwarf2-cfi-asm -fearly-inlining -feliminate-unused-debug-types
  34              	@ -ffunction-cse -ffunction-sections -fgcse-lm -fgnu-runtime -fident
  35              	@ -finline-atomics -fira-share-save-slots -fira-share-spill-slots -fivopts
  36              	@ -fkeep-static-consts -fleading-underscore -fmath-errno
  37              	@ -fmerge-debug-strings -fmove-loop-invariants -fpeephole
  38              	@ -fprefetch-loop-arrays -freg-struct-return
  39              	@ -fsched-critical-path-heuristic -fsched-dep-count-heuristic
  40              	@ -fsched-group-heuristic -fsched-interblock -fsched-last-insn-heuristic
  41              	@ -fsched-rank-heuristic -fsched-spec -fsched-spec-insn-heuristic
  42              	@ -fsched-stalled-insns-dep -fshow-column -fsigned-zeros
  43              	@ -fsplit-ivs-in-unroller -fstrict-volatile-bitfields -ftrapping-math
  44              	@ -ftree-cselim -ftree-forwprop -ftree-loop-if-convert -ftree-loop-im
  45              	@ -ftree-loop-ivcanon -ftree-loop-optimize -ftree-parallelize-loops=
  46              	@ -ftree-phiprop -ftree-pta -ftree-reassoc -ftree-scev-cprop
  47              	@ -ftree-slp-vectorize -ftree-vect-loop-version -funit-at-a-time
  48              	@ -fverbose-asm -fzero-initialized-in-bss -mfix-cortex-m3-ldrd
  49              	@ -mlittle-endian -msched-prolog -mthumb -munaligned-access
  50              	@ -mvectorize-with-neon-quad
  51              	
  52              		.text
  53              	.Ltext0:
  54              		.cfi_sections	.debug_frame
  55              		.section	.text._Z9USBD_InitP19_USBD_HandleTypeDefP23USBD_DescriptorsTypeDefh,"ax",%progbits
  56              		.align	2
  57              		.global	_Z9USBD_InitP19_USBD_HandleTypeDefP23USBD_DescriptorsTypeDefh
ARM GAS  /tmp/cctHw1ny.s 			page 2


  58              		.thumb
  59              		.thumb_func
  60              		.type	_Z9USBD_InitP19_USBD_HandleTypeDefP23USBD_DescriptorsTypeDefh, %function
  61              	_Z9USBD_InitP19_USBD_HandleTypeDefP23USBD_DescriptorsTypeDefh:
  62              	.LFB56:
  63              		.file 1 "Middlewares/ST/STM32_USB_Device_Library/Core/usbd_core.cpp"
   1:Middlewares/ST/STM32_USB_Device_Library/Core/usbd_core.cpp **** /**
   2:Middlewares/ST/STM32_USB_Device_Library/Core/usbd_core.cpp ****   ******************************************************************************
   3:Middlewares/ST/STM32_USB_Device_Library/Core/usbd_core.cpp ****   * @file    usbd_core.c
   4:Middlewares/ST/STM32_USB_Device_Library/Core/usbd_core.cpp ****   * @author  MCD Application Team
   5:Middlewares/ST/STM32_USB_Device_Library/Core/usbd_core.cpp ****   * @version V2.2.0
   6:Middlewares/ST/STM32_USB_Device_Library/Core/usbd_core.cpp ****   * @date    13-June-2014
   7:Middlewares/ST/STM32_USB_Device_Library/Core/usbd_core.cpp ****   * @brief   This file provides all the USBD core functions.
   8:Middlewares/ST/STM32_USB_Device_Library/Core/usbd_core.cpp ****   ******************************************************************************
   9:Middlewares/ST/STM32_USB_Device_Library/Core/usbd_core.cpp ****   * @attention
  10:Middlewares/ST/STM32_USB_Device_Library/Core/usbd_core.cpp ****   *
  11:Middlewares/ST/STM32_USB_Device_Library/Core/usbd_core.cpp ****   * <h2><center>&copy; COPYRIGHT 2014 STMicroelectronics</center></h2>
  12:Middlewares/ST/STM32_USB_Device_Library/Core/usbd_core.cpp ****   *
  13:Middlewares/ST/STM32_USB_Device_Library/Core/usbd_core.cpp ****   * Licensed under MCD-ST Liberty SW License Agreement V2, (the "License");
  14:Middlewares/ST/STM32_USB_Device_Library/Core/usbd_core.cpp ****   * You may not use this file except in compliance with the License.
  15:Middlewares/ST/STM32_USB_Device_Library/Core/usbd_core.cpp ****   * You may obtain a copy of the License at:
  16:Middlewares/ST/STM32_USB_Device_Library/Core/usbd_core.cpp ****   *
  17:Middlewares/ST/STM32_USB_Device_Library/Core/usbd_core.cpp ****   *        http://www.st.com/software_license_agreement_liberty_v2
  18:Middlewares/ST/STM32_USB_Device_Library/Core/usbd_core.cpp ****   *
  19:Middlewares/ST/STM32_USB_Device_Library/Core/usbd_core.cpp ****   * Unless required by applicable law or agreed to in writing, software 
  20:Middlewares/ST/STM32_USB_Device_Library/Core/usbd_core.cpp ****   * distributed under the License is distributed on an "AS IS" BASIS, 
  21:Middlewares/ST/STM32_USB_Device_Library/Core/usbd_core.cpp ****   * WITHOUT WARRANTIES OR CONDITIONS OF ANY KIND, either express or implied.
  22:Middlewares/ST/STM32_USB_Device_Library/Core/usbd_core.cpp ****   * See the License for the specific language governing permissions and
  23:Middlewares/ST/STM32_USB_Device_Library/Core/usbd_core.cpp ****   * limitations under the License.
  24:Middlewares/ST/STM32_USB_Device_Library/Core/usbd_core.cpp ****   *
  25:Middlewares/ST/STM32_USB_Device_Library/Core/usbd_core.cpp ****   ******************************************************************************
  26:Middlewares/ST/STM32_USB_Device_Library/Core/usbd_core.cpp ****   */ 
  27:Middlewares/ST/STM32_USB_Device_Library/Core/usbd_core.cpp **** 
  28:Middlewares/ST/STM32_USB_Device_Library/Core/usbd_core.cpp **** /* Includes ------------------------------------------------------------------*/
  29:Middlewares/ST/STM32_USB_Device_Library/Core/usbd_core.cpp **** #include "usbd_core.h"
  30:Middlewares/ST/STM32_USB_Device_Library/Core/usbd_core.cpp **** 
  31:Middlewares/ST/STM32_USB_Device_Library/Core/usbd_core.cpp **** /** @addtogroup STM32_USBD_DEVICE_LIBRARY
  32:Middlewares/ST/STM32_USB_Device_Library/Core/usbd_core.cpp **** * @{
  33:Middlewares/ST/STM32_USB_Device_Library/Core/usbd_core.cpp **** */
  34:Middlewares/ST/STM32_USB_Device_Library/Core/usbd_core.cpp **** 
  35:Middlewares/ST/STM32_USB_Device_Library/Core/usbd_core.cpp **** 
  36:Middlewares/ST/STM32_USB_Device_Library/Core/usbd_core.cpp **** /** @defgroup USBD_CORE 
  37:Middlewares/ST/STM32_USB_Device_Library/Core/usbd_core.cpp **** * @brief usbd core module
  38:Middlewares/ST/STM32_USB_Device_Library/Core/usbd_core.cpp **** * @{
  39:Middlewares/ST/STM32_USB_Device_Library/Core/usbd_core.cpp **** */ 
  40:Middlewares/ST/STM32_USB_Device_Library/Core/usbd_core.cpp **** 
  41:Middlewares/ST/STM32_USB_Device_Library/Core/usbd_core.cpp **** /** @defgroup USBD_CORE_Private_TypesDefinitions
  42:Middlewares/ST/STM32_USB_Device_Library/Core/usbd_core.cpp **** * @{
  43:Middlewares/ST/STM32_USB_Device_Library/Core/usbd_core.cpp **** */ 
  44:Middlewares/ST/STM32_USB_Device_Library/Core/usbd_core.cpp **** /**
  45:Middlewares/ST/STM32_USB_Device_Library/Core/usbd_core.cpp **** * @}
  46:Middlewares/ST/STM32_USB_Device_Library/Core/usbd_core.cpp **** */ 
  47:Middlewares/ST/STM32_USB_Device_Library/Core/usbd_core.cpp **** 
  48:Middlewares/ST/STM32_USB_Device_Library/Core/usbd_core.cpp **** 
  49:Middlewares/ST/STM32_USB_Device_Library/Core/usbd_core.cpp **** /** @defgroup USBD_CORE_Private_Defines
  50:Middlewares/ST/STM32_USB_Device_Library/Core/usbd_core.cpp **** * @{
  51:Middlewares/ST/STM32_USB_Device_Library/Core/usbd_core.cpp **** */ 
ARM GAS  /tmp/cctHw1ny.s 			page 3


  52:Middlewares/ST/STM32_USB_Device_Library/Core/usbd_core.cpp **** 
  53:Middlewares/ST/STM32_USB_Device_Library/Core/usbd_core.cpp **** /**
  54:Middlewares/ST/STM32_USB_Device_Library/Core/usbd_core.cpp **** * @}
  55:Middlewares/ST/STM32_USB_Device_Library/Core/usbd_core.cpp **** */ 
  56:Middlewares/ST/STM32_USB_Device_Library/Core/usbd_core.cpp **** 
  57:Middlewares/ST/STM32_USB_Device_Library/Core/usbd_core.cpp **** 
  58:Middlewares/ST/STM32_USB_Device_Library/Core/usbd_core.cpp **** /** @defgroup USBD_CORE_Private_Macros
  59:Middlewares/ST/STM32_USB_Device_Library/Core/usbd_core.cpp **** * @{
  60:Middlewares/ST/STM32_USB_Device_Library/Core/usbd_core.cpp **** */ 
  61:Middlewares/ST/STM32_USB_Device_Library/Core/usbd_core.cpp **** /**
  62:Middlewares/ST/STM32_USB_Device_Library/Core/usbd_core.cpp **** * @}
  63:Middlewares/ST/STM32_USB_Device_Library/Core/usbd_core.cpp **** */ 
  64:Middlewares/ST/STM32_USB_Device_Library/Core/usbd_core.cpp **** 
  65:Middlewares/ST/STM32_USB_Device_Library/Core/usbd_core.cpp **** 
  66:Middlewares/ST/STM32_USB_Device_Library/Core/usbd_core.cpp **** 
  67:Middlewares/ST/STM32_USB_Device_Library/Core/usbd_core.cpp **** 
  68:Middlewares/ST/STM32_USB_Device_Library/Core/usbd_core.cpp **** /** @defgroup USBD_CORE_Private_FunctionPrototypes
  69:Middlewares/ST/STM32_USB_Device_Library/Core/usbd_core.cpp **** * @{
  70:Middlewares/ST/STM32_USB_Device_Library/Core/usbd_core.cpp **** */ 
  71:Middlewares/ST/STM32_USB_Device_Library/Core/usbd_core.cpp **** 
  72:Middlewares/ST/STM32_USB_Device_Library/Core/usbd_core.cpp **** /**
  73:Middlewares/ST/STM32_USB_Device_Library/Core/usbd_core.cpp **** * @}
  74:Middlewares/ST/STM32_USB_Device_Library/Core/usbd_core.cpp **** */ 
  75:Middlewares/ST/STM32_USB_Device_Library/Core/usbd_core.cpp **** 
  76:Middlewares/ST/STM32_USB_Device_Library/Core/usbd_core.cpp **** /** @defgroup USBD_CORE_Private_Variables
  77:Middlewares/ST/STM32_USB_Device_Library/Core/usbd_core.cpp **** * @{
  78:Middlewares/ST/STM32_USB_Device_Library/Core/usbd_core.cpp **** */ 
  79:Middlewares/ST/STM32_USB_Device_Library/Core/usbd_core.cpp **** 
  80:Middlewares/ST/STM32_USB_Device_Library/Core/usbd_core.cpp **** /**
  81:Middlewares/ST/STM32_USB_Device_Library/Core/usbd_core.cpp **** * @}
  82:Middlewares/ST/STM32_USB_Device_Library/Core/usbd_core.cpp **** */ 
  83:Middlewares/ST/STM32_USB_Device_Library/Core/usbd_core.cpp **** 
  84:Middlewares/ST/STM32_USB_Device_Library/Core/usbd_core.cpp **** /** @defgroup USBD_CORE_Private_Functions
  85:Middlewares/ST/STM32_USB_Device_Library/Core/usbd_core.cpp **** * @{
  86:Middlewares/ST/STM32_USB_Device_Library/Core/usbd_core.cpp **** */ 
  87:Middlewares/ST/STM32_USB_Device_Library/Core/usbd_core.cpp **** 
  88:Middlewares/ST/STM32_USB_Device_Library/Core/usbd_core.cpp **** /**
  89:Middlewares/ST/STM32_USB_Device_Library/Core/usbd_core.cpp **** * @brief  USBD_Init
  90:Middlewares/ST/STM32_USB_Device_Library/Core/usbd_core.cpp **** *         Initailizes the device stack and load the class driver
  91:Middlewares/ST/STM32_USB_Device_Library/Core/usbd_core.cpp **** * @param  pdev: device instance
  92:Middlewares/ST/STM32_USB_Device_Library/Core/usbd_core.cpp **** * @param  pdesc: Descriptor structure address
  93:Middlewares/ST/STM32_USB_Device_Library/Core/usbd_core.cpp **** * @param  id: Low level core index
  94:Middlewares/ST/STM32_USB_Device_Library/Core/usbd_core.cpp **** * @retval None
  95:Middlewares/ST/STM32_USB_Device_Library/Core/usbd_core.cpp **** */
  96:Middlewares/ST/STM32_USB_Device_Library/Core/usbd_core.cpp **** USBD_StatusTypeDef USBD_Init(USBD_HandleTypeDef *pdev, USBD_DescriptorsTypeDef *pdesc, uint8_t id)
  97:Middlewares/ST/STM32_USB_Device_Library/Core/usbd_core.cpp **** {
  64              		.loc 1 97 0
  65              		.cfi_startproc
  66              		@ args = 0, pretend = 0, frame = 16
  67              		@ frame_needed = 1, uses_anonymous_args = 0
  68 0000 80B5     		push	{r7, lr}	@
  69              	.LCFI0:
  70              		.cfi_def_cfa_offset 8
  71              		.cfi_offset 7, -8
  72              		.cfi_offset 14, -4
  73 0002 84B0     		sub	sp, sp, #16	@,,
  74              	.LCFI1:
ARM GAS  /tmp/cctHw1ny.s 			page 4


  75              		.cfi_def_cfa_offset 24
  76 0004 00AF     		add	r7, sp, #0	@,,
  77              	.LCFI2:
  78              		.cfi_def_cfa_register 7
  79 0006 F860     		str	r0, [r7, #12]	@ pdev, pdev
  80 0008 B960     		str	r1, [r7, #8]	@ pdesc, pdesc
  81 000a 1346     		mov	r3, r2	@ tmp137, id
  82 000c FB71     		strb	r3, [r7, #7]	@ tmp138, id
  98:Middlewares/ST/STM32_USB_Device_Library/Core/usbd_core.cpp ****   /* Check whether the USB Host handle is valid */
  99:Middlewares/ST/STM32_USB_Device_Library/Core/usbd_core.cpp ****   if(pdev == NULL)
  83              		.loc 1 99 0
  84 000e FB68     		ldr	r3, [r7, #12]	@ tmp139, pdev
  85 0010 002B     		cmp	r3, #0	@ tmp139,
  86 0012 02D1     		bne	.L2	@,
 100:Middlewares/ST/STM32_USB_Device_Library/Core/usbd_core.cpp ****   {
 101:Middlewares/ST/STM32_USB_Device_Library/Core/usbd_core.cpp ****     USBD_ErrLog("Invalid Device handle");
 102:Middlewares/ST/STM32_USB_Device_Library/Core/usbd_core.cpp ****     return USBD_FAIL; 
  87              		.loc 1 102 0
  88 0014 4FF00203 		mov	r3, #2	@ D.7840,
  89 0018 1DE0     		b	.L3	@
  90              	.L2:
 103:Middlewares/ST/STM32_USB_Device_Library/Core/usbd_core.cpp ****   }
 104:Middlewares/ST/STM32_USB_Device_Library/Core/usbd_core.cpp ****   
 105:Middlewares/ST/STM32_USB_Device_Library/Core/usbd_core.cpp ****   /* Unlink previous class*/
 106:Middlewares/ST/STM32_USB_Device_Library/Core/usbd_core.cpp ****   if(pdev->pClass != NULL)
  91              		.loc 1 106 0
  92 001a FB68     		ldr	r3, [r7, #12]	@ tmp140, pdev
  93 001c D3F81432 		ldr	r3, [r3, #532]	@ D.7841, pdev_2(D)->pClass
  94 0020 002B     		cmp	r3, #0	@ D.7841,
  95 0022 04D0     		beq	.L4	@,
 107:Middlewares/ST/STM32_USB_Device_Library/Core/usbd_core.cpp ****   {
 108:Middlewares/ST/STM32_USB_Device_Library/Core/usbd_core.cpp ****     pdev->pClass = NULL;
  96              		.loc 1 108 0
  97 0024 FB68     		ldr	r3, [r7, #12]	@ tmp141, pdev
  98 0026 4FF00002 		mov	r2, #0	@ tmp142,
  99 002a C3F81422 		str	r2, [r3, #532]	@ tmp142, pdev_2(D)->pClass
 100              	.L4:
 109:Middlewares/ST/STM32_USB_Device_Library/Core/usbd_core.cpp ****   }
 110:Middlewares/ST/STM32_USB_Device_Library/Core/usbd_core.cpp ****   
 111:Middlewares/ST/STM32_USB_Device_Library/Core/usbd_core.cpp ****   /* Assign USBD Descriptors */
 112:Middlewares/ST/STM32_USB_Device_Library/Core/usbd_core.cpp ****   if(pdesc != NULL)
 101              		.loc 1 112 0
 102 002e BB68     		ldr	r3, [r7, #8]	@ tmp143, pdesc
 103 0030 002B     		cmp	r3, #0	@ tmp143,
 104 0032 03D0     		beq	.L5	@,
 113:Middlewares/ST/STM32_USB_Device_Library/Core/usbd_core.cpp ****   {
 114:Middlewares/ST/STM32_USB_Device_Library/Core/usbd_core.cpp ****     pdev->pDesc = pdesc;
 105              		.loc 1 114 0
 106 0034 FB68     		ldr	r3, [r7, #12]	@ tmp144, pdev
 107 0036 BA68     		ldr	r2, [r7, #8]	@ tmp145, pdesc
 108 0038 C3F81022 		str	r2, [r3, #528]	@ tmp145, pdev_2(D)->pDesc
 109              	.L5:
 115:Middlewares/ST/STM32_USB_Device_Library/Core/usbd_core.cpp ****   }
 116:Middlewares/ST/STM32_USB_Device_Library/Core/usbd_core.cpp ****   
 117:Middlewares/ST/STM32_USB_Device_Library/Core/usbd_core.cpp ****   /* Set Device initial State */
 118:Middlewares/ST/STM32_USB_Device_Library/Core/usbd_core.cpp ****   pdev->dev_state  = USBD_STATE_DEFAULT;
 110              		.loc 1 118 0
ARM GAS  /tmp/cctHw1ny.s 			page 5


 111 003c FB68     		ldr	r3, [r7, #12]	@ tmp146, pdev
 112 003e 4FF00102 		mov	r2, #1	@ tmp147,
 113 0042 83F8FC21 		strb	r2, [r3, #508]	@ tmp148, pdev_2(D)->dev_state
 119:Middlewares/ST/STM32_USB_Device_Library/Core/usbd_core.cpp ****   pdev->id = id;
 114              		.loc 1 119 0
 115 0046 FB68     		ldr	r3, [r7, #12]	@ tmp149, pdev
 116 0048 FA79     		ldrb	r2, [r7, #7]	@ tmp150, id
 117 004a 1A70     		strb	r2, [r3, #0]	@ tmp150, pdev_2(D)->id
 120:Middlewares/ST/STM32_USB_Device_Library/Core/usbd_core.cpp ****   /* Initialize low level driver */
 121:Middlewares/ST/STM32_USB_Device_Library/Core/usbd_core.cpp ****   USBD_LL_Init(pdev);
 118              		.loc 1 121 0
 119 004c F868     		ldr	r0, [r7, #12]	@, pdev
 120 004e FFF7FEFF 		bl	_Z12USBD_LL_InitP19_USBD_HandleTypeDef	@
 122:Middlewares/ST/STM32_USB_Device_Library/Core/usbd_core.cpp ****   
 123:Middlewares/ST/STM32_USB_Device_Library/Core/usbd_core.cpp ****   return USBD_OK; 
 121              		.loc 1 123 0
 122 0052 4FF00003 		mov	r3, #0	@ D.7840,
 123              	.L3:
 124:Middlewares/ST/STM32_USB_Device_Library/Core/usbd_core.cpp **** }
 124              		.loc 1 124 0
 125 0056 1846     		mov	r0, r3	@, <retval>
 126 0058 07F11007 		add	r7, r7, #16	@,,
 127 005c BD46     		mov	sp, r7
 128 005e 80BD     		pop	{r7, pc}
 129              		.cfi_endproc
 130              	.LFE56:
 131              		.size	_Z9USBD_InitP19_USBD_HandleTypeDefP23USBD_DescriptorsTypeDefh, .-_Z9USBD_InitP19_USBD_Handle
 132              		.section	.text._Z11USBD_DeInitP19_USBD_HandleTypeDef,"ax",%progbits
 133              		.align	2
 134              		.global	_Z11USBD_DeInitP19_USBD_HandleTypeDef
 135              		.thumb
 136              		.thumb_func
 137              		.type	_Z11USBD_DeInitP19_USBD_HandleTypeDef, %function
 138              	_Z11USBD_DeInitP19_USBD_HandleTypeDef:
 139              	.LFB57:
 125:Middlewares/ST/STM32_USB_Device_Library/Core/usbd_core.cpp **** 
 126:Middlewares/ST/STM32_USB_Device_Library/Core/usbd_core.cpp **** /**
 127:Middlewares/ST/STM32_USB_Device_Library/Core/usbd_core.cpp **** * @brief  USBD_DeInit 
 128:Middlewares/ST/STM32_USB_Device_Library/Core/usbd_core.cpp **** *         Re-Initialize th device library
 129:Middlewares/ST/STM32_USB_Device_Library/Core/usbd_core.cpp **** * @param  pdev: device instance
 130:Middlewares/ST/STM32_USB_Device_Library/Core/usbd_core.cpp **** * @retval status: status
 131:Middlewares/ST/STM32_USB_Device_Library/Core/usbd_core.cpp **** */
 132:Middlewares/ST/STM32_USB_Device_Library/Core/usbd_core.cpp **** USBD_StatusTypeDef USBD_DeInit(USBD_HandleTypeDef *pdev)
 133:Middlewares/ST/STM32_USB_Device_Library/Core/usbd_core.cpp **** {
 140              		.loc 1 133 0
 141              		.cfi_startproc
 142              		@ args = 0, pretend = 0, frame = 8
 143              		@ frame_needed = 1, uses_anonymous_args = 0
 144 0000 80B5     		push	{r7, lr}	@
 145              	.LCFI3:
 146              		.cfi_def_cfa_offset 8
 147              		.cfi_offset 7, -8
 148              		.cfi_offset 14, -4
 149 0002 82B0     		sub	sp, sp, #8	@,,
 150              	.LCFI4:
 151              		.cfi_def_cfa_offset 16
 152 0004 00AF     		add	r7, sp, #0	@,,
ARM GAS  /tmp/cctHw1ny.s 			page 6


 153              	.LCFI5:
 154              		.cfi_def_cfa_register 7
 155 0006 7860     		str	r0, [r7, #4]	@ pdev, pdev
 134:Middlewares/ST/STM32_USB_Device_Library/Core/usbd_core.cpp ****   /* Set Default State */
 135:Middlewares/ST/STM32_USB_Device_Library/Core/usbd_core.cpp ****   pdev->dev_state  = USBD_STATE_DEFAULT;
 156              		.loc 1 135 0
 157 0008 7B68     		ldr	r3, [r7, #4]	@ tmp140, pdev
 158 000a 4FF00102 		mov	r2, #1	@ tmp141,
 159 000e 83F8FC21 		strb	r2, [r3, #508]	@ tmp142, pdev_1(D)->dev_state
 136:Middlewares/ST/STM32_USB_Device_Library/Core/usbd_core.cpp ****   
 137:Middlewares/ST/STM32_USB_Device_Library/Core/usbd_core.cpp ****   /* Free Class Resources */
 138:Middlewares/ST/STM32_USB_Device_Library/Core/usbd_core.cpp ****   pdev->pClass->DeInit(pdev, pdev->dev_config);  
 160              		.loc 1 138 0
 161 0012 7B68     		ldr	r3, [r7, #4]	@ tmp143, pdev
 162 0014 D3F81432 		ldr	r3, [r3, #532]	@ D.7832, pdev_1(D)->pClass
 163 0018 5B68     		ldr	r3, [r3, #4]	@ D.7833, D.7832_2->DeInit
 164 001a 7A68     		ldr	r2, [r7, #4]	@ tmp144, pdev
 165 001c 5268     		ldr	r2, [r2, #4]	@ D.7834, pdev_1(D)->dev_config
 166 001e D2B2     		uxtb	r2, r2	@ D.7835, D.7834
 167 0020 7868     		ldr	r0, [r7, #4]	@, pdev
 168 0022 1146     		mov	r1, r2	@, D.7835
 169 0024 9847     		blx	r3	@ D.7833
 139:Middlewares/ST/STM32_USB_Device_Library/Core/usbd_core.cpp ****   
 140:Middlewares/ST/STM32_USB_Device_Library/Core/usbd_core.cpp ****     /* Stop the low level driver  */
 141:Middlewares/ST/STM32_USB_Device_Library/Core/usbd_core.cpp ****   USBD_LL_Stop(pdev); 
 170              		.loc 1 141 0
 171 0026 7868     		ldr	r0, [r7, #4]	@, pdev
 172 0028 FFF7FEFF 		bl	_Z12USBD_LL_StopP19_USBD_HandleTypeDef	@
 142:Middlewares/ST/STM32_USB_Device_Library/Core/usbd_core.cpp ****   
 143:Middlewares/ST/STM32_USB_Device_Library/Core/usbd_core.cpp ****   /* Initialize low level driver */
 144:Middlewares/ST/STM32_USB_Device_Library/Core/usbd_core.cpp ****   USBD_LL_DeInit(pdev);
 173              		.loc 1 144 0
 174 002c 7868     		ldr	r0, [r7, #4]	@, pdev
 175 002e FFF7FEFF 		bl	_Z14USBD_LL_DeInitP19_USBD_HandleTypeDef	@
 145:Middlewares/ST/STM32_USB_Device_Library/Core/usbd_core.cpp ****   
 146:Middlewares/ST/STM32_USB_Device_Library/Core/usbd_core.cpp ****   return USBD_OK;
 176              		.loc 1 146 0
 177 0032 4FF00003 		mov	r3, #0	@ D.7836,
 147:Middlewares/ST/STM32_USB_Device_Library/Core/usbd_core.cpp **** }
 178              		.loc 1 147 0
 179 0036 1846     		mov	r0, r3	@, <retval>
 180 0038 07F10807 		add	r7, r7, #8	@,,
 181 003c BD46     		mov	sp, r7
 182 003e 80BD     		pop	{r7, pc}
 183              		.cfi_endproc
 184              	.LFE57:
 185              		.size	_Z11USBD_DeInitP19_USBD_HandleTypeDef, .-_Z11USBD_DeInitP19_USBD_HandleTypeDef
 186              		.section	.text._Z18USBD_RegisterClassP19_USBD_HandleTypeDefP10_Device_cb,"ax",%progbits
 187              		.align	2
 188              		.global	_Z18USBD_RegisterClassP19_USBD_HandleTypeDefP10_Device_cb
 189              		.thumb
 190              		.thumb_func
 191              		.type	_Z18USBD_RegisterClassP19_USBD_HandleTypeDefP10_Device_cb, %function
 192              	_Z18USBD_RegisterClassP19_USBD_HandleTypeDefP10_Device_cb:
 193              	.LFB58:
 148:Middlewares/ST/STM32_USB_Device_Library/Core/usbd_core.cpp **** 
 149:Middlewares/ST/STM32_USB_Device_Library/Core/usbd_core.cpp **** 
ARM GAS  /tmp/cctHw1ny.s 			page 7


 150:Middlewares/ST/STM32_USB_Device_Library/Core/usbd_core.cpp **** /**
 151:Middlewares/ST/STM32_USB_Device_Library/Core/usbd_core.cpp ****   * @brief  USBD_RegisterClass 
 152:Middlewares/ST/STM32_USB_Device_Library/Core/usbd_core.cpp ****   *         Link class driver to Device Core.
 153:Middlewares/ST/STM32_USB_Device_Library/Core/usbd_core.cpp ****   * @param  pDevice : Device Handle
 154:Middlewares/ST/STM32_USB_Device_Library/Core/usbd_core.cpp ****   * @param  pclass: Class handle
 155:Middlewares/ST/STM32_USB_Device_Library/Core/usbd_core.cpp ****   * @retval USBD Status
 156:Middlewares/ST/STM32_USB_Device_Library/Core/usbd_core.cpp ****   */
 157:Middlewares/ST/STM32_USB_Device_Library/Core/usbd_core.cpp **** USBD_StatusTypeDef  USBD_RegisterClass(USBD_HandleTypeDef *pdev, USBD_ClassTypeDef *pclass)
 158:Middlewares/ST/STM32_USB_Device_Library/Core/usbd_core.cpp **** {
 194              		.loc 1 158 0
 195              		.cfi_startproc
 196              		@ args = 0, pretend = 0, frame = 16
 197              		@ frame_needed = 1, uses_anonymous_args = 0
 198              		@ link register save eliminated.
 199 0000 80B4     		push	{r7}	@
 200              	.LCFI6:
 201              		.cfi_def_cfa_offset 4
 202              		.cfi_offset 7, -4
 203 0002 85B0     		sub	sp, sp, #20	@,,
 204              	.LCFI7:
 205              		.cfi_def_cfa_offset 24
 206 0004 00AF     		add	r7, sp, #0	@,,
 207              	.LCFI8:
 208              		.cfi_def_cfa_register 7
 209 0006 7860     		str	r0, [r7, #4]	@ pdev, pdev
 210 0008 3960     		str	r1, [r7, #0]	@ pclass, pclass
 211              	.LBB2:
 159:Middlewares/ST/STM32_USB_Device_Library/Core/usbd_core.cpp ****   USBD_StatusTypeDef   status = USBD_OK;
 212              		.loc 1 159 0
 213 000a 4FF00003 		mov	r3, #0	@ tmp136,
 214 000e FB73     		strb	r3, [r7, #15]	@ tmp137, status
 160:Middlewares/ST/STM32_USB_Device_Library/Core/usbd_core.cpp ****   if(pclass != 0)
 215              		.loc 1 160 0
 216 0010 3B68     		ldr	r3, [r7, #0]	@ tmp138, pclass
 217 0012 002B     		cmp	r3, #0	@ tmp138,
 218 0014 07D0     		beq	.L9	@,
 161:Middlewares/ST/STM32_USB_Device_Library/Core/usbd_core.cpp ****   {
 162:Middlewares/ST/STM32_USB_Device_Library/Core/usbd_core.cpp ****     /* link the class tgo the USB Device handle */
 163:Middlewares/ST/STM32_USB_Device_Library/Core/usbd_core.cpp ****     pdev->pClass = pclass;
 219              		.loc 1 163 0
 220 0016 7B68     		ldr	r3, [r7, #4]	@ tmp139, pdev
 221 0018 3A68     		ldr	r2, [r7, #0]	@ tmp140, pclass
 222 001a C3F81422 		str	r2, [r3, #532]	@ tmp140, pdev_4(D)->pClass
 164:Middlewares/ST/STM32_USB_Device_Library/Core/usbd_core.cpp ****     status = USBD_OK;
 223              		.loc 1 164 0
 224 001e 4FF00003 		mov	r3, #0	@ tmp141,
 225 0022 FB73     		strb	r3, [r7, #15]	@ tmp142, status
 226 0024 02E0     		b	.L10	@
 227              	.L9:
 165:Middlewares/ST/STM32_USB_Device_Library/Core/usbd_core.cpp ****   }
 166:Middlewares/ST/STM32_USB_Device_Library/Core/usbd_core.cpp ****   else
 167:Middlewares/ST/STM32_USB_Device_Library/Core/usbd_core.cpp ****   {
 168:Middlewares/ST/STM32_USB_Device_Library/Core/usbd_core.cpp ****     USBD_ErrLog("Invalid Class handle");
 169:Middlewares/ST/STM32_USB_Device_Library/Core/usbd_core.cpp ****     status = USBD_FAIL; 
 228              		.loc 1 169 0
 229 0026 4FF00203 		mov	r3, #2	@ tmp143,
 230 002a FB73     		strb	r3, [r7, #15]	@ tmp144, status
ARM GAS  /tmp/cctHw1ny.s 			page 8


 231              	.L10:
 170:Middlewares/ST/STM32_USB_Device_Library/Core/usbd_core.cpp ****   }
 171:Middlewares/ST/STM32_USB_Device_Library/Core/usbd_core.cpp ****   
 172:Middlewares/ST/STM32_USB_Device_Library/Core/usbd_core.cpp ****   return status;
 232              		.loc 1 172 0
 233 002c FB7B     		ldrb	r3, [r7, #15]	@ zero_extendqisi2	@ D.7830, status
 234              	.LBE2:
 173:Middlewares/ST/STM32_USB_Device_Library/Core/usbd_core.cpp **** }
 235              		.loc 1 173 0
 236 002e 1846     		mov	r0, r3	@, <retval>
 237 0030 07F11407 		add	r7, r7, #20	@,,
 238 0034 BD46     		mov	sp, r7
 239 0036 80BC     		pop	{r7}
 240 0038 7047     		bx	lr
 241              		.cfi_endproc
 242              	.LFE58:
 243              		.size	_Z18USBD_RegisterClassP19_USBD_HandleTypeDefP10_Device_cb, .-_Z18USBD_RegisterClassP19_USBD_
 244 003a 00BF     		.section	.text._Z10USBD_StartP19_USBD_HandleTypeDef,"ax",%progbits
 245              		.align	2
 246              		.global	_Z10USBD_StartP19_USBD_HandleTypeDef
 247              		.thumb
 248              		.thumb_func
 249              		.type	_Z10USBD_StartP19_USBD_HandleTypeDef, %function
 250              	_Z10USBD_StartP19_USBD_HandleTypeDef:
 251              	.LFB59:
 174:Middlewares/ST/STM32_USB_Device_Library/Core/usbd_core.cpp **** 
 175:Middlewares/ST/STM32_USB_Device_Library/Core/usbd_core.cpp **** /**
 176:Middlewares/ST/STM32_USB_Device_Library/Core/usbd_core.cpp ****   * @brief  USBD_Start 
 177:Middlewares/ST/STM32_USB_Device_Library/Core/usbd_core.cpp ****   *         Start the USB Device Core.
 178:Middlewares/ST/STM32_USB_Device_Library/Core/usbd_core.cpp ****   * @param  pdev: Device Handle
 179:Middlewares/ST/STM32_USB_Device_Library/Core/usbd_core.cpp ****   * @retval USBD Status
 180:Middlewares/ST/STM32_USB_Device_Library/Core/usbd_core.cpp ****   */
 181:Middlewares/ST/STM32_USB_Device_Library/Core/usbd_core.cpp **** USBD_StatusTypeDef  USBD_Start  (USBD_HandleTypeDef *pdev)
 182:Middlewares/ST/STM32_USB_Device_Library/Core/usbd_core.cpp **** {
 252              		.loc 1 182 0
 253              		.cfi_startproc
 254              		@ args = 0, pretend = 0, frame = 8
 255              		@ frame_needed = 1, uses_anonymous_args = 0
 256 0000 80B5     		push	{r7, lr}	@
 257              	.LCFI9:
 258              		.cfi_def_cfa_offset 8
 259              		.cfi_offset 7, -8
 260              		.cfi_offset 14, -4
 261 0002 82B0     		sub	sp, sp, #8	@,,
 262              	.LCFI10:
 263              		.cfi_def_cfa_offset 16
 264 0004 00AF     		add	r7, sp, #0	@,,
 265              	.LCFI11:
 266              		.cfi_def_cfa_register 7
 267 0006 7860     		str	r0, [r7, #4]	@ pdev, pdev
 183:Middlewares/ST/STM32_USB_Device_Library/Core/usbd_core.cpp ****   
 184:Middlewares/ST/STM32_USB_Device_Library/Core/usbd_core.cpp ****   /* Start the low level driver  */
 185:Middlewares/ST/STM32_USB_Device_Library/Core/usbd_core.cpp ****   USBD_LL_Start(pdev); 
 268              		.loc 1 185 0
 269 0008 7868     		ldr	r0, [r7, #4]	@, pdev
 270 000a FFF7FEFF 		bl	_Z13USBD_LL_StartP19_USBD_HandleTypeDef	@
 186:Middlewares/ST/STM32_USB_Device_Library/Core/usbd_core.cpp ****   
ARM GAS  /tmp/cctHw1ny.s 			page 9


 187:Middlewares/ST/STM32_USB_Device_Library/Core/usbd_core.cpp ****   return USBD_OK;  
 271              		.loc 1 187 0
 272 000e 4FF00003 		mov	r3, #0	@ D.7825,
 188:Middlewares/ST/STM32_USB_Device_Library/Core/usbd_core.cpp **** }
 273              		.loc 1 188 0
 274 0012 1846     		mov	r0, r3	@, <retval>
 275 0014 07F10807 		add	r7, r7, #8	@,,
 276 0018 BD46     		mov	sp, r7
 277 001a 80BD     		pop	{r7, pc}
 278              		.cfi_endproc
 279              	.LFE59:
 280              		.size	_Z10USBD_StartP19_USBD_HandleTypeDef, .-_Z10USBD_StartP19_USBD_HandleTypeDef
 281              		.section	.text._Z9USBD_StopP19_USBD_HandleTypeDef,"ax",%progbits
 282              		.align	2
 283              		.global	_Z9USBD_StopP19_USBD_HandleTypeDef
 284              		.thumb
 285              		.thumb_func
 286              		.type	_Z9USBD_StopP19_USBD_HandleTypeDef, %function
 287              	_Z9USBD_StopP19_USBD_HandleTypeDef:
 288              	.LFB60:
 189:Middlewares/ST/STM32_USB_Device_Library/Core/usbd_core.cpp **** 
 190:Middlewares/ST/STM32_USB_Device_Library/Core/usbd_core.cpp **** /**
 191:Middlewares/ST/STM32_USB_Device_Library/Core/usbd_core.cpp ****   * @brief  USBD_Stop 
 192:Middlewares/ST/STM32_USB_Device_Library/Core/usbd_core.cpp ****   *         Stop the USB Device Core.
 193:Middlewares/ST/STM32_USB_Device_Library/Core/usbd_core.cpp ****   * @param  pdev: Device Handle
 194:Middlewares/ST/STM32_USB_Device_Library/Core/usbd_core.cpp ****   * @retval USBD Status
 195:Middlewares/ST/STM32_USB_Device_Library/Core/usbd_core.cpp ****   */
 196:Middlewares/ST/STM32_USB_Device_Library/Core/usbd_core.cpp **** USBD_StatusTypeDef  USBD_Stop   (USBD_HandleTypeDef *pdev)
 197:Middlewares/ST/STM32_USB_Device_Library/Core/usbd_core.cpp **** {
 289              		.loc 1 197 0
 290              		.cfi_startproc
 291              		@ args = 0, pretend = 0, frame = 8
 292              		@ frame_needed = 1, uses_anonymous_args = 0
 293 0000 80B5     		push	{r7, lr}	@
 294              	.LCFI12:
 295              		.cfi_def_cfa_offset 8
 296              		.cfi_offset 7, -8
 297              		.cfi_offset 14, -4
 298 0002 82B0     		sub	sp, sp, #8	@,,
 299              	.LCFI13:
 300              		.cfi_def_cfa_offset 16
 301 0004 00AF     		add	r7, sp, #0	@,,
 302              	.LCFI14:
 303              		.cfi_def_cfa_register 7
 304 0006 7860     		str	r0, [r7, #4]	@ pdev, pdev
 198:Middlewares/ST/STM32_USB_Device_Library/Core/usbd_core.cpp ****   /* Free Class Resources */
 199:Middlewares/ST/STM32_USB_Device_Library/Core/usbd_core.cpp ****   pdev->pClass->DeInit(pdev, pdev->dev_config);  
 305              		.loc 1 199 0
 306 0008 7B68     		ldr	r3, [r7, #4]	@ tmp140, pdev
 307 000a D3F81432 		ldr	r3, [r3, #532]	@ D.7819, pdev_1(D)->pClass
 308 000e 5B68     		ldr	r3, [r3, #4]	@ D.7820, D.7819_2->DeInit
 309 0010 7A68     		ldr	r2, [r7, #4]	@ tmp141, pdev
 310 0012 5268     		ldr	r2, [r2, #4]	@ D.7821, pdev_1(D)->dev_config
 311 0014 D2B2     		uxtb	r2, r2	@ D.7822, D.7821
 312 0016 7868     		ldr	r0, [r7, #4]	@, pdev
 313 0018 1146     		mov	r1, r2	@, D.7822
 314 001a 9847     		blx	r3	@ D.7820
ARM GAS  /tmp/cctHw1ny.s 			page 10


 200:Middlewares/ST/STM32_USB_Device_Library/Core/usbd_core.cpp **** 
 201:Middlewares/ST/STM32_USB_Device_Library/Core/usbd_core.cpp ****   /* Stop the low level driver  */
 202:Middlewares/ST/STM32_USB_Device_Library/Core/usbd_core.cpp ****   USBD_LL_Stop(pdev); 
 315              		.loc 1 202 0
 316 001c 7868     		ldr	r0, [r7, #4]	@, pdev
 317 001e FFF7FEFF 		bl	_Z12USBD_LL_StopP19_USBD_HandleTypeDef	@
 203:Middlewares/ST/STM32_USB_Device_Library/Core/usbd_core.cpp ****   
 204:Middlewares/ST/STM32_USB_Device_Library/Core/usbd_core.cpp ****   return USBD_OK;  
 318              		.loc 1 204 0
 319 0022 4FF00003 		mov	r3, #0	@ D.7823,
 205:Middlewares/ST/STM32_USB_Device_Library/Core/usbd_core.cpp **** }
 320              		.loc 1 205 0
 321 0026 1846     		mov	r0, r3	@, <retval>
 322 0028 07F10807 		add	r7, r7, #8	@,,
 323 002c BD46     		mov	sp, r7
 324 002e 80BD     		pop	{r7, pc}
 325              		.cfi_endproc
 326              	.LFE60:
 327              		.size	_Z9USBD_StopP19_USBD_HandleTypeDef, .-_Z9USBD_StopP19_USBD_HandleTypeDef
 328              		.section	.text._Z16USBD_RunTestModeP19_USBD_HandleTypeDef,"ax",%progbits
 329              		.align	2
 330              		.global	_Z16USBD_RunTestModeP19_USBD_HandleTypeDef
 331              		.thumb
 332              		.thumb_func
 333              		.type	_Z16USBD_RunTestModeP19_USBD_HandleTypeDef, %function
 334              	_Z16USBD_RunTestModeP19_USBD_HandleTypeDef:
 335              	.LFB61:
 206:Middlewares/ST/STM32_USB_Device_Library/Core/usbd_core.cpp **** 
 207:Middlewares/ST/STM32_USB_Device_Library/Core/usbd_core.cpp **** /**
 208:Middlewares/ST/STM32_USB_Device_Library/Core/usbd_core.cpp **** * @brief  USBD_RunTestMode 
 209:Middlewares/ST/STM32_USB_Device_Library/Core/usbd_core.cpp **** *         Launch test mode process
 210:Middlewares/ST/STM32_USB_Device_Library/Core/usbd_core.cpp **** * @param  pdev: device instance
 211:Middlewares/ST/STM32_USB_Device_Library/Core/usbd_core.cpp **** * @retval status
 212:Middlewares/ST/STM32_USB_Device_Library/Core/usbd_core.cpp **** */
 213:Middlewares/ST/STM32_USB_Device_Library/Core/usbd_core.cpp **** USBD_StatusTypeDef  USBD_RunTestMode (USBD_HandleTypeDef  *pdev) 
 214:Middlewares/ST/STM32_USB_Device_Library/Core/usbd_core.cpp **** {
 336              		.loc 1 214 0
 337              		.cfi_startproc
 338              		@ args = 0, pretend = 0, frame = 8
 339              		@ frame_needed = 1, uses_anonymous_args = 0
 340              		@ link register save eliminated.
 341 0000 80B4     		push	{r7}	@
 342              	.LCFI15:
 343              		.cfi_def_cfa_offset 4
 344              		.cfi_offset 7, -4
 345 0002 83B0     		sub	sp, sp, #12	@,,
 346              	.LCFI16:
 347              		.cfi_def_cfa_offset 16
 348 0004 00AF     		add	r7, sp, #0	@,,
 349              	.LCFI17:
 350              		.cfi_def_cfa_register 7
 351 0006 7860     		str	r0, [r7, #4]	@ pdev, pdev
 215:Middlewares/ST/STM32_USB_Device_Library/Core/usbd_core.cpp ****   return USBD_OK;
 352              		.loc 1 215 0
 353 0008 4FF00003 		mov	r3, #0	@ D.7817,
 216:Middlewares/ST/STM32_USB_Device_Library/Core/usbd_core.cpp **** }
 354              		.loc 1 216 0
ARM GAS  /tmp/cctHw1ny.s 			page 11


 355 000c 1846     		mov	r0, r3	@, <retval>
 356 000e 07F10C07 		add	r7, r7, #12	@,,
 357 0012 BD46     		mov	sp, r7
 358 0014 80BC     		pop	{r7}
 359 0016 7047     		bx	lr
 360              		.cfi_endproc
 361              	.LFE61:
 362              		.size	_Z16USBD_RunTestModeP19_USBD_HandleTypeDef, .-_Z16USBD_RunTestModeP19_USBD_HandleTypeDef
 363              		.section	.text._Z19USBD_SetClassConfigP19_USBD_HandleTypeDefh,"ax",%progbits
 364              		.align	2
 365              		.global	_Z19USBD_SetClassConfigP19_USBD_HandleTypeDefh
 366              		.thumb
 367              		.thumb_func
 368              		.type	_Z19USBD_SetClassConfigP19_USBD_HandleTypeDefh, %function
 369              	_Z19USBD_SetClassConfigP19_USBD_HandleTypeDefh:
 370              	.LFB62:
 217:Middlewares/ST/STM32_USB_Device_Library/Core/usbd_core.cpp **** 
 218:Middlewares/ST/STM32_USB_Device_Library/Core/usbd_core.cpp **** 
 219:Middlewares/ST/STM32_USB_Device_Library/Core/usbd_core.cpp **** /**
 220:Middlewares/ST/STM32_USB_Device_Library/Core/usbd_core.cpp **** * @brief  USBD_SetClassConfig 
 221:Middlewares/ST/STM32_USB_Device_Library/Core/usbd_core.cpp **** *        Configure device and start the interface
 222:Middlewares/ST/STM32_USB_Device_Library/Core/usbd_core.cpp **** * @param  pdev: device instance
 223:Middlewares/ST/STM32_USB_Device_Library/Core/usbd_core.cpp **** * @param  cfgidx: configuration index
 224:Middlewares/ST/STM32_USB_Device_Library/Core/usbd_core.cpp **** * @retval status
 225:Middlewares/ST/STM32_USB_Device_Library/Core/usbd_core.cpp **** */
 226:Middlewares/ST/STM32_USB_Device_Library/Core/usbd_core.cpp **** 
 227:Middlewares/ST/STM32_USB_Device_Library/Core/usbd_core.cpp **** USBD_StatusTypeDef USBD_SetClassConfig(USBD_HandleTypeDef  *pdev, uint8_t cfgidx)
 228:Middlewares/ST/STM32_USB_Device_Library/Core/usbd_core.cpp **** {
 371              		.loc 1 228 0
 372              		.cfi_startproc
 373              		@ args = 0, pretend = 0, frame = 16
 374              		@ frame_needed = 1, uses_anonymous_args = 0
 375 0000 80B5     		push	{r7, lr}	@
 376              	.LCFI18:
 377              		.cfi_def_cfa_offset 8
 378              		.cfi_offset 7, -8
 379              		.cfi_offset 14, -4
 380 0002 84B0     		sub	sp, sp, #16	@,,
 381              	.LCFI19:
 382              		.cfi_def_cfa_offset 24
 383 0004 00AF     		add	r7, sp, #0	@,,
 384              	.LCFI20:
 385              		.cfi_def_cfa_register 7
 386 0006 7860     		str	r0, [r7, #4]	@ pdev, pdev
 387 0008 0B46     		mov	r3, r1	@ tmp141, cfgidx
 388 000a FB70     		strb	r3, [r7, #3]	@ tmp142, cfgidx
 389              	.LBB3:
 229:Middlewares/ST/STM32_USB_Device_Library/Core/usbd_core.cpp ****   USBD_StatusTypeDef   ret = USBD_FAIL;
 390              		.loc 1 229 0
 391 000c 4FF00203 		mov	r3, #2	@ tmp143,
 392 0010 FB73     		strb	r3, [r7, #15]	@ tmp144, ret
 230:Middlewares/ST/STM32_USB_Device_Library/Core/usbd_core.cpp ****   
 231:Middlewares/ST/STM32_USB_Device_Library/Core/usbd_core.cpp ****   if(pdev->pClass != NULL)
 393              		.loc 1 231 0
 394 0012 7B68     		ldr	r3, [r7, #4]	@ tmp145, pdev
 395 0014 D3F81432 		ldr	r3, [r3, #532]	@ D.7804, pdev_3(D)->pClass
 396 0018 002B     		cmp	r3, #0	@ D.7804,
ARM GAS  /tmp/cctHw1ny.s 			page 12


 397 001a 12D0     		beq	.L19	@,
 232:Middlewares/ST/STM32_USB_Device_Library/Core/usbd_core.cpp ****   {
 233:Middlewares/ST/STM32_USB_Device_Library/Core/usbd_core.cpp ****     /* Set configuration  and Start the Class*/
 234:Middlewares/ST/STM32_USB_Device_Library/Core/usbd_core.cpp ****     if(pdev->pClass->Init(pdev, cfgidx) == 0)
 398              		.loc 1 234 0
 399 001c 7B68     		ldr	r3, [r7, #4]	@ tmp146, pdev
 400 001e D3F81432 		ldr	r3, [r3, #532]	@ D.7808, pdev_3(D)->pClass
 401 0022 1B68     		ldr	r3, [r3, #0]	@ D.7809, D.7808_5->Init
 402 0024 FA78     		ldrb	r2, [r7, #3]	@ zero_extendqisi2	@ tmp147, cfgidx
 403 0026 7868     		ldr	r0, [r7, #4]	@, pdev
 404 0028 1146     		mov	r1, r2	@, tmp147
 405 002a 9847     		blx	r3	@ D.7809
 406 002c 0346     		mov	r3, r0	@ tmp148,
 407 002e 002B     		cmp	r3, #0	@ D.7810,
 408 0030 14BF     		ite	ne	@
 409 0032 0023     		movne	r3, #0	@, tmp150
 410 0034 0123     		moveq	r3, #1	@, tmp150
 411 0036 DBB2     		uxtb	r3, r3	@ retval.1, tmp149
 412 0038 002B     		cmp	r3, #0	@ retval.1,
 413 003a 02D0     		beq	.L19	@,
 235:Middlewares/ST/STM32_USB_Device_Library/Core/usbd_core.cpp ****     {
 236:Middlewares/ST/STM32_USB_Device_Library/Core/usbd_core.cpp ****       ret = USBD_OK;
 414              		.loc 1 236 0
 415 003c 4FF00003 		mov	r3, #0	@ tmp151,
 416 0040 FB73     		strb	r3, [r7, #15]	@ tmp152, ret
 417              	.L19:
 237:Middlewares/ST/STM32_USB_Device_Library/Core/usbd_core.cpp ****     }
 238:Middlewares/ST/STM32_USB_Device_Library/Core/usbd_core.cpp ****   }
 239:Middlewares/ST/STM32_USB_Device_Library/Core/usbd_core.cpp ****   return ret; 
 418              		.loc 1 239 0
 419 0042 FB7B     		ldrb	r3, [r7, #15]	@ zero_extendqisi2	@ D.7815, ret
 420              	.LBE3:
 240:Middlewares/ST/STM32_USB_Device_Library/Core/usbd_core.cpp **** }
 421              		.loc 1 240 0
 422 0044 1846     		mov	r0, r3	@, <retval>
 423 0046 07F11007 		add	r7, r7, #16	@,,
 424 004a BD46     		mov	sp, r7
 425 004c 80BD     		pop	{r7, pc}
 426              		.cfi_endproc
 427              	.LFE62:
 428              		.size	_Z19USBD_SetClassConfigP19_USBD_HandleTypeDefh, .-_Z19USBD_SetClassConfigP19_USBD_HandleType
 429 004e 00BF     		.section	.text._Z19USBD_ClrClassConfigP19_USBD_HandleTypeDefh,"ax",%progbits
 430              		.align	2
 431              		.global	_Z19USBD_ClrClassConfigP19_USBD_HandleTypeDefh
 432              		.thumb
 433              		.thumb_func
 434              		.type	_Z19USBD_ClrClassConfigP19_USBD_HandleTypeDefh, %function
 435              	_Z19USBD_ClrClassConfigP19_USBD_HandleTypeDefh:
 436              	.LFB63:
 241:Middlewares/ST/STM32_USB_Device_Library/Core/usbd_core.cpp **** 
 242:Middlewares/ST/STM32_USB_Device_Library/Core/usbd_core.cpp **** /**
 243:Middlewares/ST/STM32_USB_Device_Library/Core/usbd_core.cpp **** * @brief  USBD_ClrClassConfig 
 244:Middlewares/ST/STM32_USB_Device_Library/Core/usbd_core.cpp **** *         Clear current configuration
 245:Middlewares/ST/STM32_USB_Device_Library/Core/usbd_core.cpp **** * @param  pdev: device instance
 246:Middlewares/ST/STM32_USB_Device_Library/Core/usbd_core.cpp **** * @param  cfgidx: configuration index
 247:Middlewares/ST/STM32_USB_Device_Library/Core/usbd_core.cpp **** * @retval status: USBD_StatusTypeDef
 248:Middlewares/ST/STM32_USB_Device_Library/Core/usbd_core.cpp **** */
ARM GAS  /tmp/cctHw1ny.s 			page 13


 249:Middlewares/ST/STM32_USB_Device_Library/Core/usbd_core.cpp **** USBD_StatusTypeDef USBD_ClrClassConfig(USBD_HandleTypeDef  *pdev, uint8_t cfgidx)
 250:Middlewares/ST/STM32_USB_Device_Library/Core/usbd_core.cpp **** {
 437              		.loc 1 250 0
 438              		.cfi_startproc
 439              		@ args = 0, pretend = 0, frame = 8
 440              		@ frame_needed = 1, uses_anonymous_args = 0
 441 0000 80B5     		push	{r7, lr}	@
 442              	.LCFI21:
 443              		.cfi_def_cfa_offset 8
 444              		.cfi_offset 7, -8
 445              		.cfi_offset 14, -4
 446 0002 82B0     		sub	sp, sp, #8	@,,
 447              	.LCFI22:
 448              		.cfi_def_cfa_offset 16
 449 0004 00AF     		add	r7, sp, #0	@,,
 450              	.LCFI23:
 451              		.cfi_def_cfa_register 7
 452 0006 7860     		str	r0, [r7, #4]	@ pdev, pdev
 453 0008 0B46     		mov	r3, r1	@ tmp138, cfgidx
 454 000a FB70     		strb	r3, [r7, #3]	@ tmp139, cfgidx
 251:Middlewares/ST/STM32_USB_Device_Library/Core/usbd_core.cpp ****   /* Clear configuration  and Deinitialize the Class process*/
 252:Middlewares/ST/STM32_USB_Device_Library/Core/usbd_core.cpp ****   pdev->pClass->DeInit(pdev, cfgidx);  
 455              		.loc 1 252 0
 456 000c 7B68     		ldr	r3, [r7, #4]	@ tmp140, pdev
 457 000e D3F81432 		ldr	r3, [r3, #532]	@ D.7800, pdev_1(D)->pClass
 458 0012 5B68     		ldr	r3, [r3, #4]	@ D.7801, D.7800_2->DeInit
 459 0014 FA78     		ldrb	r2, [r7, #3]	@ zero_extendqisi2	@ tmp141, cfgidx
 460 0016 7868     		ldr	r0, [r7, #4]	@, pdev
 461 0018 1146     		mov	r1, r2	@, tmp141
 462 001a 9847     		blx	r3	@ D.7801
 253:Middlewares/ST/STM32_USB_Device_Library/Core/usbd_core.cpp ****   return USBD_OK;
 463              		.loc 1 253 0
 464 001c 4FF00003 		mov	r3, #0	@ D.7802,
 254:Middlewares/ST/STM32_USB_Device_Library/Core/usbd_core.cpp **** }
 465              		.loc 1 254 0
 466 0020 1846     		mov	r0, r3	@, <retval>
 467 0022 07F10807 		add	r7, r7, #8	@,,
 468 0026 BD46     		mov	sp, r7
 469 0028 80BD     		pop	{r7, pc}
 470              		.cfi_endproc
 471              	.LFE63:
 472              		.size	_Z19USBD_ClrClassConfigP19_USBD_HandleTypeDefh, .-_Z19USBD_ClrClassConfigP19_USBD_HandleType
 473 002a 00BF     		.section	.text._Z18USBD_LL_SetupStageP19_USBD_HandleTypeDefPh,"ax",%progbits
 474              		.align	2
 475              		.global	_Z18USBD_LL_SetupStageP19_USBD_HandleTypeDefPh
 476              		.thumb
 477              		.thumb_func
 478              		.type	_Z18USBD_LL_SetupStageP19_USBD_HandleTypeDefPh, %function
 479              	_Z18USBD_LL_SetupStageP19_USBD_HandleTypeDefPh:
 480              	.LFB64:
 255:Middlewares/ST/STM32_USB_Device_Library/Core/usbd_core.cpp **** 
 256:Middlewares/ST/STM32_USB_Device_Library/Core/usbd_core.cpp **** 
 257:Middlewares/ST/STM32_USB_Device_Library/Core/usbd_core.cpp **** /**
 258:Middlewares/ST/STM32_USB_Device_Library/Core/usbd_core.cpp **** * @brief  USBD_SetupStage 
 259:Middlewares/ST/STM32_USB_Device_Library/Core/usbd_core.cpp **** *         Handle the setup stage
 260:Middlewares/ST/STM32_USB_Device_Library/Core/usbd_core.cpp **** * @param  pdev: device instance
 261:Middlewares/ST/STM32_USB_Device_Library/Core/usbd_core.cpp **** * @retval status
ARM GAS  /tmp/cctHw1ny.s 			page 14


 262:Middlewares/ST/STM32_USB_Device_Library/Core/usbd_core.cpp **** */
 263:Middlewares/ST/STM32_USB_Device_Library/Core/usbd_core.cpp **** USBD_StatusTypeDef USBD_LL_SetupStage(USBD_HandleTypeDef *pdev, uint8_t *psetup)
 264:Middlewares/ST/STM32_USB_Device_Library/Core/usbd_core.cpp **** {
 481              		.loc 1 264 0
 482              		.cfi_startproc
 483              		@ args = 0, pretend = 0, frame = 8
 484              		@ frame_needed = 1, uses_anonymous_args = 0
 485 0000 80B5     		push	{r7, lr}	@
 486              	.LCFI24:
 487              		.cfi_def_cfa_offset 8
 488              		.cfi_offset 7, -8
 489              		.cfi_offset 14, -4
 490 0002 82B0     		sub	sp, sp, #8	@,,
 491              	.LCFI25:
 492              		.cfi_def_cfa_offset 16
 493 0004 00AF     		add	r7, sp, #0	@,,
 494              	.LCFI26:
 495              		.cfi_def_cfa_register 7
 496 0006 7860     		str	r0, [r7, #4]	@ pdev, pdev
 497 0008 3960     		str	r1, [r7, #0]	@ psetup, psetup
 265:Middlewares/ST/STM32_USB_Device_Library/Core/usbd_core.cpp **** 
 266:Middlewares/ST/STM32_USB_Device_Library/Core/usbd_core.cpp ****   USBD_ParseSetupRequest(&pdev->request, psetup);
 498              		.loc 1 266 0
 499 000a 7B68     		ldr	r3, [r7, #4]	@ tmp147, pdev
 500 000c 03F50273 		add	r3, r3, #520	@ D.7786, tmp147,
 501 0010 1846     		mov	r0, r3	@, D.7786
 502 0012 3968     		ldr	r1, [r7, #0]	@, psetup
 503 0014 FFF7FEFF 		bl	_Z22USBD_ParseSetupRequestP13usb_setup_reqPh	@
 267:Middlewares/ST/STM32_USB_Device_Library/Core/usbd_core.cpp ****   
 268:Middlewares/ST/STM32_USB_Device_Library/Core/usbd_core.cpp ****   pdev->ep0_state = USBD_EP0_SETUP;
 504              		.loc 1 268 0
 505 0018 7B68     		ldr	r3, [r7, #4]	@ tmp148, pdev
 506 001a 4FF00102 		mov	r2, #1	@ tmp149,
 507 001e C3F8F421 		str	r2, [r3, #500]	@ tmp149, pdev_1(D)->ep0_state
 269:Middlewares/ST/STM32_USB_Device_Library/Core/usbd_core.cpp ****   pdev->ep0_data_len = pdev->request.wLength;
 508              		.loc 1 269 0
 509 0022 7B68     		ldr	r3, [r7, #4]	@ tmp150, pdev
 510 0024 B3F80E32 		ldrh	r3, [r3, #526]	@ D.7787, pdev_1(D)->request.wLength
 511 0028 1A46     		mov	r2, r3	@ D.7788, D.7787
 512 002a 7B68     		ldr	r3, [r7, #4]	@ tmp151, pdev
 513 002c C3F8F821 		str	r2, [r3, #504]	@ D.7788, pdev_1(D)->ep0_data_len
 270:Middlewares/ST/STM32_USB_Device_Library/Core/usbd_core.cpp ****   
 271:Middlewares/ST/STM32_USB_Device_Library/Core/usbd_core.cpp ****   switch (pdev->request.bmRequest & 0x1F) 
 514              		.loc 1 271 0
 515 0030 7B68     		ldr	r3, [r7, #4]	@ tmp152, pdev
 516 0032 93F80832 		ldrb	r3, [r3, #520]	@ zero_extendqisi2	@ D.7790, pdev_1(D)->request.bmRequest
 517 0036 03F01F03 		and	r3, r3, #31	@ D.7792, D.7791,
 518 003a 012B     		cmp	r3, #1	@ D.7792,
 519 003c 0BD0     		beq	.L26	@,
 520 003e 022B     		cmp	r3, #2	@ D.7792,
 521 0040 11D0     		beq	.L27	@,
 522 0042 002B     		cmp	r3, #0	@ D.7792,
 523 0044 17D1     		bne	.L30	@,
 524              	.L25:
 272:Middlewares/ST/STM32_USB_Device_Library/Core/usbd_core.cpp ****   {
 273:Middlewares/ST/STM32_USB_Device_Library/Core/usbd_core.cpp ****   case USB_REQ_RECIPIENT_DEVICE:   
 274:Middlewares/ST/STM32_USB_Device_Library/Core/usbd_core.cpp ****     USBD_StdDevReq (pdev, &pdev->request);
ARM GAS  /tmp/cctHw1ny.s 			page 15


 525              		.loc 1 274 0
 526 0046 7B68     		ldr	r3, [r7, #4]	@ tmp153, pdev
 527 0048 03F50273 		add	r3, r3, #520	@ D.7793, tmp153,
 528 004c 7868     		ldr	r0, [r7, #4]	@, pdev
 529 004e 1946     		mov	r1, r3	@, D.7793
 530 0050 FFF7FEFF 		bl	_Z14USBD_StdDevReqP19_USBD_HandleTypeDefP13usb_setup_req	@
 275:Middlewares/ST/STM32_USB_Device_Library/Core/usbd_core.cpp ****     break;
 531              		.loc 1 275 0
 532 0054 1AE0     		b	.L28	@
 533              	.L26:
 276:Middlewares/ST/STM32_USB_Device_Library/Core/usbd_core.cpp ****     
 277:Middlewares/ST/STM32_USB_Device_Library/Core/usbd_core.cpp ****   case USB_REQ_RECIPIENT_INTERFACE:     
 278:Middlewares/ST/STM32_USB_Device_Library/Core/usbd_core.cpp ****     USBD_StdItfReq(pdev, &pdev->request);
 534              		.loc 1 278 0
 535 0056 7B68     		ldr	r3, [r7, #4]	@ tmp154, pdev
 536 0058 03F50273 		add	r3, r3, #520	@ D.7794, tmp154,
 537 005c 7868     		ldr	r0, [r7, #4]	@, pdev
 538 005e 1946     		mov	r1, r3	@, D.7794
 539 0060 FFF7FEFF 		bl	_Z14USBD_StdItfReqP19_USBD_HandleTypeDefP13usb_setup_req	@
 279:Middlewares/ST/STM32_USB_Device_Library/Core/usbd_core.cpp ****     break;
 540              		.loc 1 279 0
 541 0064 12E0     		b	.L28	@
 542              	.L27:
 280:Middlewares/ST/STM32_USB_Device_Library/Core/usbd_core.cpp ****     
 281:Middlewares/ST/STM32_USB_Device_Library/Core/usbd_core.cpp ****   case USB_REQ_RECIPIENT_ENDPOINT:        
 282:Middlewares/ST/STM32_USB_Device_Library/Core/usbd_core.cpp ****     USBD_StdEPReq(pdev, &pdev->request);   
 543              		.loc 1 282 0
 544 0066 7B68     		ldr	r3, [r7, #4]	@ tmp155, pdev
 545 0068 03F50273 		add	r3, r3, #520	@ D.7795, tmp155,
 546 006c 7868     		ldr	r0, [r7, #4]	@, pdev
 547 006e 1946     		mov	r1, r3	@, D.7795
 548 0070 FFF7FEFF 		bl	_Z13USBD_StdEPReqP19_USBD_HandleTypeDefP13usb_setup_req	@
 283:Middlewares/ST/STM32_USB_Device_Library/Core/usbd_core.cpp ****     break;
 549              		.loc 1 283 0
 550 0074 0AE0     		b	.L28	@
 551              	.L30:
 284:Middlewares/ST/STM32_USB_Device_Library/Core/usbd_core.cpp ****     
 285:Middlewares/ST/STM32_USB_Device_Library/Core/usbd_core.cpp ****   default:           
 286:Middlewares/ST/STM32_USB_Device_Library/Core/usbd_core.cpp ****     USBD_LL_StallEP(pdev , pdev->request.bmRequest & 0x80);
 552              		.loc 1 286 0
 553 0076 7B68     		ldr	r3, [r7, #4]	@ tmp156, pdev
 554 0078 93F80832 		ldrb	r3, [r3, #520]	@ zero_extendqisi2	@ D.7796, pdev_1(D)->request.bmRequest
 555 007c 23F07F03 		bic	r3, r3, #127	@ tmp157, D.7796,
 556 0080 DBB2     		uxtb	r3, r3	@ D.7797, tmp157
 557 0082 7868     		ldr	r0, [r7, #4]	@, pdev
 558 0084 1946     		mov	r1, r3	@, D.7797
 559 0086 FFF7FEFF 		bl	_Z15USBD_LL_StallEPP19_USBD_HandleTypeDefh	@
 287:Middlewares/ST/STM32_USB_Device_Library/Core/usbd_core.cpp ****     break;
 560              		.loc 1 287 0
 561 008a 00BF     		nop
 562              	.L28:
 288:Middlewares/ST/STM32_USB_Device_Library/Core/usbd_core.cpp ****   }  
 289:Middlewares/ST/STM32_USB_Device_Library/Core/usbd_core.cpp ****   return USBD_OK;  
 563              		.loc 1 289 0
 564 008c 4FF00003 		mov	r3, #0	@ D.7798,
 290:Middlewares/ST/STM32_USB_Device_Library/Core/usbd_core.cpp **** }
 565              		.loc 1 290 0
ARM GAS  /tmp/cctHw1ny.s 			page 16


 566 0090 1846     		mov	r0, r3	@, <retval>
 567 0092 07F10807 		add	r7, r7, #8	@,,
 568 0096 BD46     		mov	sp, r7
 569 0098 80BD     		pop	{r7, pc}
 570              		.cfi_endproc
 571              	.LFE64:
 572              		.size	_Z18USBD_LL_SetupStageP19_USBD_HandleTypeDefPh, .-_Z18USBD_LL_SetupStageP19_USBD_HandleTypeD
 573 009a 00BF     		.section	.text._Z20USBD_LL_DataOutStageP19_USBD_HandleTypeDefhPh,"ax",%progbits
 574              		.align	2
 575              		.global	_Z20USBD_LL_DataOutStageP19_USBD_HandleTypeDefhPh
 576              		.thumb
 577              		.thumb_func
 578              		.type	_Z20USBD_LL_DataOutStageP19_USBD_HandleTypeDefhPh, %function
 579              	_Z20USBD_LL_DataOutStageP19_USBD_HandleTypeDefhPh:
 580              	.LFB65:
 291:Middlewares/ST/STM32_USB_Device_Library/Core/usbd_core.cpp **** 
 292:Middlewares/ST/STM32_USB_Device_Library/Core/usbd_core.cpp **** /**
 293:Middlewares/ST/STM32_USB_Device_Library/Core/usbd_core.cpp **** * @brief  USBD_DataOutStage 
 294:Middlewares/ST/STM32_USB_Device_Library/Core/usbd_core.cpp **** *         Handle data OUT stage
 295:Middlewares/ST/STM32_USB_Device_Library/Core/usbd_core.cpp **** * @param  pdev: device instance
 296:Middlewares/ST/STM32_USB_Device_Library/Core/usbd_core.cpp **** * @param  epnum: endpoint index
 297:Middlewares/ST/STM32_USB_Device_Library/Core/usbd_core.cpp **** * @retval status
 298:Middlewares/ST/STM32_USB_Device_Library/Core/usbd_core.cpp **** */
 299:Middlewares/ST/STM32_USB_Device_Library/Core/usbd_core.cpp **** USBD_StatusTypeDef USBD_LL_DataOutStage(USBD_HandleTypeDef *pdev , uint8_t epnum, uint8_t *pdata)
 300:Middlewares/ST/STM32_USB_Device_Library/Core/usbd_core.cpp **** {
 581              		.loc 1 300 0
 582              		.cfi_startproc
 583              		@ args = 0, pretend = 0, frame = 24
 584              		@ frame_needed = 1, uses_anonymous_args = 0
 585 0000 80B5     		push	{r7, lr}	@
 586              	.LCFI27:
 587              		.cfi_def_cfa_offset 8
 588              		.cfi_offset 7, -8
 589              		.cfi_offset 14, -4
 590 0002 86B0     		sub	sp, sp, #24	@,,
 591              	.LCFI28:
 592              		.cfi_def_cfa_offset 32
 593 0004 00AF     		add	r7, sp, #0	@,,
 594              	.LCFI29:
 595              		.cfi_def_cfa_register 7
 596 0006 F860     		str	r0, [r7, #12]	@ pdev, pdev
 597 0008 0B46     		mov	r3, r1	@ tmp157, epnum
 598 000a 7A60     		str	r2, [r7, #4]	@ pdata, pdata
 599 000c FB72     		strb	r3, [r7, #11]	@ tmp158, epnum
 600              	.LBB4:
 301:Middlewares/ST/STM32_USB_Device_Library/Core/usbd_core.cpp ****   USBD_EndpointTypeDef    *pep;
 302:Middlewares/ST/STM32_USB_Device_Library/Core/usbd_core.cpp ****   
 303:Middlewares/ST/STM32_USB_Device_Library/Core/usbd_core.cpp ****   if(epnum == 0) 
 601              		.loc 1 303 0
 602 000e FB7A     		ldrb	r3, [r7, #11]	@ zero_extendqisi2	@ tmp159, epnum
 603 0010 002B     		cmp	r3, #0	@ tmp159,
 604 0012 3DD1     		bne	.L32	@,
 304:Middlewares/ST/STM32_USB_Device_Library/Core/usbd_core.cpp ****   {
 305:Middlewares/ST/STM32_USB_Device_Library/Core/usbd_core.cpp ****     pep = &pdev->ep_out[0];
 605              		.loc 1 305 0
 606 0014 FB68     		ldr	r3, [r7, #12]	@ tmp161, pdev
 607 0016 03F58273 		add	r3, r3, #260	@ tmp160, tmp161,
ARM GAS  /tmp/cctHw1ny.s 			page 17


 608 001a 7B61     		str	r3, [r7, #20]	@ tmp160, pep
 306:Middlewares/ST/STM32_USB_Device_Library/Core/usbd_core.cpp ****     
 307:Middlewares/ST/STM32_USB_Device_Library/Core/usbd_core.cpp ****     if ( pdev->ep0_state == USBD_EP0_DATA_OUT)
 609              		.loc 1 307 0
 610 001c FB68     		ldr	r3, [r7, #12]	@ tmp162, pdev
 611 001e D3F8F431 		ldr	r3, [r3, #500]	@ D.7743, pdev_3(D)->ep0_state
 612 0022 032B     		cmp	r3, #3	@ D.7743,
 613 0024 47D1     		bne	.L33	@,
 308:Middlewares/ST/STM32_USB_Device_Library/Core/usbd_core.cpp ****     {
 309:Middlewares/ST/STM32_USB_Device_Library/Core/usbd_core.cpp ****       if(pep->rem_length > pep->maxpacket)
 614              		.loc 1 309 0
 615 0026 7B69     		ldr	r3, [r7, #20]	@ tmp163, pep
 616 0028 9A68     		ldr	r2, [r3, #8]	@ D.7746, pep_4->rem_length
 617 002a 7B69     		ldr	r3, [r7, #20]	@ tmp164, pep
 618 002c DB68     		ldr	r3, [r3, #12]	@ D.7747, pep_4->maxpacket
 619 002e 9A42     		cmp	r2, r3	@ D.7746, D.7747
 620 0030 19D9     		bls	.L34	@,
 310:Middlewares/ST/STM32_USB_Device_Library/Core/usbd_core.cpp ****       {
 311:Middlewares/ST/STM32_USB_Device_Library/Core/usbd_core.cpp ****         pep->rem_length -=  pep->maxpacket;
 621              		.loc 1 311 0
 622 0032 7B69     		ldr	r3, [r7, #20]	@ tmp165, pep
 623 0034 9A68     		ldr	r2, [r3, #8]	@ D.7750, pep_4->rem_length
 624 0036 7B69     		ldr	r3, [r7, #20]	@ tmp166, pep
 625 0038 DB68     		ldr	r3, [r3, #12]	@ D.7751, pep_4->maxpacket
 626 003a D21A     		subs	r2, r2, r3	@ D.7752, D.7750, D.7751
 627 003c 7B69     		ldr	r3, [r7, #20]	@ tmp167, pep
 628 003e 9A60     		str	r2, [r3, #8]	@ D.7752, pep_4->rem_length
 312:Middlewares/ST/STM32_USB_Device_Library/Core/usbd_core.cpp ****        
 313:Middlewares/ST/STM32_USB_Device_Library/Core/usbd_core.cpp ****         USBD_CtlContinueRx (pdev, 
 314:Middlewares/ST/STM32_USB_Device_Library/Core/usbd_core.cpp ****                             pdata,
 315:Middlewares/ST/STM32_USB_Device_Library/Core/usbd_core.cpp ****                             MIN(pep->rem_length ,pep->maxpacket));
 629              		.loc 1 315 0
 630 0040 7B69     		ldr	r3, [r7, #20]	@ tmp168, pep
 631 0042 9A68     		ldr	r2, [r3, #8]	@ D.7754, pep_4->rem_length
 632 0044 7B69     		ldr	r3, [r7, #20]	@ tmp169, pep
 633 0046 DB68     		ldr	r3, [r3, #12]	@ D.7755, pep_4->maxpacket
 634 0048 9A42     		cmp	r2, r3	@ D.7754, D.7755
 635 004a 03D2     		bcs	.L35	@,
 636              		.loc 1 315 0 is_stmt 0 discriminator 1
 637 004c 7B69     		ldr	r3, [r7, #20]	@ tmp170, pep
 638 004e 9B68     		ldr	r3, [r3, #8]	@ D.7758, pep_4->rem_length
 639 0050 9BB2     		uxth	r3, r3	@ iftmp.0, D.7758
 640 0052 02E0     		b	.L36	@
 641              	.L35:
 642              		.loc 1 315 0 discriminator 2
 643 0054 7B69     		ldr	r3, [r7, #20]	@ tmp171, pep
 644 0056 DB68     		ldr	r3, [r3, #12]	@ D.7760, pep_4->maxpacket
 645 0058 9BB2     		uxth	r3, r3	@ iftmp.0, D.7760
 646              	.L36:
 647              		.loc 1 315 0 discriminator 3
 648 005a F868     		ldr	r0, [r7, #12]	@, pdev
 649 005c 7968     		ldr	r1, [r7, #4]	@, pdata
 650 005e 1A46     		mov	r2, r3	@, iftmp.0
 651 0060 FFF7FEFF 		bl	_Z18USBD_CtlContinueRxP19_USBD_HandleTypeDefPht	@
 652 0064 27E0     		b	.L33	@
 653              	.L34:
 316:Middlewares/ST/STM32_USB_Device_Library/Core/usbd_core.cpp ****       }
ARM GAS  /tmp/cctHw1ny.s 			page 18


 317:Middlewares/ST/STM32_USB_Device_Library/Core/usbd_core.cpp ****       else
 318:Middlewares/ST/STM32_USB_Device_Library/Core/usbd_core.cpp ****       {
 319:Middlewares/ST/STM32_USB_Device_Library/Core/usbd_core.cpp ****         if((pdev->pClass->EP0_RxReady != NULL)&&
 654              		.loc 1 319 0 is_stmt 1
 655 0066 FB68     		ldr	r3, [r7, #12]	@ tmp172, pdev
 656 0068 D3F81432 		ldr	r3, [r3, #532]	@ D.7762, pdev_3(D)->pClass
 657 006c 1B69     		ldr	r3, [r3, #16]	@ D.7763, D.7762_18->EP0_RxReady
 658 006e 002B     		cmp	r3, #0	@ D.7763,
 659 0070 0AD0     		beq	.L37	@,
 660              		.loc 1 319 0 is_stmt 0 discriminator 1
 661 0072 FB68     		ldr	r3, [r7, #12]	@ tmp173, pdev
 662 0074 93F8FC31 		ldrb	r3, [r3, #508]	@ zero_extendqisi2	@ D.7766, pdev_3(D)->dev_state
 663 0078 032B     		cmp	r3, #3	@ D.7766,
 664 007a 05D1     		bne	.L37	@,
 320:Middlewares/ST/STM32_USB_Device_Library/Core/usbd_core.cpp ****            (pdev->dev_state == USBD_STATE_CONFIGURED))
 321:Middlewares/ST/STM32_USB_Device_Library/Core/usbd_core.cpp ****         {
 322:Middlewares/ST/STM32_USB_Device_Library/Core/usbd_core.cpp ****           pdev->pClass->EP0_RxReady(pdev); 
 665              		.loc 1 322 0 is_stmt 1
 666 007c FB68     		ldr	r3, [r7, #12]	@ tmp174, pdev
 667 007e D3F81432 		ldr	r3, [r3, #532]	@ D.7769, pdev_3(D)->pClass
 668 0082 1B69     		ldr	r3, [r3, #16]	@ D.7770, D.7769_21->EP0_RxReady
 669 0084 F868     		ldr	r0, [r7, #12]	@, pdev
 670 0086 9847     		blx	r3	@ D.7770
 671              	.L37:
 323:Middlewares/ST/STM32_USB_Device_Library/Core/usbd_core.cpp ****         }
 324:Middlewares/ST/STM32_USB_Device_Library/Core/usbd_core.cpp ****         USBD_CtlSendStatus(pdev);
 672              		.loc 1 324 0
 673 0088 F868     		ldr	r0, [r7, #12]	@, pdev
 674 008a FFF7FEFF 		bl	_Z18USBD_CtlSendStatusP19_USBD_HandleTypeDef	@
 675 008e 12E0     		b	.L33	@
 676              	.L32:
 325:Middlewares/ST/STM32_USB_Device_Library/Core/usbd_core.cpp ****       }
 326:Middlewares/ST/STM32_USB_Device_Library/Core/usbd_core.cpp ****     }
 327:Middlewares/ST/STM32_USB_Device_Library/Core/usbd_core.cpp ****   }
 328:Middlewares/ST/STM32_USB_Device_Library/Core/usbd_core.cpp ****   else if((pdev->pClass->DataOut != NULL)&&
 677              		.loc 1 328 0
 678 0090 FB68     		ldr	r3, [r7, #12]	@ tmp175, pdev
 679 0092 D3F81432 		ldr	r3, [r3, #532]	@ D.7774, pdev_3(D)->pClass
 680 0096 9B69     		ldr	r3, [r3, #24]	@ D.7775, D.7774_23->DataOut
 681 0098 002B     		cmp	r3, #0	@ D.7775,
 682 009a 0CD0     		beq	.L33	@,
 683              		.loc 1 328 0 is_stmt 0 discriminator 1
 684 009c FB68     		ldr	r3, [r7, #12]	@ tmp176, pdev
 685 009e 93F8FC31 		ldrb	r3, [r3, #508]	@ zero_extendqisi2	@ D.7778, pdev_3(D)->dev_state
 686 00a2 032B     		cmp	r3, #3	@ D.7778,
 687 00a4 07D1     		bne	.L33	@,
 329:Middlewares/ST/STM32_USB_Device_Library/Core/usbd_core.cpp ****           (pdev->dev_state == USBD_STATE_CONFIGURED))
 330:Middlewares/ST/STM32_USB_Device_Library/Core/usbd_core.cpp ****   {
 331:Middlewares/ST/STM32_USB_Device_Library/Core/usbd_core.cpp ****     pdev->pClass->DataOut(pdev, epnum); 
 688              		.loc 1 331 0 is_stmt 1
 689 00a6 FB68     		ldr	r3, [r7, #12]	@ tmp177, pdev
 690 00a8 D3F81432 		ldr	r3, [r3, #532]	@ D.7781, pdev_3(D)->pClass
 691 00ac 9B69     		ldr	r3, [r3, #24]	@ D.7782, D.7781_26->DataOut
 692 00ae FA7A     		ldrb	r2, [r7, #11]	@ zero_extendqisi2	@ tmp178, epnum
 693 00b0 F868     		ldr	r0, [r7, #12]	@, pdev
 694 00b2 1146     		mov	r1, r2	@, tmp178
 695 00b4 9847     		blx	r3	@ D.7782
ARM GAS  /tmp/cctHw1ny.s 			page 19


 696              	.L33:
 332:Middlewares/ST/STM32_USB_Device_Library/Core/usbd_core.cpp ****   }  
 333:Middlewares/ST/STM32_USB_Device_Library/Core/usbd_core.cpp ****   return USBD_OK;
 697              		.loc 1 333 0
 698 00b6 4FF00003 		mov	r3, #0	@ D.7784,
 699              	.LBE4:
 334:Middlewares/ST/STM32_USB_Device_Library/Core/usbd_core.cpp **** }
 700              		.loc 1 334 0
 701 00ba 1846     		mov	r0, r3	@, <retval>
 702 00bc 07F11807 		add	r7, r7, #24	@,,
 703 00c0 BD46     		mov	sp, r7
 704 00c2 80BD     		pop	{r7, pc}
 705              		.cfi_endproc
 706              	.LFE65:
 707              		.size	_Z20USBD_LL_DataOutStageP19_USBD_HandleTypeDefhPh, .-_Z20USBD_LL_DataOutStageP19_USBD_Handle
 708              		.section	.text._Z19USBD_LL_DataInStageP19_USBD_HandleTypeDefhPh,"ax",%progbits
 709              		.align	2
 710              		.global	_Z19USBD_LL_DataInStageP19_USBD_HandleTypeDefhPh
 711              		.thumb
 712              		.thumb_func
 713              		.type	_Z19USBD_LL_DataInStageP19_USBD_HandleTypeDefhPh, %function
 714              	_Z19USBD_LL_DataInStageP19_USBD_HandleTypeDefhPh:
 715              	.LFB66:
 335:Middlewares/ST/STM32_USB_Device_Library/Core/usbd_core.cpp **** 
 336:Middlewares/ST/STM32_USB_Device_Library/Core/usbd_core.cpp **** /**
 337:Middlewares/ST/STM32_USB_Device_Library/Core/usbd_core.cpp **** * @brief  USBD_DataInStage 
 338:Middlewares/ST/STM32_USB_Device_Library/Core/usbd_core.cpp **** *         Handle data in stage
 339:Middlewares/ST/STM32_USB_Device_Library/Core/usbd_core.cpp **** * @param  pdev: device instance
 340:Middlewares/ST/STM32_USB_Device_Library/Core/usbd_core.cpp **** * @param  epnum: endpoint index
 341:Middlewares/ST/STM32_USB_Device_Library/Core/usbd_core.cpp **** * @retval status
 342:Middlewares/ST/STM32_USB_Device_Library/Core/usbd_core.cpp **** */
 343:Middlewares/ST/STM32_USB_Device_Library/Core/usbd_core.cpp **** USBD_StatusTypeDef USBD_LL_DataInStage(USBD_HandleTypeDef *pdev ,uint8_t epnum, uint8_t *pdata)
 344:Middlewares/ST/STM32_USB_Device_Library/Core/usbd_core.cpp **** {
 716              		.loc 1 344 0
 717              		.cfi_startproc
 718              		@ args = 0, pretend = 0, frame = 24
 719              		@ frame_needed = 1, uses_anonymous_args = 0
 720 0000 80B5     		push	{r7, lr}	@
 721              	.LCFI30:
 722              		.cfi_def_cfa_offset 8
 723              		.cfi_offset 7, -8
 724              		.cfi_offset 14, -4
 725 0002 86B0     		sub	sp, sp, #24	@,,
 726              	.LCFI31:
 727              		.cfi_def_cfa_offset 32
 728 0004 00AF     		add	r7, sp, #0	@,,
 729              	.LCFI32:
 730              		.cfi_def_cfa_register 7
 731 0006 F860     		str	r0, [r7, #12]	@ pdev, pdev
 732 0008 0B46     		mov	r3, r1	@ tmp162, epnum
 733 000a 7A60     		str	r2, [r7, #4]	@ pdata, pdata
 734 000c FB72     		strb	r3, [r7, #11]	@ tmp163, epnum
 735              	.LBB5:
 345:Middlewares/ST/STM32_USB_Device_Library/Core/usbd_core.cpp ****   USBD_EndpointTypeDef    *pep;
 346:Middlewares/ST/STM32_USB_Device_Library/Core/usbd_core.cpp ****     
 347:Middlewares/ST/STM32_USB_Device_Library/Core/usbd_core.cpp ****   if(epnum == 0) 
 736              		.loc 1 347 0
ARM GAS  /tmp/cctHw1ny.s 			page 20


 737 000e FB7A     		ldrb	r3, [r7, #11]	@ zero_extendqisi2	@ tmp164, epnum
 738 0010 002B     		cmp	r3, #0	@ tmp164,
 739 0012 65D1     		bne	.L40	@,
 348:Middlewares/ST/STM32_USB_Device_Library/Core/usbd_core.cpp ****   {
 349:Middlewares/ST/STM32_USB_Device_Library/Core/usbd_core.cpp ****     pep = &pdev->ep_in[0];
 740              		.loc 1 349 0
 741 0014 FB68     		ldr	r3, [r7, #12]	@ tmp166, pdev
 742 0016 03F11403 		add	r3, r3, #20	@ tmp165, tmp166,
 743 001a 7B61     		str	r3, [r7, #20]	@ tmp165, pep
 350:Middlewares/ST/STM32_USB_Device_Library/Core/usbd_core.cpp ****     
 351:Middlewares/ST/STM32_USB_Device_Library/Core/usbd_core.cpp ****     if ( pdev->ep0_state == USBD_EP0_DATA_IN)
 744              		.loc 1 351 0
 745 001c FB68     		ldr	r3, [r7, #12]	@ tmp167, pdev
 746 001e D3F8F431 		ldr	r3, [r3, #500]	@ D.7688, pdev_2(D)->ep0_state
 747 0022 022B     		cmp	r3, #2	@ D.7688,
 748 0024 4ED1     		bne	.L41	@,
 352:Middlewares/ST/STM32_USB_Device_Library/Core/usbd_core.cpp ****     {
 353:Middlewares/ST/STM32_USB_Device_Library/Core/usbd_core.cpp ****       if(pep->rem_length > pep->maxpacket)
 749              		.loc 1 353 0
 750 0026 7B69     		ldr	r3, [r7, #20]	@ tmp168, pep
 751 0028 9A68     		ldr	r2, [r3, #8]	@ D.7691, pep_3->rem_length
 752 002a 7B69     		ldr	r3, [r7, #20]	@ tmp169, pep
 753 002c DB68     		ldr	r3, [r3, #12]	@ D.7692, pep_3->maxpacket
 754 002e 9A42     		cmp	r2, r3	@ D.7691, D.7692
 755 0030 0FD9     		bls	.L42	@,
 354:Middlewares/ST/STM32_USB_Device_Library/Core/usbd_core.cpp ****       {
 355:Middlewares/ST/STM32_USB_Device_Library/Core/usbd_core.cpp ****         pep->rem_length -=  pep->maxpacket;
 756              		.loc 1 355 0
 757 0032 7B69     		ldr	r3, [r7, #20]	@ tmp170, pep
 758 0034 9A68     		ldr	r2, [r3, #8]	@ D.7695, pep_3->rem_length
 759 0036 7B69     		ldr	r3, [r7, #20]	@ tmp171, pep
 760 0038 DB68     		ldr	r3, [r3, #12]	@ D.7696, pep_3->maxpacket
 761 003a D21A     		subs	r2, r2, r3	@ D.7697, D.7695, D.7696
 762 003c 7B69     		ldr	r3, [r7, #20]	@ tmp172, pep
 763 003e 9A60     		str	r2, [r3, #8]	@ D.7697, pep_3->rem_length
 356:Middlewares/ST/STM32_USB_Device_Library/Core/usbd_core.cpp ****         
 357:Middlewares/ST/STM32_USB_Device_Library/Core/usbd_core.cpp ****         USBD_CtlContinueSendData (pdev, 
 358:Middlewares/ST/STM32_USB_Device_Library/Core/usbd_core.cpp ****                                   pdata, 
 359:Middlewares/ST/STM32_USB_Device_Library/Core/usbd_core.cpp ****                                   pep->rem_length);
 764              		.loc 1 359 0
 765 0040 7B69     		ldr	r3, [r7, #20]	@ tmp173, pep
 766 0042 9B68     		ldr	r3, [r3, #8]	@ D.7698, pep_3->rem_length
 767 0044 9BB2     		uxth	r3, r3	@ D.7699, D.7698
 768 0046 F868     		ldr	r0, [r7, #12]	@, pdev
 769 0048 7968     		ldr	r1, [r7, #4]	@, pdata
 770 004a 1A46     		mov	r2, r3	@, D.7699
 771 004c FFF7FEFF 		bl	_Z24USBD_CtlContinueSendDataP19_USBD_HandleTypeDefPht	@
 772 0050 38E0     		b	.L41	@
 773              	.L42:
 360:Middlewares/ST/STM32_USB_Device_Library/Core/usbd_core.cpp ****       }
 361:Middlewares/ST/STM32_USB_Device_Library/Core/usbd_core.cpp ****       else
 362:Middlewares/ST/STM32_USB_Device_Library/Core/usbd_core.cpp ****       { /* last packet is MPS multiple, so send ZLP packet */
 363:Middlewares/ST/STM32_USB_Device_Library/Core/usbd_core.cpp ****         if((pep->total_length % pep->maxpacket == 0) &&
 774              		.loc 1 363 0
 775 0052 7B69     		ldr	r3, [r7, #20]	@ tmp174, pep
 776 0054 5B68     		ldr	r3, [r3, #4]	@ D.7703, pep_3->total_length
 777 0056 7A69     		ldr	r2, [r7, #20]	@ tmp175, pep
ARM GAS  /tmp/cctHw1ny.s 			page 21


 778 0058 D268     		ldr	r2, [r2, #12]	@ D.7704, pep_3->maxpacket
 779 005a B3FBF2F1 		udiv	r1, r3, r2	@ tmp178, D.7703, D.7704
 780 005e 02FB01F2 		mul	r2, r2, r1	@ tmp179, D.7704, tmp178
 781 0062 9B1A     		subs	r3, r3, r2	@ D.7705, D.7703, tmp179
 782 0064 002B     		cmp	r3, #0	@ D.7705,
 783 0066 19D1     		bne	.L44	@,
 784              		.loc 1 363 0 is_stmt 0 discriminator 1
 785 0068 7B69     		ldr	r3, [r7, #20]	@ tmp180, pep
 786 006a 5A68     		ldr	r2, [r3, #4]	@ D.7707, pep_3->total_length
 787 006c 7B69     		ldr	r3, [r7, #20]	@ tmp181, pep
 788 006e DB68     		ldr	r3, [r3, #12]	@ D.7708, pep_3->maxpacket
 789 0070 9A42     		cmp	r2, r3	@ D.7707, D.7708
 790 0072 13D3     		bcc	.L44	@,
 791              		.loc 1 363 0 discriminator 2
 792 0074 7B69     		ldr	r3, [r7, #20]	@ tmp182, pep
 793 0076 5A68     		ldr	r2, [r3, #4]	@ D.7710, pep_3->total_length
 794 0078 FB68     		ldr	r3, [r7, #12]	@ tmp183, pdev
 795 007a D3F8F831 		ldr	r3, [r3, #504]	@ D.7711, pdev_2(D)->ep0_data_len
 796 007e 9A42     		cmp	r2, r3	@ D.7710, D.7711
 797 0080 0CD2     		bcs	.L44	@,
 364:Middlewares/ST/STM32_USB_Device_Library/Core/usbd_core.cpp ****            (pep->total_length >= pep->maxpacket) &&
 365:Middlewares/ST/STM32_USB_Device_Library/Core/usbd_core.cpp ****              (pep->total_length < pdev->ep0_data_len ))
 366:Middlewares/ST/STM32_USB_Device_Library/Core/usbd_core.cpp ****         {
 367:Middlewares/ST/STM32_USB_Device_Library/Core/usbd_core.cpp ****           
 368:Middlewares/ST/STM32_USB_Device_Library/Core/usbd_core.cpp ****           USBD_CtlContinueSendData(pdev , NULL, 0);
 798              		.loc 1 368 0 is_stmt 1
 799 0082 F868     		ldr	r0, [r7, #12]	@, pdev
 800 0084 4FF00001 		mov	r1, #0	@,
 801 0088 4FF00002 		mov	r2, #0	@,
 802 008c FFF7FEFF 		bl	_Z24USBD_CtlContinueSendDataP19_USBD_HandleTypeDefPht	@
 369:Middlewares/ST/STM32_USB_Device_Library/Core/usbd_core.cpp ****           pdev->ep0_data_len = 0;
 803              		.loc 1 369 0
 804 0090 FB68     		ldr	r3, [r7, #12]	@ tmp184, pdev
 805 0092 4FF00002 		mov	r2, #0	@ tmp185,
 806 0096 C3F8F821 		str	r2, [r3, #504]	@ tmp185, pdev_2(D)->ep0_data_len
 807 009a 13E0     		b	.L41	@
 808              	.L44:
 370:Middlewares/ST/STM32_USB_Device_Library/Core/usbd_core.cpp ****         }
 371:Middlewares/ST/STM32_USB_Device_Library/Core/usbd_core.cpp ****         else
 372:Middlewares/ST/STM32_USB_Device_Library/Core/usbd_core.cpp ****         {
 373:Middlewares/ST/STM32_USB_Device_Library/Core/usbd_core.cpp ****           if((pdev->pClass->EP0_TxSent != NULL)&&
 809              		.loc 1 373 0
 810 009c FB68     		ldr	r3, [r7, #12]	@ tmp186, pdev
 811 009e D3F81432 		ldr	r3, [r3, #532]	@ D.7713, pdev_2(D)->pClass
 812 00a2 DB68     		ldr	r3, [r3, #12]	@ D.7714, D.7713_20->EP0_TxSent
 813 00a4 002B     		cmp	r3, #0	@ D.7714,
 814 00a6 0AD0     		beq	.L45	@,
 815              		.loc 1 373 0 is_stmt 0 discriminator 1
 816 00a8 FB68     		ldr	r3, [r7, #12]	@ tmp187, pdev
 817 00aa 93F8FC31 		ldrb	r3, [r3, #508]	@ zero_extendqisi2	@ D.7717, pdev_2(D)->dev_state
 818 00ae 032B     		cmp	r3, #3	@ D.7717,
 819 00b0 05D1     		bne	.L45	@,
 374:Middlewares/ST/STM32_USB_Device_Library/Core/usbd_core.cpp ****              (pdev->dev_state == USBD_STATE_CONFIGURED))
 375:Middlewares/ST/STM32_USB_Device_Library/Core/usbd_core.cpp ****           {
 376:Middlewares/ST/STM32_USB_Device_Library/Core/usbd_core.cpp ****             pdev->pClass->EP0_TxSent(pdev); 
 820              		.loc 1 376 0 is_stmt 1
 821 00b2 FB68     		ldr	r3, [r7, #12]	@ tmp188, pdev
ARM GAS  /tmp/cctHw1ny.s 			page 22


 822 00b4 D3F81432 		ldr	r3, [r3, #532]	@ D.7720, pdev_2(D)->pClass
 823 00b8 DB68     		ldr	r3, [r3, #12]	@ D.7721, D.7720_23->EP0_TxSent
 824 00ba F868     		ldr	r0, [r7, #12]	@, pdev
 825 00bc 9847     		blx	r3	@ D.7721
 826              	.L45:
 377:Middlewares/ST/STM32_USB_Device_Library/Core/usbd_core.cpp ****           }          
 378:Middlewares/ST/STM32_USB_Device_Library/Core/usbd_core.cpp ****           USBD_CtlReceiveStatus(pdev);
 827              		.loc 1 378 0
 828 00be F868     		ldr	r0, [r7, #12]	@, pdev
 829 00c0 FFF7FEFF 		bl	_Z21USBD_CtlReceiveStatusP19_USBD_HandleTypeDef	@
 830              	.L41:
 379:Middlewares/ST/STM32_USB_Device_Library/Core/usbd_core.cpp ****         }
 380:Middlewares/ST/STM32_USB_Device_Library/Core/usbd_core.cpp ****       }
 381:Middlewares/ST/STM32_USB_Device_Library/Core/usbd_core.cpp ****     }
 382:Middlewares/ST/STM32_USB_Device_Library/Core/usbd_core.cpp ****     if (pdev->dev_test_mode == 1)
 831              		.loc 1 382 0
 832 00c4 FB68     		ldr	r3, [r7, #12]	@ tmp189, pdev
 833 00c6 93F80032 		ldrb	r3, [r3, #512]	@ zero_extendqisi2	@ D.7724, pdev_2(D)->dev_test_mode
 834 00ca 012B     		cmp	r3, #1	@ D.7724,
 835 00cc 1BD1     		bne	.L46	@,
 383:Middlewares/ST/STM32_USB_Device_Library/Core/usbd_core.cpp ****     {
 384:Middlewares/ST/STM32_USB_Device_Library/Core/usbd_core.cpp ****       USBD_RunTestMode(pdev); 
 836              		.loc 1 384 0
 837 00ce F868     		ldr	r0, [r7, #12]	@, pdev
 838 00d0 FFF7FEFF 		bl	_Z16USBD_RunTestModeP19_USBD_HandleTypeDef	@
 385:Middlewares/ST/STM32_USB_Device_Library/Core/usbd_core.cpp ****       pdev->dev_test_mode = 0;
 839              		.loc 1 385 0
 840 00d4 FB68     		ldr	r3, [r7, #12]	@ tmp190, pdev
 841 00d6 4FF00002 		mov	r2, #0	@ tmp191,
 842 00da 83F80022 		strb	r2, [r3, #512]	@ tmp192, pdev_2(D)->dev_test_mode
 843 00de 12E0     		b	.L46	@
 844              	.L40:
 386:Middlewares/ST/STM32_USB_Device_Library/Core/usbd_core.cpp ****     }
 387:Middlewares/ST/STM32_USB_Device_Library/Core/usbd_core.cpp ****   }
 388:Middlewares/ST/STM32_USB_Device_Library/Core/usbd_core.cpp ****   else if((pdev->pClass->DataIn != NULL)&& 
 845              		.loc 1 388 0
 846 00e0 FB68     		ldr	r3, [r7, #12]	@ tmp193, pdev
 847 00e2 D3F81432 		ldr	r3, [r3, #532]	@ D.7729, pdev_2(D)->pClass
 848 00e6 5B69     		ldr	r3, [r3, #20]	@ D.7730, D.7729_26->DataIn
 849 00e8 002B     		cmp	r3, #0	@ D.7730,
 850 00ea 0CD0     		beq	.L46	@,
 851              		.loc 1 388 0 is_stmt 0 discriminator 1
 852 00ec FB68     		ldr	r3, [r7, #12]	@ tmp194, pdev
 853 00ee 93F8FC31 		ldrb	r3, [r3, #508]	@ zero_extendqisi2	@ D.7733, pdev_2(D)->dev_state
 854 00f2 032B     		cmp	r3, #3	@ D.7733,
 855 00f4 07D1     		bne	.L46	@,
 389:Middlewares/ST/STM32_USB_Device_Library/Core/usbd_core.cpp ****           (pdev->dev_state == USBD_STATE_CONFIGURED))
 390:Middlewares/ST/STM32_USB_Device_Library/Core/usbd_core.cpp ****   {
 391:Middlewares/ST/STM32_USB_Device_Library/Core/usbd_core.cpp ****     pdev->pClass->DataIn(pdev, epnum); 
 856              		.loc 1 391 0 is_stmt 1
 857 00f6 FB68     		ldr	r3, [r7, #12]	@ tmp195, pdev
 858 00f8 D3F81432 		ldr	r3, [r3, #532]	@ D.7736, pdev_2(D)->pClass
 859 00fc 5B69     		ldr	r3, [r3, #20]	@ D.7737, D.7736_29->DataIn
 860 00fe FA7A     		ldrb	r2, [r7, #11]	@ zero_extendqisi2	@ tmp196, epnum
 861 0100 F868     		ldr	r0, [r7, #12]	@, pdev
 862 0102 1146     		mov	r1, r2	@, tmp196
 863 0104 9847     		blx	r3	@ D.7737
ARM GAS  /tmp/cctHw1ny.s 			page 23


 864              	.L46:
 392:Middlewares/ST/STM32_USB_Device_Library/Core/usbd_core.cpp ****   }  
 393:Middlewares/ST/STM32_USB_Device_Library/Core/usbd_core.cpp ****   return USBD_OK;
 865              		.loc 1 393 0
 866 0106 4FF00003 		mov	r3, #0	@ D.7739,
 867              	.LBE5:
 394:Middlewares/ST/STM32_USB_Device_Library/Core/usbd_core.cpp **** }
 868              		.loc 1 394 0
 869 010a 1846     		mov	r0, r3	@, <retval>
 870 010c 07F11807 		add	r7, r7, #24	@,,
 871 0110 BD46     		mov	sp, r7
 872 0112 80BD     		pop	{r7, pc}
 873              		.cfi_endproc
 874              	.LFE66:
 875              		.size	_Z19USBD_LL_DataInStageP19_USBD_HandleTypeDefhPh, .-_Z19USBD_LL_DataInStageP19_USBD_HandleTy
 876              		.section	.text._Z13USBD_LL_ResetP19_USBD_HandleTypeDef,"ax",%progbits
 877              		.align	2
 878              		.global	_Z13USBD_LL_ResetP19_USBD_HandleTypeDef
 879              		.thumb
 880              		.thumb_func
 881              		.type	_Z13USBD_LL_ResetP19_USBD_HandleTypeDef, %function
 882              	_Z13USBD_LL_ResetP19_USBD_HandleTypeDef:
 883              	.LFB67:
 395:Middlewares/ST/STM32_USB_Device_Library/Core/usbd_core.cpp **** 
 396:Middlewares/ST/STM32_USB_Device_Library/Core/usbd_core.cpp **** /**
 397:Middlewares/ST/STM32_USB_Device_Library/Core/usbd_core.cpp **** * @brief  USBD_LL_Reset 
 398:Middlewares/ST/STM32_USB_Device_Library/Core/usbd_core.cpp **** *         Handle Reset event
 399:Middlewares/ST/STM32_USB_Device_Library/Core/usbd_core.cpp **** * @param  pdev: device instance
 400:Middlewares/ST/STM32_USB_Device_Library/Core/usbd_core.cpp **** * @retval status
 401:Middlewares/ST/STM32_USB_Device_Library/Core/usbd_core.cpp **** */
 402:Middlewares/ST/STM32_USB_Device_Library/Core/usbd_core.cpp **** 
 403:Middlewares/ST/STM32_USB_Device_Library/Core/usbd_core.cpp **** USBD_StatusTypeDef USBD_LL_Reset(USBD_HandleTypeDef  *pdev)
 404:Middlewares/ST/STM32_USB_Device_Library/Core/usbd_core.cpp **** {
 884              		.loc 1 404 0
 885              		.cfi_startproc
 886              		@ args = 0, pretend = 0, frame = 8
 887              		@ frame_needed = 1, uses_anonymous_args = 0
 888 0000 80B5     		push	{r7, lr}	@
 889              	.LCFI33:
 890              		.cfi_def_cfa_offset 8
 891              		.cfi_offset 7, -8
 892              		.cfi_offset 14, -4
 893 0002 82B0     		sub	sp, sp, #8	@,,
 894              	.LCFI34:
 895              		.cfi_def_cfa_offset 16
 896 0004 00AF     		add	r7, sp, #0	@,,
 897              	.LCFI35:
 898              		.cfi_def_cfa_register 7
 899 0006 7860     		str	r0, [r7, #4]	@ pdev, pdev
 405:Middlewares/ST/STM32_USB_Device_Library/Core/usbd_core.cpp ****   /* Open EP0 OUT */
 406:Middlewares/ST/STM32_USB_Device_Library/Core/usbd_core.cpp ****   USBD_LL_OpenEP(pdev,
 407:Middlewares/ST/STM32_USB_Device_Library/Core/usbd_core.cpp ****               0x00,
 408:Middlewares/ST/STM32_USB_Device_Library/Core/usbd_core.cpp ****               USBD_EP_TYPE_CTRL,
 409:Middlewares/ST/STM32_USB_Device_Library/Core/usbd_core.cpp ****               USB_MAX_EP0_SIZE);
 900              		.loc 1 409 0
 901 0008 7868     		ldr	r0, [r7, #4]	@, pdev
 902 000a 4FF00001 		mov	r1, #0	@,
ARM GAS  /tmp/cctHw1ny.s 			page 24


 903 000e 4FF00002 		mov	r2, #0	@,
 904 0012 4FF04003 		mov	r3, #64	@,
 905 0016 FFF7FEFF 		bl	_Z14USBD_LL_OpenEPP19_USBD_HandleTypeDefhht	@
 410:Middlewares/ST/STM32_USB_Device_Library/Core/usbd_core.cpp ****   
 411:Middlewares/ST/STM32_USB_Device_Library/Core/usbd_core.cpp ****   pdev->ep_out[0].maxpacket = USB_MAX_EP0_SIZE;
 906              		.loc 1 411 0
 907 001a 7B68     		ldr	r3, [r7, #4]	@ tmp141, pdev
 908 001c 4FF04002 		mov	r2, #64	@ tmp142,
 909 0020 C3F81021 		str	r2, [r3, #272]	@ tmp142, pdev_1(D)->ep_out[0].maxpacket
 412:Middlewares/ST/STM32_USB_Device_Library/Core/usbd_core.cpp ****   
 413:Middlewares/ST/STM32_USB_Device_Library/Core/usbd_core.cpp ****   /* Open EP0 IN */
 414:Middlewares/ST/STM32_USB_Device_Library/Core/usbd_core.cpp ****   USBD_LL_OpenEP(pdev,
 415:Middlewares/ST/STM32_USB_Device_Library/Core/usbd_core.cpp ****               0x80,
 416:Middlewares/ST/STM32_USB_Device_Library/Core/usbd_core.cpp ****               USBD_EP_TYPE_CTRL,
 417:Middlewares/ST/STM32_USB_Device_Library/Core/usbd_core.cpp ****               USB_MAX_EP0_SIZE);
 910              		.loc 1 417 0
 911 0024 7868     		ldr	r0, [r7, #4]	@, pdev
 912 0026 4FF08001 		mov	r1, #128	@,
 913 002a 4FF00002 		mov	r2, #0	@,
 914 002e 4FF04003 		mov	r3, #64	@,
 915 0032 FFF7FEFF 		bl	_Z14USBD_LL_OpenEPP19_USBD_HandleTypeDefhht	@
 418:Middlewares/ST/STM32_USB_Device_Library/Core/usbd_core.cpp ****   
 419:Middlewares/ST/STM32_USB_Device_Library/Core/usbd_core.cpp ****   pdev->ep_in[0].maxpacket = USB_MAX_EP0_SIZE;
 916              		.loc 1 419 0
 917 0036 7B68     		ldr	r3, [r7, #4]	@ tmp143, pdev
 918 0038 4FF04002 		mov	r2, #64	@ tmp144,
 919 003c 1A62     		str	r2, [r3, #32]	@ tmp144, pdev_1(D)->ep_in[0].maxpacket
 420:Middlewares/ST/STM32_USB_Device_Library/Core/usbd_core.cpp ****   /* Upon Reset call usr call back */
 421:Middlewares/ST/STM32_USB_Device_Library/Core/usbd_core.cpp ****   pdev->dev_state = USBD_STATE_DEFAULT;
 920              		.loc 1 421 0
 921 003e 7B68     		ldr	r3, [r7, #4]	@ tmp145, pdev
 922 0040 4FF00102 		mov	r2, #1	@ tmp146,
 923 0044 83F8FC21 		strb	r2, [r3, #508]	@ tmp147, pdev_1(D)->dev_state
 422:Middlewares/ST/STM32_USB_Device_Library/Core/usbd_core.cpp ****   
 423:Middlewares/ST/STM32_USB_Device_Library/Core/usbd_core.cpp ****   if (pdev->pClassData) 
 924              		.loc 1 423 0
 925 0048 7B68     		ldr	r3, [r7, #4]	@ tmp148, pdev
 926 004a D3F81832 		ldr	r3, [r3, #536]	@ D.7676, pdev_1(D)->pClassData
 927 004e 002B     		cmp	r3, #0	@ D.7676,
 928 0050 09D0     		beq	.L49	@,
 424:Middlewares/ST/STM32_USB_Device_Library/Core/usbd_core.cpp ****     pdev->pClass->DeInit(pdev, pdev->dev_config);  
 929              		.loc 1 424 0
 930 0052 7B68     		ldr	r3, [r7, #4]	@ tmp149, pdev
 931 0054 D3F81432 		ldr	r3, [r3, #532]	@ D.7679, pdev_1(D)->pClass
 932 0058 5B68     		ldr	r3, [r3, #4]	@ D.7680, D.7679_3->DeInit
 933 005a 7A68     		ldr	r2, [r7, #4]	@ tmp150, pdev
 934 005c 5268     		ldr	r2, [r2, #4]	@ D.7681, pdev_1(D)->dev_config
 935 005e D2B2     		uxtb	r2, r2	@ D.7682, D.7681
 936 0060 7868     		ldr	r0, [r7, #4]	@, pdev
 937 0062 1146     		mov	r1, r2	@, D.7682
 938 0064 9847     		blx	r3	@ D.7680
 939              	.L49:
 425:Middlewares/ST/STM32_USB_Device_Library/Core/usbd_core.cpp ****  
 426:Middlewares/ST/STM32_USB_Device_Library/Core/usbd_core.cpp ****   
 427:Middlewares/ST/STM32_USB_Device_Library/Core/usbd_core.cpp ****   return USBD_OK;
 940              		.loc 1 427 0
 941 0066 4FF00003 		mov	r3, #0	@ D.7684,
ARM GAS  /tmp/cctHw1ny.s 			page 25


 428:Middlewares/ST/STM32_USB_Device_Library/Core/usbd_core.cpp **** }
 942              		.loc 1 428 0
 943 006a 1846     		mov	r0, r3	@, <retval>
 944 006c 07F10807 		add	r7, r7, #8	@,,
 945 0070 BD46     		mov	sp, r7
 946 0072 80BD     		pop	{r7, pc}
 947              		.cfi_endproc
 948              	.LFE67:
 949              		.size	_Z13USBD_LL_ResetP19_USBD_HandleTypeDef, .-_Z13USBD_LL_ResetP19_USBD_HandleTypeDef
 950              		.section	.text._Z16USBD_LL_SetSpeedP19_USBD_HandleTypeDef17USBD_SpeedTypeDef,"ax",%progbits
 951              		.align	2
 952              		.global	_Z16USBD_LL_SetSpeedP19_USBD_HandleTypeDef17USBD_SpeedTypeDef
 953              		.thumb
 954              		.thumb_func
 955              		.type	_Z16USBD_LL_SetSpeedP19_USBD_HandleTypeDef17USBD_SpeedTypeDef, %function
 956              	_Z16USBD_LL_SetSpeedP19_USBD_HandleTypeDef17USBD_SpeedTypeDef:
 957              	.LFB68:
 429:Middlewares/ST/STM32_USB_Device_Library/Core/usbd_core.cpp **** 
 430:Middlewares/ST/STM32_USB_Device_Library/Core/usbd_core.cpp **** 
 431:Middlewares/ST/STM32_USB_Device_Library/Core/usbd_core.cpp **** 
 432:Middlewares/ST/STM32_USB_Device_Library/Core/usbd_core.cpp **** 
 433:Middlewares/ST/STM32_USB_Device_Library/Core/usbd_core.cpp **** /**
 434:Middlewares/ST/STM32_USB_Device_Library/Core/usbd_core.cpp **** * @brief  USBD_LL_Reset 
 435:Middlewares/ST/STM32_USB_Device_Library/Core/usbd_core.cpp **** *         Handle Reset event
 436:Middlewares/ST/STM32_USB_Device_Library/Core/usbd_core.cpp **** * @param  pdev: device instance
 437:Middlewares/ST/STM32_USB_Device_Library/Core/usbd_core.cpp **** * @retval status
 438:Middlewares/ST/STM32_USB_Device_Library/Core/usbd_core.cpp **** */
 439:Middlewares/ST/STM32_USB_Device_Library/Core/usbd_core.cpp **** USBD_StatusTypeDef USBD_LL_SetSpeed(USBD_HandleTypeDef  *pdev, USBD_SpeedTypeDef speed)
 440:Middlewares/ST/STM32_USB_Device_Library/Core/usbd_core.cpp **** {
 958              		.loc 1 440 0
 959              		.cfi_startproc
 960              		@ args = 0, pretend = 0, frame = 8
 961              		@ frame_needed = 1, uses_anonymous_args = 0
 962              		@ link register save eliminated.
 963 0000 80B4     		push	{r7}	@
 964              	.LCFI36:
 965              		.cfi_def_cfa_offset 4
 966              		.cfi_offset 7, -4
 967 0002 83B0     		sub	sp, sp, #12	@,,
 968              	.LCFI37:
 969              		.cfi_def_cfa_offset 16
 970 0004 00AF     		add	r7, sp, #0	@,,
 971              	.LCFI38:
 972              		.cfi_def_cfa_register 7
 973 0006 7860     		str	r0, [r7, #4]	@ pdev, pdev
 974 0008 0B46     		mov	r3, r1	@ tmp136, speed
 975 000a FB70     		strb	r3, [r7, #3]	@ tmp137, speed
 441:Middlewares/ST/STM32_USB_Device_Library/Core/usbd_core.cpp ****   pdev->dev_speed = speed;
 976              		.loc 1 441 0
 977 000c 7B68     		ldr	r3, [r7, #4]	@ tmp138, pdev
 978 000e FA78     		ldrb	r2, [r7, #3]	@ tmp139, speed
 979 0010 1A74     		strb	r2, [r3, #16]	@ tmp139, pdev_1(D)->dev_speed
 442:Middlewares/ST/STM32_USB_Device_Library/Core/usbd_core.cpp ****   return USBD_OK;
 980              		.loc 1 442 0
 981 0012 4FF00003 		mov	r3, #0	@ D.7674,
 443:Middlewares/ST/STM32_USB_Device_Library/Core/usbd_core.cpp **** }
 982              		.loc 1 443 0
ARM GAS  /tmp/cctHw1ny.s 			page 26


 983 0016 1846     		mov	r0, r3	@, <retval>
 984 0018 07F10C07 		add	r7, r7, #12	@,,
 985 001c BD46     		mov	sp, r7
 986 001e 80BC     		pop	{r7}
 987 0020 7047     		bx	lr
 988              		.cfi_endproc
 989              	.LFE68:
 990              		.size	_Z16USBD_LL_SetSpeedP19_USBD_HandleTypeDef17USBD_SpeedTypeDef, .-_Z16USBD_LL_SetSpeedP19_USB
 991 0022 00BF     		.section	.text._Z15USBD_LL_SuspendP19_USBD_HandleTypeDef,"ax",%progbits
 992              		.align	2
 993              		.global	_Z15USBD_LL_SuspendP19_USBD_HandleTypeDef
 994              		.thumb
 995              		.thumb_func
 996              		.type	_Z15USBD_LL_SuspendP19_USBD_HandleTypeDef, %function
 997              	_Z15USBD_LL_SuspendP19_USBD_HandleTypeDef:
 998              	.LFB69:
 444:Middlewares/ST/STM32_USB_Device_Library/Core/usbd_core.cpp **** 
 445:Middlewares/ST/STM32_USB_Device_Library/Core/usbd_core.cpp **** /**
 446:Middlewares/ST/STM32_USB_Device_Library/Core/usbd_core.cpp **** * @brief  USBD_Suspend 
 447:Middlewares/ST/STM32_USB_Device_Library/Core/usbd_core.cpp **** *         Handle Suspend event
 448:Middlewares/ST/STM32_USB_Device_Library/Core/usbd_core.cpp **** * @param  pdev: device instance
 449:Middlewares/ST/STM32_USB_Device_Library/Core/usbd_core.cpp **** * @retval status
 450:Middlewares/ST/STM32_USB_Device_Library/Core/usbd_core.cpp **** */
 451:Middlewares/ST/STM32_USB_Device_Library/Core/usbd_core.cpp **** 
 452:Middlewares/ST/STM32_USB_Device_Library/Core/usbd_core.cpp **** USBD_StatusTypeDef USBD_LL_Suspend(USBD_HandleTypeDef  *pdev)
 453:Middlewares/ST/STM32_USB_Device_Library/Core/usbd_core.cpp **** {
 999              		.loc 1 453 0
 1000              		.cfi_startproc
 1001              		@ args = 0, pretend = 0, frame = 8
 1002              		@ frame_needed = 1, uses_anonymous_args = 0
 1003              		@ link register save eliminated.
 1004 0000 80B4     		push	{r7}	@
 1005              	.LCFI39:
 1006              		.cfi_def_cfa_offset 4
 1007              		.cfi_offset 7, -4
 1008 0002 83B0     		sub	sp, sp, #12	@,,
 1009              	.LCFI40:
 1010              		.cfi_def_cfa_offset 16
 1011 0004 00AF     		add	r7, sp, #0	@,,
 1012              	.LCFI41:
 1013              		.cfi_def_cfa_register 7
 1014 0006 7860     		str	r0, [r7, #4]	@ pdev, pdev
 454:Middlewares/ST/STM32_USB_Device_Library/Core/usbd_core.cpp ****   pdev->dev_old_state =  pdev->dev_state;
 1015              		.loc 1 454 0
 1016 0008 7B68     		ldr	r3, [r7, #4]	@ tmp137, pdev
 1017 000a 93F8FC21 		ldrb	r2, [r3, #508]	@ zero_extendqisi2	@ D.7671, pdev_1(D)->dev_state
 1018 000e 7B68     		ldr	r3, [r7, #4]	@ tmp138, pdev
 1019 0010 83F8FD21 		strb	r2, [r3, #509]	@ tmp139, pdev_1(D)->dev_old_state
 455:Middlewares/ST/STM32_USB_Device_Library/Core/usbd_core.cpp ****   pdev->dev_state  = USBD_STATE_SUSPENDED;
 1020              		.loc 1 455 0
 1021 0014 7B68     		ldr	r3, [r7, #4]	@ tmp140, pdev
 1022 0016 4FF00402 		mov	r2, #4	@ tmp141,
 1023 001a 83F8FC21 		strb	r2, [r3, #508]	@ tmp142, pdev_1(D)->dev_state
 456:Middlewares/ST/STM32_USB_Device_Library/Core/usbd_core.cpp ****   return USBD_OK;
 1024              		.loc 1 456 0
 1025 001e 4FF00003 		mov	r3, #0	@ D.7672,
 457:Middlewares/ST/STM32_USB_Device_Library/Core/usbd_core.cpp **** }
ARM GAS  /tmp/cctHw1ny.s 			page 27


 1026              		.loc 1 457 0
 1027 0022 1846     		mov	r0, r3	@, <retval>
 1028 0024 07F10C07 		add	r7, r7, #12	@,,
 1029 0028 BD46     		mov	sp, r7
 1030 002a 80BC     		pop	{r7}
 1031 002c 7047     		bx	lr
 1032              		.cfi_endproc
 1033              	.LFE69:
 1034              		.size	_Z15USBD_LL_SuspendP19_USBD_HandleTypeDef, .-_Z15USBD_LL_SuspendP19_USBD_HandleTypeDef
 1035 002e 00BF     		.section	.text._Z14USBD_LL_ResumeP19_USBD_HandleTypeDef,"ax",%progbits
 1036              		.align	2
 1037              		.global	_Z14USBD_LL_ResumeP19_USBD_HandleTypeDef
 1038              		.thumb
 1039              		.thumb_func
 1040              		.type	_Z14USBD_LL_ResumeP19_USBD_HandleTypeDef, %function
 1041              	_Z14USBD_LL_ResumeP19_USBD_HandleTypeDef:
 1042              	.LFB70:
 458:Middlewares/ST/STM32_USB_Device_Library/Core/usbd_core.cpp **** 
 459:Middlewares/ST/STM32_USB_Device_Library/Core/usbd_core.cpp **** /**
 460:Middlewares/ST/STM32_USB_Device_Library/Core/usbd_core.cpp **** * @brief  USBD_Resume 
 461:Middlewares/ST/STM32_USB_Device_Library/Core/usbd_core.cpp **** *         Handle Resume event
 462:Middlewares/ST/STM32_USB_Device_Library/Core/usbd_core.cpp **** * @param  pdev: device instance
 463:Middlewares/ST/STM32_USB_Device_Library/Core/usbd_core.cpp **** * @retval status
 464:Middlewares/ST/STM32_USB_Device_Library/Core/usbd_core.cpp **** */
 465:Middlewares/ST/STM32_USB_Device_Library/Core/usbd_core.cpp **** 
 466:Middlewares/ST/STM32_USB_Device_Library/Core/usbd_core.cpp **** USBD_StatusTypeDef USBD_LL_Resume(USBD_HandleTypeDef  *pdev)
 467:Middlewares/ST/STM32_USB_Device_Library/Core/usbd_core.cpp **** {
 1043              		.loc 1 467 0
 1044              		.cfi_startproc
 1045              		@ args = 0, pretend = 0, frame = 8
 1046              		@ frame_needed = 1, uses_anonymous_args = 0
 1047              		@ link register save eliminated.
 1048 0000 80B4     		push	{r7}	@
 1049              	.LCFI42:
 1050              		.cfi_def_cfa_offset 4
 1051              		.cfi_offset 7, -4
 1052 0002 83B0     		sub	sp, sp, #12	@,,
 1053              	.LCFI43:
 1054              		.cfi_def_cfa_offset 16
 1055 0004 00AF     		add	r7, sp, #0	@,,
 1056              	.LCFI44:
 1057              		.cfi_def_cfa_register 7
 1058 0006 7860     		str	r0, [r7, #4]	@ pdev, pdev
 468:Middlewares/ST/STM32_USB_Device_Library/Core/usbd_core.cpp ****   pdev->dev_state = pdev->dev_old_state;  
 1059              		.loc 1 468 0
 1060 0008 7B68     		ldr	r3, [r7, #4]	@ tmp137, pdev
 1061 000a 93F8FD21 		ldrb	r2, [r3, #509]	@ zero_extendqisi2	@ D.7668, pdev_1(D)->dev_old_state
 1062 000e 7B68     		ldr	r3, [r7, #4]	@ tmp138, pdev
 1063 0010 83F8FC21 		strb	r2, [r3, #508]	@ tmp139, pdev_1(D)->dev_state
 469:Middlewares/ST/STM32_USB_Device_Library/Core/usbd_core.cpp ****   return USBD_OK;
 1064              		.loc 1 469 0
 1065 0014 4FF00003 		mov	r3, #0	@ D.7669,
 470:Middlewares/ST/STM32_USB_Device_Library/Core/usbd_core.cpp **** }
 1066              		.loc 1 470 0
 1067 0018 1846     		mov	r0, r3	@, <retval>
 1068 001a 07F10C07 		add	r7, r7, #12	@,,
 1069 001e BD46     		mov	sp, r7
ARM GAS  /tmp/cctHw1ny.s 			page 28


 1070 0020 80BC     		pop	{r7}
 1071 0022 7047     		bx	lr
 1072              		.cfi_endproc
 1073              	.LFE70:
 1074              		.size	_Z14USBD_LL_ResumeP19_USBD_HandleTypeDef, .-_Z14USBD_LL_ResumeP19_USBD_HandleTypeDef
 1075              		.section	.text._Z11USBD_LL_SOFP19_USBD_HandleTypeDef,"ax",%progbits
 1076              		.align	2
 1077              		.global	_Z11USBD_LL_SOFP19_USBD_HandleTypeDef
 1078              		.thumb
 1079              		.thumb_func
 1080              		.type	_Z11USBD_LL_SOFP19_USBD_HandleTypeDef, %function
 1081              	_Z11USBD_LL_SOFP19_USBD_HandleTypeDef:
 1082              	.LFB71:
 471:Middlewares/ST/STM32_USB_Device_Library/Core/usbd_core.cpp **** 
 472:Middlewares/ST/STM32_USB_Device_Library/Core/usbd_core.cpp **** /**
 473:Middlewares/ST/STM32_USB_Device_Library/Core/usbd_core.cpp **** * @brief  USBD_SOF 
 474:Middlewares/ST/STM32_USB_Device_Library/Core/usbd_core.cpp **** *         Handle SOF event
 475:Middlewares/ST/STM32_USB_Device_Library/Core/usbd_core.cpp **** * @param  pdev: device instance
 476:Middlewares/ST/STM32_USB_Device_Library/Core/usbd_core.cpp **** * @retval status
 477:Middlewares/ST/STM32_USB_Device_Library/Core/usbd_core.cpp **** */
 478:Middlewares/ST/STM32_USB_Device_Library/Core/usbd_core.cpp **** 
 479:Middlewares/ST/STM32_USB_Device_Library/Core/usbd_core.cpp **** USBD_StatusTypeDef USBD_LL_SOF(USBD_HandleTypeDef  *pdev)
 480:Middlewares/ST/STM32_USB_Device_Library/Core/usbd_core.cpp **** {
 1083              		.loc 1 480 0
 1084              		.cfi_startproc
 1085              		@ args = 0, pretend = 0, frame = 8
 1086              		@ frame_needed = 1, uses_anonymous_args = 0
 1087 0000 80B5     		push	{r7, lr}	@
 1088              	.LCFI45:
 1089              		.cfi_def_cfa_offset 8
 1090              		.cfi_offset 7, -8
 1091              		.cfi_offset 14, -4
 1092 0002 82B0     		sub	sp, sp, #8	@,,
 1093              	.LCFI46:
 1094              		.cfi_def_cfa_offset 16
 1095 0004 00AF     		add	r7, sp, #0	@,,
 1096              	.LCFI47:
 1097              		.cfi_def_cfa_register 7
 1098 0006 7860     		str	r0, [r7, #4]	@ pdev, pdev
 481:Middlewares/ST/STM32_USB_Device_Library/Core/usbd_core.cpp ****   if(pdev->dev_state == USBD_STATE_CONFIGURED)
 1099              		.loc 1 481 0
 1100 0008 7B68     		ldr	r3, [r7, #4]	@ tmp141, pdev
 1101 000a 93F8FC31 		ldrb	r3, [r3, #508]	@ zero_extendqisi2	@ D.7655, pdev_1(D)->dev_state
 1102 000e 032B     		cmp	r3, #3	@ D.7655,
 1103 0010 0BD1     		bne	.L58	@,
 482:Middlewares/ST/STM32_USB_Device_Library/Core/usbd_core.cpp ****   {
 483:Middlewares/ST/STM32_USB_Device_Library/Core/usbd_core.cpp ****     if(pdev->pClass->SOF != NULL)
 1104              		.loc 1 483 0
 1105 0012 7B68     		ldr	r3, [r7, #4]	@ tmp142, pdev
 1106 0014 D3F81432 		ldr	r3, [r3, #532]	@ D.7658, pdev_1(D)->pClass
 1107 0018 DB69     		ldr	r3, [r3, #28]	@ D.7659, D.7658_3->SOF
 1108 001a 002B     		cmp	r3, #0	@ D.7659,
 1109 001c 05D0     		beq	.L58	@,
 484:Middlewares/ST/STM32_USB_Device_Library/Core/usbd_core.cpp ****     {
 485:Middlewares/ST/STM32_USB_Device_Library/Core/usbd_core.cpp ****       pdev->pClass->SOF(pdev);
 1110              		.loc 1 485 0
 1111 001e 7B68     		ldr	r3, [r7, #4]	@ tmp143, pdev
ARM GAS  /tmp/cctHw1ny.s 			page 29


 1112 0020 D3F81432 		ldr	r3, [r3, #532]	@ D.7662, pdev_1(D)->pClass
 1113 0024 DB69     		ldr	r3, [r3, #28]	@ D.7663, D.7662_5->SOF
 1114 0026 7868     		ldr	r0, [r7, #4]	@, pdev
 1115 0028 9847     		blx	r3	@ D.7663
 1116              	.L58:
 486:Middlewares/ST/STM32_USB_Device_Library/Core/usbd_core.cpp ****     }
 487:Middlewares/ST/STM32_USB_Device_Library/Core/usbd_core.cpp ****   }
 488:Middlewares/ST/STM32_USB_Device_Library/Core/usbd_core.cpp ****   return USBD_OK;
 1117              		.loc 1 488 0
 1118 002a 4FF00003 		mov	r3, #0	@ D.7666,
 489:Middlewares/ST/STM32_USB_Device_Library/Core/usbd_core.cpp **** }
 1119              		.loc 1 489 0
 1120 002e 1846     		mov	r0, r3	@, <retval>
 1121 0030 07F10807 		add	r7, r7, #8	@,,
 1122 0034 BD46     		mov	sp, r7
 1123 0036 80BD     		pop	{r7, pc}
 1124              		.cfi_endproc
 1125              	.LFE71:
 1126              		.size	_Z11USBD_LL_SOFP19_USBD_HandleTypeDef, .-_Z11USBD_LL_SOFP19_USBD_HandleTypeDef
 1127              		.section	.text._Z23USBD_LL_IsoINIncompleteP19_USBD_HandleTypeDefh,"ax",%progbits
 1128              		.align	2
 1129              		.global	_Z23USBD_LL_IsoINIncompleteP19_USBD_HandleTypeDefh
 1130              		.thumb
 1131              		.thumb_func
 1132              		.type	_Z23USBD_LL_IsoINIncompleteP19_USBD_HandleTypeDefh, %function
 1133              	_Z23USBD_LL_IsoINIncompleteP19_USBD_HandleTypeDefh:
 1134              	.LFB72:
 490:Middlewares/ST/STM32_USB_Device_Library/Core/usbd_core.cpp **** 
 491:Middlewares/ST/STM32_USB_Device_Library/Core/usbd_core.cpp **** /**
 492:Middlewares/ST/STM32_USB_Device_Library/Core/usbd_core.cpp **** * @brief  USBD_IsoINIncomplete 
 493:Middlewares/ST/STM32_USB_Device_Library/Core/usbd_core.cpp **** *         Handle iso in incomplete event
 494:Middlewares/ST/STM32_USB_Device_Library/Core/usbd_core.cpp **** * @param  pdev: device instance
 495:Middlewares/ST/STM32_USB_Device_Library/Core/usbd_core.cpp **** * @retval status
 496:Middlewares/ST/STM32_USB_Device_Library/Core/usbd_core.cpp **** */
 497:Middlewares/ST/STM32_USB_Device_Library/Core/usbd_core.cpp **** USBD_StatusTypeDef USBD_LL_IsoINIncomplete(USBD_HandleTypeDef  *pdev, uint8_t epnum)
 498:Middlewares/ST/STM32_USB_Device_Library/Core/usbd_core.cpp **** {
 1135              		.loc 1 498 0
 1136              		.cfi_startproc
 1137              		@ args = 0, pretend = 0, frame = 8
 1138              		@ frame_needed = 1, uses_anonymous_args = 0
 1139              		@ link register save eliminated.
 1140 0000 80B4     		push	{r7}	@
 1141              	.LCFI48:
 1142              		.cfi_def_cfa_offset 4
 1143              		.cfi_offset 7, -4
 1144 0002 83B0     		sub	sp, sp, #12	@,,
 1145              	.LCFI49:
 1146              		.cfi_def_cfa_offset 16
 1147 0004 00AF     		add	r7, sp, #0	@,,
 1148              	.LCFI50:
 1149              		.cfi_def_cfa_register 7
 1150 0006 7860     		str	r0, [r7, #4]	@ pdev, pdev
 1151 0008 0B46     		mov	r3, r1	@ tmp136, epnum
 1152 000a FB70     		strb	r3, [r7, #3]	@ tmp137, epnum
 499:Middlewares/ST/STM32_USB_Device_Library/Core/usbd_core.cpp ****   return USBD_OK;
 1153              		.loc 1 499 0
 1154 000c 4FF00003 		mov	r3, #0	@ D.7653,
ARM GAS  /tmp/cctHw1ny.s 			page 30


 500:Middlewares/ST/STM32_USB_Device_Library/Core/usbd_core.cpp **** }
 1155              		.loc 1 500 0
 1156 0010 1846     		mov	r0, r3	@, <retval>
 1157 0012 07F10C07 		add	r7, r7, #12	@,,
 1158 0016 BD46     		mov	sp, r7
 1159 0018 80BC     		pop	{r7}
 1160 001a 7047     		bx	lr
 1161              		.cfi_endproc
 1162              	.LFE72:
 1163              		.size	_Z23USBD_LL_IsoINIncompleteP19_USBD_HandleTypeDefh, .-_Z23USBD_LL_IsoINIncompleteP19_USBD_Ha
 1164              		.section	.text._Z24USBD_LL_IsoOUTIncompleteP19_USBD_HandleTypeDefh,"ax",%progbits
 1165              		.align	2
 1166              		.global	_Z24USBD_LL_IsoOUTIncompleteP19_USBD_HandleTypeDefh
 1167              		.thumb
 1168              		.thumb_func
 1169              		.type	_Z24USBD_LL_IsoOUTIncompleteP19_USBD_HandleTypeDefh, %function
 1170              	_Z24USBD_LL_IsoOUTIncompleteP19_USBD_HandleTypeDefh:
 1171              	.LFB73:
 501:Middlewares/ST/STM32_USB_Device_Library/Core/usbd_core.cpp **** 
 502:Middlewares/ST/STM32_USB_Device_Library/Core/usbd_core.cpp **** /**
 503:Middlewares/ST/STM32_USB_Device_Library/Core/usbd_core.cpp **** * @brief  USBD_IsoOUTIncomplete 
 504:Middlewares/ST/STM32_USB_Device_Library/Core/usbd_core.cpp **** *         Handle iso out incomplete event
 505:Middlewares/ST/STM32_USB_Device_Library/Core/usbd_core.cpp **** * @param  pdev: device instance
 506:Middlewares/ST/STM32_USB_Device_Library/Core/usbd_core.cpp **** * @retval status
 507:Middlewares/ST/STM32_USB_Device_Library/Core/usbd_core.cpp **** */
 508:Middlewares/ST/STM32_USB_Device_Library/Core/usbd_core.cpp **** USBD_StatusTypeDef USBD_LL_IsoOUTIncomplete(USBD_HandleTypeDef  *pdev, uint8_t epnum)
 509:Middlewares/ST/STM32_USB_Device_Library/Core/usbd_core.cpp **** {
 1172              		.loc 1 509 0
 1173              		.cfi_startproc
 1174              		@ args = 0, pretend = 0, frame = 8
 1175              		@ frame_needed = 1, uses_anonymous_args = 0
 1176              		@ link register save eliminated.
 1177 0000 80B4     		push	{r7}	@
 1178              	.LCFI51:
 1179              		.cfi_def_cfa_offset 4
 1180              		.cfi_offset 7, -4
 1181 0002 83B0     		sub	sp, sp, #12	@,,
 1182              	.LCFI52:
 1183              		.cfi_def_cfa_offset 16
 1184 0004 00AF     		add	r7, sp, #0	@,,
 1185              	.LCFI53:
 1186              		.cfi_def_cfa_register 7
 1187 0006 7860     		str	r0, [r7, #4]	@ pdev, pdev
 1188 0008 0B46     		mov	r3, r1	@ tmp136, epnum
 1189 000a FB70     		strb	r3, [r7, #3]	@ tmp137, epnum
 510:Middlewares/ST/STM32_USB_Device_Library/Core/usbd_core.cpp ****   return USBD_OK;
 1190              		.loc 1 510 0
 1191 000c 4FF00003 		mov	r3, #0	@ D.7651,
 511:Middlewares/ST/STM32_USB_Device_Library/Core/usbd_core.cpp **** }
 1192              		.loc 1 511 0
 1193 0010 1846     		mov	r0, r3	@, <retval>
 1194 0012 07F10C07 		add	r7, r7, #12	@,,
 1195 0016 BD46     		mov	sp, r7
 1196 0018 80BC     		pop	{r7}
 1197 001a 7047     		bx	lr
 1198              		.cfi_endproc
 1199              	.LFE73:
ARM GAS  /tmp/cctHw1ny.s 			page 31


 1200              		.size	_Z24USBD_LL_IsoOUTIncompleteP19_USBD_HandleTypeDefh, .-_Z24USBD_LL_IsoOUTIncompleteP19_USBD_
 1201              		.section	.text._Z20USBD_LL_DevConnectedP19_USBD_HandleTypeDef,"ax",%progbits
 1202              		.align	2
 1203              		.global	_Z20USBD_LL_DevConnectedP19_USBD_HandleTypeDef
 1204              		.thumb
 1205              		.thumb_func
 1206              		.type	_Z20USBD_LL_DevConnectedP19_USBD_HandleTypeDef, %function
 1207              	_Z20USBD_LL_DevConnectedP19_USBD_HandleTypeDef:
 1208              	.LFB74:
 512:Middlewares/ST/STM32_USB_Device_Library/Core/usbd_core.cpp **** 
 513:Middlewares/ST/STM32_USB_Device_Library/Core/usbd_core.cpp **** /**
 514:Middlewares/ST/STM32_USB_Device_Library/Core/usbd_core.cpp **** * @brief  USBD_DevConnected 
 515:Middlewares/ST/STM32_USB_Device_Library/Core/usbd_core.cpp **** *         Handle device connection event
 516:Middlewares/ST/STM32_USB_Device_Library/Core/usbd_core.cpp **** * @param  pdev: device instance
 517:Middlewares/ST/STM32_USB_Device_Library/Core/usbd_core.cpp **** * @retval status
 518:Middlewares/ST/STM32_USB_Device_Library/Core/usbd_core.cpp **** */
 519:Middlewares/ST/STM32_USB_Device_Library/Core/usbd_core.cpp **** USBD_StatusTypeDef USBD_LL_DevConnected(USBD_HandleTypeDef  *pdev)
 520:Middlewares/ST/STM32_USB_Device_Library/Core/usbd_core.cpp **** {
 1209              		.loc 1 520 0
 1210              		.cfi_startproc
 1211              		@ args = 0, pretend = 0, frame = 8
 1212              		@ frame_needed = 1, uses_anonymous_args = 0
 1213              		@ link register save eliminated.
 1214 0000 80B4     		push	{r7}	@
 1215              	.LCFI54:
 1216              		.cfi_def_cfa_offset 4
 1217              		.cfi_offset 7, -4
 1218 0002 83B0     		sub	sp, sp, #12	@,,
 1219              	.LCFI55:
 1220              		.cfi_def_cfa_offset 16
 1221 0004 00AF     		add	r7, sp, #0	@,,
 1222              	.LCFI56:
 1223              		.cfi_def_cfa_register 7
 1224 0006 7860     		str	r0, [r7, #4]	@ pdev, pdev
 521:Middlewares/ST/STM32_USB_Device_Library/Core/usbd_core.cpp ****   return USBD_OK;
 1225              		.loc 1 521 0
 1226 0008 4FF00003 		mov	r3, #0	@ D.7649,
 522:Middlewares/ST/STM32_USB_Device_Library/Core/usbd_core.cpp **** }
 1227              		.loc 1 522 0
 1228 000c 1846     		mov	r0, r3	@, <retval>
 1229 000e 07F10C07 		add	r7, r7, #12	@,,
 1230 0012 BD46     		mov	sp, r7
 1231 0014 80BC     		pop	{r7}
 1232 0016 7047     		bx	lr
 1233              		.cfi_endproc
 1234              	.LFE74:
 1235              		.size	_Z20USBD_LL_DevConnectedP19_USBD_HandleTypeDef, .-_Z20USBD_LL_DevConnectedP19_USBD_HandleTyp
 1236              		.section	.text._Z23USBD_LL_DevDisconnectedP19_USBD_HandleTypeDef,"ax",%progbits
 1237              		.align	2
 1238              		.global	_Z23USBD_LL_DevDisconnectedP19_USBD_HandleTypeDef
 1239              		.thumb
 1240              		.thumb_func
 1241              		.type	_Z23USBD_LL_DevDisconnectedP19_USBD_HandleTypeDef, %function
 1242              	_Z23USBD_LL_DevDisconnectedP19_USBD_HandleTypeDef:
 1243              	.LFB75:
 523:Middlewares/ST/STM32_USB_Device_Library/Core/usbd_core.cpp **** 
 524:Middlewares/ST/STM32_USB_Device_Library/Core/usbd_core.cpp **** /**
ARM GAS  /tmp/cctHw1ny.s 			page 32


 525:Middlewares/ST/STM32_USB_Device_Library/Core/usbd_core.cpp **** * @brief  USBD_DevDisconnected 
 526:Middlewares/ST/STM32_USB_Device_Library/Core/usbd_core.cpp **** *         Handle device disconnection event
 527:Middlewares/ST/STM32_USB_Device_Library/Core/usbd_core.cpp **** * @param  pdev: device instance
 528:Middlewares/ST/STM32_USB_Device_Library/Core/usbd_core.cpp **** * @retval status
 529:Middlewares/ST/STM32_USB_Device_Library/Core/usbd_core.cpp **** */
 530:Middlewares/ST/STM32_USB_Device_Library/Core/usbd_core.cpp **** USBD_StatusTypeDef USBD_LL_DevDisconnected(USBD_HandleTypeDef  *pdev)
 531:Middlewares/ST/STM32_USB_Device_Library/Core/usbd_core.cpp **** {
 1244              		.loc 1 531 0
 1245              		.cfi_startproc
 1246              		@ args = 0, pretend = 0, frame = 8
 1247              		@ frame_needed = 1, uses_anonymous_args = 0
 1248 0000 80B5     		push	{r7, lr}	@
 1249              	.LCFI57:
 1250              		.cfi_def_cfa_offset 8
 1251              		.cfi_offset 7, -8
 1252              		.cfi_offset 14, -4
 1253 0002 82B0     		sub	sp, sp, #8	@,,
 1254              	.LCFI58:
 1255              		.cfi_def_cfa_offset 16
 1256 0004 00AF     		add	r7, sp, #0	@,,
 1257              	.LCFI59:
 1258              		.cfi_def_cfa_register 7
 1259 0006 7860     		str	r0, [r7, #4]	@ pdev, pdev
 532:Middlewares/ST/STM32_USB_Device_Library/Core/usbd_core.cpp ****   /* Free Class Resources */
 533:Middlewares/ST/STM32_USB_Device_Library/Core/usbd_core.cpp ****   pdev->dev_state = USBD_STATE_DEFAULT;
 1260              		.loc 1 533 0
 1261 0008 7B68     		ldr	r3, [r7, #4]	@ tmp140, pdev
 1262 000a 4FF00102 		mov	r2, #1	@ tmp141,
 1263 000e 83F8FC21 		strb	r2, [r3, #508]	@ tmp142, pdev_1(D)->dev_state
 534:Middlewares/ST/STM32_USB_Device_Library/Core/usbd_core.cpp ****   pdev->pClass->DeInit(pdev, pdev->dev_config);  
 1264              		.loc 1 534 0
 1265 0012 7B68     		ldr	r3, [r7, #4]	@ tmp143, pdev
 1266 0014 D3F81432 		ldr	r3, [r3, #532]	@ D.7643, pdev_1(D)->pClass
 1267 0018 5B68     		ldr	r3, [r3, #4]	@ D.7644, D.7643_2->DeInit
 1268 001a 7A68     		ldr	r2, [r7, #4]	@ tmp144, pdev
 1269 001c 5268     		ldr	r2, [r2, #4]	@ D.7645, pdev_1(D)->dev_config
 1270 001e D2B2     		uxtb	r2, r2	@ D.7646, D.7645
 1271 0020 7868     		ldr	r0, [r7, #4]	@, pdev
 1272 0022 1146     		mov	r1, r2	@, D.7646
 1273 0024 9847     		blx	r3	@ D.7644
 535:Middlewares/ST/STM32_USB_Device_Library/Core/usbd_core.cpp ****    
 536:Middlewares/ST/STM32_USB_Device_Library/Core/usbd_core.cpp ****   return USBD_OK;
 1274              		.loc 1 536 0
 1275 0026 4FF00003 		mov	r3, #0	@ D.7647,
 537:Middlewares/ST/STM32_USB_Device_Library/Core/usbd_core.cpp **** }
 1276              		.loc 1 537 0
 1277 002a 1846     		mov	r0, r3	@, <retval>
 1278 002c 07F10807 		add	r7, r7, #8	@,,
 1279 0030 BD46     		mov	sp, r7
 1280 0032 80BD     		pop	{r7, pc}
 1281              		.cfi_endproc
 1282              	.LFE75:
 1283              		.size	_Z23USBD_LL_DevDisconnectedP19_USBD_HandleTypeDef, .-_Z23USBD_LL_DevDisconnectedP19_USBD_Han
 1284              		.text
 1285              	.Letext0:
 1286              		.file 2 "/home/maciek/gcc-arm-none-eabi/gcc-arm-none-eabi-4_7-2013q1/bin/../lib/gcc/arm-none-eabi/
 1287              		.file 3 "Middlewares/ST/STM32_USB_Device_Library/Core/usbd_def.h"
ARM GAS  /tmp/cctHw1ny.s 			page 33


 1288              		.file 4 "Drivers/CMSIS/Include/core_cm3.h"