ARM GAS  /tmp/ccImnKuM.s 			page 1


   1              		.syntax unified
   2              		.cpu cortex-m3
   3              		.fpu softvfp
   4              		.eabi_attribute 20, 1	@ Tag_ABI_FP_denormal
   5              		.eabi_attribute 21, 1	@ Tag_ABI_FP_exceptions
   6              		.eabi_attribute 23, 3	@ Tag_ABI_FP_number_model
   7              		.eabi_attribute 24, 1	@ Tag_ABI_align8_needed
   8              		.eabi_attribute 25, 1	@ Tag_ABI_align8_preserved
   9              		.eabi_attribute 26, 1	@ Tag_ABI_enum_size
  10              		.eabi_attribute 30, 6	@ Tag_ABI_optimization_goals
  11              		.eabi_attribute 34, 1	@ Tag_CPU_unaligned_access
  12              		.eabi_attribute 18, 4	@ Tag_ABI_PCS_wchar_t
  13              		.file	"usbd_ctlreq.cpp"
  14              	@ GNU C++ (GNU Tools for ARM Embedded Processors) version 4.7.3 20130312 (release) [ARM/embedded-4_
  15              	@	compiled by GNU C version 4.3.6, GMP version 4.3.2, MPFR version 2.4.2, MPC version 0.8.1
  16              	@ GGC heuristics: --param ggc-min-expand=100 --param ggc-min-heapsize=131072
  17              	@ options passed:  -I . -I Src -I hdr -I Inc -I Middlewares
  18              	@ -I Middlewares/ST -I Middlewares/ST/STM32_USB_Device_Library/Class/CDC
  19              	@ -I Middlewares/ST/STM32_USB_Device_Library/Core -I Drivers
  20              	@ -I Drivers/CMSIS -I Drivers/CMSIS/Device/ST/STM32L1xx
  21              	@ -I Drivers/CMSIS/Include -I Drivers/STM32L1xx_HAL_Driver
  22              	@ -imultilib armv7-m
  23              	@ -iprefix /home/maciek/gcc-arm-none-eabi/gcc-arm-none-eabi-4_7-2013q1/bin/../lib/gcc/arm-none-eabi
  24              	@ -isysroot /home/maciek/gcc-arm-none-eabi/gcc-arm-none-eabi-4_7-2013q1/bin/../arm-none-eabi
  25              	@ -MD out/usbd_ctlreq.d -MF out/usbd_ctlreq.d -MP -MQ out/usbd_ctlreq.o
  26              	@ -D__USES_INITFINI__ -D STM32L1XX_MD
  27              	@ Middlewares/ST/STM32_USB_Device_Library/Core/usbd_ctlreq.cpp
  28              	@ -mcpu=cortex-m3 -mthumb -auxbase-strip out/usbd_ctlreq.o -g -ggdb3 -O0
  29              	@ -Wall -Wextra -std=gnu++11 -ffunction-sections -fdata-sections -fno-rtti
  30              	@ -fno-exceptions -fverbose-asm
  31              	@ options enabled:  -fauto-inc-dec -fbranch-count-reg -fcommon
  32              	@ -fdata-sections -fdebug-types-section -fdelete-null-pointer-checks
  33              	@ -fdwarf2-cfi-asm -fearly-inlining -feliminate-unused-debug-types
  34              	@ -ffunction-cse -ffunction-sections -fgcse-lm -fgnu-runtime -fident
  35              	@ -finline-atomics -fira-share-save-slots -fira-share-spill-slots -fivopts
  36              	@ -fkeep-static-consts -fleading-underscore -fmath-errno
  37              	@ -fmerge-debug-strings -fmove-loop-invariants -fpeephole
  38              	@ -fprefetch-loop-arrays -freg-struct-return
  39              	@ -fsched-critical-path-heuristic -fsched-dep-count-heuristic
  40              	@ -fsched-group-heuristic -fsched-interblock -fsched-last-insn-heuristic
  41              	@ -fsched-rank-heuristic -fsched-spec -fsched-spec-insn-heuristic
  42              	@ -fsched-stalled-insns-dep -fshow-column -fsigned-zeros
  43              	@ -fsplit-ivs-in-unroller -fstrict-volatile-bitfields -ftrapping-math
  44              	@ -ftree-cselim -ftree-forwprop -ftree-loop-if-convert -ftree-loop-im
  45              	@ -ftree-loop-ivcanon -ftree-loop-optimize -ftree-parallelize-loops=
  46              	@ -ftree-phiprop -ftree-pta -ftree-reassoc -ftree-scev-cprop
  47              	@ -ftree-slp-vectorize -ftree-vect-loop-version -funit-at-a-time
  48              	@ -fverbose-asm -fzero-initialized-in-bss -mfix-cortex-m3-ldrd
  49              	@ -mlittle-endian -msched-prolog -mthumb -munaligned-access
  50              	@ -mvectorize-with-neon-quad
  51              	
  52              		.text
  53              	.Ltext0:
  54              		.cfi_sections	.debug_frame
  55              		.section	.text._Z14USBD_StdDevReqP19_USBD_HandleTypeDefP13usb_setup_req,"ax",%progbits
  56              		.align	2
  57              		.global	_Z14USBD_StdDevReqP19_USBD_HandleTypeDefP13usb_setup_req
ARM GAS  /tmp/ccImnKuM.s 			page 2


  58              		.thumb
  59              		.thumb_func
  60              		.type	_Z14USBD_StdDevReqP19_USBD_HandleTypeDefP13usb_setup_req, %function
  61              	_Z14USBD_StdDevReqP19_USBD_HandleTypeDefP13usb_setup_req:
  62              	.LFB56:
  63              		.file 1 "Middlewares/ST/STM32_USB_Device_Library/Core/usbd_ctlreq.cpp"
   1:Middlewares/ST/STM32_USB_Device_Library/Core/usbd_ctlreq.cpp **** /**
   2:Middlewares/ST/STM32_USB_Device_Library/Core/usbd_ctlreq.cpp ****   ******************************************************************************
   3:Middlewares/ST/STM32_USB_Device_Library/Core/usbd_ctlreq.cpp ****   * @file    usbd_req.c
   4:Middlewares/ST/STM32_USB_Device_Library/Core/usbd_ctlreq.cpp ****   * @author  MCD Application Team
   5:Middlewares/ST/STM32_USB_Device_Library/Core/usbd_ctlreq.cpp ****   * @version V2.2.0
   6:Middlewares/ST/STM32_USB_Device_Library/Core/usbd_ctlreq.cpp ****   * @date    13-June-2014 
   7:Middlewares/ST/STM32_USB_Device_Library/Core/usbd_ctlreq.cpp ****   * @brief   This file provides the standard USB requests following chapter 9.
   8:Middlewares/ST/STM32_USB_Device_Library/Core/usbd_ctlreq.cpp ****   ******************************************************************************
   9:Middlewares/ST/STM32_USB_Device_Library/Core/usbd_ctlreq.cpp ****   * @attention
  10:Middlewares/ST/STM32_USB_Device_Library/Core/usbd_ctlreq.cpp ****   *
  11:Middlewares/ST/STM32_USB_Device_Library/Core/usbd_ctlreq.cpp ****   * <h2><center>&copy; COPYRIGHT 2014 STMicroelectronics</center></h2>
  12:Middlewares/ST/STM32_USB_Device_Library/Core/usbd_ctlreq.cpp ****   *
  13:Middlewares/ST/STM32_USB_Device_Library/Core/usbd_ctlreq.cpp ****   * Licensed under MCD-ST Liberty SW License Agreement V2, (the "License");
  14:Middlewares/ST/STM32_USB_Device_Library/Core/usbd_ctlreq.cpp ****   * You may not use this file except in compliance with the License.
  15:Middlewares/ST/STM32_USB_Device_Library/Core/usbd_ctlreq.cpp ****   * You may obtain a copy of the License at:
  16:Middlewares/ST/STM32_USB_Device_Library/Core/usbd_ctlreq.cpp ****   *
  17:Middlewares/ST/STM32_USB_Device_Library/Core/usbd_ctlreq.cpp ****   *        http://www.st.com/software_license_agreement_liberty_v2
  18:Middlewares/ST/STM32_USB_Device_Library/Core/usbd_ctlreq.cpp ****   *
  19:Middlewares/ST/STM32_USB_Device_Library/Core/usbd_ctlreq.cpp ****   * Unless required by applicable law or agreed to in writing, software 
  20:Middlewares/ST/STM32_USB_Device_Library/Core/usbd_ctlreq.cpp ****   * distributed under the License is distributed on an "AS IS" BASIS, 
  21:Middlewares/ST/STM32_USB_Device_Library/Core/usbd_ctlreq.cpp ****   * WITHOUT WARRANTIES OR CONDITIONS OF ANY KIND, either express or implied.
  22:Middlewares/ST/STM32_USB_Device_Library/Core/usbd_ctlreq.cpp ****   * See the License for the specific language governing permissions and
  23:Middlewares/ST/STM32_USB_Device_Library/Core/usbd_ctlreq.cpp ****   * limitations under the License.
  24:Middlewares/ST/STM32_USB_Device_Library/Core/usbd_ctlreq.cpp ****   *
  25:Middlewares/ST/STM32_USB_Device_Library/Core/usbd_ctlreq.cpp ****   ******************************************************************************
  26:Middlewares/ST/STM32_USB_Device_Library/Core/usbd_ctlreq.cpp ****   */ 
  27:Middlewares/ST/STM32_USB_Device_Library/Core/usbd_ctlreq.cpp **** 
  28:Middlewares/ST/STM32_USB_Device_Library/Core/usbd_ctlreq.cpp **** /* Includes ------------------------------------------------------------------*/
  29:Middlewares/ST/STM32_USB_Device_Library/Core/usbd_ctlreq.cpp **** #include "usbd_ctlreq.h"
  30:Middlewares/ST/STM32_USB_Device_Library/Core/usbd_ctlreq.cpp **** #include "usbd_ioreq.h"
  31:Middlewares/ST/STM32_USB_Device_Library/Core/usbd_ctlreq.cpp **** 
  32:Middlewares/ST/STM32_USB_Device_Library/Core/usbd_ctlreq.cpp **** 
  33:Middlewares/ST/STM32_USB_Device_Library/Core/usbd_ctlreq.cpp **** /** @addtogroup STM32_USBD_STATE_DEVICE_LIBRARY
  34:Middlewares/ST/STM32_USB_Device_Library/Core/usbd_ctlreq.cpp ****   * @{
  35:Middlewares/ST/STM32_USB_Device_Library/Core/usbd_ctlreq.cpp ****   */
  36:Middlewares/ST/STM32_USB_Device_Library/Core/usbd_ctlreq.cpp **** 
  37:Middlewares/ST/STM32_USB_Device_Library/Core/usbd_ctlreq.cpp **** 
  38:Middlewares/ST/STM32_USB_Device_Library/Core/usbd_ctlreq.cpp **** /** @defgroup USBD_REQ 
  39:Middlewares/ST/STM32_USB_Device_Library/Core/usbd_ctlreq.cpp ****   * @brief USB standard requests module
  40:Middlewares/ST/STM32_USB_Device_Library/Core/usbd_ctlreq.cpp ****   * @{
  41:Middlewares/ST/STM32_USB_Device_Library/Core/usbd_ctlreq.cpp ****   */ 
  42:Middlewares/ST/STM32_USB_Device_Library/Core/usbd_ctlreq.cpp **** 
  43:Middlewares/ST/STM32_USB_Device_Library/Core/usbd_ctlreq.cpp **** /** @defgroup USBD_REQ_Private_TypesDefinitions
  44:Middlewares/ST/STM32_USB_Device_Library/Core/usbd_ctlreq.cpp ****   * @{
  45:Middlewares/ST/STM32_USB_Device_Library/Core/usbd_ctlreq.cpp ****   */ 
  46:Middlewares/ST/STM32_USB_Device_Library/Core/usbd_ctlreq.cpp **** /**
  47:Middlewares/ST/STM32_USB_Device_Library/Core/usbd_ctlreq.cpp ****   * @}
  48:Middlewares/ST/STM32_USB_Device_Library/Core/usbd_ctlreq.cpp ****   */ 
  49:Middlewares/ST/STM32_USB_Device_Library/Core/usbd_ctlreq.cpp **** 
  50:Middlewares/ST/STM32_USB_Device_Library/Core/usbd_ctlreq.cpp **** 
  51:Middlewares/ST/STM32_USB_Device_Library/Core/usbd_ctlreq.cpp **** /** @defgroup USBD_REQ_Private_Defines
ARM GAS  /tmp/ccImnKuM.s 			page 3


  52:Middlewares/ST/STM32_USB_Device_Library/Core/usbd_ctlreq.cpp ****   * @{
  53:Middlewares/ST/STM32_USB_Device_Library/Core/usbd_ctlreq.cpp ****   */ 
  54:Middlewares/ST/STM32_USB_Device_Library/Core/usbd_ctlreq.cpp **** 
  55:Middlewares/ST/STM32_USB_Device_Library/Core/usbd_ctlreq.cpp **** /**
  56:Middlewares/ST/STM32_USB_Device_Library/Core/usbd_ctlreq.cpp ****   * @}
  57:Middlewares/ST/STM32_USB_Device_Library/Core/usbd_ctlreq.cpp ****   */ 
  58:Middlewares/ST/STM32_USB_Device_Library/Core/usbd_ctlreq.cpp **** 
  59:Middlewares/ST/STM32_USB_Device_Library/Core/usbd_ctlreq.cpp **** 
  60:Middlewares/ST/STM32_USB_Device_Library/Core/usbd_ctlreq.cpp **** /** @defgroup USBD_REQ_Private_Macros
  61:Middlewares/ST/STM32_USB_Device_Library/Core/usbd_ctlreq.cpp ****   * @{
  62:Middlewares/ST/STM32_USB_Device_Library/Core/usbd_ctlreq.cpp ****   */ 
  63:Middlewares/ST/STM32_USB_Device_Library/Core/usbd_ctlreq.cpp **** /**
  64:Middlewares/ST/STM32_USB_Device_Library/Core/usbd_ctlreq.cpp ****   * @}
  65:Middlewares/ST/STM32_USB_Device_Library/Core/usbd_ctlreq.cpp ****   */ 
  66:Middlewares/ST/STM32_USB_Device_Library/Core/usbd_ctlreq.cpp **** 
  67:Middlewares/ST/STM32_USB_Device_Library/Core/usbd_ctlreq.cpp **** 
  68:Middlewares/ST/STM32_USB_Device_Library/Core/usbd_ctlreq.cpp **** /** @defgroup USBD_REQ_Private_Variables
  69:Middlewares/ST/STM32_USB_Device_Library/Core/usbd_ctlreq.cpp ****   * @{
  70:Middlewares/ST/STM32_USB_Device_Library/Core/usbd_ctlreq.cpp ****   */ 
  71:Middlewares/ST/STM32_USB_Device_Library/Core/usbd_ctlreq.cpp **** /**
  72:Middlewares/ST/STM32_USB_Device_Library/Core/usbd_ctlreq.cpp ****   * @}
  73:Middlewares/ST/STM32_USB_Device_Library/Core/usbd_ctlreq.cpp ****   */ 
  74:Middlewares/ST/STM32_USB_Device_Library/Core/usbd_ctlreq.cpp **** 
  75:Middlewares/ST/STM32_USB_Device_Library/Core/usbd_ctlreq.cpp **** 
  76:Middlewares/ST/STM32_USB_Device_Library/Core/usbd_ctlreq.cpp **** /** @defgroup USBD_REQ_Private_FunctionPrototypes
  77:Middlewares/ST/STM32_USB_Device_Library/Core/usbd_ctlreq.cpp ****   * @{
  78:Middlewares/ST/STM32_USB_Device_Library/Core/usbd_ctlreq.cpp ****   */ 
  79:Middlewares/ST/STM32_USB_Device_Library/Core/usbd_ctlreq.cpp **** static void USBD_GetDescriptor(USBD_HandleTypeDef *pdev , 
  80:Middlewares/ST/STM32_USB_Device_Library/Core/usbd_ctlreq.cpp ****                                USBD_SetupReqTypedef *req);
  81:Middlewares/ST/STM32_USB_Device_Library/Core/usbd_ctlreq.cpp **** 
  82:Middlewares/ST/STM32_USB_Device_Library/Core/usbd_ctlreq.cpp **** static void USBD_SetAddress(USBD_HandleTypeDef *pdev , 
  83:Middlewares/ST/STM32_USB_Device_Library/Core/usbd_ctlreq.cpp ****                             USBD_SetupReqTypedef *req);
  84:Middlewares/ST/STM32_USB_Device_Library/Core/usbd_ctlreq.cpp **** 
  85:Middlewares/ST/STM32_USB_Device_Library/Core/usbd_ctlreq.cpp **** static void USBD_SetConfig(USBD_HandleTypeDef *pdev , 
  86:Middlewares/ST/STM32_USB_Device_Library/Core/usbd_ctlreq.cpp ****                            USBD_SetupReqTypedef *req);
  87:Middlewares/ST/STM32_USB_Device_Library/Core/usbd_ctlreq.cpp **** 
  88:Middlewares/ST/STM32_USB_Device_Library/Core/usbd_ctlreq.cpp **** static void USBD_GetConfig(USBD_HandleTypeDef *pdev , 
  89:Middlewares/ST/STM32_USB_Device_Library/Core/usbd_ctlreq.cpp ****                            USBD_SetupReqTypedef *req);
  90:Middlewares/ST/STM32_USB_Device_Library/Core/usbd_ctlreq.cpp **** 
  91:Middlewares/ST/STM32_USB_Device_Library/Core/usbd_ctlreq.cpp **** static void USBD_GetStatus(USBD_HandleTypeDef *pdev , 
  92:Middlewares/ST/STM32_USB_Device_Library/Core/usbd_ctlreq.cpp ****                            USBD_SetupReqTypedef *req);
  93:Middlewares/ST/STM32_USB_Device_Library/Core/usbd_ctlreq.cpp **** 
  94:Middlewares/ST/STM32_USB_Device_Library/Core/usbd_ctlreq.cpp **** static void USBD_SetFeature(USBD_HandleTypeDef *pdev , 
  95:Middlewares/ST/STM32_USB_Device_Library/Core/usbd_ctlreq.cpp ****                             USBD_SetupReqTypedef *req);
  96:Middlewares/ST/STM32_USB_Device_Library/Core/usbd_ctlreq.cpp **** 
  97:Middlewares/ST/STM32_USB_Device_Library/Core/usbd_ctlreq.cpp **** static void USBD_ClrFeature(USBD_HandleTypeDef *pdev , 
  98:Middlewares/ST/STM32_USB_Device_Library/Core/usbd_ctlreq.cpp ****                             USBD_SetupReqTypedef *req);
  99:Middlewares/ST/STM32_USB_Device_Library/Core/usbd_ctlreq.cpp **** 
 100:Middlewares/ST/STM32_USB_Device_Library/Core/usbd_ctlreq.cpp **** static uint8_t USBD_GetLen(uint8_t *buf);
 101:Middlewares/ST/STM32_USB_Device_Library/Core/usbd_ctlreq.cpp **** 
 102:Middlewares/ST/STM32_USB_Device_Library/Core/usbd_ctlreq.cpp **** /**
 103:Middlewares/ST/STM32_USB_Device_Library/Core/usbd_ctlreq.cpp ****   * @}
 104:Middlewares/ST/STM32_USB_Device_Library/Core/usbd_ctlreq.cpp ****   */ 
 105:Middlewares/ST/STM32_USB_Device_Library/Core/usbd_ctlreq.cpp **** 
 106:Middlewares/ST/STM32_USB_Device_Library/Core/usbd_ctlreq.cpp **** 
 107:Middlewares/ST/STM32_USB_Device_Library/Core/usbd_ctlreq.cpp **** /** @defgroup USBD_REQ_Private_Functions
 108:Middlewares/ST/STM32_USB_Device_Library/Core/usbd_ctlreq.cpp ****   * @{
ARM GAS  /tmp/ccImnKuM.s 			page 4


 109:Middlewares/ST/STM32_USB_Device_Library/Core/usbd_ctlreq.cpp ****   */ 
 110:Middlewares/ST/STM32_USB_Device_Library/Core/usbd_ctlreq.cpp **** 
 111:Middlewares/ST/STM32_USB_Device_Library/Core/usbd_ctlreq.cpp **** 
 112:Middlewares/ST/STM32_USB_Device_Library/Core/usbd_ctlreq.cpp **** /**
 113:Middlewares/ST/STM32_USB_Device_Library/Core/usbd_ctlreq.cpp **** * @brief  USBD_StdDevReq
 114:Middlewares/ST/STM32_USB_Device_Library/Core/usbd_ctlreq.cpp **** *         Handle standard usb device requests
 115:Middlewares/ST/STM32_USB_Device_Library/Core/usbd_ctlreq.cpp **** * @param  pdev: device instance
 116:Middlewares/ST/STM32_USB_Device_Library/Core/usbd_ctlreq.cpp **** * @param  req: usb request
 117:Middlewares/ST/STM32_USB_Device_Library/Core/usbd_ctlreq.cpp **** * @retval status
 118:Middlewares/ST/STM32_USB_Device_Library/Core/usbd_ctlreq.cpp **** */
 119:Middlewares/ST/STM32_USB_Device_Library/Core/usbd_ctlreq.cpp **** USBD_StatusTypeDef  USBD_StdDevReq (USBD_HandleTypeDef *pdev , USBD_SetupReqTypedef  *req)
 120:Middlewares/ST/STM32_USB_Device_Library/Core/usbd_ctlreq.cpp **** {
  64              		.loc 1 120 0
  65              		.cfi_startproc
  66              		@ args = 0, pretend = 0, frame = 16
  67              		@ frame_needed = 1, uses_anonymous_args = 0
  68 0000 80B5     		push	{r7, lr}	@
  69              	.LCFI0:
  70              		.cfi_def_cfa_offset 8
  71              		.cfi_offset 7, -8
  72              		.cfi_offset 14, -4
  73 0002 84B0     		sub	sp, sp, #16	@,,
  74              	.LCFI1:
  75              		.cfi_def_cfa_offset 24
  76 0004 00AF     		add	r7, sp, #0	@,,
  77              	.LCFI2:
  78              		.cfi_def_cfa_register 7
  79 0006 7860     		str	r0, [r7, #4]	@ pdev, pdev
  80 0008 3960     		str	r1, [r7, #0]	@ req, req
  81              	.LBB2:
 121:Middlewares/ST/STM32_USB_Device_Library/Core/usbd_ctlreq.cpp ****   USBD_StatusTypeDef ret = USBD_OK;  
  82              		.loc 1 121 0
  83 000a 4FF00003 		mov	r3, #0	@ tmp138,
  84 000e FB73     		strb	r3, [r7, #15]	@ tmp139, ret
 122:Middlewares/ST/STM32_USB_Device_Library/Core/usbd_ctlreq.cpp ****   
 123:Middlewares/ST/STM32_USB_Device_Library/Core/usbd_ctlreq.cpp ****   switch (req->bRequest) 
  85              		.loc 1 123 0
  86 0010 3B68     		ldr	r3, [r7, #0]	@ tmp140, req
  87 0012 5B78     		ldrb	r3, [r3, #1]	@ zero_extendqisi2	@ D.8002, req_2(D)->bRequest
  88 0014 092B     		cmp	r3, #9	@ D.8003,
  89 0016 3AD8     		bhi	.L2	@
  90 0018 01A2     		adr	r2, .L10	@,
  91 001a 52F823F0 		ldr	pc, [r2, r3, lsl #2]	@, D.8003
  92 001e 00BF     		.align	2
  93              	.L10:
  94 0020 71000000 		.word	.L3+1
  95 0024 85000000 		.word	.L4+1
  96 0028 8F000000 		.word	.L2+1
  97 002c 7B000000 		.word	.L5+1
  98 0030 8F000000 		.word	.L2+1
  99 0034 53000000 		.word	.L6+1
 100 0038 49000000 		.word	.L7+1
 101 003c 8F000000 		.word	.L2+1
 102 0040 67000000 		.word	.L8+1
 103 0044 5D000000 		.word	.L9+1
 104              	.L7:
 124:Middlewares/ST/STM32_USB_Device_Library/Core/usbd_ctlreq.cpp ****   {
ARM GAS  /tmp/ccImnKuM.s 			page 5


 125:Middlewares/ST/STM32_USB_Device_Library/Core/usbd_ctlreq.cpp ****   case USB_REQ_GET_DESCRIPTOR: 
 126:Middlewares/ST/STM32_USB_Device_Library/Core/usbd_ctlreq.cpp ****     
 127:Middlewares/ST/STM32_USB_Device_Library/Core/usbd_ctlreq.cpp ****     USBD_GetDescriptor (pdev, req) ;
 105              		.loc 1 127 0
 106 0048 7868     		ldr	r0, [r7, #4]	@, pdev
 107 004a 3968     		ldr	r1, [r7, #0]	@, req
 108 004c FFF7FEFF 		bl	_ZL18USBD_GetDescriptorP19_USBD_HandleTypeDefP13usb_setup_req	@
 128:Middlewares/ST/STM32_USB_Device_Library/Core/usbd_ctlreq.cpp ****     break;
 109              		.loc 1 128 0
 110 0050 22E0     		b	.L11	@
 111              	.L6:
 129:Middlewares/ST/STM32_USB_Device_Library/Core/usbd_ctlreq.cpp ****     
 130:Middlewares/ST/STM32_USB_Device_Library/Core/usbd_ctlreq.cpp ****   case USB_REQ_SET_ADDRESS:                      
 131:Middlewares/ST/STM32_USB_Device_Library/Core/usbd_ctlreq.cpp ****     USBD_SetAddress(pdev, req);
 112              		.loc 1 131 0
 113 0052 7868     		ldr	r0, [r7, #4]	@, pdev
 114 0054 3968     		ldr	r1, [r7, #0]	@, req
 115 0056 FFF7FEFF 		bl	_ZL15USBD_SetAddressP19_USBD_HandleTypeDefP13usb_setup_req	@
 132:Middlewares/ST/STM32_USB_Device_Library/Core/usbd_ctlreq.cpp ****     break;
 116              		.loc 1 132 0
 117 005a 1DE0     		b	.L11	@
 118              	.L9:
 133:Middlewares/ST/STM32_USB_Device_Library/Core/usbd_ctlreq.cpp ****     
 134:Middlewares/ST/STM32_USB_Device_Library/Core/usbd_ctlreq.cpp ****   case USB_REQ_SET_CONFIGURATION:                    
 135:Middlewares/ST/STM32_USB_Device_Library/Core/usbd_ctlreq.cpp ****     USBD_SetConfig (pdev , req);
 119              		.loc 1 135 0
 120 005c 7868     		ldr	r0, [r7, #4]	@, pdev
 121 005e 3968     		ldr	r1, [r7, #0]	@, req
 122 0060 FFF7FEFF 		bl	_ZL14USBD_SetConfigP19_USBD_HandleTypeDefP13usb_setup_req	@
 136:Middlewares/ST/STM32_USB_Device_Library/Core/usbd_ctlreq.cpp ****     break;
 123              		.loc 1 136 0
 124 0064 18E0     		b	.L11	@
 125              	.L8:
 137:Middlewares/ST/STM32_USB_Device_Library/Core/usbd_ctlreq.cpp ****     
 138:Middlewares/ST/STM32_USB_Device_Library/Core/usbd_ctlreq.cpp ****   case USB_REQ_GET_CONFIGURATION:                 
 139:Middlewares/ST/STM32_USB_Device_Library/Core/usbd_ctlreq.cpp ****     USBD_GetConfig (pdev , req);
 126              		.loc 1 139 0
 127 0066 7868     		ldr	r0, [r7, #4]	@, pdev
 128 0068 3968     		ldr	r1, [r7, #0]	@, req
 129 006a FFF7FEFF 		bl	_ZL14USBD_GetConfigP19_USBD_HandleTypeDefP13usb_setup_req	@
 140:Middlewares/ST/STM32_USB_Device_Library/Core/usbd_ctlreq.cpp ****     break;
 130              		.loc 1 140 0
 131 006e 13E0     		b	.L11	@
 132              	.L3:
 141:Middlewares/ST/STM32_USB_Device_Library/Core/usbd_ctlreq.cpp ****     
 142:Middlewares/ST/STM32_USB_Device_Library/Core/usbd_ctlreq.cpp ****   case USB_REQ_GET_STATUS:                                  
 143:Middlewares/ST/STM32_USB_Device_Library/Core/usbd_ctlreq.cpp ****     USBD_GetStatus (pdev , req);
 133              		.loc 1 143 0
 134 0070 7868     		ldr	r0, [r7, #4]	@, pdev
 135 0072 3968     		ldr	r1, [r7, #0]	@, req
 136 0074 FFF7FEFF 		bl	_ZL14USBD_GetStatusP19_USBD_HandleTypeDefP13usb_setup_req	@
 144:Middlewares/ST/STM32_USB_Device_Library/Core/usbd_ctlreq.cpp ****     break;
 137              		.loc 1 144 0
 138 0078 0EE0     		b	.L11	@
 139              	.L5:
 145:Middlewares/ST/STM32_USB_Device_Library/Core/usbd_ctlreq.cpp ****     
 146:Middlewares/ST/STM32_USB_Device_Library/Core/usbd_ctlreq.cpp ****     
ARM GAS  /tmp/ccImnKuM.s 			page 6


 147:Middlewares/ST/STM32_USB_Device_Library/Core/usbd_ctlreq.cpp ****   case USB_REQ_SET_FEATURE:   
 148:Middlewares/ST/STM32_USB_Device_Library/Core/usbd_ctlreq.cpp ****     USBD_SetFeature (pdev , req);    
 140              		.loc 1 148 0
 141 007a 7868     		ldr	r0, [r7, #4]	@, pdev
 142 007c 3968     		ldr	r1, [r7, #0]	@, req
 143 007e FFF7FEFF 		bl	_ZL15USBD_SetFeatureP19_USBD_HandleTypeDefP13usb_setup_req	@
 149:Middlewares/ST/STM32_USB_Device_Library/Core/usbd_ctlreq.cpp ****     break;
 144              		.loc 1 149 0
 145 0082 09E0     		b	.L11	@
 146              	.L4:
 150:Middlewares/ST/STM32_USB_Device_Library/Core/usbd_ctlreq.cpp ****     
 151:Middlewares/ST/STM32_USB_Device_Library/Core/usbd_ctlreq.cpp ****   case USB_REQ_CLEAR_FEATURE:                                   
 152:Middlewares/ST/STM32_USB_Device_Library/Core/usbd_ctlreq.cpp ****     USBD_ClrFeature (pdev , req);
 147              		.loc 1 152 0
 148 0084 7868     		ldr	r0, [r7, #4]	@, pdev
 149 0086 3968     		ldr	r1, [r7, #0]	@, req
 150 0088 FFF7FEFF 		bl	_ZL15USBD_ClrFeatureP19_USBD_HandleTypeDefP13usb_setup_req	@
 153:Middlewares/ST/STM32_USB_Device_Library/Core/usbd_ctlreq.cpp ****     break;
 151              		.loc 1 153 0
 152 008c 04E0     		b	.L11	@
 153              	.L2:
 154:Middlewares/ST/STM32_USB_Device_Library/Core/usbd_ctlreq.cpp ****     
 155:Middlewares/ST/STM32_USB_Device_Library/Core/usbd_ctlreq.cpp ****   default:  
 156:Middlewares/ST/STM32_USB_Device_Library/Core/usbd_ctlreq.cpp ****     USBD_CtlError(pdev , req);
 154              		.loc 1 156 0
 155 008e 7868     		ldr	r0, [r7, #4]	@, pdev
 156 0090 3968     		ldr	r1, [r7, #0]	@, req
 157 0092 FFF7FEFF 		bl	_Z13USBD_CtlErrorP19_USBD_HandleTypeDefP13usb_setup_req	@
 157:Middlewares/ST/STM32_USB_Device_Library/Core/usbd_ctlreq.cpp ****     break;
 158              		.loc 1 157 0
 159 0096 00BF     		nop
 160              	.L11:
 158:Middlewares/ST/STM32_USB_Device_Library/Core/usbd_ctlreq.cpp ****   }
 159:Middlewares/ST/STM32_USB_Device_Library/Core/usbd_ctlreq.cpp ****   
 160:Middlewares/ST/STM32_USB_Device_Library/Core/usbd_ctlreq.cpp ****   return ret;
 161              		.loc 1 160 0
 162 0098 FB7B     		ldrb	r3, [r7, #15]	@ zero_extendqisi2	@ D.8004, ret
 163              	.LBE2:
 161:Middlewares/ST/STM32_USB_Device_Library/Core/usbd_ctlreq.cpp **** }
 164              		.loc 1 161 0
 165 009a 1846     		mov	r0, r3	@, <retval>
 166 009c 07F11007 		add	r7, r7, #16	@,,
 167 00a0 BD46     		mov	sp, r7
 168 00a2 80BD     		pop	{r7, pc}
 169              		.cfi_endproc
 170              	.LFE56:
 171              		.size	_Z14USBD_StdDevReqP19_USBD_HandleTypeDefP13usb_setup_req, .-_Z14USBD_StdDevReqP19_USBD_Handl
 172              		.section	.text._Z14USBD_StdItfReqP19_USBD_HandleTypeDefP13usb_setup_req,"ax",%progbits
 173              		.align	2
 174              		.global	_Z14USBD_StdItfReqP19_USBD_HandleTypeDefP13usb_setup_req
 175              		.thumb
 176              		.thumb_func
 177              		.type	_Z14USBD_StdItfReqP19_USBD_HandleTypeDefP13usb_setup_req, %function
 178              	_Z14USBD_StdItfReqP19_USBD_HandleTypeDefP13usb_setup_req:
 179              	.LFB57:
 162:Middlewares/ST/STM32_USB_Device_Library/Core/usbd_ctlreq.cpp **** 
 163:Middlewares/ST/STM32_USB_Device_Library/Core/usbd_ctlreq.cpp **** /**
ARM GAS  /tmp/ccImnKuM.s 			page 7


 164:Middlewares/ST/STM32_USB_Device_Library/Core/usbd_ctlreq.cpp **** * @brief  USBD_StdItfReq
 165:Middlewares/ST/STM32_USB_Device_Library/Core/usbd_ctlreq.cpp **** *         Handle standard usb interface requests
 166:Middlewares/ST/STM32_USB_Device_Library/Core/usbd_ctlreq.cpp **** * @param  pdev: device instance
 167:Middlewares/ST/STM32_USB_Device_Library/Core/usbd_ctlreq.cpp **** * @param  req: usb request
 168:Middlewares/ST/STM32_USB_Device_Library/Core/usbd_ctlreq.cpp **** * @retval status
 169:Middlewares/ST/STM32_USB_Device_Library/Core/usbd_ctlreq.cpp **** */
 170:Middlewares/ST/STM32_USB_Device_Library/Core/usbd_ctlreq.cpp **** USBD_StatusTypeDef  USBD_StdItfReq (USBD_HandleTypeDef *pdev , USBD_SetupReqTypedef  *req)
 171:Middlewares/ST/STM32_USB_Device_Library/Core/usbd_ctlreq.cpp **** {
 180              		.loc 1 171 0
 181              		.cfi_startproc
 182              		@ args = 0, pretend = 0, frame = 16
 183              		@ frame_needed = 1, uses_anonymous_args = 0
 184 0000 80B5     		push	{r7, lr}	@
 185              	.LCFI3:
 186              		.cfi_def_cfa_offset 8
 187              		.cfi_offset 7, -8
 188              		.cfi_offset 14, -4
 189 0002 84B0     		sub	sp, sp, #16	@,,
 190              	.LCFI4:
 191              		.cfi_def_cfa_offset 24
 192 0004 00AF     		add	r7, sp, #0	@,,
 193              	.LCFI5:
 194              		.cfi_def_cfa_register 7
 195 0006 7860     		str	r0, [r7, #4]	@ pdev, pdev
 196 0008 3960     		str	r1, [r7, #0]	@ req, req
 197              	.LBB3:
 172:Middlewares/ST/STM32_USB_Device_Library/Core/usbd_ctlreq.cpp ****   USBD_StatusTypeDef ret = USBD_OK; 
 198              		.loc 1 172 0
 199 000a 4FF00003 		mov	r3, #0	@ tmp143,
 200 000e FB73     		strb	r3, [r7, #15]	@ tmp144, ret
 173:Middlewares/ST/STM32_USB_Device_Library/Core/usbd_ctlreq.cpp ****   
 174:Middlewares/ST/STM32_USB_Device_Library/Core/usbd_ctlreq.cpp ****   switch (pdev->dev_state) 
 201              		.loc 1 174 0
 202 0010 7B68     		ldr	r3, [r7, #4]	@ tmp145, pdev
 203 0012 93F8FC31 		ldrb	r3, [r3, #508]	@ zero_extendqisi2	@ D.7984, pdev_2(D)->dev_state
 204 0016 032B     		cmp	r3, #3	@ D.7985,
 205 0018 1BD1     		bne	.L20	@,
 206              	.L15:
 175:Middlewares/ST/STM32_USB_Device_Library/Core/usbd_ctlreq.cpp ****   {
 176:Middlewares/ST/STM32_USB_Device_Library/Core/usbd_ctlreq.cpp ****   case USBD_STATE_CONFIGURED:
 177:Middlewares/ST/STM32_USB_Device_Library/Core/usbd_ctlreq.cpp ****     
 178:Middlewares/ST/STM32_USB_Device_Library/Core/usbd_ctlreq.cpp ****     if (LOBYTE(req->wIndex) <= USBD_MAX_NUM_INTERFACES) 
 207              		.loc 1 178 0
 208 001a 3B68     		ldr	r3, [r7, #0]	@ tmp146, req
 209 001c 9B88     		ldrh	r3, [r3, #4]	@ D.7986, req_5(D)->wIndex
 210 001e DBB2     		uxtb	r3, r3	@ D.7987, D.7986
 211 0020 012B     		cmp	r3, #1	@ D.7987,
 212 0022 11D8     		bhi	.L16	@,
 179:Middlewares/ST/STM32_USB_Device_Library/Core/usbd_ctlreq.cpp ****     {
 180:Middlewares/ST/STM32_USB_Device_Library/Core/usbd_ctlreq.cpp ****       pdev->pClass->Setup (pdev, req); 
 213              		.loc 1 180 0
 214 0024 7B68     		ldr	r3, [r7, #4]	@ tmp147, pdev
 215 0026 D3F81432 		ldr	r3, [r3, #532]	@ D.7990, pdev_2(D)->pClass
 216 002a 9B68     		ldr	r3, [r3, #8]	@ D.7991, D.7990_8->Setup
 217 002c 7868     		ldr	r0, [r7, #4]	@, pdev
 218 002e 3968     		ldr	r1, [r7, #0]	@, req
 219 0030 9847     		blx	r3	@ D.7991
ARM GAS  /tmp/ccImnKuM.s 			page 8


 181:Middlewares/ST/STM32_USB_Device_Library/Core/usbd_ctlreq.cpp ****       
 182:Middlewares/ST/STM32_USB_Device_Library/Core/usbd_ctlreq.cpp ****       if((req->wLength == 0)&& (ret == USBD_OK))
 220              		.loc 1 182 0
 221 0032 3B68     		ldr	r3, [r7, #0]	@ tmp148, req
 222 0034 DB88     		ldrh	r3, [r3, #6]	@ D.7992, req_5(D)->wLength
 223 0036 002B     		cmp	r3, #0	@ D.7992,
 224 0038 10D1     		bne	.L21	@,
 225              		.loc 1 182 0 is_stmt 0 discriminator 1
 226 003a FB7B     		ldrb	r3, [r7, #15]	@ zero_extendqisi2	@ tmp149, ret
 227 003c 002B     		cmp	r3, #0	@ tmp149,
 228 003e 0DD1     		bne	.L21	@,
 183:Middlewares/ST/STM32_USB_Device_Library/Core/usbd_ctlreq.cpp ****       {
 184:Middlewares/ST/STM32_USB_Device_Library/Core/usbd_ctlreq.cpp ****          USBD_CtlSendStatus(pdev);
 229              		.loc 1 184 0 is_stmt 1
 230 0040 7868     		ldr	r0, [r7, #4]	@, pdev
 231 0042 FFF7FEFF 		bl	_Z18USBD_CtlSendStatusP19_USBD_HandleTypeDef	@
 185:Middlewares/ST/STM32_USB_Device_Library/Core/usbd_ctlreq.cpp ****       }
 186:Middlewares/ST/STM32_USB_Device_Library/Core/usbd_ctlreq.cpp ****     } 
 187:Middlewares/ST/STM32_USB_Device_Library/Core/usbd_ctlreq.cpp ****     else 
 188:Middlewares/ST/STM32_USB_Device_Library/Core/usbd_ctlreq.cpp ****     {                                               
 189:Middlewares/ST/STM32_USB_Device_Library/Core/usbd_ctlreq.cpp ****        USBD_CtlError(pdev , req);
 190:Middlewares/ST/STM32_USB_Device_Library/Core/usbd_ctlreq.cpp ****     }
 191:Middlewares/ST/STM32_USB_Device_Library/Core/usbd_ctlreq.cpp ****     break;
 232              		.loc 1 191 0
 233 0046 09E0     		b	.L21	@
 234              	.L16:
 189:Middlewares/ST/STM32_USB_Device_Library/Core/usbd_ctlreq.cpp ****        USBD_CtlError(pdev , req);
 235              		.loc 1 189 0
 236 0048 7868     		ldr	r0, [r7, #4]	@, pdev
 237 004a 3968     		ldr	r1, [r7, #0]	@, req
 238 004c FFF7FEFF 		bl	_Z13USBD_CtlErrorP19_USBD_HandleTypeDefP13usb_setup_req	@
 239              		.loc 1 191 0
 240 0050 04E0     		b	.L21	@
 241              	.L20:
 192:Middlewares/ST/STM32_USB_Device_Library/Core/usbd_ctlreq.cpp ****     
 193:Middlewares/ST/STM32_USB_Device_Library/Core/usbd_ctlreq.cpp ****   default:
 194:Middlewares/ST/STM32_USB_Device_Library/Core/usbd_ctlreq.cpp ****      USBD_CtlError(pdev , req);
 242              		.loc 1 194 0
 243 0052 7868     		ldr	r0, [r7, #4]	@, pdev
 244 0054 3968     		ldr	r1, [r7, #0]	@, req
 245 0056 FFF7FEFF 		bl	_Z13USBD_CtlErrorP19_USBD_HandleTypeDefP13usb_setup_req	@
 195:Middlewares/ST/STM32_USB_Device_Library/Core/usbd_ctlreq.cpp ****     break;
 246              		.loc 1 195 0
 247 005a 00E0     		b	.L18	@
 248              	.L21:
 191:Middlewares/ST/STM32_USB_Device_Library/Core/usbd_ctlreq.cpp ****     break;
 249              		.loc 1 191 0
 250 005c 00BF     		nop
 251              	.L18:
 196:Middlewares/ST/STM32_USB_Device_Library/Core/usbd_ctlreq.cpp ****   }
 197:Middlewares/ST/STM32_USB_Device_Library/Core/usbd_ctlreq.cpp ****   return USBD_OK;
 252              		.loc 1 197 0
 253 005e 4FF00003 		mov	r3, #0	@ D.7999,
 254              	.LBE3:
 198:Middlewares/ST/STM32_USB_Device_Library/Core/usbd_ctlreq.cpp **** }
 255              		.loc 1 198 0
 256 0062 1846     		mov	r0, r3	@, <retval>
ARM GAS  /tmp/ccImnKuM.s 			page 9


 257 0064 07F11007 		add	r7, r7, #16	@,,
 258 0068 BD46     		mov	sp, r7
 259 006a 80BD     		pop	{r7, pc}
 260              		.cfi_endproc
 261              	.LFE57:
 262              		.size	_Z14USBD_StdItfReqP19_USBD_HandleTypeDefP13usb_setup_req, .-_Z14USBD_StdItfReqP19_USBD_Handl
 263              		.section	.text._Z13USBD_StdEPReqP19_USBD_HandleTypeDefP13usb_setup_req,"ax",%progbits
 264              		.align	2
 265              		.global	_Z13USBD_StdEPReqP19_USBD_HandleTypeDefP13usb_setup_req
 266              		.thumb
 267              		.thumb_func
 268              		.type	_Z13USBD_StdEPReqP19_USBD_HandleTypeDefP13usb_setup_req, %function
 269              	_Z13USBD_StdEPReqP19_USBD_HandleTypeDefP13usb_setup_req:
 270              	.LFB58:
 199:Middlewares/ST/STM32_USB_Device_Library/Core/usbd_ctlreq.cpp **** 
 200:Middlewares/ST/STM32_USB_Device_Library/Core/usbd_ctlreq.cpp **** /**
 201:Middlewares/ST/STM32_USB_Device_Library/Core/usbd_ctlreq.cpp **** * @brief  USBD_StdEPReq
 202:Middlewares/ST/STM32_USB_Device_Library/Core/usbd_ctlreq.cpp **** *         Handle standard usb endpoint requests
 203:Middlewares/ST/STM32_USB_Device_Library/Core/usbd_ctlreq.cpp **** * @param  pdev: device instance
 204:Middlewares/ST/STM32_USB_Device_Library/Core/usbd_ctlreq.cpp **** * @param  req: usb request
 205:Middlewares/ST/STM32_USB_Device_Library/Core/usbd_ctlreq.cpp **** * @retval status
 206:Middlewares/ST/STM32_USB_Device_Library/Core/usbd_ctlreq.cpp **** */
 207:Middlewares/ST/STM32_USB_Device_Library/Core/usbd_ctlreq.cpp **** USBD_StatusTypeDef  USBD_StdEPReq (USBD_HandleTypeDef *pdev , USBD_SetupReqTypedef  *req)
 208:Middlewares/ST/STM32_USB_Device_Library/Core/usbd_ctlreq.cpp **** {
 271              		.loc 1 208 0
 272              		.cfi_startproc
 273              		@ args = 0, pretend = 0, frame = 16
 274              		@ frame_needed = 1, uses_anonymous_args = 0
 275 0000 80B5     		push	{r7, lr}	@
 276              	.LCFI6:
 277              		.cfi_def_cfa_offset 8
 278              		.cfi_offset 7, -8
 279              		.cfi_offset 14, -4
 280 0002 84B0     		sub	sp, sp, #16	@,,
 281              	.LCFI7:
 282              		.cfi_def_cfa_offset 24
 283 0004 00AF     		add	r7, sp, #0	@,,
 284              	.LCFI8:
 285              		.cfi_def_cfa_register 7
 286 0006 7860     		str	r0, [r7, #4]	@ pdev, pdev
 287 0008 3960     		str	r1, [r7, #0]	@ req, req
 288              	.LBB4:
 209:Middlewares/ST/STM32_USB_Device_Library/Core/usbd_ctlreq.cpp ****   
 210:Middlewares/ST/STM32_USB_Device_Library/Core/usbd_ctlreq.cpp ****   uint8_t   ep_addr;
 211:Middlewares/ST/STM32_USB_Device_Library/Core/usbd_ctlreq.cpp ****   USBD_StatusTypeDef ret = USBD_OK; 
 289              		.loc 1 211 0
 290 000a 4FF00003 		mov	r3, #0	@ tmp164,
 291 000e FB73     		strb	r3, [r7, #15]	@ tmp165, ret
 212:Middlewares/ST/STM32_USB_Device_Library/Core/usbd_ctlreq.cpp ****   USBD_EndpointTypeDef   *pep;
 213:Middlewares/ST/STM32_USB_Device_Library/Core/usbd_ctlreq.cpp ****   ep_addr  = LOBYTE(req->wIndex);   
 292              		.loc 1 213 0
 293 0010 3B68     		ldr	r3, [r7, #0]	@ tmp166, req
 294 0012 9B88     		ldrh	r3, [r3, #4]	@ D.7916, req_3(D)->wIndex
 295 0014 BB73     		strb	r3, [r7, #14]	@ tmp167, ep_addr
 214:Middlewares/ST/STM32_USB_Device_Library/Core/usbd_ctlreq.cpp ****   
 215:Middlewares/ST/STM32_USB_Device_Library/Core/usbd_ctlreq.cpp ****   switch (req->bRequest) 
 296              		.loc 1 215 0
ARM GAS  /tmp/ccImnKuM.s 			page 10


 297 0016 3B68     		ldr	r3, [r7, #0]	@ tmp168, req
 298 0018 5B78     		ldrb	r3, [r3, #1]	@ zero_extendqisi2	@ D.7918, req_3(D)->bRequest
 299 001a 012B     		cmp	r3, #1	@ D.7919,
 300 001c 39D0     		beq	.L25	@,
 301 001e 032B     		cmp	r3, #3	@ D.7919,
 302 0020 02D0     		beq	.L26	@,
 303 0022 002B     		cmp	r3, #0	@ D.7919,
 304 0024 6BD0     		beq	.L24	@,
 305 0026 BEE0     		b	.L51	@
 306              	.L26:
 216:Middlewares/ST/STM32_USB_Device_Library/Core/usbd_ctlreq.cpp ****   {
 217:Middlewares/ST/STM32_USB_Device_Library/Core/usbd_ctlreq.cpp ****     
 218:Middlewares/ST/STM32_USB_Device_Library/Core/usbd_ctlreq.cpp ****   case USB_REQ_SET_FEATURE :
 219:Middlewares/ST/STM32_USB_Device_Library/Core/usbd_ctlreq.cpp ****     
 220:Middlewares/ST/STM32_USB_Device_Library/Core/usbd_ctlreq.cpp ****     switch (pdev->dev_state) 
 307              		.loc 1 220 0
 308 0028 7B68     		ldr	r3, [r7, #4]	@ tmp169, pdev
 309 002a 93F8FC31 		ldrb	r3, [r3, #508]	@ zero_extendqisi2	@ D.7921, pdev_8(D)->dev_state
 310 002e 022B     		cmp	r3, #2	@ D.7922,
 311 0030 02D0     		beq	.L28	@,
 312 0032 032B     		cmp	r3, #3	@ D.7922,
 313 0034 0CD0     		beq	.L29	@,
 314 0036 25E0     		b	.L52	@
 315              	.L28:
 221:Middlewares/ST/STM32_USB_Device_Library/Core/usbd_ctlreq.cpp ****     {
 222:Middlewares/ST/STM32_USB_Device_Library/Core/usbd_ctlreq.cpp ****     case USBD_STATE_ADDRESSED:          
 223:Middlewares/ST/STM32_USB_Device_Library/Core/usbd_ctlreq.cpp ****       if ((ep_addr != 0x00) && (ep_addr != 0x80)) 
 316              		.loc 1 223 0
 317 0038 BB7B     		ldrb	r3, [r7, #14]	@ zero_extendqisi2	@ tmp170, ep_addr
 318 003a 002B     		cmp	r3, #0	@ tmp170,
 319 003c 27D0     		beq	.L55	@,
 320              		.loc 1 223 0 is_stmt 0 discriminator 1
 321 003e BB7B     		ldrb	r3, [r7, #14]	@ zero_extendqisi2	@ tmp171, ep_addr
 322 0040 802B     		cmp	r3, #128	@ tmp171,
 323 0042 24D0     		beq	.L55	@,
 224:Middlewares/ST/STM32_USB_Device_Library/Core/usbd_ctlreq.cpp ****       {
 225:Middlewares/ST/STM32_USB_Device_Library/Core/usbd_ctlreq.cpp ****         USBD_LL_StallEP(pdev , ep_addr);
 324              		.loc 1 225 0 is_stmt 1
 325 0044 BB7B     		ldrb	r3, [r7, #14]	@ zero_extendqisi2	@ tmp172, ep_addr
 326 0046 7868     		ldr	r0, [r7, #4]	@, pdev
 327 0048 1946     		mov	r1, r3	@, tmp172
 328 004a FFF7FEFF 		bl	_Z15USBD_LL_StallEPP19_USBD_HandleTypeDefh	@
 226:Middlewares/ST/STM32_USB_Device_Library/Core/usbd_ctlreq.cpp ****       }
 227:Middlewares/ST/STM32_USB_Device_Library/Core/usbd_ctlreq.cpp ****       break;	
 329              		.loc 1 227 0
 330 004e 1EE0     		b	.L55	@
 331              	.L29:
 228:Middlewares/ST/STM32_USB_Device_Library/Core/usbd_ctlreq.cpp ****       
 229:Middlewares/ST/STM32_USB_Device_Library/Core/usbd_ctlreq.cpp ****     case USBD_STATE_CONFIGURED:   
 230:Middlewares/ST/STM32_USB_Device_Library/Core/usbd_ctlreq.cpp ****       if (req->wValue == USB_FEATURE_EP_HALT)
 332              		.loc 1 230 0
 333 0050 3B68     		ldr	r3, [r7, #0]	@ tmp173, req
 334 0052 5B88     		ldrh	r3, [r3, #2]	@ D.7928, req_3(D)->wValue
 335 0054 002B     		cmp	r3, #0	@ D.7928,
 336 0056 0AD1     		bne	.L32	@,
 231:Middlewares/ST/STM32_USB_Device_Library/Core/usbd_ctlreq.cpp ****       {
 232:Middlewares/ST/STM32_USB_Device_Library/Core/usbd_ctlreq.cpp ****         if ((ep_addr != 0x00) && (ep_addr != 0x80)) 
ARM GAS  /tmp/ccImnKuM.s 			page 11


 337              		.loc 1 232 0
 338 0058 BB7B     		ldrb	r3, [r7, #14]	@ zero_extendqisi2	@ tmp174, ep_addr
 339 005a 002B     		cmp	r3, #0	@ tmp174,
 340 005c 07D0     		beq	.L32	@,
 341              		.loc 1 232 0 is_stmt 0 discriminator 1
 342 005e BB7B     		ldrb	r3, [r7, #14]	@ zero_extendqisi2	@ tmp175, ep_addr
 343 0060 802B     		cmp	r3, #128	@ tmp175,
 344 0062 04D0     		beq	.L32	@,
 233:Middlewares/ST/STM32_USB_Device_Library/Core/usbd_ctlreq.cpp ****         { 
 234:Middlewares/ST/STM32_USB_Device_Library/Core/usbd_ctlreq.cpp ****           USBD_LL_StallEP(pdev , ep_addr);
 345              		.loc 1 234 0 is_stmt 1
 346 0064 BB7B     		ldrb	r3, [r7, #14]	@ zero_extendqisi2	@ tmp176, ep_addr
 347 0066 7868     		ldr	r0, [r7, #4]	@, pdev
 348 0068 1946     		mov	r1, r3	@, tmp176
 349 006a FFF7FEFF 		bl	_Z15USBD_LL_StallEPP19_USBD_HandleTypeDefh	@
 350              	.L32:
 235:Middlewares/ST/STM32_USB_Device_Library/Core/usbd_ctlreq.cpp ****           
 236:Middlewares/ST/STM32_USB_Device_Library/Core/usbd_ctlreq.cpp ****         }
 237:Middlewares/ST/STM32_USB_Device_Library/Core/usbd_ctlreq.cpp ****       }
 238:Middlewares/ST/STM32_USB_Device_Library/Core/usbd_ctlreq.cpp ****       pdev->pClass->Setup (pdev, req);   
 351              		.loc 1 238 0
 352 006e 7B68     		ldr	r3, [r7, #4]	@ tmp177, pdev
 353 0070 D3F81432 		ldr	r3, [r3, #532]	@ D.7937, pdev_8(D)->pClass
 354 0074 9B68     		ldr	r3, [r3, #8]	@ D.7938, D.7937_12->Setup
 355 0076 7868     		ldr	r0, [r7, #4]	@, pdev
 356 0078 3968     		ldr	r1, [r7, #0]	@, req
 357 007a 9847     		blx	r3	@ D.7938
 239:Middlewares/ST/STM32_USB_Device_Library/Core/usbd_ctlreq.cpp ****       USBD_CtlSendStatus(pdev);
 358              		.loc 1 239 0
 359 007c 7868     		ldr	r0, [r7, #4]	@, pdev
 360 007e FFF7FEFF 		bl	_Z18USBD_CtlSendStatusP19_USBD_HandleTypeDef	@
 240:Middlewares/ST/STM32_USB_Device_Library/Core/usbd_ctlreq.cpp ****       
 241:Middlewares/ST/STM32_USB_Device_Library/Core/usbd_ctlreq.cpp ****       break;
 361              		.loc 1 241 0
 362 0082 05E0     		b	.L31	@
 363              	.L52:
 242:Middlewares/ST/STM32_USB_Device_Library/Core/usbd_ctlreq.cpp ****       
 243:Middlewares/ST/STM32_USB_Device_Library/Core/usbd_ctlreq.cpp ****     default:                         
 244:Middlewares/ST/STM32_USB_Device_Library/Core/usbd_ctlreq.cpp ****       USBD_CtlError(pdev , req);
 364              		.loc 1 244 0
 365 0084 7868     		ldr	r0, [r7, #4]	@, pdev
 366 0086 3968     		ldr	r1, [r7, #0]	@, req
 367 0088 FFF7FEFF 		bl	_Z13USBD_CtlErrorP19_USBD_HandleTypeDefP13usb_setup_req	@
 245:Middlewares/ST/STM32_USB_Device_Library/Core/usbd_ctlreq.cpp ****       break;    
 368              		.loc 1 245 0
 369 008c 00E0     		b	.L31	@
 370              	.L55:
 227:Middlewares/ST/STM32_USB_Device_Library/Core/usbd_ctlreq.cpp ****       break;	
 371              		.loc 1 227 0
 372 008e 00BF     		nop
 373              	.L31:
 246:Middlewares/ST/STM32_USB_Device_Library/Core/usbd_ctlreq.cpp ****     }
 247:Middlewares/ST/STM32_USB_Device_Library/Core/usbd_ctlreq.cpp ****     break;
 374              		.loc 1 247 0
 375 0090 8AE0     		b	.L33	@
 376              	.L25:
 248:Middlewares/ST/STM32_USB_Device_Library/Core/usbd_ctlreq.cpp ****     
ARM GAS  /tmp/ccImnKuM.s 			page 12


 249:Middlewares/ST/STM32_USB_Device_Library/Core/usbd_ctlreq.cpp ****   case USB_REQ_CLEAR_FEATURE :
 250:Middlewares/ST/STM32_USB_Device_Library/Core/usbd_ctlreq.cpp ****     
 251:Middlewares/ST/STM32_USB_Device_Library/Core/usbd_ctlreq.cpp ****     switch (pdev->dev_state) 
 377              		.loc 1 251 0
 378 0092 7B68     		ldr	r3, [r7, #4]	@ tmp178, pdev
 379 0094 93F8FC31 		ldrb	r3, [r3, #508]	@ zero_extendqisi2	@ D.7940, pdev_8(D)->dev_state
 380 0098 022B     		cmp	r3, #2	@ D.7941,
 381 009a 02D0     		beq	.L35	@,
 382 009c 032B     		cmp	r3, #3	@ D.7941,
 383 009e 0CD0     		beq	.L36	@,
 384 00a0 24E0     		b	.L53	@
 385              	.L35:
 252:Middlewares/ST/STM32_USB_Device_Library/Core/usbd_ctlreq.cpp ****     {
 253:Middlewares/ST/STM32_USB_Device_Library/Core/usbd_ctlreq.cpp ****     case USBD_STATE_ADDRESSED:          
 254:Middlewares/ST/STM32_USB_Device_Library/Core/usbd_ctlreq.cpp ****       if ((ep_addr != 0x00) && (ep_addr != 0x80)) 
 386              		.loc 1 254 0
 387 00a2 BB7B     		ldrb	r3, [r7, #14]	@ zero_extendqisi2	@ tmp179, ep_addr
 388 00a4 002B     		cmp	r3, #0	@ tmp179,
 389 00a6 26D0     		beq	.L56	@,
 390              		.loc 1 254 0 is_stmt 0 discriminator 1
 391 00a8 BB7B     		ldrb	r3, [r7, #14]	@ zero_extendqisi2	@ tmp180, ep_addr
 392 00aa 802B     		cmp	r3, #128	@ tmp180,
 393 00ac 23D0     		beq	.L56	@,
 255:Middlewares/ST/STM32_USB_Device_Library/Core/usbd_ctlreq.cpp ****       {
 256:Middlewares/ST/STM32_USB_Device_Library/Core/usbd_ctlreq.cpp ****         USBD_LL_StallEP(pdev , ep_addr);
 394              		.loc 1 256 0 is_stmt 1
 395 00ae BB7B     		ldrb	r3, [r7, #14]	@ zero_extendqisi2	@ tmp181, ep_addr
 396 00b0 7868     		ldr	r0, [r7, #4]	@, pdev
 397 00b2 1946     		mov	r1, r3	@, tmp181
 398 00b4 FFF7FEFF 		bl	_Z15USBD_LL_StallEPP19_USBD_HandleTypeDefh	@
 257:Middlewares/ST/STM32_USB_Device_Library/Core/usbd_ctlreq.cpp ****       }
 258:Middlewares/ST/STM32_USB_Device_Library/Core/usbd_ctlreq.cpp ****       break;	
 399              		.loc 1 258 0
 400 00b8 1DE0     		b	.L56	@
 401              	.L36:
 259:Middlewares/ST/STM32_USB_Device_Library/Core/usbd_ctlreq.cpp ****       
 260:Middlewares/ST/STM32_USB_Device_Library/Core/usbd_ctlreq.cpp ****     case USBD_STATE_CONFIGURED:   
 261:Middlewares/ST/STM32_USB_Device_Library/Core/usbd_ctlreq.cpp ****       if (req->wValue == USB_FEATURE_EP_HALT)
 402              		.loc 1 261 0
 403 00ba 3B68     		ldr	r3, [r7, #0]	@ tmp182, req
 404 00bc 5B88     		ldrh	r3, [r3, #2]	@ D.7947, req_3(D)->wValue
 405 00be 002B     		cmp	r3, #0	@ D.7947,
 406 00c0 1BD1     		bne	.L57	@,
 262:Middlewares/ST/STM32_USB_Device_Library/Core/usbd_ctlreq.cpp ****       {
 263:Middlewares/ST/STM32_USB_Device_Library/Core/usbd_ctlreq.cpp ****         if ((ep_addr & 0x7F) != 0x00) 
 407              		.loc 1 263 0
 408 00c2 BB7B     		ldrb	r3, [r7, #14]	@ zero_extendqisi2	@ D.7950, ep_addr
 409 00c4 03F07F03 		and	r3, r3, #127	@ D.7951, D.7950,
 410 00c8 002B     		cmp	r3, #0	@ D.7951,
 411 00ca 0BD0     		beq	.L40	@,
 264:Middlewares/ST/STM32_USB_Device_Library/Core/usbd_ctlreq.cpp ****         {        
 265:Middlewares/ST/STM32_USB_Device_Library/Core/usbd_ctlreq.cpp ****           USBD_LL_ClearStallEP(pdev , ep_addr);
 412              		.loc 1 265 0
 413 00cc BB7B     		ldrb	r3, [r7, #14]	@ zero_extendqisi2	@ tmp183, ep_addr
 414 00ce 7868     		ldr	r0, [r7, #4]	@, pdev
 415 00d0 1946     		mov	r1, r3	@, tmp183
 416 00d2 FFF7FEFF 		bl	_Z20USBD_LL_ClearStallEPP19_USBD_HandleTypeDefh	@
ARM GAS  /tmp/ccImnKuM.s 			page 13


 266:Middlewares/ST/STM32_USB_Device_Library/Core/usbd_ctlreq.cpp ****           pdev->pClass->Setup (pdev, req);
 417              		.loc 1 266 0
 418 00d6 7B68     		ldr	r3, [r7, #4]	@ tmp184, pdev
 419 00d8 D3F81432 		ldr	r3, [r3, #532]	@ D.7954, pdev_8(D)->pClass
 420 00dc 9B68     		ldr	r3, [r3, #8]	@ D.7955, D.7954_19->Setup
 421 00de 7868     		ldr	r0, [r7, #4]	@, pdev
 422 00e0 3968     		ldr	r1, [r7, #0]	@, req
 423 00e2 9847     		blx	r3	@ D.7955
 424              	.L40:
 267:Middlewares/ST/STM32_USB_Device_Library/Core/usbd_ctlreq.cpp ****         }
 268:Middlewares/ST/STM32_USB_Device_Library/Core/usbd_ctlreq.cpp ****         USBD_CtlSendStatus(pdev);
 425              		.loc 1 268 0
 426 00e4 7868     		ldr	r0, [r7, #4]	@, pdev
 427 00e6 FFF7FEFF 		bl	_Z18USBD_CtlSendStatusP19_USBD_HandleTypeDef	@
 269:Middlewares/ST/STM32_USB_Device_Library/Core/usbd_ctlreq.cpp ****       }
 270:Middlewares/ST/STM32_USB_Device_Library/Core/usbd_ctlreq.cpp ****       break;
 428              		.loc 1 270 0
 429 00ea 06E0     		b	.L57	@
 430              	.L53:
 271:Middlewares/ST/STM32_USB_Device_Library/Core/usbd_ctlreq.cpp ****       
 272:Middlewares/ST/STM32_USB_Device_Library/Core/usbd_ctlreq.cpp ****     default:                         
 273:Middlewares/ST/STM32_USB_Device_Library/Core/usbd_ctlreq.cpp ****       USBD_CtlError(pdev , req);
 431              		.loc 1 273 0
 432 00ec 7868     		ldr	r0, [r7, #4]	@, pdev
 433 00ee 3968     		ldr	r1, [r7, #0]	@, req
 434 00f0 FFF7FEFF 		bl	_Z13USBD_CtlErrorP19_USBD_HandleTypeDefP13usb_setup_req	@
 274:Middlewares/ST/STM32_USB_Device_Library/Core/usbd_ctlreq.cpp ****       break;    
 435              		.loc 1 274 0
 436 00f4 02E0     		b	.L38	@
 437              	.L56:
 258:Middlewares/ST/STM32_USB_Device_Library/Core/usbd_ctlreq.cpp ****       break;	
 438              		.loc 1 258 0
 439 00f6 00BF     		nop
 440 00f8 00E0     		b	.L38	@
 441              	.L57:
 270:Middlewares/ST/STM32_USB_Device_Library/Core/usbd_ctlreq.cpp ****       break;
 442              		.loc 1 270 0
 443 00fa 00BF     		nop
 444              	.L38:
 275:Middlewares/ST/STM32_USB_Device_Library/Core/usbd_ctlreq.cpp ****     }
 276:Middlewares/ST/STM32_USB_Device_Library/Core/usbd_ctlreq.cpp ****     break;
 445              		.loc 1 276 0
 446 00fc 54E0     		b	.L33	@
 447              	.L24:
 277:Middlewares/ST/STM32_USB_Device_Library/Core/usbd_ctlreq.cpp ****     
 278:Middlewares/ST/STM32_USB_Device_Library/Core/usbd_ctlreq.cpp ****   case USB_REQ_GET_STATUS:                  
 279:Middlewares/ST/STM32_USB_Device_Library/Core/usbd_ctlreq.cpp ****     switch (pdev->dev_state) 
 448              		.loc 1 279 0
 449 00fe 7B68     		ldr	r3, [r7, #4]	@ tmp185, pdev
 450 0100 93F8FC31 		ldrb	r3, [r3, #508]	@ zero_extendqisi2	@ D.7959, pdev_8(D)->dev_state
 451 0104 022B     		cmp	r3, #2	@ D.7960,
 452 0106 02D0     		beq	.L42	@,
 453 0108 032B     		cmp	r3, #3	@ D.7960,
 454 010a 0BD0     		beq	.L43	@,
 455 010c 44E0     		b	.L54	@
 456              	.L42:
 280:Middlewares/ST/STM32_USB_Device_Library/Core/usbd_ctlreq.cpp ****     {
ARM GAS  /tmp/ccImnKuM.s 			page 14


 281:Middlewares/ST/STM32_USB_Device_Library/Core/usbd_ctlreq.cpp ****     case USBD_STATE_ADDRESSED:          
 282:Middlewares/ST/STM32_USB_Device_Library/Core/usbd_ctlreq.cpp ****       if ((ep_addr & 0x7F) != 0x00) 
 457              		.loc 1 282 0
 458 010e BB7B     		ldrb	r3, [r7, #14]	@ zero_extendqisi2	@ D.7961, ep_addr
 459 0110 03F07F03 		and	r3, r3, #127	@ D.7962, D.7961,
 460 0114 002B     		cmp	r3, #0	@ D.7962,
 461 0116 44D0     		beq	.L58	@,
 283:Middlewares/ST/STM32_USB_Device_Library/Core/usbd_ctlreq.cpp ****       {
 284:Middlewares/ST/STM32_USB_Device_Library/Core/usbd_ctlreq.cpp ****         USBD_LL_StallEP(pdev , ep_addr);
 462              		.loc 1 284 0
 463 0118 BB7B     		ldrb	r3, [r7, #14]	@ zero_extendqisi2	@ tmp186, ep_addr
 464 011a 7868     		ldr	r0, [r7, #4]	@, pdev
 465 011c 1946     		mov	r1, r3	@, tmp186
 466 011e FFF7FEFF 		bl	_Z15USBD_LL_StallEPP19_USBD_HandleTypeDefh	@
 285:Middlewares/ST/STM32_USB_Device_Library/Core/usbd_ctlreq.cpp ****       }
 286:Middlewares/ST/STM32_USB_Device_Library/Core/usbd_ctlreq.cpp ****       break;	
 467              		.loc 1 286 0
 468 0122 3EE0     		b	.L58	@
 469              	.L43:
 287:Middlewares/ST/STM32_USB_Device_Library/Core/usbd_ctlreq.cpp ****       
 288:Middlewares/ST/STM32_USB_Device_Library/Core/usbd_ctlreq.cpp ****     case USBD_STATE_CONFIGURED:
 289:Middlewares/ST/STM32_USB_Device_Library/Core/usbd_ctlreq.cpp ****       pep = ((ep_addr & 0x80) == 0x80) ? &pdev->ep_in[ep_addr & 0x7F]:\
 290:Middlewares/ST/STM32_USB_Device_Library/Core/usbd_ctlreq.cpp ****                                          &pdev->ep_out[ep_addr & 0x7F];
 470              		.loc 1 290 0
 471 0124 BB7B     		ldrb	r3, [r7, #14]	@ zero_extendqisi2	@ ep_addr.18, ep_addr
 472 0126 5BB2     		sxtb	r3, r3	@ tmp187, ep_addr.18
 473 0128 002B     		cmp	r3, #0	@ tmp187,
 474 012a 0BDA     		bge	.L46	@,
 289:Middlewares/ST/STM32_USB_Device_Library/Core/usbd_ctlreq.cpp ****       pep = ((ep_addr & 0x80) == 0x80) ? &pdev->ep_in[ep_addr & 0x7F]:\
 475              		.loc 1 289 0
 476 012c BB7B     		ldrb	r3, [r7, #14]	@ zero_extendqisi2	@ D.7970, ep_addr
 477 012e 03F07F03 		and	r3, r3, #127	@ D.7971, D.7970,
 478              		.loc 1 290 0
 479 0132 03F10103 		add	r3, r3, #1	@ tmp188, D.7971,
 480 0136 4FEA0313 		lsl	r3, r3, #4	@ tmp189, tmp188,
 481 013a 7A68     		ldr	r2, [r7, #4]	@ tmp191, pdev
 482 013c D318     		adds	r3, r2, r3	@ tmp190, tmp191, tmp189
 483 013e 03F10403 		add	r3, r3, #4	@ iftmp.17, tmp190,
 484 0142 0AE0     		b	.L47	@
 485              	.L46:
 486              		.loc 1 290 0 is_stmt 0 discriminator 1
 487 0144 BB7B     		ldrb	r3, [r7, #14]	@ zero_extendqisi2	@ D.7973, ep_addr
 488 0146 03F07F03 		and	r3, r3, #127	@ D.7974, D.7973,
 489 014a 03F11003 		add	r3, r3, #16	@ tmp192, D.7974,
 490 014e 4FEA0313 		lsl	r3, r3, #4	@ tmp193, tmp192,
 491 0152 7A68     		ldr	r2, [r7, #4]	@ tmp195, pdev
 492 0154 D318     		adds	r3, r2, r3	@ tmp194, tmp195, tmp193
 493 0156 03F10403 		add	r3, r3, #4	@ iftmp.17, tmp194,
 494              	.L47:
 495              		.loc 1 290 0 discriminator 2
 496 015a BB60     		str	r3, [r7, #8]	@ iftmp.17, pep
 291:Middlewares/ST/STM32_USB_Device_Library/Core/usbd_ctlreq.cpp ****       if(USBD_LL_IsStallEP(pdev, ep_addr))
 497              		.loc 1 291 0 is_stmt 1 discriminator 2
 498 015c BB7B     		ldrb	r3, [r7, #14]	@ zero_extendqisi2	@ tmp196, ep_addr
 499 015e 7868     		ldr	r0, [r7, #4]	@, pdev
 500 0160 1946     		mov	r1, r3	@, tmp196
 501 0162 FFF7FEFF 		bl	_Z17USBD_LL_IsStallEPP19_USBD_HandleTypeDefh	@
ARM GAS  /tmp/ccImnKuM.s 			page 15


 502 0166 0346     		mov	r3, r0	@ tmp197,
 503 0168 002B     		cmp	r3, #0	@ D.7976,
 504 016a 0CBF     		ite	eq	@
 505 016c 0023     		moveq	r3, #0	@, tmp199
 506 016e 0123     		movne	r3, #1	@, tmp199
 507 0170 DBB2     		uxtb	r3, r3	@ retval.19, tmp198
 508 0172 002B     		cmp	r3, #0	@ retval.19,
 509 0174 04D0     		beq	.L48	@,
 292:Middlewares/ST/STM32_USB_Device_Library/Core/usbd_ctlreq.cpp ****       {
 293:Middlewares/ST/STM32_USB_Device_Library/Core/usbd_ctlreq.cpp ****         pep->status = 0x0001;     
 510              		.loc 1 293 0
 511 0176 BB68     		ldr	r3, [r7, #8]	@ tmp200, pep
 512 0178 4FF00102 		mov	r2, #1	@ tmp201,
 513 017c 1A60     		str	r2, [r3, #0]	@ tmp201, pep_32->status
 514 017e 03E0     		b	.L49	@
 515              	.L48:
 294:Middlewares/ST/STM32_USB_Device_Library/Core/usbd_ctlreq.cpp ****       }
 295:Middlewares/ST/STM32_USB_Device_Library/Core/usbd_ctlreq.cpp ****       else
 296:Middlewares/ST/STM32_USB_Device_Library/Core/usbd_ctlreq.cpp ****       {
 297:Middlewares/ST/STM32_USB_Device_Library/Core/usbd_ctlreq.cpp ****         pep->status = 0x0000;  
 516              		.loc 1 297 0
 517 0180 BB68     		ldr	r3, [r7, #8]	@ tmp202, pep
 518 0182 4FF00002 		mov	r2, #0	@ tmp203,
 519 0186 1A60     		str	r2, [r3, #0]	@ tmp203, pep_32->status
 520              	.L49:
 298:Middlewares/ST/STM32_USB_Device_Library/Core/usbd_ctlreq.cpp ****       }
 299:Middlewares/ST/STM32_USB_Device_Library/Core/usbd_ctlreq.cpp ****       
 300:Middlewares/ST/STM32_USB_Device_Library/Core/usbd_ctlreq.cpp ****       USBD_CtlSendData (pdev,
 301:Middlewares/ST/STM32_USB_Device_Library/Core/usbd_ctlreq.cpp ****                         (uint8_t *)&pep->status,
 302:Middlewares/ST/STM32_USB_Device_Library/Core/usbd_ctlreq.cpp ****                         2);
 521              		.loc 1 302 0
 522 0188 BB68     		ldr	r3, [r7, #8]	@ D.7980, pep
 523 018a 7868     		ldr	r0, [r7, #4]	@, pdev
 524 018c 1946     		mov	r1, r3	@, D.7980
 525 018e 4FF00202 		mov	r2, #2	@,
 526 0192 FFF7FEFF 		bl	_Z16USBD_CtlSendDataP19_USBD_HandleTypeDefPht	@
 303:Middlewares/ST/STM32_USB_Device_Library/Core/usbd_ctlreq.cpp ****       break;
 527              		.loc 1 303 0
 528 0196 05E0     		b	.L45	@
 529              	.L54:
 304:Middlewares/ST/STM32_USB_Device_Library/Core/usbd_ctlreq.cpp ****       
 305:Middlewares/ST/STM32_USB_Device_Library/Core/usbd_ctlreq.cpp ****     default:                         
 306:Middlewares/ST/STM32_USB_Device_Library/Core/usbd_ctlreq.cpp ****       USBD_CtlError(pdev , req);
 530              		.loc 1 306 0
 531 0198 7868     		ldr	r0, [r7, #4]	@, pdev
 532 019a 3968     		ldr	r1, [r7, #0]	@, req
 533 019c FFF7FEFF 		bl	_Z13USBD_CtlErrorP19_USBD_HandleTypeDefP13usb_setup_req	@
 307:Middlewares/ST/STM32_USB_Device_Library/Core/usbd_ctlreq.cpp ****       break;
 534              		.loc 1 307 0
 535 01a0 00E0     		b	.L45	@
 536              	.L58:
 286:Middlewares/ST/STM32_USB_Device_Library/Core/usbd_ctlreq.cpp ****       break;	
 537              		.loc 1 286 0
 538 01a2 00BF     		nop
 539              	.L45:
 308:Middlewares/ST/STM32_USB_Device_Library/Core/usbd_ctlreq.cpp ****     }
 309:Middlewares/ST/STM32_USB_Device_Library/Core/usbd_ctlreq.cpp ****     break;
ARM GAS  /tmp/ccImnKuM.s 			page 16


 540              		.loc 1 309 0
 541 01a4 00E0     		b	.L33	@
 542              	.L51:
 310:Middlewares/ST/STM32_USB_Device_Library/Core/usbd_ctlreq.cpp ****     
 311:Middlewares/ST/STM32_USB_Device_Library/Core/usbd_ctlreq.cpp ****   default:
 312:Middlewares/ST/STM32_USB_Device_Library/Core/usbd_ctlreq.cpp ****     break;
 543              		.loc 1 312 0
 544 01a6 00BF     		nop
 545              	.L33:
 313:Middlewares/ST/STM32_USB_Device_Library/Core/usbd_ctlreq.cpp ****   }
 314:Middlewares/ST/STM32_USB_Device_Library/Core/usbd_ctlreq.cpp ****   return ret;
 546              		.loc 1 314 0
 547 01a8 FB7B     		ldrb	r3, [r7, #15]	@ zero_extendqisi2	@ D.7981, ret
 548              	.LBE4:
 315:Middlewares/ST/STM32_USB_Device_Library/Core/usbd_ctlreq.cpp **** }
 549              		.loc 1 315 0
 550 01aa 1846     		mov	r0, r3	@, <retval>
 551 01ac 07F11007 		add	r7, r7, #16	@,,
 552 01b0 BD46     		mov	sp, r7
 553 01b2 80BD     		pop	{r7, pc}
 554              		.cfi_endproc
 555              	.LFE58:
 556              		.size	_Z13USBD_StdEPReqP19_USBD_HandleTypeDefP13usb_setup_req, .-_Z13USBD_StdEPReqP19_USBD_HandleT
 557              		.section	.text._ZL18USBD_GetDescriptorP19_USBD_HandleTypeDefP13usb_setup_req,"ax",%progbits
 558              		.align	2
 559              		.thumb
 560              		.thumb_func
 561              		.type	_ZL18USBD_GetDescriptorP19_USBD_HandleTypeDefP13usb_setup_req, %function
 562              	_ZL18USBD_GetDescriptorP19_USBD_HandleTypeDefP13usb_setup_req:
 563              	.LFB59:
 316:Middlewares/ST/STM32_USB_Device_Library/Core/usbd_ctlreq.cpp **** /**
 317:Middlewares/ST/STM32_USB_Device_Library/Core/usbd_ctlreq.cpp **** * @brief  USBD_GetDescriptor
 318:Middlewares/ST/STM32_USB_Device_Library/Core/usbd_ctlreq.cpp **** *         Handle Get Descriptor requests
 319:Middlewares/ST/STM32_USB_Device_Library/Core/usbd_ctlreq.cpp **** * @param  pdev: device instance
 320:Middlewares/ST/STM32_USB_Device_Library/Core/usbd_ctlreq.cpp **** * @param  req: usb request
 321:Middlewares/ST/STM32_USB_Device_Library/Core/usbd_ctlreq.cpp **** * @retval status
 322:Middlewares/ST/STM32_USB_Device_Library/Core/usbd_ctlreq.cpp **** */
 323:Middlewares/ST/STM32_USB_Device_Library/Core/usbd_ctlreq.cpp **** static void USBD_GetDescriptor(USBD_HandleTypeDef *pdev , 
 324:Middlewares/ST/STM32_USB_Device_Library/Core/usbd_ctlreq.cpp ****                                USBD_SetupReqTypedef *req)
 325:Middlewares/ST/STM32_USB_Device_Library/Core/usbd_ctlreq.cpp **** {
 564              		.loc 1 325 0
 565              		.cfi_startproc
 566              		@ args = 0, pretend = 0, frame = 16
 567              		@ frame_needed = 1, uses_anonymous_args = 0
 568 0000 80B5     		push	{r7, lr}	@
 569              	.LCFI9:
 570              		.cfi_def_cfa_offset 8
 571              		.cfi_offset 7, -8
 572              		.cfi_offset 14, -4
 573 0002 84B0     		sub	sp, sp, #16	@,,
 574              	.LCFI10:
 575              		.cfi_def_cfa_offset 24
 576 0004 00AF     		add	r7, sp, #0	@,,
 577              	.LCFI11:
 578              		.cfi_def_cfa_register 7
 579 0006 7860     		str	r0, [r7, #4]	@ pdev, pdev
 580 0008 3960     		str	r1, [r7, #0]	@ req, req
ARM GAS  /tmp/ccImnKuM.s 			page 17


 581              	.LBB5:
 326:Middlewares/ST/STM32_USB_Device_Library/Core/usbd_ctlreq.cpp ****   uint16_t len;
 327:Middlewares/ST/STM32_USB_Device_Library/Core/usbd_ctlreq.cpp ****   uint8_t *pbuf;
 328:Middlewares/ST/STM32_USB_Device_Library/Core/usbd_ctlreq.cpp ****   
 329:Middlewares/ST/STM32_USB_Device_Library/Core/usbd_ctlreq.cpp ****     
 330:Middlewares/ST/STM32_USB_Device_Library/Core/usbd_ctlreq.cpp ****   switch (req->wValue >> 8)
 582              		.loc 1 330 0
 583 000a 3B68     		ldr	r3, [r7, #0]	@ tmp181, req
 584 000c 5B88     		ldrh	r3, [r3, #2]	@ D.7850, req_5(D)->wValue
 585 000e 4FEA2323 		asr	r3, r3, #8	@ D.7852, D.7851,
 586 0012 03F1FF33 		add	r3, r3, #-1	@ tmp182, D.7852,
 587 0016 062B     		cmp	r3, #6	@ tmp182,
 588 0018 00F2D880 		bhi	.L60	@
 589 001c 01A2     		adr	r2, .L66	@,
 590 001e 52F823F0 		ldr	pc, [r2, r3, lsl #2]	@, tmp182
 591 0022 00BF     		.align	2
 592              	.L66:
 593 0024 41000000 		.word	.L61+1
 594 0028 5B000000 		.word	.L62+1
 595 002c A3000000 		.word	.L63+1
 596 0030 CD010000 		.word	.L60+1
 597 0034 CD010000 		.word	.L60+1
 598 0038 75010000 		.word	.L64+1
 599 003c 9B010000 		.word	.L65+1
 600              	.L61:
 331:Middlewares/ST/STM32_USB_Device_Library/Core/usbd_ctlreq.cpp ****   {
 332:Middlewares/ST/STM32_USB_Device_Library/Core/usbd_ctlreq.cpp ****   case USB_DESC_TYPE_DEVICE:
 333:Middlewares/ST/STM32_USB_Device_Library/Core/usbd_ctlreq.cpp ****     pbuf = pdev->pDesc->GetDeviceDescriptor(pdev->dev_speed, &len);
 601              		.loc 1 333 0
 602 0040 7B68     		ldr	r3, [r7, #4]	@ tmp183, pdev
 603 0042 D3F81032 		ldr	r3, [r3, #528]	@ D.7853, pdev_9(D)->pDesc
 604 0046 1B68     		ldr	r3, [r3, #0]	@ D.7854, D.7853_10->GetDeviceDescriptor
 605 0048 7A68     		ldr	r2, [r7, #4]	@ tmp184, pdev
 606 004a 117C     		ldrb	r1, [r2, #16]	@ zero_extendqisi2	@ D.7855, pdev_9(D)->dev_speed
 607 004c 07F10A02 		add	r2, r7, #10	@ tmp185,,
 608 0050 0846     		mov	r0, r1	@, D.7855
 609 0052 1146     		mov	r1, r2	@, tmp185
 610 0054 9847     		blx	r3	@ D.7854
 611 0056 F860     		str	r0, [r7, #12]	@, pbuf
 334:Middlewares/ST/STM32_USB_Device_Library/Core/usbd_ctlreq.cpp ****     break;
 612              		.loc 1 334 0
 613 0058 BDE0     		b	.L67	@
 614              	.L62:
 335:Middlewares/ST/STM32_USB_Device_Library/Core/usbd_ctlreq.cpp ****     
 336:Middlewares/ST/STM32_USB_Device_Library/Core/usbd_ctlreq.cpp ****   case USB_DESC_TYPE_CONFIGURATION:     
 337:Middlewares/ST/STM32_USB_Device_Library/Core/usbd_ctlreq.cpp ****     if(pdev->dev_speed == USBD_SPEED_HIGH )   
 615              		.loc 1 337 0
 616 005a 7B68     		ldr	r3, [r7, #4]	@ tmp186, pdev
 617 005c 1B7C     		ldrb	r3, [r3, #16]	@ zero_extendqisi2	@ D.7856, pdev_9(D)->dev_speed
 618 005e 002B     		cmp	r3, #0	@ D.7856,
 619 0060 0FD1     		bne	.L68	@,
 338:Middlewares/ST/STM32_USB_Device_Library/Core/usbd_ctlreq.cpp ****     {
 339:Middlewares/ST/STM32_USB_Device_Library/Core/usbd_ctlreq.cpp ****       pbuf   = (uint8_t *)pdev->pClass->GetHSConfigDescriptor(&len);
 620              		.loc 1 339 0
 621 0062 7B68     		ldr	r3, [r7, #4]	@ tmp187, pdev
 622 0064 D3F81432 		ldr	r3, [r3, #532]	@ D.7859, pdev_9(D)->pClass
 623 0068 9B6A     		ldr	r3, [r3, #40]	@ D.7860, D.7859_15->GetHSConfigDescriptor
ARM GAS  /tmp/ccImnKuM.s 			page 18


 624 006a 07F10A02 		add	r2, r7, #10	@ tmp188,,
 625 006e 1046     		mov	r0, r2	@, tmp188
 626 0070 9847     		blx	r3	@ D.7860
 627 0072 F860     		str	r0, [r7, #12]	@, pbuf
 340:Middlewares/ST/STM32_USB_Device_Library/Core/usbd_ctlreq.cpp ****       pbuf[1] = USB_DESC_TYPE_CONFIGURATION;
 628              		.loc 1 340 0
 629 0074 FB68     		ldr	r3, [r7, #12]	@ tmp189, pbuf
 630 0076 03F10103 		add	r3, r3, #1	@ D.7861, tmp189,
 631 007a 4FF00202 		mov	r2, #2	@ tmp190,
 632 007e 1A70     		strb	r2, [r3, #0]	@ tmp191, *D.7861_18
 341:Middlewares/ST/STM32_USB_Device_Library/Core/usbd_ctlreq.cpp ****     }
 342:Middlewares/ST/STM32_USB_Device_Library/Core/usbd_ctlreq.cpp ****     else
 343:Middlewares/ST/STM32_USB_Device_Library/Core/usbd_ctlreq.cpp ****     {
 344:Middlewares/ST/STM32_USB_Device_Library/Core/usbd_ctlreq.cpp ****       pbuf   = (uint8_t *)pdev->pClass->GetFSConfigDescriptor(&len);
 345:Middlewares/ST/STM32_USB_Device_Library/Core/usbd_ctlreq.cpp ****       pbuf[1] = USB_DESC_TYPE_CONFIGURATION;
 346:Middlewares/ST/STM32_USB_Device_Library/Core/usbd_ctlreq.cpp ****     }
 347:Middlewares/ST/STM32_USB_Device_Library/Core/usbd_ctlreq.cpp ****     break;
 633              		.loc 1 347 0
 634 0080 A9E0     		b	.L67	@
 635              	.L68:
 344:Middlewares/ST/STM32_USB_Device_Library/Core/usbd_ctlreq.cpp ****       pbuf   = (uint8_t *)pdev->pClass->GetFSConfigDescriptor(&len);
 636              		.loc 1 344 0
 637 0082 7B68     		ldr	r3, [r7, #4]	@ tmp192, pdev
 638 0084 D3F81432 		ldr	r3, [r3, #532]	@ D.7863, pdev_9(D)->pClass
 639 0088 DB6A     		ldr	r3, [r3, #44]	@ D.7864, D.7863_19->GetFSConfigDescriptor
 640 008a 07F10A02 		add	r2, r7, #10	@ tmp193,,
 641 008e 1046     		mov	r0, r2	@, tmp193
 642 0090 9847     		blx	r3	@ D.7864
 643 0092 F860     		str	r0, [r7, #12]	@, pbuf
 345:Middlewares/ST/STM32_USB_Device_Library/Core/usbd_ctlreq.cpp ****       pbuf[1] = USB_DESC_TYPE_CONFIGURATION;
 644              		.loc 1 345 0
 645 0094 FB68     		ldr	r3, [r7, #12]	@ tmp194, pbuf
 646 0096 03F10103 		add	r3, r3, #1	@ D.7865, tmp194,
 647 009a 4FF00202 		mov	r2, #2	@ tmp195,
 648 009e 1A70     		strb	r2, [r3, #0]	@ tmp196, *D.7865_22
 649              		.loc 1 347 0
 650 00a0 99E0     		b	.L67	@
 651              	.L63:
 348:Middlewares/ST/STM32_USB_Device_Library/Core/usbd_ctlreq.cpp ****     
 349:Middlewares/ST/STM32_USB_Device_Library/Core/usbd_ctlreq.cpp ****   case USB_DESC_TYPE_STRING:
 350:Middlewares/ST/STM32_USB_Device_Library/Core/usbd_ctlreq.cpp ****     switch ((uint8_t)(req->wValue))
 652              		.loc 1 350 0
 653 00a2 3B68     		ldr	r3, [r7, #0]	@ tmp197, req
 654 00a4 5B88     		ldrh	r3, [r3, #2]	@ D.7867, req_5(D)->wValue
 655 00a6 DBB2     		uxtb	r3, r3	@ D.7868, D.7867
 656 00a8 052B     		cmp	r3, #5	@ D.7869,
 657 00aa 5DD8     		bhi	.L70	@
 658 00ac 01A2     		adr	r2, .L77	@,
 659 00ae 52F823F0 		ldr	pc, [r2, r3, lsl #2]	@, D.7869
 660 00b2 00BF     		.align	2
 661              	.L77:
 662 00b4 CD000000 		.word	.L71+1
 663 00b8 E7000000 		.word	.L72+1
 664 00bc 01010000 		.word	.L73+1
 665 00c0 1B010000 		.word	.L74+1
 666 00c4 35010000 		.word	.L75+1
 667 00c8 4F010000 		.word	.L76+1
ARM GAS  /tmp/ccImnKuM.s 			page 19


 668              	.L71:
 351:Middlewares/ST/STM32_USB_Device_Library/Core/usbd_ctlreq.cpp ****     {
 352:Middlewares/ST/STM32_USB_Device_Library/Core/usbd_ctlreq.cpp ****     case USBD_IDX_LANGID_STR:
 353:Middlewares/ST/STM32_USB_Device_Library/Core/usbd_ctlreq.cpp ****      pbuf = pdev->pDesc->GetLangIDStrDescriptor(pdev->dev_speed, &len);        
 669              		.loc 1 353 0
 670 00cc 7B68     		ldr	r3, [r7, #4]	@ tmp198, pdev
 671 00ce D3F81032 		ldr	r3, [r3, #528]	@ D.7870, pdev_9(D)->pDesc
 672 00d2 5B68     		ldr	r3, [r3, #4]	@ D.7871, D.7870_26->GetLangIDStrDescriptor
 673 00d4 7A68     		ldr	r2, [r7, #4]	@ tmp199, pdev
 674 00d6 117C     		ldrb	r1, [r2, #16]	@ zero_extendqisi2	@ D.7872, pdev_9(D)->dev_speed
 675 00d8 07F10A02 		add	r2, r7, #10	@ tmp200,,
 676 00dc 0846     		mov	r0, r1	@, D.7872
 677 00de 1146     		mov	r1, r2	@, tmp200
 678 00e0 9847     		blx	r3	@ D.7871
 679 00e2 F860     		str	r0, [r7, #12]	@, pbuf
 354:Middlewares/ST/STM32_USB_Device_Library/Core/usbd_ctlreq.cpp ****       break;
 680              		.loc 1 354 0
 681 00e4 45E0     		b	.L78	@
 682              	.L72:
 355:Middlewares/ST/STM32_USB_Device_Library/Core/usbd_ctlreq.cpp ****       
 356:Middlewares/ST/STM32_USB_Device_Library/Core/usbd_ctlreq.cpp ****     case USBD_IDX_MFC_STR:
 357:Middlewares/ST/STM32_USB_Device_Library/Core/usbd_ctlreq.cpp ****       pbuf = pdev->pDesc->GetManufacturerStrDescriptor(pdev->dev_speed, &len);
 683              		.loc 1 357 0
 684 00e6 7B68     		ldr	r3, [r7, #4]	@ tmp201, pdev
 685 00e8 D3F81032 		ldr	r3, [r3, #528]	@ D.7873, pdev_9(D)->pDesc
 686 00ec 9B68     		ldr	r3, [r3, #8]	@ D.7874, D.7873_30->GetManufacturerStrDescriptor
 687 00ee 7A68     		ldr	r2, [r7, #4]	@ tmp202, pdev
 688 00f0 117C     		ldrb	r1, [r2, #16]	@ zero_extendqisi2	@ D.7875, pdev_9(D)->dev_speed
 689 00f2 07F10A02 		add	r2, r7, #10	@ tmp203,,
 690 00f6 0846     		mov	r0, r1	@, D.7875
 691 00f8 1146     		mov	r1, r2	@, tmp203
 692 00fa 9847     		blx	r3	@ D.7874
 693 00fc F860     		str	r0, [r7, #12]	@, pbuf
 358:Middlewares/ST/STM32_USB_Device_Library/Core/usbd_ctlreq.cpp ****       break;
 694              		.loc 1 358 0
 695 00fe 38E0     		b	.L78	@
 696              	.L73:
 359:Middlewares/ST/STM32_USB_Device_Library/Core/usbd_ctlreq.cpp ****       
 360:Middlewares/ST/STM32_USB_Device_Library/Core/usbd_ctlreq.cpp ****     case USBD_IDX_PRODUCT_STR:
 361:Middlewares/ST/STM32_USB_Device_Library/Core/usbd_ctlreq.cpp ****       pbuf = pdev->pDesc->GetProductStrDescriptor(pdev->dev_speed, &len);
 697              		.loc 1 361 0
 698 0100 7B68     		ldr	r3, [r7, #4]	@ tmp204, pdev
 699 0102 D3F81032 		ldr	r3, [r3, #528]	@ D.7876, pdev_9(D)->pDesc
 700 0106 DB68     		ldr	r3, [r3, #12]	@ D.7877, D.7876_34->GetProductStrDescriptor
 701 0108 7A68     		ldr	r2, [r7, #4]	@ tmp205, pdev
 702 010a 117C     		ldrb	r1, [r2, #16]	@ zero_extendqisi2	@ D.7878, pdev_9(D)->dev_speed
 703 010c 07F10A02 		add	r2, r7, #10	@ tmp206,,
 704 0110 0846     		mov	r0, r1	@, D.7878
 705 0112 1146     		mov	r1, r2	@, tmp206
 706 0114 9847     		blx	r3	@ D.7877
 707 0116 F860     		str	r0, [r7, #12]	@, pbuf
 362:Middlewares/ST/STM32_USB_Device_Library/Core/usbd_ctlreq.cpp ****       break;
 708              		.loc 1 362 0
 709 0118 2BE0     		b	.L78	@
 710              	.L74:
 363:Middlewares/ST/STM32_USB_Device_Library/Core/usbd_ctlreq.cpp ****       
 364:Middlewares/ST/STM32_USB_Device_Library/Core/usbd_ctlreq.cpp ****     case USBD_IDX_SERIAL_STR:
ARM GAS  /tmp/ccImnKuM.s 			page 20


 365:Middlewares/ST/STM32_USB_Device_Library/Core/usbd_ctlreq.cpp ****       pbuf = pdev->pDesc->GetSerialStrDescriptor(pdev->dev_speed, &len);
 711              		.loc 1 365 0
 712 011a 7B68     		ldr	r3, [r7, #4]	@ tmp207, pdev
 713 011c D3F81032 		ldr	r3, [r3, #528]	@ D.7879, pdev_9(D)->pDesc
 714 0120 1B69     		ldr	r3, [r3, #16]	@ D.7880, D.7879_38->GetSerialStrDescriptor
 715 0122 7A68     		ldr	r2, [r7, #4]	@ tmp208, pdev
 716 0124 117C     		ldrb	r1, [r2, #16]	@ zero_extendqisi2	@ D.7881, pdev_9(D)->dev_speed
 717 0126 07F10A02 		add	r2, r7, #10	@ tmp209,,
 718 012a 0846     		mov	r0, r1	@, D.7881
 719 012c 1146     		mov	r1, r2	@, tmp209
 720 012e 9847     		blx	r3	@ D.7880
 721 0130 F860     		str	r0, [r7, #12]	@, pbuf
 366:Middlewares/ST/STM32_USB_Device_Library/Core/usbd_ctlreq.cpp ****       break;
 722              		.loc 1 366 0
 723 0132 1EE0     		b	.L78	@
 724              	.L75:
 367:Middlewares/ST/STM32_USB_Device_Library/Core/usbd_ctlreq.cpp ****       
 368:Middlewares/ST/STM32_USB_Device_Library/Core/usbd_ctlreq.cpp ****     case USBD_IDX_CONFIG_STR:
 369:Middlewares/ST/STM32_USB_Device_Library/Core/usbd_ctlreq.cpp ****       pbuf = pdev->pDesc->GetConfigurationStrDescriptor(pdev->dev_speed, &len);
 725              		.loc 1 369 0
 726 0134 7B68     		ldr	r3, [r7, #4]	@ tmp210, pdev
 727 0136 D3F81032 		ldr	r3, [r3, #528]	@ D.7882, pdev_9(D)->pDesc
 728 013a 5B69     		ldr	r3, [r3, #20]	@ D.7883, D.7882_42->GetConfigurationStrDescriptor
 729 013c 7A68     		ldr	r2, [r7, #4]	@ tmp211, pdev
 730 013e 117C     		ldrb	r1, [r2, #16]	@ zero_extendqisi2	@ D.7884, pdev_9(D)->dev_speed
 731 0140 07F10A02 		add	r2, r7, #10	@ tmp212,,
 732 0144 0846     		mov	r0, r1	@, D.7884
 733 0146 1146     		mov	r1, r2	@, tmp212
 734 0148 9847     		blx	r3	@ D.7883
 735 014a F860     		str	r0, [r7, #12]	@, pbuf
 370:Middlewares/ST/STM32_USB_Device_Library/Core/usbd_ctlreq.cpp ****       break;
 736              		.loc 1 370 0
 737 014c 11E0     		b	.L78	@
 738              	.L76:
 371:Middlewares/ST/STM32_USB_Device_Library/Core/usbd_ctlreq.cpp ****       
 372:Middlewares/ST/STM32_USB_Device_Library/Core/usbd_ctlreq.cpp ****     case USBD_IDX_INTERFACE_STR:
 373:Middlewares/ST/STM32_USB_Device_Library/Core/usbd_ctlreq.cpp ****       pbuf = pdev->pDesc->GetInterfaceStrDescriptor(pdev->dev_speed, &len);
 739              		.loc 1 373 0
 740 014e 7B68     		ldr	r3, [r7, #4]	@ tmp213, pdev
 741 0150 D3F81032 		ldr	r3, [r3, #528]	@ D.7885, pdev_9(D)->pDesc
 742 0154 9B69     		ldr	r3, [r3, #24]	@ D.7886, D.7885_46->GetInterfaceStrDescriptor
 743 0156 7A68     		ldr	r2, [r7, #4]	@ tmp214, pdev
 744 0158 117C     		ldrb	r1, [r2, #16]	@ zero_extendqisi2	@ D.7887, pdev_9(D)->dev_speed
 745 015a 07F10A02 		add	r2, r7, #10	@ tmp215,,
 746 015e 0846     		mov	r0, r1	@, D.7887
 747 0160 1146     		mov	r1, r2	@, tmp215
 748 0162 9847     		blx	r3	@ D.7886
 749 0164 F860     		str	r0, [r7, #12]	@, pbuf
 374:Middlewares/ST/STM32_USB_Device_Library/Core/usbd_ctlreq.cpp ****       break;
 750              		.loc 1 374 0
 751 0166 04E0     		b	.L78	@
 752              	.L70:
 375:Middlewares/ST/STM32_USB_Device_Library/Core/usbd_ctlreq.cpp ****       
 376:Middlewares/ST/STM32_USB_Device_Library/Core/usbd_ctlreq.cpp ****     default:
 377:Middlewares/ST/STM32_USB_Device_Library/Core/usbd_ctlreq.cpp **** #if (USBD_SUPPORT_USER_STRING == 1)
 378:Middlewares/ST/STM32_USB_Device_Library/Core/usbd_ctlreq.cpp ****       pbuf = pdev->pClass->GetUsrStrDescriptor(pdev, (req->wValue) , &len);
 379:Middlewares/ST/STM32_USB_Device_Library/Core/usbd_ctlreq.cpp ****       break;
ARM GAS  /tmp/ccImnKuM.s 			page 21


 380:Middlewares/ST/STM32_USB_Device_Library/Core/usbd_ctlreq.cpp **** #else      
 381:Middlewares/ST/STM32_USB_Device_Library/Core/usbd_ctlreq.cpp ****        USBD_CtlError(pdev , req);
 753              		.loc 1 381 0
 754 0168 7868     		ldr	r0, [r7, #4]	@, pdev
 755 016a 3968     		ldr	r1, [r7, #0]	@, req
 756 016c FFF7FEFF 		bl	_Z13USBD_CtlErrorP19_USBD_HandleTypeDefP13usb_setup_req	@
 757 0170 48E0     		b	.L59	@
 758              	.L78:
 382:Middlewares/ST/STM32_USB_Device_Library/Core/usbd_ctlreq.cpp ****       return;
 383:Middlewares/ST/STM32_USB_Device_Library/Core/usbd_ctlreq.cpp **** #endif   
 384:Middlewares/ST/STM32_USB_Device_Library/Core/usbd_ctlreq.cpp ****     }
 385:Middlewares/ST/STM32_USB_Device_Library/Core/usbd_ctlreq.cpp ****     break;
 759              		.loc 1 385 0
 760 0172 30E0     		b	.L67	@
 761              	.L64:
 386:Middlewares/ST/STM32_USB_Device_Library/Core/usbd_ctlreq.cpp ****   case USB_DESC_TYPE_DEVICE_QUALIFIER:                   
 387:Middlewares/ST/STM32_USB_Device_Library/Core/usbd_ctlreq.cpp **** 
 388:Middlewares/ST/STM32_USB_Device_Library/Core/usbd_ctlreq.cpp ****     if(pdev->dev_speed == USBD_SPEED_HIGH  )   
 762              		.loc 1 388 0
 763 0174 7B68     		ldr	r3, [r7, #4]	@ tmp216, pdev
 764 0176 1B7C     		ldrb	r3, [r3, #16]	@ zero_extendqisi2	@ D.7888, pdev_9(D)->dev_speed
 765 0178 002B     		cmp	r3, #0	@ D.7888,
 766 017a 09D1     		bne	.L80	@,
 389:Middlewares/ST/STM32_USB_Device_Library/Core/usbd_ctlreq.cpp ****     {
 390:Middlewares/ST/STM32_USB_Device_Library/Core/usbd_ctlreq.cpp ****       pbuf   = (uint8_t *)pdev->pClass->GetDeviceQualifierDescriptor(&len);
 767              		.loc 1 390 0
 768 017c 7B68     		ldr	r3, [r7, #4]	@ tmp217, pdev
 769 017e D3F81432 		ldr	r3, [r3, #532]	@ D.7891, pdev_9(D)->pClass
 770 0182 5B6B     		ldr	r3, [r3, #52]	@ D.7892, D.7891_51->GetDeviceQualifierDescriptor
 771 0184 07F10A02 		add	r2, r7, #10	@ tmp218,,
 772 0188 1046     		mov	r0, r2	@, tmp218
 773 018a 9847     		blx	r3	@ D.7892
 774 018c F860     		str	r0, [r7, #12]	@, pbuf
 391:Middlewares/ST/STM32_USB_Device_Library/Core/usbd_ctlreq.cpp ****       break;
 775              		.loc 1 391 0
 776 018e 22E0     		b	.L67	@
 777              	.L80:
 392:Middlewares/ST/STM32_USB_Device_Library/Core/usbd_ctlreq.cpp ****     }
 393:Middlewares/ST/STM32_USB_Device_Library/Core/usbd_ctlreq.cpp ****     else
 394:Middlewares/ST/STM32_USB_Device_Library/Core/usbd_ctlreq.cpp ****     {
 395:Middlewares/ST/STM32_USB_Device_Library/Core/usbd_ctlreq.cpp ****       USBD_CtlError(pdev , req);
 778              		.loc 1 395 0
 779 0190 7868     		ldr	r0, [r7, #4]	@, pdev
 780 0192 3968     		ldr	r1, [r7, #0]	@, req
 781 0194 FFF7FEFF 		bl	_Z13USBD_CtlErrorP19_USBD_HandleTypeDefP13usb_setup_req	@
 782 0198 34E0     		b	.L59	@
 783              	.L65:
 396:Middlewares/ST/STM32_USB_Device_Library/Core/usbd_ctlreq.cpp ****       return;
 397:Middlewares/ST/STM32_USB_Device_Library/Core/usbd_ctlreq.cpp ****     } 
 398:Middlewares/ST/STM32_USB_Device_Library/Core/usbd_ctlreq.cpp **** 
 399:Middlewares/ST/STM32_USB_Device_Library/Core/usbd_ctlreq.cpp ****   case USB_DESC_TYPE_OTHER_SPEED_CONFIGURATION:
 400:Middlewares/ST/STM32_USB_Device_Library/Core/usbd_ctlreq.cpp ****     if(pdev->dev_speed == USBD_SPEED_HIGH  )   
 784              		.loc 1 400 0
 785 019a 7B68     		ldr	r3, [r7, #4]	@ tmp219, pdev
 786 019c 1B7C     		ldrb	r3, [r3, #16]	@ zero_extendqisi2	@ D.7893, pdev_9(D)->dev_speed
 787 019e 002B     		cmp	r3, #0	@ D.7893,
 788 01a0 0FD1     		bne	.L81	@,
ARM GAS  /tmp/ccImnKuM.s 			page 22


 401:Middlewares/ST/STM32_USB_Device_Library/Core/usbd_ctlreq.cpp ****     {
 402:Middlewares/ST/STM32_USB_Device_Library/Core/usbd_ctlreq.cpp ****       pbuf   = (uint8_t *)pdev->pClass->GetOtherSpeedConfigDescriptor(&len);
 789              		.loc 1 402 0
 790 01a2 7B68     		ldr	r3, [r7, #4]	@ tmp220, pdev
 791 01a4 D3F81432 		ldr	r3, [r3, #532]	@ D.7896, pdev_9(D)->pClass
 792 01a8 1B6B     		ldr	r3, [r3, #48]	@ D.7897, D.7896_55->GetOtherSpeedConfigDescriptor
 793 01aa 07F10A02 		add	r2, r7, #10	@ tmp221,,
 794 01ae 1046     		mov	r0, r2	@, tmp221
 795 01b0 9847     		blx	r3	@ D.7897
 796 01b2 F860     		str	r0, [r7, #12]	@, pbuf
 403:Middlewares/ST/STM32_USB_Device_Library/Core/usbd_ctlreq.cpp ****       pbuf[1] = USB_DESC_TYPE_OTHER_SPEED_CONFIGURATION;
 797              		.loc 1 403 0
 798 01b4 FB68     		ldr	r3, [r7, #12]	@ tmp222, pbuf
 799 01b6 03F10103 		add	r3, r3, #1	@ D.7898, tmp222,
 800 01ba 4FF00702 		mov	r2, #7	@ tmp223,
 801 01be 1A70     		strb	r2, [r3, #0]	@ tmp224, *D.7898_58
 404:Middlewares/ST/STM32_USB_Device_Library/Core/usbd_ctlreq.cpp ****       break; 
 802              		.loc 1 404 0
 803 01c0 09E0     		b	.L67	@
 804              	.L81:
 405:Middlewares/ST/STM32_USB_Device_Library/Core/usbd_ctlreq.cpp ****     }
 406:Middlewares/ST/STM32_USB_Device_Library/Core/usbd_ctlreq.cpp ****     else
 407:Middlewares/ST/STM32_USB_Device_Library/Core/usbd_ctlreq.cpp ****     {
 408:Middlewares/ST/STM32_USB_Device_Library/Core/usbd_ctlreq.cpp ****       USBD_CtlError(pdev , req);
 805              		.loc 1 408 0
 806 01c2 7868     		ldr	r0, [r7, #4]	@, pdev
 807 01c4 3968     		ldr	r1, [r7, #0]	@, req
 808 01c6 FFF7FEFF 		bl	_Z13USBD_CtlErrorP19_USBD_HandleTypeDefP13usb_setup_req	@
 809 01ca 1BE0     		b	.L59	@
 810              	.L60:
 409:Middlewares/ST/STM32_USB_Device_Library/Core/usbd_ctlreq.cpp ****       return;
 410:Middlewares/ST/STM32_USB_Device_Library/Core/usbd_ctlreq.cpp ****     }
 411:Middlewares/ST/STM32_USB_Device_Library/Core/usbd_ctlreq.cpp **** 
 412:Middlewares/ST/STM32_USB_Device_Library/Core/usbd_ctlreq.cpp ****   default: 
 413:Middlewares/ST/STM32_USB_Device_Library/Core/usbd_ctlreq.cpp ****      USBD_CtlError(pdev , req);
 811              		.loc 1 413 0
 812 01cc 7868     		ldr	r0, [r7, #4]	@, pdev
 813 01ce 3968     		ldr	r1, [r7, #0]	@, req
 814 01d0 FFF7FEFF 		bl	_Z13USBD_CtlErrorP19_USBD_HandleTypeDefP13usb_setup_req	@
 815 01d4 16E0     		b	.L59	@
 816              	.L67:
 414:Middlewares/ST/STM32_USB_Device_Library/Core/usbd_ctlreq.cpp ****     return;
 415:Middlewares/ST/STM32_USB_Device_Library/Core/usbd_ctlreq.cpp ****   }
 416:Middlewares/ST/STM32_USB_Device_Library/Core/usbd_ctlreq.cpp ****   
 417:Middlewares/ST/STM32_USB_Device_Library/Core/usbd_ctlreq.cpp ****   if((len != 0)&& (req->wLength != 0))
 817              		.loc 1 417 0
 818 01d6 7B89     		ldrh	r3, [r7, #10]	@ len.13, len
 819 01d8 002B     		cmp	r3, #0	@ len.13,
 820 01da 13D0     		beq	.L59	@,
 821              		.loc 1 417 0 is_stmt 0 discriminator 1
 822 01dc 3B68     		ldr	r3, [r7, #0]	@ tmp225, req
 823 01de DB88     		ldrh	r3, [r3, #6]	@ D.7902, req_5(D)->wLength
 824 01e0 002B     		cmp	r3, #0	@ D.7902,
 825 01e2 0FD0     		beq	.L59	@,
 418:Middlewares/ST/STM32_USB_Device_Library/Core/usbd_ctlreq.cpp ****   {
 419:Middlewares/ST/STM32_USB_Device_Library/Core/usbd_ctlreq.cpp ****     
 420:Middlewares/ST/STM32_USB_Device_Library/Core/usbd_ctlreq.cpp ****     len = MIN(len , req->wLength);
ARM GAS  /tmp/ccImnKuM.s 			page 23


 826              		.loc 1 420 0 is_stmt 1
 827 01e4 3B68     		ldr	r3, [r7, #0]	@ tmp226, req
 828 01e6 DA88     		ldrh	r2, [r3, #6]	@ D.7906, req_5(D)->wLength
 829 01e8 7B89     		ldrh	r3, [r7, #10]	@ len.15, len
 830 01ea 9A42     		cmp	r2, r3	@ D.7906, len.15
 831 01ec 02D8     		bhi	.L83	@,
 832              		.loc 1 420 0 is_stmt 0 discriminator 1
 833 01ee 3B68     		ldr	r3, [r7, #0]	@ tmp227, req
 834 01f0 DB88     		ldrh	r3, [r3, #6]	@ iftmp.14, req_5(D)->wLength
 835 01f2 00E0     		b	.L84	@
 836              	.L83:
 837              		.loc 1 420 0 discriminator 2
 838 01f4 7B89     		ldrh	r3, [r7, #10]	@ iftmp.14, len
 839              	.L84:
 840              		.loc 1 420 0 discriminator 3
 841 01f6 7B81     		strh	r3, [r7, #10]	@ movhi	@ tmp228, len
 421:Middlewares/ST/STM32_USB_Device_Library/Core/usbd_ctlreq.cpp ****     
 422:Middlewares/ST/STM32_USB_Device_Library/Core/usbd_ctlreq.cpp ****     USBD_CtlSendData (pdev, 
 423:Middlewares/ST/STM32_USB_Device_Library/Core/usbd_ctlreq.cpp ****                       pbuf,
 424:Middlewares/ST/STM32_USB_Device_Library/Core/usbd_ctlreq.cpp ****                       len);
 842              		.loc 1 424 0 is_stmt 1 discriminator 3
 843 01f8 7B89     		ldrh	r3, [r7, #10]	@ len.16, len
 844 01fa 7868     		ldr	r0, [r7, #4]	@, pdev
 845 01fc F968     		ldr	r1, [r7, #12]	@, pbuf
 846 01fe 1A46     		mov	r2, r3	@, len.16
 847 0200 FFF7FEFF 		bl	_Z16USBD_CtlSendDataP19_USBD_HandleTypeDefPht	@
 848              	.L59:
 849              	.LBE5:
 425:Middlewares/ST/STM32_USB_Device_Library/Core/usbd_ctlreq.cpp ****   }
 426:Middlewares/ST/STM32_USB_Device_Library/Core/usbd_ctlreq.cpp ****   
 427:Middlewares/ST/STM32_USB_Device_Library/Core/usbd_ctlreq.cpp **** }
 850              		.loc 1 427 0
 851 0204 07F11007 		add	r7, r7, #16	@,,
 852 0208 BD46     		mov	sp, r7
 853 020a 80BD     		pop	{r7, pc}
 854              		.cfi_endproc
 855              	.LFE59:
 856              		.size	_ZL18USBD_GetDescriptorP19_USBD_HandleTypeDefP13usb_setup_req, .-_ZL18USBD_GetDescriptorP19_
 857              		.section	.text._ZL15USBD_SetAddressP19_USBD_HandleTypeDefP13usb_setup_req,"ax",%progbits
 858              		.align	2
 859              		.thumb
 860              		.thumb_func
 861              		.type	_ZL15USBD_SetAddressP19_USBD_HandleTypeDefP13usb_setup_req, %function
 862              	_ZL15USBD_SetAddressP19_USBD_HandleTypeDefP13usb_setup_req:
 863              	.LFB60:
 428:Middlewares/ST/STM32_USB_Device_Library/Core/usbd_ctlreq.cpp **** 
 429:Middlewares/ST/STM32_USB_Device_Library/Core/usbd_ctlreq.cpp **** /**
 430:Middlewares/ST/STM32_USB_Device_Library/Core/usbd_ctlreq.cpp **** * @brief  USBD_SetAddress
 431:Middlewares/ST/STM32_USB_Device_Library/Core/usbd_ctlreq.cpp **** *         Set device address
 432:Middlewares/ST/STM32_USB_Device_Library/Core/usbd_ctlreq.cpp **** * @param  pdev: device instance
 433:Middlewares/ST/STM32_USB_Device_Library/Core/usbd_ctlreq.cpp **** * @param  req: usb request
 434:Middlewares/ST/STM32_USB_Device_Library/Core/usbd_ctlreq.cpp **** * @retval status
 435:Middlewares/ST/STM32_USB_Device_Library/Core/usbd_ctlreq.cpp **** */
 436:Middlewares/ST/STM32_USB_Device_Library/Core/usbd_ctlreq.cpp **** static void USBD_SetAddress(USBD_HandleTypeDef *pdev , 
 437:Middlewares/ST/STM32_USB_Device_Library/Core/usbd_ctlreq.cpp ****                             USBD_SetupReqTypedef *req)
 438:Middlewares/ST/STM32_USB_Device_Library/Core/usbd_ctlreq.cpp **** {
 864              		.loc 1 438 0
ARM GAS  /tmp/ccImnKuM.s 			page 24


 865              		.cfi_startproc
 866              		@ args = 0, pretend = 0, frame = 16
 867              		@ frame_needed = 1, uses_anonymous_args = 0
 868 0000 80B5     		push	{r7, lr}	@
 869              	.LCFI12:
 870              		.cfi_def_cfa_offset 8
 871              		.cfi_offset 7, -8
 872              		.cfi_offset 14, -4
 873 0002 84B0     		sub	sp, sp, #16	@,,
 874              	.LCFI13:
 875              		.cfi_def_cfa_offset 24
 876 0004 00AF     		add	r7, sp, #0	@,,
 877              	.LCFI14:
 878              		.cfi_def_cfa_register 7
 879 0006 7860     		str	r0, [r7, #4]	@ pdev, pdev
 880 0008 3960     		str	r1, [r7, #0]	@ req, req
 881              	.LBB6:
 439:Middlewares/ST/STM32_USB_Device_Library/Core/usbd_ctlreq.cpp ****   uint8_t  dev_addr; 
 440:Middlewares/ST/STM32_USB_Device_Library/Core/usbd_ctlreq.cpp ****   
 441:Middlewares/ST/STM32_USB_Device_Library/Core/usbd_ctlreq.cpp ****   if ((req->wIndex == 0) && (req->wLength == 0)) 
 882              		.loc 1 441 0
 883 000a 3B68     		ldr	r3, [r7, #0]	@ tmp139, req
 884 000c 9B88     		ldrh	r3, [r3, #4]	@ D.7836, req_1(D)->wIndex
 885 000e 002B     		cmp	r3, #0	@ D.7836,
 886 0010 2ED1     		bne	.L87	@,
 887              		.loc 1 441 0 is_stmt 0 discriminator 1
 888 0012 3B68     		ldr	r3, [r7, #0]	@ tmp140, req
 889 0014 DB88     		ldrh	r3, [r3, #6]	@ D.7838, req_1(D)->wLength
 890 0016 002B     		cmp	r3, #0	@ D.7838,
 891 0018 2AD1     		bne	.L87	@,
 442:Middlewares/ST/STM32_USB_Device_Library/Core/usbd_ctlreq.cpp ****   {
 443:Middlewares/ST/STM32_USB_Device_Library/Core/usbd_ctlreq.cpp ****     dev_addr = (uint8_t)(req->wValue) & 0x7F;     
 892              		.loc 1 443 0 is_stmt 1
 893 001a 3B68     		ldr	r3, [r7, #0]	@ tmp141, req
 894 001c 5B88     		ldrh	r3, [r3, #2]	@ D.7840, req_1(D)->wValue
 895 001e DBB2     		uxtb	r3, r3	@ D.7841, D.7840
 896 0020 03F07F03 		and	r3, r3, #127	@ tmp142, D.7841,
 897 0024 FB73     		strb	r3, [r7, #15]	@ tmp143, dev_addr
 444:Middlewares/ST/STM32_USB_Device_Library/Core/usbd_ctlreq.cpp ****     
 445:Middlewares/ST/STM32_USB_Device_Library/Core/usbd_ctlreq.cpp ****     if (pdev->dev_state == USBD_STATE_CONFIGURED) 
 898              		.loc 1 445 0
 899 0026 7B68     		ldr	r3, [r7, #4]	@ tmp144, pdev
 900 0028 93F8FC31 		ldrb	r3, [r3, #508]	@ zero_extendqisi2	@ D.7842, pdev_7(D)->dev_state
 901 002c 032B     		cmp	r3, #3	@ D.7842,
 902 002e 04D1     		bne	.L88	@,
 446:Middlewares/ST/STM32_USB_Device_Library/Core/usbd_ctlreq.cpp ****     {
 447:Middlewares/ST/STM32_USB_Device_Library/Core/usbd_ctlreq.cpp ****       USBD_CtlError(pdev , req);
 903              		.loc 1 447 0
 904 0030 7868     		ldr	r0, [r7, #4]	@, pdev
 905 0032 3968     		ldr	r1, [r7, #0]	@, req
 906 0034 FFF7FEFF 		bl	_Z13USBD_CtlErrorP19_USBD_HandleTypeDefP13usb_setup_req	@
 445:Middlewares/ST/STM32_USB_Device_Library/Core/usbd_ctlreq.cpp ****     if (pdev->dev_state == USBD_STATE_CONFIGURED) 
 907              		.loc 1 445 0
 908 0038 1EE0     		b	.L86	@
 909              	.L88:
 448:Middlewares/ST/STM32_USB_Device_Library/Core/usbd_ctlreq.cpp ****     } 
 449:Middlewares/ST/STM32_USB_Device_Library/Core/usbd_ctlreq.cpp ****     else 
ARM GAS  /tmp/ccImnKuM.s 			page 25


 450:Middlewares/ST/STM32_USB_Device_Library/Core/usbd_ctlreq.cpp ****     {
 451:Middlewares/ST/STM32_USB_Device_Library/Core/usbd_ctlreq.cpp ****       pdev->dev_address = dev_addr;
 910              		.loc 1 451 0
 911 003a 7B68     		ldr	r3, [r7, #4]	@ tmp145, pdev
 912 003c FA7B     		ldrb	r2, [r7, #15]	@ tmp146, dev_addr
 913 003e 83F8FE21 		strb	r2, [r3, #510]	@ tmp146, pdev_7(D)->dev_address
 452:Middlewares/ST/STM32_USB_Device_Library/Core/usbd_ctlreq.cpp ****       USBD_LL_SetUSBAddress(pdev, dev_addr);               
 914              		.loc 1 452 0
 915 0042 FB7B     		ldrb	r3, [r7, #15]	@ zero_extendqisi2	@ tmp147, dev_addr
 916 0044 7868     		ldr	r0, [r7, #4]	@, pdev
 917 0046 1946     		mov	r1, r3	@, tmp147
 918 0048 FFF7FEFF 		bl	_Z21USBD_LL_SetUSBAddressP19_USBD_HandleTypeDefh	@
 453:Middlewares/ST/STM32_USB_Device_Library/Core/usbd_ctlreq.cpp ****       USBD_CtlSendStatus(pdev);                         
 919              		.loc 1 453 0
 920 004c 7868     		ldr	r0, [r7, #4]	@, pdev
 921 004e FFF7FEFF 		bl	_Z18USBD_CtlSendStatusP19_USBD_HandleTypeDef	@
 454:Middlewares/ST/STM32_USB_Device_Library/Core/usbd_ctlreq.cpp ****       
 455:Middlewares/ST/STM32_USB_Device_Library/Core/usbd_ctlreq.cpp ****       if (dev_addr != 0) 
 922              		.loc 1 455 0
 923 0052 FB7B     		ldrb	r3, [r7, #15]	@ zero_extendqisi2	@ tmp148, dev_addr
 924 0054 002B     		cmp	r3, #0	@ tmp148,
 925 0056 05D0     		beq	.L90	@,
 456:Middlewares/ST/STM32_USB_Device_Library/Core/usbd_ctlreq.cpp ****       {
 457:Middlewares/ST/STM32_USB_Device_Library/Core/usbd_ctlreq.cpp ****         pdev->dev_state  = USBD_STATE_ADDRESSED;
 926              		.loc 1 457 0
 927 0058 7B68     		ldr	r3, [r7, #4]	@ tmp149, pdev
 928 005a 4FF00202 		mov	r2, #2	@ tmp150,
 929 005e 83F8FC21 		strb	r2, [r3, #508]	@ tmp151, pdev_7(D)->dev_state
 445:Middlewares/ST/STM32_USB_Device_Library/Core/usbd_ctlreq.cpp ****     if (pdev->dev_state == USBD_STATE_CONFIGURED) 
 930              		.loc 1 445 0
 931 0062 09E0     		b	.L86	@
 932              	.L90:
 458:Middlewares/ST/STM32_USB_Device_Library/Core/usbd_ctlreq.cpp ****       } 
 459:Middlewares/ST/STM32_USB_Device_Library/Core/usbd_ctlreq.cpp ****       else 
 460:Middlewares/ST/STM32_USB_Device_Library/Core/usbd_ctlreq.cpp ****       {
 461:Middlewares/ST/STM32_USB_Device_Library/Core/usbd_ctlreq.cpp ****         pdev->dev_state  = USBD_STATE_DEFAULT; 
 933              		.loc 1 461 0
 934 0064 7B68     		ldr	r3, [r7, #4]	@ tmp152, pdev
 935 0066 4FF00102 		mov	r2, #1	@ tmp153,
 936 006a 83F8FC21 		strb	r2, [r3, #508]	@ tmp154, pdev_7(D)->dev_state
 445:Middlewares/ST/STM32_USB_Device_Library/Core/usbd_ctlreq.cpp ****     if (pdev->dev_state == USBD_STATE_CONFIGURED) 
 937              		.loc 1 445 0
 938 006e 03E0     		b	.L86	@
 939              	.L87:
 462:Middlewares/ST/STM32_USB_Device_Library/Core/usbd_ctlreq.cpp ****       }
 463:Middlewares/ST/STM32_USB_Device_Library/Core/usbd_ctlreq.cpp ****     }
 464:Middlewares/ST/STM32_USB_Device_Library/Core/usbd_ctlreq.cpp ****   } 
 465:Middlewares/ST/STM32_USB_Device_Library/Core/usbd_ctlreq.cpp ****   else 
 466:Middlewares/ST/STM32_USB_Device_Library/Core/usbd_ctlreq.cpp ****   {
 467:Middlewares/ST/STM32_USB_Device_Library/Core/usbd_ctlreq.cpp ****      USBD_CtlError(pdev , req);                        
 940              		.loc 1 467 0
 941 0070 7868     		ldr	r0, [r7, #4]	@, pdev
 942 0072 3968     		ldr	r1, [r7, #0]	@, req
 943 0074 FFF7FEFF 		bl	_Z13USBD_CtlErrorP19_USBD_HandleTypeDefP13usb_setup_req	@
 944              	.L86:
 945              	.LBE6:
 468:Middlewares/ST/STM32_USB_Device_Library/Core/usbd_ctlreq.cpp ****   } 
ARM GAS  /tmp/ccImnKuM.s 			page 26


 469:Middlewares/ST/STM32_USB_Device_Library/Core/usbd_ctlreq.cpp **** }
 946              		.loc 1 469 0
 947 0078 07F11007 		add	r7, r7, #16	@,,
 948 007c BD46     		mov	sp, r7
 949 007e 80BD     		pop	{r7, pc}
 950              		.cfi_endproc
 951              	.LFE60:
 952              		.size	_ZL15USBD_SetAddressP19_USBD_HandleTypeDefP13usb_setup_req, .-_ZL15USBD_SetAddressP19_USBD_H
 953              		.section	.text._ZL14USBD_SetConfigP19_USBD_HandleTypeDefP13usb_setup_req,"ax",%progbits
 954              		.align	2
 955              		.thumb
 956              		.thumb_func
 957              		.type	_ZL14USBD_SetConfigP19_USBD_HandleTypeDefP13usb_setup_req, %function
 958              	_ZL14USBD_SetConfigP19_USBD_HandleTypeDefP13usb_setup_req:
 959              	.LFB61:
 470:Middlewares/ST/STM32_USB_Device_Library/Core/usbd_ctlreq.cpp **** 
 471:Middlewares/ST/STM32_USB_Device_Library/Core/usbd_ctlreq.cpp **** /**
 472:Middlewares/ST/STM32_USB_Device_Library/Core/usbd_ctlreq.cpp **** * @brief  USBD_SetConfig
 473:Middlewares/ST/STM32_USB_Device_Library/Core/usbd_ctlreq.cpp **** *         Handle Set device configuration request
 474:Middlewares/ST/STM32_USB_Device_Library/Core/usbd_ctlreq.cpp **** * @param  pdev: device instance
 475:Middlewares/ST/STM32_USB_Device_Library/Core/usbd_ctlreq.cpp **** * @param  req: usb request
 476:Middlewares/ST/STM32_USB_Device_Library/Core/usbd_ctlreq.cpp **** * @retval status
 477:Middlewares/ST/STM32_USB_Device_Library/Core/usbd_ctlreq.cpp **** */
 478:Middlewares/ST/STM32_USB_Device_Library/Core/usbd_ctlreq.cpp **** static void USBD_SetConfig(USBD_HandleTypeDef *pdev , 
 479:Middlewares/ST/STM32_USB_Device_Library/Core/usbd_ctlreq.cpp ****                            USBD_SetupReqTypedef *req)
 480:Middlewares/ST/STM32_USB_Device_Library/Core/usbd_ctlreq.cpp **** {
 960              		.loc 1 480 0
 961              		.cfi_startproc
 962              		@ args = 0, pretend = 0, frame = 8
 963              		@ frame_needed = 1, uses_anonymous_args = 0
 964 0000 80B5     		push	{r7, lr}	@
 965              	.LCFI15:
 966              		.cfi_def_cfa_offset 8
 967              		.cfi_offset 7, -8
 968              		.cfi_offset 14, -4
 969 0002 82B0     		sub	sp, sp, #8	@,,
 970              	.LCFI16:
 971              		.cfi_def_cfa_offset 16
 972 0004 00AF     		add	r7, sp, #0	@,,
 973              	.LCFI17:
 974              		.cfi_def_cfa_register 7
 975 0006 7860     		str	r0, [r7, #4]	@ pdev, pdev
 976 0008 3960     		str	r1, [r7, #0]	@ req, req
 977              	.LBB7:
 481:Middlewares/ST/STM32_USB_Device_Library/Core/usbd_ctlreq.cpp ****   
 482:Middlewares/ST/STM32_USB_Device_Library/Core/usbd_ctlreq.cpp ****   static uint8_t  cfgidx;
 483:Middlewares/ST/STM32_USB_Device_Library/Core/usbd_ctlreq.cpp ****   
 484:Middlewares/ST/STM32_USB_Device_Library/Core/usbd_ctlreq.cpp ****   cfgidx = (uint8_t)(req->wValue);                 
 978              		.loc 1 484 0
 979 000a 3B68     		ldr	r3, [r7, #0]	@ tmp159, req
 980 000c 5B88     		ldrh	r3, [r3, #2]	@ D.7791, req_1(D)->wValue
 981 000e DAB2     		uxtb	r2, r3	@ cfgidx.0, D.7791
 982 0010 40F20003 		movw	r3, #:lower16:_ZZL14USBD_SetConfigP19_USBD_HandleTypeDefP13usb_setup_reqE6cfgidx	@ tmp160,
 983 0014 C0F20003 		movt	r3, #:upper16:_ZZL14USBD_SetConfigP19_USBD_HandleTypeDefP13usb_setup_reqE6cfgidx	@ tmp160,
 984 0018 1A70     		strb	r2, [r3, #0]	@ tmp161, cfgidx
 485:Middlewares/ST/STM32_USB_Device_Library/Core/usbd_ctlreq.cpp ****   
 486:Middlewares/ST/STM32_USB_Device_Library/Core/usbd_ctlreq.cpp ****   if (cfgidx > USBD_MAX_NUM_CONFIGURATION ) 
ARM GAS  /tmp/ccImnKuM.s 			page 27


 985              		.loc 1 486 0
 986 001a 40F20003 		movw	r3, #:lower16:_ZZL14USBD_SetConfigP19_USBD_HandleTypeDefP13usb_setup_reqE6cfgidx	@ tmp162,
 987 001e C0F20003 		movt	r3, #:upper16:_ZZL14USBD_SetConfigP19_USBD_HandleTypeDefP13usb_setup_reqE6cfgidx	@ tmp162,
 988 0022 1B78     		ldrb	r3, [r3, #0]	@ zero_extendqisi2	@ cfgidx.1, cfgidx
 989 0024 012B     		cmp	r3, #1	@ cfgidx.1,
 990 0026 04D9     		bls	.L93	@,
 487:Middlewares/ST/STM32_USB_Device_Library/Core/usbd_ctlreq.cpp ****   {            
 488:Middlewares/ST/STM32_USB_Device_Library/Core/usbd_ctlreq.cpp ****      USBD_CtlError(pdev , req);                              
 991              		.loc 1 488 0
 992 0028 7868     		ldr	r0, [r7, #4]	@, pdev
 993 002a 3968     		ldr	r1, [r7, #0]	@, req
 994 002c FFF7FEFF 		bl	_Z13USBD_CtlErrorP19_USBD_HandleTypeDefP13usb_setup_req	@
 995 0030 96E0     		b	.L92	@
 996              	.L93:
 489:Middlewares/ST/STM32_USB_Device_Library/Core/usbd_ctlreq.cpp ****   } 
 490:Middlewares/ST/STM32_USB_Device_Library/Core/usbd_ctlreq.cpp ****   else 
 491:Middlewares/ST/STM32_USB_Device_Library/Core/usbd_ctlreq.cpp ****   {
 492:Middlewares/ST/STM32_USB_Device_Library/Core/usbd_ctlreq.cpp ****     switch (pdev->dev_state) 
 997              		.loc 1 492 0
 998 0032 7B68     		ldr	r3, [r7, #4]	@ tmp163, pdev
 999 0034 93F8FC31 		ldrb	r3, [r3, #508]	@ zero_extendqisi2	@ D.7798, pdev_5(D)->dev_state
 1000 0038 022B     		cmp	r3, #2	@ D.7799,
 1001 003a 02D0     		beq	.L96	@,
 1002 003c 032B     		cmp	r3, #3	@ D.7799,
 1003 003e 32D0     		beq	.L97	@,
 1004 0040 89E0     		b	.L105	@
 1005              	.L96:
 493:Middlewares/ST/STM32_USB_Device_Library/Core/usbd_ctlreq.cpp ****     {
 494:Middlewares/ST/STM32_USB_Device_Library/Core/usbd_ctlreq.cpp ****     case USBD_STATE_ADDRESSED:
 495:Middlewares/ST/STM32_USB_Device_Library/Core/usbd_ctlreq.cpp ****       if (cfgidx) 
 1006              		.loc 1 495 0
 1007 0042 40F20003 		movw	r3, #:lower16:_ZZL14USBD_SetConfigP19_USBD_HandleTypeDefP13usb_setup_reqE6cfgidx	@ tmp164,
 1008 0046 C0F20003 		movt	r3, #:upper16:_ZZL14USBD_SetConfigP19_USBD_HandleTypeDefP13usb_setup_reqE6cfgidx	@ tmp164,
 1009 004a 1B78     		ldrb	r3, [r3, #0]	@ zero_extendqisi2	@ cfgidx.2, cfgidx
 1010 004c 002B     		cmp	r3, #0	@ cfgidx.2,
 1011 004e 26D0     		beq	.L98	@,
 496:Middlewares/ST/STM32_USB_Device_Library/Core/usbd_ctlreq.cpp ****       {                                			   							   							   				
 497:Middlewares/ST/STM32_USB_Device_Library/Core/usbd_ctlreq.cpp ****         pdev->dev_config = cfgidx;
 1012              		.loc 1 497 0
 1013 0050 40F20003 		movw	r3, #:lower16:_ZZL14USBD_SetConfigP19_USBD_HandleTypeDefP13usb_setup_reqE6cfgidx	@ tmp165,
 1014 0054 C0F20003 		movt	r3, #:upper16:_ZZL14USBD_SetConfigP19_USBD_HandleTypeDefP13usb_setup_reqE6cfgidx	@ tmp165,
 1015 0058 1B78     		ldrb	r3, [r3, #0]	@ zero_extendqisi2	@ cfgidx.3, cfgidx
 1016 005a 1A46     		mov	r2, r3	@ D.7804, cfgidx.3
 1017 005c 7B68     		ldr	r3, [r7, #4]	@ tmp166, pdev
 1018 005e 5A60     		str	r2, [r3, #4]	@ D.7804, pdev_5(D)->dev_config
 498:Middlewares/ST/STM32_USB_Device_Library/Core/usbd_ctlreq.cpp ****         pdev->dev_state = USBD_STATE_CONFIGURED;
 1019              		.loc 1 498 0
 1020 0060 7B68     		ldr	r3, [r7, #4]	@ tmp167, pdev
 1021 0062 4FF00302 		mov	r2, #3	@ tmp168,
 1022 0066 83F8FC21 		strb	r2, [r3, #508]	@ tmp169, pdev_5(D)->dev_state
 499:Middlewares/ST/STM32_USB_Device_Library/Core/usbd_ctlreq.cpp ****         if(USBD_SetClassConfig(pdev , cfgidx) == USBD_FAIL)
 1023              		.loc 1 499 0
 1024 006a 40F20003 		movw	r3, #:lower16:_ZZL14USBD_SetConfigP19_USBD_HandleTypeDefP13usb_setup_reqE6cfgidx	@ tmp170,
 1025 006e C0F20003 		movt	r3, #:upper16:_ZZL14USBD_SetConfigP19_USBD_HandleTypeDefP13usb_setup_reqE6cfgidx	@ tmp170,
 1026 0072 1B78     		ldrb	r3, [r3, #0]	@ zero_extendqisi2	@ cfgidx.5, cfgidx
 1027 0074 7868     		ldr	r0, [r7, #4]	@, pdev
 1028 0076 1946     		mov	r1, r3	@, cfgidx.5
ARM GAS  /tmp/ccImnKuM.s 			page 28


 1029 0078 FFF7FEFF 		bl	_Z19USBD_SetClassConfigP19_USBD_HandleTypeDefh	@
 1030 007c 0346     		mov	r3, r0	@ tmp171,
 1031 007e 022B     		cmp	r3, #2	@ D.7807,
 1032 0080 14BF     		ite	ne	@
 1033 0082 0023     		movne	r3, #0	@, tmp173
 1034 0084 0123     		moveq	r3, #1	@, tmp173
 1035 0086 DBB2     		uxtb	r3, r3	@ retval.4, tmp172
 1036 0088 002B     		cmp	r3, #0	@ retval.4,
 1037 008a 04D0     		beq	.L99	@,
 500:Middlewares/ST/STM32_USB_Device_Library/Core/usbd_ctlreq.cpp ****         {
 501:Middlewares/ST/STM32_USB_Device_Library/Core/usbd_ctlreq.cpp ****           USBD_CtlError(pdev , req);  
 1038              		.loc 1 501 0
 1039 008c 7868     		ldr	r0, [r7, #4]	@, pdev
 1040 008e 3968     		ldr	r1, [r7, #0]	@, req
 1041 0090 FFF7FEFF 		bl	_Z13USBD_CtlErrorP19_USBD_HandleTypeDefP13usb_setup_req	@
 502:Middlewares/ST/STM32_USB_Device_Library/Core/usbd_ctlreq.cpp ****           return;
 1042              		.loc 1 502 0
 1043 0094 64E0     		b	.L92	@
 1044              	.L99:
 503:Middlewares/ST/STM32_USB_Device_Library/Core/usbd_ctlreq.cpp ****         }
 504:Middlewares/ST/STM32_USB_Device_Library/Core/usbd_ctlreq.cpp ****         USBD_CtlSendStatus(pdev);
 1045              		.loc 1 504 0
 1046 0096 7868     		ldr	r0, [r7, #4]	@, pdev
 1047 0098 FFF7FEFF 		bl	_Z18USBD_CtlSendStatusP19_USBD_HandleTypeDef	@
 505:Middlewares/ST/STM32_USB_Device_Library/Core/usbd_ctlreq.cpp ****       }
 506:Middlewares/ST/STM32_USB_Device_Library/Core/usbd_ctlreq.cpp ****       else 
 507:Middlewares/ST/STM32_USB_Device_Library/Core/usbd_ctlreq.cpp ****       {
 508:Middlewares/ST/STM32_USB_Device_Library/Core/usbd_ctlreq.cpp ****          USBD_CtlSendStatus(pdev);
 509:Middlewares/ST/STM32_USB_Device_Library/Core/usbd_ctlreq.cpp ****       }
 510:Middlewares/ST/STM32_USB_Device_Library/Core/usbd_ctlreq.cpp ****       break;
 1048              		.loc 1 510 0
 1049 009c 60E0     		b	.L92	@
 1050              	.L98:
 508:Middlewares/ST/STM32_USB_Device_Library/Core/usbd_ctlreq.cpp ****          USBD_CtlSendStatus(pdev);
 1051              		.loc 1 508 0
 1052 009e 7868     		ldr	r0, [r7, #4]	@, pdev
 1053 00a0 FFF7FEFF 		bl	_Z18USBD_CtlSendStatusP19_USBD_HandleTypeDef	@
 1054              		.loc 1 510 0
 1055 00a4 5CE0     		b	.L92	@
 1056              	.L97:
 511:Middlewares/ST/STM32_USB_Device_Library/Core/usbd_ctlreq.cpp ****       
 512:Middlewares/ST/STM32_USB_Device_Library/Core/usbd_ctlreq.cpp ****     case USBD_STATE_CONFIGURED:
 513:Middlewares/ST/STM32_USB_Device_Library/Core/usbd_ctlreq.cpp ****       if (cfgidx == 0) 
 1057              		.loc 1 513 0
 1058 00a6 40F20003 		movw	r3, #:lower16:_ZZL14USBD_SetConfigP19_USBD_HandleTypeDefP13usb_setup_reqE6cfgidx	@ tmp174,
 1059 00aa C0F20003 		movt	r3, #:upper16:_ZZL14USBD_SetConfigP19_USBD_HandleTypeDefP13usb_setup_reqE6cfgidx	@ tmp174,
 1060 00ae 1B78     		ldrb	r3, [r3, #0]	@ zero_extendqisi2	@ cfgidx.6, cfgidx
 1061 00b0 002B     		cmp	r3, #0	@ cfgidx.6,
 1062 00b2 19D1     		bne	.L101	@,
 514:Middlewares/ST/STM32_USB_Device_Library/Core/usbd_ctlreq.cpp ****       {                           
 515:Middlewares/ST/STM32_USB_Device_Library/Core/usbd_ctlreq.cpp ****         pdev->dev_state = USBD_STATE_ADDRESSED;
 1063              		.loc 1 515 0
 1064 00b4 7B68     		ldr	r3, [r7, #4]	@ tmp175, pdev
 1065 00b6 4FF00202 		mov	r2, #2	@ tmp176,
 1066 00ba 83F8FC21 		strb	r2, [r3, #508]	@ tmp177, pdev_5(D)->dev_state
 516:Middlewares/ST/STM32_USB_Device_Library/Core/usbd_ctlreq.cpp ****         pdev->dev_config = cfgidx;          
 1067              		.loc 1 516 0
ARM GAS  /tmp/ccImnKuM.s 			page 29


 1068 00be 40F20003 		movw	r3, #:lower16:_ZZL14USBD_SetConfigP19_USBD_HandleTypeDefP13usb_setup_reqE6cfgidx	@ tmp178,
 1069 00c2 C0F20003 		movt	r3, #:upper16:_ZZL14USBD_SetConfigP19_USBD_HandleTypeDefP13usb_setup_reqE6cfgidx	@ tmp178,
 1070 00c6 1B78     		ldrb	r3, [r3, #0]	@ zero_extendqisi2	@ cfgidx.7, cfgidx
 1071 00c8 1A46     		mov	r2, r3	@ D.7815, cfgidx.7
 1072 00ca 7B68     		ldr	r3, [r7, #4]	@ tmp179, pdev
 1073 00cc 5A60     		str	r2, [r3, #4]	@ D.7815, pdev_5(D)->dev_config
 517:Middlewares/ST/STM32_USB_Device_Library/Core/usbd_ctlreq.cpp ****         USBD_ClrClassConfig(pdev , cfgidx);
 1074              		.loc 1 517 0
 1075 00ce 40F20003 		movw	r3, #:lower16:_ZZL14USBD_SetConfigP19_USBD_HandleTypeDefP13usb_setup_reqE6cfgidx	@ tmp180,
 1076 00d2 C0F20003 		movt	r3, #:upper16:_ZZL14USBD_SetConfigP19_USBD_HandleTypeDefP13usb_setup_reqE6cfgidx	@ tmp180,
 1077 00d6 1B78     		ldrb	r3, [r3, #0]	@ zero_extendqisi2	@ cfgidx.8, cfgidx
 1078 00d8 7868     		ldr	r0, [r7, #4]	@, pdev
 1079 00da 1946     		mov	r1, r3	@, cfgidx.8
 1080 00dc FFF7FEFF 		bl	_Z19USBD_ClrClassConfigP19_USBD_HandleTypeDefh	@
 518:Middlewares/ST/STM32_USB_Device_Library/Core/usbd_ctlreq.cpp ****         USBD_CtlSendStatus(pdev);
 1081              		.loc 1 518 0
 1082 00e0 7868     		ldr	r0, [r7, #4]	@, pdev
 1083 00e2 FFF7FEFF 		bl	_Z18USBD_CtlSendStatusP19_USBD_HandleTypeDef	@
 519:Middlewares/ST/STM32_USB_Device_Library/Core/usbd_ctlreq.cpp ****         
 520:Middlewares/ST/STM32_USB_Device_Library/Core/usbd_ctlreq.cpp ****       } 
 521:Middlewares/ST/STM32_USB_Device_Library/Core/usbd_ctlreq.cpp ****       else  if (cfgidx != pdev->dev_config) 
 522:Middlewares/ST/STM32_USB_Device_Library/Core/usbd_ctlreq.cpp ****       {
 523:Middlewares/ST/STM32_USB_Device_Library/Core/usbd_ctlreq.cpp ****         /* Clear old configuration */
 524:Middlewares/ST/STM32_USB_Device_Library/Core/usbd_ctlreq.cpp ****         USBD_ClrClassConfig(pdev , pdev->dev_config);
 525:Middlewares/ST/STM32_USB_Device_Library/Core/usbd_ctlreq.cpp ****         
 526:Middlewares/ST/STM32_USB_Device_Library/Core/usbd_ctlreq.cpp ****         /* set new configuration */
 527:Middlewares/ST/STM32_USB_Device_Library/Core/usbd_ctlreq.cpp ****         pdev->dev_config = cfgidx;
 528:Middlewares/ST/STM32_USB_Device_Library/Core/usbd_ctlreq.cpp ****         if(USBD_SetClassConfig(pdev , cfgidx) == USBD_FAIL)
 529:Middlewares/ST/STM32_USB_Device_Library/Core/usbd_ctlreq.cpp ****         {
 530:Middlewares/ST/STM32_USB_Device_Library/Core/usbd_ctlreq.cpp ****           USBD_CtlError(pdev , req);  
 531:Middlewares/ST/STM32_USB_Device_Library/Core/usbd_ctlreq.cpp ****           return;
 532:Middlewares/ST/STM32_USB_Device_Library/Core/usbd_ctlreq.cpp ****         }
 533:Middlewares/ST/STM32_USB_Device_Library/Core/usbd_ctlreq.cpp ****         USBD_CtlSendStatus(pdev);
 534:Middlewares/ST/STM32_USB_Device_Library/Core/usbd_ctlreq.cpp ****       }
 535:Middlewares/ST/STM32_USB_Device_Library/Core/usbd_ctlreq.cpp ****       else
 536:Middlewares/ST/STM32_USB_Device_Library/Core/usbd_ctlreq.cpp ****       {
 537:Middlewares/ST/STM32_USB_Device_Library/Core/usbd_ctlreq.cpp ****         USBD_CtlSendStatus(pdev);
 538:Middlewares/ST/STM32_USB_Device_Library/Core/usbd_ctlreq.cpp ****       }
 539:Middlewares/ST/STM32_USB_Device_Library/Core/usbd_ctlreq.cpp ****       break;
 1084              		.loc 1 539 0
 1085 00e6 3BE0     		b	.L92	@
 1086              	.L101:
 521:Middlewares/ST/STM32_USB_Device_Library/Core/usbd_ctlreq.cpp ****       else  if (cfgidx != pdev->dev_config) 
 1087              		.loc 1 521 0
 1088 00e8 40F20003 		movw	r3, #:lower16:_ZZL14USBD_SetConfigP19_USBD_HandleTypeDefP13usb_setup_reqE6cfgidx	@ tmp181,
 1089 00ec C0F20003 		movt	r3, #:upper16:_ZZL14USBD_SetConfigP19_USBD_HandleTypeDefP13usb_setup_reqE6cfgidx	@ tmp181,
 1090 00f0 1B78     		ldrb	r3, [r3, #0]	@ zero_extendqisi2	@ cfgidx.9, cfgidx
 1091 00f2 1A46     		mov	r2, r3	@ D.7819, cfgidx.9
 1092 00f4 7B68     		ldr	r3, [r7, #4]	@ tmp182, pdev
 1093 00f6 5B68     		ldr	r3, [r3, #4]	@ D.7820, pdev_5(D)->dev_config
 1094 00f8 9A42     		cmp	r2, r3	@ D.7819, D.7820
 1095 00fa 28D0     		beq	.L103	@,
 524:Middlewares/ST/STM32_USB_Device_Library/Core/usbd_ctlreq.cpp ****         USBD_ClrClassConfig(pdev , pdev->dev_config);
 1096              		.loc 1 524 0
 1097 00fc 7B68     		ldr	r3, [r7, #4]	@ tmp183, pdev
 1098 00fe 5B68     		ldr	r3, [r3, #4]	@ D.7823, pdev_5(D)->dev_config
 1099 0100 DBB2     		uxtb	r3, r3	@ D.7824, D.7823
ARM GAS  /tmp/ccImnKuM.s 			page 30


 1100 0102 7868     		ldr	r0, [r7, #4]	@, pdev
 1101 0104 1946     		mov	r1, r3	@, D.7824
 1102 0106 FFF7FEFF 		bl	_Z19USBD_ClrClassConfigP19_USBD_HandleTypeDefh	@
 527:Middlewares/ST/STM32_USB_Device_Library/Core/usbd_ctlreq.cpp ****         pdev->dev_config = cfgidx;
 1103              		.loc 1 527 0
 1104 010a 40F20003 		movw	r3, #:lower16:_ZZL14USBD_SetConfigP19_USBD_HandleTypeDefP13usb_setup_reqE6cfgidx	@ tmp184,
 1105 010e C0F20003 		movt	r3, #:upper16:_ZZL14USBD_SetConfigP19_USBD_HandleTypeDefP13usb_setup_reqE6cfgidx	@ tmp184,
 1106 0112 1B78     		ldrb	r3, [r3, #0]	@ zero_extendqisi2	@ cfgidx.10, cfgidx
 1107 0114 1A46     		mov	r2, r3	@ D.7826, cfgidx.10
 1108 0116 7B68     		ldr	r3, [r7, #4]	@ tmp185, pdev
 1109 0118 5A60     		str	r2, [r3, #4]	@ D.7826, pdev_5(D)->dev_config
 528:Middlewares/ST/STM32_USB_Device_Library/Core/usbd_ctlreq.cpp ****         if(USBD_SetClassConfig(pdev , cfgidx) == USBD_FAIL)
 1110              		.loc 1 528 0
 1111 011a 40F20003 		movw	r3, #:lower16:_ZZL14USBD_SetConfigP19_USBD_HandleTypeDefP13usb_setup_reqE6cfgidx	@ tmp186,
 1112 011e C0F20003 		movt	r3, #:upper16:_ZZL14USBD_SetConfigP19_USBD_HandleTypeDefP13usb_setup_reqE6cfgidx	@ tmp186,
 1113 0122 1B78     		ldrb	r3, [r3, #0]	@ zero_extendqisi2	@ cfgidx.12, cfgidx
 1114 0124 7868     		ldr	r0, [r7, #4]	@, pdev
 1115 0126 1946     		mov	r1, r3	@, cfgidx.12
 1116 0128 FFF7FEFF 		bl	_Z19USBD_SetClassConfigP19_USBD_HandleTypeDefh	@
 1117 012c 0346     		mov	r3, r0	@ tmp187,
 1118 012e 022B     		cmp	r3, #2	@ D.7829,
 1119 0130 14BF     		ite	ne	@
 1120 0132 0023     		movne	r3, #0	@, tmp189
 1121 0134 0123     		moveq	r3, #1	@, tmp189
 1122 0136 DBB2     		uxtb	r3, r3	@ retval.11, tmp188
 1123 0138 002B     		cmp	r3, #0	@ retval.11,
 1124 013a 04D0     		beq	.L104	@,
 530:Middlewares/ST/STM32_USB_Device_Library/Core/usbd_ctlreq.cpp ****           USBD_CtlError(pdev , req);  
 1125              		.loc 1 530 0
 1126 013c 7868     		ldr	r0, [r7, #4]	@, pdev
 1127 013e 3968     		ldr	r1, [r7, #0]	@, req
 1128 0140 FFF7FEFF 		bl	_Z13USBD_CtlErrorP19_USBD_HandleTypeDefP13usb_setup_req	@
 531:Middlewares/ST/STM32_USB_Device_Library/Core/usbd_ctlreq.cpp ****           return;
 1129              		.loc 1 531 0
 1130 0144 0CE0     		b	.L92	@
 1131              	.L104:
 533:Middlewares/ST/STM32_USB_Device_Library/Core/usbd_ctlreq.cpp ****         USBD_CtlSendStatus(pdev);
 1132              		.loc 1 533 0
 1133 0146 7868     		ldr	r0, [r7, #4]	@, pdev
 1134 0148 FFF7FEFF 		bl	_Z18USBD_CtlSendStatusP19_USBD_HandleTypeDef	@
 1135              		.loc 1 539 0
 1136 014c 08E0     		b	.L92	@
 1137              	.L103:
 537:Middlewares/ST/STM32_USB_Device_Library/Core/usbd_ctlreq.cpp ****         USBD_CtlSendStatus(pdev);
 1138              		.loc 1 537 0
 1139 014e 7868     		ldr	r0, [r7, #4]	@, pdev
 1140 0150 FFF7FEFF 		bl	_Z18USBD_CtlSendStatusP19_USBD_HandleTypeDef	@
 1141              		.loc 1 539 0
 1142 0154 04E0     		b	.L92	@
 1143              	.L105:
 540:Middlewares/ST/STM32_USB_Device_Library/Core/usbd_ctlreq.cpp ****       
 541:Middlewares/ST/STM32_USB_Device_Library/Core/usbd_ctlreq.cpp ****     default:					
 542:Middlewares/ST/STM32_USB_Device_Library/Core/usbd_ctlreq.cpp ****        USBD_CtlError(pdev , req);                     
 1144              		.loc 1 542 0
 1145 0156 7868     		ldr	r0, [r7, #4]	@, pdev
 1146 0158 3968     		ldr	r1, [r7, #0]	@, req
 1147 015a FFF7FEFF 		bl	_Z13USBD_CtlErrorP19_USBD_HandleTypeDefP13usb_setup_req	@
ARM GAS  /tmp/ccImnKuM.s 			page 31


 543:Middlewares/ST/STM32_USB_Device_Library/Core/usbd_ctlreq.cpp ****       break;
 1148              		.loc 1 543 0
 1149 015e 00BF     		nop
 1150              	.L92:
 1151              	.LBE7:
 544:Middlewares/ST/STM32_USB_Device_Library/Core/usbd_ctlreq.cpp ****     }
 545:Middlewares/ST/STM32_USB_Device_Library/Core/usbd_ctlreq.cpp ****   }
 546:Middlewares/ST/STM32_USB_Device_Library/Core/usbd_ctlreq.cpp **** }
 1152              		.loc 1 546 0
 1153 0160 07F10807 		add	r7, r7, #8	@,,
 1154 0164 BD46     		mov	sp, r7
 1155 0166 80BD     		pop	{r7, pc}
 1156              		.cfi_endproc
 1157              	.LFE61:
 1158              		.size	_ZL14USBD_SetConfigP19_USBD_HandleTypeDefP13usb_setup_req, .-_ZL14USBD_SetConfigP19_USBD_Han
 1159              		.section	.text._ZL14USBD_GetConfigP19_USBD_HandleTypeDefP13usb_setup_req,"ax",%progbits
 1160              		.align	2
 1161              		.thumb
 1162              		.thumb_func
 1163              		.type	_ZL14USBD_GetConfigP19_USBD_HandleTypeDefP13usb_setup_req, %function
 1164              	_ZL14USBD_GetConfigP19_USBD_HandleTypeDefP13usb_setup_req:
 1165              	.LFB62:
 547:Middlewares/ST/STM32_USB_Device_Library/Core/usbd_ctlreq.cpp **** 
 548:Middlewares/ST/STM32_USB_Device_Library/Core/usbd_ctlreq.cpp **** /**
 549:Middlewares/ST/STM32_USB_Device_Library/Core/usbd_ctlreq.cpp **** * @brief  USBD_GetConfig
 550:Middlewares/ST/STM32_USB_Device_Library/Core/usbd_ctlreq.cpp **** *         Handle Get device configuration request
 551:Middlewares/ST/STM32_USB_Device_Library/Core/usbd_ctlreq.cpp **** * @param  pdev: device instance
 552:Middlewares/ST/STM32_USB_Device_Library/Core/usbd_ctlreq.cpp **** * @param  req: usb request
 553:Middlewares/ST/STM32_USB_Device_Library/Core/usbd_ctlreq.cpp **** * @retval status
 554:Middlewares/ST/STM32_USB_Device_Library/Core/usbd_ctlreq.cpp **** */
 555:Middlewares/ST/STM32_USB_Device_Library/Core/usbd_ctlreq.cpp **** static void USBD_GetConfig(USBD_HandleTypeDef *pdev , 
 556:Middlewares/ST/STM32_USB_Device_Library/Core/usbd_ctlreq.cpp ****                            USBD_SetupReqTypedef *req)
 557:Middlewares/ST/STM32_USB_Device_Library/Core/usbd_ctlreq.cpp **** {
 1166              		.loc 1 557 0
 1167              		.cfi_startproc
 1168              		@ args = 0, pretend = 0, frame = 8
 1169              		@ frame_needed = 1, uses_anonymous_args = 0
 1170 0000 80B5     		push	{r7, lr}	@
 1171              	.LCFI18:
 1172              		.cfi_def_cfa_offset 8
 1173              		.cfi_offset 7, -8
 1174              		.cfi_offset 14, -4
 1175 0002 82B0     		sub	sp, sp, #8	@,,
 1176              	.LCFI19:
 1177              		.cfi_def_cfa_offset 16
 1178 0004 00AF     		add	r7, sp, #0	@,,
 1179              	.LCFI20:
 1180              		.cfi_def_cfa_register 7
 1181 0006 7860     		str	r0, [r7, #4]	@ pdev, pdev
 1182 0008 3960     		str	r1, [r7, #0]	@ req, req
 558:Middlewares/ST/STM32_USB_Device_Library/Core/usbd_ctlreq.cpp **** 
 559:Middlewares/ST/STM32_USB_Device_Library/Core/usbd_ctlreq.cpp ****   if (req->wLength != 1) 
 1183              		.loc 1 559 0
 1184 000a 3B68     		ldr	r3, [r7, #0]	@ tmp139, req
 1185 000c DB88     		ldrh	r3, [r3, #6]	@ D.7782, req_1(D)->wLength
 1186 000e 012B     		cmp	r3, #1	@ D.7782,
 1187 0010 04D0     		beq	.L107	@,
ARM GAS  /tmp/ccImnKuM.s 			page 32


 560:Middlewares/ST/STM32_USB_Device_Library/Core/usbd_ctlreq.cpp ****   {                   
 561:Middlewares/ST/STM32_USB_Device_Library/Core/usbd_ctlreq.cpp ****      USBD_CtlError(pdev , req);
 1188              		.loc 1 561 0
 1189 0012 7868     		ldr	r0, [r7, #4]	@, pdev
 1190 0014 3968     		ldr	r1, [r7, #0]	@, req
 1191 0016 FFF7FEFF 		bl	_Z13USBD_CtlErrorP19_USBD_HandleTypeDefP13usb_setup_req	@
 1192 001a 24E0     		b	.L106	@
 1193              	.L107:
 562:Middlewares/ST/STM32_USB_Device_Library/Core/usbd_ctlreq.cpp ****   }
 563:Middlewares/ST/STM32_USB_Device_Library/Core/usbd_ctlreq.cpp ****   else 
 564:Middlewares/ST/STM32_USB_Device_Library/Core/usbd_ctlreq.cpp ****   {
 565:Middlewares/ST/STM32_USB_Device_Library/Core/usbd_ctlreq.cpp ****     switch (pdev->dev_state )  
 1194              		.loc 1 565 0
 1195 001c 7B68     		ldr	r3, [r7, #4]	@ tmp140, pdev
 1196 001e 93F8FC31 		ldrb	r3, [r3, #508]	@ zero_extendqisi2	@ D.7787, pdev_3(D)->dev_state
 1197 0022 022B     		cmp	r3, #2	@ D.7788,
 1198 0024 02D0     		beq	.L110	@,
 1199 0026 032B     		cmp	r3, #3	@ D.7788,
 1200 0028 0ED0     		beq	.L111	@,
 1201 002a 17E0     		b	.L112	@
 1202              	.L110:
 566:Middlewares/ST/STM32_USB_Device_Library/Core/usbd_ctlreq.cpp ****     {
 567:Middlewares/ST/STM32_USB_Device_Library/Core/usbd_ctlreq.cpp ****     case USBD_STATE_ADDRESSED:                     
 568:Middlewares/ST/STM32_USB_Device_Library/Core/usbd_ctlreq.cpp ****       pdev->dev_default_config = 0;
 1203              		.loc 1 568 0
 1204 002c 7B68     		ldr	r3, [r7, #4]	@ tmp141, pdev
 1205 002e 4FF00002 		mov	r2, #0	@ tmp142,
 1206 0032 9A60     		str	r2, [r3, #8]	@ tmp142, pdev_3(D)->dev_default_config
 569:Middlewares/ST/STM32_USB_Device_Library/Core/usbd_ctlreq.cpp ****       USBD_CtlSendData (pdev, 
 570:Middlewares/ST/STM32_USB_Device_Library/Core/usbd_ctlreq.cpp ****                         (uint8_t *)&pdev->dev_default_config,
 571:Middlewares/ST/STM32_USB_Device_Library/Core/usbd_ctlreq.cpp ****                         1);
 1207              		.loc 1 571 0
 1208 0034 7B68     		ldr	r3, [r7, #4]	@ tmp143, pdev
 1209 0036 03F10803 		add	r3, r3, #8	@ D.7789, tmp143,
 1210 003a 7868     		ldr	r0, [r7, #4]	@, pdev
 1211 003c 1946     		mov	r1, r3	@, D.7789
 1212 003e 4FF00102 		mov	r2, #1	@,
 1213 0042 FFF7FEFF 		bl	_Z16USBD_CtlSendDataP19_USBD_HandleTypeDefPht	@
 572:Middlewares/ST/STM32_USB_Device_Library/Core/usbd_ctlreq.cpp ****       break;
 1214              		.loc 1 572 0
 1215 0046 0EE0     		b	.L106	@
 1216              	.L111:
 573:Middlewares/ST/STM32_USB_Device_Library/Core/usbd_ctlreq.cpp ****       
 574:Middlewares/ST/STM32_USB_Device_Library/Core/usbd_ctlreq.cpp ****     case USBD_STATE_CONFIGURED:   
 575:Middlewares/ST/STM32_USB_Device_Library/Core/usbd_ctlreq.cpp ****       
 576:Middlewares/ST/STM32_USB_Device_Library/Core/usbd_ctlreq.cpp ****       USBD_CtlSendData (pdev, 
 577:Middlewares/ST/STM32_USB_Device_Library/Core/usbd_ctlreq.cpp ****                         (uint8_t *)&pdev->dev_config,
 578:Middlewares/ST/STM32_USB_Device_Library/Core/usbd_ctlreq.cpp ****                         1);
 1217              		.loc 1 578 0
 1218 0048 7B68     		ldr	r3, [r7, #4]	@ tmp144, pdev
 1219 004a 03F10403 		add	r3, r3, #4	@ D.7790, tmp144,
 1220 004e 7868     		ldr	r0, [r7, #4]	@, pdev
 1221 0050 1946     		mov	r1, r3	@, D.7790
 1222 0052 4FF00102 		mov	r2, #1	@,
 1223 0056 FFF7FEFF 		bl	_Z16USBD_CtlSendDataP19_USBD_HandleTypeDefPht	@
 579:Middlewares/ST/STM32_USB_Device_Library/Core/usbd_ctlreq.cpp ****       break;
 1224              		.loc 1 579 0
ARM GAS  /tmp/ccImnKuM.s 			page 33


 1225 005a 04E0     		b	.L106	@
 1226              	.L112:
 580:Middlewares/ST/STM32_USB_Device_Library/Core/usbd_ctlreq.cpp ****       
 581:Middlewares/ST/STM32_USB_Device_Library/Core/usbd_ctlreq.cpp ****     default:
 582:Middlewares/ST/STM32_USB_Device_Library/Core/usbd_ctlreq.cpp ****        USBD_CtlError(pdev , req);
 1227              		.loc 1 582 0
 1228 005c 7868     		ldr	r0, [r7, #4]	@, pdev
 1229 005e 3968     		ldr	r1, [r7, #0]	@, req
 1230 0060 FFF7FEFF 		bl	_Z13USBD_CtlErrorP19_USBD_HandleTypeDefP13usb_setup_req	@
 583:Middlewares/ST/STM32_USB_Device_Library/Core/usbd_ctlreq.cpp ****       break;
 1231              		.loc 1 583 0
 1232 0064 00BF     		nop
 1233              	.L106:
 584:Middlewares/ST/STM32_USB_Device_Library/Core/usbd_ctlreq.cpp ****     }
 585:Middlewares/ST/STM32_USB_Device_Library/Core/usbd_ctlreq.cpp ****   }
 586:Middlewares/ST/STM32_USB_Device_Library/Core/usbd_ctlreq.cpp **** }
 1234              		.loc 1 586 0
 1235 0066 07F10807 		add	r7, r7, #8	@,,
 1236 006a BD46     		mov	sp, r7
 1237 006c 80BD     		pop	{r7, pc}
 1238              		.cfi_endproc
 1239              	.LFE62:
 1240              		.size	_ZL14USBD_GetConfigP19_USBD_HandleTypeDefP13usb_setup_req, .-_ZL14USBD_GetConfigP19_USBD_Han
 1241 006e 00BF     		.section	.text._ZL14USBD_GetStatusP19_USBD_HandleTypeDefP13usb_setup_req,"ax",%progbits
 1242              		.align	2
 1243              		.thumb
 1244              		.thumb_func
 1245              		.type	_ZL14USBD_GetStatusP19_USBD_HandleTypeDefP13usb_setup_req, %function
 1246              	_ZL14USBD_GetStatusP19_USBD_HandleTypeDefP13usb_setup_req:
 1247              	.LFB63:
 587:Middlewares/ST/STM32_USB_Device_Library/Core/usbd_ctlreq.cpp **** 
 588:Middlewares/ST/STM32_USB_Device_Library/Core/usbd_ctlreq.cpp **** /**
 589:Middlewares/ST/STM32_USB_Device_Library/Core/usbd_ctlreq.cpp **** * @brief  USBD_GetStatus
 590:Middlewares/ST/STM32_USB_Device_Library/Core/usbd_ctlreq.cpp **** *         Handle Get Status request
 591:Middlewares/ST/STM32_USB_Device_Library/Core/usbd_ctlreq.cpp **** * @param  pdev: device instance
 592:Middlewares/ST/STM32_USB_Device_Library/Core/usbd_ctlreq.cpp **** * @param  req: usb request
 593:Middlewares/ST/STM32_USB_Device_Library/Core/usbd_ctlreq.cpp **** * @retval status
 594:Middlewares/ST/STM32_USB_Device_Library/Core/usbd_ctlreq.cpp **** */
 595:Middlewares/ST/STM32_USB_Device_Library/Core/usbd_ctlreq.cpp **** static void USBD_GetStatus(USBD_HandleTypeDef *pdev , 
 596:Middlewares/ST/STM32_USB_Device_Library/Core/usbd_ctlreq.cpp ****                            USBD_SetupReqTypedef *req)
 597:Middlewares/ST/STM32_USB_Device_Library/Core/usbd_ctlreq.cpp **** {
 1248              		.loc 1 597 0
 1249              		.cfi_startproc
 1250              		@ args = 0, pretend = 0, frame = 8
 1251              		@ frame_needed = 1, uses_anonymous_args = 0
 1252 0000 80B5     		push	{r7, lr}	@
 1253              	.LCFI21:
 1254              		.cfi_def_cfa_offset 8
 1255              		.cfi_offset 7, -8
 1256              		.cfi_offset 14, -4
 1257 0002 82B0     		sub	sp, sp, #8	@,,
 1258              	.LCFI22:
 1259              		.cfi_def_cfa_offset 16
 1260 0004 00AF     		add	r7, sp, #0	@,,
 1261              	.LCFI23:
 1262              		.cfi_def_cfa_register 7
 1263 0006 7860     		str	r0, [r7, #4]	@ pdev, pdev
ARM GAS  /tmp/ccImnKuM.s 			page 34


 1264 0008 3960     		str	r1, [r7, #0]	@ req, req
 598:Middlewares/ST/STM32_USB_Device_Library/Core/usbd_ctlreq.cpp ****   
 599:Middlewares/ST/STM32_USB_Device_Library/Core/usbd_ctlreq.cpp ****     
 600:Middlewares/ST/STM32_USB_Device_Library/Core/usbd_ctlreq.cpp ****   switch (pdev->dev_state) 
 1265              		.loc 1 600 0
 1266 000a 7B68     		ldr	r3, [r7, #4]	@ tmp140, pdev
 1267 000c 93F8FC31 		ldrb	r3, [r3, #508]	@ zero_extendqisi2	@ D.7773, pdev_1(D)->dev_state
 1268 0010 A3F10203 		sub	r3, r3, #2	@ tmp141, D.7774,
 1269 0014 012B     		cmp	r3, #1	@ tmp141,
 1270 0016 18D8     		bhi	.L114	@,
 601:Middlewares/ST/STM32_USB_Device_Library/Core/usbd_ctlreq.cpp ****   {
 602:Middlewares/ST/STM32_USB_Device_Library/Core/usbd_ctlreq.cpp ****   case USBD_STATE_ADDRESSED:
 603:Middlewares/ST/STM32_USB_Device_Library/Core/usbd_ctlreq.cpp ****   case USBD_STATE_CONFIGURED:
 604:Middlewares/ST/STM32_USB_Device_Library/Core/usbd_ctlreq.cpp ****     
 605:Middlewares/ST/STM32_USB_Device_Library/Core/usbd_ctlreq.cpp **** #if ( USBD_SELF_POWERED == 1)
 606:Middlewares/ST/STM32_USB_Device_Library/Core/usbd_ctlreq.cpp ****     pdev->dev_config_status = USB_CONFIG_SELF_POWERED;                                  
 1271              		.loc 1 606 0
 1272 0018 7B68     		ldr	r3, [r7, #4]	@ tmp142, pdev
 1273 001a 4FF00102 		mov	r2, #1	@ tmp143,
 1274 001e DA60     		str	r2, [r3, #12]	@ tmp143, pdev_1(D)->dev_config_status
 607:Middlewares/ST/STM32_USB_Device_Library/Core/usbd_ctlreq.cpp **** #else
 608:Middlewares/ST/STM32_USB_Device_Library/Core/usbd_ctlreq.cpp ****     pdev->dev_config_status = 0;                                   
 609:Middlewares/ST/STM32_USB_Device_Library/Core/usbd_ctlreq.cpp **** #endif
 610:Middlewares/ST/STM32_USB_Device_Library/Core/usbd_ctlreq.cpp ****                       
 611:Middlewares/ST/STM32_USB_Device_Library/Core/usbd_ctlreq.cpp ****     if (pdev->dev_remote_wakeup) 
 1275              		.loc 1 611 0
 1276 0020 7B68     		ldr	r3, [r7, #4]	@ tmp144, pdev
 1277 0022 D3F80432 		ldr	r3, [r3, #516]	@ D.7775, pdev_1(D)->dev_remote_wakeup
 1278 0026 002B     		cmp	r3, #0	@ D.7775,
 1279 0028 05D0     		beq	.L116	@,
 612:Middlewares/ST/STM32_USB_Device_Library/Core/usbd_ctlreq.cpp ****     {
 613:Middlewares/ST/STM32_USB_Device_Library/Core/usbd_ctlreq.cpp ****        pdev->dev_config_status |= USB_CONFIG_REMOTE_WAKEUP;                                
 1280              		.loc 1 613 0
 1281 002a 7B68     		ldr	r3, [r7, #4]	@ tmp145, pdev
 1282 002c DB68     		ldr	r3, [r3, #12]	@ D.7778, pdev_1(D)->dev_config_status
 1283 002e 43F00202 		orr	r2, r3, #2	@ D.7779, D.7778,
 1284 0032 7B68     		ldr	r3, [r7, #4]	@ tmp146, pdev
 1285 0034 DA60     		str	r2, [r3, #12]	@ D.7779, pdev_1(D)->dev_config_status
 1286              	.L116:
 614:Middlewares/ST/STM32_USB_Device_Library/Core/usbd_ctlreq.cpp ****     }
 615:Middlewares/ST/STM32_USB_Device_Library/Core/usbd_ctlreq.cpp ****     
 616:Middlewares/ST/STM32_USB_Device_Library/Core/usbd_ctlreq.cpp ****     USBD_CtlSendData (pdev, 
 617:Middlewares/ST/STM32_USB_Device_Library/Core/usbd_ctlreq.cpp ****                       (uint8_t *)& pdev->dev_config_status,
 618:Middlewares/ST/STM32_USB_Device_Library/Core/usbd_ctlreq.cpp ****                       2);
 1287              		.loc 1 618 0
 1288 0036 7B68     		ldr	r3, [r7, #4]	@ tmp147, pdev
 1289 0038 03F10C03 		add	r3, r3, #12	@ D.7781, tmp147,
 1290 003c 7868     		ldr	r0, [r7, #4]	@, pdev
 1291 003e 1946     		mov	r1, r3	@, D.7781
 1292 0040 4FF00202 		mov	r2, #2	@,
 1293 0044 FFF7FEFF 		bl	_Z16USBD_CtlSendDataP19_USBD_HandleTypeDefPht	@
 619:Middlewares/ST/STM32_USB_Device_Library/Core/usbd_ctlreq.cpp ****     break;
 1294              		.loc 1 619 0
 1295 0048 04E0     		b	.L113	@
 1296              	.L114:
 620:Middlewares/ST/STM32_USB_Device_Library/Core/usbd_ctlreq.cpp ****     
 621:Middlewares/ST/STM32_USB_Device_Library/Core/usbd_ctlreq.cpp ****   default :
ARM GAS  /tmp/ccImnKuM.s 			page 35


 622:Middlewares/ST/STM32_USB_Device_Library/Core/usbd_ctlreq.cpp ****     USBD_CtlError(pdev , req);                        
 1297              		.loc 1 622 0
 1298 004a 7868     		ldr	r0, [r7, #4]	@, pdev
 1299 004c 3968     		ldr	r1, [r7, #0]	@, req
 1300 004e FFF7FEFF 		bl	_Z13USBD_CtlErrorP19_USBD_HandleTypeDefP13usb_setup_req	@
 623:Middlewares/ST/STM32_USB_Device_Library/Core/usbd_ctlreq.cpp ****     break;
 1301              		.loc 1 623 0
 1302 0052 00BF     		nop
 1303              	.L113:
 624:Middlewares/ST/STM32_USB_Device_Library/Core/usbd_ctlreq.cpp ****   }
 625:Middlewares/ST/STM32_USB_Device_Library/Core/usbd_ctlreq.cpp **** }
 1304              		.loc 1 625 0
 1305 0054 07F10807 		add	r7, r7, #8	@,,
 1306 0058 BD46     		mov	sp, r7
 1307 005a 80BD     		pop	{r7, pc}
 1308              		.cfi_endproc
 1309              	.LFE63:
 1310              		.size	_ZL14USBD_GetStatusP19_USBD_HandleTypeDefP13usb_setup_req, .-_ZL14USBD_GetStatusP19_USBD_Han
 1311              		.section	.text._ZL15USBD_SetFeatureP19_USBD_HandleTypeDefP13usb_setup_req,"ax",%progbits
 1312              		.align	2
 1313              		.thumb
 1314              		.thumb_func
 1315              		.type	_ZL15USBD_SetFeatureP19_USBD_HandleTypeDefP13usb_setup_req, %function
 1316              	_ZL15USBD_SetFeatureP19_USBD_HandleTypeDefP13usb_setup_req:
 1317              	.LFB64:
 626:Middlewares/ST/STM32_USB_Device_Library/Core/usbd_ctlreq.cpp **** 
 627:Middlewares/ST/STM32_USB_Device_Library/Core/usbd_ctlreq.cpp **** 
 628:Middlewares/ST/STM32_USB_Device_Library/Core/usbd_ctlreq.cpp **** /**
 629:Middlewares/ST/STM32_USB_Device_Library/Core/usbd_ctlreq.cpp **** * @brief  USBD_SetFeature
 630:Middlewares/ST/STM32_USB_Device_Library/Core/usbd_ctlreq.cpp **** *         Handle Set device feature request
 631:Middlewares/ST/STM32_USB_Device_Library/Core/usbd_ctlreq.cpp **** * @param  pdev: device instance
 632:Middlewares/ST/STM32_USB_Device_Library/Core/usbd_ctlreq.cpp **** * @param  req: usb request
 633:Middlewares/ST/STM32_USB_Device_Library/Core/usbd_ctlreq.cpp **** * @retval status
 634:Middlewares/ST/STM32_USB_Device_Library/Core/usbd_ctlreq.cpp **** */
 635:Middlewares/ST/STM32_USB_Device_Library/Core/usbd_ctlreq.cpp **** static void USBD_SetFeature(USBD_HandleTypeDef *pdev , 
 636:Middlewares/ST/STM32_USB_Device_Library/Core/usbd_ctlreq.cpp ****                             USBD_SetupReqTypedef *req)
 637:Middlewares/ST/STM32_USB_Device_Library/Core/usbd_ctlreq.cpp **** {
 1318              		.loc 1 637 0
 1319              		.cfi_startproc
 1320              		@ args = 0, pretend = 0, frame = 8
 1321              		@ frame_needed = 1, uses_anonymous_args = 0
 1322 0000 80B5     		push	{r7, lr}	@
 1323              	.LCFI24:
 1324              		.cfi_def_cfa_offset 8
 1325              		.cfi_offset 7, -8
 1326              		.cfi_offset 14, -4
 1327 0002 82B0     		sub	sp, sp, #8	@,,
 1328              	.LCFI25:
 1329              		.cfi_def_cfa_offset 16
 1330 0004 00AF     		add	r7, sp, #0	@,,
 1331              	.LCFI26:
 1332              		.cfi_def_cfa_register 7
 1333 0006 7860     		str	r0, [r7, #4]	@ pdev, pdev
 1334 0008 3960     		str	r1, [r7, #0]	@ req, req
 638:Middlewares/ST/STM32_USB_Device_Library/Core/usbd_ctlreq.cpp **** 
 639:Middlewares/ST/STM32_USB_Device_Library/Core/usbd_ctlreq.cpp ****   if (req->wValue == USB_FEATURE_REMOTE_WAKEUP)
 1335              		.loc 1 639 0
ARM GAS  /tmp/ccImnKuM.s 			page 36


 1336 000a 3B68     		ldr	r3, [r7, #0]	@ tmp137, req
 1337 000c 5B88     		ldrh	r3, [r3, #2]	@ D.7766, req_1(D)->wValue
 1338 000e 012B     		cmp	r3, #1	@ D.7766,
 1339 0010 0ED1     		bne	.L118	@,
 640:Middlewares/ST/STM32_USB_Device_Library/Core/usbd_ctlreq.cpp ****   {
 641:Middlewares/ST/STM32_USB_Device_Library/Core/usbd_ctlreq.cpp ****     pdev->dev_remote_wakeup = 1;  
 1340              		.loc 1 641 0
 1341 0012 7B68     		ldr	r3, [r7, #4]	@ tmp138, pdev
 1342 0014 4FF00102 		mov	r2, #1	@ tmp139,
 1343 0018 C3F80422 		str	r2, [r3, #516]	@ tmp139, pdev_3(D)->dev_remote_wakeup
 642:Middlewares/ST/STM32_USB_Device_Library/Core/usbd_ctlreq.cpp ****     pdev->pClass->Setup (pdev, req);   
 1344              		.loc 1 642 0
 1345 001c 7B68     		ldr	r3, [r7, #4]	@ tmp140, pdev
 1346 001e D3F81432 		ldr	r3, [r3, #532]	@ D.7769, pdev_3(D)->pClass
 1347 0022 9B68     		ldr	r3, [r3, #8]	@ D.7770, D.7769_4->Setup
 1348 0024 7868     		ldr	r0, [r7, #4]	@, pdev
 1349 0026 3968     		ldr	r1, [r7, #0]	@, req
 1350 0028 9847     		blx	r3	@ D.7770
 643:Middlewares/ST/STM32_USB_Device_Library/Core/usbd_ctlreq.cpp ****     USBD_CtlSendStatus(pdev);
 1351              		.loc 1 643 0
 1352 002a 7868     		ldr	r0, [r7, #4]	@, pdev
 1353 002c FFF7FEFF 		bl	_Z18USBD_CtlSendStatusP19_USBD_HandleTypeDef	@
 1354              	.L118:
 644:Middlewares/ST/STM32_USB_Device_Library/Core/usbd_ctlreq.cpp ****   }
 645:Middlewares/ST/STM32_USB_Device_Library/Core/usbd_ctlreq.cpp **** 
 646:Middlewares/ST/STM32_USB_Device_Library/Core/usbd_ctlreq.cpp **** }
 1355              		.loc 1 646 0
 1356 0030 07F10807 		add	r7, r7, #8	@,,
 1357 0034 BD46     		mov	sp, r7
 1358 0036 80BD     		pop	{r7, pc}
 1359              		.cfi_endproc
 1360              	.LFE64:
 1361              		.size	_ZL15USBD_SetFeatureP19_USBD_HandleTypeDefP13usb_setup_req, .-_ZL15USBD_SetFeatureP19_USBD_H
 1362              		.section	.text._ZL15USBD_ClrFeatureP19_USBD_HandleTypeDefP13usb_setup_req,"ax",%progbits
 1363              		.align	2
 1364              		.thumb
 1365              		.thumb_func
 1366              		.type	_ZL15USBD_ClrFeatureP19_USBD_HandleTypeDefP13usb_setup_req, %function
 1367              	_ZL15USBD_ClrFeatureP19_USBD_HandleTypeDefP13usb_setup_req:
 1368              	.LFB65:
 647:Middlewares/ST/STM32_USB_Device_Library/Core/usbd_ctlreq.cpp **** 
 648:Middlewares/ST/STM32_USB_Device_Library/Core/usbd_ctlreq.cpp **** 
 649:Middlewares/ST/STM32_USB_Device_Library/Core/usbd_ctlreq.cpp **** /**
 650:Middlewares/ST/STM32_USB_Device_Library/Core/usbd_ctlreq.cpp **** * @brief  USBD_ClrFeature
 651:Middlewares/ST/STM32_USB_Device_Library/Core/usbd_ctlreq.cpp **** *         Handle clear device feature request
 652:Middlewares/ST/STM32_USB_Device_Library/Core/usbd_ctlreq.cpp **** * @param  pdev: device instance
 653:Middlewares/ST/STM32_USB_Device_Library/Core/usbd_ctlreq.cpp **** * @param  req: usb request
 654:Middlewares/ST/STM32_USB_Device_Library/Core/usbd_ctlreq.cpp **** * @retval status
 655:Middlewares/ST/STM32_USB_Device_Library/Core/usbd_ctlreq.cpp **** */
 656:Middlewares/ST/STM32_USB_Device_Library/Core/usbd_ctlreq.cpp **** static void USBD_ClrFeature(USBD_HandleTypeDef *pdev , 
 657:Middlewares/ST/STM32_USB_Device_Library/Core/usbd_ctlreq.cpp ****                             USBD_SetupReqTypedef *req)
 658:Middlewares/ST/STM32_USB_Device_Library/Core/usbd_ctlreq.cpp **** {
 1369              		.loc 1 658 0
 1370              		.cfi_startproc
 1371              		@ args = 0, pretend = 0, frame = 8
 1372              		@ frame_needed = 1, uses_anonymous_args = 0
 1373 0000 80B5     		push	{r7, lr}	@
ARM GAS  /tmp/ccImnKuM.s 			page 37


 1374              	.LCFI27:
 1375              		.cfi_def_cfa_offset 8
 1376              		.cfi_offset 7, -8
 1377              		.cfi_offset 14, -4
 1378 0002 82B0     		sub	sp, sp, #8	@,,
 1379              	.LCFI28:
 1380              		.cfi_def_cfa_offset 16
 1381 0004 00AF     		add	r7, sp, #0	@,,
 1382              	.LCFI29:
 1383              		.cfi_def_cfa_register 7
 1384 0006 7860     		str	r0, [r7, #4]	@ pdev, pdev
 1385 0008 3960     		str	r1, [r7, #0]	@ req, req
 659:Middlewares/ST/STM32_USB_Device_Library/Core/usbd_ctlreq.cpp ****   switch (pdev->dev_state)
 1386              		.loc 1 659 0
 1387 000a 7B68     		ldr	r3, [r7, #4]	@ tmp139, pdev
 1388 000c 93F8FC31 		ldrb	r3, [r3, #508]	@ zero_extendqisi2	@ D.7758, pdev_1(D)->dev_state
 1389 0010 A3F10203 		sub	r3, r3, #2	@ tmp140, D.7759,
 1390 0014 012B     		cmp	r3, #1	@ tmp140,
 1391 0016 13D8     		bhi	.L121	@,
 660:Middlewares/ST/STM32_USB_Device_Library/Core/usbd_ctlreq.cpp ****   {
 661:Middlewares/ST/STM32_USB_Device_Library/Core/usbd_ctlreq.cpp ****   case USBD_STATE_ADDRESSED:
 662:Middlewares/ST/STM32_USB_Device_Library/Core/usbd_ctlreq.cpp ****   case USBD_STATE_CONFIGURED:
 663:Middlewares/ST/STM32_USB_Device_Library/Core/usbd_ctlreq.cpp ****     if (req->wValue == USB_FEATURE_REMOTE_WAKEUP) 
 1392              		.loc 1 663 0
 1393 0018 3B68     		ldr	r3, [r7, #0]	@ tmp141, req
 1394 001a 5B88     		ldrh	r3, [r3, #2]	@ D.7760, req_4(D)->wValue
 1395 001c 012B     		cmp	r3, #1	@ D.7760,
 1396 001e 15D1     		bne	.L125	@,
 664:Middlewares/ST/STM32_USB_Device_Library/Core/usbd_ctlreq.cpp ****     {
 665:Middlewares/ST/STM32_USB_Device_Library/Core/usbd_ctlreq.cpp ****       pdev->dev_remote_wakeup = 0; 
 1397              		.loc 1 665 0
 1398 0020 7B68     		ldr	r3, [r7, #4]	@ tmp142, pdev
 1399 0022 4FF00002 		mov	r2, #0	@ tmp143,
 1400 0026 C3F80422 		str	r2, [r3, #516]	@ tmp143, pdev_1(D)->dev_remote_wakeup
 666:Middlewares/ST/STM32_USB_Device_Library/Core/usbd_ctlreq.cpp ****       pdev->pClass->Setup (pdev, req);   
 1401              		.loc 1 666 0
 1402 002a 7B68     		ldr	r3, [r7, #4]	@ tmp144, pdev
 1403 002c D3F81432 		ldr	r3, [r3, #532]	@ D.7763, pdev_1(D)->pClass
 1404 0030 9B68     		ldr	r3, [r3, #8]	@ D.7764, D.7763_6->Setup
 1405 0032 7868     		ldr	r0, [r7, #4]	@, pdev
 1406 0034 3968     		ldr	r1, [r7, #0]	@, req
 1407 0036 9847     		blx	r3	@ D.7764
 667:Middlewares/ST/STM32_USB_Device_Library/Core/usbd_ctlreq.cpp ****       USBD_CtlSendStatus(pdev);
 1408              		.loc 1 667 0
 1409 0038 7868     		ldr	r0, [r7, #4]	@, pdev
 1410 003a FFF7FEFF 		bl	_Z18USBD_CtlSendStatusP19_USBD_HandleTypeDef	@
 668:Middlewares/ST/STM32_USB_Device_Library/Core/usbd_ctlreq.cpp ****     }
 669:Middlewares/ST/STM32_USB_Device_Library/Core/usbd_ctlreq.cpp ****     break;
 1411              		.loc 1 669 0
 1412 003e 05E0     		b	.L125	@
 1413              	.L121:
 670:Middlewares/ST/STM32_USB_Device_Library/Core/usbd_ctlreq.cpp ****     
 671:Middlewares/ST/STM32_USB_Device_Library/Core/usbd_ctlreq.cpp ****   default :
 672:Middlewares/ST/STM32_USB_Device_Library/Core/usbd_ctlreq.cpp ****      USBD_CtlError(pdev , req);
 1414              		.loc 1 672 0
 1415 0040 7868     		ldr	r0, [r7, #4]	@, pdev
 1416 0042 3968     		ldr	r1, [r7, #0]	@, req
ARM GAS  /tmp/ccImnKuM.s 			page 38


 1417 0044 FFF7FEFF 		bl	_Z13USBD_CtlErrorP19_USBD_HandleTypeDefP13usb_setup_req	@
 673:Middlewares/ST/STM32_USB_Device_Library/Core/usbd_ctlreq.cpp ****     break;
 1418              		.loc 1 673 0
 1419 0048 00BF     		nop
 1420 004a 00E0     		b	.L120	@
 1421              	.L125:
 669:Middlewares/ST/STM32_USB_Device_Library/Core/usbd_ctlreq.cpp ****     break;
 1422              		.loc 1 669 0
 1423 004c 00BF     		nop
 1424              	.L120:
 674:Middlewares/ST/STM32_USB_Device_Library/Core/usbd_ctlreq.cpp ****   }
 675:Middlewares/ST/STM32_USB_Device_Library/Core/usbd_ctlreq.cpp **** }
 1425              		.loc 1 675 0
 1426 004e 07F10807 		add	r7, r7, #8	@,,
 1427 0052 BD46     		mov	sp, r7
 1428 0054 80BD     		pop	{r7, pc}
 1429              		.cfi_endproc
 1430              	.LFE65:
 1431              		.size	_ZL15USBD_ClrFeatureP19_USBD_HandleTypeDefP13usb_setup_req, .-_ZL15USBD_ClrFeatureP19_USBD_H
 1432 0056 00BF     		.section	.text._Z22USBD_ParseSetupRequestP13usb_setup_reqPh,"ax",%progbits
 1433              		.align	2
 1434              		.global	_Z22USBD_ParseSetupRequestP13usb_setup_reqPh
 1435              		.thumb
 1436              		.thumb_func
 1437              		.type	_Z22USBD_ParseSetupRequestP13usb_setup_reqPh, %function
 1438              	_Z22USBD_ParseSetupRequestP13usb_setup_reqPh:
 1439              	.LFB66:
 676:Middlewares/ST/STM32_USB_Device_Library/Core/usbd_ctlreq.cpp **** 
 677:Middlewares/ST/STM32_USB_Device_Library/Core/usbd_ctlreq.cpp **** /**
 678:Middlewares/ST/STM32_USB_Device_Library/Core/usbd_ctlreq.cpp **** * @brief  USBD_ParseSetupRequest 
 679:Middlewares/ST/STM32_USB_Device_Library/Core/usbd_ctlreq.cpp **** *         Copy buffer into setup structure
 680:Middlewares/ST/STM32_USB_Device_Library/Core/usbd_ctlreq.cpp **** * @param  pdev: device instance
 681:Middlewares/ST/STM32_USB_Device_Library/Core/usbd_ctlreq.cpp **** * @param  req: usb request
 682:Middlewares/ST/STM32_USB_Device_Library/Core/usbd_ctlreq.cpp **** * @retval None
 683:Middlewares/ST/STM32_USB_Device_Library/Core/usbd_ctlreq.cpp **** */
 684:Middlewares/ST/STM32_USB_Device_Library/Core/usbd_ctlreq.cpp **** 
 685:Middlewares/ST/STM32_USB_Device_Library/Core/usbd_ctlreq.cpp **** void USBD_ParseSetupRequest(USBD_SetupReqTypedef *req, uint8_t *pdata)
 686:Middlewares/ST/STM32_USB_Device_Library/Core/usbd_ctlreq.cpp **** {
 1440              		.loc 1 686 0
 1441              		.cfi_startproc
 1442              		@ args = 0, pretend = 0, frame = 8
 1443              		@ frame_needed = 1, uses_anonymous_args = 0
 1444              		@ link register save eliminated.
 1445 0000 80B4     		push	{r7}	@
 1446              	.LCFI30:
 1447              		.cfi_def_cfa_offset 4
 1448              		.cfi_offset 7, -4
 1449 0002 83B0     		sub	sp, sp, #12	@,,
 1450              	.LCFI31:
 1451              		.cfi_def_cfa_offset 16
 1452 0004 00AF     		add	r7, sp, #0	@,,
 1453              	.LCFI32:
 1454              		.cfi_def_cfa_register 7
 1455 0006 7860     		str	r0, [r7, #4]	@ req, req
 1456 0008 3960     		str	r1, [r7, #0]	@ pdata, pdata
 687:Middlewares/ST/STM32_USB_Device_Library/Core/usbd_ctlreq.cpp ****   req->bmRequest     = *(uint8_t *)  (pdata);
 1457              		.loc 1 687 0
ARM GAS  /tmp/ccImnKuM.s 			page 39


 1458 000a 3B68     		ldr	r3, [r7, #0]	@ tmp160, pdata
 1459 000c 1A78     		ldrb	r2, [r3, #0]	@ zero_extendqisi2	@ D.7731, *pdata_1(D)
 1460 000e 7B68     		ldr	r3, [r7, #4]	@ tmp161, req
 1461 0010 1A70     		strb	r2, [r3, #0]	@ tmp162, req_3(D)->bmRequest
 688:Middlewares/ST/STM32_USB_Device_Library/Core/usbd_ctlreq.cpp ****   req->bRequest      = *(uint8_t *)  (pdata +  1);
 1462              		.loc 1 688 0
 1463 0012 3B68     		ldr	r3, [r7, #0]	@ tmp163, pdata
 1464 0014 5A78     		ldrb	r2, [r3, #1]	@ zero_extendqisi2	@ D.7732, MEM[(uint8_t *)pdata_1(D) + 1B]
 1465 0016 7B68     		ldr	r3, [r7, #4]	@ tmp164, req
 1466 0018 5A70     		strb	r2, [r3, #1]	@ tmp165, req_3(D)->bRequest
 689:Middlewares/ST/STM32_USB_Device_Library/Core/usbd_ctlreq.cpp ****   req->wValue        = SWAPBYTE      (pdata +  2);
 1467              		.loc 1 689 0
 1468 001a 3B68     		ldr	r3, [r7, #0]	@ tmp166, pdata
 1469 001c 03F10203 		add	r3, r3, #2	@ D.7733, tmp166,
 1470 0020 1B78     		ldrb	r3, [r3, #0]	@ zero_extendqisi2	@ D.7734, *D.7733_5
 1471 0022 1A46     		mov	r2, r3	@ D.7735, D.7734
 1472 0024 3B68     		ldr	r3, [r7, #0]	@ tmp167, pdata
 1473 0026 03F10303 		add	r3, r3, #3	@ D.7736, tmp167,
 1474 002a 1B78     		ldrb	r3, [r3, #0]	@ zero_extendqisi2	@ D.7737, *D.7736_8
 1475 002c 4FEA0323 		lsl	r3, r3, #8	@ tmp168, D.7738,
 1476 0030 9BB2     		uxth	r3, r3	@ D.7739, tmp168
 1477 0032 D318     		adds	r3, r2, r3	@ tmp169, D.7735, D.7739
 1478 0034 9AB2     		uxth	r2, r3	@ D.7740, tmp169
 1479 0036 7B68     		ldr	r3, [r7, #4]	@ tmp170, req
 1480 0038 5A80     		strh	r2, [r3, #2]	@ movhi	@ tmp171, req_3(D)->wValue
 690:Middlewares/ST/STM32_USB_Device_Library/Core/usbd_ctlreq.cpp ****   req->wIndex        = SWAPBYTE      (pdata +  4);
 1481              		.loc 1 690 0
 1482 003a 3B68     		ldr	r3, [r7, #0]	@ tmp172, pdata
 1483 003c 03F10403 		add	r3, r3, #4	@ D.7741, tmp172,
 1484 0040 1B78     		ldrb	r3, [r3, #0]	@ zero_extendqisi2	@ D.7742, *D.7741_13
 1485 0042 1A46     		mov	r2, r3	@ D.7743, D.7742
 1486 0044 3B68     		ldr	r3, [r7, #0]	@ tmp173, pdata
 1487 0046 03F10503 		add	r3, r3, #5	@ D.7744, tmp173,
 1488 004a 1B78     		ldrb	r3, [r3, #0]	@ zero_extendqisi2	@ D.7745, *D.7744_16
 1489 004c 4FEA0323 		lsl	r3, r3, #8	@ tmp174, D.7746,
 1490 0050 9BB2     		uxth	r3, r3	@ D.7747, tmp174
 1491 0052 D318     		adds	r3, r2, r3	@ tmp175, D.7743, D.7747
 1492 0054 9AB2     		uxth	r2, r3	@ D.7748, tmp175
 1493 0056 7B68     		ldr	r3, [r7, #4]	@ tmp176, req
 1494 0058 9A80     		strh	r2, [r3, #4]	@ movhi	@ tmp177, req_3(D)->wIndex
 691:Middlewares/ST/STM32_USB_Device_Library/Core/usbd_ctlreq.cpp ****   req->wLength       = SWAPBYTE      (pdata +  6);
 1495              		.loc 1 691 0
 1496 005a 3B68     		ldr	r3, [r7, #0]	@ tmp178, pdata
 1497 005c 03F10603 		add	r3, r3, #6	@ D.7749, tmp178,
 1498 0060 1B78     		ldrb	r3, [r3, #0]	@ zero_extendqisi2	@ D.7750, *D.7749_21
 1499 0062 1A46     		mov	r2, r3	@ D.7751, D.7750
 1500 0064 3B68     		ldr	r3, [r7, #0]	@ tmp179, pdata
 1501 0066 03F10703 		add	r3, r3, #7	@ D.7752, tmp179,
 1502 006a 1B78     		ldrb	r3, [r3, #0]	@ zero_extendqisi2	@ D.7753, *D.7752_24
 1503 006c 4FEA0323 		lsl	r3, r3, #8	@ tmp180, D.7754,
 1504 0070 9BB2     		uxth	r3, r3	@ D.7755, tmp180
 1505 0072 D318     		adds	r3, r2, r3	@ tmp181, D.7751, D.7755
 1506 0074 9AB2     		uxth	r2, r3	@ D.7756, tmp181
 1507 0076 7B68     		ldr	r3, [r7, #4]	@ tmp182, req
 1508 0078 DA80     		strh	r2, [r3, #6]	@ movhi	@ tmp183, req_3(D)->wLength
 692:Middlewares/ST/STM32_USB_Device_Library/Core/usbd_ctlreq.cpp **** 
 693:Middlewares/ST/STM32_USB_Device_Library/Core/usbd_ctlreq.cpp **** }
ARM GAS  /tmp/ccImnKuM.s 			page 40


 1509              		.loc 1 693 0
 1510 007a 07F10C07 		add	r7, r7, #12	@,,
 1511 007e BD46     		mov	sp, r7
 1512 0080 80BC     		pop	{r7}
 1513 0082 7047     		bx	lr
 1514              		.cfi_endproc
 1515              	.LFE66:
 1516              		.size	_Z22USBD_ParseSetupRequestP13usb_setup_reqPh, .-_Z22USBD_ParseSetupRequestP13usb_setup_reqPh
 1517              		.section	.text._Z13USBD_CtlErrorP19_USBD_HandleTypeDefP13usb_setup_req,"ax",%progbits
 1518              		.align	2
 1519              		.global	_Z13USBD_CtlErrorP19_USBD_HandleTypeDefP13usb_setup_req
 1520              		.thumb
 1521              		.thumb_func
 1522              		.type	_Z13USBD_CtlErrorP19_USBD_HandleTypeDefP13usb_setup_req, %function
 1523              	_Z13USBD_CtlErrorP19_USBD_HandleTypeDefP13usb_setup_req:
 1524              	.LFB67:
 694:Middlewares/ST/STM32_USB_Device_Library/Core/usbd_ctlreq.cpp **** 
 695:Middlewares/ST/STM32_USB_Device_Library/Core/usbd_ctlreq.cpp **** /**
 696:Middlewares/ST/STM32_USB_Device_Library/Core/usbd_ctlreq.cpp **** * @brief  USBD_CtlError 
 697:Middlewares/ST/STM32_USB_Device_Library/Core/usbd_ctlreq.cpp **** *         Handle USB low level Error
 698:Middlewares/ST/STM32_USB_Device_Library/Core/usbd_ctlreq.cpp **** * @param  pdev: device instance
 699:Middlewares/ST/STM32_USB_Device_Library/Core/usbd_ctlreq.cpp **** * @param  req: usb request
 700:Middlewares/ST/STM32_USB_Device_Library/Core/usbd_ctlreq.cpp **** * @retval None
 701:Middlewares/ST/STM32_USB_Device_Library/Core/usbd_ctlreq.cpp **** */
 702:Middlewares/ST/STM32_USB_Device_Library/Core/usbd_ctlreq.cpp **** 
 703:Middlewares/ST/STM32_USB_Device_Library/Core/usbd_ctlreq.cpp **** void USBD_CtlError( USBD_HandleTypeDef *pdev ,
 704:Middlewares/ST/STM32_USB_Device_Library/Core/usbd_ctlreq.cpp ****                             USBD_SetupReqTypedef *req)
 705:Middlewares/ST/STM32_USB_Device_Library/Core/usbd_ctlreq.cpp **** {
 1525              		.loc 1 705 0
 1526              		.cfi_startproc
 1527              		@ args = 0, pretend = 0, frame = 8
 1528              		@ frame_needed = 1, uses_anonymous_args = 0
 1529 0000 80B5     		push	{r7, lr}	@
 1530              	.LCFI33:
 1531              		.cfi_def_cfa_offset 8
 1532              		.cfi_offset 7, -8
 1533              		.cfi_offset 14, -4
 1534 0002 82B0     		sub	sp, sp, #8	@,,
 1535              	.LCFI34:
 1536              		.cfi_def_cfa_offset 16
 1537 0004 00AF     		add	r7, sp, #0	@,,
 1538              	.LCFI35:
 1539              		.cfi_def_cfa_register 7
 1540 0006 7860     		str	r0, [r7, #4]	@ pdev, pdev
 1541 0008 3960     		str	r1, [r7, #0]	@ req, req
 706:Middlewares/ST/STM32_USB_Device_Library/Core/usbd_ctlreq.cpp ****   USBD_LL_StallEP(pdev , 0x80);
 1542              		.loc 1 706 0
 1543 000a 7868     		ldr	r0, [r7, #4]	@, pdev
 1544 000c 4FF08001 		mov	r1, #128	@,
 1545 0010 FFF7FEFF 		bl	_Z15USBD_LL_StallEPP19_USBD_HandleTypeDefh	@
 707:Middlewares/ST/STM32_USB_Device_Library/Core/usbd_ctlreq.cpp ****   USBD_LL_StallEP(pdev , 0);
 1546              		.loc 1 707 0
 1547 0014 7868     		ldr	r0, [r7, #4]	@, pdev
 1548 0016 4FF00001 		mov	r1, #0	@,
 1549 001a FFF7FEFF 		bl	_Z15USBD_LL_StallEPP19_USBD_HandleTypeDefh	@
 708:Middlewares/ST/STM32_USB_Device_Library/Core/usbd_ctlreq.cpp **** }
 1550              		.loc 1 708 0
ARM GAS  /tmp/ccImnKuM.s 			page 41


 1551 001e 07F10807 		add	r7, r7, #8	@,,
 1552 0022 BD46     		mov	sp, r7
 1553 0024 80BD     		pop	{r7, pc}
 1554              		.cfi_endproc
 1555              	.LFE67:
 1556              		.size	_Z13USBD_CtlErrorP19_USBD_HandleTypeDefP13usb_setup_req, .-_Z13USBD_CtlErrorP19_USBD_HandleT
 1557 0026 00BF     		.section	.text._Z14USBD_GetStringPhS_Pt,"ax",%progbits
 1558              		.align	2
 1559              		.global	_Z14USBD_GetStringPhS_Pt
 1560              		.thumb
 1561              		.thumb_func
 1562              		.type	_Z14USBD_GetStringPhS_Pt, %function
 1563              	_Z14USBD_GetStringPhS_Pt:
 1564              	.LFB68:
 709:Middlewares/ST/STM32_USB_Device_Library/Core/usbd_ctlreq.cpp **** 
 710:Middlewares/ST/STM32_USB_Device_Library/Core/usbd_ctlreq.cpp **** 
 711:Middlewares/ST/STM32_USB_Device_Library/Core/usbd_ctlreq.cpp **** /**
 712:Middlewares/ST/STM32_USB_Device_Library/Core/usbd_ctlreq.cpp ****   * @brief  USBD_GetString
 713:Middlewares/ST/STM32_USB_Device_Library/Core/usbd_ctlreq.cpp ****   *         Convert Ascii string into unicode one
 714:Middlewares/ST/STM32_USB_Device_Library/Core/usbd_ctlreq.cpp ****   * @param  desc : descriptor buffer
 715:Middlewares/ST/STM32_USB_Device_Library/Core/usbd_ctlreq.cpp ****   * @param  unicode : Formatted string buffer (unicode)
 716:Middlewares/ST/STM32_USB_Device_Library/Core/usbd_ctlreq.cpp ****   * @param  len : descriptor length
 717:Middlewares/ST/STM32_USB_Device_Library/Core/usbd_ctlreq.cpp ****   * @retval None
 718:Middlewares/ST/STM32_USB_Device_Library/Core/usbd_ctlreq.cpp ****   */
 719:Middlewares/ST/STM32_USB_Device_Library/Core/usbd_ctlreq.cpp **** void USBD_GetString(uint8_t *desc, uint8_t *unicode, uint16_t *len)
 720:Middlewares/ST/STM32_USB_Device_Library/Core/usbd_ctlreq.cpp **** {
 1565              		.loc 1 720 0
 1566              		.cfi_startproc
 1567              		@ args = 0, pretend = 0, frame = 24
 1568              		@ frame_needed = 1, uses_anonymous_args = 0
 1569 0000 80B5     		push	{r7, lr}	@
 1570              	.LCFI36:
 1571              		.cfi_def_cfa_offset 8
 1572              		.cfi_offset 7, -8
 1573              		.cfi_offset 14, -4
 1574 0002 86B0     		sub	sp, sp, #24	@,,
 1575              	.LCFI37:
 1576              		.cfi_def_cfa_offset 32
 1577 0004 00AF     		add	r7, sp, #0	@,,
 1578              	.LCFI38:
 1579              		.cfi_def_cfa_register 7
 1580 0006 F860     		str	r0, [r7, #12]	@ desc, desc
 1581 0008 B960     		str	r1, [r7, #8]	@ unicode, unicode
 1582 000a 7A60     		str	r2, [r7, #4]	@ len, len
 1583              	.LBB8:
 721:Middlewares/ST/STM32_USB_Device_Library/Core/usbd_ctlreq.cpp ****   uint8_t idx = 0;
 1584              		.loc 1 721 0
 1585 000c 4FF00003 		mov	r3, #0	@ tmp152,
 1586 0010 FB75     		strb	r3, [r7, #23]	@ tmp153, idx
 722:Middlewares/ST/STM32_USB_Device_Library/Core/usbd_ctlreq.cpp ****   
 723:Middlewares/ST/STM32_USB_Device_Library/Core/usbd_ctlreq.cpp ****   if (desc != NULL) 
 1587              		.loc 1 723 0
 1588 0012 FB68     		ldr	r3, [r7, #12]	@ tmp154, desc
 1589 0014 002B     		cmp	r3, #0	@ tmp154,
 1590 0016 42D0     		beq	.L128	@,
 724:Middlewares/ST/STM32_USB_Device_Library/Core/usbd_ctlreq.cpp ****   {
 725:Middlewares/ST/STM32_USB_Device_Library/Core/usbd_ctlreq.cpp ****     *len =  USBD_GetLen(desc) * 2 + 2;    
ARM GAS  /tmp/ccImnKuM.s 			page 42


 1591              		.loc 1 725 0
 1592 0018 F868     		ldr	r0, [r7, #12]	@, desc
 1593 001a FFF7FEFF 		bl	_ZL11USBD_GetLenPh	@
 1594 001e 0346     		mov	r3, r0	@ tmp155,
 1595 0020 03F10103 		add	r3, r3, #1	@ D.7711, D.7710,
 1596 0024 9BB2     		uxth	r3, r3	@ D.7712, D.7711
 1597 0026 4FEA4303 		lsl	r3, r3, #1	@ tmp156, D.7712,
 1598 002a 9AB2     		uxth	r2, r3	@ D.7713, tmp156
 1599 002c 7B68     		ldr	r3, [r7, #4]	@ tmp157, len
 1600 002e 1A80     		strh	r2, [r3, #0]	@ movhi	@ tmp158, *len_10(D)
 726:Middlewares/ST/STM32_USB_Device_Library/Core/usbd_ctlreq.cpp ****     unicode[idx++] = *len;
 1601              		.loc 1 726 0
 1602 0030 FB7D     		ldrb	r3, [r7, #23]	@ zero_extendqisi2	@ D.7714, idx
 1603 0032 BA68     		ldr	r2, [r7, #8]	@ tmp159, unicode
 1604 0034 D318     		adds	r3, r2, r3	@ D.7715, tmp159, D.7714
 1605 0036 7A68     		ldr	r2, [r7, #4]	@ tmp160, len
 1606 0038 1288     		ldrh	r2, [r2, #0]	@ D.7716, *len_10(D)
 1607 003a D2B2     		uxtb	r2, r2	@ D.7717, D.7716
 1608 003c 1A70     		strb	r2, [r3, #0]	@ tmp161, *D.7715_13
 1609 003e FB7D     		ldrb	r3, [r7, #23]	@ tmp162, idx
 1610 0040 03F10103 		add	r3, r3, #1	@ tmp163, tmp162,
 1611 0044 FB75     		strb	r3, [r7, #23]	@ tmp164, idx
 727:Middlewares/ST/STM32_USB_Device_Library/Core/usbd_ctlreq.cpp ****     unicode[idx++] =  USB_DESC_TYPE_STRING;
 1612              		.loc 1 727 0
 1613 0046 FB7D     		ldrb	r3, [r7, #23]	@ zero_extendqisi2	@ D.7718, idx
 1614 0048 BA68     		ldr	r2, [r7, #8]	@ tmp165, unicode
 1615 004a D318     		adds	r3, r2, r3	@ D.7719, tmp165, D.7718
 1616 004c 4FF00302 		mov	r2, #3	@ tmp166,
 1617 0050 1A70     		strb	r2, [r3, #0]	@ tmp167, *D.7719_18
 1618 0052 FB7D     		ldrb	r3, [r7, #23]	@ tmp168, idx
 1619 0054 03F10103 		add	r3, r3, #1	@ tmp169, tmp168,
 1620 0058 FB75     		strb	r3, [r7, #23]	@ tmp170, idx
 728:Middlewares/ST/STM32_USB_Device_Library/Core/usbd_ctlreq.cpp ****     
 729:Middlewares/ST/STM32_USB_Device_Library/Core/usbd_ctlreq.cpp ****     while (*desc != '\0') 
 1621              		.loc 1 729 0
 1622 005a 17E0     		b	.L130	@
 1623              	.L131:
 730:Middlewares/ST/STM32_USB_Device_Library/Core/usbd_ctlreq.cpp ****     {
 731:Middlewares/ST/STM32_USB_Device_Library/Core/usbd_ctlreq.cpp ****       unicode[idx++] = *desc++;
 1624              		.loc 1 731 0
 1625 005c FB7D     		ldrb	r3, [r7, #23]	@ zero_extendqisi2	@ D.7725, idx
 1626 005e BA68     		ldr	r2, [r7, #8]	@ tmp171, unicode
 1627 0060 D318     		adds	r3, r2, r3	@ D.7726, tmp171, D.7725
 1628 0062 FA68     		ldr	r2, [r7, #12]	@ tmp172, desc
 1629 0064 1278     		ldrb	r2, [r2, #0]	@ zero_extendqisi2	@ D.7727, *desc_1
 1630 0066 1A70     		strb	r2, [r3, #0]	@ tmp173, *D.7726_23
 1631 0068 FB7D     		ldrb	r3, [r7, #23]	@ tmp174, idx
 1632 006a 03F10103 		add	r3, r3, #1	@ tmp175, tmp174,
 1633 006e FB75     		strb	r3, [r7, #23]	@ tmp176, idx
 1634 0070 FB68     		ldr	r3, [r7, #12]	@ tmp178, desc
 1635 0072 03F10103 		add	r3, r3, #1	@ tmp177, tmp178,
 1636 0076 FB60     		str	r3, [r7, #12]	@ tmp177, desc
 732:Middlewares/ST/STM32_USB_Device_Library/Core/usbd_ctlreq.cpp ****       unicode[idx++] =  0x00;
 1637              		.loc 1 732 0
 1638 0078 FB7D     		ldrb	r3, [r7, #23]	@ zero_extendqisi2	@ D.7728, idx
 1639 007a BA68     		ldr	r2, [r7, #8]	@ tmp179, unicode
 1640 007c D318     		adds	r3, r2, r3	@ D.7729, tmp179, D.7728
ARM GAS  /tmp/ccImnKuM.s 			page 43


 1641 007e 4FF00002 		mov	r2, #0	@ tmp180,
 1642 0082 1A70     		strb	r2, [r3, #0]	@ tmp181, *D.7729_28
 1643 0084 FB7D     		ldrb	r3, [r7, #23]	@ tmp182, idx
 1644 0086 03F10103 		add	r3, r3, #1	@ tmp183, tmp182,
 1645 008a FB75     		strb	r3, [r7, #23]	@ tmp184, idx
 1646              	.L130:
 729:Middlewares/ST/STM32_USB_Device_Library/Core/usbd_ctlreq.cpp ****     while (*desc != '\0') 
 1647              		.loc 1 729 0 discriminator 1
 1648 008c FB68     		ldr	r3, [r7, #12]	@ tmp185, desc
 1649 008e 1B78     		ldrb	r3, [r3, #0]	@ zero_extendqisi2	@ D.7723, *desc_1
 1650 0090 002B     		cmp	r3, #0	@ D.7723,
 1651 0092 0CBF     		ite	eq	@
 1652 0094 0023     		moveq	r3, #0	@, tmp187
 1653 0096 0123     		movne	r3, #1	@, tmp187
 1654 0098 DBB2     		uxtb	r3, r3	@ D.7724, tmp186
 1655 009a 002B     		cmp	r3, #0	@ D.7724,
 1656 009c DED1     		bne	.L131	@,
 1657              	.L128:
 1658              	.LBE8:
 733:Middlewares/ST/STM32_USB_Device_Library/Core/usbd_ctlreq.cpp ****     }
 734:Middlewares/ST/STM32_USB_Device_Library/Core/usbd_ctlreq.cpp ****   } 
 735:Middlewares/ST/STM32_USB_Device_Library/Core/usbd_ctlreq.cpp **** }
 1659              		.loc 1 735 0
 1660 009e 07F11807 		add	r7, r7, #24	@,,
 1661 00a2 BD46     		mov	sp, r7
 1662 00a4 80BD     		pop	{r7, pc}
 1663              		.cfi_endproc
 1664              	.LFE68:
 1665              		.size	_Z14USBD_GetStringPhS_Pt, .-_Z14USBD_GetStringPhS_Pt
 1666 00a6 00BF     		.section	.text._ZL11USBD_GetLenPh,"ax",%progbits
 1667              		.align	2
 1668              		.thumb
 1669              		.thumb_func
 1670              		.type	_ZL11USBD_GetLenPh, %function
 1671              	_ZL11USBD_GetLenPh:
 1672              	.LFB69:
 736:Middlewares/ST/STM32_USB_Device_Library/Core/usbd_ctlreq.cpp **** 
 737:Middlewares/ST/STM32_USB_Device_Library/Core/usbd_ctlreq.cpp **** /**
 738:Middlewares/ST/STM32_USB_Device_Library/Core/usbd_ctlreq.cpp ****   * @brief  USBD_GetLen
 739:Middlewares/ST/STM32_USB_Device_Library/Core/usbd_ctlreq.cpp ****   *         return the string length
 740:Middlewares/ST/STM32_USB_Device_Library/Core/usbd_ctlreq.cpp ****    * @param  buf : pointer to the ascii string buffer
 741:Middlewares/ST/STM32_USB_Device_Library/Core/usbd_ctlreq.cpp ****   * @retval string length
 742:Middlewares/ST/STM32_USB_Device_Library/Core/usbd_ctlreq.cpp ****   */
 743:Middlewares/ST/STM32_USB_Device_Library/Core/usbd_ctlreq.cpp **** static uint8_t USBD_GetLen(uint8_t *buf)
 744:Middlewares/ST/STM32_USB_Device_Library/Core/usbd_ctlreq.cpp **** {
 1673              		.loc 1 744 0
 1674              		.cfi_startproc
 1675              		@ args = 0, pretend = 0, frame = 16
 1676              		@ frame_needed = 1, uses_anonymous_args = 0
 1677              		@ link register save eliminated.
 1678 0000 80B4     		push	{r7}	@
 1679              	.LCFI39:
 1680              		.cfi_def_cfa_offset 4
 1681              		.cfi_offset 7, -4
 1682 0002 85B0     		sub	sp, sp, #20	@,,
 1683              	.LCFI40:
 1684              		.cfi_def_cfa_offset 24
ARM GAS  /tmp/ccImnKuM.s 			page 44


 1685 0004 00AF     		add	r7, sp, #0	@,,
 1686              	.LCFI41:
 1687              		.cfi_def_cfa_register 7
 1688 0006 7860     		str	r0, [r7, #4]	@ buf, buf
 1689              	.LBB9:
 745:Middlewares/ST/STM32_USB_Device_Library/Core/usbd_ctlreq.cpp ****     uint8_t  len = 0;
 1690              		.loc 1 745 0
 1691 0008 4FF00003 		mov	r3, #0	@ tmp138,
 1692 000c FB73     		strb	r3, [r7, #15]	@ tmp139, len
 746:Middlewares/ST/STM32_USB_Device_Library/Core/usbd_ctlreq.cpp **** 
 747:Middlewares/ST/STM32_USB_Device_Library/Core/usbd_ctlreq.cpp ****     while (*buf != '\0') 
 1693              		.loc 1 747 0
 1694 000e 07E0     		b	.L133	@
 1695              	.L134:
 748:Middlewares/ST/STM32_USB_Device_Library/Core/usbd_ctlreq.cpp ****     {
 749:Middlewares/ST/STM32_USB_Device_Library/Core/usbd_ctlreq.cpp ****         len++;
 1696              		.loc 1 749 0
 1697 0010 FB7B     		ldrb	r3, [r7, #15]	@ tmp140, len
 1698 0012 03F10103 		add	r3, r3, #1	@ tmp141, tmp140,
 1699 0016 FB73     		strb	r3, [r7, #15]	@ tmp142, len
 750:Middlewares/ST/STM32_USB_Device_Library/Core/usbd_ctlreq.cpp ****         buf++;
 1700              		.loc 1 750 0
 1701 0018 7B68     		ldr	r3, [r7, #4]	@ tmp144, buf
 1702 001a 03F10103 		add	r3, r3, #1	@ tmp143, tmp144,
 1703 001e 7B60     		str	r3, [r7, #4]	@ tmp143, buf
 1704              	.L133:
 747:Middlewares/ST/STM32_USB_Device_Library/Core/usbd_ctlreq.cpp ****     while (*buf != '\0') 
 1705              		.loc 1 747 0 discriminator 1
 1706 0020 7B68     		ldr	r3, [r7, #4]	@ tmp145, buf
 1707 0022 1B78     		ldrb	r3, [r3, #0]	@ zero_extendqisi2	@ D.7703, *buf_1
 1708 0024 002B     		cmp	r3, #0	@ D.7703,
 1709 0026 0CBF     		ite	eq	@
 1710 0028 0023     		moveq	r3, #0	@, tmp147
 1711 002a 0123     		movne	r3, #1	@, tmp147
 1712 002c DBB2     		uxtb	r3, r3	@ D.7704, tmp146
 1713 002e 002B     		cmp	r3, #0	@ D.7704,
 1714 0030 EED1     		bne	.L134	@,
 751:Middlewares/ST/STM32_USB_Device_Library/Core/usbd_ctlreq.cpp ****     }
 752:Middlewares/ST/STM32_USB_Device_Library/Core/usbd_ctlreq.cpp **** 
 753:Middlewares/ST/STM32_USB_Device_Library/Core/usbd_ctlreq.cpp ****     return len;
 1715              		.loc 1 753 0
 1716 0032 FB7B     		ldrb	r3, [r7, #15]	@ zero_extendqisi2	@ D.7705, len
 1717              	.LBE9:
 754:Middlewares/ST/STM32_USB_Device_Library/Core/usbd_ctlreq.cpp **** }
 1718              		.loc 1 754 0
 1719 0034 1846     		mov	r0, r3	@, <retval>
 1720 0036 07F11407 		add	r7, r7, #20	@,,
 1721 003a BD46     		mov	sp, r7
 1722 003c 80BC     		pop	{r7}
 1723 003e 7047     		bx	lr
 1724              		.cfi_endproc
 1725              	.LFE69:
 1726              		.size	_ZL11USBD_GetLenPh, .-_ZL11USBD_GetLenPh
 1727              		.section	.bss._ZZL14USBD_SetConfigP19_USBD_HandleTypeDefP13usb_setup_reqE6cfgidx,"aw",%nobits
 1728              		.type	_ZZL14USBD_SetConfigP19_USBD_HandleTypeDefP13usb_setup_reqE6cfgidx, %object
 1729              		.size	_ZZL14USBD_SetConfigP19_USBD_HandleTypeDefP13usb_setup_reqE6cfgidx, 1
 1730              	_ZZL14USBD_SetConfigP19_USBD_HandleTypeDefP13usb_setup_reqE6cfgidx:
ARM GAS  /tmp/ccImnKuM.s 			page 45


 1731 0000 00       		.space	1
 1732              		.text
 1733              	.Letext0:
 1734              		.file 2 "/home/maciek/gcc-arm-none-eabi/gcc-arm-none-eabi-4_7-2013q1/bin/../lib/gcc/arm-none-eabi/
 1735              		.file 3 "Middlewares/ST/STM32_USB_Device_Library/Core/usbd_def.h"
 1736              		.file 4 "Drivers/CMSIS/Include/core_cm3.h"