ARM GAS  /tmp/ccuqcpRC.s 			page 1


   1              		.syntax unified
   2              		.cpu cortex-m3
   3              		.fpu softvfp
   4              		.eabi_attribute 20, 1	@ Tag_ABI_FP_denormal
   5              		.eabi_attribute 21, 1	@ Tag_ABI_FP_exceptions
   6              		.eabi_attribute 23, 3	@ Tag_ABI_FP_number_model
   7              		.eabi_attribute 24, 1	@ Tag_ABI_align8_needed
   8              		.eabi_attribute 25, 1	@ Tag_ABI_align8_preserved
   9              		.eabi_attribute 26, 1	@ Tag_ABI_enum_size
  10              		.eabi_attribute 30, 6	@ Tag_ABI_optimization_goals
  11              		.eabi_attribute 34, 1	@ Tag_CPU_unaligned_access
  12              		.eabi_attribute 18, 4	@ Tag_ABI_PCS_wchar_t
  13              		.file	"usbd_conf.cpp"
  14              	@ GNU C++ (GNU Tools for ARM Embedded Processors) version 4.7.3 20130312 (release) [ARM/embedded-4_
  15              	@	compiled by GNU C version 4.3.6, GMP version 4.3.2, MPFR version 2.4.2, MPC version 0.8.1
  16              	@ GGC heuristics: --param ggc-min-expand=100 --param ggc-min-heapsize=131072
  17              	@ options passed:  -I . -I Src -I hdr -I Inc -I Middlewares
  18              	@ -I Middlewares/ST -I Middlewares/ST/STM32_USB_Device_Library/Class/CDC
  19              	@ -I Middlewares/ST/STM32_USB_Device_Library/Core -I Drivers
  20              	@ -I Drivers/CMSIS -I Drivers/CMSIS/Device/ST/STM32L1xx
  21              	@ -I Drivers/CMSIS/Include -I Drivers/STM32L1xx_HAL_Driver
  22              	@ -imultilib armv7-m
  23              	@ -iprefix /home/maciek/gcc-arm-none-eabi/gcc-arm-none-eabi-4_7-2013q1/bin/../lib/gcc/arm-none-eabi
  24              	@ -isysroot /home/maciek/gcc-arm-none-eabi/gcc-arm-none-eabi-4_7-2013q1/bin/../arm-none-eabi
  25              	@ -MD out/usbd_conf.d -MF out/usbd_conf.d -MP -MQ out/usbd_conf.o
  26              	@ -D__USES_INITFINI__ -D STM32L1XX_MD Src/usbd_conf.cpp -mcpu=cortex-m3
  27              	@ -mthumb -auxbase-strip out/usbd_conf.o -g -ggdb3 -O0 -Wall -Wextra
  28              	@ -std=gnu++11 -ffunction-sections -fdata-sections -fno-rtti
  29              	@ -fno-exceptions -fverbose-asm
  30              	@ options enabled:  -fauto-inc-dec -fbranch-count-reg -fcommon
  31              	@ -fdata-sections -fdebug-types-section -fdelete-null-pointer-checks
  32              	@ -fdwarf2-cfi-asm -fearly-inlining -feliminate-unused-debug-types
  33              	@ -ffunction-cse -ffunction-sections -fgcse-lm -fgnu-runtime -fident
  34              	@ -finline-atomics -fira-share-save-slots -fira-share-spill-slots -fivopts
  35              	@ -fkeep-static-consts -fleading-underscore -fmath-errno
  36              	@ -fmerge-debug-strings -fmove-loop-invariants -fpeephole
  37              	@ -fprefetch-loop-arrays -freg-struct-return
  38              	@ -fsched-critical-path-heuristic -fsched-dep-count-heuristic
  39              	@ -fsched-group-heuristic -fsched-interblock -fsched-last-insn-heuristic
  40              	@ -fsched-rank-heuristic -fsched-spec -fsched-spec-insn-heuristic
  41              	@ -fsched-stalled-insns-dep -fshow-column -fsigned-zeros
  42              	@ -fsplit-ivs-in-unroller -fstrict-volatile-bitfields -ftrapping-math
  43              	@ -ftree-cselim -ftree-forwprop -ftree-loop-if-convert -ftree-loop-im
  44              	@ -ftree-loop-ivcanon -ftree-loop-optimize -ftree-parallelize-loops=
  45              	@ -ftree-phiprop -ftree-pta -ftree-reassoc -ftree-scev-cprop
  46              	@ -ftree-slp-vectorize -ftree-vect-loop-version -funit-at-a-time
  47              	@ -fverbose-asm -fzero-initialized-in-bss -mfix-cortex-m3-ldrd
  48              	@ -mlittle-endian -msched-prolog -mthumb -munaligned-access
  49              	@ -mvectorize-with-neon-quad
  50              	
  51              		.text
  52              	.Ltext0:
  53              		.cfi_sections	.debug_frame
  54              		.global	hpcd_USB_FS
  55              		.section	.bss.hpcd_USB_FS,"aw",%nobits
  56              		.align	2
  57              		.type	hpcd_USB_FS, %object
ARM GAS  /tmp/ccuqcpRC.s 			page 2


  58              		.size	hpcd_USB_FS, 544
  59              	hpcd_USB_FS:
  60 0000 00000000 		.space	544
  60      00000000 
  60      00000000 
  60      00000000 
  60      00000000 
  61              		.global	remotewakeupon
  62              		.section	.bss.remotewakeupon,"aw",%nobits
  63              		.align	2
  64              		.type	remotewakeupon, %object
  65              		.size	remotewakeupon, 4
  66              	remotewakeupon:
  67 0000 00000000 		.space	4
  68              		.section	.text.HAL_PCD_MspInit,"ax",%progbits
  69              		.align	2
  70              		.global	HAL_PCD_MspInit
  71              		.thumb
  72              		.thumb_func
  73              		.type	HAL_PCD_MspInit, %function
  74              	HAL_PCD_MspInit:
  75              	.LFB56:
  76              		.file 1 "Src/usbd_conf.cpp"
   1:Src/usbd_conf.cpp **** /**
   2:Src/usbd_conf.cpp ****   ******************************************************************************
   3:Src/usbd_conf.cpp ****   * @file           : usbd_conf.c
   4:Src/usbd_conf.cpp ****   * @date           : 15/12/2014 14:52:45   
   5:Src/usbd_conf.cpp ****   * @version        : v1.0_Cube
   6:Src/usbd_conf.cpp ****   * @brief          : This file implements the board support package for the USB device library
   7:Src/usbd_conf.cpp ****   ******************************************************************************
   8:Src/usbd_conf.cpp ****   *
   9:Src/usbd_conf.cpp ****   * COPYRIGHT(c) 2014 STMicroelectronics
  10:Src/usbd_conf.cpp ****   *
  11:Src/usbd_conf.cpp ****   * Redistribution and use in source and binary forms, with or without modification,
  12:Src/usbd_conf.cpp ****   * are permitted provided that the following conditions are met:
  13:Src/usbd_conf.cpp ****   * 1. Redistributions of source code must retain the above copyright notice,
  14:Src/usbd_conf.cpp ****   * this list of conditions and the following disclaimer.
  15:Src/usbd_conf.cpp ****   * 2. Redistributions in binary form must reproduce the above copyright notice,
  16:Src/usbd_conf.cpp ****   * this list of conditions and the following disclaimer in the documentation
  17:Src/usbd_conf.cpp ****   * and/or other materials provided with the distribution.
  18:Src/usbd_conf.cpp ****   * 3. Neither the name of STMicroelectronics nor the names of its contributors
  19:Src/usbd_conf.cpp ****   * may be used to endorse or promote products derived from this software
  20:Src/usbd_conf.cpp ****   * without specific prior written permission.
  21:Src/usbd_conf.cpp ****   *
  22:Src/usbd_conf.cpp ****   * THIS SOFTWARE IS PROVIDED BY THE COPYRIGHT HOLDERS AND CONTRIBUTORS "AS IS"
  23:Src/usbd_conf.cpp ****   * AND ANY EXPRESS OR IMPLIED WARRANTIES, INCLUDING, BUT NOT LIMITED TO, THE
  24:Src/usbd_conf.cpp ****   * IMPLIED WARRANTIES OF MERCHANTABILITY AND FITNESS FOR A PARTICULAR PURPOSE ARE
  25:Src/usbd_conf.cpp ****   * DISCLAIMED. IN NO EVENT SHALL THE COPYRIGHT HOLDER OR CONTRIBUTORS BE LIABLE
  26:Src/usbd_conf.cpp ****   * FOR ANY DIRECT, INDIRECT, INCIDENTAL, SPECIAL, EXEMPLARY, OR CONSEQUENTIAL
  27:Src/usbd_conf.cpp ****   * DAMAGES (INCLUDING, BUT NOT LIMITED TO, PROCUREMENT OF SUBSTITUTE GOODS OR
  28:Src/usbd_conf.cpp ****   * SERVICES; LOSS OF USE, DATA, OR PROFITS; OR BUSINESS INTERRUPTION) HOWEVER
  29:Src/usbd_conf.cpp ****   * CAUSED AND ON ANY THEORY OF LIABILITY, WHETHER IN CONTRACT, STRICT LIABILITY,
  30:Src/usbd_conf.cpp ****   * OR TORT (INCLUDING NEGLIGENCE OR OTHERWISE) ARISING IN ANY WAY OUT OF THE USE
  31:Src/usbd_conf.cpp ****   * OF THIS SOFTWARE, EVEN IF ADVISED OF THE POSSIBILITY OF SUCH DAMAGE.
  32:Src/usbd_conf.cpp ****   *
  33:Src/usbd_conf.cpp ****   ******************************************************************************
  34:Src/usbd_conf.cpp **** */
ARM GAS  /tmp/ccuqcpRC.s 			page 3


  35:Src/usbd_conf.cpp **** /* Includes ------------------------------------------------------------------*/
  36:Src/usbd_conf.cpp **** #include "stm32l1xx.h"
  37:Src/usbd_conf.cpp **** #include "stm32l1xx_hal.h"
  38:Src/usbd_conf.cpp **** #include "usbd_def.h"
  39:Src/usbd_conf.cpp **** #include "usbd_core.h"
  40:Src/usbd_conf.cpp **** #include "main.h"
  41:Src/usbd_conf.cpp **** 
  42:Src/usbd_conf.cpp **** #pragma GCC diagnostic ignored "-fpermissive"
  43:Src/usbd_conf.cpp **** /* Private typedef -----------------------------------------------------------*/
  44:Src/usbd_conf.cpp **** /* Private define ------------------------------------------------------------*/
  45:Src/usbd_conf.cpp **** /* Private macro -------------------------------------------------------------*/
  46:Src/usbd_conf.cpp **** /* Private variables ---------------------------------------------------------*/
  47:Src/usbd_conf.cpp **** PCD_HandleTypeDef hpcd_USB_FS;
  48:Src/usbd_conf.cpp **** 
  49:Src/usbd_conf.cpp **** /* USER CODE BEGIN 0 */
  50:Src/usbd_conf.cpp **** __IO uint32_t remotewakeupon=0;
  51:Src/usbd_conf.cpp **** /* USER CODE END 0 */
  52:Src/usbd_conf.cpp **** 
  53:Src/usbd_conf.cpp **** /* Private function prototypes -----------------------------------------------*/
  54:Src/usbd_conf.cpp **** /* Private functions ---------------------------------------------------------*/
  55:Src/usbd_conf.cpp **** /* USER CODE BEGIN 1 */
  56:Src/usbd_conf.cpp **** static void SystemClockConfig_Resume(void);
  57:Src/usbd_conf.cpp **** /* USER CODE END 1 */
  58:Src/usbd_conf.cpp **** void HAL_PCDEx_SetConnectionState(PCD_HandleTypeDef *hpcd, uint8_t state);
  59:Src/usbd_conf.cpp **** void SystemClock_Config2(void);
  60:Src/usbd_conf.cpp **** 
  61:Src/usbd_conf.cpp **** /*******************************************************************************
  62:Src/usbd_conf.cpp ****                        LL Driver Callbacks (PCD -> USB Device Library)
  63:Src/usbd_conf.cpp **** *******************************************************************************/
  64:Src/usbd_conf.cpp **** /* MSP Init */
  65:Src/usbd_conf.cpp **** 
  66:Src/usbd_conf.cpp **** void HAL_PCD_MspInit(PCD_HandleTypeDef* hpcd)
  67:Src/usbd_conf.cpp **** {
  77              		.loc 1 67 0
  78              		.cfi_startproc
  79              		@ args = 0, pretend = 0, frame = 8
  80              		@ frame_needed = 1, uses_anonymous_args = 0
  81 0000 80B5     		push	{r7, lr}	@
  82              	.LCFI0:
  83              		.cfi_def_cfa_offset 8
  84              		.cfi_offset 7, -8
  85              		.cfi_offset 14, -4
  86 0002 82B0     		sub	sp, sp, #8	@,,
  87              	.LCFI1:
  88              		.cfi_def_cfa_offset 16
  89 0004 00AF     		add	r7, sp, #0	@,,
  90              	.LCFI2:
  91              		.cfi_def_cfa_register 7
  92 0006 7860     		str	r0, [r7, #4]	@ hpcd, hpcd
  68:Src/usbd_conf.cpp ****   if(hpcd->Instance==USB)
  93              		.loc 1 68 0
  94 0008 7B68     		ldr	r3, [r7, #4]	@ tmp139, hpcd
  95 000a 1A68     		ldr	r2, [r3, #0]	@ D.7826, hpcd_1(D)->Instance
  96 000c 4FF4B843 		mov	r3, #23552	@ tmp140,
  97 0010 C4F20003 		movt	r3, 16384	@ tmp140,
  98 0014 9A42     		cmp	r2, r3	@ D.7826, tmp140
  99 0016 17D1     		bne	.L1	@,
ARM GAS  /tmp/ccuqcpRC.s 			page 4


  69:Src/usbd_conf.cpp ****   {
  70:Src/usbd_conf.cpp ****   /* USER CODE BEGIN USB_MspInit 0 */
  71:Src/usbd_conf.cpp **** 
  72:Src/usbd_conf.cpp ****   /* USER CODE END USB_MspInit 0 */
  73:Src/usbd_conf.cpp ****     /* Peripheral clock enable */
  74:Src/usbd_conf.cpp ****     __USB_CLK_ENABLE();
 100              		.loc 1 74 0
 101 0018 4FF46053 		mov	r3, #14336	@ D.7829,
 102 001c C4F20203 		movt	r3, 16386	@ D.7829,
 103 0020 4FF46052 		mov	r2, #14336	@ D.7830,
 104 0024 C4F20202 		movt	r2, 16386	@ D.7830,
 105 0028 526A     		ldr	r2, [r2, #36]	@ D.7831, D.7830_4->APB1ENR
 106 002a 42F40002 		orr	r2, r2, #8388608	@ D.7832, D.7831,
 107 002e 5A62     		str	r2, [r3, #36]	@ D.7832, D.7829_3->APB1ENR
  75:Src/usbd_conf.cpp ****     HAL_NVIC_SetPriority(USB_LP_IRQn, 0, 0);
 108              		.loc 1 75 0
 109 0030 4FF01400 		mov	r0, #20	@,
 110 0034 4FF00001 		mov	r1, #0	@,
 111 0038 4FF00002 		mov	r2, #0	@,
 112 003c FFF7FEFF 		bl	HAL_NVIC_SetPriority	@
  76:Src/usbd_conf.cpp ****     HAL_NVIC_EnableIRQ(USB_LP_IRQn);
 113              		.loc 1 76 0
 114 0040 4FF01400 		mov	r0, #20	@,
 115 0044 FFF7FEFF 		bl	HAL_NVIC_EnableIRQ	@
 116              	.L1:
  77:Src/usbd_conf.cpp ****   /* USER CODE BEGIN USB_MspInit 1 */
  78:Src/usbd_conf.cpp **** 
  79:Src/usbd_conf.cpp ****   /* USER CODE END USB_MspInit 1 */
  80:Src/usbd_conf.cpp ****   }
  81:Src/usbd_conf.cpp **** }
 117              		.loc 1 81 0
 118 0048 07F10807 		add	r7, r7, #8	@,,
 119 004c BD46     		mov	sp, r7
 120 004e 80BD     		pop	{r7, pc}
 121              		.cfi_endproc
 122              	.LFE56:
 123              		.size	HAL_PCD_MspInit, .-HAL_PCD_MspInit
 124              		.section	.text.HAL_PCD_MspDeInit,"ax",%progbits
 125              		.align	2
 126              		.global	HAL_PCD_MspDeInit
 127              		.thumb
 128              		.thumb_func
 129              		.type	HAL_PCD_MspDeInit, %function
 130              	HAL_PCD_MspDeInit:
 131              	.LFB57:
  82:Src/usbd_conf.cpp **** 
  83:Src/usbd_conf.cpp **** void HAL_PCD_MspDeInit(PCD_HandleTypeDef* hpcd)
  84:Src/usbd_conf.cpp **** {
 132              		.loc 1 84 0
 133              		.cfi_startproc
 134              		@ args = 0, pretend = 0, frame = 8
 135              		@ frame_needed = 1, uses_anonymous_args = 0
 136 0000 80B5     		push	{r7, lr}	@
 137              	.LCFI3:
 138              		.cfi_def_cfa_offset 8
 139              		.cfi_offset 7, -8
 140              		.cfi_offset 14, -4
ARM GAS  /tmp/ccuqcpRC.s 			page 5


 141 0002 82B0     		sub	sp, sp, #8	@,,
 142              	.LCFI4:
 143              		.cfi_def_cfa_offset 16
 144 0004 00AF     		add	r7, sp, #0	@,,
 145              	.LCFI5:
 146              		.cfi_def_cfa_register 7
 147 0006 7860     		str	r0, [r7, #4]	@ hpcd, hpcd
  85:Src/usbd_conf.cpp ****   if(hpcd->Instance==USB)
 148              		.loc 1 85 0
 149 0008 7B68     		ldr	r3, [r7, #4]	@ tmp139, hpcd
 150 000a 1A68     		ldr	r2, [r3, #0]	@ D.7818, hpcd_1(D)->Instance
 151 000c 4FF4B843 		mov	r3, #23552	@ tmp140,
 152 0010 C4F20003 		movt	r3, 16384	@ tmp140,
 153 0014 9A42     		cmp	r2, r3	@ D.7818, tmp140
 154 0016 0FD1     		bne	.L3	@,
  86:Src/usbd_conf.cpp ****   {
  87:Src/usbd_conf.cpp ****   /* USER CODE BEGIN USB_MspDeInit 0 */
  88:Src/usbd_conf.cpp **** 
  89:Src/usbd_conf.cpp ****   /* USER CODE END USB_MspDeInit 0 */
  90:Src/usbd_conf.cpp ****     /* Peripheral clock disable */
  91:Src/usbd_conf.cpp ****     __USB_CLK_DISABLE();
 155              		.loc 1 91 0
 156 0018 4FF46053 		mov	r3, #14336	@ D.7821,
 157 001c C4F20203 		movt	r3, 16386	@ D.7821,
 158 0020 4FF46052 		mov	r2, #14336	@ D.7822,
 159 0024 C4F20202 		movt	r2, 16386	@ D.7822,
 160 0028 526A     		ldr	r2, [r2, #36]	@ D.7823, D.7822_4->APB1ENR
 161 002a 22F40002 		bic	r2, r2, #8388608	@ D.7824, D.7823,
 162 002e 5A62     		str	r2, [r3, #36]	@ D.7824, D.7821_3->APB1ENR
  92:Src/usbd_conf.cpp **** 
  93:Src/usbd_conf.cpp ****     /* Peripheral interrupt Deinit*/
  94:Src/usbd_conf.cpp ****     HAL_NVIC_DisableIRQ(USB_LP_IRQn);
 163              		.loc 1 94 0
 164 0030 4FF01400 		mov	r0, #20	@,
 165 0034 FFF7FEFF 		bl	HAL_NVIC_DisableIRQ	@
 166              	.L3:
  95:Src/usbd_conf.cpp **** 
  96:Src/usbd_conf.cpp ****   /* USER CODE BEGIN USB_MspDeInit 1 */
  97:Src/usbd_conf.cpp **** 
  98:Src/usbd_conf.cpp ****   /* USER CODE END USB_MspDeInit 1 */
  99:Src/usbd_conf.cpp ****   }
 100:Src/usbd_conf.cpp **** }
 167              		.loc 1 100 0
 168 0038 07F10807 		add	r7, r7, #8	@,,
 169 003c BD46     		mov	sp, r7
 170 003e 80BD     		pop	{r7, pc}
 171              		.cfi_endproc
 172              	.LFE57:
 173              		.size	HAL_PCD_MspDeInit, .-HAL_PCD_MspDeInit
 174              		.section	.text.HAL_PCD_SetupStageCallback,"ax",%progbits
 175              		.align	2
 176              		.global	HAL_PCD_SetupStageCallback
 177              		.thumb
 178              		.thumb_func
 179              		.type	HAL_PCD_SetupStageCallback, %function
 180              	HAL_PCD_SetupStageCallback:
 181              	.LFB58:
ARM GAS  /tmp/ccuqcpRC.s 			page 6


 101:Src/usbd_conf.cpp **** 
 102:Src/usbd_conf.cpp **** /**
 103:Src/usbd_conf.cpp ****   * @brief  Setup stage callback
 104:Src/usbd_conf.cpp ****   * @param  hpcd: PCD handle
 105:Src/usbd_conf.cpp ****   * @retval None
 106:Src/usbd_conf.cpp ****   */
 107:Src/usbd_conf.cpp **** void HAL_PCD_SetupStageCallback(PCD_HandleTypeDef *hpcd)
 108:Src/usbd_conf.cpp **** {
 182              		.loc 1 108 0
 183              		.cfi_startproc
 184              		@ args = 0, pretend = 0, frame = 8
 185              		@ frame_needed = 1, uses_anonymous_args = 0
 186 0000 80B5     		push	{r7, lr}	@
 187              	.LCFI6:
 188              		.cfi_def_cfa_offset 8
 189              		.cfi_offset 7, -8
 190              		.cfi_offset 14, -4
 191 0002 82B0     		sub	sp, sp, #8	@,,
 192              	.LCFI7:
 193              		.cfi_def_cfa_offset 16
 194 0004 00AF     		add	r7, sp, #0	@,,
 195              	.LCFI8:
 196              		.cfi_def_cfa_register 7
 197 0006 7860     		str	r0, [r7, #4]	@ hpcd, hpcd
 109:Src/usbd_conf.cpp ****   USBD_LL_SetupStage(hpcd->pData, (uint8_t *)hpcd->Setup);
 198              		.loc 1 109 0
 199 0008 7B68     		ldr	r3, [r7, #4]	@ tmp136, hpcd
 200 000a D3F81C22 		ldr	r2, [r3, #540]	@ D.7816, hpcd_1(D)->pData
 201 000e 7B68     		ldr	r3, [r7, #4]	@ tmp137, hpcd
 202 0010 03F5F673 		add	r3, r3, #492	@ D.7817, tmp137,
 203 0014 1046     		mov	r0, r2	@, D.7816
 204 0016 1946     		mov	r1, r3	@, D.7817
 205 0018 FFF7FEFF 		bl	_Z18USBD_LL_SetupStageP19_USBD_HandleTypeDefPh	@
 110:Src/usbd_conf.cpp **** }
 206              		.loc 1 110 0
 207 001c 07F10807 		add	r7, r7, #8	@,,
 208 0020 BD46     		mov	sp, r7
 209 0022 80BD     		pop	{r7, pc}
 210              		.cfi_endproc
 211              	.LFE58:
 212              		.size	HAL_PCD_SetupStageCallback, .-HAL_PCD_SetupStageCallback
 213              		.section	.text.HAL_PCD_DataOutStageCallback,"ax",%progbits
 214              		.align	2
 215              		.global	HAL_PCD_DataOutStageCallback
 216              		.thumb
 217              		.thumb_func
 218              		.type	HAL_PCD_DataOutStageCallback, %function
 219              	HAL_PCD_DataOutStageCallback:
 220              	.LFB59:
 111:Src/usbd_conf.cpp **** 
 112:Src/usbd_conf.cpp **** /**
 113:Src/usbd_conf.cpp ****   * @brief  Data Out stage callback.
 114:Src/usbd_conf.cpp ****   * @param  hpcd: PCD handle
 115:Src/usbd_conf.cpp ****   * @param  epnum: Endpoint Number
 116:Src/usbd_conf.cpp ****   * @retval None
 117:Src/usbd_conf.cpp ****   */
 118:Src/usbd_conf.cpp **** void HAL_PCD_DataOutStageCallback(PCD_HandleTypeDef *hpcd, uint8_t epnum)
ARM GAS  /tmp/ccuqcpRC.s 			page 7


 119:Src/usbd_conf.cpp **** {
 221              		.loc 1 119 0
 222              		.cfi_startproc
 223              		@ args = 0, pretend = 0, frame = 8
 224              		@ frame_needed = 1, uses_anonymous_args = 0
 225 0000 80B5     		push	{r7, lr}	@
 226              	.LCFI9:
 227              		.cfi_def_cfa_offset 8
 228              		.cfi_offset 7, -8
 229              		.cfi_offset 14, -4
 230 0002 82B0     		sub	sp, sp, #8	@,,
 231              	.LCFI10:
 232              		.cfi_def_cfa_offset 16
 233 0004 00AF     		add	r7, sp, #0	@,,
 234              	.LCFI11:
 235              		.cfi_def_cfa_register 7
 236 0006 7860     		str	r0, [r7, #4]	@ hpcd, hpcd
 237 0008 0B46     		mov	r3, r1	@ tmp137, epnum
 238 000a FB70     		strb	r3, [r7, #3]	@ tmp138, epnum
 120:Src/usbd_conf.cpp ****   USBD_LL_DataOutStage(hpcd->pData, epnum, hpcd->OUT_ep[epnum].xfer_buff);
 239              		.loc 1 120 0
 240 000c 7B68     		ldr	r3, [r7, #4]	@ tmp139, hpcd
 241 000e D3F81C12 		ldr	r1, [r3, #540]	@ D.7813, hpcd_1(D)->pData
 242 0012 FA78     		ldrb	r2, [r7, #3]	@ zero_extendqisi2	@ D.7814, epnum
 243 0014 7868     		ldr	r0, [r7, #4]	@ tmp140, hpcd
 244 0016 1346     		mov	r3, r2	@ tmp141, D.7814
 245 0018 4FEAC303 		lsl	r3, r3, #3	@ tmp141, tmp141,
 246 001c 9B1A     		subs	r3, r3, r2	@ tmp141, tmp141, D.7814
 247 001e 4FEA8303 		lsl	r3, r3, #2	@ tmp142, tmp141,
 248 0022 C318     		adds	r3, r0, r3	@ tmp143, tmp140, tmp141
 249 0024 03F58C73 		add	r3, r3, #280	@ tmp144, tmp143,
 250 0028 1B68     		ldr	r3, [r3, #0]	@ D.7815, hpcd_1(D)->OUT_ep[D.7814_4].xfer_buff
 251 002a FA78     		ldrb	r2, [r7, #3]	@ zero_extendqisi2	@ tmp145, epnum
 252 002c 0846     		mov	r0, r1	@, D.7813
 253 002e 1146     		mov	r1, r2	@, tmp145
 254 0030 1A46     		mov	r2, r3	@, D.7815
 255 0032 FFF7FEFF 		bl	_Z20USBD_LL_DataOutStageP19_USBD_HandleTypeDefhPh	@
 121:Src/usbd_conf.cpp **** }
 256              		.loc 1 121 0
 257 0036 07F10807 		add	r7, r7, #8	@,,
 258 003a BD46     		mov	sp, r7
 259 003c 80BD     		pop	{r7, pc}
 260              		.cfi_endproc
 261              	.LFE59:
 262              		.size	HAL_PCD_DataOutStageCallback, .-HAL_PCD_DataOutStageCallback
 263 003e 00BF     		.section	.text.HAL_PCD_DataInStageCallback,"ax",%progbits
 264              		.align	2
 265              		.global	HAL_PCD_DataInStageCallback
 266              		.thumb
 267              		.thumb_func
 268              		.type	HAL_PCD_DataInStageCallback, %function
 269              	HAL_PCD_DataInStageCallback:
 270              	.LFB60:
 122:Src/usbd_conf.cpp **** 
 123:Src/usbd_conf.cpp **** /**
 124:Src/usbd_conf.cpp ****   * @brief  Data In stage callback..
 125:Src/usbd_conf.cpp ****   * @param  hpcd: PCD handle
ARM GAS  /tmp/ccuqcpRC.s 			page 8


 126:Src/usbd_conf.cpp ****   * @param  epnum: Endpoint Number
 127:Src/usbd_conf.cpp ****   * @retval None
 128:Src/usbd_conf.cpp ****   */
 129:Src/usbd_conf.cpp **** void HAL_PCD_DataInStageCallback(PCD_HandleTypeDef *hpcd, uint8_t epnum)
 130:Src/usbd_conf.cpp **** {
 271              		.loc 1 130 0
 272              		.cfi_startproc
 273              		@ args = 0, pretend = 0, frame = 8
 274              		@ frame_needed = 1, uses_anonymous_args = 0
 275 0000 80B5     		push	{r7, lr}	@
 276              	.LCFI12:
 277              		.cfi_def_cfa_offset 8
 278              		.cfi_offset 7, -8
 279              		.cfi_offset 14, -4
 280 0002 82B0     		sub	sp, sp, #8	@,,
 281              	.LCFI13:
 282              		.cfi_def_cfa_offset 16
 283 0004 00AF     		add	r7, sp, #0	@,,
 284              	.LCFI14:
 285              		.cfi_def_cfa_register 7
 286 0006 7860     		str	r0, [r7, #4]	@ hpcd, hpcd
 287 0008 0B46     		mov	r3, r1	@ tmp137, epnum
 288 000a FB70     		strb	r3, [r7, #3]	@ tmp138, epnum
 131:Src/usbd_conf.cpp ****   USBD_LL_DataInStage(hpcd->pData, epnum, hpcd->IN_ep[epnum].xfer_buff);
 289              		.loc 1 131 0
 290 000c 7B68     		ldr	r3, [r7, #4]	@ tmp139, hpcd
 291 000e D3F81C12 		ldr	r1, [r3, #540]	@ D.7810, hpcd_1(D)->pData
 292 0012 FA78     		ldrb	r2, [r7, #3]	@ zero_extendqisi2	@ D.7811, epnum
 293 0014 7868     		ldr	r0, [r7, #4]	@ tmp140, hpcd
 294 0016 1346     		mov	r3, r2	@ tmp141, D.7811
 295 0018 4FEAC303 		lsl	r3, r3, #3	@ tmp141, tmp141,
 296 001c 9B1A     		subs	r3, r3, r2	@ tmp141, tmp141, D.7811
 297 001e 4FEA8303 		lsl	r3, r3, #2	@ tmp142, tmp141,
 298 0022 C318     		adds	r3, r0, r3	@ tmp143, tmp140, tmp141
 299 0024 03F13803 		add	r3, r3, #56	@ tmp144, tmp143,
 300 0028 1B68     		ldr	r3, [r3, #0]	@ D.7812, hpcd_1(D)->IN_ep[D.7811_4].xfer_buff
 301 002a FA78     		ldrb	r2, [r7, #3]	@ zero_extendqisi2	@ tmp145, epnum
 302 002c 0846     		mov	r0, r1	@, D.7810
 303 002e 1146     		mov	r1, r2	@, tmp145
 304 0030 1A46     		mov	r2, r3	@, D.7812
 305 0032 FFF7FEFF 		bl	_Z19USBD_LL_DataInStageP19_USBD_HandleTypeDefhPh	@
 132:Src/usbd_conf.cpp **** }
 306              		.loc 1 132 0
 307 0036 07F10807 		add	r7, r7, #8	@,,
 308 003a BD46     		mov	sp, r7
 309 003c 80BD     		pop	{r7, pc}
 310              		.cfi_endproc
 311              	.LFE60:
 312              		.size	HAL_PCD_DataInStageCallback, .-HAL_PCD_DataInStageCallback
 313 003e 00BF     		.section	.text.HAL_PCD_SOFCallback,"ax",%progbits
 314              		.align	2
 315              		.global	HAL_PCD_SOFCallback
 316              		.thumb
 317              		.thumb_func
 318              		.type	HAL_PCD_SOFCallback, %function
 319              	HAL_PCD_SOFCallback:
 320              	.LFB61:
ARM GAS  /tmp/ccuqcpRC.s 			page 9


 133:Src/usbd_conf.cpp **** 
 134:Src/usbd_conf.cpp **** /**
 135:Src/usbd_conf.cpp ****   * @brief  SOF callback.
 136:Src/usbd_conf.cpp ****   * @param  hpcd: PCD handle
 137:Src/usbd_conf.cpp ****   * @retval None
 138:Src/usbd_conf.cpp ****   */
 139:Src/usbd_conf.cpp **** void HAL_PCD_SOFCallback(PCD_HandleTypeDef *hpcd)
 140:Src/usbd_conf.cpp **** {
 321              		.loc 1 140 0
 322              		.cfi_startproc
 323              		@ args = 0, pretend = 0, frame = 8
 324              		@ frame_needed = 1, uses_anonymous_args = 0
 325 0000 80B5     		push	{r7, lr}	@
 326              	.LCFI15:
 327              		.cfi_def_cfa_offset 8
 328              		.cfi_offset 7, -8
 329              		.cfi_offset 14, -4
 330 0002 82B0     		sub	sp, sp, #8	@,,
 331              	.LCFI16:
 332              		.cfi_def_cfa_offset 16
 333 0004 00AF     		add	r7, sp, #0	@,,
 334              	.LCFI17:
 335              		.cfi_def_cfa_register 7
 336 0006 7860     		str	r0, [r7, #4]	@ hpcd, hpcd
 141:Src/usbd_conf.cpp ****   USBD_LL_SOF(hpcd->pData);
 337              		.loc 1 141 0
 338 0008 7B68     		ldr	r3, [r7, #4]	@ tmp135, hpcd
 339 000a D3F81C32 		ldr	r3, [r3, #540]	@ D.7809, hpcd_1(D)->pData
 340 000e 1846     		mov	r0, r3	@, D.7809
 341 0010 FFF7FEFF 		bl	_Z11USBD_LL_SOFP19_USBD_HandleTypeDef	@
 142:Src/usbd_conf.cpp **** }
 342              		.loc 1 142 0
 343 0014 07F10807 		add	r7, r7, #8	@,,
 344 0018 BD46     		mov	sp, r7
 345 001a 80BD     		pop	{r7, pc}
 346              		.cfi_endproc
 347              	.LFE61:
 348              		.size	HAL_PCD_SOFCallback, .-HAL_PCD_SOFCallback
 349              		.section	.text.HAL_PCD_ResetCallback,"ax",%progbits
 350              		.align	2
 351              		.global	HAL_PCD_ResetCallback
 352              		.thumb
 353              		.thumb_func
 354              		.type	HAL_PCD_ResetCallback, %function
 355              	HAL_PCD_ResetCallback:
 356              	.LFB62:
 143:Src/usbd_conf.cpp **** 
 144:Src/usbd_conf.cpp **** /**
 145:Src/usbd_conf.cpp ****   * @brief  Reset callback.
 146:Src/usbd_conf.cpp ****   * @param  hpcd: PCD handle
 147:Src/usbd_conf.cpp ****   * @retval None
 148:Src/usbd_conf.cpp ****   */
 149:Src/usbd_conf.cpp **** void HAL_PCD_ResetCallback(PCD_HandleTypeDef *hpcd)
 150:Src/usbd_conf.cpp **** { 
 357              		.loc 1 150 0
 358              		.cfi_startproc
 359              		@ args = 0, pretend = 0, frame = 16
ARM GAS  /tmp/ccuqcpRC.s 			page 10


 360              		@ frame_needed = 1, uses_anonymous_args = 0
 361 0000 80B5     		push	{r7, lr}	@
 362              	.LCFI18:
 363              		.cfi_def_cfa_offset 8
 364              		.cfi_offset 7, -8
 365              		.cfi_offset 14, -4
 366 0002 84B0     		sub	sp, sp, #16	@,,
 367              	.LCFI19:
 368              		.cfi_def_cfa_offset 24
 369 0004 00AF     		add	r7, sp, #0	@,,
 370              	.LCFI20:
 371              		.cfi_def_cfa_register 7
 372 0006 7860     		str	r0, [r7, #4]	@ hpcd, hpcd
 373              	.LBB2:
 151:Src/usbd_conf.cpp ****   USBD_SpeedTypeDef speed = USBD_SPEED_FULL;
 374              		.loc 1 151 0
 375 0008 4FF00103 		mov	r3, #1	@ tmp137,
 376 000c FB73     		strb	r3, [r7, #15]	@ tmp138, speed
 152:Src/usbd_conf.cpp **** 
 153:Src/usbd_conf.cpp ****   /*Set USB Current Speed*/
 154:Src/usbd_conf.cpp ****   switch (hpcd->Init.speed)
 377              		.loc 1 154 0
 378 000e 7B68     		ldr	r3, [r7, #4]	@ tmp139, hpcd
 379 0010 9B68     		ldr	r3, [r3, #8]	@ D.7806, hpcd_3(D)->Init.speed
 380 0012 022B     		cmp	r3, #2	@ D.7806,
 381 0014 03D1     		bne	.L13	@,
 382              	.L11:
 155:Src/usbd_conf.cpp ****   {
 156:Src/usbd_conf.cpp ****   case PCD_SPEED_FULL:
 157:Src/usbd_conf.cpp ****     speed = USBD_SPEED_FULL;    
 383              		.loc 1 157 0
 384 0016 4FF00103 		mov	r3, #1	@ tmp140,
 385 001a FB73     		strb	r3, [r7, #15]	@ tmp141, speed
 158:Src/usbd_conf.cpp ****     break;
 386              		.loc 1 158 0
 387 001c 03E0     		b	.L12	@
 388              	.L13:
 159:Src/usbd_conf.cpp **** 	
 160:Src/usbd_conf.cpp ****   default:
 161:Src/usbd_conf.cpp ****     speed = USBD_SPEED_FULL;    
 389              		.loc 1 161 0
 390 001e 4FF00103 		mov	r3, #1	@ tmp142,
 391 0022 FB73     		strb	r3, [r7, #15]	@ tmp143, speed
 162:Src/usbd_conf.cpp ****     break;    
 392              		.loc 1 162 0
 393 0024 00BF     		nop
 394              	.L12:
 163:Src/usbd_conf.cpp ****   }
 164:Src/usbd_conf.cpp ****   USBD_LL_SetSpeed(hpcd->pData, speed);  
 395              		.loc 1 164 0
 396 0026 7B68     		ldr	r3, [r7, #4]	@ tmp144, hpcd
 397 0028 D3F81C22 		ldr	r2, [r3, #540]	@ D.7807, hpcd_3(D)->pData
 398 002c FB7B     		ldrb	r3, [r7, #15]	@ zero_extendqisi2	@ tmp145, speed
 399 002e 1046     		mov	r0, r2	@, D.7807
 400 0030 1946     		mov	r1, r3	@, tmp145
 401 0032 FFF7FEFF 		bl	_Z16USBD_LL_SetSpeedP19_USBD_HandleTypeDef17USBD_SpeedTypeDef	@
 165:Src/usbd_conf.cpp ****   
ARM GAS  /tmp/ccuqcpRC.s 			page 11


 166:Src/usbd_conf.cpp ****   /*Reset Device*/
 167:Src/usbd_conf.cpp ****   USBD_LL_Reset(hpcd->pData);
 402              		.loc 1 167 0
 403 0036 7B68     		ldr	r3, [r7, #4]	@ tmp146, hpcd
 404 0038 D3F81C32 		ldr	r3, [r3, #540]	@ D.7808, hpcd_3(D)->pData
 405 003c 1846     		mov	r0, r3	@, D.7808
 406 003e FFF7FEFF 		bl	_Z13USBD_LL_ResetP19_USBD_HandleTypeDef	@
 407              	.LBE2:
 168:Src/usbd_conf.cpp **** }
 408              		.loc 1 168 0
 409 0042 07F11007 		add	r7, r7, #16	@,,
 410 0046 BD46     		mov	sp, r7
 411 0048 80BD     		pop	{r7, pc}
 412              		.cfi_endproc
 413              	.LFE62:
 414              		.size	HAL_PCD_ResetCallback, .-HAL_PCD_ResetCallback
 415 004a 00BF     		.section	.text.HAL_PCD_SuspendCallback,"ax",%progbits
 416              		.align	2
 417              		.global	HAL_PCD_SuspendCallback
 418              		.thumb
 419              		.thumb_func
 420              		.type	HAL_PCD_SuspendCallback, %function
 421              	HAL_PCD_SuspendCallback:
 422              	.LFB63:
 169:Src/usbd_conf.cpp **** 
 170:Src/usbd_conf.cpp **** /**
 171:Src/usbd_conf.cpp ****   * @brief  Suspend callback.
 172:Src/usbd_conf.cpp ****   * @param  hpcd: PCD handle
 173:Src/usbd_conf.cpp ****   * @retval None
 174:Src/usbd_conf.cpp ****   */
 175:Src/usbd_conf.cpp **** void HAL_PCD_SuspendCallback(PCD_HandleTypeDef *hpcd)
 176:Src/usbd_conf.cpp **** {
 423              		.loc 1 176 0
 424              		.cfi_startproc
 425              		@ args = 0, pretend = 0, frame = 8
 426              		@ frame_needed = 1, uses_anonymous_args = 0
 427 0000 80B5     		push	{r7, lr}	@
 428              	.LCFI21:
 429              		.cfi_def_cfa_offset 8
 430              		.cfi_offset 7, -8
 431              		.cfi_offset 14, -4
 432 0002 82B0     		sub	sp, sp, #8	@,,
 433              	.LCFI22:
 434              		.cfi_def_cfa_offset 16
 435 0004 00AF     		add	r7, sp, #0	@,,
 436              	.LCFI23:
 437              		.cfi_def_cfa_register 7
 438 0006 7860     		str	r0, [r7, #4]	@ hpcd, hpcd
 177:Src/usbd_conf.cpp ****   USBD_LL_Suspend(hpcd->pData);
 439              		.loc 1 177 0
 440 0008 7B68     		ldr	r3, [r7, #4]	@ tmp140, hpcd
 441 000a D3F81C32 		ldr	r3, [r3, #540]	@ D.7796, hpcd_1(D)->pData
 442 000e 1846     		mov	r0, r3	@, D.7796
 443 0010 FFF7FEFF 		bl	_Z15USBD_LL_SuspendP19_USBD_HandleTypeDef	@
 178:Src/usbd_conf.cpp ****   /*Enter in STOP mode */
 179:Src/usbd_conf.cpp ****   /* USER CODE BEGIN 2 */
 180:Src/usbd_conf.cpp ****   if (hpcd->Init.low_power_enable)
ARM GAS  /tmp/ccuqcpRC.s 			page 12


 444              		.loc 1 180 0
 445 0014 7B68     		ldr	r3, [r7, #4]	@ tmp141, hpcd
 446 0016 9B69     		ldr	r3, [r3, #24]	@ D.7797, hpcd_1(D)->Init.low_power_enable
 447 0018 002B     		cmp	r3, #0	@ D.7797,
 448 001a 0BD0     		beq	.L14	@,
 181:Src/usbd_conf.cpp ****   {
 182:Src/usbd_conf.cpp ****     /* Set SLEEPDEEP bit and SleepOnExit of Cortex System Control Register */
 183:Src/usbd_conf.cpp ****     SCB->SCR |= (uint32_t)((uint32_t)(SCB_SCR_SLEEPDEEP_Msk | SCB_SCR_SLEEPONEXIT_Msk));
 449              		.loc 1 183 0
 450 001c 4FF46D43 		mov	r3, #60672	@ D.7800,
 451 0020 CEF20003 		movt	r3, 57344	@ D.7800,
 452 0024 4FF46D42 		mov	r2, #60672	@ D.7801,
 453 0028 CEF20002 		movt	r2, 57344	@ D.7801,
 454 002c 1269     		ldr	r2, [r2, #16]	@ D.7802, D.7801_5->SCR
 455 002e 42F00602 		orr	r2, r2, #6	@ D.7803, D.7802,
 456 0032 1A61     		str	r2, [r3, #16]	@ D.7803, D.7800_4->SCR
 457              	.L14:
 184:Src/usbd_conf.cpp ****   }
 185:Src/usbd_conf.cpp ****   /* USER CODE END 2 */
 186:Src/usbd_conf.cpp **** }
 458              		.loc 1 186 0
 459 0034 07F10807 		add	r7, r7, #8	@,,
 460 0038 BD46     		mov	sp, r7
 461 003a 80BD     		pop	{r7, pc}
 462              		.cfi_endproc
 463              	.LFE63:
 464              		.size	HAL_PCD_SuspendCallback, .-HAL_PCD_SuspendCallback
 465              		.section	.text.HAL_PCD_ResumeCallback,"ax",%progbits
 466              		.align	2
 467              		.global	HAL_PCD_ResumeCallback
 468              		.thumb
 469              		.thumb_func
 470              		.type	HAL_PCD_ResumeCallback, %function
 471              	HAL_PCD_ResumeCallback:
 472              	.LFB64:
 187:Src/usbd_conf.cpp **** 
 188:Src/usbd_conf.cpp **** /**
 189:Src/usbd_conf.cpp ****   * @brief  Resume callback.
 190:Src/usbd_conf.cpp ****   * @param  hpcd: PCD handle
 191:Src/usbd_conf.cpp ****   * @retval None
 192:Src/usbd_conf.cpp ****   */
 193:Src/usbd_conf.cpp **** void HAL_PCD_ResumeCallback(PCD_HandleTypeDef *hpcd)
 194:Src/usbd_conf.cpp **** {
 473              		.loc 1 194 0
 474              		.cfi_startproc
 475              		@ args = 0, pretend = 0, frame = 8
 476              		@ frame_needed = 1, uses_anonymous_args = 0
 477 0000 80B5     		push	{r7, lr}	@
 478              	.LCFI24:
 479              		.cfi_def_cfa_offset 8
 480              		.cfi_offset 7, -8
 481              		.cfi_offset 14, -4
 482 0002 82B0     		sub	sp, sp, #8	@,,
 483              	.LCFI25:
 484              		.cfi_def_cfa_offset 16
 485 0004 00AF     		add	r7, sp, #0	@,,
 486              	.LCFI26:
ARM GAS  /tmp/ccuqcpRC.s 			page 13


 487              		.cfi_def_cfa_register 7
 488 0006 7860     		str	r0, [r7, #4]	@ hpcd, hpcd
 195:Src/usbd_conf.cpp ****   /* USER CODE BEGIN 3 */
 196:Src/usbd_conf.cpp ****   if ((hpcd->Init.low_power_enable)&&(remotewakeupon == 0))
 489              		.loc 1 196 0
 490 0008 7B68     		ldr	r3, [r7, #4]	@ tmp143, hpcd
 491 000a 9B69     		ldr	r3, [r3, #24]	@ D.7784, hpcd_2(D)->Init.low_power_enable
 492 000c 002B     		cmp	r3, #0	@ D.7784,
 493 000e 09D0     		beq	.L17	@,
 494              		.loc 1 196 0 is_stmt 0 discriminator 1
 495 0010 40F20003 		movw	r3, #:lower16:remotewakeupon	@ tmp144,
 496 0014 C0F20003 		movt	r3, #:upper16:remotewakeupon	@ tmp144,
 497 0018 1B68     		ldr	r3, [r3, #0]	@ remotewakeupon.3, remotewakeupon
 498 001a 002B     		cmp	r3, #0	@ remotewakeupon.3,
 499 001c 02D1     		bne	.L17	@,
 500              		.loc 1 196 0 discriminator 3
 501 001e 4FF00103 		mov	r3, #1	@ iftmp.2,
 502 0022 01E0     		b	.L18	@
 503              	.L17:
 504              		.loc 1 196 0 discriminator 2
 505 0024 4FF00003 		mov	r3, #0	@ iftmp.2,
 506              	.L18:
 507              		.loc 1 196 0 discriminator 4
 508 0028 002B     		cmp	r3, #0	@ retval.1,
 509 002a 0DD0     		beq	.L19	@,
 197:Src/usbd_conf.cpp ****   {
 198:Src/usbd_conf.cpp ****     SystemClockConfig_Resume();
 510              		.loc 1 198 0 is_stmt 1
 511 002c FFF7FEFF 		bl	_ZL24SystemClockConfig_Resumev	@
 199:Src/usbd_conf.cpp ****     /* Reset SLEEPDEEP bit of Cortex System Control Register */
 200:Src/usbd_conf.cpp ****     SCB->SCR &= (uint32_t)~((uint32_t)(SCB_SCR_SLEEPDEEP_Msk | SCB_SCR_SLEEPONEXIT_Msk));    
 512              		.loc 1 200 0
 513 0030 4FF46D43 		mov	r3, #60672	@ D.7790,
 514 0034 CEF20003 		movt	r3, 57344	@ D.7790,
 515 0038 4FF46D42 		mov	r2, #60672	@ D.7791,
 516 003c CEF20002 		movt	r2, 57344	@ D.7791,
 517 0040 1269     		ldr	r2, [r2, #16]	@ D.7792, D.7791_9->SCR
 518 0042 22F00602 		bic	r2, r2, #6	@ D.7793, D.7792,
 519 0046 1A61     		str	r2, [r3, #16]	@ D.7793, D.7790_8->SCR
 520              	.L19:
 201:Src/usbd_conf.cpp ****   }
 202:Src/usbd_conf.cpp ****   remotewakeupon=0;
 521              		.loc 1 202 0
 522 0048 40F20003 		movw	r3, #:lower16:remotewakeupon	@ tmp145,
 523 004c C0F20003 		movt	r3, #:upper16:remotewakeupon	@ tmp145,
 524 0050 4FF00002 		mov	r2, #0	@ tmp146,
 525 0054 1A60     		str	r2, [r3, #0]	@ tmp146, remotewakeupon
 203:Src/usbd_conf.cpp ****   /* USER CODE END 3 */
 204:Src/usbd_conf.cpp ****   USBD_LL_Resume(hpcd->pData);
 526              		.loc 1 204 0
 527 0056 7B68     		ldr	r3, [r7, #4]	@ tmp147, hpcd
 528 0058 D3F81C32 		ldr	r3, [r3, #540]	@ D.7795, hpcd_2(D)->pData
 529 005c 1846     		mov	r0, r3	@, D.7795
 530 005e FFF7FEFF 		bl	_Z14USBD_LL_ResumeP19_USBD_HandleTypeDef	@
 205:Src/usbd_conf.cpp ****   
 206:Src/usbd_conf.cpp **** }
 531              		.loc 1 206 0
ARM GAS  /tmp/ccuqcpRC.s 			page 14


 532 0062 07F10807 		add	r7, r7, #8	@,,
 533 0066 BD46     		mov	sp, r7
 534 0068 80BD     		pop	{r7, pc}
 535              		.cfi_endproc
 536              	.LFE64:
 537              		.size	HAL_PCD_ResumeCallback, .-HAL_PCD_ResumeCallback
 538 006a 00BF     		.section	.text.HAL_PCD_ISOOUTIncompleteCallback,"ax",%progbits
 539              		.align	2
 540              		.global	HAL_PCD_ISOOUTIncompleteCallback
 541              		.thumb
 542              		.thumb_func
 543              		.type	HAL_PCD_ISOOUTIncompleteCallback, %function
 544              	HAL_PCD_ISOOUTIncompleteCallback:
 545              	.LFB65:
 207:Src/usbd_conf.cpp **** 
 208:Src/usbd_conf.cpp **** /**
 209:Src/usbd_conf.cpp ****   * @brief  ISOC Out Incomplete callback.
 210:Src/usbd_conf.cpp ****   * @param  hpcd: PCD handle
 211:Src/usbd_conf.cpp ****   * @param  epnum: Endpoint Number
 212:Src/usbd_conf.cpp ****   * @retval None
 213:Src/usbd_conf.cpp ****   */
 214:Src/usbd_conf.cpp **** void HAL_PCD_ISOOUTIncompleteCallback(PCD_HandleTypeDef *hpcd, uint8_t epnum)
 215:Src/usbd_conf.cpp **** {
 546              		.loc 1 215 0
 547              		.cfi_startproc
 548              		@ args = 0, pretend = 0, frame = 8
 549              		@ frame_needed = 1, uses_anonymous_args = 0
 550 0000 80B5     		push	{r7, lr}	@
 551              	.LCFI27:
 552              		.cfi_def_cfa_offset 8
 553              		.cfi_offset 7, -8
 554              		.cfi_offset 14, -4
 555 0002 82B0     		sub	sp, sp, #8	@,,
 556              	.LCFI28:
 557              		.cfi_def_cfa_offset 16
 558 0004 00AF     		add	r7, sp, #0	@,,
 559              	.LCFI29:
 560              		.cfi_def_cfa_register 7
 561 0006 7860     		str	r0, [r7, #4]	@ hpcd, hpcd
 562 0008 0B46     		mov	r3, r1	@ tmp135, epnum
 563 000a FB70     		strb	r3, [r7, #3]	@ tmp136, epnum
 216:Src/usbd_conf.cpp ****   USBD_LL_IsoOUTIncomplete(hpcd->pData, epnum);
 564              		.loc 1 216 0
 565 000c 7B68     		ldr	r3, [r7, #4]	@ tmp137, hpcd
 566 000e D3F81C22 		ldr	r2, [r3, #540]	@ D.7779, hpcd_1(D)->pData
 567 0012 FB78     		ldrb	r3, [r7, #3]	@ zero_extendqisi2	@ tmp138, epnum
 568 0014 1046     		mov	r0, r2	@, D.7779
 569 0016 1946     		mov	r1, r3	@, tmp138
 570 0018 FFF7FEFF 		bl	_Z24USBD_LL_IsoOUTIncompleteP19_USBD_HandleTypeDefh	@
 217:Src/usbd_conf.cpp **** }
 571              		.loc 1 217 0
 572 001c 07F10807 		add	r7, r7, #8	@,,
 573 0020 BD46     		mov	sp, r7
 574 0022 80BD     		pop	{r7, pc}
 575              		.cfi_endproc
 576              	.LFE65:
 577              		.size	HAL_PCD_ISOOUTIncompleteCallback, .-HAL_PCD_ISOOUTIncompleteCallback
ARM GAS  /tmp/ccuqcpRC.s 			page 15


 578              		.section	.text.HAL_PCD_ISOINIncompleteCallback,"ax",%progbits
 579              		.align	2
 580              		.global	HAL_PCD_ISOINIncompleteCallback
 581              		.thumb
 582              		.thumb_func
 583              		.type	HAL_PCD_ISOINIncompleteCallback, %function
 584              	HAL_PCD_ISOINIncompleteCallback:
 585              	.LFB66:
 218:Src/usbd_conf.cpp **** 
 219:Src/usbd_conf.cpp **** /**
 220:Src/usbd_conf.cpp ****   * @brief  ISOC In Incomplete callback.
 221:Src/usbd_conf.cpp ****   * @param  hpcd: PCD handle
 222:Src/usbd_conf.cpp ****   * @param  epnum: Endpoint Number
 223:Src/usbd_conf.cpp ****   * @retval None
 224:Src/usbd_conf.cpp ****   */
 225:Src/usbd_conf.cpp **** void HAL_PCD_ISOINIncompleteCallback(PCD_HandleTypeDef *hpcd, uint8_t epnum)
 226:Src/usbd_conf.cpp **** {
 586              		.loc 1 226 0
 587              		.cfi_startproc
 588              		@ args = 0, pretend = 0, frame = 8
 589              		@ frame_needed = 1, uses_anonymous_args = 0
 590 0000 80B5     		push	{r7, lr}	@
 591              	.LCFI30:
 592              		.cfi_def_cfa_offset 8
 593              		.cfi_offset 7, -8
 594              		.cfi_offset 14, -4
 595 0002 82B0     		sub	sp, sp, #8	@,,
 596              	.LCFI31:
 597              		.cfi_def_cfa_offset 16
 598 0004 00AF     		add	r7, sp, #0	@,,
 599              	.LCFI32:
 600              		.cfi_def_cfa_register 7
 601 0006 7860     		str	r0, [r7, #4]	@ hpcd, hpcd
 602 0008 0B46     		mov	r3, r1	@ tmp135, epnum
 603 000a FB70     		strb	r3, [r7, #3]	@ tmp136, epnum
 227:Src/usbd_conf.cpp ****   USBD_LL_IsoINIncomplete(hpcd->pData, epnum);
 604              		.loc 1 227 0
 605 000c 7B68     		ldr	r3, [r7, #4]	@ tmp137, hpcd
 606 000e D3F81C22 		ldr	r2, [r3, #540]	@ D.7778, hpcd_1(D)->pData
 607 0012 FB78     		ldrb	r3, [r7, #3]	@ zero_extendqisi2	@ tmp138, epnum
 608 0014 1046     		mov	r0, r2	@, D.7778
 609 0016 1946     		mov	r1, r3	@, tmp138
 610 0018 FFF7FEFF 		bl	_Z23USBD_LL_IsoINIncompleteP19_USBD_HandleTypeDefh	@
 228:Src/usbd_conf.cpp **** }
 611              		.loc 1 228 0
 612 001c 07F10807 		add	r7, r7, #8	@,,
 613 0020 BD46     		mov	sp, r7
 614 0022 80BD     		pop	{r7, pc}
 615              		.cfi_endproc
 616              	.LFE66:
 617              		.size	HAL_PCD_ISOINIncompleteCallback, .-HAL_PCD_ISOINIncompleteCallback
 618              		.section	.text.HAL_PCD_ConnectCallback,"ax",%progbits
 619              		.align	2
 620              		.global	HAL_PCD_ConnectCallback
 621              		.thumb
 622              		.thumb_func
 623              		.type	HAL_PCD_ConnectCallback, %function
ARM GAS  /tmp/ccuqcpRC.s 			page 16


 624              	HAL_PCD_ConnectCallback:
 625              	.LFB67:
 229:Src/usbd_conf.cpp **** 
 230:Src/usbd_conf.cpp **** /**
 231:Src/usbd_conf.cpp ****   * @brief  Connect callback.
 232:Src/usbd_conf.cpp ****   * @param  hpcd: PCD handle
 233:Src/usbd_conf.cpp ****   * @retval None
 234:Src/usbd_conf.cpp ****   */
 235:Src/usbd_conf.cpp **** void HAL_PCD_ConnectCallback(PCD_HandleTypeDef *hpcd)
 236:Src/usbd_conf.cpp **** {
 626              		.loc 1 236 0
 627              		.cfi_startproc
 628              		@ args = 0, pretend = 0, frame = 8
 629              		@ frame_needed = 1, uses_anonymous_args = 0
 630 0000 80B5     		push	{r7, lr}	@
 631              	.LCFI33:
 632              		.cfi_def_cfa_offset 8
 633              		.cfi_offset 7, -8
 634              		.cfi_offset 14, -4
 635 0002 82B0     		sub	sp, sp, #8	@,,
 636              	.LCFI34:
 637              		.cfi_def_cfa_offset 16
 638 0004 00AF     		add	r7, sp, #0	@,,
 639              	.LCFI35:
 640              		.cfi_def_cfa_register 7
 641 0006 7860     		str	r0, [r7, #4]	@ hpcd, hpcd
 237:Src/usbd_conf.cpp ****   USBD_LL_DevConnected(hpcd->pData);
 642              		.loc 1 237 0
 643 0008 7B68     		ldr	r3, [r7, #4]	@ tmp135, hpcd
 644 000a D3F81C32 		ldr	r3, [r3, #540]	@ D.7777, hpcd_1(D)->pData
 645 000e 1846     		mov	r0, r3	@, D.7777
 646 0010 FFF7FEFF 		bl	_Z20USBD_LL_DevConnectedP19_USBD_HandleTypeDef	@
 238:Src/usbd_conf.cpp **** }
 647              		.loc 1 238 0
 648 0014 07F10807 		add	r7, r7, #8	@,,
 649 0018 BD46     		mov	sp, r7
 650 001a 80BD     		pop	{r7, pc}
 651              		.cfi_endproc
 652              	.LFE67:
 653              		.size	HAL_PCD_ConnectCallback, .-HAL_PCD_ConnectCallback
 654              		.section	.text.HAL_PCD_DisconnectCallback,"ax",%progbits
 655              		.align	2
 656              		.global	HAL_PCD_DisconnectCallback
 657              		.thumb
 658              		.thumb_func
 659              		.type	HAL_PCD_DisconnectCallback, %function
 660              	HAL_PCD_DisconnectCallback:
 661              	.LFB68:
 239:Src/usbd_conf.cpp **** 
 240:Src/usbd_conf.cpp **** /**
 241:Src/usbd_conf.cpp ****   * @brief  Disconnect callback.
 242:Src/usbd_conf.cpp ****   * @param  hpcd: PCD handle
 243:Src/usbd_conf.cpp ****   * @retval None
 244:Src/usbd_conf.cpp ****   */
 245:Src/usbd_conf.cpp **** void HAL_PCD_DisconnectCallback(PCD_HandleTypeDef *hpcd)
 246:Src/usbd_conf.cpp **** {
 662              		.loc 1 246 0
ARM GAS  /tmp/ccuqcpRC.s 			page 17


 663              		.cfi_startproc
 664              		@ args = 0, pretend = 0, frame = 8
 665              		@ frame_needed = 1, uses_anonymous_args = 0
 666 0000 80B5     		push	{r7, lr}	@
 667              	.LCFI36:
 668              		.cfi_def_cfa_offset 8
 669              		.cfi_offset 7, -8
 670              		.cfi_offset 14, -4
 671 0002 82B0     		sub	sp, sp, #8	@,,
 672              	.LCFI37:
 673              		.cfi_def_cfa_offset 16
 674 0004 00AF     		add	r7, sp, #0	@,,
 675              	.LCFI38:
 676              		.cfi_def_cfa_register 7
 677 0006 7860     		str	r0, [r7, #4]	@ hpcd, hpcd
 247:Src/usbd_conf.cpp ****   USBD_LL_DevDisconnected(hpcd->pData);
 678              		.loc 1 247 0
 679 0008 7B68     		ldr	r3, [r7, #4]	@ tmp135, hpcd
 680 000a D3F81C32 		ldr	r3, [r3, #540]	@ D.7776, hpcd_1(D)->pData
 681 000e 1846     		mov	r0, r3	@, D.7776
 682 0010 FFF7FEFF 		bl	_Z23USBD_LL_DevDisconnectedP19_USBD_HandleTypeDef	@
 248:Src/usbd_conf.cpp **** }
 683              		.loc 1 248 0
 684 0014 07F10807 		add	r7, r7, #8	@,,
 685 0018 BD46     		mov	sp, r7
 686 001a 80BD     		pop	{r7, pc}
 687              		.cfi_endproc
 688              	.LFE68:
 689              		.size	HAL_PCD_DisconnectCallback, .-HAL_PCD_DisconnectCallback
 690              		.section	.text._Z12USBD_LL_InitP19_USBD_HandleTypeDef,"ax",%progbits
 691              		.align	2
 692              		.global	_Z12USBD_LL_InitP19_USBD_HandleTypeDef
 693              		.thumb
 694              		.thumb_func
 695              		.type	_Z12USBD_LL_InitP19_USBD_HandleTypeDef, %function
 696              	_Z12USBD_LL_InitP19_USBD_HandleTypeDef:
 697              	.LFB69:
 249:Src/usbd_conf.cpp **** 
 250:Src/usbd_conf.cpp **** /*******************************************************************************
 251:Src/usbd_conf.cpp ****                        LL Driver Interface (USB Device Library --> PCD)
 252:Src/usbd_conf.cpp **** *******************************************************************************/
 253:Src/usbd_conf.cpp **** /**
 254:Src/usbd_conf.cpp ****   * @brief  Initializes the Low Level portion of the Device driver.
 255:Src/usbd_conf.cpp ****   * @param  pdev: Device handle
 256:Src/usbd_conf.cpp ****   * @retval USBD Status
 257:Src/usbd_conf.cpp ****   */
 258:Src/usbd_conf.cpp **** USBD_StatusTypeDef  USBD_LL_Init (USBD_HandleTypeDef *pdev)
 259:Src/usbd_conf.cpp **** { 
 698              		.loc 1 259 0
 699              		.cfi_startproc
 700              		@ args = 0, pretend = 0, frame = 8
 701              		@ frame_needed = 1, uses_anonymous_args = 0
 702 0000 80B5     		push	{r7, lr}	@
 703              	.LCFI39:
 704              		.cfi_def_cfa_offset 8
 705              		.cfi_offset 7, -8
 706              		.cfi_offset 14, -4
ARM GAS  /tmp/ccuqcpRC.s 			page 18


 707 0002 82B0     		sub	sp, sp, #8	@,,
 708              	.LCFI40:
 709              		.cfi_def_cfa_offset 16
 710 0004 00AF     		add	r7, sp, #0	@,,
 711              	.LCFI41:
 712              		.cfi_def_cfa_register 7
 713 0006 7860     		str	r0, [r7, #4]	@ pdev, pdev
 260:Src/usbd_conf.cpp ****   /* Init USB_IP */
 261:Src/usbd_conf.cpp ****   /* Link The driver to the stack */
 262:Src/usbd_conf.cpp ****   hpcd_USB_FS.pData = pdev;
 714              		.loc 1 262 0
 715 0008 40F20003 		movw	r3, #:lower16:hpcd_USB_FS	@ tmp141,
 716 000c C0F20003 		movt	r3, #:upper16:hpcd_USB_FS	@ tmp141,
 717 0010 7A68     		ldr	r2, [r7, #4]	@ tmp142, pdev
 718 0012 C3F81C22 		str	r2, [r3, #540]	@ tmp142, hpcd_USB_FS.pData
 263:Src/usbd_conf.cpp ****   pdev->pData = &hpcd_USB_FS;
 719              		.loc 1 263 0
 720 0016 7A68     		ldr	r2, [r7, #4]	@ tmp143, pdev
 721 0018 40F20003 		movw	r3, #:lower16:hpcd_USB_FS	@ tmp144,
 722 001c C0F20003 		movt	r3, #:upper16:hpcd_USB_FS	@ tmp144,
 723 0020 C2F82032 		str	r3, [r2, #544]	@ tmp144, pdev_1(D)->pData
 264:Src/usbd_conf.cpp **** 
 265:Src/usbd_conf.cpp ****   hpcd_USB_FS.Instance = USB;
 724              		.loc 1 265 0
 725 0024 40F20003 		movw	r3, #:lower16:hpcd_USB_FS	@ tmp145,
 726 0028 C0F20003 		movt	r3, #:upper16:hpcd_USB_FS	@ tmp145,
 727 002c 4FF4B842 		mov	r2, #23552	@ tmp146,
 728 0030 C4F20002 		movt	r2, 16384	@ tmp146,
 729 0034 1A60     		str	r2, [r3, #0]	@ tmp146, hpcd_USB_FS.Instance
 266:Src/usbd_conf.cpp ****   hpcd_USB_FS.Init.dev_endpoints = 8;
 730              		.loc 1 266 0
 731 0036 40F20003 		movw	r3, #:lower16:hpcd_USB_FS	@ tmp147,
 732 003a C0F20003 		movt	r3, #:upper16:hpcd_USB_FS	@ tmp147,
 733 003e 4FF00802 		mov	r2, #8	@ tmp148,
 734 0042 5A60     		str	r2, [r3, #4]	@ tmp148, hpcd_USB_FS.Init.dev_endpoints
 267:Src/usbd_conf.cpp ****   hpcd_USB_FS.Init.speed = PCD_SPEED_FULL;
 735              		.loc 1 267 0
 736 0044 40F20003 		movw	r3, #:lower16:hpcd_USB_FS	@ tmp149,
 737 0048 C0F20003 		movt	r3, #:upper16:hpcd_USB_FS	@ tmp149,
 738 004c 4FF00202 		mov	r2, #2	@ tmp150,
 739 0050 9A60     		str	r2, [r3, #8]	@ tmp150, hpcd_USB_FS.Init.speed
 268:Src/usbd_conf.cpp ****   hpcd_USB_FS.Init.ep0_mps = DEP0CTL_MPS_8;
 740              		.loc 1 268 0
 741 0052 40F20003 		movw	r3, #:lower16:hpcd_USB_FS	@ tmp151,
 742 0056 C0F20003 		movt	r3, #:upper16:hpcd_USB_FS	@ tmp151,
 743 005a 4FF00302 		mov	r2, #3	@ tmp152,
 744 005e DA60     		str	r2, [r3, #12]	@ tmp152, hpcd_USB_FS.Init.ep0_mps
 269:Src/usbd_conf.cpp ****   hpcd_USB_FS.Init.phy_itface = PCD_PHY_EMBEDDED;
 745              		.loc 1 269 0
 746 0060 40F20003 		movw	r3, #:lower16:hpcd_USB_FS	@ tmp153,
 747 0064 C0F20003 		movt	r3, #:upper16:hpcd_USB_FS	@ tmp153,
 748 0068 4FF00202 		mov	r2, #2	@ tmp154,
 749 006c 1A61     		str	r2, [r3, #16]	@ tmp154, hpcd_USB_FS.Init.phy_itface
 270:Src/usbd_conf.cpp ****   hpcd_USB_FS.Init.Sof_enable = DISABLE;
 750              		.loc 1 270 0
 751 006e 40F20003 		movw	r3, #:lower16:hpcd_USB_FS	@ tmp155,
 752 0072 C0F20003 		movt	r3, #:upper16:hpcd_USB_FS	@ tmp155,
ARM GAS  /tmp/ccuqcpRC.s 			page 19


 753 0076 4FF00002 		mov	r2, #0	@ tmp156,
 754 007a 5A61     		str	r2, [r3, #20]	@ tmp156, hpcd_USB_FS.Init.Sof_enable
 271:Src/usbd_conf.cpp ****   hpcd_USB_FS.Init.low_power_enable = DISABLE;
 755              		.loc 1 271 0
 756 007c 40F20003 		movw	r3, #:lower16:hpcd_USB_FS	@ tmp157,
 757 0080 C0F20003 		movt	r3, #:upper16:hpcd_USB_FS	@ tmp157,
 758 0084 4FF00002 		mov	r2, #0	@ tmp158,
 759 0088 9A61     		str	r2, [r3, #24]	@ tmp158, hpcd_USB_FS.Init.low_power_enable
 272:Src/usbd_conf.cpp ****   hpcd_USB_FS.Init.battery_charging_enable = DISABLE;
 760              		.loc 1 272 0
 761 008a 40F20003 		movw	r3, #:lower16:hpcd_USB_FS	@ tmp159,
 762 008e C0F20003 		movt	r3, #:upper16:hpcd_USB_FS	@ tmp159,
 763 0092 4FF00002 		mov	r2, #0	@ tmp160,
 764 0096 1A62     		str	r2, [r3, #32]	@ tmp160, hpcd_USB_FS.Init.battery_charging_enable
 273:Src/usbd_conf.cpp ****   HAL_PCD_Init(&hpcd_USB_FS);
 765              		.loc 1 273 0
 766 0098 40F20000 		movw	r0, #:lower16:hpcd_USB_FS	@,
 767 009c C0F20000 		movt	r0, #:upper16:hpcd_USB_FS	@,
 768 00a0 FFF7FEFF 		bl	HAL_PCD_Init	@
 274:Src/usbd_conf.cpp **** 
 275:Src/usbd_conf.cpp ****   HAL_PCDEx_PMAConfig(pdev->pData , 0x00 , PCD_SNG_BUF, 0x18);
 769              		.loc 1 275 0
 770 00a4 7B68     		ldr	r3, [r7, #4]	@ tmp161, pdev
 771 00a6 D3F82032 		ldr	r3, [r3, #544]	@ D.7769, pdev_1(D)->pData
 772 00aa 1846     		mov	r0, r3	@, D.7769
 773 00ac 4FF00001 		mov	r1, #0	@,
 774 00b0 4FF00002 		mov	r2, #0	@,
 775 00b4 4FF01803 		mov	r3, #24	@,
 776 00b8 FFF7FEFF 		bl	HAL_PCDEx_PMAConfig	@
 276:Src/usbd_conf.cpp ****   HAL_PCDEx_PMAConfig(pdev->pData , 0x80 , PCD_SNG_BUF, 0x58);
 777              		.loc 1 276 0
 778 00bc 7B68     		ldr	r3, [r7, #4]	@ tmp162, pdev
 779 00be D3F82032 		ldr	r3, [r3, #544]	@ D.7770, pdev_1(D)->pData
 780 00c2 1846     		mov	r0, r3	@, D.7770
 781 00c4 4FF08001 		mov	r1, #128	@,
 782 00c8 4FF00002 		mov	r2, #0	@,
 783 00cc 4FF05803 		mov	r3, #88	@,
 784 00d0 FFF7FEFF 		bl	HAL_PCDEx_PMAConfig	@
 277:Src/usbd_conf.cpp ****   HAL_PCDEx_PMAConfig(pdev->pData , 0x81 , PCD_SNG_BUF, 0xC0);  
 785              		.loc 1 277 0
 786 00d4 7B68     		ldr	r3, [r7, #4]	@ tmp163, pdev
 787 00d6 D3F82032 		ldr	r3, [r3, #544]	@ D.7771, pdev_1(D)->pData
 788 00da 1846     		mov	r0, r3	@, D.7771
 789 00dc 4FF08101 		mov	r1, #129	@,
 790 00e0 4FF00002 		mov	r2, #0	@,
 791 00e4 4FF0C003 		mov	r3, #192	@,
 792 00e8 FFF7FEFF 		bl	HAL_PCDEx_PMAConfig	@
 278:Src/usbd_conf.cpp ****   HAL_PCDEx_PMAConfig(pdev->pData , 0x01 , PCD_SNG_BUF, 0x110);
 793              		.loc 1 278 0
 794 00ec 7B68     		ldr	r3, [r7, #4]	@ tmp164, pdev
 795 00ee D3F82032 		ldr	r3, [r3, #544]	@ D.7772, pdev_1(D)->pData
 796 00f2 1846     		mov	r0, r3	@, D.7772
 797 00f4 4FF00101 		mov	r1, #1	@,
 798 00f8 4FF00002 		mov	r2, #0	@,
 799 00fc 4FF48873 		mov	r3, #272	@,
 800 0100 FFF7FEFF 		bl	HAL_PCDEx_PMAConfig	@
 279:Src/usbd_conf.cpp ****   HAL_PCDEx_PMAConfig(pdev->pData , 0x82 , PCD_SNG_BUF, 0x100);  
ARM GAS  /tmp/ccuqcpRC.s 			page 20


 801              		.loc 1 279 0
 802 0104 7B68     		ldr	r3, [r7, #4]	@ tmp165, pdev
 803 0106 D3F82032 		ldr	r3, [r3, #544]	@ D.7773, pdev_1(D)->pData
 804 010a 1846     		mov	r0, r3	@, D.7773
 805 010c 4FF08201 		mov	r1, #130	@,
 806 0110 4FF00002 		mov	r2, #0	@,
 807 0114 4FF48073 		mov	r3, #256	@,
 808 0118 FFF7FEFF 		bl	HAL_PCDEx_PMAConfig	@
 280:Src/usbd_conf.cpp ****   return USBD_OK;
 809              		.loc 1 280 0
 810 011c 4FF00003 		mov	r3, #0	@ D.7774,
 281:Src/usbd_conf.cpp **** }
 811              		.loc 1 281 0
 812 0120 1846     		mov	r0, r3	@, <retval>
 813 0122 07F10807 		add	r7, r7, #8	@,,
 814 0126 BD46     		mov	sp, r7
 815 0128 80BD     		pop	{r7, pc}
 816              		.cfi_endproc
 817              	.LFE69:
 818              		.size	_Z12USBD_LL_InitP19_USBD_HandleTypeDef, .-_Z12USBD_LL_InitP19_USBD_HandleTypeDef
 819 012a 00BF     		.section	.text._Z14USBD_LL_DeInitP19_USBD_HandleTypeDef,"ax",%progbits
 820              		.align	2
 821              		.global	_Z14USBD_LL_DeInitP19_USBD_HandleTypeDef
 822              		.thumb
 823              		.thumb_func
 824              		.type	_Z14USBD_LL_DeInitP19_USBD_HandleTypeDef, %function
 825              	_Z14USBD_LL_DeInitP19_USBD_HandleTypeDef:
 826              	.LFB70:
 282:Src/usbd_conf.cpp **** 
 283:Src/usbd_conf.cpp **** /**
 284:Src/usbd_conf.cpp ****   * @brief  De-Initializes the Low Level portion of the Device driver.
 285:Src/usbd_conf.cpp ****   * @param  pdev: Device handle
 286:Src/usbd_conf.cpp ****   * @retval USBD Status
 287:Src/usbd_conf.cpp ****   */
 288:Src/usbd_conf.cpp **** USBD_StatusTypeDef  USBD_LL_DeInit (USBD_HandleTypeDef *pdev)
 289:Src/usbd_conf.cpp **** {
 827              		.loc 1 289 0
 828              		.cfi_startproc
 829              		@ args = 0, pretend = 0, frame = 8
 830              		@ frame_needed = 1, uses_anonymous_args = 0
 831 0000 80B5     		push	{r7, lr}	@
 832              	.LCFI42:
 833              		.cfi_def_cfa_offset 8
 834              		.cfi_offset 7, -8
 835              		.cfi_offset 14, -4
 836 0002 82B0     		sub	sp, sp, #8	@,,
 837              	.LCFI43:
 838              		.cfi_def_cfa_offset 16
 839 0004 00AF     		add	r7, sp, #0	@,,
 840              	.LCFI44:
 841              		.cfi_def_cfa_register 7
 842 0006 7860     		str	r0, [r7, #4]	@ pdev, pdev
 290:Src/usbd_conf.cpp ****   HAL_PCD_DeInit(pdev->pData);
 843              		.loc 1 290 0
 844 0008 7B68     		ldr	r3, [r7, #4]	@ tmp137, pdev
 845 000a D3F82032 		ldr	r3, [r3, #544]	@ D.7766, pdev_1(D)->pData
 846 000e 1846     		mov	r0, r3	@, D.7766
ARM GAS  /tmp/ccuqcpRC.s 			page 21


 847 0010 FFF7FEFF 		bl	HAL_PCD_DeInit	@
 291:Src/usbd_conf.cpp ****   return USBD_OK; 
 848              		.loc 1 291 0
 849 0014 4FF00003 		mov	r3, #0	@ D.7767,
 292:Src/usbd_conf.cpp **** }
 850              		.loc 1 292 0
 851 0018 1846     		mov	r0, r3	@, <retval>
 852 001a 07F10807 		add	r7, r7, #8	@,,
 853 001e BD46     		mov	sp, r7
 854 0020 80BD     		pop	{r7, pc}
 855              		.cfi_endproc
 856              	.LFE70:
 857              		.size	_Z14USBD_LL_DeInitP19_USBD_HandleTypeDef, .-_Z14USBD_LL_DeInitP19_USBD_HandleTypeDef
 858 0022 00BF     		.section	.text._Z13USBD_LL_StartP19_USBD_HandleTypeDef,"ax",%progbits
 859              		.align	2
 860              		.global	_Z13USBD_LL_StartP19_USBD_HandleTypeDef
 861              		.thumb
 862              		.thumb_func
 863              		.type	_Z13USBD_LL_StartP19_USBD_HandleTypeDef, %function
 864              	_Z13USBD_LL_StartP19_USBD_HandleTypeDef:
 865              	.LFB71:
 293:Src/usbd_conf.cpp **** 
 294:Src/usbd_conf.cpp **** /**
 295:Src/usbd_conf.cpp ****   * @brief  Starts the Low Level portion of the Device driver. 
 296:Src/usbd_conf.cpp ****   * @param  pdev: Device handle
 297:Src/usbd_conf.cpp ****   * @retval USBD Status
 298:Src/usbd_conf.cpp ****   */
 299:Src/usbd_conf.cpp **** USBD_StatusTypeDef  USBD_LL_Start(USBD_HandleTypeDef *pdev)
 300:Src/usbd_conf.cpp **** {
 866              		.loc 1 300 0
 867              		.cfi_startproc
 868              		@ args = 0, pretend = 0, frame = 8
 869              		@ frame_needed = 1, uses_anonymous_args = 0
 870 0000 80B5     		push	{r7, lr}	@
 871              	.LCFI45:
 872              		.cfi_def_cfa_offset 8
 873              		.cfi_offset 7, -8
 874              		.cfi_offset 14, -4
 875 0002 82B0     		sub	sp, sp, #8	@,,
 876              	.LCFI46:
 877              		.cfi_def_cfa_offset 16
 878 0004 00AF     		add	r7, sp, #0	@,,
 879              	.LCFI47:
 880              		.cfi_def_cfa_register 7
 881 0006 7860     		str	r0, [r7, #4]	@ pdev, pdev
 301:Src/usbd_conf.cpp ****   HAL_PCD_Start(pdev->pData);
 882              		.loc 1 301 0
 883 0008 7B68     		ldr	r3, [r7, #4]	@ tmp137, pdev
 884 000a D3F82032 		ldr	r3, [r3, #544]	@ D.7763, pdev_1(D)->pData
 885 000e 1846     		mov	r0, r3	@, D.7763
 886 0010 FFF7FEFF 		bl	HAL_PCD_Start	@
 302:Src/usbd_conf.cpp ****   return USBD_OK; 
 887              		.loc 1 302 0
 888 0014 4FF00003 		mov	r3, #0	@ D.7764,
 303:Src/usbd_conf.cpp **** }
 889              		.loc 1 303 0
 890 0018 1846     		mov	r0, r3	@, <retval>
ARM GAS  /tmp/ccuqcpRC.s 			page 22


 891 001a 07F10807 		add	r7, r7, #8	@,,
 892 001e BD46     		mov	sp, r7
 893 0020 80BD     		pop	{r7, pc}
 894              		.cfi_endproc
 895              	.LFE71:
 896              		.size	_Z13USBD_LL_StartP19_USBD_HandleTypeDef, .-_Z13USBD_LL_StartP19_USBD_HandleTypeDef
 897 0022 00BF     		.section	.text._Z12USBD_LL_StopP19_USBD_HandleTypeDef,"ax",%progbits
 898              		.align	2
 899              		.global	_Z12USBD_LL_StopP19_USBD_HandleTypeDef
 900              		.thumb
 901              		.thumb_func
 902              		.type	_Z12USBD_LL_StopP19_USBD_HandleTypeDef, %function
 903              	_Z12USBD_LL_StopP19_USBD_HandleTypeDef:
 904              	.LFB72:
 304:Src/usbd_conf.cpp **** 
 305:Src/usbd_conf.cpp **** /**
 306:Src/usbd_conf.cpp ****   * @brief  Stops the Low Level portion of the Device driver.
 307:Src/usbd_conf.cpp ****   * @param  pdev: Device handle
 308:Src/usbd_conf.cpp ****   * @retval USBD Status
 309:Src/usbd_conf.cpp ****   */
 310:Src/usbd_conf.cpp **** USBD_StatusTypeDef  USBD_LL_Stop (USBD_HandleTypeDef *pdev)
 311:Src/usbd_conf.cpp **** {
 905              		.loc 1 311 0
 906              		.cfi_startproc
 907              		@ args = 0, pretend = 0, frame = 8
 908              		@ frame_needed = 1, uses_anonymous_args = 0
 909 0000 80B5     		push	{r7, lr}	@
 910              	.LCFI48:
 911              		.cfi_def_cfa_offset 8
 912              		.cfi_offset 7, -8
 913              		.cfi_offset 14, -4
 914 0002 82B0     		sub	sp, sp, #8	@,,
 915              	.LCFI49:
 916              		.cfi_def_cfa_offset 16
 917 0004 00AF     		add	r7, sp, #0	@,,
 918              	.LCFI50:
 919              		.cfi_def_cfa_register 7
 920 0006 7860     		str	r0, [r7, #4]	@ pdev, pdev
 312:Src/usbd_conf.cpp ****   HAL_PCD_Stop(pdev->pData);
 921              		.loc 1 312 0
 922 0008 7B68     		ldr	r3, [r7, #4]	@ tmp137, pdev
 923 000a D3F82032 		ldr	r3, [r3, #544]	@ D.7760, pdev_1(D)->pData
 924 000e 1846     		mov	r0, r3	@, D.7760
 925 0010 FFF7FEFF 		bl	HAL_PCD_Stop	@
 313:Src/usbd_conf.cpp ****   return USBD_OK; 
 926              		.loc 1 313 0
 927 0014 4FF00003 		mov	r3, #0	@ D.7761,
 314:Src/usbd_conf.cpp **** }
 928              		.loc 1 314 0
 929 0018 1846     		mov	r0, r3	@, <retval>
 930 001a 07F10807 		add	r7, r7, #8	@,,
 931 001e BD46     		mov	sp, r7
 932 0020 80BD     		pop	{r7, pc}
 933              		.cfi_endproc
 934              	.LFE72:
 935              		.size	_Z12USBD_LL_StopP19_USBD_HandleTypeDef, .-_Z12USBD_LL_StopP19_USBD_HandleTypeDef
 936 0022 00BF     		.section	.text._Z14USBD_LL_OpenEPP19_USBD_HandleTypeDefhht,"ax",%progbits
ARM GAS  /tmp/ccuqcpRC.s 			page 23


 937              		.align	2
 938              		.global	_Z14USBD_LL_OpenEPP19_USBD_HandleTypeDefhht
 939              		.thumb
 940              		.thumb_func
 941              		.type	_Z14USBD_LL_OpenEPP19_USBD_HandleTypeDefhht, %function
 942              	_Z14USBD_LL_OpenEPP19_USBD_HandleTypeDefhht:
 943              	.LFB73:
 315:Src/usbd_conf.cpp **** 
 316:Src/usbd_conf.cpp **** /**
 317:Src/usbd_conf.cpp ****   * @brief  Opens an endpoint of the Low Level Driver.
 318:Src/usbd_conf.cpp ****   * @param  pdev: Device handle
 319:Src/usbd_conf.cpp ****   * @param  ep_addr: Endpoint Number
 320:Src/usbd_conf.cpp ****   * @param  ep_type: Endpoint Type
 321:Src/usbd_conf.cpp ****   * @param  ep_mps: Endpoint Max Packet Size
 322:Src/usbd_conf.cpp ****   * @retval USBD Status
 323:Src/usbd_conf.cpp ****   */
 324:Src/usbd_conf.cpp **** USBD_StatusTypeDef  USBD_LL_OpenEP  (USBD_HandleTypeDef *pdev, 
 325:Src/usbd_conf.cpp ****                                       uint8_t  ep_addr,                                      
 326:Src/usbd_conf.cpp ****                                       uint8_t  ep_type,
 327:Src/usbd_conf.cpp ****                                       uint16_t ep_mps)
 328:Src/usbd_conf.cpp **** {
 944              		.loc 1 328 0
 945              		.cfi_startproc
 946              		@ args = 0, pretend = 0, frame = 8
 947              		@ frame_needed = 1, uses_anonymous_args = 0
 948 0000 80B5     		push	{r7, lr}	@
 949              	.LCFI51:
 950              		.cfi_def_cfa_offset 8
 951              		.cfi_offset 7, -8
 952              		.cfi_offset 14, -4
 953 0002 82B0     		sub	sp, sp, #8	@,,
 954              	.LCFI52:
 955              		.cfi_def_cfa_offset 16
 956 0004 00AF     		add	r7, sp, #0	@,,
 957              	.LCFI53:
 958              		.cfi_def_cfa_register 7
 959 0006 7860     		str	r0, [r7, #4]	@ pdev, pdev
 960 0008 F970     		strb	r1, [r7, #3]	@ tmp138, ep_addr
 961 000a BA70     		strb	r2, [r7, #2]	@ tmp140, ep_type
 962 000c 3B80     		strh	r3, [r7, #0]	@ movhi	@ tmp142, ep_mps
 329:Src/usbd_conf.cpp **** 
 330:Src/usbd_conf.cpp ****   HAL_PCD_EP_Open(pdev->pData, 
 331:Src/usbd_conf.cpp ****                   ep_addr, 
 332:Src/usbd_conf.cpp ****                   ep_mps, 
 333:Src/usbd_conf.cpp ****                   ep_type);
 963              		.loc 1 333 0
 964 000e 7B68     		ldr	r3, [r7, #4]	@ tmp143, pdev
 965 0010 D3F82002 		ldr	r0, [r3, #544]	@ D.7757, pdev_1(D)->pData
 966 0014 F978     		ldrb	r1, [r7, #3]	@ zero_extendqisi2	@ tmp144, ep_addr
 967 0016 3A88     		ldrh	r2, [r7, #0]	@ tmp145, ep_mps
 968 0018 BB78     		ldrb	r3, [r7, #2]	@ zero_extendqisi2	@ tmp146, ep_type
 969 001a FFF7FEFF 		bl	HAL_PCD_EP_Open	@
 334:Src/usbd_conf.cpp ****   
 335:Src/usbd_conf.cpp ****   return USBD_OK; 
 970              		.loc 1 335 0
 971 001e 4FF00003 		mov	r3, #0	@ D.7758,
 336:Src/usbd_conf.cpp **** }
ARM GAS  /tmp/ccuqcpRC.s 			page 24


 972              		.loc 1 336 0
 973 0022 1846     		mov	r0, r3	@, <retval>
 974 0024 07F10807 		add	r7, r7, #8	@,,
 975 0028 BD46     		mov	sp, r7
 976 002a 80BD     		pop	{r7, pc}
 977              		.cfi_endproc
 978              	.LFE73:
 979              		.size	_Z14USBD_LL_OpenEPP19_USBD_HandleTypeDefhht, .-_Z14USBD_LL_OpenEPP19_USBD_HandleTypeDefhht
 980              		.section	.text._Z15USBD_LL_CloseEPP19_USBD_HandleTypeDefh,"ax",%progbits
 981              		.align	2
 982              		.global	_Z15USBD_LL_CloseEPP19_USBD_HandleTypeDefh
 983              		.thumb
 984              		.thumb_func
 985              		.type	_Z15USBD_LL_CloseEPP19_USBD_HandleTypeDefh, %function
 986              	_Z15USBD_LL_CloseEPP19_USBD_HandleTypeDefh:
 987              	.LFB74:
 337:Src/usbd_conf.cpp **** 
 338:Src/usbd_conf.cpp **** /**
 339:Src/usbd_conf.cpp ****   * @brief  Closes an endpoint of the Low Level Driver.
 340:Src/usbd_conf.cpp ****   * @param  pdev: Device handle
 341:Src/usbd_conf.cpp ****   * @param  ep_addr: Endpoint Number
 342:Src/usbd_conf.cpp ****   * @retval USBD Status
 343:Src/usbd_conf.cpp ****   */
 344:Src/usbd_conf.cpp **** USBD_StatusTypeDef  USBD_LL_CloseEP (USBD_HandleTypeDef *pdev, uint8_t ep_addr)   
 345:Src/usbd_conf.cpp **** {
 988              		.loc 1 345 0
 989              		.cfi_startproc
 990              		@ args = 0, pretend = 0, frame = 8
 991              		@ frame_needed = 1, uses_anonymous_args = 0
 992 0000 80B5     		push	{r7, lr}	@
 993              	.LCFI54:
 994              		.cfi_def_cfa_offset 8
 995              		.cfi_offset 7, -8
 996              		.cfi_offset 14, -4
 997 0002 82B0     		sub	sp, sp, #8	@,,
 998              	.LCFI55:
 999              		.cfi_def_cfa_offset 16
 1000 0004 00AF     		add	r7, sp, #0	@,,
 1001              	.LCFI56:
 1002              		.cfi_def_cfa_register 7
 1003 0006 7860     		str	r0, [r7, #4]	@ pdev, pdev
 1004 0008 0B46     		mov	r3, r1	@ tmp137, ep_addr
 1005 000a FB70     		strb	r3, [r7, #3]	@ tmp138, ep_addr
 346:Src/usbd_conf.cpp ****   
 347:Src/usbd_conf.cpp ****   HAL_PCD_EP_Close(pdev->pData, ep_addr);
 1006              		.loc 1 347 0
 1007 000c 7B68     		ldr	r3, [r7, #4]	@ tmp139, pdev
 1008 000e D3F82022 		ldr	r2, [r3, #544]	@ D.7754, pdev_1(D)->pData
 1009 0012 FB78     		ldrb	r3, [r7, #3]	@ zero_extendqisi2	@ tmp140, ep_addr
 1010 0014 1046     		mov	r0, r2	@, D.7754
 1011 0016 1946     		mov	r1, r3	@, tmp140
 1012 0018 FFF7FEFF 		bl	HAL_PCD_EP_Close	@
 348:Src/usbd_conf.cpp ****   return USBD_OK; 
 1013              		.loc 1 348 0
 1014 001c 4FF00003 		mov	r3, #0	@ D.7755,
 349:Src/usbd_conf.cpp **** }
 1015              		.loc 1 349 0
ARM GAS  /tmp/ccuqcpRC.s 			page 25


 1016 0020 1846     		mov	r0, r3	@, <retval>
 1017 0022 07F10807 		add	r7, r7, #8	@,,
 1018 0026 BD46     		mov	sp, r7
 1019 0028 80BD     		pop	{r7, pc}
 1020              		.cfi_endproc
 1021              	.LFE74:
 1022              		.size	_Z15USBD_LL_CloseEPP19_USBD_HandleTypeDefh, .-_Z15USBD_LL_CloseEPP19_USBD_HandleTypeDefh
 1023 002a 00BF     		.section	.text._Z15USBD_LL_FlushEPP19_USBD_HandleTypeDefh,"ax",%progbits
 1024              		.align	2
 1025              		.global	_Z15USBD_LL_FlushEPP19_USBD_HandleTypeDefh
 1026              		.thumb
 1027              		.thumb_func
 1028              		.type	_Z15USBD_LL_FlushEPP19_USBD_HandleTypeDefh, %function
 1029              	_Z15USBD_LL_FlushEPP19_USBD_HandleTypeDefh:
 1030              	.LFB75:
 350:Src/usbd_conf.cpp **** 
 351:Src/usbd_conf.cpp **** /**
 352:Src/usbd_conf.cpp ****   * @brief  Flushes an endpoint of the Low Level Driver.
 353:Src/usbd_conf.cpp ****   * @param  pdev: Device handle
 354:Src/usbd_conf.cpp ****   * @param  ep_addr: Endpoint Number
 355:Src/usbd_conf.cpp ****   * @retval USBD Status
 356:Src/usbd_conf.cpp ****   */
 357:Src/usbd_conf.cpp **** USBD_StatusTypeDef  USBD_LL_FlushEP (USBD_HandleTypeDef *pdev, uint8_t ep_addr)   
 358:Src/usbd_conf.cpp **** {
 1031              		.loc 1 358 0
 1032              		.cfi_startproc
 1033              		@ args = 0, pretend = 0, frame = 8
 1034              		@ frame_needed = 1, uses_anonymous_args = 0
 1035 0000 80B5     		push	{r7, lr}	@
 1036              	.LCFI57:
 1037              		.cfi_def_cfa_offset 8
 1038              		.cfi_offset 7, -8
 1039              		.cfi_offset 14, -4
 1040 0002 82B0     		sub	sp, sp, #8	@,,
 1041              	.LCFI58:
 1042              		.cfi_def_cfa_offset 16
 1043 0004 00AF     		add	r7, sp, #0	@,,
 1044              	.LCFI59:
 1045              		.cfi_def_cfa_register 7
 1046 0006 7860     		str	r0, [r7, #4]	@ pdev, pdev
 1047 0008 0B46     		mov	r3, r1	@ tmp137, ep_addr
 1048 000a FB70     		strb	r3, [r7, #3]	@ tmp138, ep_addr
 359:Src/usbd_conf.cpp ****   
 360:Src/usbd_conf.cpp ****   HAL_PCD_EP_Flush(pdev->pData, ep_addr);
 1049              		.loc 1 360 0
 1050 000c 7B68     		ldr	r3, [r7, #4]	@ tmp139, pdev
 1051 000e D3F82022 		ldr	r2, [r3, #544]	@ D.7751, pdev_1(D)->pData
 1052 0012 FB78     		ldrb	r3, [r7, #3]	@ zero_extendqisi2	@ tmp140, ep_addr
 1053 0014 1046     		mov	r0, r2	@, D.7751
 1054 0016 1946     		mov	r1, r3	@, tmp140
 1055 0018 FFF7FEFF 		bl	HAL_PCD_EP_Flush	@
 361:Src/usbd_conf.cpp ****   return USBD_OK; 
 1056              		.loc 1 361 0
 1057 001c 4FF00003 		mov	r3, #0	@ D.7752,
 362:Src/usbd_conf.cpp **** }
 1058              		.loc 1 362 0
 1059 0020 1846     		mov	r0, r3	@, <retval>
ARM GAS  /tmp/ccuqcpRC.s 			page 26


 1060 0022 07F10807 		add	r7, r7, #8	@,,
 1061 0026 BD46     		mov	sp, r7
 1062 0028 80BD     		pop	{r7, pc}
 1063              		.cfi_endproc
 1064              	.LFE75:
 1065              		.size	_Z15USBD_LL_FlushEPP19_USBD_HandleTypeDefh, .-_Z15USBD_LL_FlushEPP19_USBD_HandleTypeDefh
 1066 002a 00BF     		.section	.text._Z15USBD_LL_StallEPP19_USBD_HandleTypeDefh,"ax",%progbits
 1067              		.align	2
 1068              		.global	_Z15USBD_LL_StallEPP19_USBD_HandleTypeDefh
 1069              		.thumb
 1070              		.thumb_func
 1071              		.type	_Z15USBD_LL_StallEPP19_USBD_HandleTypeDefh, %function
 1072              	_Z15USBD_LL_StallEPP19_USBD_HandleTypeDefh:
 1073              	.LFB76:
 363:Src/usbd_conf.cpp **** 
 364:Src/usbd_conf.cpp **** /**
 365:Src/usbd_conf.cpp ****   * @brief  Sets a Stall condition on an endpoint of the Low Level Driver.
 366:Src/usbd_conf.cpp ****   * @param  pdev: Device handle
 367:Src/usbd_conf.cpp ****   * @param  ep_addr: Endpoint Number
 368:Src/usbd_conf.cpp ****   * @retval USBD Status
 369:Src/usbd_conf.cpp ****   */
 370:Src/usbd_conf.cpp **** USBD_StatusTypeDef  USBD_LL_StallEP (USBD_HandleTypeDef *pdev, uint8_t ep_addr)   
 371:Src/usbd_conf.cpp **** {
 1074              		.loc 1 371 0
 1075              		.cfi_startproc
 1076              		@ args = 0, pretend = 0, frame = 8
 1077              		@ frame_needed = 1, uses_anonymous_args = 0
 1078 0000 80B5     		push	{r7, lr}	@
 1079              	.LCFI60:
 1080              		.cfi_def_cfa_offset 8
 1081              		.cfi_offset 7, -8
 1082              		.cfi_offset 14, -4
 1083 0002 82B0     		sub	sp, sp, #8	@,,
 1084              	.LCFI61:
 1085              		.cfi_def_cfa_offset 16
 1086 0004 00AF     		add	r7, sp, #0	@,,
 1087              	.LCFI62:
 1088              		.cfi_def_cfa_register 7
 1089 0006 7860     		str	r0, [r7, #4]	@ pdev, pdev
 1090 0008 0B46     		mov	r3, r1	@ tmp137, ep_addr
 1091 000a FB70     		strb	r3, [r7, #3]	@ tmp138, ep_addr
 372:Src/usbd_conf.cpp ****   
 373:Src/usbd_conf.cpp ****   HAL_PCD_EP_SetStall(pdev->pData, ep_addr);
 1092              		.loc 1 373 0
 1093 000c 7B68     		ldr	r3, [r7, #4]	@ tmp139, pdev
 1094 000e D3F82022 		ldr	r2, [r3, #544]	@ D.7748, pdev_1(D)->pData
 1095 0012 FB78     		ldrb	r3, [r7, #3]	@ zero_extendqisi2	@ tmp140, ep_addr
 1096 0014 1046     		mov	r0, r2	@, D.7748
 1097 0016 1946     		mov	r1, r3	@, tmp140
 1098 0018 FFF7FEFF 		bl	HAL_PCD_EP_SetStall	@
 374:Src/usbd_conf.cpp ****   return USBD_OK; 
 1099              		.loc 1 374 0
 1100 001c 4FF00003 		mov	r3, #0	@ D.7749,
 375:Src/usbd_conf.cpp **** }
 1101              		.loc 1 375 0
 1102 0020 1846     		mov	r0, r3	@, <retval>
 1103 0022 07F10807 		add	r7, r7, #8	@,,
ARM GAS  /tmp/ccuqcpRC.s 			page 27


 1104 0026 BD46     		mov	sp, r7
 1105 0028 80BD     		pop	{r7, pc}
 1106              		.cfi_endproc
 1107              	.LFE76:
 1108              		.size	_Z15USBD_LL_StallEPP19_USBD_HandleTypeDefh, .-_Z15USBD_LL_StallEPP19_USBD_HandleTypeDefh
 1109 002a 00BF     		.section	.text._Z20USBD_LL_ClearStallEPP19_USBD_HandleTypeDefh,"ax",%progbits
 1110              		.align	2
 1111              		.global	_Z20USBD_LL_ClearStallEPP19_USBD_HandleTypeDefh
 1112              		.thumb
 1113              		.thumb_func
 1114              		.type	_Z20USBD_LL_ClearStallEPP19_USBD_HandleTypeDefh, %function
 1115              	_Z20USBD_LL_ClearStallEPP19_USBD_HandleTypeDefh:
 1116              	.LFB77:
 376:Src/usbd_conf.cpp **** 
 377:Src/usbd_conf.cpp **** /**
 378:Src/usbd_conf.cpp ****   * @brief  Clears a Stall condition on an endpoint of the Low Level Driver.
 379:Src/usbd_conf.cpp ****   * @param  pdev: Device handle
 380:Src/usbd_conf.cpp ****   * @param  ep_addr: Endpoint Number
 381:Src/usbd_conf.cpp ****   * @retval USBD Status
 382:Src/usbd_conf.cpp ****   */
 383:Src/usbd_conf.cpp **** USBD_StatusTypeDef  USBD_LL_ClearStallEP (USBD_HandleTypeDef *pdev, uint8_t ep_addr)   
 384:Src/usbd_conf.cpp **** {
 1117              		.loc 1 384 0
 1118              		.cfi_startproc
 1119              		@ args = 0, pretend = 0, frame = 8
 1120              		@ frame_needed = 1, uses_anonymous_args = 0
 1121 0000 80B5     		push	{r7, lr}	@
 1122              	.LCFI63:
 1123              		.cfi_def_cfa_offset 8
 1124              		.cfi_offset 7, -8
 1125              		.cfi_offset 14, -4
 1126 0002 82B0     		sub	sp, sp, #8	@,,
 1127              	.LCFI64:
 1128              		.cfi_def_cfa_offset 16
 1129 0004 00AF     		add	r7, sp, #0	@,,
 1130              	.LCFI65:
 1131              		.cfi_def_cfa_register 7
 1132 0006 7860     		str	r0, [r7, #4]	@ pdev, pdev
 1133 0008 0B46     		mov	r3, r1	@ tmp137, ep_addr
 1134 000a FB70     		strb	r3, [r7, #3]	@ tmp138, ep_addr
 385:Src/usbd_conf.cpp ****   
 386:Src/usbd_conf.cpp ****   HAL_PCD_EP_ClrStall(pdev->pData, ep_addr);  
 1135              		.loc 1 386 0
 1136 000c 7B68     		ldr	r3, [r7, #4]	@ tmp139, pdev
 1137 000e D3F82022 		ldr	r2, [r3, #544]	@ D.7745, pdev_1(D)->pData
 1138 0012 FB78     		ldrb	r3, [r7, #3]	@ zero_extendqisi2	@ tmp140, ep_addr
 1139 0014 1046     		mov	r0, r2	@, D.7745
 1140 0016 1946     		mov	r1, r3	@, tmp140
 1141 0018 FFF7FEFF 		bl	HAL_PCD_EP_ClrStall	@
 387:Src/usbd_conf.cpp ****   return USBD_OK; 
 1142              		.loc 1 387 0
 1143 001c 4FF00003 		mov	r3, #0	@ D.7746,
 388:Src/usbd_conf.cpp **** }
 1144              		.loc 1 388 0
 1145 0020 1846     		mov	r0, r3	@, <retval>
 1146 0022 07F10807 		add	r7, r7, #8	@,,
 1147 0026 BD46     		mov	sp, r7
ARM GAS  /tmp/ccuqcpRC.s 			page 28


 1148 0028 80BD     		pop	{r7, pc}
 1149              		.cfi_endproc
 1150              	.LFE77:
 1151              		.size	_Z20USBD_LL_ClearStallEPP19_USBD_HandleTypeDefh, .-_Z20USBD_LL_ClearStallEPP19_USBD_HandleTy
 1152 002a 00BF     		.section	.text._Z17USBD_LL_IsStallEPP19_USBD_HandleTypeDefh,"ax",%progbits
 1153              		.align	2
 1154              		.global	_Z17USBD_LL_IsStallEPP19_USBD_HandleTypeDefh
 1155              		.thumb
 1156              		.thumb_func
 1157              		.type	_Z17USBD_LL_IsStallEPP19_USBD_HandleTypeDefh, %function
 1158              	_Z17USBD_LL_IsStallEPP19_USBD_HandleTypeDefh:
 1159              	.LFB78:
 389:Src/usbd_conf.cpp **** 
 390:Src/usbd_conf.cpp **** /**
 391:Src/usbd_conf.cpp ****   * @brief  Returns Stall condition.
 392:Src/usbd_conf.cpp ****   * @param  pdev: Device handle
 393:Src/usbd_conf.cpp ****   * @param  ep_addr: Endpoint Number
 394:Src/usbd_conf.cpp ****   * @retval Stall (1: Yes, 0: No)
 395:Src/usbd_conf.cpp ****   */
 396:Src/usbd_conf.cpp **** uint8_t USBD_LL_IsStallEP (USBD_HandleTypeDef *pdev, uint8_t ep_addr)   
 397:Src/usbd_conf.cpp **** {
 1160              		.loc 1 397 0
 1161              		.cfi_startproc
 1162              		@ args = 0, pretend = 0, frame = 16
 1163              		@ frame_needed = 1, uses_anonymous_args = 0
 1164              		@ link register save eliminated.
 1165 0000 80B4     		push	{r7}	@
 1166              	.LCFI66:
 1167              		.cfi_def_cfa_offset 4
 1168              		.cfi_offset 7, -4
 1169 0002 85B0     		sub	sp, sp, #20	@,,
 1170              	.LCFI67:
 1171              		.cfi_def_cfa_offset 24
 1172 0004 00AF     		add	r7, sp, #0	@,,
 1173              	.LCFI68:
 1174              		.cfi_def_cfa_register 7
 1175 0006 7860     		str	r0, [r7, #4]	@ pdev, pdev
 1176 0008 0B46     		mov	r3, r1	@ tmp141, ep_addr
 1177 000a FB70     		strb	r3, [r7, #3]	@ tmp142, ep_addr
 1178              	.LBB3:
 398:Src/usbd_conf.cpp ****   PCD_HandleTypeDef *hpcd = pdev->pData; 
 1179              		.loc 1 398 0
 1180 000c 7B68     		ldr	r3, [r7, #4]	@ tmp143, pdev
 1181 000e D3F82032 		ldr	r3, [r3, #544]	@ tmp144, pdev_2(D)->pData
 1182 0012 FB60     		str	r3, [r7, #12]	@ tmp144, hpcd
 399:Src/usbd_conf.cpp ****   
 400:Src/usbd_conf.cpp ****   if((ep_addr & 0x80) == 0x80)
 1183              		.loc 1 400 0
 1184 0014 FB78     		ldrb	r3, [r7, #3]	@ zero_extendqisi2	@ ep_addr.0, ep_addr
 1185 0016 5BB2     		sxtb	r3, r3	@ tmp145, ep_addr.0
 1186 0018 002B     		cmp	r3, #0	@ tmp145,
 1187 001a 0EDA     		bge	.L43	@,
 401:Src/usbd_conf.cpp ****   {
 402:Src/usbd_conf.cpp ****     return hpcd->IN_ep[ep_addr & 0x7F].is_stall; 
 1188              		.loc 1 402 0
 1189 001c FB78     		ldrb	r3, [r7, #3]	@ zero_extendqisi2	@ D.7740, ep_addr
 1190 001e 03F07F02 		and	r2, r3, #127	@ D.7741, D.7740,
ARM GAS  /tmp/ccuqcpRC.s 			page 29


 1191 0022 F968     		ldr	r1, [r7, #12]	@ tmp146, hpcd
 1192 0024 1346     		mov	r3, r2	@ tmp147, D.7741
 1193 0026 4FEAC303 		lsl	r3, r3, #3	@ tmp147, tmp147,
 1194 002a 9B1A     		subs	r3, r3, r2	@ tmp147, tmp147, D.7741
 1195 002c 4FEA8303 		lsl	r3, r3, #2	@ tmp148, tmp147,
 1196 0030 CB18     		adds	r3, r1, r3	@ tmp149, tmp146, tmp147
 1197 0032 03F12803 		add	r3, r3, #40	@ tmp150, tmp149,
 1198 0036 9B78     		ldrb	r3, [r3, #2]	@ zero_extendqisi2	@ D.7739, hpcd_3->IN_ep[D.7741_7].is_stall
 1199 0038 0DE0     		b	.L44	@
 1200              	.L43:
 403:Src/usbd_conf.cpp ****   }
 404:Src/usbd_conf.cpp ****   else
 405:Src/usbd_conf.cpp ****   {
 406:Src/usbd_conf.cpp ****     return hpcd->OUT_ep[ep_addr & 0x7F].is_stall; 
 1201              		.loc 1 406 0
 1202 003a FB78     		ldrb	r3, [r7, #3]	@ zero_extendqisi2	@ D.7742, ep_addr
 1203 003c 03F07F02 		and	r2, r3, #127	@ D.7743, D.7742,
 1204 0040 F968     		ldr	r1, [r7, #12]	@ tmp151, hpcd
 1205 0042 1346     		mov	r3, r2	@ tmp152, D.7743
 1206 0044 4FEAC303 		lsl	r3, r3, #3	@ tmp152, tmp152,
 1207 0048 9B1A     		subs	r3, r3, r2	@ tmp152, tmp152, D.7743
 1208 004a 4FEA8303 		lsl	r3, r3, #2	@ tmp153, tmp152,
 1209 004e CB18     		adds	r3, r1, r3	@ tmp154, tmp151, tmp152
 1210 0050 03F58473 		add	r3, r3, #264	@ tmp155, tmp154,
 1211 0054 9B78     		ldrb	r3, [r3, #2]	@ zero_extendqisi2	@ D.7739, hpcd_3->OUT_ep[D.7743_10].is_stall
 1212              	.L44:
 1213              	.LBE3:
 407:Src/usbd_conf.cpp ****   }
 408:Src/usbd_conf.cpp **** }
 1214              		.loc 1 408 0
 1215 0056 1846     		mov	r0, r3	@, <retval>
 1216 0058 07F11407 		add	r7, r7, #20	@,,
 1217 005c BD46     		mov	sp, r7
 1218 005e 80BC     		pop	{r7}
 1219 0060 7047     		bx	lr
 1220              		.cfi_endproc
 1221              	.LFE78:
 1222              		.size	_Z17USBD_LL_IsStallEPP19_USBD_HandleTypeDefh, .-_Z17USBD_LL_IsStallEPP19_USBD_HandleTypeDefh
 1223 0062 00BF     		.section	.text._Z21USBD_LL_SetUSBAddressP19_USBD_HandleTypeDefh,"ax",%progbits
 1224              		.align	2
 1225              		.global	_Z21USBD_LL_SetUSBAddressP19_USBD_HandleTypeDefh
 1226              		.thumb
 1227              		.thumb_func
 1228              		.type	_Z21USBD_LL_SetUSBAddressP19_USBD_HandleTypeDefh, %function
 1229              	_Z21USBD_LL_SetUSBAddressP19_USBD_HandleTypeDefh:
 1230              	.LFB79:
 409:Src/usbd_conf.cpp **** /**
 410:Src/usbd_conf.cpp ****   * @brief  Assigns a USB address to the device.
 411:Src/usbd_conf.cpp ****   * @param  pdev: Device handle
 412:Src/usbd_conf.cpp ****   * @param  ep_addr: Endpoint Number
 413:Src/usbd_conf.cpp ****   * @retval USBD Status
 414:Src/usbd_conf.cpp ****   */
 415:Src/usbd_conf.cpp **** USBD_StatusTypeDef  USBD_LL_SetUSBAddress (USBD_HandleTypeDef *pdev, uint8_t dev_addr)   
 416:Src/usbd_conf.cpp **** {
 1231              		.loc 1 416 0
 1232              		.cfi_startproc
 1233              		@ args = 0, pretend = 0, frame = 8
ARM GAS  /tmp/ccuqcpRC.s 			page 30


 1234              		@ frame_needed = 1, uses_anonymous_args = 0
 1235 0000 80B5     		push	{r7, lr}	@
 1236              	.LCFI69:
 1237              		.cfi_def_cfa_offset 8
 1238              		.cfi_offset 7, -8
 1239              		.cfi_offset 14, -4
 1240 0002 82B0     		sub	sp, sp, #8	@,,
 1241              	.LCFI70:
 1242              		.cfi_def_cfa_offset 16
 1243 0004 00AF     		add	r7, sp, #0	@,,
 1244              	.LCFI71:
 1245              		.cfi_def_cfa_register 7
 1246 0006 7860     		str	r0, [r7, #4]	@ pdev, pdev
 1247 0008 0B46     		mov	r3, r1	@ tmp137, dev_addr
 1248 000a FB70     		strb	r3, [r7, #3]	@ tmp138, dev_addr
 417:Src/usbd_conf.cpp ****   
 418:Src/usbd_conf.cpp ****   HAL_PCD_SetAddress(pdev->pData, dev_addr);
 1249              		.loc 1 418 0
 1250 000c 7B68     		ldr	r3, [r7, #4]	@ tmp139, pdev
 1251 000e D3F82022 		ldr	r2, [r3, #544]	@ D.7733, pdev_1(D)->pData
 1252 0012 FB78     		ldrb	r3, [r7, #3]	@ zero_extendqisi2	@ tmp140, dev_addr
 1253 0014 1046     		mov	r0, r2	@, D.7733
 1254 0016 1946     		mov	r1, r3	@, tmp140
 1255 0018 FFF7FEFF 		bl	HAL_PCD_SetAddress	@
 419:Src/usbd_conf.cpp ****   return USBD_OK; 
 1256              		.loc 1 419 0
 1257 001c 4FF00003 		mov	r3, #0	@ D.7734,
 420:Src/usbd_conf.cpp **** }
 1258              		.loc 1 420 0
 1259 0020 1846     		mov	r0, r3	@, <retval>
 1260 0022 07F10807 		add	r7, r7, #8	@,,
 1261 0026 BD46     		mov	sp, r7
 1262 0028 80BD     		pop	{r7, pc}
 1263              		.cfi_endproc
 1264              	.LFE79:
 1265              		.size	_Z21USBD_LL_SetUSBAddressP19_USBD_HandleTypeDefh, .-_Z21USBD_LL_SetUSBAddressP19_USBD_Handle
 1266 002a 00BF     		.section	.text._Z16USBD_LL_TransmitP19_USBD_HandleTypeDefhPht,"ax",%progbits
 1267              		.align	2
 1268              		.global	_Z16USBD_LL_TransmitP19_USBD_HandleTypeDefhPht
 1269              		.thumb
 1270              		.thumb_func
 1271              		.type	_Z16USBD_LL_TransmitP19_USBD_HandleTypeDefhPht, %function
 1272              	_Z16USBD_LL_TransmitP19_USBD_HandleTypeDefhPht:
 1273              	.LFB80:
 421:Src/usbd_conf.cpp **** 
 422:Src/usbd_conf.cpp **** /**
 423:Src/usbd_conf.cpp ****   * @brief  Transmits data over an endpoint.
 424:Src/usbd_conf.cpp ****   * @param  pdev: Device handle
 425:Src/usbd_conf.cpp ****   * @param  ep_addr: Endpoint Number
 426:Src/usbd_conf.cpp ****   * @param  pbuf: Pointer to data to be sent
 427:Src/usbd_conf.cpp ****   * @param  size: Data size    
 428:Src/usbd_conf.cpp ****   * @retval USBD Status
 429:Src/usbd_conf.cpp ****   */
 430:Src/usbd_conf.cpp **** USBD_StatusTypeDef  USBD_LL_Transmit (USBD_HandleTypeDef *pdev, 
 431:Src/usbd_conf.cpp ****                                       uint8_t  ep_addr,                                      
 432:Src/usbd_conf.cpp ****                                       uint8_t  *pbuf,
 433:Src/usbd_conf.cpp ****                                       uint16_t  size)
ARM GAS  /tmp/ccuqcpRC.s 			page 31


 434:Src/usbd_conf.cpp **** {
 1274              		.loc 1 434 0
 1275              		.cfi_startproc
 1276              		@ args = 0, pretend = 0, frame = 16
 1277              		@ frame_needed = 1, uses_anonymous_args = 0
 1278 0000 80B5     		push	{r7, lr}	@
 1279              	.LCFI72:
 1280              		.cfi_def_cfa_offset 8
 1281              		.cfi_offset 7, -8
 1282              		.cfi_offset 14, -4
 1283 0002 84B0     		sub	sp, sp, #16	@,,
 1284              	.LCFI73:
 1285              		.cfi_def_cfa_offset 24
 1286 0004 00AF     		add	r7, sp, #0	@,,
 1287              	.LCFI74:
 1288              		.cfi_def_cfa_register 7
 1289 0006 F860     		str	r0, [r7, #12]	@ pdev, pdev
 1290 0008 7A60     		str	r2, [r7, #4]	@ pbuf, pbuf
 1291 000a 0A46     		mov	r2, r1	@ tmp139, tmp138
 1292 000c FA72     		strb	r2, [r7, #11]	@ tmp139, ep_addr
 1293 000e 3B81     		strh	r3, [r7, #8]	@ movhi	@ tmp141, size
 435:Src/usbd_conf.cpp **** 
 436:Src/usbd_conf.cpp ****   HAL_PCD_EP_Transmit(pdev->pData, ep_addr, pbuf, size);
 1294              		.loc 1 436 0
 1295 0010 FB68     		ldr	r3, [r7, #12]	@ tmp142, pdev
 1296 0012 D3F82012 		ldr	r1, [r3, #544]	@ D.7729, pdev_1(D)->pData
 1297 0016 3B89     		ldrh	r3, [r7, #8]	@ D.7730, size
 1298 0018 FA7A     		ldrb	r2, [r7, #11]	@ zero_extendqisi2	@ tmp143, ep_addr
 1299 001a 0846     		mov	r0, r1	@, D.7729
 1300 001c 1146     		mov	r1, r2	@, tmp143
 1301 001e 7A68     		ldr	r2, [r7, #4]	@, pbuf
 1302 0020 FFF7FEFF 		bl	HAL_PCD_EP_Transmit	@
 437:Src/usbd_conf.cpp ****   return USBD_OK;   
 1303              		.loc 1 437 0
 1304 0024 4FF00003 		mov	r3, #0	@ D.7731,
 438:Src/usbd_conf.cpp **** }
 1305              		.loc 1 438 0
 1306 0028 1846     		mov	r0, r3	@, <retval>
 1307 002a 07F11007 		add	r7, r7, #16	@,,
 1308 002e BD46     		mov	sp, r7
 1309 0030 80BD     		pop	{r7, pc}
 1310              		.cfi_endproc
 1311              	.LFE80:
 1312              		.size	_Z16USBD_LL_TransmitP19_USBD_HandleTypeDefhPht, .-_Z16USBD_LL_TransmitP19_USBD_HandleTypeDef
 1313 0032 00BF     		.section	.text._Z22USBD_LL_PrepareReceiveP19_USBD_HandleTypeDefhPht,"ax",%progbits
 1314              		.align	2
 1315              		.global	_Z22USBD_LL_PrepareReceiveP19_USBD_HandleTypeDefhPht
 1316              		.thumb
 1317              		.thumb_func
 1318              		.type	_Z22USBD_LL_PrepareReceiveP19_USBD_HandleTypeDefhPht, %function
 1319              	_Z22USBD_LL_PrepareReceiveP19_USBD_HandleTypeDefhPht:
 1320              	.LFB81:
 439:Src/usbd_conf.cpp **** 
 440:Src/usbd_conf.cpp **** /**
 441:Src/usbd_conf.cpp ****   * @brief  Prepares an endpoint for reception.
 442:Src/usbd_conf.cpp ****   * @param  pdev: Device handle
 443:Src/usbd_conf.cpp ****   * @param  ep_addr: Endpoint Number
ARM GAS  /tmp/ccuqcpRC.s 			page 32


 444:Src/usbd_conf.cpp ****   * @param  pbuf: Pointer to data to be received
 445:Src/usbd_conf.cpp ****   * @param  size: Data size
 446:Src/usbd_conf.cpp ****   * @retval USBD Status
 447:Src/usbd_conf.cpp ****   */
 448:Src/usbd_conf.cpp **** USBD_StatusTypeDef  USBD_LL_PrepareReceive(USBD_HandleTypeDef *pdev, 
 449:Src/usbd_conf.cpp ****                                            uint8_t  ep_addr,                                      
 450:Src/usbd_conf.cpp ****                                            uint8_t  *pbuf,
 451:Src/usbd_conf.cpp ****                                            uint16_t  size)
 452:Src/usbd_conf.cpp **** {
 1321              		.loc 1 452 0
 1322              		.cfi_startproc
 1323              		@ args = 0, pretend = 0, frame = 16
 1324              		@ frame_needed = 1, uses_anonymous_args = 0
 1325 0000 80B5     		push	{r7, lr}	@
 1326              	.LCFI75:
 1327              		.cfi_def_cfa_offset 8
 1328              		.cfi_offset 7, -8
 1329              		.cfi_offset 14, -4
 1330 0002 84B0     		sub	sp, sp, #16	@,,
 1331              	.LCFI76:
 1332              		.cfi_def_cfa_offset 24
 1333 0004 00AF     		add	r7, sp, #0	@,,
 1334              	.LCFI77:
 1335              		.cfi_def_cfa_register 7
 1336 0006 F860     		str	r0, [r7, #12]	@ pdev, pdev
 1337 0008 7A60     		str	r2, [r7, #4]	@ pbuf, pbuf
 1338 000a 0A46     		mov	r2, r1	@ tmp139, tmp138
 1339 000c FA72     		strb	r2, [r7, #11]	@ tmp139, ep_addr
 1340 000e 3B81     		strh	r3, [r7, #8]	@ movhi	@ tmp141, size
 453:Src/usbd_conf.cpp **** 
 454:Src/usbd_conf.cpp ****   HAL_PCD_EP_Receive(pdev->pData, ep_addr, pbuf, size);
 1341              		.loc 1 454 0
 1342 0010 FB68     		ldr	r3, [r7, #12]	@ tmp142, pdev
 1343 0012 D3F82012 		ldr	r1, [r3, #544]	@ D.7725, pdev_1(D)->pData
 1344 0016 3B89     		ldrh	r3, [r7, #8]	@ D.7726, size
 1345 0018 FA7A     		ldrb	r2, [r7, #11]	@ zero_extendqisi2	@ tmp143, ep_addr
 1346 001a 0846     		mov	r0, r1	@, D.7725
 1347 001c 1146     		mov	r1, r2	@, tmp143
 1348 001e 7A68     		ldr	r2, [r7, #4]	@, pbuf
 1349 0020 FFF7FEFF 		bl	HAL_PCD_EP_Receive	@
 455:Src/usbd_conf.cpp ****   return USBD_OK;   
 1350              		.loc 1 455 0
 1351 0024 4FF00003 		mov	r3, #0	@ D.7727,
 456:Src/usbd_conf.cpp **** }
 1352              		.loc 1 456 0
 1353 0028 1846     		mov	r0, r3	@, <retval>
 1354 002a 07F11007 		add	r7, r7, #16	@,,
 1355 002e BD46     		mov	sp, r7
 1356 0030 80BD     		pop	{r7, pc}
 1357              		.cfi_endproc
 1358              	.LFE81:
 1359              		.size	_Z22USBD_LL_PrepareReceiveP19_USBD_HandleTypeDefhPht, .-_Z22USBD_LL_PrepareReceiveP19_USBD_H
 1360 0032 00BF     		.section	.text._Z21USBD_LL_GetRxDataSizeP19_USBD_HandleTypeDefh,"ax",%progbits
 1361              		.align	2
 1362              		.global	_Z21USBD_LL_GetRxDataSizeP19_USBD_HandleTypeDefh
 1363              		.thumb
 1364              		.thumb_func
ARM GAS  /tmp/ccuqcpRC.s 			page 33


 1365              		.type	_Z21USBD_LL_GetRxDataSizeP19_USBD_HandleTypeDefh, %function
 1366              	_Z21USBD_LL_GetRxDataSizeP19_USBD_HandleTypeDefh:
 1367              	.LFB82:
 457:Src/usbd_conf.cpp **** 
 458:Src/usbd_conf.cpp **** /**
 459:Src/usbd_conf.cpp ****   * @brief  Returns the last transfered packet size.
 460:Src/usbd_conf.cpp ****   * @param  pdev: Device handle
 461:Src/usbd_conf.cpp ****   * @param  ep_addr: Endpoint Number
 462:Src/usbd_conf.cpp ****   * @retval Recived Data Size
 463:Src/usbd_conf.cpp ****   */
 464:Src/usbd_conf.cpp **** uint32_t USBD_LL_GetRxDataSize  (USBD_HandleTypeDef *pdev, uint8_t  ep_addr)  
 465:Src/usbd_conf.cpp **** {
 1368              		.loc 1 465 0
 1369              		.cfi_startproc
 1370              		@ args = 0, pretend = 0, frame = 8
 1371              		@ frame_needed = 1, uses_anonymous_args = 0
 1372 0000 80B5     		push	{r7, lr}	@
 1373              	.LCFI78:
 1374              		.cfi_def_cfa_offset 8
 1375              		.cfi_offset 7, -8
 1376              		.cfi_offset 14, -4
 1377 0002 82B0     		sub	sp, sp, #8	@,,
 1378              	.LCFI79:
 1379              		.cfi_def_cfa_offset 16
 1380 0004 00AF     		add	r7, sp, #0	@,,
 1381              	.LCFI80:
 1382              		.cfi_def_cfa_register 7
 1383 0006 7860     		str	r0, [r7, #4]	@ pdev, pdev
 1384 0008 0B46     		mov	r3, r1	@ tmp138, ep_addr
 1385 000a FB70     		strb	r3, [r7, #3]	@ tmp139, ep_addr
 466:Src/usbd_conf.cpp ****   return HAL_PCD_EP_GetRxCount(pdev->pData, ep_addr);
 1386              		.loc 1 466 0
 1387 000c 7B68     		ldr	r3, [r7, #4]	@ tmp140, pdev
 1388 000e D3F82022 		ldr	r2, [r3, #544]	@ D.7722, pdev_1(D)->pData
 1389 0012 FB78     		ldrb	r3, [r7, #3]	@ zero_extendqisi2	@ tmp141, ep_addr
 1390 0014 1046     		mov	r0, r2	@, D.7722
 1391 0016 1946     		mov	r1, r3	@, tmp141
 1392 0018 FFF7FEFF 		bl	HAL_PCD_EP_GetRxCount	@
 1393 001c 0346     		mov	r3, r0	@ tmp142,
 467:Src/usbd_conf.cpp **** }
 1394              		.loc 1 467 0
 1395 001e 1846     		mov	r0, r3	@, <retval>
 1396 0020 07F10807 		add	r7, r7, #8	@,,
 1397 0024 BD46     		mov	sp, r7
 1398 0026 80BD     		pop	{r7, pc}
 1399              		.cfi_endproc
 1400              	.LFE82:
 1401              		.size	_Z21USBD_LL_GetRxDataSizeP19_USBD_HandleTypeDefh, .-_Z21USBD_LL_GetRxDataSizeP19_USBD_Handle
 1402              		.section	.text._Z13USBD_LL_Delaym,"ax",%progbits
 1403              		.align	2
 1404              		.global	_Z13USBD_LL_Delaym
 1405              		.thumb
 1406              		.thumb_func
 1407              		.type	_Z13USBD_LL_Delaym, %function
 1408              	_Z13USBD_LL_Delaym:
 1409              	.LFB83:
 468:Src/usbd_conf.cpp **** 
ARM GAS  /tmp/ccuqcpRC.s 			page 34


 469:Src/usbd_conf.cpp **** /**
 470:Src/usbd_conf.cpp ****   * @brief  Delays routine for the USB Device Library.
 471:Src/usbd_conf.cpp ****   * @param  Delay: Delay in ms
 472:Src/usbd_conf.cpp ****   * @retval None
 473:Src/usbd_conf.cpp ****   */
 474:Src/usbd_conf.cpp **** void  USBD_LL_Delay (uint32_t Delay)
 475:Src/usbd_conf.cpp **** {
 1410              		.loc 1 475 0
 1411              		.cfi_startproc
 1412              		@ args = 0, pretend = 0, frame = 8
 1413              		@ frame_needed = 1, uses_anonymous_args = 0
 1414 0000 80B5     		push	{r7, lr}	@
 1415              	.LCFI81:
 1416              		.cfi_def_cfa_offset 8
 1417              		.cfi_offset 7, -8
 1418              		.cfi_offset 14, -4
 1419 0002 82B0     		sub	sp, sp, #8	@,,
 1420              	.LCFI82:
 1421              		.cfi_def_cfa_offset 16
 1422 0004 00AF     		add	r7, sp, #0	@,,
 1423              	.LCFI83:
 1424              		.cfi_def_cfa_register 7
 1425 0006 7860     		str	r0, [r7, #4]	@ Delay, Delay
 476:Src/usbd_conf.cpp ****   HAL_Delay(Delay);  
 1426              		.loc 1 476 0
 1427 0008 7868     		ldr	r0, [r7, #4]	@, Delay
 1428 000a FFF7FEFF 		bl	HAL_Delay	@
 477:Src/usbd_conf.cpp **** }
 1429              		.loc 1 477 0
 1430 000e 07F10807 		add	r7, r7, #8	@,,
 1431 0012 BD46     		mov	sp, r7
 1432 0014 80BD     		pop	{r7, pc}
 1433              		.cfi_endproc
 1434              	.LFE83:
 1435              		.size	_Z13USBD_LL_Delaym, .-_Z13USBD_LL_Delaym
 1436 0016 00BF     		.section	.text._Z18USBD_static_mallocm,"ax",%progbits
 1437              		.align	2
 1438              		.global	_Z18USBD_static_mallocm
 1439              		.thumb
 1440              		.thumb_func
 1441              		.type	_Z18USBD_static_mallocm, %function
 1442              	_Z18USBD_static_mallocm:
 1443              	.LFB84:
 478:Src/usbd_conf.cpp **** 
 479:Src/usbd_conf.cpp **** /**
 480:Src/usbd_conf.cpp ****   * @brief  static single allocation.
 481:Src/usbd_conf.cpp ****   * @param  size: size of allocated memory
 482:Src/usbd_conf.cpp ****   * @retval None
 483:Src/usbd_conf.cpp ****   */
 484:Src/usbd_conf.cpp **** void *USBD_static_malloc(uint32_t size)
 485:Src/usbd_conf.cpp **** {
 1444              		.loc 1 485 0
 1445              		.cfi_startproc
 1446              		@ args = 0, pretend = 0, frame = 8
 1447              		@ frame_needed = 1, uses_anonymous_args = 0
 1448              		@ link register save eliminated.
 1449 0000 80B4     		push	{r7}	@
ARM GAS  /tmp/ccuqcpRC.s 			page 35


 1450              	.LCFI84:
 1451              		.cfi_def_cfa_offset 4
 1452              		.cfi_offset 7, -4
 1453 0002 83B0     		sub	sp, sp, #12	@,,
 1454              	.LCFI85:
 1455              		.cfi_def_cfa_offset 16
 1456 0004 00AF     		add	r7, sp, #0	@,,
 1457              	.LCFI86:
 1458              		.cfi_def_cfa_register 7
 1459 0006 7860     		str	r0, [r7, #4]	@ size, size
 1460              	.LBB4:
 486:Src/usbd_conf.cpp ****   static uint32_t mem[MAX_STATIC_ALLOC_SIZE];
 487:Src/usbd_conf.cpp ****   return mem;
 1461              		.loc 1 487 0
 1462 0008 40F20003 		movw	r3, #:lower16:_ZZ18USBD_static_mallocmE3mem	@ D.7719,
 1463 000c C0F20003 		movt	r3, #:upper16:_ZZ18USBD_static_mallocmE3mem	@ D.7719,
 1464              	.LBE4:
 488:Src/usbd_conf.cpp **** }
 1465              		.loc 1 488 0
 1466 0010 1846     		mov	r0, r3	@, <retval>
 1467 0012 07F10C07 		add	r7, r7, #12	@,,
 1468 0016 BD46     		mov	sp, r7
 1469 0018 80BC     		pop	{r7}
 1470 001a 7047     		bx	lr
 1471              		.cfi_endproc
 1472              	.LFE84:
 1473              		.size	_Z18USBD_static_mallocm, .-_Z18USBD_static_mallocm
 1474              		.section	.text._Z16USBD_static_freePv,"ax",%progbits
 1475              		.align	2
 1476              		.global	_Z16USBD_static_freePv
 1477              		.thumb
 1478              		.thumb_func
 1479              		.type	_Z16USBD_static_freePv, %function
 1480              	_Z16USBD_static_freePv:
 1481              	.LFB85:
 489:Src/usbd_conf.cpp **** 
 490:Src/usbd_conf.cpp **** /**
 491:Src/usbd_conf.cpp ****   * @brief  Dummy memory free
 492:Src/usbd_conf.cpp ****   * @param  *p pointer to allocated  memory address
 493:Src/usbd_conf.cpp ****   * @retval None
 494:Src/usbd_conf.cpp ****   */
 495:Src/usbd_conf.cpp **** void USBD_static_free(void *p)
 496:Src/usbd_conf.cpp **** {
 1482              		.loc 1 496 0
 1483              		.cfi_startproc
 1484              		@ args = 0, pretend = 0, frame = 8
 1485              		@ frame_needed = 1, uses_anonymous_args = 0
 1486              		@ link register save eliminated.
 1487 0000 80B4     		push	{r7}	@
 1488              	.LCFI87:
 1489              		.cfi_def_cfa_offset 4
 1490              		.cfi_offset 7, -4
 1491 0002 83B0     		sub	sp, sp, #12	@,,
 1492              	.LCFI88:
 1493              		.cfi_def_cfa_offset 16
 1494 0004 00AF     		add	r7, sp, #0	@,,
 1495              	.LCFI89:
ARM GAS  /tmp/ccuqcpRC.s 			page 36


 1496              		.cfi_def_cfa_register 7
 1497 0006 7860     		str	r0, [r7, #4]	@ p, p
 497:Src/usbd_conf.cpp **** 
 498:Src/usbd_conf.cpp **** }
 1498              		.loc 1 498 0
 1499 0008 07F10C07 		add	r7, r7, #12	@,,
 1500 000c BD46     		mov	sp, r7
 1501 000e 80BC     		pop	{r7}
 1502 0010 7047     		bx	lr
 1503              		.cfi_endproc
 1504              	.LFE85:
 1505              		.size	_Z16USBD_static_freePv, .-_Z16USBD_static_freePv
 1506 0012 00BF     		.section	.text._ZL24SystemClockConfig_Resumev,"ax",%progbits
 1507              		.align	2
 1508              		.thumb
 1509              		.thumb_func
 1510              		.type	_ZL24SystemClockConfig_Resumev, %function
 1511              	_ZL24SystemClockConfig_Resumev:
 1512              	.LFB86:
 499:Src/usbd_conf.cpp **** 
 500:Src/usbd_conf.cpp **** /* USER CODE BEGIN 4 */
 501:Src/usbd_conf.cpp **** /**
 502:Src/usbd_conf.cpp ****   * @brief  Configures system clock after wake-up from USB Resume CallBack: 
 503:Src/usbd_conf.cpp ****   *         enable HSI, PLL and select PLL as system clock source.
 504:Src/usbd_conf.cpp ****   * @param  None
 505:Src/usbd_conf.cpp ****   * @retval None
 506:Src/usbd_conf.cpp ****   */
 507:Src/usbd_conf.cpp **** static void SystemClockConfig_Resume(void)
 508:Src/usbd_conf.cpp **** {
 1513              		.loc 1 508 0
 1514              		.cfi_startproc
 1515              		@ args = 0, pretend = 0, frame = 0
 1516              		@ frame_needed = 1, uses_anonymous_args = 0
 1517 0000 80B5     		push	{r7, lr}	@
 1518              	.LCFI90:
 1519              		.cfi_def_cfa_offset 8
 1520              		.cfi_offset 7, -8
 1521              		.cfi_offset 14, -4
 1522 0002 00AF     		add	r7, sp, #0	@,,
 1523              	.LCFI91:
 1524              		.cfi_def_cfa_register 7
 509:Src/usbd_conf.cpp **** 	SystemClock_Config2();
 1525              		.loc 1 509 0
 1526 0004 FFF7FEFF 		bl	_Z19SystemClock_Config2v	@
 510:Src/usbd_conf.cpp **** }
 1527              		.loc 1 510 0
 1528 0008 80BD     		pop	{r7, pc}	@
 1529              		.cfi_endproc
 1530              	.LFE86:
 1531              		.size	_ZL24SystemClockConfig_Resumev, .-_ZL24SystemClockConfig_Resumev
 1532 000a 00BF     		.section	.text.HAL_PCDEx_SetConnectionState,"ax",%progbits
 1533              		.align	2
 1534              		.global	HAL_PCDEx_SetConnectionState
 1535              		.thumb
 1536              		.thumb_func
 1537              		.type	HAL_PCDEx_SetConnectionState, %function
 1538              	HAL_PCDEx_SetConnectionState:
ARM GAS  /tmp/ccuqcpRC.s 			page 37


 1539              	.LFB87:
 511:Src/usbd_conf.cpp **** /* USER CODE END 4 */
 512:Src/usbd_conf.cpp **** 
 513:Src/usbd_conf.cpp **** /**
 514:Src/usbd_conf.cpp **** * @brief Software Device Connection
 515:Src/usbd_conf.cpp **** * @param hpcd: PCD handle
 516:Src/usbd_conf.cpp **** * @param state: connection state (0 : disconnected / 1: connected) 
 517:Src/usbd_conf.cpp **** * @retval None
 518:Src/usbd_conf.cpp **** */
 519:Src/usbd_conf.cpp **** void HAL_PCDEx_SetConnectionState(PCD_HandleTypeDef *hpcd, uint8_t state)
 520:Src/usbd_conf.cpp **** {
 1540              		.loc 1 520 0
 1541              		.cfi_startproc
 1542              		@ args = 0, pretend = 0, frame = 8
 1543              		@ frame_needed = 1, uses_anonymous_args = 0
 1544              		@ link register save eliminated.
 1545 0000 80B4     		push	{r7}	@
 1546              	.LCFI92:
 1547              		.cfi_def_cfa_offset 4
 1548              		.cfi_offset 7, -4
 1549 0002 83B0     		sub	sp, sp, #12	@,,
 1550              	.LCFI93:
 1551              		.cfi_def_cfa_offset 16
 1552 0004 00AF     		add	r7, sp, #0	@,,
 1553              	.LCFI94:
 1554              		.cfi_def_cfa_register 7
 1555 0006 7860     		str	r0, [r7, #4]	@ hpcd, hpcd
 1556 0008 0B46     		mov	r3, r1	@ tmp142, state
 1557 000a FB70     		strb	r3, [r7, #3]	@ tmp143, state
 521:Src/usbd_conf.cpp **** /* USER CODE BEGIN 5 */
 522:Src/usbd_conf.cpp ****   if (state == 1)
 1558              		.loc 1 522 0
 1559 000c FB78     		ldrb	r3, [r7, #3]	@ zero_extendqisi2	@ tmp144, state
 1560 000e 012B     		cmp	r3, #1	@ tmp144,
 1561 0010 0CD1     		bne	.L59	@,
 523:Src/usbd_conf.cpp ****   {
 524:Src/usbd_conf.cpp ****     /* Configure Low Connection State */
 525:Src/usbd_conf.cpp **** 	__HAL_SYSCFG_USBPULLUP_ENABLE();
 1562              		.loc 1 525 0
 1563 0012 4FF00003 		mov	r3, #0	@ D.7710,
 1564 0016 C4F20103 		movt	r3, 16385	@ D.7710,
 1565 001a 4FF00002 		mov	r2, #0	@ D.7711,
 1566 001e C4F20102 		movt	r2, 16385	@ D.7711,
 1567 0022 5268     		ldr	r2, [r2, #4]	@ D.7712, D.7711_3->PMC
 1568 0024 42F00102 		orr	r2, r2, #1	@ D.7713, D.7712,
 1569 0028 5A60     		str	r2, [r3, #4]	@ D.7713, D.7710_2->PMC
 1570 002a 0BE0     		b	.L58	@
 1571              	.L59:
 526:Src/usbd_conf.cpp ****   }
 527:Src/usbd_conf.cpp ****   else
 528:Src/usbd_conf.cpp ****   {
 529:Src/usbd_conf.cpp ****     /* Configure High Connection State */
 530:Src/usbd_conf.cpp ****     __HAL_SYSCFG_USBPULLUP_DISABLE();
 1572              		.loc 1 530 0
 1573 002c 4FF00003 		mov	r3, #0	@ D.7715,
 1574 0030 C4F20103 		movt	r3, 16385	@ D.7715,
 1575 0034 4FF00002 		mov	r2, #0	@ D.7716,
ARM GAS  /tmp/ccuqcpRC.s 			page 38


 1576 0038 C4F20102 		movt	r2, 16385	@ D.7716,
 1577 003c 5268     		ldr	r2, [r2, #4]	@ D.7717, D.7716_7->PMC
 1578 003e 22F00102 		bic	r2, r2, #1	@ D.7718, D.7717,
 1579 0042 5A60     		str	r2, [r3, #4]	@ D.7718, D.7715_6->PMC
 1580              	.L58:
 531:Src/usbd_conf.cpp ****   } 
 532:Src/usbd_conf.cpp **** /* USER CODE END 5 */
 533:Src/usbd_conf.cpp **** }
 1581              		.loc 1 533 0
 1582 0044 07F10C07 		add	r7, r7, #12	@,,
 1583 0048 BD46     		mov	sp, r7
 1584 004a 80BC     		pop	{r7}
 1585 004c 7047     		bx	lr
 1586              		.cfi_endproc
 1587              	.LFE87:
 1588              		.size	HAL_PCDEx_SetConnectionState, .-HAL_PCDEx_SetConnectionState
 1589 004e 00BF     		.section	.text._Z19SystemClock_Config2v,"ax",%progbits
 1590              		.align	2
 1591              		.global	_Z19SystemClock_Config2v
 1592              		.thumb
 1593              		.thumb_func
 1594              		.type	_Z19SystemClock_Config2v, %function
 1595              	_Z19SystemClock_Config2v:
 1596              	.LFB88:
 534:Src/usbd_conf.cpp **** 
 535:Src/usbd_conf.cpp **** /** System Clock Configuration
 536:Src/usbd_conf.cpp **** */
 537:Src/usbd_conf.cpp **** void SystemClock_Config2(void)
 538:Src/usbd_conf.cpp **** {
 1597              		.loc 1 538 0
 1598              		.cfi_startproc
 1599              		@ args = 0, pretend = 0, frame = 72
 1600              		@ frame_needed = 1, uses_anonymous_args = 0
 1601 0000 80B5     		push	{r7, lr}	@
 1602              	.LCFI95:
 1603              		.cfi_def_cfa_offset 8
 1604              		.cfi_offset 7, -8
 1605              		.cfi_offset 14, -4
 1606 0002 92B0     		sub	sp, sp, #72	@,,
 1607              	.LCFI96:
 1608              		.cfi_def_cfa_offset 80
 1609 0004 00AF     		add	r7, sp, #0	@,,
 1610              	.LCFI97:
 1611              		.cfi_def_cfa_register 7
 1612              	.LBB5:
 539:Src/usbd_conf.cpp **** 
 540:Src/usbd_conf.cpp ****   RCC_OscInitTypeDef RCC_OscInitStruct;
 541:Src/usbd_conf.cpp ****   RCC_ClkInitTypeDef RCC_ClkInitStruct;
 542:Src/usbd_conf.cpp **** 
 543:Src/usbd_conf.cpp ****   __PWR_CLK_ENABLE();
 1613              		.loc 1 543 0
 1614 0006 4FF46053 		mov	r3, #14336	@ D.7695,
 1615 000a C4F20203 		movt	r3, 16386	@ D.7695,
 1616 000e 4FF46052 		mov	r2, #14336	@ D.7696,
 1617 0012 C4F20202 		movt	r2, 16386	@ D.7696,
 1618 0016 526A     		ldr	r2, [r2, #36]	@ D.7697, D.7696_2->APB1ENR
 1619 0018 42F08052 		orr	r2, r2, #268435456	@ D.7698, D.7697,
ARM GAS  /tmp/ccuqcpRC.s 			page 39


 1620 001c 5A62     		str	r2, [r3, #36]	@ D.7698, D.7695_1->APB1ENR
 544:Src/usbd_conf.cpp **** 
 545:Src/usbd_conf.cpp ****   __HAL_PWR_VOLTAGESCALING_CONFIG(PWR_REGULATOR_VOLTAGE_SCALE1);
 1621              		.loc 1 545 0
 1622 001e 4FF4E043 		mov	r3, #28672	@ D.7699,
 1623 0022 C4F20003 		movt	r3, 16384	@ D.7699,
 1624 0026 4FF4E042 		mov	r2, #28672	@ D.7700,
 1625 002a C4F20002 		movt	r2, 16384	@ D.7700,
 1626 002e 1268     		ldr	r2, [r2, #0]	@ D.7701, D.7700_6->CR
 1627 0030 22F4C052 		bic	r2, r2, #6144	@ D.7702, D.7701,
 1628 0034 42F40062 		orr	r2, r2, #2048	@ D.7703, D.7702,
 1629 0038 1A60     		str	r2, [r3, #0]	@ D.7703, D.7699_5->CR
 546:Src/usbd_conf.cpp **** 
 547:Src/usbd_conf.cpp ****   RCC_OscInitStruct.OscillatorType = RCC_OSCILLATORTYPE_HSE;
 1630              		.loc 1 547 0
 1631 003a 4FF00103 		mov	r3, #1	@ tmp147,
 1632 003e 3B60     		str	r3, [r7, #0]	@ tmp147, RCC_OscInitStruct.OscillatorType
 548:Src/usbd_conf.cpp ****   RCC_OscInitStruct.HSEState = RCC_HSE_ON;
 1633              		.loc 1 548 0
 1634 0040 4FF00103 		mov	r3, #1	@ tmp148,
 1635 0044 7B60     		str	r3, [r7, #4]	@ tmp148, RCC_OscInitStruct.HSEState
 549:Src/usbd_conf.cpp ****   RCC_OscInitStruct.PLL.PLLState = RCC_PLL_ON;
 1636              		.loc 1 549 0
 1637 0046 4FF00203 		mov	r3, #2	@ tmp149,
 1638 004a 7B62     		str	r3, [r7, #36]	@ tmp149, RCC_OscInitStruct.PLL.PLLState
 550:Src/usbd_conf.cpp ****   RCC_OscInitStruct.PLL.PLLSource = RCC_PLLSOURCE_HSE;
 1639              		.loc 1 550 0
 1640 004c 4FF48033 		mov	r3, #65536	@ tmp150,
 1641 0050 BB62     		str	r3, [r7, #40]	@ tmp150, RCC_OscInitStruct.PLL.PLLSource
 551:Src/usbd_conf.cpp ****   RCC_OscInitStruct.PLL.PLLMUL = RCC_PLL_MUL12;
 1642              		.loc 1 551 0
 1643 0052 4FF48013 		mov	r3, #1048576	@ tmp151,
 1644 0056 FB62     		str	r3, [r7, #44]	@ tmp151, RCC_OscInitStruct.PLL.PLLMUL
 552:Src/usbd_conf.cpp ****   RCC_OscInitStruct.PLL.PLLDIV = RCC_PLL_DIV4;
 1645              		.loc 1 552 0
 1646 0058 4FF44003 		mov	r3, #12582912	@ tmp152,
 1647 005c 3B63     		str	r3, [r7, #48]	@ tmp152, RCC_OscInitStruct.PLL.PLLDIV
 553:Src/usbd_conf.cpp ****   HAL_RCC_OscConfig(&RCC_OscInitStruct);
 1648              		.loc 1 553 0
 1649 005e 3B46     		mov	r3, r7	@ tmp153,
 1650 0060 1846     		mov	r0, r3	@, tmp153
 1651 0062 FFF7FEFF 		bl	HAL_RCC_OscConfig	@
 554:Src/usbd_conf.cpp **** 
 555:Src/usbd_conf.cpp ****   RCC_ClkInitStruct.ClockType = RCC_CLOCKTYPE_SYSCLK;
 1652              		.loc 1 555 0
 1653 0066 4FF00103 		mov	r3, #1	@ tmp154,
 1654 006a 7B63     		str	r3, [r7, #52]	@ tmp154, RCC_ClkInitStruct.ClockType
 556:Src/usbd_conf.cpp ****   RCC_ClkInitStruct.SYSCLKSource = RCC_SYSCLKSOURCE_PLLCLK;
 1655              		.loc 1 556 0
 1656 006c 4FF00303 		mov	r3, #3	@ tmp155,
 1657 0070 BB63     		str	r3, [r7, #56]	@ tmp155, RCC_ClkInitStruct.SYSCLKSource
 557:Src/usbd_conf.cpp ****   RCC_ClkInitStruct.AHBCLKDivider = RCC_SYSCLK_DIV1;
 1658              		.loc 1 557 0
 1659 0072 4FF00003 		mov	r3, #0	@ tmp156,
 1660 0076 FB63     		str	r3, [r7, #60]	@ tmp156, RCC_ClkInitStruct.AHBCLKDivider
 558:Src/usbd_conf.cpp ****   RCC_ClkInitStruct.APB1CLKDivider = RCC_HCLK_DIV1;
 1661              		.loc 1 558 0
ARM GAS  /tmp/ccuqcpRC.s 			page 40


 1662 0078 4FF00003 		mov	r3, #0	@ tmp157,
 1663 007c 3B64     		str	r3, [r7, #64]	@ tmp157, RCC_ClkInitStruct.APB1CLKDivider
 559:Src/usbd_conf.cpp ****   RCC_ClkInitStruct.APB2CLKDivider = RCC_HCLK_DIV1;
 1664              		.loc 1 559 0
 1665 007e 4FF00003 		mov	r3, #0	@ tmp158,
 1666 0082 7B64     		str	r3, [r7, #68]	@ tmp158, RCC_ClkInitStruct.APB2CLKDivider
 560:Src/usbd_conf.cpp ****   HAL_RCC_ClockConfig(&RCC_ClkInitStruct, FLASH_LATENCY_1);
 1667              		.loc 1 560 0
 1668 0084 07F13403 		add	r3, r7, #52	@ tmp159,,
 1669 0088 1846     		mov	r0, r3	@, tmp159
 1670 008a 4FF00101 		mov	r1, #1	@,
 1671 008e FFF7FEFF 		bl	HAL_RCC_ClockConfig	@
 561:Src/usbd_conf.cpp **** 
 562:Src/usbd_conf.cpp ****   __SYSCFG_CLK_ENABLE();
 1672              		.loc 1 562 0
 1673 0092 4FF46053 		mov	r3, #14336	@ D.7704,
 1674 0096 C4F20203 		movt	r3, 16386	@ D.7704,
 1675 009a 4FF46052 		mov	r2, #14336	@ D.7705,
 1676 009e C4F20202 		movt	r2, 16386	@ D.7705,
 1677 00a2 126A     		ldr	r2, [r2, #32]	@ D.7706, D.7705_11->APB2ENR
 1678 00a4 42F00102 		orr	r2, r2, #1	@ D.7707, D.7706,
 1679 00a8 1A62     		str	r2, [r3, #32]	@ D.7707, D.7704_10->APB2ENR
 1680              	.LBE5:
 563:Src/usbd_conf.cpp **** 
 564:Src/usbd_conf.cpp **** }
 1681              		.loc 1 564 0
 1682 00aa 07F14807 		add	r7, r7, #72	@,,
 1683 00ae BD46     		mov	sp, r7
 1684 00b0 80BD     		pop	{r7, pc}
 1685              		.cfi_endproc
 1686              	.LFE88:
 1687              		.size	_Z19SystemClock_Config2v, .-_Z19SystemClock_Config2v
 1688 00b2 00BF     		.section	.bss._ZZ18USBD_static_mallocmE3mem,"aw",%nobits
 1689              		.align	2
 1690              		.type	_ZZ18USBD_static_mallocmE3mem, %object
 1691              		.size	_ZZ18USBD_static_mallocmE3mem, 4000
 1692              	_ZZ18USBD_static_mallocmE3mem:
 1693 0000 00000000 		.space	4000
 1693      00000000 
 1693      00000000 
 1693      00000000 
 1693      00000000 
 1694              		.text
 1695              	.Letext0:
 1696              		.file 2 "Drivers/CMSIS/Device/ST/STM32L1xx/stm32l152xb.h"
 1697              		.file 3 "/home/maciek/gcc-arm-none-eabi/gcc-arm-none-eabi-4_7-2013q1/bin/../lib/gcc/arm-none-eabi/
 1698              		.file 4 "Drivers/CMSIS/Include/core_cm3.h"
 1699              		.file 5 "Drivers/CMSIS/Device/ST/STM32L1xx/stm32l1xx.h"
 1700              		.file 6 "Drivers/STM32L1xx_HAL_Driver/stm32l1xx_hal_def.h"
 1701              		.file 7 "Drivers/STM32L1xx_HAL_Driver/stm32l1xx_hal_rcc.h"
 1702              		.file 8 "Drivers/STM32L1xx_HAL_Driver/stm32l1xx_hal_pcd.h"
 1703              		.file 9 "Middlewares/ST/STM32_USB_Device_Library/Core/usbd_def.h"