ARM GAS  /tmp/ccXC2eKs.s 			page 1


   1              		.syntax unified
   2              		.cpu cortex-m3
   3              		.fpu softvfp
   4              		.eabi_attribute 20, 1	@ Tag_ABI_FP_denormal
   5              		.eabi_attribute 21, 1	@ Tag_ABI_FP_exceptions
   6              		.eabi_attribute 23, 3	@ Tag_ABI_FP_number_model
   7              		.eabi_attribute 24, 1	@ Tag_ABI_align8_needed
   8              		.eabi_attribute 25, 1	@ Tag_ABI_align8_preserved
   9              		.eabi_attribute 26, 1	@ Tag_ABI_enum_size
  10              		.eabi_attribute 30, 6	@ Tag_ABI_optimization_goals
  11              		.eabi_attribute 34, 1	@ Tag_CPU_unaligned_access
  12              		.eabi_attribute 18, 4	@ Tag_ABI_PCS_wchar_t
  13              		.file	"usbd_cdc_if.cpp"
  14              	@ GNU C++ (GNU Tools for ARM Embedded Processors) version 4.7.3 20130312 (release) [ARM/embedded-4_
  15              	@	compiled by GNU C version 4.3.6, GMP version 4.3.2, MPFR version 2.4.2, MPC version 0.8.1
  16              	@ GGC heuristics: --param ggc-min-expand=100 --param ggc-min-heapsize=131072
  17              	@ options passed:  -I . -I Src -I hdr -I Inc -I Middlewares
  18              	@ -I Middlewares/ST -I Middlewares/ST/STM32_USB_Device_Library/Class/CDC
  19              	@ -I Middlewares/ST/STM32_USB_Device_Library/Core -I Drivers
  20              	@ -I Drivers/CMSIS -I Drivers/CMSIS/Device/ST/STM32L1xx
  21              	@ -I Drivers/CMSIS/Include -I Drivers/STM32L1xx_HAL_Driver
  22              	@ -imultilib armv7-m
  23              	@ -iprefix /home/maciek/gcc-arm-none-eabi/gcc-arm-none-eabi-4_7-2013q1/bin/../lib/gcc/arm-none-eabi
  24              	@ -isysroot /home/maciek/gcc-arm-none-eabi/gcc-arm-none-eabi-4_7-2013q1/bin/../arm-none-eabi
  25              	@ -MD out/usbd_cdc_if.d -MF out/usbd_cdc_if.d -MP -MQ out/usbd_cdc_if.o
  26              	@ -D__USES_INITFINI__ -D STM32L1XX_MD Src/usbd_cdc_if.cpp -mcpu=cortex-m3
  27              	@ -mthumb -auxbase-strip out/usbd_cdc_if.o -g -ggdb3 -O0 -Wall -Wextra
  28              	@ -std=gnu++11 -ffunction-sections -fdata-sections -fno-rtti
  29              	@ -fno-exceptions -fverbose-asm
  30              	@ options enabled:  -fauto-inc-dec -fbranch-count-reg -fcommon
  31              	@ -fdata-sections -fdebug-types-section -fdelete-null-pointer-checks
  32              	@ -fdwarf2-cfi-asm -fearly-inlining -feliminate-unused-debug-types
  33              	@ -ffunction-cse -ffunction-sections -fgcse-lm -fgnu-runtime -fident
  34              	@ -finline-atomics -fira-share-save-slots -fira-share-spill-slots -fivopts
  35              	@ -fkeep-static-consts -fleading-underscore -fmath-errno
  36              	@ -fmerge-debug-strings -fmove-loop-invariants -fpeephole
  37              	@ -fprefetch-loop-arrays -freg-struct-return
  38              	@ -fsched-critical-path-heuristic -fsched-dep-count-heuristic
  39              	@ -fsched-group-heuristic -fsched-interblock -fsched-last-insn-heuristic
  40              	@ -fsched-rank-heuristic -fsched-spec -fsched-spec-insn-heuristic
  41              	@ -fsched-stalled-insns-dep -fshow-column -fsigned-zeros
  42              	@ -fsplit-ivs-in-unroller -fstrict-volatile-bitfields -ftrapping-math
  43              	@ -ftree-cselim -ftree-forwprop -ftree-loop-if-convert -ftree-loop-im
  44              	@ -ftree-loop-ivcanon -ftree-loop-optimize -ftree-parallelize-loops=
  45              	@ -ftree-phiprop -ftree-pta -ftree-reassoc -ftree-scev-cprop
  46              	@ -ftree-slp-vectorize -ftree-vect-loop-version -funit-at-a-time
  47              	@ -fverbose-asm -fzero-initialized-in-bss -mfix-cortex-m3-ldrd
  48              	@ -mlittle-endian -msched-prolog -mthumb -munaligned-access
  49              	@ -mvectorize-with-neon-quad
  50              	
  51              		.text
  52              	.Ltext0:
  53              		.cfi_sections	.debug_frame
  54              		.global	UserRxBufferFS
  55              		.section	.bss.UserRxBufferFS,"aw",%nobits
  56              		.align	2
  57              		.type	UserRxBufferFS, %object
ARM GAS  /tmp/ccXC2eKs.s 			page 2


  58              		.size	UserRxBufferFS, 512
  59              	UserRxBufferFS:
  60 0000 00000000 		.space	512
  60      00000000 
  60      00000000 
  60      00000000 
  60      00000000 
  61              		.global	UserTxBufferFS
  62              		.section	.bss.UserTxBufferFS,"aw",%nobits
  63              		.align	2
  64              		.type	UserTxBufferFS, %object
  65              		.size	UserTxBufferFS, 512
  66              	UserTxBufferFS:
  67 0000 00000000 		.space	512
  67      00000000 
  67      00000000 
  67      00000000 
  67      00000000 
  68              		.global	hUsbDevice_0
  69              		.section	.bss.hUsbDevice_0,"aw",%nobits
  70              		.align	2
  71              		.type	hUsbDevice_0, %object
  72              		.size	hUsbDevice_0, 4
  73              	hUsbDevice_0:
  74 0000 00000000 		.space	4
  75              		.global	USBD_Interface_fops_FS
  76              		.section	.data.USBD_Interface_fops_FS,"aw",%progbits
  77              		.align	2
  78              		.type	USBD_Interface_fops_FS, %object
  79              		.size	USBD_Interface_fops_FS, 16
  80              	USBD_Interface_fops_FS:
  81              	@ Init:
  82 0000 00000000 		.word	_ZL11CDC_Init_FSv
  83              	@ DeInit:
  84 0004 00000000 		.word	_ZL13CDC_DeInit_FSv
  85              	@ Control:
  86 0008 00000000 		.word	_ZL14CDC_Control_FShPht
  87              	@ Receive:
  88 000c 00000000 		.word	_ZL14CDC_Receive_FSPhPm
  89              		.section	.text._ZL11CDC_Init_FSv,"ax",%progbits
  90              		.align	2
  91              		.thumb
  92              		.thumb_func
  93              		.type	_ZL11CDC_Init_FSv, %function
  94              	_ZL11CDC_Init_FSv:
  95              	.LFB56:
  96              		.file 1 "Src/usbd_cdc_if.cpp"
   1:Src/usbd_cdc_if.cpp **** /**
   2:Src/usbd_cdc_if.cpp ****   ******************************************************************************
   3:Src/usbd_cdc_if.cpp ****   * @file           : usbd_cdc_if.c
   4:Src/usbd_cdc_if.cpp ****   * @author         : MCD Application Team
   5:Src/usbd_cdc_if.cpp ****   * @version        : V1.1.0
   6:Src/usbd_cdc_if.cpp ****   * @date           : 19-March-2012
   7:Src/usbd_cdc_if.cpp ****   * @brief          :
   8:Src/usbd_cdc_if.cpp ****   ******************************************************************************
   9:Src/usbd_cdc_if.cpp ****   * COPYRIGHT(c) 2014 STMicroelectronics
  10:Src/usbd_cdc_if.cpp ****   *
ARM GAS  /tmp/ccXC2eKs.s 			page 3


  11:Src/usbd_cdc_if.cpp ****   * Redistribution and use in source and binary forms, with or without modification,
  12:Src/usbd_cdc_if.cpp ****   * are permitted provided that the following conditions are met:
  13:Src/usbd_cdc_if.cpp ****   * 1. Redistributions of source code must retain the above copyright notice,
  14:Src/usbd_cdc_if.cpp ****   * this list of conditions and the following disclaimer.
  15:Src/usbd_cdc_if.cpp ****   * 2. Redistributions in binary form must reproduce the above copyright notice,
  16:Src/usbd_cdc_if.cpp ****   * this list of conditions and the following disclaimer in the documentation
  17:Src/usbd_cdc_if.cpp ****   * and/or other materials provided with the distribution.
  18:Src/usbd_cdc_if.cpp ****   * 3. Neither the name of STMicroelectronics nor the names of its contributors
  19:Src/usbd_cdc_if.cpp ****   * may be used to endorse or promote products derived from this software
  20:Src/usbd_cdc_if.cpp ****   * without specific prior written permission.
  21:Src/usbd_cdc_if.cpp ****   *
  22:Src/usbd_cdc_if.cpp ****   * THIS SOFTWARE IS PROVIDED BY THE COPYRIGHT HOLDERS AND CONTRIBUTORS "AS IS"
  23:Src/usbd_cdc_if.cpp ****   * AND ANY EXPRESS OR IMPLIED WARRANTIES, INCLUDING, BUT NOT LIMITED TO, THE
  24:Src/usbd_cdc_if.cpp ****   * IMPLIED WARRANTIES OF MERCHANTABILITY AND FITNESS FOR A PARTICULAR PURPOSE ARE
  25:Src/usbd_cdc_if.cpp ****   * DISCLAIMED. IN NO EVENT SHALL THE COPYRIGHT HOLDER OR CONTRIBUTORS BE LIABLE
  26:Src/usbd_cdc_if.cpp ****   * FOR ANY DIRECT, INDIRECT, INCIDENTAL, SPECIAL, EXEMPLARY, OR CONSEQUENTIAL
  27:Src/usbd_cdc_if.cpp ****   * DAMAGES (INCLUDING, BUT NOT LIMITED TO, PROCUREMENT OF SUBSTITUTE GOODS OR
  28:Src/usbd_cdc_if.cpp ****   * SERVICES; LOSS OF USE, DATA, OR PROFITS; OR BUSINESS INTERRUPTION) HOWEVER
  29:Src/usbd_cdc_if.cpp ****   * CAUSED AND ON ANY THEORY OF LIABILITY, WHETHER IN CONTRACT, STRICT LIABILITY,
  30:Src/usbd_cdc_if.cpp ****   * OR TORT (INCLUDING NEGLIGENCE OR OTHERWISE) ARISING IN ANY WAY OUT OF THE USE
  31:Src/usbd_cdc_if.cpp ****   * OF THIS SOFTWARE, EVEN IF ADVISED OF THE POSSIBILITY OF SUCH DAMAGE.
  32:Src/usbd_cdc_if.cpp ****   *
  33:Src/usbd_cdc_if.cpp ****   ******************************************************************************
  34:Src/usbd_cdc_if.cpp **** */
  35:Src/usbd_cdc_if.cpp **** 
  36:Src/usbd_cdc_if.cpp **** /* Includes ------------------------------------------------------------------*/
  37:Src/usbd_cdc_if.cpp **** #include "usbd_cdc_if.h"
  38:Src/usbd_cdc_if.cpp **** 
  39:Src/usbd_cdc_if.cpp **** /** @addtogroup STM32_USB_OTG_DEVICE_LIBRARY
  40:Src/usbd_cdc_if.cpp ****   * @{
  41:Src/usbd_cdc_if.cpp ****   */
  42:Src/usbd_cdc_if.cpp **** 
  43:Src/usbd_cdc_if.cpp **** /** @defgroup USBD_CDC 
  44:Src/usbd_cdc_if.cpp ****   * @brief usbd core module
  45:Src/usbd_cdc_if.cpp ****   * @{
  46:Src/usbd_cdc_if.cpp ****   */ 
  47:Src/usbd_cdc_if.cpp **** 
  48:Src/usbd_cdc_if.cpp **** /** @defgroup USBD_CDC_Private_TypesDefinitions
  49:Src/usbd_cdc_if.cpp ****   * @{
  50:Src/usbd_cdc_if.cpp ****   */ 
  51:Src/usbd_cdc_if.cpp ****   /* USER CODE BEGIN 0 */ 
  52:Src/usbd_cdc_if.cpp ****   /* USER CODE END 0 */ 
  53:Src/usbd_cdc_if.cpp **** /**
  54:Src/usbd_cdc_if.cpp ****   * @}
  55:Src/usbd_cdc_if.cpp ****   */ 
  56:Src/usbd_cdc_if.cpp **** 
  57:Src/usbd_cdc_if.cpp **** /** @defgroup USBD_CDC_Private_Defines
  58:Src/usbd_cdc_if.cpp ****   * @{
  59:Src/usbd_cdc_if.cpp ****   */ 
  60:Src/usbd_cdc_if.cpp ****   /* USER CODE BEGIN 1 */
  61:Src/usbd_cdc_if.cpp **** /* Define size for the receive and transmit buffer over CDC */
  62:Src/usbd_cdc_if.cpp **** /* It's up to user to redefine and/or remove those define */
  63:Src/usbd_cdc_if.cpp **** #define APP_RX_DATA_SIZE  512
  64:Src/usbd_cdc_if.cpp **** #define APP_TX_DATA_SIZE  512
  65:Src/usbd_cdc_if.cpp ****   /* USER CODE END 1 */  
  66:Src/usbd_cdc_if.cpp **** /**
  67:Src/usbd_cdc_if.cpp ****   * @}
ARM GAS  /tmp/ccXC2eKs.s 			page 4


  68:Src/usbd_cdc_if.cpp ****   */ 
  69:Src/usbd_cdc_if.cpp **** 
  70:Src/usbd_cdc_if.cpp **** /** @defgroup USBD_CDC_Private_Macros
  71:Src/usbd_cdc_if.cpp ****   * @{
  72:Src/usbd_cdc_if.cpp ****   */ 
  73:Src/usbd_cdc_if.cpp ****   /* USER CODE BEGIN 2 */ 
  74:Src/usbd_cdc_if.cpp ****   /* USER CODE END 2 */
  75:Src/usbd_cdc_if.cpp **** /**
  76:Src/usbd_cdc_if.cpp ****   * @}
  77:Src/usbd_cdc_if.cpp ****   */ 
  78:Src/usbd_cdc_if.cpp ****   
  79:Src/usbd_cdc_if.cpp **** /** @defgroup USBD_CDC_Private_Variables
  80:Src/usbd_cdc_if.cpp ****   * @{
  81:Src/usbd_cdc_if.cpp ****   */
  82:Src/usbd_cdc_if.cpp ****   /* USER CODE BEGIN 3 */
  83:Src/usbd_cdc_if.cpp **** /* Create buffer for reception and transmission           */
  84:Src/usbd_cdc_if.cpp **** /* It's up to user to redefine and/or remove those define */
  85:Src/usbd_cdc_if.cpp **** /* Received Data over USB are stored in this buffer       */
  86:Src/usbd_cdc_if.cpp **** uint8_t UserRxBufferFS[APP_RX_DATA_SIZE];
  87:Src/usbd_cdc_if.cpp **** 
  88:Src/usbd_cdc_if.cpp **** /* Send Data over USB CDC are stored in this buffer       */
  89:Src/usbd_cdc_if.cpp **** uint8_t UserTxBufferFS[APP_TX_DATA_SIZE];
  90:Src/usbd_cdc_if.cpp **** 
  91:Src/usbd_cdc_if.cpp ****   /* USER CODE END 3 */
  92:Src/usbd_cdc_if.cpp **** 
  93:Src/usbd_cdc_if.cpp **** /* USB handler declaration */
  94:Src/usbd_cdc_if.cpp **** /* Handle for USB Full Speed IP */
  95:Src/usbd_cdc_if.cpp **** USBD_HandleTypeDef  *hUsbDevice_0;
  96:Src/usbd_cdc_if.cpp **** 
  97:Src/usbd_cdc_if.cpp **** extern USBD_HandleTypeDef hUsbDeviceFS;
  98:Src/usbd_cdc_if.cpp **** 
  99:Src/usbd_cdc_if.cpp **** /**
 100:Src/usbd_cdc_if.cpp ****   * @}
 101:Src/usbd_cdc_if.cpp ****   */ 
 102:Src/usbd_cdc_if.cpp ****   
 103:Src/usbd_cdc_if.cpp **** /** @defgroup USBD_CDC_Private_FunctionPrototypes
 104:Src/usbd_cdc_if.cpp ****   * @{
 105:Src/usbd_cdc_if.cpp ****   */
 106:Src/usbd_cdc_if.cpp **** static int8_t CDC_Init_FS     (void);
 107:Src/usbd_cdc_if.cpp **** static int8_t CDC_DeInit_FS   (void);
 108:Src/usbd_cdc_if.cpp **** static int8_t CDC_Control_FS  (uint8_t cmd, uint8_t* pbuf, uint16_t length);
 109:Src/usbd_cdc_if.cpp **** static int8_t CDC_Receive_FS  (uint8_t* pbuf, uint32_t *Len);
 110:Src/usbd_cdc_if.cpp **** 
 111:Src/usbd_cdc_if.cpp **** USBD_CDC_ItfTypeDef USBD_Interface_fops_FS = 
 112:Src/usbd_cdc_if.cpp **** {
 113:Src/usbd_cdc_if.cpp ****   CDC_Init_FS,
 114:Src/usbd_cdc_if.cpp ****   CDC_DeInit_FS,
 115:Src/usbd_cdc_if.cpp ****   CDC_Control_FS,  
 116:Src/usbd_cdc_if.cpp ****   CDC_Receive_FS
 117:Src/usbd_cdc_if.cpp **** };
 118:Src/usbd_cdc_if.cpp **** 
 119:Src/usbd_cdc_if.cpp **** /* Private functions ---------------------------------------------------------*/
 120:Src/usbd_cdc_if.cpp **** /**
 121:Src/usbd_cdc_if.cpp ****   * @brief  CDC_Init_FS
 122:Src/usbd_cdc_if.cpp ****   *         Initializes the CDC media low layer over the FS USB IP
 123:Src/usbd_cdc_if.cpp ****   * @param  None
 124:Src/usbd_cdc_if.cpp ****   * @retval Result of the opeartion: USBD_OK if all operations are OK else USBD_FAIL
ARM GAS  /tmp/ccXC2eKs.s 			page 5


 125:Src/usbd_cdc_if.cpp ****   */
 126:Src/usbd_cdc_if.cpp **** static int8_t CDC_Init_FS(void)
 127:Src/usbd_cdc_if.cpp **** {
  97              		.loc 1 127 0
  98              		.cfi_startproc
  99              		@ args = 0, pretend = 0, frame = 0
 100              		@ frame_needed = 1, uses_anonymous_args = 0
 101 0000 80B5     		push	{r7, lr}	@
 102              	.LCFI0:
 103              		.cfi_def_cfa_offset 8
 104              		.cfi_offset 7, -8
 105              		.cfi_offset 14, -4
 106 0002 00AF     		add	r7, sp, #0	@,,
 107              	.LCFI1:
 108              		.cfi_def_cfa_register 7
 128:Src/usbd_cdc_if.cpp ****   hUsbDevice_0 = &hUsbDeviceFS;
 109              		.loc 1 128 0
 110 0004 40F20003 		movw	r3, #:lower16:hUsbDevice_0	@ tmp138,
 111 0008 C0F20003 		movt	r3, #:upper16:hUsbDevice_0	@ tmp138,
 112 000c 40F20002 		movw	r2, #:lower16:hUsbDeviceFS	@ tmp139,
 113 0010 C0F20002 		movt	r2, #:upper16:hUsbDeviceFS	@ tmp139,
 114 0014 1A60     		str	r2, [r3, #0]	@ tmp139, hUsbDevice_0
 129:Src/usbd_cdc_if.cpp ****   /* USER CODE BEGIN 4 */ 
 130:Src/usbd_cdc_if.cpp ****   /* Set Application Buffers */
 131:Src/usbd_cdc_if.cpp ****   USBD_CDC_SetTxBuffer(hUsbDevice_0, UserTxBufferFS, 0);
 115              		.loc 1 131 0
 116 0016 40F20003 		movw	r3, #:lower16:hUsbDevice_0	@ tmp140,
 117 001a C0F20003 		movt	r3, #:upper16:hUsbDevice_0	@ tmp140,
 118 001e 1B68     		ldr	r3, [r3, #0]	@ hUsbDevice_0.2, hUsbDevice_0
 119 0020 1846     		mov	r0, r3	@, hUsbDevice_0.2
 120 0022 40F20001 		movw	r1, #:lower16:UserTxBufferFS	@,
 121 0026 C0F20001 		movt	r1, #:upper16:UserTxBufferFS	@,
 122 002a 4FF00002 		mov	r2, #0	@,
 123 002e FFF7FEFF 		bl	_Z20USBD_CDC_SetTxBufferP19_USBD_HandleTypeDefPht	@
 132:Src/usbd_cdc_if.cpp ****   USBD_CDC_SetRxBuffer(hUsbDevice_0, UserRxBufferFS);
 124              		.loc 1 132 0
 125 0032 40F20003 		movw	r3, #:lower16:hUsbDevice_0	@ tmp141,
 126 0036 C0F20003 		movt	r3, #:upper16:hUsbDevice_0	@ tmp141,
 127 003a 1B68     		ldr	r3, [r3, #0]	@ hUsbDevice_0.3, hUsbDevice_0
 128 003c 1846     		mov	r0, r3	@, hUsbDevice_0.3
 129 003e 40F20001 		movw	r1, #:lower16:UserRxBufferFS	@,
 130 0042 C0F20001 		movt	r1, #:upper16:UserRxBufferFS	@,
 131 0046 FFF7FEFF 		bl	_Z20USBD_CDC_SetRxBufferP19_USBD_HandleTypeDefPh	@
 133:Src/usbd_cdc_if.cpp ****   return (USBD_OK);
 132              		.loc 1 133 0
 133 004a 4FF00003 		mov	r3, #0	@ D.7668,
 134 004e 5BB2     		sxtb	r3, r3	@ tmp143, D.7668
 134:Src/usbd_cdc_if.cpp ****   /* USER CODE END 4 */ 
 135:Src/usbd_cdc_if.cpp **** }
 135              		.loc 1 135 0
 136 0050 1846     		mov	r0, r3	@, <retval>
 137 0052 80BD     		pop	{r7, pc}	@
 138              		.cfi_endproc
 139              	.LFE56:
 140              		.size	_ZL11CDC_Init_FSv, .-_ZL11CDC_Init_FSv
 141              		.section	.text._ZL13CDC_DeInit_FSv,"ax",%progbits
 142              		.align	2
ARM GAS  /tmp/ccXC2eKs.s 			page 6


 143              		.thumb
 144              		.thumb_func
 145              		.type	_ZL13CDC_DeInit_FSv, %function
 146              	_ZL13CDC_DeInit_FSv:
 147              	.LFB57:
 136:Src/usbd_cdc_if.cpp **** 
 137:Src/usbd_cdc_if.cpp **** /**
 138:Src/usbd_cdc_if.cpp ****   * @brief  CDC_DeInit_FS
 139:Src/usbd_cdc_if.cpp ****   *         DeInitializes the CDC media low layer
 140:Src/usbd_cdc_if.cpp ****   * @param  None
 141:Src/usbd_cdc_if.cpp ****   * @retval Result of the opeartion: USBD_OK if all operations are OK else USBD_FAIL
 142:Src/usbd_cdc_if.cpp ****   */
 143:Src/usbd_cdc_if.cpp **** static int8_t CDC_DeInit_FS(void)
 144:Src/usbd_cdc_if.cpp **** {
 148              		.loc 1 144 0
 149              		.cfi_startproc
 150              		@ args = 0, pretend = 0, frame = 0
 151              		@ frame_needed = 1, uses_anonymous_args = 0
 152              		@ link register save eliminated.
 153 0000 80B4     		push	{r7}	@
 154              	.LCFI2:
 155              		.cfi_def_cfa_offset 4
 156              		.cfi_offset 7, -4
 157 0002 00AF     		add	r7, sp, #0	@,,
 158              	.LCFI3:
 159              		.cfi_def_cfa_register 7
 145:Src/usbd_cdc_if.cpp ****   /* USER CODE BEGIN 5 */ 
 146:Src/usbd_cdc_if.cpp ****   return (USBD_OK);
 160              		.loc 1 146 0
 161 0004 4FF00003 		mov	r3, #0	@ D.7664,
 162 0008 5BB2     		sxtb	r3, r3	@ tmp137, D.7664
 147:Src/usbd_cdc_if.cpp ****   /* USER CODE END 5 */ 
 148:Src/usbd_cdc_if.cpp **** }
 163              		.loc 1 148 0
 164 000a 1846     		mov	r0, r3	@, <retval>
 165 000c BD46     		mov	sp, r7
 166 000e 80BC     		pop	{r7}
 167 0010 7047     		bx	lr
 168              		.cfi_endproc
 169              	.LFE57:
 170              		.size	_ZL13CDC_DeInit_FSv, .-_ZL13CDC_DeInit_FSv
 171 0012 00BF     		.section	.text._ZL14CDC_Control_FShPht,"ax",%progbits
 172              		.align	2
 173              		.thumb
 174              		.thumb_func
 175              		.type	_ZL14CDC_Control_FShPht, %function
 176              	_ZL14CDC_Control_FShPht:
 177              	.LFB58:
 149:Src/usbd_cdc_if.cpp **** 
 150:Src/usbd_cdc_if.cpp **** /**
 151:Src/usbd_cdc_if.cpp ****   * @brief  CDC_Control_FS
 152:Src/usbd_cdc_if.cpp ****   *         Manage the CDC class requests
 153:Src/usbd_cdc_if.cpp ****   * @param  Cmd: Command code            
 154:Src/usbd_cdc_if.cpp ****   * @param  Buf: Buffer containing command data (request parameters)
 155:Src/usbd_cdc_if.cpp ****   * @param  Len: Number of data to be sent (in bytes)
 156:Src/usbd_cdc_if.cpp ****   * @retval Result of the opeartion: USBD_OK if all operations are OK else USBD_FAIL
 157:Src/usbd_cdc_if.cpp ****   */
ARM GAS  /tmp/ccXC2eKs.s 			page 7


 158:Src/usbd_cdc_if.cpp **** static int8_t CDC_Control_FS  (uint8_t cmd, uint8_t* pbuf, uint16_t length)
 159:Src/usbd_cdc_if.cpp **** { 
 178              		.loc 1 159 0
 179              		.cfi_startproc
 180              		@ args = 0, pretend = 0, frame = 8
 181              		@ frame_needed = 1, uses_anonymous_args = 0
 182              		@ link register save eliminated.
 183 0000 80B4     		push	{r7}	@
 184              	.LCFI4:
 185              		.cfi_def_cfa_offset 4
 186              		.cfi_offset 7, -4
 187 0002 83B0     		sub	sp, sp, #12	@,,
 188              	.LCFI5:
 189              		.cfi_def_cfa_offset 16
 190 0004 00AF     		add	r7, sp, #0	@,,
 191              	.LCFI6:
 192              		.cfi_def_cfa_register 7
 193 0006 3960     		str	r1, [r7, #0]	@ pbuf, pbuf
 194 0008 1346     		mov	r3, r2	@ tmp139, length
 195 000a 0246     		mov	r2, r0	@ tmp138, tmp137
 196 000c FA71     		strb	r2, [r7, #7]	@ tmp138, cmd
 197 000e BB80     		strh	r3, [r7, #4]	@ movhi	@ tmp140, length
 160:Src/usbd_cdc_if.cpp ****   /* USER CODE BEGIN 6 */
 161:Src/usbd_cdc_if.cpp ****   switch (cmd)
 198              		.loc 1 161 0
 199 0010 FB79     		ldrb	r3, [r7, #7]	@ zero_extendqisi2	@ D.7661, cmd
 200 0012 232B     		cmp	r3, #35	@ D.7661,
 201 0014 4AD8     		bhi	.L19	@
 202 0016 01A2     		adr	r2, .L16	@,
 203 0018 52F823F0 		ldr	pc, [r2, r3, lsl #2]	@, D.7661
 204              		.align	2
 205              	.L16:
 206 001c AD000000 		.word	.L19+1
 207 0020 AD000000 		.word	.L19+1
 208 0024 AD000000 		.word	.L19+1
 209 0028 AD000000 		.word	.L19+1
 210 002c AD000000 		.word	.L19+1
 211 0030 AD000000 		.word	.L19+1
 212 0034 AD000000 		.word	.L19+1
 213 0038 AD000000 		.word	.L19+1
 214 003c AD000000 		.word	.L19+1
 215 0040 AD000000 		.word	.L19+1
 216 0044 AD000000 		.word	.L19+1
 217 0048 AD000000 		.word	.L19+1
 218 004c AD000000 		.word	.L19+1
 219 0050 AD000000 		.word	.L19+1
 220 0054 AD000000 		.word	.L19+1
 221 0058 AD000000 		.word	.L19+1
 222 005c AD000000 		.word	.L19+1
 223 0060 AD000000 		.word	.L19+1
 224 0064 AD000000 		.word	.L19+1
 225 0068 AD000000 		.word	.L19+1
 226 006c AD000000 		.word	.L19+1
 227 0070 AD000000 		.word	.L19+1
 228 0074 AD000000 		.word	.L19+1
 229 0078 AD000000 		.word	.L19+1
 230 007c AD000000 		.word	.L19+1
ARM GAS  /tmp/ccXC2eKs.s 			page 8


 231 0080 AD000000 		.word	.L19+1
 232 0084 AD000000 		.word	.L19+1
 233 0088 AD000000 		.word	.L19+1
 234 008c AD000000 		.word	.L19+1
 235 0090 AD000000 		.word	.L19+1
 236 0094 AD000000 		.word	.L19+1
 237 0098 AD000000 		.word	.L19+1
 238 009c AD000000 		.word	.L19+1
 239 00a0 AD000000 		.word	.L19+1
 240 00a4 AD000000 		.word	.L19+1
 241 00a8 AD000000 		.word	.L19+1
 242              	.L19:
 162:Src/usbd_cdc_if.cpp ****   {
 163:Src/usbd_cdc_if.cpp ****   case CDC_SEND_ENCAPSULATED_COMMAND:
 164:Src/usbd_cdc_if.cpp ****  
 165:Src/usbd_cdc_if.cpp ****     break;
 166:Src/usbd_cdc_if.cpp **** 
 167:Src/usbd_cdc_if.cpp ****   case CDC_GET_ENCAPSULATED_RESPONSE:
 168:Src/usbd_cdc_if.cpp ****  
 169:Src/usbd_cdc_if.cpp ****     break;
 170:Src/usbd_cdc_if.cpp **** 
 171:Src/usbd_cdc_if.cpp ****   case CDC_SET_COMM_FEATURE:
 172:Src/usbd_cdc_if.cpp ****  
 173:Src/usbd_cdc_if.cpp ****     break;
 174:Src/usbd_cdc_if.cpp **** 
 175:Src/usbd_cdc_if.cpp ****   case CDC_GET_COMM_FEATURE:
 176:Src/usbd_cdc_if.cpp **** 
 177:Src/usbd_cdc_if.cpp ****     break;
 178:Src/usbd_cdc_if.cpp **** 
 179:Src/usbd_cdc_if.cpp ****   case CDC_CLEAR_COMM_FEATURE:
 180:Src/usbd_cdc_if.cpp **** 
 181:Src/usbd_cdc_if.cpp ****     break;
 182:Src/usbd_cdc_if.cpp **** 
 183:Src/usbd_cdc_if.cpp ****   /*******************************************************************************/
 184:Src/usbd_cdc_if.cpp ****   /* Line Coding Structure                                                       */
 185:Src/usbd_cdc_if.cpp ****   /*-----------------------------------------------------------------------------*/
 186:Src/usbd_cdc_if.cpp ****   /* Offset | Field       | Size | Value  | Description                          */
 187:Src/usbd_cdc_if.cpp ****   /* 0      | dwDTERate   |   4  | Number |Data terminal rate, in bits per second*/
 188:Src/usbd_cdc_if.cpp ****   /* 4      | bCharFormat |   1  | Number | Stop bits                            */
 189:Src/usbd_cdc_if.cpp ****   /*                                        0 - 1 Stop bit                       */
 190:Src/usbd_cdc_if.cpp ****   /*                                        1 - 1.5 Stop bits                    */
 191:Src/usbd_cdc_if.cpp ****   /*                                        2 - 2 Stop bits                      */
 192:Src/usbd_cdc_if.cpp ****   /* 5      | bParityType |  1   | Number | Parity                               */
 193:Src/usbd_cdc_if.cpp ****   /*                                        0 - None                             */
 194:Src/usbd_cdc_if.cpp ****   /*                                        1 - Odd                              */ 
 195:Src/usbd_cdc_if.cpp ****   /*                                        2 - Even                             */
 196:Src/usbd_cdc_if.cpp ****   /*                                        3 - Mark                             */
 197:Src/usbd_cdc_if.cpp ****   /*                                        4 - Space                            */
 198:Src/usbd_cdc_if.cpp ****   /* 6      | bDataBits  |   1   | Number Data bits (5, 6, 7, 8 or 16).          */
 199:Src/usbd_cdc_if.cpp ****   /*******************************************************************************/
 200:Src/usbd_cdc_if.cpp ****   case CDC_SET_LINE_CODING:   
 201:Src/usbd_cdc_if.cpp **** 	
 202:Src/usbd_cdc_if.cpp ****     break;
 203:Src/usbd_cdc_if.cpp **** 
 204:Src/usbd_cdc_if.cpp ****   case CDC_GET_LINE_CODING:     
 205:Src/usbd_cdc_if.cpp **** 
 206:Src/usbd_cdc_if.cpp ****     break;
ARM GAS  /tmp/ccXC2eKs.s 			page 9


 207:Src/usbd_cdc_if.cpp **** 
 208:Src/usbd_cdc_if.cpp ****   case CDC_SET_CONTROL_LINE_STATE:
 209:Src/usbd_cdc_if.cpp **** 
 210:Src/usbd_cdc_if.cpp ****     break;
 211:Src/usbd_cdc_if.cpp **** 
 212:Src/usbd_cdc_if.cpp ****   case CDC_SEND_BREAK:
 213:Src/usbd_cdc_if.cpp ****  
 214:Src/usbd_cdc_if.cpp ****     break;    
 215:Src/usbd_cdc_if.cpp ****     
 216:Src/usbd_cdc_if.cpp ****   default:
 217:Src/usbd_cdc_if.cpp ****     break;
 243              		.loc 1 217 0
 244 00ac 00BF     		nop
 245              	.L17:
 218:Src/usbd_cdc_if.cpp ****   }
 219:Src/usbd_cdc_if.cpp **** 
 220:Src/usbd_cdc_if.cpp ****   return (USBD_OK);
 246              		.loc 1 220 0
 247 00ae 4FF00003 		mov	r3, #0	@ D.7662,
 248 00b2 5BB2     		sxtb	r3, r3	@ tmp142, D.7662
 221:Src/usbd_cdc_if.cpp ****   /* USER CODE END 6 */
 222:Src/usbd_cdc_if.cpp **** }
 249              		.loc 1 222 0
 250 00b4 1846     		mov	r0, r3	@, <retval>
 251 00b6 07F10C07 		add	r7, r7, #12	@,,
 252 00ba BD46     		mov	sp, r7
 253 00bc 80BC     		pop	{r7}
 254 00be 7047     		bx	lr
 255              		.cfi_endproc
 256              	.LFE58:
 257              		.size	_ZL14CDC_Control_FShPht, .-_ZL14CDC_Control_FShPht
 258              		.section	.text._ZL14CDC_Receive_FSPhPm,"ax",%progbits
 259              		.align	2
 260              		.thumb
 261              		.thumb_func
 262              		.type	_ZL14CDC_Receive_FSPhPm, %function
 263              	_ZL14CDC_Receive_FSPhPm:
 264              	.LFB59:
 223:Src/usbd_cdc_if.cpp **** 
 224:Src/usbd_cdc_if.cpp **** /**
 225:Src/usbd_cdc_if.cpp ****   * @brief  CDC_Receive_FS
 226:Src/usbd_cdc_if.cpp ****   *         Data received over USB OUT endpoint are sent over CDC interface 
 227:Src/usbd_cdc_if.cpp ****   *         through this function.
 228:Src/usbd_cdc_if.cpp ****   *           
 229:Src/usbd_cdc_if.cpp ****   *         @note
 230:Src/usbd_cdc_if.cpp ****   *         This function will block any OUT packet reception on USB endpoint 
 231:Src/usbd_cdc_if.cpp ****   *         untill exiting this function. If you exit this function before transfer
 232:Src/usbd_cdc_if.cpp ****   *         is complete on CDC interface (ie. using DMA controller) it will result 
 233:Src/usbd_cdc_if.cpp ****   *         in receiving more data while previous ones are still not sent.
 234:Src/usbd_cdc_if.cpp ****   *                 
 235:Src/usbd_cdc_if.cpp ****   * @param  Buf: Buffer of data to be received
 236:Src/usbd_cdc_if.cpp ****   * @param  Len: Number of data received (in bytes)
 237:Src/usbd_cdc_if.cpp ****   * @retval Result of the opeartion: USBD_OK if all operations are OK else USBD_FAIL
 238:Src/usbd_cdc_if.cpp ****   */
 239:Src/usbd_cdc_if.cpp **** static int8_t CDC_Receive_FS (uint8_t* Buf, uint32_t *Len)
 240:Src/usbd_cdc_if.cpp **** {
 265              		.loc 1 240 0
ARM GAS  /tmp/ccXC2eKs.s 			page 10


 266              		.cfi_startproc
 267              		@ args = 0, pretend = 0, frame = 8
 268              		@ frame_needed = 1, uses_anonymous_args = 0
 269              		@ link register save eliminated.
 270 0000 80B4     		push	{r7}	@
 271              	.LCFI7:
 272              		.cfi_def_cfa_offset 4
 273              		.cfi_offset 7, -4
 274 0002 83B0     		sub	sp, sp, #12	@,,
 275              	.LCFI8:
 276              		.cfi_def_cfa_offset 16
 277 0004 00AF     		add	r7, sp, #0	@,,
 278              	.LCFI9:
 279              		.cfi_def_cfa_register 7
 280 0006 7860     		str	r0, [r7, #4]	@ Buf, Buf
 281 0008 3960     		str	r1, [r7, #0]	@ Len, Len
 241:Src/usbd_cdc_if.cpp ****   /* USER CODE BEGIN 7 */ 
 242:Src/usbd_cdc_if.cpp ****   return (USBD_OK);
 282              		.loc 1 242 0
 283 000a 4FF00003 		mov	r3, #0	@ D.7658,
 284 000e 5BB2     		sxtb	r3, r3	@ tmp137, D.7658
 243:Src/usbd_cdc_if.cpp ****   /* USER CODE END 7 */ 
 244:Src/usbd_cdc_if.cpp **** }
 285              		.loc 1 244 0
 286 0010 1846     		mov	r0, r3	@, <retval>
 287 0012 07F10C07 		add	r7, r7, #12	@,,
 288 0016 BD46     		mov	sp, r7
 289 0018 80BC     		pop	{r7}
 290 001a 7047     		bx	lr
 291              		.cfi_endproc
 292              	.LFE59:
 293              		.size	_ZL14CDC_Receive_FSPhPm, .-_ZL14CDC_Receive_FSPhPm
 294              		.section	.text._Z15CDC_Transmit_FSPht,"ax",%progbits
 295              		.align	2
 296              		.global	_Z15CDC_Transmit_FSPht
 297              		.thumb
 298              		.thumb_func
 299              		.type	_Z15CDC_Transmit_FSPht, %function
 300              	_Z15CDC_Transmit_FSPht:
 301              	.LFB60:
 245:Src/usbd_cdc_if.cpp **** 
 246:Src/usbd_cdc_if.cpp **** /**
 247:Src/usbd_cdc_if.cpp ****   * @brief  CDC_Transmit_FS
 248:Src/usbd_cdc_if.cpp ****   *         Data send over USB IN endpoint are sent over CDC interface 
 249:Src/usbd_cdc_if.cpp ****   *         through this function.           
 250:Src/usbd_cdc_if.cpp ****   *         @note
 251:Src/usbd_cdc_if.cpp ****   *         
 252:Src/usbd_cdc_if.cpp ****   *                 
 253:Src/usbd_cdc_if.cpp ****   * @param  Buf: Buffer of data to be send
 254:Src/usbd_cdc_if.cpp ****   * @param  Len: Number of data to be send (in bytes)
 255:Src/usbd_cdc_if.cpp ****   * @retval Result of the opeartion: USBD_OK if all operations are OK else USBD_FAIL or USBD_BUSY
 256:Src/usbd_cdc_if.cpp ****   */
 257:Src/usbd_cdc_if.cpp **** uint8_t CDC_Transmit_FS(uint8_t* Buf, uint16_t Len)
 258:Src/usbd_cdc_if.cpp **** {
 302              		.loc 1 258 0
 303              		.cfi_startproc
 304              		@ args = 0, pretend = 0, frame = 16
ARM GAS  /tmp/ccXC2eKs.s 			page 11


 305              		@ frame_needed = 1, uses_anonymous_args = 0
 306 0000 80B5     		push	{r7, lr}	@
 307              	.LCFI10:
 308              		.cfi_def_cfa_offset 8
 309              		.cfi_offset 7, -8
 310              		.cfi_offset 14, -4
 311 0002 84B0     		sub	sp, sp, #16	@,,
 312              	.LCFI11:
 313              		.cfi_def_cfa_offset 24
 314 0004 00AF     		add	r7, sp, #0	@,,
 315              	.LCFI12:
 316              		.cfi_def_cfa_register 7
 317 0006 7860     		str	r0, [r7, #4]	@ Buf, Buf
 318 0008 0B46     		mov	r3, r1	@ tmp138, Len
 319 000a 7B80     		strh	r3, [r7, #2]	@ movhi	@ tmp139, Len
 320              	.LBB2:
 259:Src/usbd_cdc_if.cpp ****   uint8_t result = USBD_OK;
 321              		.loc 1 259 0
 322 000c 4FF00003 		mov	r3, #0	@ tmp140,
 323 0010 FB73     		strb	r3, [r7, #15]	@ tmp141, result
 260:Src/usbd_cdc_if.cpp ****   /* USER CODE BEGIN 8 */ 
 261:Src/usbd_cdc_if.cpp ****   USBD_CDC_SetTxBuffer(hUsbDevice_0, UserTxBufferFS, Len);   
 324              		.loc 1 261 0
 325 0012 40F20003 		movw	r3, #:lower16:hUsbDevice_0	@ tmp142,
 326 0016 C0F20003 		movt	r3, #:upper16:hUsbDevice_0	@ tmp142,
 327 001a 1A68     		ldr	r2, [r3, #0]	@ hUsbDevice_0.0, hUsbDevice_0
 328 001c 7B88     		ldrh	r3, [r7, #2]	@ tmp143, Len
 329 001e 1046     		mov	r0, r2	@, hUsbDevice_0.0
 330 0020 40F20001 		movw	r1, #:lower16:UserTxBufferFS	@,
 331 0024 C0F20001 		movt	r1, #:upper16:UserTxBufferFS	@,
 332 0028 1A46     		mov	r2, r3	@, tmp143
 333 002a FFF7FEFF 		bl	_Z20USBD_CDC_SetTxBufferP19_USBD_HandleTypeDefPht	@
 262:Src/usbd_cdc_if.cpp ****   result = USBD_CDC_TransmitPacket(hUsbDevice_0);
 334              		.loc 1 262 0
 335 002e 40F20003 		movw	r3, #:lower16:hUsbDevice_0	@ tmp144,
 336 0032 C0F20003 		movt	r3, #:upper16:hUsbDevice_0	@ tmp144,
 337 0036 1B68     		ldr	r3, [r3, #0]	@ hUsbDevice_0.1, hUsbDevice_0
 338 0038 1846     		mov	r0, r3	@, hUsbDevice_0.1
 339 003a FFF7FEFF 		bl	_Z23USBD_CDC_TransmitPacketP19_USBD_HandleTypeDef	@
 340 003e 0346     		mov	r3, r0	@ tmp145,
 341 0040 FB73     		strb	r3, [r7, #15]	@ tmp146, result
 263:Src/usbd_cdc_if.cpp ****   /* USER CODE END 8 */ 
 264:Src/usbd_cdc_if.cpp ****   return result;
 342              		.loc 1 264 0
 343 0042 FB7B     		ldrb	r3, [r7, #15]	@ zero_extendqisi2	@ D.7656, result
 344              	.LBE2:
 265:Src/usbd_cdc_if.cpp **** }
 345              		.loc 1 265 0
 346 0044 1846     		mov	r0, r3	@, <retval>
 347 0046 07F11007 		add	r7, r7, #16	@,,
 348 004a BD46     		mov	sp, r7
 349 004c 80BD     		pop	{r7, pc}
 350              		.cfi_endproc
 351              	.LFE60:
 352              		.size	_Z15CDC_Transmit_FSPht, .-_Z15CDC_Transmit_FSPht
 353 004e 00BF     		.text
 354              	.Letext0:
ARM GAS  /tmp/ccXC2eKs.s 			page 12


 355              		.file 2 "/home/maciek/gcc-arm-none-eabi/gcc-arm-none-eabi-4_7-2013q1/bin/../lib/gcc/arm-none-eabi/
 356              		.file 3 "Middlewares/ST/STM32_USB_Device_Library/Core/usbd_def.h"
 357              		.file 4 "Middlewares/ST/STM32_USB_Device_Library/Class/CDC/usbd_cdc.h"
 358              		.file 5 "Drivers/CMSIS/Include/core_cm3.h"